(dp1
S'url'
p2
(dp3
S'type'
p4
S'string'
p5
sS'sortable'
p6
I2
sS'sql'
p7
S'CHAR(512)'
p8
ssS'created_on'
p9
(dp10
g4
S'datetime'
p11
sg6
I4
sg7
S'TIMESTAMP'
p12
ssS'id'
p13
(dp14
g4
S'id'
p15
sg6
I1
sg7
S'INTEGER PRIMARY KEY AUTOINCREMENT'
p16
ssS'board'
p17
(dp18
g4
S'reference board'
p19
sg6
I3
sg7
S'INTEGER REFERENCES board(id) ON DELETE CASCADE'
p20
ss.