(dp1
S'url'
p2
(dp3
S'type'
p4
S'string'
p5
sS'sortable'
p6
I2
sS'sql'
p7
S'CHAR(512)'
p8
ssS'created_on'
p9
(dp10
g4
S'datetime'
p11
sg6
I4
sg7
S'TIMESTAMP'
p12
ssS'id'
p13
(dp14
g4
g13
sg6
I1
sg7
S'INTEGER PRIMARY KEY AUTOINCREMENT'
p15
ssS'board'
p16
(dp17
g4
S'reference board'
p18
sg6
I3
sg7
S'INTEGER REFERENCES board(id) ON DELETE CASCADE'
p19
ss.