(dp1
S'output'
p2
S"<type 'exceptions.AttributeError'> 'Set' object has no attribute 'page'"
p3
sS'layer'
p4
S'/Users/udimilo/Documents/web2py/applications/udi0312/controllers/default.py'
p5
sS'code'
p6
S'# -*- coding: utf-8 -*-\n# this file is released under public domain and you can use without limitations\n\n#########################################################################\n## This is a samples controller\n## - index is the default action of any application\n## - user is required for authentication and authorization\n## - download is for downloading files uploaded in the db (does streaming)\n## - call exposes all registered services (none by default)\n#########################################################################\n\ndef index():\n    pages = db().select(db.page.ALL)\n    categories = db().select(db.category.ALL)\n    boards = db().select(db.board.ALL)        \n    return dict(items=pages, categories=categories, boards=boards)\n    \ndef addPage():\n    page = db().page.insert(user_id = auth.user, url = request.vars.url, height = 300)\n    ##board = db().select(db.board.name == request.vars.board)\n    ##pin = db().pin.insert(board_id = board.id, page_id = pageId)\n    return request.vars.url,\'/\',request.vars.board\n    ##,\' /// \',page,\'-\',board,\'-\',pin\n    \ndef user():\n    """\n    exposes:\n    http://..../[app]/default/user/login\n    http://..../[app]/default/user/logout\n    http://..../[app]/default/user/register\n    http://..../[app]/default/user/profile\n    http://..../[app]/default/user/retrieve_password\n    http://..../[app]/default/user/change_password\n    use @auth.requires_login()\n        @auth.requires_membership(\'group name\')\n        @auth.requires_permission(\'read\',\'table name\',record_id)\n    to decorate functions that need access control\n    """\n    return dict(form=auth())\n\n\ndef download():\n    """\n    allows downloading of uploaded files\n    http://..../[app]/default/download/[filename]\n    """\n    return response.download(request,db)\n\n\ndef call():\n    """\n    exposes services. for example:\n    http://..../[app]/default/call/jsonrpc\n    decorate with @services.jsonrpc the functions to expose\n    supports xml, json, xmlrpc, jsonrpc, amfrpc, rss, csv\n    """\n    return service()\n\n\n@auth.requires_signature()\ndef data():\n    """\n    http://..../[app]/default/data/tables\n    http://..../[app]/default/data/create/[table]\n    http://..../[app]/default/data/read/[table]/[id]\n    http://..../[app]/default/data/update/[table]/[id]\n    http://..../[app]/default/data/delete/[table]/[id]\n    http://..../[app]/default/data/select/[table]\n    http://..../[app]/default/data/search/[table]\n    but URLs must be signed, i.e. linked with\n      A(\'table\',_href=URL(\'data/tables\',user_signature=True))\n    or with the signed load operator\n      LOAD(\'default\',\'data.load\',args=\'tables\',ajax=True,user_signature=True)\n    """\n    return dict(form=crud())\n\nresponse._vars=response._caller(addPage)\n'
p7
sS'snapshot'
p8
(dp9
S'exception'
p10
(dp11
S'__hash__'
p12
S"<method-wrapper '__hash__' of exceptions.AttributeError object at 0x8d98080>"
p13
sS'__setattr__'
p14
S"<method-wrapper '__setattr__' of exceptions.AttributeError object at 0x8d98080>"
p15
sS'__reduce_ex__'
p16
S'<built-in method __reduce_ex__ of exceptions.AttributeError object at 0x8d98080>'
p17
sS'__getslice__'
p18
S"<method-wrapper '__getslice__' of exceptions.AttributeError object at 0x8d98080>"
p19
sS'__getitem__'
p20
S"<method-wrapper '__getitem__' of exceptions.AttributeError object at 0x8d98080>"
p21
sS'__setstate__'
p22
S'<built-in method __setstate__ of exceptions.AttributeError object at 0x8d98080>'
p23
sS'__reduce__'
p24
S'<built-in method __reduce__ of exceptions.AttributeError object at 0x8d98080>'
p25
sS'__str__'
p26
S"<method-wrapper '__str__' of exceptions.AttributeError object at 0x8d98080>"
p27
sS'args'
p28
S'("\'Set\' object has no attribute \'page\'",)'
p29
sS'__getattribute__'
p30
S"<method-wrapper '__getattribute__' of exceptions.AttributeError object at 0x8d98080>"
p31
sS'__class__'
p32
S"<type 'exceptions.AttributeError'>"
p33
sS'__delattr__'
p34
S"<method-wrapper '__delattr__' of exceptions.AttributeError object at 0x8d98080>"
p35
sS'__repr__'
p36
S"<method-wrapper '__repr__' of exceptions.AttributeError object at 0x8d98080>"
p37
sS'__dict__'
p38
S'{}'
p39
sS'__doc__'
p40
S"'Attribute not found.'"
p41
sS'__init__'
p42
S"<method-wrapper '__init__' of exceptions.AttributeError object at 0x8d98080>"
p43
sS'__new__'
p44
S'<built-in method __new__ of type object at 0x1004a0>'
p45
ssS'evalue'
p46
S"'Set' object has no attribute 'page'"
p47
sS'request'
p48
ccopy_reg
_reconstructor
p49
(cgluon.html
BEAUTIFY
p50
c__builtin__
object
p51
NtRp52
(dp53
S'attributes'
p54
(dp55
sS'components'
p56
(lp57
g49
(cgluon.html
TABLE
p58
g51
NtRp59
(dp60
g54
(dp61
S'level'
p62
I5
ssS'parent'
p63
Nsg56
(lp64
g49
(cgluon.html
TR
p65
g51
NtRp66
(dp67
g54
(dp68
sg63
g59
sg56
(lp69
g49
(cgluon.html
TD
p70
g51
NtRp71
(dp72
g54
(dp73
S'_style'
p74
S'font-weight:bold;vertical-align:top'
p75
ssg63
g66
sg56
(lp76
S'ajax'
p77
asbag49
(g70
g51
NtRp78
(dp79
g54
(dp80
S'_valign'
p81
S'top'
p82
ssg63
g66
sg56
(lp83
S':'
asbag49
(g70
g51
NtRp84
(dp85
g54
(dp86
sg63
g66
sg56
(lp87
g49
(g50
g51
NtRp88
(dp89
g54
(dp90
g62
I5
ssg63
g84
sg56
(lp91
S'True'
p92
asbasbasbag49
(g65
g51
NtRp93
(dp94
g54
(dp95
sg63
g59
sg56
(lp96
g49
(g70
g51
NtRp97
(dp98
g54
(dp99
g74
g75
ssg63
g93
sg56
(lp100
S'application'
p101
asbag49
(g70
g51
NtRp102
(dp103
g54
(dp104
g81
g82
ssg63
g93
sg56
(lp105
S':'
asbag49
(g70
g51
NtRp106
(dp107
g54
(dp108
sg63
g93
sg56
(lp109
g49
(g50
g51
NtRp110
(dp111
g54
(dp112
g62
I5
ssg63
g106
sg56
(lp113
S'udi0312'
p114
asbasbasbag49
(g65
g51
NtRp115
(dp116
g54
(dp117
sg63
g59
sg56
(lp118
g49
(g70
g51
NtRp119
(dp120
g54
(dp121
g74
g75
ssg63
g115
sg56
(lp122
g28
asbag49
(g70
g51
NtRp123
(dp124
g54
(dp125
g81
g82
ssg63
g115
sg56
(lp126
S':'
asbag49
(g70
g51
NtRp127
(dp128
g54
(dp129
sg63
g115
sg56
(lp130
g49
(g50
g51
NtRp131
(dp132
g54
(dp133
g62
I5
ssg63
g127
sg56
(lp134
g49
(g58
g51
NtRp135
(dp136
g54
(dp137
g62
I4
ssg63
Nsg56
(lp138
sbasbasbasbag49
(g65
g51
NtRp139
(dp140
g54
(dp141
sg63
g59
sg56
(lp142
g49
(g70
g51
NtRp143
(dp144
g54
(dp145
g74
g75
ssg63
g139
sg56
(lp146
S'body'
p147
asbag49
(g70
g51
NtRp148
(dp149
g54
(dp150
g81
g82
ssg63
g139
sg56
(lp151
S':'
asbag49
(g70
g51
NtRp152
(dp153
g54
(dp154
sg63
g139
sg56
(lp155
g49
(g50
g51
NtRp156
(dp157
g54
(dp158
g62
I5
ssg63
g152
sg56
(lp159
S"<open file '<fdopen>', mode 'w+b' at 0xa592338>"
p160
asbasbasbag49
(g65
g51
NtRp161
(dp162
g54
(dp163
sg63
g59
sg56
(lp164
g49
(g70
g51
NtRp165
(dp166
g54
(dp167
g74
g75
ssg63
g161
sg56
(lp168
S'client'
p169
asbag49
(g70
g51
NtRp170
(dp171
g54
(dp172
g81
g82
ssg63
g161
sg56
(lp173
S':'
asbag49
(g70
g51
NtRp174
(dp175
g54
(dp176
sg63
g161
sg56
(lp177
g49
(g50
g51
NtRp178
(dp179
g54
(dp180
g62
I5
ssg63
g174
sg56
(lp181
S'127.0.0.1'
p182
asbasbasbag49
(g65
g51
NtRp183
(dp184
g54
(dp185
sg63
g59
sg56
(lp186
g49
(g70
g51
NtRp187
(dp188
g54
(dp189
g74
g75
ssg63
g183
sg56
(lp190
S'controller'
p191
asbag49
(g70
g51
NtRp192
(dp193
g54
(dp194
g81
g82
ssg63
g183
sg56
(lp195
S':'
asbag49
(g70
g51
NtRp196
(dp197
g54
(dp198
sg63
g183
sg56
(lp199
g49
(g50
g51
NtRp200
(dp201
g54
(dp202
g62
I5
ssg63
g196
sg56
(lp203
S'default'
p204
asbasbasbag49
(g65
g51
NtRp205
(dp206
g54
(dp207
sg63
g59
sg56
(lp208
g49
(g70
g51
NtRp209
(dp210
g54
(dp211
g74
g75
ssg63
g205
sg56
(lp212
S'cookies'
p213
asbag49
(g70
g51
NtRp214
(dp215
g54
(dp216
g81
g82
ssg63
g205
sg56
(lp217
S':'
asbag49
(g70
g51
NtRp218
(dp219
g54
(dp220
sg63
g205
sg56
(lp221
g49
(g50
g51
NtRp222
(dp223
g54
(dp224
g62
I5
ssg63
g218
sg56
(lp225
g49
(g58
g51
NtRp226
(dp227
g54
(dp228
g62
I4
ssg63
Nsg56
(lp229
g49
(g65
g51
NtRp230
(dp231
g54
(dp232
sg63
g226
sg56
(lp233
g49
(g70
g51
NtRp234
(dp235
g54
(dp236
g74
g75
ssg63
g230
sg56
(lp237
S'session_id_admin'
p238
asbag49
(g70
g51
NtRp239
(dp240
g54
(dp241
g81
g82
ssg63
g230
sg56
(lp242
S':'
asbag49
(g70
g51
NtRp243
(dp244
g54
(dp245
sg63
g230
sg56
(lp246
g49
(g50
g51
NtRp247
(dp248
g54
(dp249
g62
I4
ssg63
g243
sg56
(lp250
g49
(g58
g51
NtRp251
(dp252
g54
(dp253
g62
I3
ssg63
Nsg56
(lp254
g49
(g65
g51
NtRp255
(dp256
g54
(dp257
sg63
g251
sg56
(lp258
g49
(g70
g51
NtRp259
(dp260
g54
(dp261
g74
g75
ssg63
g255
sg56
(lp262
S'comment'
p263
asbag49
(g70
g51
NtRp264
(dp265
g54
(dp266
g81
g82
ssg63
g255
sg56
(lp267
S':'
asbag49
(g70
g51
NtRp268
(dp269
g54
(dp270
sg63
g255
sg56
(lp271
g49
(g50
g51
NtRp272
(dp273
g54
(dp274
g62
I3
ssg63
g268
sg56
(lp275
S''
asbasbasbag49
(g65
g51
NtRp276
(dp277
g54
(dp278
sg63
g251
sg56
(lp279
g49
(g70
g51
NtRp280
(dp281
g54
(dp282
g74
g75
ssg63
g276
sg56
(lp283
S'domain'
p284
asbag49
(g70
g51
NtRp285
(dp286
g54
(dp287
g81
g82
ssg63
g276
sg56
(lp288
S':'
asbag49
(g70
g51
NtRp289
(dp290
g54
(dp291
sg63
g276
sg56
(lp292
g49
(g50
g51
NtRp293
(dp294
g54
(dp295
g62
I3
ssg63
g289
sg56
(lp296
S''
asbasbasbag49
(g65
g51
NtRp297
(dp298
g54
(dp299
sg63
g251
sg56
(lp300
g49
(g70
g51
NtRp301
(dp302
g54
(dp303
g74
g75
ssg63
g297
sg56
(lp304
S'expires'
p305
asbag49
(g70
g51
NtRp306
(dp307
g54
(dp308
g81
g82
ssg63
g297
sg56
(lp309
S':'
asbag49
(g70
g51
NtRp310
(dp311
g54
(dp312
sg63
g297
sg56
(lp313
g49
(g50
g51
NtRp314
(dp315
g54
(dp316
g62
I3
ssg63
g310
sg56
(lp317
S''
asbasbasbag49
(g65
g51
NtRp318
(dp319
g54
(dp320
sg63
g251
sg56
(lp321
g49
(g70
g51
NtRp322
(dp323
g54
(dp324
g74
g75
ssg63
g318
sg56
(lp325
S'max-age'
p326
asbag49
(g70
g51
NtRp327
(dp328
g54
(dp329
g81
g82
ssg63
g318
sg56
(lp330
S':'
asbag49
(g70
g51
NtRp331
(dp332
g54
(dp333
sg63
g318
sg56
(lp334
g49
(g50
g51
NtRp335
(dp336
g54
(dp337
g62
I3
ssg63
g331
sg56
(lp338
S''
asbasbasbag49
(g65
g51
NtRp339
(dp340
g54
(dp341
sg63
g251
sg56
(lp342
g49
(g70
g51
NtRp343
(dp344
g54
(dp345
g74
g75
ssg63
g339
sg56
(lp346
S'path'
p347
asbag49
(g70
g51
NtRp348
(dp349
g54
(dp350
g81
g82
ssg63
g339
sg56
(lp351
S':'
asbag49
(g70
g51
NtRp352
(dp353
g54
(dp354
sg63
g339
sg56
(lp355
g49
(g50
g51
NtRp356
(dp357
g54
(dp358
g62
I3
ssg63
g352
sg56
(lp359
S''
asbasbasbag49
(g65
g51
NtRp360
(dp361
g54
(dp362
sg63
g251
sg56
(lp363
g49
(g70
g51
NtRp364
(dp365
g54
(dp366
g74
g75
ssg63
g360
sg56
(lp367
S'secure'
p368
asbag49
(g70
g51
NtRp369
(dp370
g54
(dp371
g81
g82
ssg63
g360
sg56
(lp372
S':'
asbag49
(g70
g51
NtRp373
(dp374
g54
(dp375
sg63
g360
sg56
(lp376
g49
(g50
g51
NtRp377
(dp378
g54
(dp379
g62
I3
ssg63
g373
sg56
(lp380
S''
asbasbasbag49
(g65
g51
NtRp381
(dp382
g54
(dp383
sg63
g251
sg56
(lp384
g49
(g70
g51
NtRp385
(dp386
g54
(dp387
g74
g75
ssg63
g381
sg56
(lp388
S'version'
p389
asbag49
(g70
g51
NtRp390
(dp391
g54
(dp392
g81
g82
ssg63
g381
sg56
(lp393
S':'
asbag49
(g70
g51
NtRp394
(dp395
g54
(dp396
sg63
g381
sg56
(lp397
g49
(g50
g51
NtRp398
(dp399
g54
(dp400
g62
I3
ssg63
g394
sg56
(lp401
S''
asbasbasbasbasbasbasbag49
(g65
g51
NtRp402
(dp403
g54
(dp404
sg63
g226
sg56
(lp405
g49
(g70
g51
NtRp406
(dp407
g54
(dp408
g74
g75
ssg63
g402
sg56
(lp409
S'session_id_udi0312'
p410
asbag49
(g70
g51
NtRp411
(dp412
g54
(dp413
g81
g82
ssg63
g402
sg56
(lp414
S':'
asbag49
(g70
g51
NtRp415
(dp416
g54
(dp417
sg63
g402
sg56
(lp418
g49
(g50
g51
NtRp419
(dp420
g54
(dp421
g62
I4
ssg63
g415
sg56
(lp422
g49
(g58
g51
NtRp423
(dp424
g54
(dp425
g62
I3
ssg63
Nsg56
(lp426
g49
(g65
g51
NtRp427
(dp428
g54
(dp429
sg63
g423
sg56
(lp430
g49
(g70
g51
NtRp431
(dp432
g54
(dp433
g74
g75
ssg63
g427
sg56
(lp434
g263
asbag49
(g70
g51
NtRp435
(dp436
g54
(dp437
g81
g82
ssg63
g427
sg56
(lp438
S':'
asbag49
(g70
g51
NtRp439
(dp440
g54
(dp441
sg63
g427
sg56
(lp442
g49
(g50
g51
NtRp443
(dp444
g54
(dp445
g62
I3
ssg63
g439
sg56
(lp446
S''
asbasbasbag49
(g65
g51
NtRp447
(dp448
g54
(dp449
sg63
g423
sg56
(lp450
g49
(g70
g51
NtRp451
(dp452
g54
(dp453
g74
g75
ssg63
g447
sg56
(lp454
g284
asbag49
(g70
g51
NtRp455
(dp456
g54
(dp457
g81
g82
ssg63
g447
sg56
(lp458
S':'
asbag49
(g70
g51
NtRp459
(dp460
g54
(dp461
sg63
g447
sg56
(lp462
g49
(g50
g51
NtRp463
(dp464
g54
(dp465
g62
I3
ssg63
g459
sg56
(lp466
S''
asbasbasbag49
(g65
g51
NtRp467
(dp468
g54
(dp469
sg63
g423
sg56
(lp470
g49
(g70
g51
NtRp471
(dp472
g54
(dp473
g74
g75
ssg63
g467
sg56
(lp474
g305
asbag49
(g70
g51
NtRp475
(dp476
g54
(dp477
g81
g82
ssg63
g467
sg56
(lp478
S':'
asbag49
(g70
g51
NtRp479
(dp480
g54
(dp481
sg63
g467
sg56
(lp482
g49
(g50
g51
NtRp483
(dp484
g54
(dp485
g62
I3
ssg63
g479
sg56
(lp486
S''
asbasbasbag49
(g65
g51
NtRp487
(dp488
g54
(dp489
sg63
g423
sg56
(lp490
g49
(g70
g51
NtRp491
(dp492
g54
(dp493
g74
g75
ssg63
g487
sg56
(lp494
g326
asbag49
(g70
g51
NtRp495
(dp496
g54
(dp497
g81
g82
ssg63
g487
sg56
(lp498
S':'
asbag49
(g70
g51
NtRp499
(dp500
g54
(dp501
sg63
g487
sg56
(lp502
g49
(g50
g51
NtRp503
(dp504
g54
(dp505
g62
I3
ssg63
g499
sg56
(lp506
S''
asbasbasbag49
(g65
g51
NtRp507
(dp508
g54
(dp509
sg63
g423
sg56
(lp510
g49
(g70
g51
NtRp511
(dp512
g54
(dp513
g74
g75
ssg63
g507
sg56
(lp514
g347
asbag49
(g70
g51
NtRp515
(dp516
g54
(dp517
g81
g82
ssg63
g507
sg56
(lp518
S':'
asbag49
(g70
g51
NtRp519
(dp520
g54
(dp521
sg63
g507
sg56
(lp522
g49
(g50
g51
NtRp523
(dp524
g54
(dp525
g62
I3
ssg63
g519
sg56
(lp526
S''
asbasbasbag49
(g65
g51
NtRp527
(dp528
g54
(dp529
sg63
g423
sg56
(lp530
g49
(g70
g51
NtRp531
(dp532
g54
(dp533
g74
g75
ssg63
g527
sg56
(lp534
g368
asbag49
(g70
g51
NtRp535
(dp536
g54
(dp537
g81
g82
ssg63
g527
sg56
(lp538
S':'
asbag49
(g70
g51
NtRp539
(dp540
g54
(dp541
sg63
g527
sg56
(lp542
g49
(g50
g51
NtRp543
(dp544
g54
(dp545
g62
I3
ssg63
g539
sg56
(lp546
S''
asbasbasbag49
(g65
g51
NtRp547
(dp548
g54
(dp549
sg63
g423
sg56
(lp550
g49
(g70
g51
NtRp551
(dp552
g54
(dp553
g74
g75
ssg63
g547
sg56
(lp554
g389
asbag49
(g70
g51
NtRp555
(dp556
g54
(dp557
g81
g82
ssg63
g547
sg56
(lp558
S':'
asbag49
(g70
g51
NtRp559
(dp560
g54
(dp561
sg63
g547
sg56
(lp562
g49
(g50
g51
NtRp563
(dp564
g54
(dp565
g62
I3
ssg63
g559
sg56
(lp566
S''
asbasbasbasbasbasbasbag49
(g65
g51
NtRp567
(dp568
g54
(dp569
sg63
g226
sg56
(lp570
g49
(g70
g51
NtRp571
(dp572
g54
(dp573
g74
g75
ssg63
g567
sg56
(lp574
S'session_id_welcome'
p575
asbag49
(g70
g51
NtRp576
(dp577
g54
(dp578
g81
g82
ssg63
g567
sg56
(lp579
S':'
asbag49
(g70
g51
NtRp580
(dp581
g54
(dp582
sg63
g567
sg56
(lp583
g49
(g50
g51
NtRp584
(dp585
g54
(dp586
g62
I4
ssg63
g580
sg56
(lp587
g49
(g58
g51
NtRp588
(dp589
g54
(dp590
g62
I3
ssg63
Nsg56
(lp591
g49
(g65
g51
NtRp592
(dp593
g54
(dp594
sg63
g588
sg56
(lp595
g49
(g70
g51
NtRp596
(dp597
g54
(dp598
g74
g75
ssg63
g592
sg56
(lp599
g263
asbag49
(g70
g51
NtRp600
(dp601
g54
(dp602
g81
g82
ssg63
g592
sg56
(lp603
S':'
asbag49
(g70
g51
NtRp604
(dp605
g54
(dp606
sg63
g592
sg56
(lp607
g49
(g50
g51
NtRp608
(dp609
g54
(dp610
g62
I3
ssg63
g604
sg56
(lp611
S''
asbasbasbag49
(g65
g51
NtRp612
(dp613
g54
(dp614
sg63
g588
sg56
(lp615
g49
(g70
g51
NtRp616
(dp617
g54
(dp618
g74
g75
ssg63
g612
sg56
(lp619
g284
asbag49
(g70
g51
NtRp620
(dp621
g54
(dp622
g81
g82
ssg63
g612
sg56
(lp623
S':'
asbag49
(g70
g51
NtRp624
(dp625
g54
(dp626
sg63
g612
sg56
(lp627
g49
(g50
g51
NtRp628
(dp629
g54
(dp630
g62
I3
ssg63
g624
sg56
(lp631
S''
asbasbasbag49
(g65
g51
NtRp632
(dp633
g54
(dp634
sg63
g588
sg56
(lp635
g49
(g70
g51
NtRp636
(dp637
g54
(dp638
g74
g75
ssg63
g632
sg56
(lp639
g305
asbag49
(g70
g51
NtRp640
(dp641
g54
(dp642
g81
g82
ssg63
g632
sg56
(lp643
S':'
asbag49
(g70
g51
NtRp644
(dp645
g54
(dp646
sg63
g632
sg56
(lp647
g49
(g50
g51
NtRp648
(dp649
g54
(dp650
g62
I3
ssg63
g644
sg56
(lp651
S''
asbasbasbag49
(g65
g51
NtRp652
(dp653
g54
(dp654
sg63
g588
sg56
(lp655
g49
(g70
g51
NtRp656
(dp657
g54
(dp658
g74
g75
ssg63
g652
sg56
(lp659
g326
asbag49
(g70
g51
NtRp660
(dp661
g54
(dp662
g81
g82
ssg63
g652
sg56
(lp663
S':'
asbag49
(g70
g51
NtRp664
(dp665
g54
(dp666
sg63
g652
sg56
(lp667
g49
(g50
g51
NtRp668
(dp669
g54
(dp670
g62
I3
ssg63
g664
sg56
(lp671
S''
asbasbasbag49
(g65
g51
NtRp672
(dp673
g54
(dp674
sg63
g588
sg56
(lp675
g49
(g70
g51
NtRp676
(dp677
g54
(dp678
g74
g75
ssg63
g672
sg56
(lp679
g347
asbag49
(g70
g51
NtRp680
(dp681
g54
(dp682
g81
g82
ssg63
g672
sg56
(lp683
S':'
asbag49
(g70
g51
NtRp684
(dp685
g54
(dp686
sg63
g672
sg56
(lp687
g49
(g50
g51
NtRp688
(dp689
g54
(dp690
g62
I3
ssg63
g684
sg56
(lp691
S''
asbasbasbag49
(g65
g51
NtRp692
(dp693
g54
(dp694
sg63
g588
sg56
(lp695
g49
(g70
g51
NtRp696
(dp697
g54
(dp698
g74
g75
ssg63
g692
sg56
(lp699
g368
asbag49
(g70
g51
NtRp700
(dp701
g54
(dp702
g81
g82
ssg63
g692
sg56
(lp703
S':'
asbag49
(g70
g51
NtRp704
(dp705
g54
(dp706
sg63
g692
sg56
(lp707
g49
(g50
g51
NtRp708
(dp709
g54
(dp710
g62
I3
ssg63
g704
sg56
(lp711
S''
asbasbasbag49
(g65
g51
NtRp712
(dp713
g54
(dp714
sg63
g588
sg56
(lp715
g49
(g70
g51
NtRp716
(dp717
g54
(dp718
g74
g75
ssg63
g712
sg56
(lp719
g389
asbag49
(g70
g51
NtRp720
(dp721
g54
(dp722
g81
g82
ssg63
g712
sg56
(lp723
S':'
asbag49
(g70
g51
NtRp724
(dp725
g54
(dp726
sg63
g712
sg56
(lp727
g49
(g50
g51
NtRp728
(dp729
g54
(dp730
g62
I3
ssg63
g724
sg56
(lp731
S''
asbasbasbasbasbasbasbasbasbasbasbag49
(g65
g51
NtRp732
(dp733
g54
(dp734
sg63
g59
sg56
(lp735
g49
(g70
g51
NtRp736
(dp737
g54
(dp738
g74
g75
ssg63
g732
sg56
(lp739
S'env'
p740
asbag49
(g70
g51
NtRp741
(dp742
g54
(dp743
g81
g82
ssg63
g732
sg56
(lp744
S':'
asbag49
(g70
g51
NtRp745
(dp746
g54
(dp747
sg63
g732
sg56
(lp748
g49
(g50
g51
NtRp749
(dp750
g54
(dp751
g62
I5
ssg63
g745
sg56
(lp752
g49
(g58
g51
NtRp753
(dp754
g54
(dp755
g62
I4
ssg63
Nsg56
(lp756
g49
(g65
g51
NtRp757
(dp758
g54
(dp759
sg63
g753
sg56
(lp760
g49
(g70
g51
NtRp761
(dp762
g54
(dp763
g74
g75
ssg63
g757
sg56
(lp764
S'app_folders'
p765
asbag49
(g70
g51
NtRp766
(dp767
g54
(dp768
g81
g82
ssg63
g757
sg56
(lp769
S':'
asbag49
(g70
g51
NtRp770
(dp771
g54
(dp772
sg63
g757
sg56
(lp773
g49
(g50
g51
NtRp774
(dp775
g54
(dp776
g62
I4
ssg63
g770
sg56
(lp777
S"set(['/Users/udimilo/Documents/web2py/applications/udi0312/', '/Users/udimilo/Documents/web2py/applications/admin/'])"
p778
asbasbasbag49
(g65
g51
NtRp779
(dp780
g54
(dp781
sg63
g753
sg56
(lp782
g49
(g70
g51
NtRp783
(dp784
g54
(dp785
g74
g75
ssg63
g779
sg56
(lp786
S'applications_parent'
p787
asbag49
(g70
g51
NtRp788
(dp789
g54
(dp790
g81
g82
ssg63
g779
sg56
(lp791
S':'
asbag49
(g70
g51
NtRp792
(dp793
g54
(dp794
sg63
g779
sg56
(lp795
g49
(g50
g51
NtRp796
(dp797
g54
(dp798
g62
I4
ssg63
g792
sg56
(lp799
S'/Users/udimilo/Documents/web2py'
p800
asbasbasbag49
(g65
g51
NtRp801
(dp802
g54
(dp803
sg63
g753
sg56
(lp804
g49
(g70
g51
NtRp805
(dp806
g54
(dp807
g74
g75
ssg63
g801
sg56
(lp808
S'cmd_args'
p809
asbag49
(g70
g51
NtRp810
(dp811
g54
(dp812
g81
g82
ssg63
g801
sg56
(lp813
S':'
asbag49
(g70
g51
NtRp814
(dp815
g54
(dp816
sg63
g801
sg56
(lp817
g49
(g50
g51
NtRp818
(dp819
g54
(dp820
g62
I4
ssg63
g814
sg56
(lp821
g49
(g58
g51
NtRp822
(dp823
g54
(dp824
g62
I3
ssg63
Nsg56
(lp825
sbasbasbasbag49
(g65
g51
NtRp826
(dp827
g54
(dp828
sg63
g753
sg56
(lp829
g49
(g70
g51
NtRp830
(dp831
g54
(dp832
g74
g75
ssg63
g826
sg56
(lp833
S'cmd_options'
p834
asbag49
(g70
g51
NtRp835
(dp836
g54
(dp837
g81
g82
ssg63
g826
sg56
(lp838
S':'
asbag49
(g70
g51
NtRp839
(dp840
g54
(dp841
sg63
g826
sg56
(lp842
g49
(g50
g51
NtRp843
(dp844
g54
(dp845
g62
I4
ssg63
g839
sg56
(lp846
S"<Values at 0x2c16058: {'verbose': False, 'ip': '127.0.0.1', 'shutdown_timeout': 5, 'taskbar': False, 'nocron': False, 'pid_filename': 'httpserver.pid', 'maxthreads': None, 'softcron': False, 'server_name': 'Udi-Milos-MacBook-Pro.local', 'bpython': False, 'nogui': False, 'port': 8000, 'extcron': False, 'debuglevel': 30, 'test': None, 'folder': '/Users/udimilo/Documents/web2py', 'config': '', 'import_models': False, 'winservice': '', 'shell': None, 'run': '', 'log_filename': 'httpserver.log', 'args': [''], 'socket_timeout': 5, 'ssl_ca_certificate': None, 'scheduler': None, 'profiler_filename': None, 'ssl_private_key': '', 'password': '<ask>', 'request_queue_size': 5, 'ssl_certificate': '', 'cronjob': False, 'numthreads': None, 'quiet': False, 'interfaces': None, 'minthreads': None, 'timeout': 10, 'plain': False, 'nobanner': False}>"
p847
asbasbasbag49
(g65
g51
NtRp848
(dp849
g54
(dp850
sg63
g753
sg56
(lp851
g49
(g70
g51
NtRp852
(dp853
g54
(dp854
g74
g75
ssg63
g848
sg56
(lp855
S'content_length'
p856
asbag49
(g70
g51
NtRp857
(dp858
g54
(dp859
g81
g82
ssg63
g848
sg56
(lp860
S':'
asbag49
(g70
g51
NtRp861
(dp862
g54
(dp863
sg63
g848
sg56
(lp864
g49
(g50
g51
NtRp865
(dp866
g54
(dp867
g62
I4
ssg63
g861
sg56
(lp868
S'23'
p869
asbasbasbag49
(g65
g51
NtRp870
(dp871
g54
(dp872
sg63
g753
sg56
(lp873
g49
(g70
g51
NtRp874
(dp875
g54
(dp876
g74
g75
ssg63
g870
sg56
(lp877
S'content_type'
p878
asbag49
(g70
g51
NtRp879
(dp880
g54
(dp881
g81
g82
ssg63
g870
sg56
(lp882
S':'
asbag49
(g70
g51
NtRp883
(dp884
g54
(dp885
sg63
g870
sg56
(lp886
g49
(g50
g51
NtRp887
(dp888
g54
(dp889
g62
I4
ssg63
g883
sg56
(lp890
S'application/x-www-form-urlencoded'
p891
asbasbasbag49
(g65
g51
NtRp892
(dp893
g54
(dp894
sg63
g753
sg56
(lp895
g49
(g70
g51
NtRp896
(dp897
g54
(dp898
g74
g75
ssg63
g892
sg56
(lp899
S'db_sessions'
p900
asbag49
(g70
g51
NtRp901
(dp902
g54
(dp903
g81
g82
ssg63
g892
sg56
(lp904
S':'
asbag49
(g70
g51
NtRp905
(dp906
g54
(dp907
sg63
g892
sg56
(lp908
g49
(g50
g51
NtRp909
(dp910
g54
(dp911
g62
I4
ssg63
g905
sg56
(lp912
S'set([])'
p913
asbasbasbag49
(g65
g51
NtRp914
(dp915
g54
(dp916
sg63
g753
sg56
(lp917
g49
(g70
g51
NtRp918
(dp919
g54
(dp920
g74
g75
ssg63
g914
sg56
(lp921
S'debugging'
p922
asbag49
(g70
g51
NtRp923
(dp924
g54
(dp925
g81
g82
ssg63
g914
sg56
(lp926
S':'
asbag49
(g70
g51
NtRp927
(dp928
g54
(dp929
sg63
g914
sg56
(lp930
g49
(g50
g51
NtRp931
(dp932
g54
(dp933
g62
I4
ssg63
g927
sg56
(lp934
S'False'
p935
asbasbasbag49
(g65
g51
NtRp936
(dp937
g54
(dp938
sg63
g753
sg56
(lp939
g49
(g70
g51
NtRp940
(dp941
g54
(dp942
g74
g75
ssg63
g936
sg56
(lp943
S'gluon_parent'
p944
asbag49
(g70
g51
NtRp945
(dp946
g54
(dp947
g81
g82
ssg63
g936
sg56
(lp948
S':'
asbag49
(g70
g51
NtRp949
(dp950
g54
(dp951
sg63
g936
sg56
(lp952
g49
(g50
g51
NtRp953
(dp954
g54
(dp955
g62
I4
ssg63
g949
sg56
(lp956
S'/Users/udimilo/Documents/web2py'
p957
asbasbasbag49
(g65
g51
NtRp958
(dp959
g54
(dp960
sg63
g753
sg56
(lp961
g49
(g70
g51
NtRp962
(dp963
g54
(dp964
g74
g75
ssg63
g958
sg56
(lp965
S'http_accept'
p966
asbag49
(g70
g51
NtRp967
(dp968
g54
(dp969
g81
g82
ssg63
g958
sg56
(lp970
S':'
asbag49
(g70
g51
NtRp971
(dp972
g54
(dp973
sg63
g958
sg56
(lp974
g49
(g50
g51
NtRp975
(dp976
g54
(dp977
g62
I4
ssg63
g971
sg56
(lp978
S'*/*'
p979
asbasbasbag49
(g65
g51
NtRp980
(dp981
g54
(dp982
sg63
g753
sg56
(lp983
g49
(g70
g51
NtRp984
(dp985
g54
(dp986
g74
g75
ssg63
g980
sg56
(lp987
S'http_accept_charset'
p988
asbag49
(g70
g51
NtRp989
(dp990
g54
(dp991
g81
g82
ssg63
g980
sg56
(lp992
S':'
asbag49
(g70
g51
NtRp993
(dp994
g54
(dp995
sg63
g980
sg56
(lp996
g49
(g50
g51
NtRp997
(dp998
g54
(dp999
g62
I4
ssg63
g993
sg56
(lp1000
S'ISO-8859-1,utf-8;q=0.7,*;q=0.3'
p1001
asbasbasbag49
(g65
g51
NtRp1002
(dp1003
g54
(dp1004
sg63
g753
sg56
(lp1005
g49
(g70
g51
NtRp1006
(dp1007
g54
(dp1008
g74
g75
ssg63
g1002
sg56
(lp1009
S'http_accept_encoding'
p1010
asbag49
(g70
g51
NtRp1011
(dp1012
g54
(dp1013
g81
g82
ssg63
g1002
sg56
(lp1014
S':'
asbag49
(g70
g51
NtRp1015
(dp1016
g54
(dp1017
sg63
g1002
sg56
(lp1018
g49
(g50
g51
NtRp1019
(dp1020
g54
(dp1021
g62
I4
ssg63
g1015
sg56
(lp1022
S'gzip,deflate,sdch'
p1023
asbasbasbag49
(g65
g51
NtRp1024
(dp1025
g54
(dp1026
sg63
g753
sg56
(lp1027
g49
(g70
g51
NtRp1028
(dp1029
g54
(dp1030
g74
g75
ssg63
g1024
sg56
(lp1031
S'http_accept_language'
p1032
asbag49
(g70
g51
NtRp1033
(dp1034
g54
(dp1035
g81
g82
ssg63
g1024
sg56
(lp1036
S':'
asbag49
(g70
g51
NtRp1037
(dp1038
g54
(dp1039
sg63
g1024
sg56
(lp1040
g49
(g50
g51
NtRp1041
(dp1042
g54
(dp1043
g62
I4
ssg63
g1037
sg56
(lp1044
S'en-US,en;q=0.8'
p1045
asbasbasbag49
(g65
g51
NtRp1046
(dp1047
g54
(dp1048
sg63
g753
sg56
(lp1049
g49
(g70
g51
NtRp1050
(dp1051
g54
(dp1052
g74
g75
ssg63
g1046
sg56
(lp1053
S'http_connection'
p1054
asbag49
(g70
g51
NtRp1055
(dp1056
g54
(dp1057
g81
g82
ssg63
g1046
sg56
(lp1058
S':'
asbag49
(g70
g51
NtRp1059
(dp1060
g54
(dp1061
sg63
g1046
sg56
(lp1062
g49
(g50
g51
NtRp1063
(dp1064
g54
(dp1065
g62
I4
ssg63
g1059
sg56
(lp1066
S'keep-alive'
p1067
asbasbasbag49
(g65
g51
NtRp1068
(dp1069
g54
(dp1070
sg63
g753
sg56
(lp1071
g49
(g70
g51
NtRp1072
(dp1073
g54
(dp1074
g74
g75
ssg63
g1068
sg56
(lp1075
S'http_content_length'
p1076
asbag49
(g70
g51
NtRp1077
(dp1078
g54
(dp1079
g81
g82
ssg63
g1068
sg56
(lp1080
S':'
asbag49
(g70
g51
NtRp1081
(dp1082
g54
(dp1083
sg63
g1068
sg56
(lp1084
g49
(g50
g51
NtRp1085
(dp1086
g54
(dp1087
g62
I4
ssg63
g1081
sg56
(lp1088
g869
asbasbasbag49
(g65
g51
NtRp1089
(dp1090
g54
(dp1091
sg63
g753
sg56
(lp1092
g49
(g70
g51
NtRp1093
(dp1094
g54
(dp1095
g74
g75
ssg63
g1089
sg56
(lp1096
S'http_content_type'
p1097
asbag49
(g70
g51
NtRp1098
(dp1099
g54
(dp1100
g81
g82
ssg63
g1089
sg56
(lp1101
S':'
asbag49
(g70
g51
NtRp1102
(dp1103
g54
(dp1104
sg63
g1089
sg56
(lp1105
g49
(g50
g51
NtRp1106
(dp1107
g54
(dp1108
g62
I4
ssg63
g1102
sg56
(lp1109
g891
asbasbasbag49
(g65
g51
NtRp1110
(dp1111
g54
(dp1112
sg63
g753
sg56
(lp1113
g49
(g70
g51
NtRp1114
(dp1115
g54
(dp1116
g74
g75
ssg63
g1110
sg56
(lp1117
S'http_cookie'
p1118
asbag49
(g70
g51
NtRp1119
(dp1120
g54
(dp1121
g81
g82
ssg63
g1110
sg56
(lp1122
S':'
asbag49
(g70
g51
NtRp1123
(dp1124
g54
(dp1125
sg63
g1110
sg56
(lp1126
g49
(g50
g51
NtRp1127
(dp1128
g54
(dp1129
g62
I4
ssg63
g1123
sg56
(lp1130
S'session_id_welcome=127.0.0.1-a504b24f-4d61-4d9a-9b5b-4625969b9aa0; session_id_admin=127.0.0.1-c37d4097-328c-4376-a48b-6f3b5af77d17; session_id_udi0312=127.0.0.1-fcd6a577-d448-4882-b7bc-f353da84ba3b'
p1131
asbasbasbag49
(g65
g51
NtRp1132
(dp1133
g54
(dp1134
sg63
g753
sg56
(lp1135
g49
(g70
g51
NtRp1136
(dp1137
g54
(dp1138
g74
g75
ssg63
g1132
sg56
(lp1139
S'http_host'
p1140
asbag49
(g70
g51
NtRp1141
(dp1142
g54
(dp1143
g81
g82
ssg63
g1132
sg56
(lp1144
S':'
asbag49
(g70
g51
NtRp1145
(dp1146
g54
(dp1147
sg63
g1132
sg56
(lp1148
g49
(g50
g51
NtRp1149
(dp1150
g54
(dp1151
g62
I4
ssg63
g1145
sg56
(lp1152
S'127.0.0.1:8000'
p1153
asbasbasbag49
(g65
g51
NtRp1154
(dp1155
g54
(dp1156
sg63
g753
sg56
(lp1157
g49
(g70
g51
NtRp1158
(dp1159
g54
(dp1160
g74
g75
ssg63
g1154
sg56
(lp1161
S'http_origin'
p1162
asbag49
(g70
g51
NtRp1163
(dp1164
g54
(dp1165
g81
g82
ssg63
g1154
sg56
(lp1166
S':'
asbag49
(g70
g51
NtRp1167
(dp1168
g54
(dp1169
sg63
g1154
sg56
(lp1170
g49
(g50
g51
NtRp1171
(dp1172
g54
(dp1173
g62
I4
ssg63
g1167
sg56
(lp1174
S'http://127.0.0.1:8000'
p1175
asbasbasbag49
(g65
g51
NtRp1176
(dp1177
g54
(dp1178
sg63
g753
sg56
(lp1179
g49
(g70
g51
NtRp1180
(dp1181
g54
(dp1182
g74
g75
ssg63
g1176
sg56
(lp1183
S'http_referer'
p1184
asbag49
(g70
g51
NtRp1185
(dp1186
g54
(dp1187
g81
g82
ssg63
g1176
sg56
(lp1188
S':'
asbag49
(g70
g51
NtRp1189
(dp1190
g54
(dp1191
sg63
g1176
sg56
(lp1192
g49
(g50
g51
NtRp1193
(dp1194
g54
(dp1195
g62
I4
ssg63
g1189
sg56
(lp1196
S'http://127.0.0.1:8000/'
p1197
asbasbasbag49
(g65
g51
NtRp1198
(dp1199
g54
(dp1200
sg63
g753
sg56
(lp1201
g49
(g70
g51
NtRp1202
(dp1203
g54
(dp1204
g74
g75
ssg63
g1198
sg56
(lp1205
S'http_user_agent'
p1206
asbag49
(g70
g51
NtRp1207
(dp1208
g54
(dp1209
g81
g82
ssg63
g1198
sg56
(lp1210
S':'
asbag49
(g70
g51
NtRp1211
(dp1212
g54
(dp1213
sg63
g1198
sg56
(lp1214
g49
(g50
g51
NtRp1215
(dp1216
g54
(dp1217
g62
I4
ssg63
g1211
sg56
(lp1218
S'Mozilla/5.0 (Macintosh; Intel Mac OS X 10_7_3) AppleWebKit/535.11 (KHTML, like Gecko) Chrome/17.0.963.65 Safari/535.11'
p1219
asbasbasbag49
(g65
g51
NtRp1220
(dp1221
g54
(dp1222
sg63
g753
sg56
(lp1223
g49
(g70
g51
NtRp1224
(dp1225
g54
(dp1226
g74
g75
ssg63
g1220
sg56
(lp1227
S'http_x_requested_with'
p1228
asbag49
(g70
g51
NtRp1229
(dp1230
g54
(dp1231
g81
g82
ssg63
g1220
sg56
(lp1232
S':'
asbag49
(g70
g51
NtRp1233
(dp1234
g54
(dp1235
sg63
g1220
sg56
(lp1236
g49
(g50
g51
NtRp1237
(dp1238
g54
(dp1239
g62
I4
ssg63
g1233
sg56
(lp1240
S'XMLHttpRequest'
p1241
asbasbasbag49
(g65
g51
NtRp1242
(dp1243
g54
(dp1244
sg63
g753
sg56
(lp1245
g49
(g70
g51
NtRp1246
(dp1247
g54
(dp1248
g74
g75
ssg63
g1242
sg56
(lp1249
S'is_jython'
p1250
asbag49
(g70
g51
NtRp1251
(dp1252
g54
(dp1253
g81
g82
ssg63
g1242
sg56
(lp1254
S':'
asbag49
(g70
g51
NtRp1255
(dp1256
g54
(dp1257
sg63
g1242
sg56
(lp1258
g49
(g50
g51
NtRp1259
(dp1260
g54
(dp1261
g62
I4
ssg63
g1255
sg56
(lp1262
g935
asbasbasbag49
(g65
g51
NtRp1263
(dp1264
g54
(dp1265
sg63
g753
sg56
(lp1266
g49
(g70
g51
NtRp1267
(dp1268
g54
(dp1269
g74
g75
ssg63
g1263
sg56
(lp1270
S'is_pypy'
p1271
asbag49
(g70
g51
NtRp1272
(dp1273
g54
(dp1274
g81
g82
ssg63
g1263
sg56
(lp1275
S':'
asbag49
(g70
g51
NtRp1276
(dp1277
g54
(dp1278
sg63
g1263
sg56
(lp1279
g49
(g50
g51
NtRp1280
(dp1281
g54
(dp1282
g62
I4
ssg63
g1276
sg56
(lp1283
g935
asbasbasbag49
(g65
g51
NtRp1284
(dp1285
g54
(dp1286
sg63
g753
sg56
(lp1287
g49
(g70
g51
NtRp1288
(dp1289
g54
(dp1290
g74
g75
ssg63
g1284
sg56
(lp1291
S'path_info'
p1292
asbag49
(g70
g51
NtRp1293
(dp1294
g54
(dp1295
g81
g82
ssg63
g1284
sg56
(lp1296
S':'
asbag49
(g70
g51
NtRp1297
(dp1298
g54
(dp1299
sg63
g1284
sg56
(lp1300
g49
(g50
g51
NtRp1301
(dp1302
g54
(dp1303
g62
I4
ssg63
g1297
sg56
(lp1304
S'/addPage'
p1305
asbasbasbag49
(g65
g51
NtRp1306
(dp1307
g54
(dp1308
sg63
g753
sg56
(lp1309
g49
(g70
g51
NtRp1310
(dp1311
g54
(dp1312
g74
g75
ssg63
g1306
sg56
(lp1313
S'query_string'
p1314
asbag49
(g70
g51
NtRp1315
(dp1316
g54
(dp1317
g81
g82
ssg63
g1306
sg56
(lp1318
S':'
asbag49
(g70
g51
NtRp1319
(dp1320
g54
(dp1321
sg63
g1306
sg56
(lp1322
g49
(g50
g51
NtRp1323
(dp1324
g54
(dp1325
g62
I4
ssg63
g1319
sg56
(lp1326
S''
asbasbasbag49
(g65
g51
NtRp1327
(dp1328
g54
(dp1329
sg63
g753
sg56
(lp1330
g49
(g70
g51
NtRp1331
(dp1332
g54
(dp1333
g74
g75
ssg63
g1327
sg56
(lp1334
S'remote_addr'
p1335
asbag49
(g70
g51
NtRp1336
(dp1337
g54
(dp1338
g81
g82
ssg63
g1327
sg56
(lp1339
S':'
asbag49
(g70
g51
NtRp1340
(dp1341
g54
(dp1342
sg63
g1327
sg56
(lp1343
g49
(g50
g51
NtRp1344
(dp1345
g54
(dp1346
g62
I4
ssg63
g1340
sg56
(lp1347
g182
asbasbasbag49
(g65
g51
NtRp1348
(dp1349
g54
(dp1350
sg63
g753
sg56
(lp1351
g49
(g70
g51
NtRp1352
(dp1353
g54
(dp1354
g74
g75
ssg63
g1348
sg56
(lp1355
S'remote_port'
p1356
asbag49
(g70
g51
NtRp1357
(dp1358
g54
(dp1359
g81
g82
ssg63
g1348
sg56
(lp1360
S':'
asbag49
(g70
g51
NtRp1361
(dp1362
g54
(dp1363
sg63
g1348
sg56
(lp1364
g49
(g50
g51
NtRp1365
(dp1366
g54
(dp1367
g62
I4
ssg63
g1361
sg56
(lp1368
S'56472'
p1369
asbasbasbag49
(g65
g51
NtRp1370
(dp1371
g54
(dp1372
sg63
g753
sg56
(lp1373
g49
(g70
g51
NtRp1374
(dp1375
g54
(dp1376
g74
g75
ssg63
g1370
sg56
(lp1377
S'request_method'
p1378
asbag49
(g70
g51
NtRp1379
(dp1380
g54
(dp1381
g81
g82
ssg63
g1370
sg56
(lp1382
S':'
asbag49
(g70
g51
NtRp1383
(dp1384
g54
(dp1385
sg63
g1370
sg56
(lp1386
g49
(g50
g51
NtRp1387
(dp1388
g54
(dp1389
g62
I4
ssg63
g1383
sg56
(lp1390
S'POST'
p1391
asbasbasbag49
(g65
g51
NtRp1392
(dp1393
g54
(dp1394
sg63
g753
sg56
(lp1395
g49
(g70
g51
NtRp1396
(dp1397
g54
(dp1398
g74
g75
ssg63
g1392
sg56
(lp1399
S'request_uri'
p1400
asbag49
(g70
g51
NtRp1401
(dp1402
g54
(dp1403
g81
g82
ssg63
g1392
sg56
(lp1404
S':'
asbag49
(g70
g51
NtRp1405
(dp1406
g54
(dp1407
sg63
g1392
sg56
(lp1408
g49
(g50
g51
NtRp1409
(dp1410
g54
(dp1411
g62
I4
ssg63
g1405
sg56
(lp1412
S'/udi0312/default/addPage'
p1413
asbasbasbag49
(g65
g51
NtRp1414
(dp1415
g54
(dp1416
sg63
g753
sg56
(lp1417
g49
(g70
g51
NtRp1418
(dp1419
g54
(dp1420
g74
g75
ssg63
g1414
sg56
(lp1421
S'script_name'
p1422
asbag49
(g70
g51
NtRp1423
(dp1424
g54
(dp1425
g81
g82
ssg63
g1414
sg56
(lp1426
S':'
asbag49
(g70
g51
NtRp1427
(dp1428
g54
(dp1429
sg63
g1414
sg56
(lp1430
g49
(g50
g51
NtRp1431
(dp1432
g54
(dp1433
g62
I4
ssg63
g1427
sg56
(lp1434
S''
asbasbasbag49
(g65
g51
NtRp1435
(dp1436
g54
(dp1437
sg63
g753
sg56
(lp1438
g49
(g70
g51
NtRp1439
(dp1440
g54
(dp1441
g74
g75
ssg63
g1435
sg56
(lp1442
S'server_name'
p1443
asbag49
(g70
g51
NtRp1444
(dp1445
g54
(dp1446
g81
g82
ssg63
g1435
sg56
(lp1447
S':'
asbag49
(g70
g51
NtRp1448
(dp1449
g54
(dp1450
sg63
g1435
sg56
(lp1451
g49
(g50
g51
NtRp1452
(dp1453
g54
(dp1454
g62
I4
ssg63
g1448
sg56
(lp1455
S'Udi-Milos-MacBook-Pro.local'
p1456
asbasbasbag49
(g65
g51
NtRp1457
(dp1458
g54
(dp1459
sg63
g753
sg56
(lp1460
g49
(g70
g51
NtRp1461
(dp1462
g54
(dp1463
g74
g75
ssg63
g1457
sg56
(lp1464
S'server_port'
p1465
asbag49
(g70
g51
NtRp1466
(dp1467
g54
(dp1468
g81
g82
ssg63
g1457
sg56
(lp1469
S':'
asbag49
(g70
g51
NtRp1470
(dp1471
g54
(dp1472
sg63
g1457
sg56
(lp1473
g49
(g50
g51
NtRp1474
(dp1475
g54
(dp1476
g62
I4
ssg63
g1470
sg56
(lp1477
S'8000'
p1478
asbasbasbag49
(g65
g51
NtRp1479
(dp1480
g54
(dp1481
sg63
g753
sg56
(lp1482
g49
(g70
g51
NtRp1483
(dp1484
g54
(dp1485
g74
g75
ssg63
g1479
sg56
(lp1486
S'server_protocol'
p1487
asbag49
(g70
g51
NtRp1488
(dp1489
g54
(dp1490
g81
g82
ssg63
g1479
sg56
(lp1491
S':'
asbag49
(g70
g51
NtRp1492
(dp1493
g54
(dp1494
sg63
g1479
sg56
(lp1495
g49
(g50
g51
NtRp1496
(dp1497
g54
(dp1498
g62
I4
ssg63
g1492
sg56
(lp1499
S'HTTP/1.1'
p1500
asbasbasbag49
(g65
g51
NtRp1501
(dp1502
g54
(dp1503
sg63
g753
sg56
(lp1504
g49
(g70
g51
NtRp1505
(dp1506
g54
(dp1507
g74
g75
ssg63
g1501
sg56
(lp1508
S'server_software'
p1509
asbag49
(g70
g51
NtRp1510
(dp1511
g54
(dp1512
g81
g82
ssg63
g1501
sg56
(lp1513
S':'
asbag49
(g70
g51
NtRp1514
(dp1515
g54
(dp1516
sg63
g1501
sg56
(lp1517
g49
(g50
g51
NtRp1518
(dp1519
g54
(dp1520
g62
I4
ssg63
g1514
sg56
(lp1521
S'Rocket 1.2.4'
p1522
asbasbasbag49
(g65
g51
NtRp1523
(dp1524
g54
(dp1525
sg63
g753
sg56
(lp1526
g49
(g70
g51
NtRp1527
(dp1528
g54
(dp1529
g74
g75
ssg63
g1523
sg56
(lp1530
S'web2py_crontype'
p1531
asbag49
(g70
g51
NtRp1532
(dp1533
g54
(dp1534
g81
g82
ssg63
g1523
sg56
(lp1535
S':'
asbag49
(g70
g51
NtRp1536
(dp1537
g54
(dp1538
sg63
g1523
sg56
(lp1539
g49
(g50
g51
NtRp1540
(dp1541
g54
(dp1542
g62
I4
ssg63
g1536
sg56
(lp1543
S'hard'
p1544
asbasbasbag49
(g65
g51
NtRp1545
(dp1546
g54
(dp1547
sg63
g753
sg56
(lp1548
g49
(g70
g51
NtRp1549
(dp1550
g54
(dp1551
g74
g75
ssg63
g1545
sg56
(lp1552
S'web2py_original_uri'
p1553
asbag49
(g70
g51
NtRp1554
(dp1555
g54
(dp1556
g81
g82
ssg63
g1545
sg56
(lp1557
S':'
asbag49
(g70
g51
NtRp1558
(dp1559
g54
(dp1560
sg63
g1545
sg56
(lp1561
g49
(g50
g51
NtRp1562
(dp1563
g54
(dp1564
g62
I4
ssg63
g1558
sg56
(lp1565
g1305
asbasbasbag49
(g65
g51
NtRp1566
(dp1567
g54
(dp1568
sg63
g753
sg56
(lp1569
g49
(g70
g51
NtRp1570
(dp1571
g54
(dp1572
g74
g75
ssg63
g1566
sg56
(lp1573
S'web2py_path'
p1574
asbag49
(g70
g51
NtRp1575
(dp1576
g54
(dp1577
g81
g82
ssg63
g1566
sg56
(lp1578
S':'
asbag49
(g70
g51
NtRp1579
(dp1580
g54
(dp1581
sg63
g1566
sg56
(lp1582
g49
(g50
g51
NtRp1583
(dp1584
g54
(dp1585
g62
I4
ssg63
g1579
sg56
(lp1586
g800
asbasbasbag49
(g65
g51
NtRp1587
(dp1588
g54
(dp1589
sg63
g753
sg56
(lp1590
g49
(g70
g51
NtRp1591
(dp1592
g54
(dp1593
g74
g75
ssg63
g1587
sg56
(lp1594
S'web2py_version'
p1595
asbag49
(g70
g51
NtRp1596
(dp1597
g54
(dp1598
g81
g82
ssg63
g1587
sg56
(lp1599
S':'
asbag49
(g70
g51
NtRp1600
(dp1601
g54
(dp1602
sg63
g1587
sg56
(lp1603
g49
(g50
g51
NtRp1604
(dp1605
g54
(dp1606
g62
I4
ssg63
g1600
sg56
(lp1607
g49
(g58
g51
NtRp1608
(dp1609
g54
(dp1610
g62
I3
ssg63
Nsg56
(lp1611
g49
(g65
g51
NtRp1612
(dp1613
g54
(dp1614
sg63
g1608
sg56
(lp1615
g49
(g70
g51
NtRp1616
(dp1617
g54
(dp1618
sg63
g1612
sg56
(lp1619
g49
(g50
g51
NtRp1620
(dp1621
g54
(dp1622
g62
I3
ssg63
g1616
sg56
(lp1623
S'1'
asbasbasbag49
(g65
g51
NtRp1624
(dp1625
g54
(dp1626
sg63
g1608
sg56
(lp1627
g49
(g70
g51
NtRp1628
(dp1629
g54
(dp1630
sg63
g1624
sg56
(lp1631
g49
(g50
g51
NtRp1632
(dp1633
g54
(dp1634
g62
I3
ssg63
g1628
sg56
(lp1635
S'99'
p1636
asbasbasbag49
(g65
g51
NtRp1637
(dp1638
g54
(dp1639
sg63
g1608
sg56
(lp1640
g49
(g70
g51
NtRp1641
(dp1642
g54
(dp1643
sg63
g1637
sg56
(lp1644
g49
(g50
g51
NtRp1645
(dp1646
g54
(dp1647
g62
I3
ssg63
g1641
sg56
(lp1648
S'7'
asbasbasbag49
(g65
g51
NtRp1649
(dp1650
g54
(dp1651
sg63
g1608
sg56
(lp1652
g49
(g70
g51
NtRp1653
(dp1654
g54
(dp1655
sg63
g1649
sg56
(lp1656
g49
(g50
g51
NtRp1657
(dp1658
g54
(dp1659
g62
I3
ssg63
g1653
sg56
(lp1660
S'datetime.datetime(2012, 3, 4, 22, 12, 8)'
p1661
asbasbasbag49
(g65
g51
NtRp1662
(dp1663
g54
(dp1664
sg63
g1608
sg56
(lp1665
g49
(g70
g51
NtRp1666
(dp1667
g54
(dp1668
sg63
g1662
sg56
(lp1669
g49
(g50
g51
NtRp1670
(dp1671
g54
(dp1672
g62
I3
ssg63
g1666
sg56
(lp1673
S'stable'
p1674
asbasbasbasbasbasbasbag49
(g65
g51
NtRp1675
(dp1676
g54
(dp1677
sg63
g753
sg56
(lp1678
g49
(g70
g51
NtRp1679
(dp1680
g54
(dp1681
g74
g75
ssg63
g1675
sg56
(lp1682
S'wsgi_errors'
p1683
asbag49
(g70
g51
NtRp1684
(dp1685
g54
(dp1686
g81
g82
ssg63
g1675
sg56
(lp1687
S':'
asbag49
(g70
g51
NtRp1688
(dp1689
g54
(dp1690
sg63
g1675
sg56
(lp1691
g49
(g50
g51
NtRp1692
(dp1693
g54
(dp1694
g62
I4
ssg63
g1688
sg56
(lp1695
S"<open file '<stderr>', mode 'w' at 0x4220b0>"
p1696
asbasbasbag49
(g65
g51
NtRp1697
(dp1698
g54
(dp1699
sg63
g753
sg56
(lp1700
g49
(g70
g51
NtRp1701
(dp1702
g54
(dp1703
g74
g75
ssg63
g1697
sg56
(lp1704
S'wsgi_file_wrapper'
p1705
asbag49
(g70
g51
NtRp1706
(dp1707
g54
(dp1708
g81
g82
ssg63
g1697
sg56
(lp1709
S':'
asbag49
(g70
g51
NtRp1710
(dp1711
g54
(dp1712
sg63
g1697
sg56
(lp1713
g49
(g50
g51
NtRp1714
(dp1715
g54
(dp1716
g62
I4
ssg63
g1710
sg56
(lp1717
S'<class wsgiref.util.FileWrapper at 0x2b60450>'
p1718
asbasbasbag49
(g65
g51
NtRp1719
(dp1720
g54
(dp1721
sg63
g753
sg56
(lp1722
g49
(g70
g51
NtRp1723
(dp1724
g54
(dp1725
g74
g75
ssg63
g1719
sg56
(lp1726
S'wsgi_input'
p1727
asbag49
(g70
g51
NtRp1728
(dp1729
g54
(dp1730
g81
g82
ssg63
g1719
sg56
(lp1731
S':'
asbag49
(g70
g51
NtRp1732
(dp1733
g54
(dp1734
sg63
g1719
sg56
(lp1735
g49
(g50
g51
NtRp1736
(dp1737
g54
(dp1738
g62
I4
ssg63
g1732
sg56
(lp1739
S'<socket._fileobject object at 0x9d62db0>'
p1740
asbasbasbag49
(g65
g51
NtRp1741
(dp1742
g54
(dp1743
sg63
g753
sg56
(lp1744
g49
(g70
g51
NtRp1745
(dp1746
g54
(dp1747
g74
g75
ssg63
g1741
sg56
(lp1748
S'wsgi_multiprocess'
p1749
asbag49
(g70
g51
NtRp1750
(dp1751
g54
(dp1752
g81
g82
ssg63
g1741
sg56
(lp1753
S':'
asbag49
(g70
g51
NtRp1754
(dp1755
g54
(dp1756
sg63
g1741
sg56
(lp1757
g49
(g50
g51
NtRp1758
(dp1759
g54
(dp1760
g62
I4
ssg63
g1754
sg56
(lp1761
g935
asbasbasbag49
(g65
g51
NtRp1762
(dp1763
g54
(dp1764
sg63
g753
sg56
(lp1765
g49
(g70
g51
NtRp1766
(dp1767
g54
(dp1768
g74
g75
ssg63
g1762
sg56
(lp1769
S'wsgi_multithread'
p1770
asbag49
(g70
g51
NtRp1771
(dp1772
g54
(dp1773
g81
g82
ssg63
g1762
sg56
(lp1774
S':'
asbag49
(g70
g51
NtRp1775
(dp1776
g54
(dp1777
sg63
g1762
sg56
(lp1778
g49
(g50
g51
NtRp1779
(dp1780
g54
(dp1781
g62
I4
ssg63
g1775
sg56
(lp1782
g92
asbasbasbag49
(g65
g51
NtRp1783
(dp1784
g54
(dp1785
sg63
g753
sg56
(lp1786
g49
(g70
g51
NtRp1787
(dp1788
g54
(dp1789
g74
g75
ssg63
g1783
sg56
(lp1790
S'wsgi_run_once'
p1791
asbag49
(g70
g51
NtRp1792
(dp1793
g54
(dp1794
g81
g82
ssg63
g1783
sg56
(lp1795
S':'
asbag49
(g70
g51
NtRp1796
(dp1797
g54
(dp1798
sg63
g1783
sg56
(lp1799
g49
(g50
g51
NtRp1800
(dp1801
g54
(dp1802
g62
I4
ssg63
g1796
sg56
(lp1803
g935
asbasbasbag49
(g65
g51
NtRp1804
(dp1805
g54
(dp1806
sg63
g753
sg56
(lp1807
g49
(g70
g51
NtRp1808
(dp1809
g54
(dp1810
g74
g75
ssg63
g1804
sg56
(lp1811
S'wsgi_url_scheme'
p1812
asbag49
(g70
g51
NtRp1813
(dp1814
g54
(dp1815
g81
g82
ssg63
g1804
sg56
(lp1816
S':'
asbag49
(g70
g51
NtRp1817
(dp1818
g54
(dp1819
sg63
g1804
sg56
(lp1820
g49
(g50
g51
NtRp1821
(dp1822
g54
(dp1823
g62
I4
ssg63
g1817
sg56
(lp1824
S'http'
p1825
asbasbasbag49
(g65
g51
NtRp1826
(dp1827
g54
(dp1828
sg63
g753
sg56
(lp1829
g49
(g70
g51
NtRp1830
(dp1831
g54
(dp1832
g74
g75
ssg63
g1826
sg56
(lp1833
S'wsgi_version'
p1834
asbag49
(g70
g51
NtRp1835
(dp1836
g54
(dp1837
g81
g82
ssg63
g1826
sg56
(lp1838
S':'
asbag49
(g70
g51
NtRp1839
(dp1840
g54
(dp1841
sg63
g1826
sg56
(lp1842
g49
(g50
g51
NtRp1843
(dp1844
g54
(dp1845
g62
I4
ssg63
g1839
sg56
(lp1846
g49
(g58
g51
NtRp1847
(dp1848
g54
(dp1849
g62
I3
ssg63
Nsg56
(lp1850
g49
(g65
g51
NtRp1851
(dp1852
g54
(dp1853
sg63
g1847
sg56
(lp1854
g49
(g70
g51
NtRp1855
(dp1856
g54
(dp1857
sg63
g1851
sg56
(lp1858
g49
(g50
g51
NtRp1859
(dp1860
g54
(dp1861
g62
I3
ssg63
g1855
sg56
(lp1862
S'1'
asbasbasbag49
(g65
g51
NtRp1863
(dp1864
g54
(dp1865
sg63
g1847
sg56
(lp1866
g49
(g70
g51
NtRp1867
(dp1868
g54
(dp1869
sg63
g1863
sg56
(lp1870
g49
(g50
g51
NtRp1871
(dp1872
g54
(dp1873
g62
I3
ssg63
g1867
sg56
(lp1874
S'0'
asbasbasbasbasbasbasbasbasbasbasbag49
(g65
g51
NtRp1875
(dp1876
g54
(dp1877
sg63
g59
sg56
(lp1878
g49
(g70
g51
NtRp1879
(dp1880
g54
(dp1881
g74
g75
ssg63
g1875
sg56
(lp1882
S'extension'
p1883
asbag49
(g70
g51
NtRp1884
(dp1885
g54
(dp1886
g81
g82
ssg63
g1875
sg56
(lp1887
S':'
asbag49
(g70
g51
NtRp1888
(dp1889
g54
(dp1890
sg63
g1875
sg56
(lp1891
g49
(g50
g51
NtRp1892
(dp1893
g54
(dp1894
g62
I5
ssg63
g1888
sg56
(lp1895
S'html'
p1896
asbasbasbag49
(g65
g51
NtRp1897
(dp1898
g54
(dp1899
sg63
g59
sg56
(lp1900
g49
(g70
g51
NtRp1901
(dp1902
g54
(dp1903
g74
g75
ssg63
g1897
sg56
(lp1904
S'folder'
p1905
asbag49
(g70
g51
NtRp1906
(dp1907
g54
(dp1908
g81
g82
ssg63
g1897
sg56
(lp1909
S':'
asbag49
(g70
g51
NtRp1910
(dp1911
g54
(dp1912
sg63
g1897
sg56
(lp1913
g49
(g50
g51
NtRp1914
(dp1915
g54
(dp1916
g62
I5
ssg63
g1910
sg56
(lp1917
S'/Users/udimilo/Documents/web2py/applications/udi0312/'
p1918
asbasbasbag49
(g65
g51
NtRp1919
(dp1920
g54
(dp1921
sg63
g59
sg56
(lp1922
g49
(g70
g51
NtRp1923
(dp1924
g54
(dp1925
g74
g75
ssg63
g1919
sg56
(lp1926
S'function'
p1927
asbag49
(g70
g51
NtRp1928
(dp1929
g54
(dp1930
g81
g82
ssg63
g1919
sg56
(lp1931
S':'
asbag49
(g70
g51
NtRp1932
(dp1933
g54
(dp1934
sg63
g1919
sg56
(lp1935
g49
(g50
g51
NtRp1936
(dp1937
g54
(dp1938
g62
I5
ssg63
g1932
sg56
(lp1939
S'addPage'
p1940
asbasbasbag49
(g65
g51
NtRp1941
(dp1942
g54
(dp1943
sg63
g59
sg56
(lp1944
g49
(g70
g51
NtRp1945
(dp1946
g54
(dp1947
g74
g75
ssg63
g1941
sg56
(lp1948
S'get_vars'
p1949
asbag49
(g70
g51
NtRp1950
(dp1951
g54
(dp1952
g81
g82
ssg63
g1941
sg56
(lp1953
S':'
asbag49
(g70
g51
NtRp1954
(dp1955
g54
(dp1956
sg63
g1941
sg56
(lp1957
g49
(g50
g51
NtRp1958
(dp1959
g54
(dp1960
g62
I5
ssg63
g1954
sg56
(lp1961
g49
(g58
g51
NtRp1962
(dp1963
g54
(dp1964
g62
I4
ssg63
Nsg56
(lp1965
sbasbasbasbag49
(g65
g51
NtRp1966
(dp1967
g54
(dp1968
sg63
g59
sg56
(lp1969
g49
(g70
g51
NtRp1970
(dp1971
g54
(dp1972
g74
g75
ssg63
g1966
sg56
(lp1973
S'global_settings'
p1974
asbag49
(g70
g51
NtRp1975
(dp1976
g54
(dp1977
g81
g82
ssg63
g1966
sg56
(lp1978
S':'
asbag49
(g70
g51
NtRp1979
(dp1980
g54
(dp1981
sg63
g1966
sg56
(lp1982
g49
(g50
g51
NtRp1983
(dp1984
g54
(dp1985
g62
I5
ssg63
g1979
sg56
(lp1986
g49
(g58
g51
NtRp1987
(dp1988
g54
(dp1989
g62
I4
ssg63
Nsg56
(lp1990
g49
(g65
g51
NtRp1991
(dp1992
g54
(dp1993
sg63
g1987
sg56
(lp1994
g49
(g70
g51
NtRp1995
(dp1996
g54
(dp1997
g74
g75
ssg63
g1991
sg56
(lp1998
g765
asbag49
(g70
g51
NtRp1999
(dp2000
g54
(dp2001
g81
g82
ssg63
g1991
sg56
(lp2002
S':'
asbag49
(g70
g51
NtRp2003
(dp2004
g54
(dp2005
sg63
g1991
sg56
(lp2006
g49
(g50
g51
NtRp2007
(dp2008
g54
(dp2009
g62
I4
ssg63
g2003
sg56
(lp2010
S"set(['/Users/udimilo/Documents/web2py/applications/udi0312/', '/Users/udimilo/Documents/web2py/applications/admin/'])"
p2011
asbasbasbag49
(g65
g51
NtRp2012
(dp2013
g54
(dp2014
sg63
g1987
sg56
(lp2015
g49
(g70
g51
NtRp2016
(dp2017
g54
(dp2018
g74
g75
ssg63
g2012
sg56
(lp2019
g787
asbag49
(g70
g51
NtRp2020
(dp2021
g54
(dp2022
g81
g82
ssg63
g2012
sg56
(lp2023
S':'
asbag49
(g70
g51
NtRp2024
(dp2025
g54
(dp2026
sg63
g2012
sg56
(lp2027
g49
(g50
g51
NtRp2028
(dp2029
g54
(dp2030
g62
I4
ssg63
g2024
sg56
(lp2031
g800
asbasbasbag49
(g65
g51
NtRp2032
(dp2033
g54
(dp2034
sg63
g1987
sg56
(lp2035
g49
(g70
g51
NtRp2036
(dp2037
g54
(dp2038
g74
g75
ssg63
g2032
sg56
(lp2039
g809
asbag49
(g70
g51
NtRp2040
(dp2041
g54
(dp2042
g81
g82
ssg63
g2032
sg56
(lp2043
S':'
asbag49
(g70
g51
NtRp2044
(dp2045
g54
(dp2046
sg63
g2032
sg56
(lp2047
g49
(g50
g51
NtRp2048
(dp2049
g54
(dp2050
g62
I4
ssg63
g2044
sg56
(lp2051
g49
(g58
g51
NtRp2052
(dp2053
g54
(dp2054
g62
I3
ssg63
Nsg56
(lp2055
sbasbasbasbag49
(g65
g51
NtRp2056
(dp2057
g54
(dp2058
sg63
g1987
sg56
(lp2059
g49
(g70
g51
NtRp2060
(dp2061
g54
(dp2062
g74
g75
ssg63
g2056
sg56
(lp2063
g834
asbag49
(g70
g51
NtRp2064
(dp2065
g54
(dp2066
g81
g82
ssg63
g2056
sg56
(lp2067
S':'
asbag49
(g70
g51
NtRp2068
(dp2069
g54
(dp2070
sg63
g2056
sg56
(lp2071
g49
(g50
g51
NtRp2072
(dp2073
g54
(dp2074
g62
I4
ssg63
g2068
sg56
(lp2075
S"<Values at 0x2c16058: {'verbose': False, 'ip': '127.0.0.1', 'shutdown_timeout': 5, 'taskbar': False, 'nocron': False, 'pid_filename': 'httpserver.pid', 'maxthreads': None, 'softcron': False, 'server_name': 'Udi-Milos-MacBook-Pro.local', 'bpython': False, 'nogui': False, 'port': 8000, 'extcron': False, 'debuglevel': 30, 'test': None, 'folder': '/Users/udimilo/Documents/web2py', 'config': '', 'import_models': False, 'winservice': '', 'shell': None, 'run': '', 'log_filename': 'httpserver.log', 'args': [''], 'socket_timeout': 5, 'ssl_ca_certificate': None, 'scheduler': None, 'profiler_filename': None, 'ssl_private_key': '', 'password': '<ask>', 'request_queue_size': 5, 'ssl_certificate': '', 'cronjob': False, 'numthreads': None, 'quiet': False, 'interfaces': None, 'minthreads': None, 'timeout': 10, 'plain': False, 'nobanner': False}>"
p2076
asbasbasbag49
(g65
g51
NtRp2077
(dp2078
g54
(dp2079
sg63
g1987
sg56
(lp2080
g49
(g70
g51
NtRp2081
(dp2082
g54
(dp2083
g74
g75
ssg63
g2077
sg56
(lp2084
g900
asbag49
(g70
g51
NtRp2085
(dp2086
g54
(dp2087
g81
g82
ssg63
g2077
sg56
(lp2088
S':'
asbag49
(g70
g51
NtRp2089
(dp2090
g54
(dp2091
sg63
g2077
sg56
(lp2092
g49
(g50
g51
NtRp2093
(dp2094
g54
(dp2095
g62
I4
ssg63
g2089
sg56
(lp2096
S'set([])'
p2097
asbasbasbag49
(g65
g51
NtRp2098
(dp2099
g54
(dp2100
sg63
g1987
sg56
(lp2101
g49
(g70
g51
NtRp2102
(dp2103
g54
(dp2104
g74
g75
ssg63
g2098
sg56
(lp2105
g922
asbag49
(g70
g51
NtRp2106
(dp2107
g54
(dp2108
g81
g82
ssg63
g2098
sg56
(lp2109
S':'
asbag49
(g70
g51
NtRp2110
(dp2111
g54
(dp2112
sg63
g2098
sg56
(lp2113
g49
(g50
g51
NtRp2114
(dp2115
g54
(dp2116
g62
I4
ssg63
g2110
sg56
(lp2117
g935
asbasbasbag49
(g65
g51
NtRp2118
(dp2119
g54
(dp2120
sg63
g1987
sg56
(lp2121
g49
(g70
g51
NtRp2122
(dp2123
g54
(dp2124
g74
g75
ssg63
g2118
sg56
(lp2125
g944
asbag49
(g70
g51
NtRp2126
(dp2127
g54
(dp2128
g81
g82
ssg63
g2118
sg56
(lp2129
S':'
asbag49
(g70
g51
NtRp2130
(dp2131
g54
(dp2132
sg63
g2118
sg56
(lp2133
g49
(g50
g51
NtRp2134
(dp2135
g54
(dp2136
g62
I4
ssg63
g2130
sg56
(lp2137
g957
asbasbasbag49
(g65
g51
NtRp2138
(dp2139
g54
(dp2140
sg63
g1987
sg56
(lp2141
g49
(g70
g51
NtRp2142
(dp2143
g54
(dp2144
g74
g75
ssg63
g2138
sg56
(lp2145
g1250
asbag49
(g70
g51
NtRp2146
(dp2147
g54
(dp2148
g81
g82
ssg63
g2138
sg56
(lp2149
S':'
asbag49
(g70
g51
NtRp2150
(dp2151
g54
(dp2152
sg63
g2138
sg56
(lp2153
g49
(g50
g51
NtRp2154
(dp2155
g54
(dp2156
g62
I4
ssg63
g2150
sg56
(lp2157
g935
asbasbasbag49
(g65
g51
NtRp2158
(dp2159
g54
(dp2160
sg63
g1987
sg56
(lp2161
g49
(g70
g51
NtRp2162
(dp2163
g54
(dp2164
g74
g75
ssg63
g2158
sg56
(lp2165
g1271
asbag49
(g70
g51
NtRp2166
(dp2167
g54
(dp2168
g81
g82
ssg63
g2158
sg56
(lp2169
S':'
asbag49
(g70
g51
NtRp2170
(dp2171
g54
(dp2172
sg63
g2158
sg56
(lp2173
g49
(g50
g51
NtRp2174
(dp2175
g54
(dp2176
g62
I4
ssg63
g2170
sg56
(lp2177
g935
asbasbasbag49
(g65
g51
NtRp2178
(dp2179
g54
(dp2180
sg63
g1987
sg56
(lp2181
g49
(g70
g51
NtRp2182
(dp2183
g54
(dp2184
g74
g75
ssg63
g2178
sg56
(lp2185
g1531
asbag49
(g70
g51
NtRp2186
(dp2187
g54
(dp2188
g81
g82
ssg63
g2178
sg56
(lp2189
S':'
asbag49
(g70
g51
NtRp2190
(dp2191
g54
(dp2192
sg63
g2178
sg56
(lp2193
g49
(g50
g51
NtRp2194
(dp2195
g54
(dp2196
g62
I4
ssg63
g2190
sg56
(lp2197
g1544
asbasbasbag49
(g65
g51
NtRp2198
(dp2199
g54
(dp2200
sg63
g1987
sg56
(lp2201
g49
(g70
g51
NtRp2202
(dp2203
g54
(dp2204
g74
g75
ssg63
g2198
sg56
(lp2205
g1595
asbag49
(g70
g51
NtRp2206
(dp2207
g54
(dp2208
g81
g82
ssg63
g2198
sg56
(lp2209
S':'
asbag49
(g70
g51
NtRp2210
(dp2211
g54
(dp2212
sg63
g2198
sg56
(lp2213
g49
(g50
g51
NtRp2214
(dp2215
g54
(dp2216
g62
I4
ssg63
g2210
sg56
(lp2217
g49
(g58
g51
NtRp2218
(dp2219
g54
(dp2220
g62
I3
ssg63
Nsg56
(lp2221
g49
(g65
g51
NtRp2222
(dp2223
g54
(dp2224
sg63
g2218
sg56
(lp2225
g49
(g70
g51
NtRp2226
(dp2227
g54
(dp2228
sg63
g2222
sg56
(lp2229
g49
(g50
g51
NtRp2230
(dp2231
g54
(dp2232
g62
I3
ssg63
g2226
sg56
(lp2233
S'1'
asbasbasbag49
(g65
g51
NtRp2234
(dp2235
g54
(dp2236
sg63
g2218
sg56
(lp2237
g49
(g70
g51
NtRp2238
(dp2239
g54
(dp2240
sg63
g2234
sg56
(lp2241
g49
(g50
g51
NtRp2242
(dp2243
g54
(dp2244
g62
I3
ssg63
g2238
sg56
(lp2245
S'99'
p2246
asbasbasbag49
(g65
g51
NtRp2247
(dp2248
g54
(dp2249
sg63
g2218
sg56
(lp2250
g49
(g70
g51
NtRp2251
(dp2252
g54
(dp2253
sg63
g2247
sg56
(lp2254
g49
(g50
g51
NtRp2255
(dp2256
g54
(dp2257
g62
I3
ssg63
g2251
sg56
(lp2258
S'7'
asbasbasbag49
(g65
g51
NtRp2259
(dp2260
g54
(dp2261
sg63
g2218
sg56
(lp2262
g49
(g70
g51
NtRp2263
(dp2264
g54
(dp2265
sg63
g2259
sg56
(lp2266
g49
(g50
g51
NtRp2267
(dp2268
g54
(dp2269
g62
I3
ssg63
g2263
sg56
(lp2270
S'datetime.datetime(2012, 3, 4, 22, 12, 8)'
p2271
asbasbasbag49
(g65
g51
NtRp2272
(dp2273
g54
(dp2274
sg63
g2218
sg56
(lp2275
g49
(g70
g51
NtRp2276
(dp2277
g54
(dp2278
sg63
g2272
sg56
(lp2279
g49
(g50
g51
NtRp2280
(dp2281
g54
(dp2282
g62
I3
ssg63
g2276
sg56
(lp2283
g1674
asbasbasbasbasbasbasbasbasbasbasbag49
(g65
g51
NtRp2284
(dp2285
g54
(dp2286
sg63
g59
sg56
(lp2287
g49
(g70
g51
NtRp2288
(dp2289
g54
(dp2290
g74
g75
ssg63
g2284
sg56
(lp2291
S'is_https'
p2292
asbag49
(g70
g51
NtRp2293
(dp2294
g54
(dp2295
g81
g82
ssg63
g2284
sg56
(lp2296
S':'
asbag49
(g70
g51
NtRp2297
(dp2298
g54
(dp2299
sg63
g2284
sg56
(lp2300
g49
(g50
g51
NtRp2301
(dp2302
g54
(dp2303
g62
I5
ssg63
g2297
sg56
(lp2304
g935
asbasbasbag49
(g65
g51
NtRp2305
(dp2306
g54
(dp2307
sg63
g59
sg56
(lp2308
g49
(g70
g51
NtRp2309
(dp2310
g54
(dp2311
g74
g75
ssg63
g2305
sg56
(lp2312
S'is_local'
p2313
asbag49
(g70
g51
NtRp2314
(dp2315
g54
(dp2316
g81
g82
ssg63
g2305
sg56
(lp2317
S':'
asbag49
(g70
g51
NtRp2318
(dp2319
g54
(dp2320
sg63
g2305
sg56
(lp2321
g49
(g50
g51
NtRp2322
(dp2323
g54
(dp2324
g62
I5
ssg63
g2318
sg56
(lp2325
g92
asbasbasbag49
(g65
g51
NtRp2326
(dp2327
g54
(dp2328
sg63
g59
sg56
(lp2329
g49
(g70
g51
NtRp2330
(dp2331
g54
(dp2332
g74
g75
ssg63
g2326
sg56
(lp2333
S'is_restful'
p2334
asbag49
(g70
g51
NtRp2335
(dp2336
g54
(dp2337
g81
g82
ssg63
g2326
sg56
(lp2338
S':'
asbag49
(g70
g51
NtRp2339
(dp2340
g54
(dp2341
sg63
g2326
sg56
(lp2342
g49
(g50
g51
NtRp2343
(dp2344
g54
(dp2345
g62
I5
ssg63
g2339
sg56
(lp2346
g935
asbasbasbag49
(g65
g51
NtRp2347
(dp2348
g54
(dp2349
sg63
g59
sg56
(lp2350
g49
(g70
g51
NtRp2351
(dp2352
g54
(dp2353
g74
g75
ssg63
g2347
sg56
(lp2354
S'now'
p2355
asbag49
(g70
g51
NtRp2356
(dp2357
g54
(dp2358
g81
g82
ssg63
g2347
sg56
(lp2359
S':'
asbag49
(g70
g51
NtRp2360
(dp2361
g54
(dp2362
sg63
g2347
sg56
(lp2363
g49
(g50
g51
NtRp2364
(dp2365
g54
(dp2366
g62
I5
ssg63
g2360
sg56
(lp2367
S'datetime.datetime(2012, 3, 8, 15, 32, 41, 718813)'
p2368
asbasbasbag49
(g65
g51
NtRp2369
(dp2370
g54
(dp2371
sg63
g59
sg56
(lp2372
g49
(g70
g51
NtRp2373
(dp2374
g54
(dp2375
g74
g75
ssg63
g2369
sg56
(lp2376
S'post_vars'
p2377
asbag49
(g70
g51
NtRp2378
(dp2379
g54
(dp2380
g81
g82
ssg63
g2369
sg56
(lp2381
S':'
asbag49
(g70
g51
NtRp2382
(dp2383
g54
(dp2384
sg63
g2369
sg56
(lp2385
g49
(g50
g51
NtRp2386
(dp2387
g54
(dp2388
g62
I5
ssg63
g2382
sg56
(lp2389
g49
(g58
g51
NtRp2390
(dp2391
g54
(dp2392
g62
I4
ssg63
Nsg56
(lp2393
g49
(g65
g51
NtRp2394
(dp2395
g54
(dp2396
sg63
g2390
sg56
(lp2397
g49
(g70
g51
NtRp2398
(dp2399
g54
(dp2400
g74
g75
ssg63
g2394
sg56
(lp2401
S'board'
p2402
asbag49
(g70
g51
NtRp2403
(dp2404
g54
(dp2405
g81
g82
ssg63
g2394
sg56
(lp2406
S':'
asbag49
(g70
g51
NtRp2407
(dp2408
g54
(dp2409
sg63
g2394
sg56
(lp2410
g49
(g50
g51
NtRp2411
(dp2412
g54
(dp2413
g62
I4
ssg63
g2407
sg56
(lp2414
S'javascript'
p2415
asbasbasbag49
(g65
g51
NtRp2416
(dp2417
g54
(dp2418
sg63
g2390
sg56
(lp2419
g49
(g70
g51
NtRp2420
(dp2421
g54
(dp2422
g74
g75
ssg63
g2416
sg56
(lp2423
S'url'
p2424
asbag49
(g70
g51
NtRp2425
(dp2426
g54
(dp2427
g81
g82
ssg63
g2416
sg56
(lp2428
S':'
asbag49
(g70
g51
NtRp2429
(dp2430
g54
(dp2431
sg63
g2416
sg56
(lp2432
g49
(g50
g51
NtRp2433
(dp2434
g54
(dp2435
g62
I4
ssg63
g2429
sg56
(lp2436
S'aa'
p2437
asbasbasbasbasbasbasbag49
(g65
g51
NtRp2438
(dp2439
g54
(dp2440
sg63
g59
sg56
(lp2441
g49
(g70
g51
NtRp2442
(dp2443
g54
(dp2444
g74
g75
ssg63
g2438
sg56
(lp2445
S'url'
p2446
asbag49
(g70
g51
NtRp2447
(dp2448
g54
(dp2449
g81
g82
ssg63
g2438
sg56
(lp2450
S':'
asbag49
(g70
g51
NtRp2451
(dp2452
g54
(dp2453
sg63
g2438
sg56
(lp2454
g49
(g50
g51
NtRp2455
(dp2456
g54
(dp2457
g62
I5
ssg63
g2451
sg56
(lp2458
S'/addPage'
p2459
asbasbasbag49
(g65
g51
NtRp2460
(dp2461
g54
(dp2462
sg63
g59
sg56
(lp2463
g49
(g70
g51
NtRp2464
(dp2465
g54
(dp2466
g74
g75
ssg63
g2460
sg56
(lp2467
S'utcnow'
p2468
asbag49
(g70
g51
NtRp2469
(dp2470
g54
(dp2471
g81
g82
ssg63
g2460
sg56
(lp2472
S':'
asbag49
(g70
g51
NtRp2473
(dp2474
g54
(dp2475
sg63
g2460
sg56
(lp2476
g49
(g50
g51
NtRp2477
(dp2478
g54
(dp2479
g62
I5
ssg63
g2473
sg56
(lp2480
S'datetime.datetime(2012, 3, 8, 20, 32, 41, 718827)'
p2481
asbasbasbag49
(g65
g51
NtRp2482
(dp2483
g54
(dp2484
sg63
g59
sg56
(lp2485
g49
(g70
g51
NtRp2486
(dp2487
g54
(dp2488
g74
g75
ssg63
g2482
sg56
(lp2489
S'uuid'
p2490
asbag49
(g70
g51
NtRp2491
(dp2492
g54
(dp2493
g81
g82
ssg63
g2482
sg56
(lp2494
S':'
asbag49
(g70
g51
NtRp2495
(dp2496
g54
(dp2497
sg63
g2482
sg56
(lp2498
g49
(g50
g51
NtRp2499
(dp2500
g54
(dp2501
g62
I5
ssg63
g2495
sg56
(lp2502
S'udi0312/127.0.0.1.2012-03-08.15-32-41.9cdd7a2d-1a46-4ee2-879f-8ad545180a79'
p2503
asbasbasbag49
(g65
g51
NtRp2504
(dp2505
g54
(dp2506
sg63
g59
sg56
(lp2507
g49
(g70
g51
NtRp2508
(dp2509
g54
(dp2510
g74
g75
ssg63
g2504
sg56
(lp2511
S'vars'
p2512
asbag49
(g70
g51
NtRp2513
(dp2514
g54
(dp2515
g81
g82
ssg63
g2504
sg56
(lp2516
S':'
asbag49
(g70
g51
NtRp2517
(dp2518
g54
(dp2519
sg63
g2504
sg56
(lp2520
g49
(g50
g51
NtRp2521
(dp2522
g54
(dp2523
g62
I5
ssg63
g2517
sg56
(lp2524
g49
(g58
g51
NtRp2525
(dp2526
g54
(dp2527
g62
I4
ssg63
Nsg56
(lp2528
g49
(g65
g51
NtRp2529
(dp2530
g54
(dp2531
sg63
g2525
sg56
(lp2532
g49
(g70
g51
NtRp2533
(dp2534
g54
(dp2535
g74
g75
ssg63
g2529
sg56
(lp2536
g2402
asbag49
(g70
g51
NtRp2537
(dp2538
g54
(dp2539
g81
g82
ssg63
g2529
sg56
(lp2540
S':'
asbag49
(g70
g51
NtRp2541
(dp2542
g54
(dp2543
sg63
g2529
sg56
(lp2544
g49
(g50
g51
NtRp2545
(dp2546
g54
(dp2547
g62
I4
ssg63
g2541
sg56
(lp2548
g2415
asbasbasbag49
(g65
g51
NtRp2549
(dp2550
g54
(dp2551
sg63
g2525
sg56
(lp2552
g49
(g70
g51
NtRp2553
(dp2554
g54
(dp2555
g74
g75
ssg63
g2549
sg56
(lp2556
g2424
asbag49
(g70
g51
NtRp2557
(dp2558
g54
(dp2559
g81
g82
ssg63
g2549
sg56
(lp2560
S':'
asbag49
(g70
g51
NtRp2561
(dp2562
g54
(dp2563
sg63
g2549
sg56
(lp2564
g49
(g50
g51
NtRp2565
(dp2566
g54
(dp2567
g62
I4
ssg63
g2561
sg56
(lp2568
g2437
asbasbasbasbasbasbasbag49
(g65
g51
NtRp2569
(dp2570
g54
(dp2571
sg63
g59
sg56
(lp2572
g49
(g70
g51
NtRp2573
(dp2574
g54
(dp2575
g74
g75
ssg63
g2569
sg56
(lp2576
S'wsgi'
p2577
asbag49
(g70
g51
NtRp2578
(dp2579
g54
(dp2580
g81
g82
ssg63
g2569
sg56
(lp2581
S':'
asbag49
(g70
g51
NtRp2582
(dp2583
g54
(dp2584
sg63
g2569
sg56
(lp2585
g49
(g50
g51
NtRp2586
(dp2587
g54
(dp2588
g62
I5
ssg63
g2582
sg56
(lp2589
g49
(g58
g51
NtRp2590
(dp2591
g54
(dp2592
g62
I4
ssg63
Nsg56
(lp2593
g49
(g65
g51
NtRp2594
(dp2595
g54
(dp2596
sg63
g2590
sg56
(lp2597
g49
(g70
g51
NtRp2598
(dp2599
g54
(dp2600
g74
g75
ssg63
g2594
sg56
(lp2601
S'environ'
p2602
asbag49
(g70
g51
NtRp2603
(dp2604
g54
(dp2605
g81
g82
ssg63
g2594
sg56
(lp2606
S':'
asbag49
(g70
g51
NtRp2607
(dp2608
g54
(dp2609
sg63
g2594
sg56
(lp2610
g49
(g50
g51
NtRp2611
(dp2612
g54
(dp2613
g62
I4
ssg63
g2607
sg56
(lp2614
g49
(g58
g51
NtRp2615
(dp2616
g54
(dp2617
g62
I3
ssg63
Nsg56
(lp2618
g49
(g65
g51
NtRp2619
(dp2620
g54
(dp2621
sg63
g2615
sg56
(lp2622
g49
(g70
g51
NtRp2623
(dp2624
g54
(dp2625
g74
g75
ssg63
g2619
sg56
(lp2626
S'CONTENT_LENGTH'
p2627
asbag49
(g70
g51
NtRp2628
(dp2629
g54
(dp2630
g81
g82
ssg63
g2619
sg56
(lp2631
S':'
asbag49
(g70
g51
NtRp2632
(dp2633
g54
(dp2634
sg63
g2619
sg56
(lp2635
g49
(g50
g51
NtRp2636
(dp2637
g54
(dp2638
g62
I3
ssg63
g2632
sg56
(lp2639
g869
asbasbasbag49
(g65
g51
NtRp2640
(dp2641
g54
(dp2642
sg63
g2615
sg56
(lp2643
g49
(g70
g51
NtRp2644
(dp2645
g54
(dp2646
g74
g75
ssg63
g2640
sg56
(lp2647
S'CONTENT_TYPE'
p2648
asbag49
(g70
g51
NtRp2649
(dp2650
g54
(dp2651
g81
g82
ssg63
g2640
sg56
(lp2652
S':'
asbag49
(g70
g51
NtRp2653
(dp2654
g54
(dp2655
sg63
g2640
sg56
(lp2656
g49
(g50
g51
NtRp2657
(dp2658
g54
(dp2659
g62
I3
ssg63
g2653
sg56
(lp2660
g891
asbasbasbag49
(g65
g51
NtRp2661
(dp2662
g54
(dp2663
sg63
g2615
sg56
(lp2664
g49
(g70
g51
NtRp2665
(dp2666
g54
(dp2667
g74
g75
ssg63
g2661
sg56
(lp2668
S'HTTP_ACCEPT'
p2669
asbag49
(g70
g51
NtRp2670
(dp2671
g54
(dp2672
g81
g82
ssg63
g2661
sg56
(lp2673
S':'
asbag49
(g70
g51
NtRp2674
(dp2675
g54
(dp2676
sg63
g2661
sg56
(lp2677
g49
(g50
g51
NtRp2678
(dp2679
g54
(dp2680
g62
I3
ssg63
g2674
sg56
(lp2681
g979
asbasbasbag49
(g65
g51
NtRp2682
(dp2683
g54
(dp2684
sg63
g2615
sg56
(lp2685
g49
(g70
g51
NtRp2686
(dp2687
g54
(dp2688
g74
g75
ssg63
g2682
sg56
(lp2689
S'HTTP_ACCEPT_CHARSET'
p2690
asbag49
(g70
g51
NtRp2691
(dp2692
g54
(dp2693
g81
g82
ssg63
g2682
sg56
(lp2694
S':'
asbag49
(g70
g51
NtRp2695
(dp2696
g54
(dp2697
sg63
g2682
sg56
(lp2698
g49
(g50
g51
NtRp2699
(dp2700
g54
(dp2701
g62
I3
ssg63
g2695
sg56
(lp2702
g1001
asbasbasbag49
(g65
g51
NtRp2703
(dp2704
g54
(dp2705
sg63
g2615
sg56
(lp2706
g49
(g70
g51
NtRp2707
(dp2708
g54
(dp2709
g74
g75
ssg63
g2703
sg56
(lp2710
S'HTTP_ACCEPT_ENCODING'
p2711
asbag49
(g70
g51
NtRp2712
(dp2713
g54
(dp2714
g81
g82
ssg63
g2703
sg56
(lp2715
S':'
asbag49
(g70
g51
NtRp2716
(dp2717
g54
(dp2718
sg63
g2703
sg56
(lp2719
g49
(g50
g51
NtRp2720
(dp2721
g54
(dp2722
g62
I3
ssg63
g2716
sg56
(lp2723
g1023
asbasbasbag49
(g65
g51
NtRp2724
(dp2725
g54
(dp2726
sg63
g2615
sg56
(lp2727
g49
(g70
g51
NtRp2728
(dp2729
g54
(dp2730
g74
g75
ssg63
g2724
sg56
(lp2731
S'HTTP_ACCEPT_LANGUAGE'
p2732
asbag49
(g70
g51
NtRp2733
(dp2734
g54
(dp2735
g81
g82
ssg63
g2724
sg56
(lp2736
S':'
asbag49
(g70
g51
NtRp2737
(dp2738
g54
(dp2739
sg63
g2724
sg56
(lp2740
g49
(g50
g51
NtRp2741
(dp2742
g54
(dp2743
g62
I3
ssg63
g2737
sg56
(lp2744
g1045
asbasbasbag49
(g65
g51
NtRp2745
(dp2746
g54
(dp2747
sg63
g2615
sg56
(lp2748
g49
(g70
g51
NtRp2749
(dp2750
g54
(dp2751
g74
g75
ssg63
g2745
sg56
(lp2752
S'HTTP_CONNECTION'
p2753
asbag49
(g70
g51
NtRp2754
(dp2755
g54
(dp2756
g81
g82
ssg63
g2745
sg56
(lp2757
S':'
asbag49
(g70
g51
NtRp2758
(dp2759
g54
(dp2760
sg63
g2745
sg56
(lp2761
g49
(g50
g51
NtRp2762
(dp2763
g54
(dp2764
g62
I3
ssg63
g2758
sg56
(lp2765
g1067
asbasbasbag49
(g65
g51
NtRp2766
(dp2767
g54
(dp2768
sg63
g2615
sg56
(lp2769
g49
(g70
g51
NtRp2770
(dp2771
g54
(dp2772
g74
g75
ssg63
g2766
sg56
(lp2773
S'HTTP_CONTENT_LENGTH'
p2774
asbag49
(g70
g51
NtRp2775
(dp2776
g54
(dp2777
g81
g82
ssg63
g2766
sg56
(lp2778
S':'
asbag49
(g70
g51
NtRp2779
(dp2780
g54
(dp2781
sg63
g2766
sg56
(lp2782
g49
(g50
g51
NtRp2783
(dp2784
g54
(dp2785
g62
I3
ssg63
g2779
sg56
(lp2786
g869
asbasbasbag49
(g65
g51
NtRp2787
(dp2788
g54
(dp2789
sg63
g2615
sg56
(lp2790
g49
(g70
g51
NtRp2791
(dp2792
g54
(dp2793
g74
g75
ssg63
g2787
sg56
(lp2794
S'HTTP_CONTENT_TYPE'
p2795
asbag49
(g70
g51
NtRp2796
(dp2797
g54
(dp2798
g81
g82
ssg63
g2787
sg56
(lp2799
S':'
asbag49
(g70
g51
NtRp2800
(dp2801
g54
(dp2802
sg63
g2787
sg56
(lp2803
g49
(g50
g51
NtRp2804
(dp2805
g54
(dp2806
g62
I3
ssg63
g2800
sg56
(lp2807
g891
asbasbasbag49
(g65
g51
NtRp2808
(dp2809
g54
(dp2810
sg63
g2615
sg56
(lp2811
g49
(g70
g51
NtRp2812
(dp2813
g54
(dp2814
g74
g75
ssg63
g2808
sg56
(lp2815
S'HTTP_COOKIE'
p2816
asbag49
(g70
g51
NtRp2817
(dp2818
g54
(dp2819
g81
g82
ssg63
g2808
sg56
(lp2820
S':'
asbag49
(g70
g51
NtRp2821
(dp2822
g54
(dp2823
sg63
g2808
sg56
(lp2824
g49
(g50
g51
NtRp2825
(dp2826
g54
(dp2827
g62
I3
ssg63
g2821
sg56
(lp2828
g1131
asbasbasbag49
(g65
g51
NtRp2829
(dp2830
g54
(dp2831
sg63
g2615
sg56
(lp2832
g49
(g70
g51
NtRp2833
(dp2834
g54
(dp2835
g74
g75
ssg63
g2829
sg56
(lp2836
S'HTTP_HOST'
p2837
asbag49
(g70
g51
NtRp2838
(dp2839
g54
(dp2840
g81
g82
ssg63
g2829
sg56
(lp2841
S':'
asbag49
(g70
g51
NtRp2842
(dp2843
g54
(dp2844
sg63
g2829
sg56
(lp2845
g49
(g50
g51
NtRp2846
(dp2847
g54
(dp2848
g62
I3
ssg63
g2842
sg56
(lp2849
g1153
asbasbasbag49
(g65
g51
NtRp2850
(dp2851
g54
(dp2852
sg63
g2615
sg56
(lp2853
g49
(g70
g51
NtRp2854
(dp2855
g54
(dp2856
g74
g75
ssg63
g2850
sg56
(lp2857
S'HTTP_ORIGIN'
p2858
asbag49
(g70
g51
NtRp2859
(dp2860
g54
(dp2861
g81
g82
ssg63
g2850
sg56
(lp2862
S':'
asbag49
(g70
g51
NtRp2863
(dp2864
g54
(dp2865
sg63
g2850
sg56
(lp2866
g49
(g50
g51
NtRp2867
(dp2868
g54
(dp2869
g62
I3
ssg63
g2863
sg56
(lp2870
g1175
asbasbasbag49
(g65
g51
NtRp2871
(dp2872
g54
(dp2873
sg63
g2615
sg56
(lp2874
g49
(g70
g51
NtRp2875
(dp2876
g54
(dp2877
g74
g75
ssg63
g2871
sg56
(lp2878
S'HTTP_REFERER'
p2879
asbag49
(g70
g51
NtRp2880
(dp2881
g54
(dp2882
g81
g82
ssg63
g2871
sg56
(lp2883
S':'
asbag49
(g70
g51
NtRp2884
(dp2885
g54
(dp2886
sg63
g2871
sg56
(lp2887
g49
(g50
g51
NtRp2888
(dp2889
g54
(dp2890
g62
I3
ssg63
g2884
sg56
(lp2891
g1197
asbasbasbag49
(g65
g51
NtRp2892
(dp2893
g54
(dp2894
sg63
g2615
sg56
(lp2895
g49
(g70
g51
NtRp2896
(dp2897
g54
(dp2898
g74
g75
ssg63
g2892
sg56
(lp2899
S'HTTP_USER_AGENT'
p2900
asbag49
(g70
g51
NtRp2901
(dp2902
g54
(dp2903
g81
g82
ssg63
g2892
sg56
(lp2904
S':'
asbag49
(g70
g51
NtRp2905
(dp2906
g54
(dp2907
sg63
g2892
sg56
(lp2908
g49
(g50
g51
NtRp2909
(dp2910
g54
(dp2911
g62
I3
ssg63
g2905
sg56
(lp2912
g1219
asbasbasbag49
(g65
g51
NtRp2913
(dp2914
g54
(dp2915
sg63
g2615
sg56
(lp2916
g49
(g70
g51
NtRp2917
(dp2918
g54
(dp2919
g74
g75
ssg63
g2913
sg56
(lp2920
S'HTTP_X_REQUESTED_WITH'
p2921
asbag49
(g70
g51
NtRp2922
(dp2923
g54
(dp2924
g81
g82
ssg63
g2913
sg56
(lp2925
S':'
asbag49
(g70
g51
NtRp2926
(dp2927
g54
(dp2928
sg63
g2913
sg56
(lp2929
g49
(g50
g51
NtRp2930
(dp2931
g54
(dp2932
g62
I3
ssg63
g2926
sg56
(lp2933
g1241
asbasbasbag49
(g65
g51
NtRp2934
(dp2935
g54
(dp2936
sg63
g2615
sg56
(lp2937
g49
(g70
g51
NtRp2938
(dp2939
g54
(dp2940
g74
g75
ssg63
g2934
sg56
(lp2941
S'PATH_INFO'
p2942
asbag49
(g70
g51
NtRp2943
(dp2944
g54
(dp2945
g81
g82
ssg63
g2934
sg56
(lp2946
S':'
asbag49
(g70
g51
NtRp2947
(dp2948
g54
(dp2949
sg63
g2934
sg56
(lp2950
g49
(g50
g51
NtRp2951
(dp2952
g54
(dp2953
g62
I3
ssg63
g2947
sg56
(lp2954
g1305
asbasbasbag49
(g65
g51
NtRp2955
(dp2956
g54
(dp2957
sg63
g2615
sg56
(lp2958
g49
(g70
g51
NtRp2959
(dp2960
g54
(dp2961
g74
g75
ssg63
g2955
sg56
(lp2962
S'QUERY_STRING'
p2963
asbag49
(g70
g51
NtRp2964
(dp2965
g54
(dp2966
g81
g82
ssg63
g2955
sg56
(lp2967
S':'
asbag49
(g70
g51
NtRp2968
(dp2969
g54
(dp2970
sg63
g2955
sg56
(lp2971
g49
(g50
g51
NtRp2972
(dp2973
g54
(dp2974
g62
I3
ssg63
g2968
sg56
(lp2975
S''
asbasbasbag49
(g65
g51
NtRp2976
(dp2977
g54
(dp2978
sg63
g2615
sg56
(lp2979
g49
(g70
g51
NtRp2980
(dp2981
g54
(dp2982
g74
g75
ssg63
g2976
sg56
(lp2983
S'REMOTE_ADDR'
p2984
asbag49
(g70
g51
NtRp2985
(dp2986
g54
(dp2987
g81
g82
ssg63
g2976
sg56
(lp2988
S':'
asbag49
(g70
g51
NtRp2989
(dp2990
g54
(dp2991
sg63
g2976
sg56
(lp2992
g49
(g50
g51
NtRp2993
(dp2994
g54
(dp2995
g62
I3
ssg63
g2989
sg56
(lp2996
g182
asbasbasbag49
(g65
g51
NtRp2997
(dp2998
g54
(dp2999
sg63
g2615
sg56
(lp3000
g49
(g70
g51
NtRp3001
(dp3002
g54
(dp3003
g74
g75
ssg63
g2997
sg56
(lp3004
S'REMOTE_PORT'
p3005
asbag49
(g70
g51
NtRp3006
(dp3007
g54
(dp3008
g81
g82
ssg63
g2997
sg56
(lp3009
S':'
asbag49
(g70
g51
NtRp3010
(dp3011
g54
(dp3012
sg63
g2997
sg56
(lp3013
g49
(g50
g51
NtRp3014
(dp3015
g54
(dp3016
g62
I3
ssg63
g3010
sg56
(lp3017
g1369
asbasbasbag49
(g65
g51
NtRp3018
(dp3019
g54
(dp3020
sg63
g2615
sg56
(lp3021
g49
(g70
g51
NtRp3022
(dp3023
g54
(dp3024
g74
g75
ssg63
g3018
sg56
(lp3025
S'REQUEST_METHOD'
p3026
asbag49
(g70
g51
NtRp3027
(dp3028
g54
(dp3029
g81
g82
ssg63
g3018
sg56
(lp3030
S':'
asbag49
(g70
g51
NtRp3031
(dp3032
g54
(dp3033
sg63
g3018
sg56
(lp3034
g49
(g50
g51
NtRp3035
(dp3036
g54
(dp3037
g62
I3
ssg63
g3031
sg56
(lp3038
g1391
asbasbasbag49
(g65
g51
NtRp3039
(dp3040
g54
(dp3041
sg63
g2615
sg56
(lp3042
g49
(g70
g51
NtRp3043
(dp3044
g54
(dp3045
g74
g75
ssg63
g3039
sg56
(lp3046
S'REQUEST_URI'
p3047
asbag49
(g70
g51
NtRp3048
(dp3049
g54
(dp3050
g81
g82
ssg63
g3039
sg56
(lp3051
S':'
asbag49
(g70
g51
NtRp3052
(dp3053
g54
(dp3054
sg63
g3039
sg56
(lp3055
g49
(g50
g51
NtRp3056
(dp3057
g54
(dp3058
g62
I3
ssg63
g3052
sg56
(lp3059
g1413
asbasbasbag49
(g65
g51
NtRp3060
(dp3061
g54
(dp3062
sg63
g2615
sg56
(lp3063
g49
(g70
g51
NtRp3064
(dp3065
g54
(dp3066
g74
g75
ssg63
g3060
sg56
(lp3067
S'SCRIPT_NAME'
p3068
asbag49
(g70
g51
NtRp3069
(dp3070
g54
(dp3071
g81
g82
ssg63
g3060
sg56
(lp3072
S':'
asbag49
(g70
g51
NtRp3073
(dp3074
g54
(dp3075
sg63
g3060
sg56
(lp3076
g49
(g50
g51
NtRp3077
(dp3078
g54
(dp3079
g62
I3
ssg63
g3073
sg56
(lp3080
S''
asbasbasbag49
(g65
g51
NtRp3081
(dp3082
g54
(dp3083
sg63
g2615
sg56
(lp3084
g49
(g70
g51
NtRp3085
(dp3086
g54
(dp3087
g74
g75
ssg63
g3081
sg56
(lp3088
S'SERVER_NAME'
p3089
asbag49
(g70
g51
NtRp3090
(dp3091
g54
(dp3092
g81
g82
ssg63
g3081
sg56
(lp3093
S':'
asbag49
(g70
g51
NtRp3094
(dp3095
g54
(dp3096
sg63
g3081
sg56
(lp3097
g49
(g50
g51
NtRp3098
(dp3099
g54
(dp3100
g62
I3
ssg63
g3094
sg56
(lp3101
g1456
asbasbasbag49
(g65
g51
NtRp3102
(dp3103
g54
(dp3104
sg63
g2615
sg56
(lp3105
g49
(g70
g51
NtRp3106
(dp3107
g54
(dp3108
g74
g75
ssg63
g3102
sg56
(lp3109
S'SERVER_PORT'
p3110
asbag49
(g70
g51
NtRp3111
(dp3112
g54
(dp3113
g81
g82
ssg63
g3102
sg56
(lp3114
S':'
asbag49
(g70
g51
NtRp3115
(dp3116
g54
(dp3117
sg63
g3102
sg56
(lp3118
g49
(g50
g51
NtRp3119
(dp3120
g54
(dp3121
g62
I3
ssg63
g3115
sg56
(lp3122
g1478
asbasbasbag49
(g65
g51
NtRp3123
(dp3124
g54
(dp3125
sg63
g2615
sg56
(lp3126
g49
(g70
g51
NtRp3127
(dp3128
g54
(dp3129
g74
g75
ssg63
g3123
sg56
(lp3130
S'SERVER_PROTOCOL'
p3131
asbag49
(g70
g51
NtRp3132
(dp3133
g54
(dp3134
g81
g82
ssg63
g3123
sg56
(lp3135
S':'
asbag49
(g70
g51
NtRp3136
(dp3137
g54
(dp3138
sg63
g3123
sg56
(lp3139
g49
(g50
g51
NtRp3140
(dp3141
g54
(dp3142
g62
I3
ssg63
g3136
sg56
(lp3143
g1500
asbasbasbag49
(g65
g51
NtRp3144
(dp3145
g54
(dp3146
sg63
g2615
sg56
(lp3147
g49
(g70
g51
NtRp3148
(dp3149
g54
(dp3150
g74
g75
ssg63
g3144
sg56
(lp3151
S'SERVER_SOFTWARE'
p3152
asbag49
(g70
g51
NtRp3153
(dp3154
g54
(dp3155
g81
g82
ssg63
g3144
sg56
(lp3156
S':'
asbag49
(g70
g51
NtRp3157
(dp3158
g54
(dp3159
sg63
g3144
sg56
(lp3160
g49
(g50
g51
NtRp3161
(dp3162
g54
(dp3163
g62
I3
ssg63
g3157
sg56
(lp3164
g1522
asbasbasbag49
(g65
g51
NtRp3165
(dp3166
g54
(dp3167
sg63
g2615
sg56
(lp3168
g49
(g70
g51
NtRp3169
(dp3170
g54
(dp3171
g74
g75
ssg63
g3165
sg56
(lp3172
S'WEB2PY_ORIGINAL_URI'
p3173
asbag49
(g70
g51
NtRp3174
(dp3175
g54
(dp3176
g81
g82
ssg63
g3165
sg56
(lp3177
S':'
asbag49
(g70
g51
NtRp3178
(dp3179
g54
(dp3180
sg63
g3165
sg56
(lp3181
g49
(g50
g51
NtRp3182
(dp3183
g54
(dp3184
g62
I3
ssg63
g3178
sg56
(lp3185
g1305
asbasbasbag49
(g65
g51
NtRp3186
(dp3187
g54
(dp3188
sg63
g2615
sg56
(lp3189
g49
(g70
g51
NtRp3190
(dp3191
g54
(dp3192
g74
g75
ssg63
g3186
sg56
(lp3193
S'wsgi.errors'
p3194
asbag49
(g70
g51
NtRp3195
(dp3196
g54
(dp3197
g81
g82
ssg63
g3186
sg56
(lp3198
S':'
asbag49
(g70
g51
NtRp3199
(dp3200
g54
(dp3201
sg63
g3186
sg56
(lp3202
g49
(g50
g51
NtRp3203
(dp3204
g54
(dp3205
g62
I3
ssg63
g3199
sg56
(lp3206
S"<open file '<stderr>', mode 'w' at 0x4220b0>"
p3207
asbasbasbag49
(g65
g51
NtRp3208
(dp3209
g54
(dp3210
sg63
g2615
sg56
(lp3211
g49
(g70
g51
NtRp3212
(dp3213
g54
(dp3214
g74
g75
ssg63
g3208
sg56
(lp3215
S'wsgi.file_wrapper'
p3216
asbag49
(g70
g51
NtRp3217
(dp3218
g54
(dp3219
g81
g82
ssg63
g3208
sg56
(lp3220
S':'
asbag49
(g70
g51
NtRp3221
(dp3222
g54
(dp3223
sg63
g3208
sg56
(lp3224
g49
(g50
g51
NtRp3225
(dp3226
g54
(dp3227
g62
I3
ssg63
g3221
sg56
(lp3228
S'<class wsgiref.util.FileWrapper at 0x2b60450>'
p3229
asbasbasbag49
(g65
g51
NtRp3230
(dp3231
g54
(dp3232
sg63
g2615
sg56
(lp3233
g49
(g70
g51
NtRp3234
(dp3235
g54
(dp3236
g74
g75
ssg63
g3230
sg56
(lp3237
S'wsgi.input'
p3238
asbag49
(g70
g51
NtRp3239
(dp3240
g54
(dp3241
g81
g82
ssg63
g3230
sg56
(lp3242
S':'
asbag49
(g70
g51
NtRp3243
(dp3244
g54
(dp3245
sg63
g3230
sg56
(lp3246
g49
(g50
g51
NtRp3247
(dp3248
g54
(dp3249
g62
I3
ssg63
g3243
sg56
(lp3250
S"<open file '<fdopen>', mode 'w+b' at 0xa592338>"
p3251
asbasbasbag49
(g65
g51
NtRp3252
(dp3253
g54
(dp3254
sg63
g2615
sg56
(lp3255
g49
(g70
g51
NtRp3256
(dp3257
g54
(dp3258
g74
g75
ssg63
g3252
sg56
(lp3259
S'wsgi.multiprocess'
p3260
asbag49
(g70
g51
NtRp3261
(dp3262
g54
(dp3263
g81
g82
ssg63
g3252
sg56
(lp3264
S':'
asbag49
(g70
g51
NtRp3265
(dp3266
g54
(dp3267
sg63
g3252
sg56
(lp3268
g49
(g50
g51
NtRp3269
(dp3270
g54
(dp3271
g62
I3
ssg63
g3265
sg56
(lp3272
g935
asbasbasbag49
(g65
g51
NtRp3273
(dp3274
g54
(dp3275
sg63
g2615
sg56
(lp3276
g49
(g70
g51
NtRp3277
(dp3278
g54
(dp3279
g74
g75
ssg63
g3273
sg56
(lp3280
S'wsgi.multithread'
p3281
asbag49
(g70
g51
NtRp3282
(dp3283
g54
(dp3284
g81
g82
ssg63
g3273
sg56
(lp3285
S':'
asbag49
(g70
g51
NtRp3286
(dp3287
g54
(dp3288
sg63
g3273
sg56
(lp3289
g49
(g50
g51
NtRp3290
(dp3291
g54
(dp3292
g62
I3
ssg63
g3286
sg56
(lp3293
g92
asbasbasbag49
(g65
g51
NtRp3294
(dp3295
g54
(dp3296
sg63
g2615
sg56
(lp3297
g49
(g70
g51
NtRp3298
(dp3299
g54
(dp3300
g74
g75
ssg63
g3294
sg56
(lp3301
S'wsgi.run_once'
p3302
asbag49
(g70
g51
NtRp3303
(dp3304
g54
(dp3305
g81
g82
ssg63
g3294
sg56
(lp3306
S':'
asbag49
(g70
g51
NtRp3307
(dp3308
g54
(dp3309
sg63
g3294
sg56
(lp3310
g49
(g50
g51
NtRp3311
(dp3312
g54
(dp3313
g62
I3
ssg63
g3307
sg56
(lp3314
g935
asbasbasbag49
(g65
g51
NtRp3315
(dp3316
g54
(dp3317
sg63
g2615
sg56
(lp3318
g49
(g70
g51
NtRp3319
(dp3320
g54
(dp3321
g74
g75
ssg63
g3315
sg56
(lp3322
S'wsgi.url_scheme'
p3323
asbag49
(g70
g51
NtRp3324
(dp3325
g54
(dp3326
g81
g82
ssg63
g3315
sg56
(lp3327
S':'
asbag49
(g70
g51
NtRp3328
(dp3329
g54
(dp3330
sg63
g3315
sg56
(lp3331
g49
(g50
g51
NtRp3332
(dp3333
g54
(dp3334
g62
I3
ssg63
g3328
sg56
(lp3335
g1825
asbasbasbag49
(g65
g51
NtRp3336
(dp3337
g54
(dp3338
sg63
g2615
sg56
(lp3339
g49
(g70
g51
NtRp3340
(dp3341
g54
(dp3342
g74
g75
ssg63
g3336
sg56
(lp3343
S'wsgi.version'
p3344
asbag49
(g70
g51
NtRp3345
(dp3346
g54
(dp3347
g81
g82
ssg63
g3336
sg56
(lp3348
S':'
asbag49
(g70
g51
NtRp3349
(dp3350
g54
(dp3351
sg63
g3336
sg56
(lp3352
g49
(g50
g51
NtRp3353
(dp3354
g54
(dp3355
g62
I3
ssg63
g3349
sg56
(lp3356
S'1'
asbasbasbasbasbasbasbasbasbasbasbasbasbsS'frames'
p3357
(lp3358
(dp3359
S'file'
p3360
S'/users/udimilo/Documents/web2py/gluon/restricted.py'
p3361
sS'dump'
p3362
(dp3363
S'environment'
p3364
S"{'A': <class 'gluon.html.A'>, 'Auth': <class 'gluon.tools.Auth'>, 'B': <class 'gluon.html.B'>, 'BEAUTIFY': <class 'gluon.html.BEAUTIFY'>, 'BODY': <class 'gluon.html.BODY'>, 'BR': <class 'gluon.html.BR'>, 'BUTTON': <class 'gluon.html.BUTTON'>, 'CAT': <class 'gluon.html.CAT'>, 'CENTER': <class 'gluon.html.CENTER'>, 'CLEANUP': <class 'gluon.validators.CLEANUP'>, ...}"
p3365
sS'ccode'
p3366
S'<code object <module> at 0xa82b3c8, file "/Users...cations/udi0312/controllers/default.py", line 12>'
p3367
ssS'lnum'
p3368
I205
sS'lines'
p3369
(dp3370
I200
S'    try:'
p3371
sI201
S'        if type(code) == types.CodeType:'
p3372
sI202
S'            ccode = code'
p3373
sI203
S'        else:'
p3374
sI204
S'            ccode = compile2(code,layer)'
p3375
sI205
S'        exec ccode in environment'
p3376
sI206
S'    except HTTP:'
p3377
sI207
S'        raise'
p3378
sI208
S'    except RestrictedError:'
p3379
sI209
S'        # do not encapsulate (obfuscate) the original RestrictedError'
p3380
ssS'call'
p3381
S"(code='# -*- coding: utf-8 -*-\\n# this file is released ...rud())\\n\\nresponse._vars=response._caller(addPage)\\n', environment={'A': <class 'gluon.html.A'>, 'Auth': <class 'gluon.tools.Auth'>, 'B': <class 'gluon.html.B'>, 'BEAUTIFY': <class 'gluon.html.BEAUTIFY'>, 'BODY': <class 'gluon.html.BODY'>, 'BR': <class 'gluon.html.BR'>, 'BUTTON': <class 'gluon.html.BUTTON'>, 'CAT': <class 'gluon.html.CAT'>, 'CENTER': <class 'gluon.html.CENTER'>, 'CLEANUP': <class 'gluon.validators.CLEANUP'>, ...}, layer='/Users/udimilo/Documents/web2py/applications/udi0312/controllers/default.py')"
p3382
sS'func'
p3383
S'restricted'
p3384
sa(dp3385
g3360
S'/Users/udimilo/Documents/web2py/applications/udi0312/controllers/default.py'
p3386
sg3362
(dp3387
sg3368
I77
sg3369
(dp3388
I66
S'    http://..../[app]/default/data/update/[table]/[id]'
p3389
sI67
S'    http://..../[app]/default/data/delete/[table]/[id]'
p3390
sI68
S'    http://..../[app]/default/data/select/[table]'
p3391
sI69
S'    http://..../[app]/default/data/search/[table]'
p3392
sI70
S'    but URLs must be signed, i.e. linked with'
p3393
sI71
S"      A('table',_href=URL('data/tables',user_signature=True))"
p3394
sI72
S'    or with the signed load operator'
p3395
sI73
S"      LOAD('default','data.load',args='tables',ajax=True,user_signature=True)"
p3396
sI74
S'    """'
p3397
sI75
S'    return dict(form=crud())'
p3398
ssg3381
S'()'
p3399
sg3383
S'<module>'
p3400
sa(dp3401
g3360
S'/users/udimilo/Documents/web2py/gluon/globals.py'
p3402
sg3362
(dp3403
S'self'
p3404
S'undefined'
p3405
sS'f'
S'<function addPage at 0xa469bb0>'
p3406
ssg3368
I173
sg3369
(dp3407
I168
S'        self.menu = []             # used by the default view layout'
p3408
sI169
S'        self.files = []            # used by web2py_ajax.html'
p3409
sI170
S'        self.generic_patterns = [] # patterns to allow generic views'
p3410
sI171
S"        self.delimiters = ('{{','}}')"
p3411
sI172
S'        self._vars = None'
p3412
sI173
S'        self._caller = lambda f: f()'
p3413
sI174
S'        self._view_environment = None'
p3414
sI175
S'        self._custom_commit = None'
p3415
sI176
S'        self._custom_rollback = None'
p3416
sI177
S''
ssg3381
S'(f=<function addPage at 0xa469bb0>)'
p3417
sg3383
S'<lambda>'
p3418
sa(dp3419
g3360
S'/Users/udimilo/Documents/web2py/applications/udi0312/controllers/default.py'
p3420
sg3362
(dp3421
S'user_id'
p3422
g3405
sS'auth.user'
p3423
S'None'
p3424
sS').page'
p3425
S"<Table {'_db': <DAL {'auth_event': <Table {'orig...'imgURL': <gluon.dal.Field object at 0xa837bd0>}>"
p3426
sS'global auth'
p3427
S'<gluon.tools.Auth object at 0xa442e90>'
p3428
sS'height'
p3429
g3405
sS').page.insert'
p3430
S"<bound method Table.insert of <Table {'_db': <DA...imgURL': <gluon.dal.Field object at 0xa837bd0>}>>"
p3431
sS'url'
p3432
g3405
sS'global db'
p3433
S"<DAL {'auth_event': <Table {'origin': <gluon.dal...mgURL': <gluon.dal.Field object at 0xa837bd0>}>}>"
p3434
sS'request.vars'
p3435
S"<Storage {'url': 'aa', 'board': 'javascript'}>"
p3436
sS'global request'
p3437
S"<Storage {'body': <open file '<fdopen>', mode 'w... <Storage {'url': 'aa', 'board': 'javascript'}>}>"
p3438
sS'request.vars.url'
p3439
S"'aa'"
p3440
sS'page'
p3441
g3405
ssg3368
I19
sg3369
(dp3442
I14
S'    categories = db().select(db.category.ALL)'
p3443
sI15
S'    boards = db().select(db.board.ALL)'
p3444
sI16
S'    return dict(items=pages, categories=categories, boards=boards)'
p3445
sI17
S''
sI18
S'def addPage():'
p3446
sI19
S'    page = db().page.insert(user_id = auth.user, url = request.vars.url, height = 300)'
p3447
sI20
S'    ##board = db().select(db.board.name == request.vars.board)'
p3448
sI21
S'    ##pin = db().pin.insert(board_id = board.id, page_id = pageId)'
p3449
sI22
S"    return request.vars.url,'/',request.vars.board"
p3450
sI23
S"    ##,' /// ',page,'-',board,'-',pin"
p3451
ssg3381
S'()'
p3452
sg3383
S'addPage'
p3453
sasS'pyver'
p3454
S'Python 2.5.4: /Library/Frameworks/Python.framework/Versions/2.5/Resources/Python.app/Contents/MacOS/Python'
p3455
sS'session'
p3456
g49
(g50
g51
NtRp3457
(dp3458
g54
(dp3459
sg56
(lp3460
g49
(g58
g51
NtRp3461
(dp3462
g54
(dp3463
g62
I5
ssg63
Nsg56
(lp3464
g49
(g65
g51
NtRp3465
(dp3466
g54
(dp3467
sg63
g3461
sg56
(lp3468
g49
(g70
g51
NtRp3469
(dp3470
g54
(dp3471
g74
g75
ssg63
g3465
sg56
(lp3472
S'last_query'
p3473
asbag49
(g70
g51
NtRp3474
(dp3475
g54
(dp3476
g81
g82
ssg63
g3465
sg56
(lp3477
S':'
asbag49
(g70
g51
NtRp3478
(dp3479
g54
(dp3480
sg63
g3465
sg56
(lp3481
g49
(g50
g51
NtRp3482
(dp3483
g54
(dp3484
g62
I5
ssg63
g3478
sg56
(lp3485
S'db.board.id>0'
p3486
asbasbasbasbasbsS'etype'
p3487
S"<type 'exceptions.AttributeError'>"
p3488
sS'date'
p3489
S'Thu Mar  8 15:32:41 2012'
p3490
sS'response'
p3491
g49
(g50
g51
NtRp3492
(dp3493
g54
(dp3494
sg56
(lp3495
g49
(g58
g51
NtRp3496
(dp3497
g54
(dp3498
g62
I5
ssg63
Nsg56
(lp3499
g49
(g65
g51
NtRp3500
(dp3501
g54
(dp3502
sg63
g3496
sg56
(lp3503
g49
(g70
g51
NtRp3504
(dp3505
g54
(dp3506
g74
g75
ssg63
g3500
sg56
(lp3507
g147
asbag49
(g70
g51
NtRp3508
(dp3509
g54
(dp3510
g81
g82
ssg63
g3500
sg56
(lp3511
S':'
asbag49
(g70
g51
NtRp3512
(dp3513
g54
(dp3514
sg63
g3500
sg56
(lp3515
g49
(g50
g51
NtRp3516
(dp3517
g54
(dp3518
g62
I5
ssg63
g3512
sg56
(lp3519
S'<cStringIO.StringO object at 0x9d9e200>'
p3520
asbasbasbag49
(g65
g51
NtRp3521
(dp3522
g54
(dp3523
sg63
g3496
sg56
(lp3524
g49
(g70
g51
NtRp3525
(dp3526
g54
(dp3527
g74
g75
ssg63
g3521
sg56
(lp3528
g213
asbag49
(g70
g51
NtRp3529
(dp3530
g54
(dp3531
g81
g82
ssg63
g3521
sg56
(lp3532
S':'
asbag49
(g70
g51
NtRp3533
(dp3534
g54
(dp3535
sg63
g3521
sg56
(lp3536
g49
(g50
g51
NtRp3537
(dp3538
g54
(dp3539
g62
I5
ssg63
g3533
sg56
(lp3540
g49
(g58
g51
NtRp3541
(dp3542
g54
(dp3543
g62
I4
ssg63
Nsg56
(lp3544
g49
(g65
g51
NtRp3545
(dp3546
g54
(dp3547
sg63
g3541
sg56
(lp3548
g49
(g70
g51
NtRp3549
(dp3550
g54
(dp3551
g74
g75
ssg63
g3545
sg56
(lp3552
S'session_id_udi0312'
p3553
asbag49
(g70
g51
NtRp3554
(dp3555
g54
(dp3556
g81
g82
ssg63
g3545
sg56
(lp3557
S':'
asbag49
(g70
g51
NtRp3558
(dp3559
g54
(dp3560
sg63
g3545
sg56
(lp3561
g49
(g50
g51
NtRp3562
(dp3563
g54
(dp3564
g62
I4
ssg63
g3558
sg56
(lp3565
g49
(g58
g51
NtRp3566
(dp3567
g54
(dp3568
g62
I3
ssg63
Nsg56
(lp3569
g49
(g65
g51
NtRp3570
(dp3571
g54
(dp3572
sg63
g3566
sg56
(lp3573
g49
(g70
g51
NtRp3574
(dp3575
g54
(dp3576
g74
g75
ssg63
g3570
sg56
(lp3577
g263
asbag49
(g70
g51
NtRp3578
(dp3579
g54
(dp3580
g81
g82
ssg63
g3570
sg56
(lp3581
S':'
asbag49
(g70
g51
NtRp3582
(dp3583
g54
(dp3584
sg63
g3570
sg56
(lp3585
g49
(g50
g51
NtRp3586
(dp3587
g54
(dp3588
g62
I3
ssg63
g3582
sg56
(lp3589
S''
asbasbasbag49
(g65
g51
NtRp3590
(dp3591
g54
(dp3592
sg63
g3566
sg56
(lp3593
g49
(g70
g51
NtRp3594
(dp3595
g54
(dp3596
g74
g75
ssg63
g3590
sg56
(lp3597
g284
asbag49
(g70
g51
NtRp3598
(dp3599
g54
(dp3600
g81
g82
ssg63
g3590
sg56
(lp3601
S':'
asbag49
(g70
g51
NtRp3602
(dp3603
g54
(dp3604
sg63
g3590
sg56
(lp3605
g49
(g50
g51
NtRp3606
(dp3607
g54
(dp3608
g62
I3
ssg63
g3602
sg56
(lp3609
S''
asbasbasbag49
(g65
g51
NtRp3610
(dp3611
g54
(dp3612
sg63
g3566
sg56
(lp3613
g49
(g70
g51
NtRp3614
(dp3615
g54
(dp3616
g74
g75
ssg63
g3610
sg56
(lp3617
g305
asbag49
(g70
g51
NtRp3618
(dp3619
g54
(dp3620
g81
g82
ssg63
g3610
sg56
(lp3621
S':'
asbag49
(g70
g51
NtRp3622
(dp3623
g54
(dp3624
sg63
g3610
sg56
(lp3625
g49
(g50
g51
NtRp3626
(dp3627
g54
(dp3628
g62
I3
ssg63
g3622
sg56
(lp3629
S''
asbasbasbag49
(g65
g51
NtRp3630
(dp3631
g54
(dp3632
sg63
g3566
sg56
(lp3633
g49
(g70
g51
NtRp3634
(dp3635
g54
(dp3636
g74
g75
ssg63
g3630
sg56
(lp3637
g326
asbag49
(g70
g51
NtRp3638
(dp3639
g54
(dp3640
g81
g82
ssg63
g3630
sg56
(lp3641
S':'
asbag49
(g70
g51
NtRp3642
(dp3643
g54
(dp3644
sg63
g3630
sg56
(lp3645
g49
(g50
g51
NtRp3646
(dp3647
g54
(dp3648
g62
I3
ssg63
g3642
sg56
(lp3649
S''
asbasbasbag49
(g65
g51
NtRp3650
(dp3651
g54
(dp3652
sg63
g3566
sg56
(lp3653
g49
(g70
g51
NtRp3654
(dp3655
g54
(dp3656
g74
g75
ssg63
g3650
sg56
(lp3657
g347
asbag49
(g70
g51
NtRp3658
(dp3659
g54
(dp3660
g81
g82
ssg63
g3650
sg56
(lp3661
S':'
asbag49
(g70
g51
NtRp3662
(dp3663
g54
(dp3664
sg63
g3650
sg56
(lp3665
g49
(g50
g51
NtRp3666
(dp3667
g54
(dp3668
g62
I3
ssg63
g3662
sg56
(lp3669
S'/'
asbasbasbag49
(g65
g51
NtRp3670
(dp3671
g54
(dp3672
sg63
g3566
sg56
(lp3673
g49
(g70
g51
NtRp3674
(dp3675
g54
(dp3676
g74
g75
ssg63
g3670
sg56
(lp3677
g368
asbag49
(g70
g51
NtRp3678
(dp3679
g54
(dp3680
g81
g82
ssg63
g3670
sg56
(lp3681
S':'
asbag49
(g70
g51
NtRp3682
(dp3683
g54
(dp3684
sg63
g3670
sg56
(lp3685
g49
(g50
g51
NtRp3686
(dp3687
g54
(dp3688
g62
I3
ssg63
g3682
sg56
(lp3689
S''
asbasbasbag49
(g65
g51
NtRp3690
(dp3691
g54
(dp3692
sg63
g3566
sg56
(lp3693
g49
(g70
g51
NtRp3694
(dp3695
g54
(dp3696
g74
g75
ssg63
g3690
sg56
(lp3697
g389
asbag49
(g70
g51
NtRp3698
(dp3699
g54
(dp3700
g81
g82
ssg63
g3690
sg56
(lp3701
S':'
asbag49
(g70
g51
NtRp3702
(dp3703
g54
(dp3704
sg63
g3690
sg56
(lp3705
g49
(g50
g51
NtRp3706
(dp3707
g54
(dp3708
g62
I3
ssg63
g3702
sg56
(lp3709
S''
asbasbasbasbasbasbasbasbasbasbasbag49
(g65
g51
NtRp3710
(dp3711
g54
(dp3712
sg63
g3496
sg56
(lp3713
g49
(g70
g51
NtRp3714
(dp3715
g54
(dp3716
g74
g75
ssg63
g3710
sg56
(lp3717
S'delimiters'
p3718
asbag49
(g70
g51
NtRp3719
(dp3720
g54
(dp3721
g81
g82
ssg63
g3710
sg56
(lp3722
S':'
asbag49
(g70
g51
NtRp3723
(dp3724
g54
(dp3725
sg63
g3710
sg56
(lp3726
g49
(g50
g51
NtRp3727
(dp3728
g54
(dp3729
g62
I5
ssg63
g3723
sg56
(lp3730
g49
(g58
g51
NtRp3731
(dp3732
g54
(dp3733
g62
I4
ssg63
Nsg56
(lp3734
g49
(g65
g51
NtRp3735
(dp3736
g54
(dp3737
sg63
g3731
sg56
(lp3738
g49
(g70
g51
NtRp3739
(dp3740
g54
(dp3741
sg63
g3735
sg56
(lp3742
g49
(g50
g51
NtRp3743
(dp3744
g54
(dp3745
g62
I4
ssg63
g3739
sg56
(lp3746
S'{{'
p3747
asbasbasbag49
(g65
g51
NtRp3748
(dp3749
g54
(dp3750
sg63
g3731
sg56
(lp3751
g49
(g70
g51
NtRp3752
(dp3753
g54
(dp3754
sg63
g3748
sg56
(lp3755
g49
(g50
g51
NtRp3756
(dp3757
g54
(dp3758
g62
I4
ssg63
g3752
sg56
(lp3759
S'}}'
p3760
asbasbasbasbasbasbasbag49
(g65
g51
NtRp3761
(dp3762
g54
(dp3763
sg63
g3496
sg56
(lp3764
g49
(g70
g51
NtRp3765
(dp3766
g54
(dp3767
g74
g75
ssg63
g3761
sg56
(lp3768
S'files'
p3769
asbag49
(g70
g51
NtRp3770
(dp3771
g54
(dp3772
g81
g82
ssg63
g3761
sg56
(lp3773
S':'
asbag49
(g70
g51
NtRp3774
(dp3775
g54
(dp3776
sg63
g3761
sg56
(lp3777
g49
(g50
g51
NtRp3778
(dp3779
g54
(dp3780
g62
I5
ssg63
g3774
sg56
(lp3781
g49
(g58
g51
NtRp3782
(dp3783
g54
(dp3784
g62
I4
ssg63
Nsg56
(lp3785
sbasbasbasbag49
(g65
g51
NtRp3786
(dp3787
g54
(dp3788
sg63
g3496
sg56
(lp3789
g49
(g70
g51
NtRp3790
(dp3791
g54
(dp3792
g74
g75
ssg63
g3786
sg56
(lp3793
S'flash'
p3794
asbag49
(g70
g51
NtRp3795
(dp3796
g54
(dp3797
g81
g82
ssg63
g3786
sg56
(lp3798
S':'
asbag49
(g70
g51
NtRp3799
(dp3800
g54
(dp3801
sg63
g3786
sg56
(lp3802
g49
(g50
g51
NtRp3803
(dp3804
g54
(dp3805
g62
I5
ssg63
g3799
sg56
(lp3806
S''
asbasbasbag49
(g65
g51
NtRp3807
(dp3808
g54
(dp3809
sg63
g3496
sg56
(lp3810
g49
(g70
g51
NtRp3811
(dp3812
g54
(dp3813
g74
g75
ssg63
g3807
sg56
(lp3814
S'generic_patterns'
p3815
asbag49
(g70
g51
NtRp3816
(dp3817
g54
(dp3818
g81
g82
ssg63
g3807
sg56
(lp3819
S':'
asbag49
(g70
g51
NtRp3820
(dp3821
g54
(dp3822
sg63
g3807
sg56
(lp3823
g49
(g50
g51
NtRp3824
(dp3825
g54
(dp3826
g62
I5
ssg63
g3820
sg56
(lp3827
g49
(g58
g51
NtRp3828
(dp3829
g54
(dp3830
g62
I4
ssg63
Nsg56
(lp3831
g49
(g65
g51
NtRp3832
(dp3833
g54
(dp3834
sg63
g3828
sg56
(lp3835
g49
(g70
g51
NtRp3836
(dp3837
g54
(dp3838
sg63
g3832
sg56
(lp3839
g49
(g50
g51
NtRp3840
(dp3841
g54
(dp3842
g62
I4
ssg63
g3836
sg56
(lp3843
S'*'
asbasbasbasbasbasbasbag49
(g65
g51
NtRp3844
(dp3845
g54
(dp3846
sg63
g3496
sg56
(lp3847
g49
(g70
g51
NtRp3848
(dp3849
g54
(dp3850
g74
g75
ssg63
g3844
sg56
(lp3851
S'headers'
p3852
asbag49
(g70
g51
NtRp3853
(dp3854
g54
(dp3855
g81
g82
ssg63
g3844
sg56
(lp3856
S':'
asbag49
(g70
g51
NtRp3857
(dp3858
g54
(dp3859
sg63
g3844
sg56
(lp3860
g49
(g50
g51
NtRp3861
(dp3862
g54
(dp3863
g62
I5
ssg63
g3857
sg56
(lp3864
g49
(g58
g51
NtRp3865
(dp3866
g54
(dp3867
g62
I4
ssg63
Nsg56
(lp3868
g49
(g65
g51
NtRp3869
(dp3870
g54
(dp3871
sg63
g3865
sg56
(lp3872
g49
(g70
g51
NtRp3873
(dp3874
g54
(dp3875
g74
g75
ssg63
g3869
sg56
(lp3876
S'Cache-Control'
p3877
asbag49
(g70
g51
NtRp3878
(dp3879
g54
(dp3880
g81
g82
ssg63
g3869
sg56
(lp3881
S':'
asbag49
(g70
g51
NtRp3882
(dp3883
g54
(dp3884
sg63
g3869
sg56
(lp3885
g49
(g50
g51
NtRp3886
(dp3887
g54
(dp3888
g62
I4
ssg63
g3882
sg56
(lp3889
S'no-store, no-cache, must-revalidate, post-check=0, pre-check=0'
p3890
asbasbasbag49
(g65
g51
NtRp3891
(dp3892
g54
(dp3893
sg63
g3865
sg56
(lp3894
g49
(g70
g51
NtRp3895
(dp3896
g54
(dp3897
g74
g75
ssg63
g3891
sg56
(lp3898
S'Content-Type'
p3899
asbag49
(g70
g51
NtRp3900
(dp3901
g54
(dp3902
g81
g82
ssg63
g3891
sg56
(lp3903
S':'
asbag49
(g70
g51
NtRp3904
(dp3905
g54
(dp3906
sg63
g3891
sg56
(lp3907
g49
(g50
g51
NtRp3908
(dp3909
g54
(dp3910
g62
I4
ssg63
g3904
sg56
(lp3911
S'text/html; charset=utf-8'
p3912
asbasbasbag49
(g65
g51
NtRp3913
(dp3914
g54
(dp3915
sg63
g3865
sg56
(lp3916
g49
(g70
g51
NtRp3917
(dp3918
g54
(dp3919
g74
g75
ssg63
g3913
sg56
(lp3920
S'Expires'
p3921
asbag49
(g70
g51
NtRp3922
(dp3923
g54
(dp3924
g81
g82
ssg63
g3913
sg56
(lp3925
S':'
asbag49
(g70
g51
NtRp3926
(dp3927
g54
(dp3928
sg63
g3913
sg56
(lp3929
g49
(g50
g51
NtRp3930
(dp3931
g54
(dp3932
g62
I4
ssg63
g3926
sg56
(lp3933
S'Thu, 08 Mar 2012 20:32:41 GMT'
p3934
asbasbasbag49
(g65
g51
NtRp3935
(dp3936
g54
(dp3937
sg63
g3865
sg56
(lp3938
g49
(g70
g51
NtRp3939
(dp3940
g54
(dp3941
g74
g75
ssg63
g3935
sg56
(lp3942
S'Pragma'
p3943
asbag49
(g70
g51
NtRp3944
(dp3945
g54
(dp3946
g81
g82
ssg63
g3935
sg56
(lp3947
S':'
asbag49
(g70
g51
NtRp3948
(dp3949
g54
(dp3950
sg63
g3935
sg56
(lp3951
g49
(g50
g51
NtRp3952
(dp3953
g54
(dp3954
g62
I4
ssg63
g3948
sg56
(lp3955
S'no-cache'
p3956
asbasbasbag49
(g65
g51
NtRp3957
(dp3958
g54
(dp3959
sg63
g3865
sg56
(lp3960
g49
(g70
g51
NtRp3961
(dp3962
g54
(dp3963
g74
g75
ssg63
g3957
sg56
(lp3964
S'X-Powered-By'
p3965
asbag49
(g70
g51
NtRp3966
(dp3967
g54
(dp3968
g81
g82
ssg63
g3957
sg56
(lp3969
S':'
asbag49
(g70
g51
NtRp3970
(dp3971
g54
(dp3972
sg63
g3957
sg56
(lp3973
g49
(g50
g51
NtRp3974
(dp3975
g54
(dp3976
g62
I4
ssg63
g3970
sg56
(lp3977
S'web2py'
p3978
asbasbasbasbasbasbasbag49
(g65
g51
NtRp3979
(dp3980
g54
(dp3981
sg63
g3496
sg56
(lp3982
g49
(g70
g51
NtRp3983
(dp3984
g54
(dp3985
g74
g75
ssg63
g3979
sg56
(lp3986
S'menu'
p3987
asbag49
(g70
g51
NtRp3988
(dp3989
g54
(dp3990
g81
g82
ssg63
g3979
sg56
(lp3991
S':'
asbag49
(g70
g51
NtRp3992
(dp3993
g54
(dp3994
sg63
g3979
sg56
(lp3995
g49
(g50
g51
NtRp3996
(dp3997
g54
(dp3998
g62
I5
ssg63
g3992
sg56
(lp3999
g49
(g58
g51
NtRp4000
(dp4001
g54
(dp4002
g62
I4
ssg63
Nsg56
(lp4003
g49
(g65
g51
NtRp4004
(dp4005
g54
(dp4006
sg63
g4000
sg56
(lp4007
g49
(g70
g51
NtRp4008
(dp4009
g54
(dp4010
sg63
g4004
sg56
(lp4011
g49
(g50
g51
NtRp4012
(dp4013
g54
(dp4014
g62
I4
ssg63
g4008
sg56
(lp4015
g49
(g58
g51
NtRp4016
(dp4017
g54
(dp4018
g62
I3
ssg63
Nsg56
(lp4019
g49
(g65
g51
NtRp4020
(dp4021
g54
(dp4022
sg63
g4016
sg56
(lp4023
g49
(g70
g51
NtRp4024
(dp4025
g54
(dp4026
sg63
g4020
sg56
(lp4027
g49
(g50
g51
NtRp4028
(dp4029
g54
(dp4030
g62
I3
ssg63
g4024
sg56
(lp4031
cgluon.languages
lazyT_unpickle
p4032
(S's\x04\x00\x00\x00Home'
tRp4033
asbasbasbag49
(g65
g51
NtRp4034
(dp4035
g54
(dp4036
sg63
g4016
sg56
(lp4037
g49
(g70
g51
NtRp4038
(dp4039
g54
(dp4040
sg63
g4034
sg56
(lp4041
g49
(g50
g51
NtRp4042
(dp4043
g54
(dp4044
g62
I3
ssg63
g4038
sg56
(lp4045
g935
asbasbasbag49
(g65
g51
NtRp4046
(dp4047
g54
(dp4048
sg63
g4016
sg56
(lp4049
g49
(g70
g51
NtRp4050
(dp4051
g54
(dp4052
sg63
g4046
sg56
(lp4053
g49
(g50
g51
NtRp4054
(dp4055
g54
(dp4056
g62
I3
ssg63
g4050
sg56
(lp4057
S'/'
asbasbasbag49
(g65
g51
NtRp4058
(dp4059
g54
(dp4060
sg63
g4016
sg56
(lp4061
g49
(g70
g51
NtRp4062
(dp4063
g54
(dp4064
sg63
g4058
sg56
(lp4065
g49
(g50
g51
NtRp4066
(dp4067
g54
(dp4068
g62
I3
ssg63
g4062
sg56
(lp4069
g49
(g58
g51
NtRp4070
(dp4071
g54
(dp4072
g62
I2
ssg63
Nsg56
(lp4073
sbasbasbasbasbasbasbasbag49
(g65
g51
NtRp4074
(dp4075
g54
(dp4076
sg63
g4000
sg56
(lp4077
g49
(g70
g51
NtRp4078
(dp4079
g54
(dp4080
sg63
g4074
sg56
(lp4081
g49
(g50
g51
NtRp4082
(dp4083
g54
(dp4084
g62
I4
ssg63
g4078
sg56
(lp4085
g49
(g58
g51
NtRp4086
(dp4087
g54
(dp4088
g62
I3
ssg63
Nsg56
(lp4089
g49
(g65
g51
NtRp4090
(dp4091
g54
(dp4092
sg63
g4086
sg56
(lp4093
g49
(g70
g51
NtRp4094
(dp4095
g54
(dp4096
sg63
g4090
sg56
(lp4097
g49
(g50
g51
NtRp4098
(dp4099
g54
(dp4100
g62
I3
ssg63
g4094
sg56
(lp4101
g49
(cgluon.html
SPAN
p4102
g51
NtRp4103
(dp4104
g54
(dp4105
g74
S'color:yellow'
p4106
ssg63
Nsg56
(lp4107
g3978
asbasbasbasbag49
(g65
g51
NtRp4108
(dp4109
g54
(dp4110
sg63
g4086
sg56
(lp4111
g49
(g70
g51
NtRp4112
(dp4113
g54
(dp4114
sg63
g4108
sg56
(lp4115
g49
(g50
g51
NtRp4116
(dp4117
g54
(dp4118
g62
I3
ssg63
g4112
sg56
(lp4119
g935
asbasbasbag49
(g65
g51
NtRp4120
(dp4121
g54
(dp4122
sg63
g4086
sg56
(lp4123
g49
(g70
g51
NtRp4124
(dp4125
g54
(dp4126
sg63
g4120
sg56
(lp4127
g49
(g50
g51
NtRp4128
(dp4129
g54
(dp4130
g62
I3
ssg63
g4124
sg56
(lp4131
S'None'
p4132
asbasbasbag49
(g65
g51
NtRp4133
(dp4134
g54
(dp4135
sg63
g4086
sg56
(lp4136
g49
(g70
g51
NtRp4137
(dp4138
g54
(dp4139
sg63
g4133
sg56
(lp4140
g49
(g50
g51
NtRp4141
(dp4142
g54
(dp4143
g62
I3
ssg63
g4137
sg56
(lp4144
g49
(g58
g51
NtRp4145
(dp4146
g54
(dp4147
g62
I2
ssg63
Nsg56
(lp4148
g49
(g65
g51
NtRp4149
(dp4150
g54
(dp4151
sg63
g4145
sg56
(lp4152
g49
(g70
g51
NtRp4153
(dp4154
g54
(dp4155
sg63
g4149
sg56
(lp4156
g49
(g50
g51
NtRp4157
(dp4158
g54
(dp4159
g62
I2
ssg63
g4153
sg56
(lp4160
g49
(g58
g51
NtRp4161
(dp4162
g54
(dp4163
g62
I1
ssg63
Nsg56
(lp4164
g49
(g65
g51
NtRp4165
(dp4166
g54
(dp4167
sg63
g4161
sg56
(lp4168
g49
(g70
g51
NtRp4169
(dp4170
g54
(dp4171
sg63
g4165
sg56
(lp4172
g49
(g50
g51
NtRp4173
(dp4174
g54
(dp4175
g62
I1
ssg63
g4169
sg56
(lp4176
g4032
(S's\x08\x00\x00\x00My Sites'
tRp4177
asbasbasbag49
(g65
g51
NtRp4178
(dp4179
g54
(dp4180
sg63
g4161
sg56
(lp4181
g49
(g70
g51
NtRp4182
(dp4183
g54
(dp4184
sg63
g4178
sg56
(lp4185
g49
(g50
g51
NtRp4186
(dp4187
g54
(dp4188
g62
I1
ssg63
g4182
sg56
(lp4189
I00
asbasbasbag49
(g65
g51
NtRp4190
(dp4191
g54
(dp4192
sg63
g4161
sg56
(lp4193
g49
(g70
g51
NtRp4194
(dp4195
g54
(dp4196
sg63
g4190
sg56
(lp4197
g49
(g50
g51
NtRp4198
(dp4199
g54
(dp4200
g62
I1
ssg63
g4194
sg56
(lp4201
S'/admin/site'
p4202
asbasbasbasbasbasbasbag49
(g65
g51
NtRp4203
(dp4204
g54
(dp4205
sg63
g4145
sg56
(lp4206
g49
(g70
g51
NtRp4207
(dp4208
g54
(dp4209
sg63
g4203
sg56
(lp4210
g49
(g50
g51
NtRp4211
(dp4212
g54
(dp4213
g62
I2
ssg63
g4207
sg56
(lp4214
g49
(g58
g51
NtRp4215
(dp4216
g54
(dp4217
g62
I1
ssg63
Nsg56
(lp4218
g49
(g65
g51
NtRp4219
(dp4220
g54
(dp4221
sg63
g4215
sg56
(lp4222
g49
(g70
g51
NtRp4223
(dp4224
g54
(dp4225
sg63
g4219
sg56
(lp4226
g49
(g50
g51
NtRp4227
(dp4228
g54
(dp4229
g62
I1
ssg63
g4223
sg56
(lp4230
g4032
(S's\x08\x00\x00\x00This App'
tRp4231
asbasbasbag49
(g65
g51
NtRp4232
(dp4233
g54
(dp4234
sg63
g4215
sg56
(lp4235
g49
(g70
g51
NtRp4236
(dp4237
g54
(dp4238
sg63
g4232
sg56
(lp4239
g49
(g50
g51
NtRp4240
(dp4241
g54
(dp4242
g62
I1
ssg63
g4236
sg56
(lp4243
I00
asbasbasbag49
(g65
g51
NtRp4244
(dp4245
g54
(dp4246
sg63
g4215
sg56
(lp4247
g49
(g70
g51
NtRp4248
(dp4249
g54
(dp4250
sg63
g4244
sg56
(lp4251
g49
(g50
g51
NtRp4252
(dp4253
g54
(dp4254
g62
I1
ssg63
g4248
sg56
(lp4255
S'/admin/design/udi0312'
p4256
asbasbasbag49
(g65
g51
NtRp4257
(dp4258
g54
(dp4259
sg63
g4215
sg56
(lp4260
g49
(g70
g51
NtRp4261
(dp4262
g54
(dp4263
sg63
g4257
sg56
(lp4264
g49
(g50
g51
NtRp4265
(dp4266
g54
(dp4267
g62
I1
ssg63
g4261
sg56
(lp4268
(lp4269
(g4032
(S's\n\x00\x00\x00Controller'
tRp4270
I00
S'/admin/edit/udi0312/controllers/default.py'
tp4271
a(g4032
(S's\x04\x00\x00\x00View'
tRp4272
I00
S'/admin/edit/udi0312/views/default/addPage.html'
tp4273
a(g4032
(S's\x06\x00\x00\x00Layout'
tRp4274
I00
S'/admin/edit/udi0312/views/layout.html'
tp4275
a(g4032
(S's\n\x00\x00\x00Stylesheet'
tRp4276
I00
S'/admin/edit/udi0312/static/css/web2py.css'
tp4277
a(g4032
(S's\x08\x00\x00\x00DB Model'
tRp4278
I00
S'/admin/edit/udi0312/models/db.py'
tp4279
a(g4032
(S's\n\x00\x00\x00Menu Model'
tRp4280
I00
S'/admin/edit/udi0312/models/menu.py'
tp4281
a(g4032
(S's\x08\x00\x00\x00Database'
tRp4282
I00
S'/appadmin'
tp4283
a(g4032
(S's\x06\x00\x00\x00Errors'
tRp4284
I00
S'/admin/errors/udi0312'
tp4285
a(g4032
(S's\x05\x00\x00\x00About'
tRp4286
I00
S'/admin/about/udi0312'
tp4287
aasbasbasbasbasbasbasbag49
(g65
g51
NtRp4288
(dp4289
g54
(dp4290
sg63
g4145
sg56
(lp4291
g49
(g70
g51
NtRp4292
(dp4293
g54
(dp4294
sg63
g4288
sg56
(lp4295
g49
(g50
g51
NtRp4296
(dp4297
g54
(dp4298
g62
I2
ssg63
g4292
sg56
(lp4299
g49
(g58
g51
NtRp4300
(dp4301
g54
(dp4302
g62
I1
ssg63
Nsg56
(lp4303
g49
(g65
g51
NtRp4304
(dp4305
g54
(dp4306
sg63
g4300
sg56
(lp4307
g49
(g70
g51
NtRp4308
(dp4309
g54
(dp4310
sg63
g4304
sg56
(lp4311
g49
(g50
g51
NtRp4312
(dp4313
g54
(dp4314
g62
I1
ssg63
g4308
sg56
(lp4315
S'web2py.com'
p4316
asbasbasbag49
(g65
g51
NtRp4317
(dp4318
g54
(dp4319
sg63
g4300
sg56
(lp4320
g49
(g70
g51
NtRp4321
(dp4322
g54
(dp4323
sg63
g4317
sg56
(lp4324
g49
(g50
g51
NtRp4325
(dp4326
g54
(dp4327
g62
I1
ssg63
g4321
sg56
(lp4328
I00
asbasbasbag49
(g65
g51
NtRp4329
(dp4330
g54
(dp4331
sg63
g4300
sg56
(lp4332
g49
(g70
g51
NtRp4333
(dp4334
g54
(dp4335
sg63
g4329
sg56
(lp4336
g49
(g50
g51
NtRp4337
(dp4338
g54
(dp4339
g62
I1
ssg63
g4333
sg56
(lp4340
S'http://www.web2py.com'
p4341
asbasbasbag49
(g65
g51
NtRp4342
(dp4343
g54
(dp4344
sg63
g4300
sg56
(lp4345
g49
(g70
g51
NtRp4346
(dp4347
g54
(dp4348
sg63
g4342
sg56
(lp4349
g49
(g50
g51
NtRp4350
(dp4351
g54
(dp4352
g62
I1
ssg63
g4346
sg56
(lp4353
(lp4354
(g4032
(S's\x08\x00\x00\x00Download'
tRp4355
I00
S'http://www.web2py.com/examples/default/download'
p4356
tp4357
a(g4032
(S's\x07\x00\x00\x00Support'
tRp4358
I00
S'http://www.web2py.com/examples/default/support'
p4359
tp4360
a(g4032
(S's\x04\x00\x00\x00Demo'
tRp4361
I00
S'http://web2py.com/demo_admin'
p4362
tp4363
a(g4032
(S's\x0e\x00\x00\x00Quick Examples'
tRp4364
I00
S'http://web2py.com/examples/default/examples'
p4365
tp4366
a(g4032
(S's\x03\x00\x00\x00FAQ'
tRp4367
I00
S'http://web2py.com/AlterEgo'
p4368
tp4369
a(g4032
(S's\x06\x00\x00\x00Videos'
tRp4370
I00
S'http://www.web2py.com/examples/default/videos/'
p4371
tp4372
a(g4032
(S's\x11\x00\x00\x00Free Applications'
tRp4373
I00
S'http://web2py.com/appliances'
p4374
tp4375
a(g4032
(S's\x07\x00\x00\x00Plugins'
tRp4376
I00
S'http://web2py.com/plugins'
p4377
tp4378
a(g4032
(S's\x07\x00\x00\x00Layouts'
tRp4379
I00
S'http://web2py.com/layouts'
p4380
tp4381
a(g4032
(S's\x07\x00\x00\x00Recipes'
tRp4382
I00
S'http://web2pyslices.com/'
p4383
tp4384
a(g4032
(S's\x08\x00\x00\x00Semantic'
tRp4385
I00
S'http://web2py.com/semantic'
p4386
tp4387
aasbasbasbasbasbasbasbag49
(g65
g51
NtRp4388
(dp4389
g54
(dp4390
sg63
g4145
sg56
(lp4391
g49
(g70
g51
NtRp4392
(dp4393
g54
(dp4394
sg63
g4388
sg56
(lp4395
g49
(g50
g51
NtRp4396
(dp4397
g54
(dp4398
g62
I2
ssg63
g4392
sg56
(lp4399
g49
(g58
g51
NtRp4400
(dp4401
g54
(dp4402
g62
I1
ssg63
Nsg56
(lp4403
g49
(g65
g51
NtRp4404
(dp4405
g54
(dp4406
sg63
g4400
sg56
(lp4407
g49
(g70
g51
NtRp4408
(dp4409
g54
(dp4410
sg63
g4404
sg56
(lp4411
g49
(g50
g51
NtRp4412
(dp4413
g54
(dp4414
g62
I1
ssg63
g4408
sg56
(lp4415
g4032
(S's\r\x00\x00\x00Documentation'
tRp4416
asbasbasbag49
(g65
g51
NtRp4417
(dp4418
g54
(dp4419
sg63
g4400
sg56
(lp4420
g49
(g70
g51
NtRp4421
(dp4422
g54
(dp4423
sg63
g4417
sg56
(lp4424
g49
(g50
g51
NtRp4425
(dp4426
g54
(dp4427
g62
I1
ssg63
g4421
sg56
(lp4428
I00
asbasbasbag49
(g65
g51
NtRp4429
(dp4430
g54
(dp4431
sg63
g4400
sg56
(lp4432
g49
(g70
g51
NtRp4433
(dp4434
g54
(dp4435
sg63
g4429
sg56
(lp4436
g49
(g50
g51
NtRp4437
(dp4438
g54
(dp4439
g62
I1
ssg63
g4433
sg56
(lp4440
S'http://www.web2py.com/book'
p4441
asbasbasbag49
(g65
g51
NtRp4442
(dp4443
g54
(dp4444
sg63
g4400
sg56
(lp4445
g49
(g70
g51
NtRp4446
(dp4447
g54
(dp4448
sg63
g4442
sg56
(lp4449
g49
(g50
g51
NtRp4450
(dp4451
g54
(dp4452
g62
I1
ssg63
g4446
sg56
(lp4453
(lp4454
(g4032
(S's\x07\x00\x00\x00Preface'
tRp4455
I00
S'http://www.web2py.com/book/default/chapter/00'
p4456
tp4457
a(g4032
(S's\x0c\x00\x00\x00Introduction'
tRp4458
I00
S'http://www.web2py.com/book/default/chapter/01'
p4459
tp4460
a(g4032
(S's\x06\x00\x00\x00Python'
tRp4461
I00
S'http://www.web2py.com/book/default/chapter/02'
p4462
tp4463
a(g4032
(S's\x08\x00\x00\x00Overview'
tRp4464
I00
S'http://www.web2py.com/book/default/chapter/03'
p4465
tp4466
a(g4032
(S's\x08\x00\x00\x00The Core'
tRp4467
I00
S'http://www.web2py.com/book/default/chapter/04'
p4468
tp4469
a(g4032
(S's\t\x00\x00\x00The Views'
tRp4470
I00
S'http://www.web2py.com/book/default/chapter/05'
p4471
tp4472
a(g4032
(S's\x08\x00\x00\x00Database'
tRp4473
I00
S'http://www.web2py.com/book/default/chapter/06'
p4474
tp4475
a(g4032
(S's\x14\x00\x00\x00Forms and Validators'
tRp4476
I00
S'http://www.web2py.com/book/default/chapter/07'
p4477
tp4478
a(g4032
(S's\r\x00\x00\x00Email and SMS'
tRp4479
I00
S'http://www.web2py.com/book/default/chapter/08'
p4480
tp4481
a(g4032
(S's\x0e\x00\x00\x00Access Control'
tRp4482
I00
S'http://www.web2py.com/book/default/chapter/09'
p4483
tp4484
a(g4032
(S's\x08\x00\x00\x00Services'
tRp4485
I00
S'http://www.web2py.com/book/default/chapter/10'
p4486
tp4487
a(g4032
(S's\x0c\x00\x00\x00Ajax Recipes'
tRp4488
I00
S'http://www.web2py.com/book/default/chapter/11'
p4489
tp4490
a(g4032
(S's\x16\x00\x00\x00Components and Plugins'
tRp4491
I00
S'http://www.web2py.com/book/default/chapter/12'
p4492
tp4493
a(g4032
(S's\x12\x00\x00\x00Deployment Recipes'
tRp4494
I00
S'http://www.web2py.com/book/default/chapter/13'
p4495
tp4496
a(g4032
(S's\r\x00\x00\x00Other Recipes'
tRp4497
I00
S'http://www.web2py.com/book/default/chapter/14'
p4498
tp4499
a(g4032
(S's\r\x00\x00\x00Buy this book'
tRp4500
I00
S'http://stores.lulu.com/web2py'
p4501
tp4502
aasbasbasbasbasbasbasbag49
(g65
g51
NtRp4503
(dp4504
g54
(dp4505
sg63
g4145
sg56
(lp4506
g49
(g70
g51
NtRp4507
(dp4508
g54
(dp4509
sg63
g4503
sg56
(lp4510
g49
(g50
g51
NtRp4511
(dp4512
g54
(dp4513
g62
I2
ssg63
g4507
sg56
(lp4514
g49
(g58
g51
NtRp4515
(dp4516
g54
(dp4517
g62
I1
ssg63
Nsg56
(lp4518
g49
(g65
g51
NtRp4519
(dp4520
g54
(dp4521
sg63
g4515
sg56
(lp4522
g49
(g70
g51
NtRp4523
(dp4524
g54
(dp4525
sg63
g4519
sg56
(lp4526
g49
(g50
g51
NtRp4527
(dp4528
g54
(dp4529
g62
I1
ssg63
g4523
sg56
(lp4530
g4032
(S's\t\x00\x00\x00Community'
tRp4531
asbasbasbag49
(g65
g51
NtRp4532
(dp4533
g54
(dp4534
sg63
g4515
sg56
(lp4535
g49
(g70
g51
NtRp4536
(dp4537
g54
(dp4538
sg63
g4532
sg56
(lp4539
g49
(g50
g51
NtRp4540
(dp4541
g54
(dp4542
g62
I1
ssg63
g4536
sg56
(lp4543
I00
asbasbasbag49
(g65
g51
NtRp4544
(dp4545
g54
(dp4546
sg63
g4515
sg56
(lp4547
g49
(g70
g51
NtRp4548
(dp4549
g54
(dp4550
sg63
g4544
sg56
(lp4551
g49
(g50
g51
NtRp4552
(dp4553
g54
(dp4554
g62
I1
ssg63
g4548
sg56
(lp4555
Nasbasbasbag49
(g65
g51
NtRp4556
(dp4557
g54
(dp4558
sg63
g4515
sg56
(lp4559
g49
(g70
g51
NtRp4560
(dp4561
g54
(dp4562
sg63
g4556
sg56
(lp4563
g49
(g50
g51
NtRp4564
(dp4565
g54
(dp4566
g62
I1
ssg63
g4560
sg56
(lp4567
(lp4568
(g4032
(S's\x06\x00\x00\x00Groups'
tRp4569
I00
S'http://www.web2py.com/examples/default/usergroups'
p4570
tp4571
a(g4032
(S's\x07\x00\x00\x00Twitter'
tRp4572
I00
S'http://twitter.com/web2py'
p4573
tp4574
a(g4032
(S's\t\x00\x00\x00Live Chat'
tRp4575
I00
S'http://webchat.freenode.net/?channels=web2py'
p4576
tp4577
aasbasbasbasbasbasbasbag49
(g65
g51
NtRp4578
(dp4579
g54
(dp4580
sg63
g4145
sg56
(lp4581
g49
(g70
g51
NtRp4582
(dp4583
g54
(dp4584
sg63
g4578
sg56
(lp4585
g49
(g50
g51
NtRp4586
(dp4587
g54
(dp4588
g62
I2
ssg63
g4582
sg56
(lp4589
g49
(g58
g51
NtRp4590
(dp4591
g54
(dp4592
g62
I1
ssg63
Nsg56
(lp4593
g49
(g65
g51
NtRp4594
(dp4595
g54
(dp4596
sg63
g4590
sg56
(lp4597
g49
(g70
g51
NtRp4598
(dp4599
g54
(dp4600
sg63
g4594
sg56
(lp4601
g49
(g50
g51
NtRp4602
(dp4603
g54
(dp4604
g62
I1
ssg63
g4598
sg56
(lp4605
g4032
(S's\x07\x00\x00\x00Plugins'
tRp4606
asbasbasbag49
(g65
g51
NtRp4607
(dp4608
g54
(dp4609
sg63
g4590
sg56
(lp4610
g49
(g70
g51
NtRp4611
(dp4612
g54
(dp4613
sg63
g4607
sg56
(lp4614
g49
(g50
g51
NtRp4615
(dp4616
g54
(dp4617
g62
I1
ssg63
g4611
sg56
(lp4618
I00
asbasbasbag49
(g65
g51
NtRp4619
(dp4620
g54
(dp4621
sg63
g4590
sg56
(lp4622
g49
(g70
g51
NtRp4623
(dp4624
g54
(dp4625
sg63
g4619
sg56
(lp4626
g49
(g50
g51
NtRp4627
(dp4628
g54
(dp4629
g62
I1
ssg63
g4623
sg56
(lp4630
Nasbasbasbag49
(g65
g51
NtRp4631
(dp4632
g54
(dp4633
sg63
g4590
sg56
(lp4634
g49
(g70
g51
NtRp4635
(dp4636
g54
(dp4637
sg63
g4631
sg56
(lp4638
g49
(g50
g51
NtRp4639
(dp4640
g54
(dp4641
g62
I1
ssg63
g4635
sg56
(lp4642
(lp4643
(S'plugin_wiki'
p4644
I00
S'http://web2py.com/examples/default/download'
p4645
tp4646
a(g4032
(S's\r\x00\x00\x00Other Plugins'
tRp4647
I00
g4377
tp4648
a(g4032
(S's\x0e\x00\x00\x00Layout Plugins'
tRp4649
I00
g4380
tp4650
aasbasbasbasbasbasbasbasbasbasbasbasbasbasbasbasbasbasbasbag49
(g65
g51
NtRp4651
(dp4652
g54
(dp4653
sg63
g3496
sg56
(lp4654
g49
(g70
g51
NtRp4655
(dp4656
g54
(dp4657
g74
g75
ssg63
g4651
sg56
(lp4658
S'meta'
p4659
asbag49
(g70
g51
NtRp4660
(dp4661
g54
(dp4662
g81
g82
ssg63
g4651
sg56
(lp4663
S':'
asbag49
(g70
g51
NtRp4664
(dp4665
g54
(dp4666
sg63
g4651
sg56
(lp4667
g49
(g50
g51
NtRp4668
(dp4669
g54
(dp4670
g62
I5
ssg63
g4664
sg56
(lp4671
g49
(g58
g51
NtRp4672
(dp4673
g54
(dp4674
g62
I4
ssg63
Nsg56
(lp4675
g49
(g65
g51
NtRp4676
(dp4677
g54
(dp4678
sg63
g4672
sg56
(lp4679
g49
(g70
g51
NtRp4680
(dp4681
g54
(dp4682
g74
g75
ssg63
g4676
sg56
(lp4683
S'author'
p4684
asbag49
(g70
g51
NtRp4685
(dp4686
g54
(dp4687
g81
g82
ssg63
g4676
sg56
(lp4688
S':'
asbag49
(g70
g51
NtRp4689
(dp4690
g54
(dp4691
sg63
g4676
sg56
(lp4692
g49
(g50
g51
NtRp4693
(dp4694
g54
(dp4695
g62
I4
ssg63
g4689
sg56
(lp4696
S'Your Name <you@example.com>'
p4697
asbasbasbag49
(g65
g51
NtRp4698
(dp4699
g54
(dp4700
sg63
g4672
sg56
(lp4701
g49
(g70
g51
NtRp4702
(dp4703
g54
(dp4704
g74
g75
ssg63
g4698
sg56
(lp4705
S'copyright'
p4706
asbag49
(g70
g51
NtRp4707
(dp4708
g54
(dp4709
g81
g82
ssg63
g4698
sg56
(lp4710
S':'
asbag49
(g70
g51
NtRp4711
(dp4712
g54
(dp4713
sg63
g4698
sg56
(lp4714
g49
(g50
g51
NtRp4715
(dp4716
g54
(dp4717
g62
I4
ssg63
g4711
sg56
(lp4718
S'Copyright 2011'
p4719
asbasbasbag49
(g65
g51
NtRp4720
(dp4721
g54
(dp4722
sg63
g4672
sg56
(lp4723
g49
(g70
g51
NtRp4724
(dp4725
g54
(dp4726
g74
g75
ssg63
g4720
sg56
(lp4727
S'description'
p4728
asbag49
(g70
g51
NtRp4729
(dp4730
g54
(dp4731
g81
g82
ssg63
g4720
sg56
(lp4732
S':'
asbag49
(g70
g51
NtRp4733
(dp4734
g54
(dp4735
sg63
g4720
sg56
(lp4736
g49
(g50
g51
NtRp4737
(dp4738
g54
(dp4739
g62
I4
ssg63
g4733
sg56
(lp4740
S'a cool new app'
p4741
asbasbasbag49
(g65
g51
NtRp4742
(dp4743
g54
(dp4744
sg63
g4672
sg56
(lp4745
g49
(g70
g51
NtRp4746
(dp4747
g54
(dp4748
g74
g75
ssg63
g4742
sg56
(lp4749
S'generator'
p4750
asbag49
(g70
g51
NtRp4751
(dp4752
g54
(dp4753
g81
g82
ssg63
g4742
sg56
(lp4754
S':'
asbag49
(g70
g51
NtRp4755
(dp4756
g54
(dp4757
sg63
g4742
sg56
(lp4758
g49
(g50
g51
NtRp4759
(dp4760
g54
(dp4761
g62
I4
ssg63
g4755
sg56
(lp4762
S'Web2py Web Framework'
p4763
asbasbasbag49
(g65
g51
NtRp4764
(dp4765
g54
(dp4766
sg63
g4672
sg56
(lp4767
g49
(g70
g51
NtRp4768
(dp4769
g54
(dp4770
g74
g75
ssg63
g4764
sg56
(lp4771
S'keywords'
p4772
asbag49
(g70
g51
NtRp4773
(dp4774
g54
(dp4775
g81
g82
ssg63
g4764
sg56
(lp4776
S':'
asbag49
(g70
g51
NtRp4777
(dp4778
g54
(dp4779
sg63
g4764
sg56
(lp4780
g49
(g50
g51
NtRp4781
(dp4782
g54
(dp4783
g62
I4
ssg63
g4777
sg56
(lp4784
S'web2py, python, framework'
p4785
asbasbasbasbasbasbasbag49
(g65
g51
NtRp4786
(dp4787
g54
(dp4788
sg63
g3496
sg56
(lp4789
g49
(g70
g51
NtRp4790
(dp4791
g54
(dp4792
g74
g75
ssg63
g4786
sg56
(lp4793
S'postprocessing'
p4794
asbag49
(g70
g51
NtRp4795
(dp4796
g54
(dp4797
g81
g82
ssg63
g4786
sg56
(lp4798
S':'
asbag49
(g70
g51
NtRp4799
(dp4800
g54
(dp4801
sg63
g4786
sg56
(lp4802
g49
(g50
g51
NtRp4803
(dp4804
g54
(dp4805
g62
I5
ssg63
g4799
sg56
(lp4806
g49
(g58
g51
NtRp4807
(dp4808
g54
(dp4809
g62
I4
ssg63
Nsg56
(lp4810
sbasbasbasbag49
(g65
g51
NtRp4811
(dp4812
g54
(dp4813
sg63
g3496
sg56
(lp4814
g49
(g70
g51
NtRp4815
(dp4816
g54
(dp4817
g74
g75
ssg63
g4811
sg56
(lp4818
S'session_file'
p4819
asbag49
(g70
g51
NtRp4820
(dp4821
g54
(dp4822
g81
g82
ssg63
g4811
sg56
(lp4823
S':'
asbag49
(g70
g51
NtRp4824
(dp4825
g54
(dp4826
sg63
g4811
sg56
(lp4827
g49
(g50
g51
NtRp4828
(dp4829
g54
(dp4830
g62
I5
ssg63
g4824
sg56
(lp4831
S"<open file '/Users/udimilo/Documents/web2py/applications/udi0312/sessions/127.0.0.1-fcd6a577-d448-4882-b7bc-f353da84ba3b', mode 'rb+' at 0xa813a40>"
p4832
asbasbasbag49
(g65
g51
NtRp4833
(dp4834
g54
(dp4835
sg63
g3496
sg56
(lp4836
g49
(g70
g51
NtRp4837
(dp4838
g54
(dp4839
g74
g75
ssg63
g4833
sg56
(lp4840
S'session_filename'
p4841
asbag49
(g70
g51
NtRp4842
(dp4843
g54
(dp4844
g81
g82
ssg63
g4833
sg56
(lp4845
S':'
asbag49
(g70
g51
NtRp4846
(dp4847
g54
(dp4848
sg63
g4833
sg56
(lp4849
g49
(g50
g51
NtRp4850
(dp4851
g54
(dp4852
g62
I5
ssg63
g4846
sg56
(lp4853
S'/Users/udimilo/Documents/web2py/applications/udi0312/sessions/127.0.0.1-fcd6a577-d448-4882-b7bc-f353da84ba3b'
p4854
asbasbasbag49
(g65
g51
NtRp4855
(dp4856
g54
(dp4857
sg63
g3496
sg56
(lp4858
g49
(g70
g51
NtRp4859
(dp4860
g54
(dp4861
g74
g75
ssg63
g4855
sg56
(lp4862
S'session_id'
p4863
asbag49
(g70
g51
NtRp4864
(dp4865
g54
(dp4866
g81
g82
ssg63
g4855
sg56
(lp4867
S':'
asbag49
(g70
g51
NtRp4868
(dp4869
g54
(dp4870
sg63
g4855
sg56
(lp4871
g49
(g50
g51
NtRp4872
(dp4873
g54
(dp4874
g62
I5
ssg63
g4868
sg56
(lp4875
S'127.0.0.1-fcd6a577-d448-4882-b7bc-f353da84ba3b'
p4876
asbasbasbag49
(g65
g51
NtRp4877
(dp4878
g54
(dp4879
sg63
g3496
sg56
(lp4880
g49
(g70
g51
NtRp4881
(dp4882
g54
(dp4883
g74
g75
ssg63
g4877
sg56
(lp4884
S'session_id_name'
p4885
asbag49
(g70
g51
NtRp4886
(dp4887
g54
(dp4888
g81
g82
ssg63
g4877
sg56
(lp4889
S':'
asbag49
(g70
g51
NtRp4890
(dp4891
g54
(dp4892
sg63
g4877
sg56
(lp4893
g49
(g50
g51
NtRp4894
(dp4895
g54
(dp4896
g62
I5
ssg63
g4890
sg56
(lp4897
g3553
asbasbasbag49
(g65
g51
NtRp4898
(dp4899
g54
(dp4900
sg63
g3496
sg56
(lp4901
g49
(g70
g51
NtRp4902
(dp4903
g54
(dp4904
g74
g75
ssg63
g4898
sg56
(lp4905
S'session_locked'
p4906
asbag49
(g70
g51
NtRp4907
(dp4908
g54
(dp4909
g81
g82
ssg63
g4898
sg56
(lp4910
S':'
asbag49
(g70
g51
NtRp4911
(dp4912
g54
(dp4913
sg63
g4898
sg56
(lp4914
g49
(g50
g51
NtRp4915
(dp4916
g54
(dp4917
g62
I5
ssg63
g4911
sg56
(lp4918
g92
asbasbasbag49
(g65
g51
NtRp4919
(dp4920
g54
(dp4921
sg63
g3496
sg56
(lp4922
g49
(g70
g51
NtRp4923
(dp4924
g54
(dp4925
g74
g75
ssg63
g4919
sg56
(lp4926
S'session_new'
p4927
asbag49
(g70
g51
NtRp4928
(dp4929
g54
(dp4930
g81
g82
ssg63
g4919
sg56
(lp4931
S':'
asbag49
(g70
g51
NtRp4932
(dp4933
g54
(dp4934
sg63
g4919
sg56
(lp4935
g49
(g50
g51
NtRp4936
(dp4937
g54
(dp4938
g62
I5
ssg63
g4932
sg56
(lp4939
g935
asbasbasbag49
(g65
g51
NtRp4940
(dp4941
g54
(dp4942
sg63
g3496
sg56
(lp4943
g49
(g70
g51
NtRp4944
(dp4945
g54
(dp4946
g74
g75
ssg63
g4940
sg56
(lp4947
S'status'
p4948
asbag49
(g70
g51
NtRp4949
(dp4950
g54
(dp4951
g81
g82
ssg63
g4940
sg56
(lp4952
S':'
asbag49
(g70
g51
NtRp4953
(dp4954
g54
(dp4955
sg63
g4940
sg56
(lp4956
g49
(g50
g51
NtRp4957
(dp4958
g54
(dp4959
g62
I5
ssg63
g4953
sg56
(lp4960
S'200'
p4961
asbasbasbag49
(g65
g51
NtRp4962
(dp4963
g54
(dp4964
sg63
g3496
sg56
(lp4965
g49
(g70
g51
NtRp4966
(dp4967
g54
(dp4968
g74
g75
ssg63
g4962
sg56
(lp4969
S'subtitle'
p4970
asbag49
(g70
g51
NtRp4971
(dp4972
g54
(dp4973
g81
g82
ssg63
g4962
sg56
(lp4974
S':'
asbag49
(g70
g51
NtRp4975
(dp4976
g54
(dp4977
sg63
g4962
sg56
(lp4978
g49
(g50
g51
NtRp4979
(dp4980
g54
(dp4981
g62
I5
ssg63
g4975
sg56
(lp4982
g4032
(S's\r\x00\x00\x00customize me!'
tRp4983
asbasbasbag49
(g65
g51
NtRp4984
(dp4985
g54
(dp4986
sg63
g3496
sg56
(lp4987
g49
(g70
g51
NtRp4988
(dp4989
g54
(dp4990
g74
g75
ssg63
g4984
sg56
(lp4991
S'title'
p4992
asbag49
(g70
g51
NtRp4993
(dp4994
g54
(dp4995
g81
g82
ssg63
g4984
sg56
(lp4996
S':'
asbag49
(g70
g51
NtRp4997
(dp4998
g54
(dp4999
sg63
g4984
sg56
(lp5000
g49
(g50
g51
NtRp5001
(dp5002
g54
(dp5003
g62
I5
ssg63
g4997
sg56
(lp5004
S'Udi0312'
p5005
asbasbasbag49
(g65
g51
NtRp5006
(dp5007
g54
(dp5008
sg63
g3496
sg56
(lp5009
g49
(g70
g51
NtRp5010
(dp5011
g54
(dp5012
g74
g75
ssg63
g5006
sg56
(lp5013
g2490
asbag49
(g70
g51
NtRp5014
(dp5015
g54
(dp5016
g81
g82
ssg63
g5006
sg56
(lp5017
S':'
asbag49
(g70
g51
NtRp5018
(dp5019
g54
(dp5020
sg63
g5006
sg56
(lp5021
g49
(g50
g51
NtRp5022
(dp5023
g54
(dp5024
g62
I5
ssg63
g5018
sg56
(lp5025
g2503
asbasbasbag49
(g65
g51
NtRp5026
(dp5027
g54
(dp5028
sg63
g3496
sg56
(lp5029
g49
(g70
g51
NtRp5030
(dp5031
g54
(dp5032
g74
g75
ssg63
g5026
sg56
(lp5033
S'view'
p5034
asbag49
(g70
g51
NtRp5035
(dp5036
g54
(dp5037
g81
g82
ssg63
g5026
sg56
(lp5038
S':'
asbag49
(g70
g51
NtRp5039
(dp5040
g54
(dp5041
sg63
g5026
sg56
(lp5042
g49
(g50
g51
NtRp5043
(dp5044
g54
(dp5045
g62
I5
ssg63
g5039
sg56
(lp5046
S'default/addPage.html'
p5047
asbasbasbasbasbsS'locals'
p5048
(dp5049
ssS'traceback'
p5050
S'Traceback (most recent call last):\n  File "/users/udimilo/Documents/web2py/gluon/restricted.py", line 205, in restricted\n    exec ccode in environment\n  File "/Users/udimilo/Documents/web2py/applications/udi0312/controllers/default.py", line 77, in <module>\n  File "/users/udimilo/Documents/web2py/gluon/globals.py", line 173, in <lambda>\n    self._caller = lambda f: f()\n  File "/Users/udimilo/Documents/web2py/applications/udi0312/controllers/default.py", line 19, in addPage\n    page = db().page.insert(user_id = auth.user, url = request.vars.url, height = 300)\nAttributeError: \'Set\' object has no attribute \'page\'\n'
p5051
s.