(dp1
S'output'
p2
S"<type 'exceptions.NameError'> global name 'db' is not defined"
p3
sS'layer'
p4
S'/Users/udimilo/Documents/web2py/applications/udi0312/controllers/default.py'
p5
sS'code'
p6
S'# -*- coding: utf-8 -*-\nimport feedparser\nimport urlparse\nimport re\nfrom cacheable import Cacheable\n\n##\n## private functions\n##\ndef get_pins(user):\n    boards = db(db.board.user==user.id).select() if user else []\n    pins = []\n    for board in boards:\n        pins.extend(board.pin.select())    \n    return pins\n\n##\n## public functions\n##\ndef index():\n    c = Cacheable()\n    categories = c.get_categories() if auth.user else []\n    boards = db(db.board.user==auth.user.id).select() if auth.user else []\n\n    if auth.user is None:\n        pins = db().select(db.pin.ALL, orderby=~db.pin.created_on)\n    else:\n        pins = get_pins(auth.user)\n        rels = db(db.user_user.follower == auth.user.id).select()\n        for r in rels:\n            pins.extend(get_pins(r.followee))\n        pins.sort(key=lambda x: x.created_on, reverse=True)\n        \n    return dict(pins=pins, categories=categories, boards=boards, show_pinner=True)\n\ndef all():\n    c = Cacheable()\n    c.get_categories() if auth.user else []\n    boards = db(db.board.user==auth.user.id).select() if auth.user else []\n    pins = db().select(db.pin.ALL, orderby=~db.pin.created_on, cache=(cache.ram, 10))\n    return dict(pins=pins, categories=categories, boards=boards, show_pinner=True)\n    \ndef users():\n    ##if empty "/users" return to main\n    if len(request.args)==0:\n       redirect(URL(\'index\'))\n\n    id = request.args[0]\n    user = db.auth_user(id) or redirect(URL(\'index\'))    \n\n    if request.args(1):\n        action = request.args(1).lower()\n        if action == \'follow\':\n            rel = db((db.user_user.follower == auth.user.id) & (db.user_user.followee == user.id)).select().first()        \n            if rel is None:\n                rel = db.user_user.insert(follower = auth.user.id, followee = user.id)\n            redirect(URL(\'users\', args=[id]))\n        else:\n            if action == \'unfollow\':\n                rel = db((db.user_user.follower == auth.user.id) & (db.user_user.followee == user.id)).select().first()        \n                if rel is not None:\n                    db(db.user_user.id == rel.id).delete()\n                redirect(URL(\'users\', args=[id]))\n            else:\n                #show board\n                board_id = action\n                board = db.board(board_id) or redirect(URL(\'users\',user_id))\n                pins = db(db.pin.board == board.id).select()\n                return len(pins)\n                                \n    #get the user pins\n    boards = user.board.select()\n    pins = []\n    for board in boards:\n        pins.extend(board.pin.select())\n    \n    #update the follow button\n    rel = db((db.user_user.follower == auth.user.id) & (db.user_user.followee == user.id)).select().first() if auth.user else None\n    if rel is None:\n        action = \'follow\'\n    else:\n        action = \'unfollow\'\n        \n    return dict(user=user,pins=pins, boards=[], show_pinner=False, action=action)\n\ndef boards():\n    ##if empty "/boards" return to main\n    if len(request.args)==0:\n       redirect(URL(\'index\'))\n    \n    id = request.args(0)\n    board = db.board(id) or redirect(URL(\'index\'))    \n    pins = board.pin.select()\n    \n    return dict(board=board, pins=pins, boards=[], show_pinner=False)\n\n##\n## default functions\n##\ndef user():\n    """\n    exposes:\n    http://..../[app]/default/user/login\n    http://..../[app]/default/user/logout\n    http://..../[app]/default/user/register\n    http://..../[app]/default/user/profile\n    http://..../[app]/default/user/retrieve_password\n    http://..../[app]/default/user/change_password\n    use @auth.requires_login()\n        @auth.requires_membership(\'group name\')\n        @auth.requires_permission(\'read\',\'table name\',record_id)\n    to decorate functions that need access control\n    """\n    return dict(form=auth(), boards=[])\n\ndef download():\n    """\n    allows downloading of uploaded files\n    http://..../[app]/default/download/[filename]\n    """\n    return response.download(request,db)\n\n\ndef call():\n    """\n    exposes services. for example:\n    http://..../[app]/default/call/jsonrpc\n    decorate with @services.jsonrpc the functions to expose\n    supports xml, json, xmlrpc, jsonrpc, amfrpc, rss, csv\n    """\n    return service()\n\n\n@auth.requires_signature()\ndef data():\n    """\n    http://..../[app]/default/data/tables\n    http://..../[app]/default/data/create/[table]\n    http://..../[app]/default/data/read/[table]/[id]\n    http://..../[app]/default/data/update/[table]/[id]\n    http://..../[app]/default/data/delete/[table]/[id]\n    http://..../[app]/default/data/select/[table]\n    http://..../[app]/default/data/search/[table]\n    but URLs must be signed, i.e. linked with\n      A(\'table\',_href=URL(\'data/tables\',user_signature=True))\n    or with the signed load operator\n      LOAD(\'default\',\'data.load\',args=\'tables\',ajax=True,user_signature=True)\n    """\n    return dict(form=crud())\n\nresponse._vars=response._caller(index)\n'
p7
sS'snapshot'
p8
(dp9
S'exception'
p10
(dp11
S'__hash__'
p12
S"<method-wrapper '__hash__' of exceptions.NameError object at 0xa01b378>"
p13
sS'__setattr__'
p14
S"<method-wrapper '__setattr__' of exceptions.NameError object at 0xa01b378>"
p15
sS'__reduce_ex__'
p16
S'<built-in method __reduce_ex__ of exceptions.NameError object at 0xa01b378>'
p17
sS'__getslice__'
p18
S"<method-wrapper '__getslice__' of exceptions.NameError object at 0xa01b378>"
p19
sS'__getitem__'
p20
S"<method-wrapper '__getitem__' of exceptions.NameError object at 0xa01b378>"
p21
sS'__setstate__'
p22
S'<built-in method __setstate__ of exceptions.NameError object at 0xa01b378>'
p23
sS'__reduce__'
p24
S'<built-in method __reduce__ of exceptions.NameError object at 0xa01b378>'
p25
sS'__str__'
p26
S"<method-wrapper '__str__' of exceptions.NameError object at 0xa01b378>"
p27
sS'args'
p28
S'("global name \'db\' is not defined",)'
p29
sS'__getattribute__'
p30
S"<method-wrapper '__getattribute__' of exceptions.NameError object at 0xa01b378>"
p31
sS'__class__'
p32
S"<type 'exceptions.NameError'>"
p33
sS'__delattr__'
p34
S"<method-wrapper '__delattr__' of exceptions.NameError object at 0xa01b378>"
p35
sS'__repr__'
p36
S"<method-wrapper '__repr__' of exceptions.NameError object at 0xa01b378>"
p37
sS'__dict__'
p38
S'{}'
p39
sS'__doc__'
p40
S"'Name not found globally.'"
p41
sS'__init__'
p42
S"<method-wrapper '__init__' of exceptions.NameError object at 0xa01b378>"
p43
sS'__new__'
p44
S'<built-in method __new__ of type object at 0x100640>'
p45
ssS'evalue'
p46
S"global name 'db' is not defined"
p47
sS'request'
p48
ccopy_reg
_reconstructor
p49
(cgluon.html
BEAUTIFY
p50
c__builtin__
object
p51
NtRp52
(dp53
S'attributes'
p54
(dp55
sS'components'
p56
(lp57
g49
(cgluon.html
TABLE
p58
g51
NtRp59
(dp60
g54
(dp61
S'level'
p62
I5
ssS'parent'
p63
Nsg56
(lp64
g49
(cgluon.html
TR
p65
g51
NtRp66
(dp67
g54
(dp68
sg63
g59
sg56
(lp69
g49
(cgluon.html
TD
p70
g51
NtRp71
(dp72
g54
(dp73
S'_style'
p74
S'font-weight:bold;vertical-align:top'
p75
ssg63
g66
sg56
(lp76
S'ajax'
p77
asbag49
(g70
g51
NtRp78
(dp79
g54
(dp80
S'_valign'
p81
S'top'
p82
ssg63
g66
sg56
(lp83
S':'
asbag49
(g70
g51
NtRp84
(dp85
g54
(dp86
sg63
g66
sg56
(lp87
g49
(g50
g51
NtRp88
(dp89
g54
(dp90
g62
I5
ssg63
g84
sg56
(lp91
S'False'
p92
asbasbasbag49
(g65
g51
NtRp93
(dp94
g54
(dp95
sg63
g59
sg56
(lp96
g49
(g70
g51
NtRp97
(dp98
g54
(dp99
g74
g75
ssg63
g93
sg56
(lp100
S'application'
p101
asbag49
(g70
g51
NtRp102
(dp103
g54
(dp104
g81
g82
ssg63
g93
sg56
(lp105
S':'
asbag49
(g70
g51
NtRp106
(dp107
g54
(dp108
sg63
g93
sg56
(lp109
g49
(g50
g51
NtRp110
(dp111
g54
(dp112
g62
I5
ssg63
g106
sg56
(lp113
S'udi0312'
p114
asbasbasbag49
(g65
g51
NtRp115
(dp116
g54
(dp117
sg63
g59
sg56
(lp118
g49
(g70
g51
NtRp119
(dp120
g54
(dp121
g74
g75
ssg63
g115
sg56
(lp122
g28
asbag49
(g70
g51
NtRp123
(dp124
g54
(dp125
g81
g82
ssg63
g115
sg56
(lp126
S':'
asbag49
(g70
g51
NtRp127
(dp128
g54
(dp129
sg63
g115
sg56
(lp130
g49
(g50
g51
NtRp131
(dp132
g54
(dp133
g62
I5
ssg63
g127
sg56
(lp134
g49
(g58
g51
NtRp135
(dp136
g54
(dp137
g62
I4
ssg63
Nsg56
(lp138
sbasbasbasbag49
(g65
g51
NtRp139
(dp140
g54
(dp141
sg63
g59
sg56
(lp142
g49
(g70
g51
NtRp143
(dp144
g54
(dp145
g74
g75
ssg63
g139
sg56
(lp146
S'body'
p147
asbag49
(g70
g51
NtRp148
(dp149
g54
(dp150
g81
g82
ssg63
g139
sg56
(lp151
S':'
asbag49
(g70
g51
NtRp152
(dp153
g54
(dp154
sg63
g139
sg56
(lp155
g49
(g50
g51
NtRp156
(dp157
g54
(dp158
g62
I5
ssg63
g152
sg56
(lp159
S'<cStringIO.StringO object at 0xa1dae80>'
p160
asbasbasbag49
(g65
g51
NtRp161
(dp162
g54
(dp163
sg63
g59
sg56
(lp164
g49
(g70
g51
NtRp165
(dp166
g54
(dp167
g74
g75
ssg63
g161
sg56
(lp168
S'client'
p169
asbag49
(g70
g51
NtRp170
(dp171
g54
(dp172
g81
g82
ssg63
g161
sg56
(lp173
S':'
asbag49
(g70
g51
NtRp174
(dp175
g54
(dp176
sg63
g161
sg56
(lp177
g49
(g50
g51
NtRp178
(dp179
g54
(dp180
g62
I5
ssg63
g174
sg56
(lp181
S'127.0.0.1'
p182
asbasbasbag49
(g65
g51
NtRp183
(dp184
g54
(dp185
sg63
g59
sg56
(lp186
g49
(g70
g51
NtRp187
(dp188
g54
(dp189
g74
g75
ssg63
g183
sg56
(lp190
S'controller'
p191
asbag49
(g70
g51
NtRp192
(dp193
g54
(dp194
g81
g82
ssg63
g183
sg56
(lp195
S':'
asbag49
(g70
g51
NtRp196
(dp197
g54
(dp198
sg63
g183
sg56
(lp199
g49
(g50
g51
NtRp200
(dp201
g54
(dp202
g62
I5
ssg63
g196
sg56
(lp203
S'default'
p204
asbasbasbag49
(g65
g51
NtRp205
(dp206
g54
(dp207
sg63
g59
sg56
(lp208
g49
(g70
g51
NtRp209
(dp210
g54
(dp211
g74
g75
ssg63
g205
sg56
(lp212
S'cookies'
p213
asbag49
(g70
g51
NtRp214
(dp215
g54
(dp216
g81
g82
ssg63
g205
sg56
(lp217
S':'
asbag49
(g70
g51
NtRp218
(dp219
g54
(dp220
sg63
g205
sg56
(lp221
g49
(g50
g51
NtRp222
(dp223
g54
(dp224
g62
I5
ssg63
g218
sg56
(lp225
g49
(g58
g51
NtRp226
(dp227
g54
(dp228
g62
I4
ssg63
Nsg56
(lp229
g49
(g65
g51
NtRp230
(dp231
g54
(dp232
sg63
g226
sg56
(lp233
g49
(g70
g51
NtRp234
(dp235
g54
(dp236
g74
g75
ssg63
g230
sg56
(lp237
S'session_id_admin'
p238
asbag49
(g70
g51
NtRp239
(dp240
g54
(dp241
g81
g82
ssg63
g230
sg56
(lp242
S':'
asbag49
(g70
g51
NtRp243
(dp244
g54
(dp245
sg63
g230
sg56
(lp246
g49
(g50
g51
NtRp247
(dp248
g54
(dp249
g62
I4
ssg63
g243
sg56
(lp250
g49
(g58
g51
NtRp251
(dp252
g54
(dp253
g62
I3
ssg63
Nsg56
(lp254
g49
(g65
g51
NtRp255
(dp256
g54
(dp257
sg63
g251
sg56
(lp258
g49
(g70
g51
NtRp259
(dp260
g54
(dp261
g74
g75
ssg63
g255
sg56
(lp262
S'comment'
p263
asbag49
(g70
g51
NtRp264
(dp265
g54
(dp266
g81
g82
ssg63
g255
sg56
(lp267
S':'
asbag49
(g70
g51
NtRp268
(dp269
g54
(dp270
sg63
g255
sg56
(lp271
g49
(g50
g51
NtRp272
(dp273
g54
(dp274
g62
I3
ssg63
g268
sg56
(lp275
S''
asbasbasbag49
(g65
g51
NtRp276
(dp277
g54
(dp278
sg63
g251
sg56
(lp279
g49
(g70
g51
NtRp280
(dp281
g54
(dp282
g74
g75
ssg63
g276
sg56
(lp283
S'domain'
p284
asbag49
(g70
g51
NtRp285
(dp286
g54
(dp287
g81
g82
ssg63
g276
sg56
(lp288
S':'
asbag49
(g70
g51
NtRp289
(dp290
g54
(dp291
sg63
g276
sg56
(lp292
g49
(g50
g51
NtRp293
(dp294
g54
(dp295
g62
I3
ssg63
g289
sg56
(lp296
S''
asbasbasbag49
(g65
g51
NtRp297
(dp298
g54
(dp299
sg63
g251
sg56
(lp300
g49
(g70
g51
NtRp301
(dp302
g54
(dp303
g74
g75
ssg63
g297
sg56
(lp304
S'expires'
p305
asbag49
(g70
g51
NtRp306
(dp307
g54
(dp308
g81
g82
ssg63
g297
sg56
(lp309
S':'
asbag49
(g70
g51
NtRp310
(dp311
g54
(dp312
sg63
g297
sg56
(lp313
g49
(g50
g51
NtRp314
(dp315
g54
(dp316
g62
I3
ssg63
g310
sg56
(lp317
S''
asbasbasbag49
(g65
g51
NtRp318
(dp319
g54
(dp320
sg63
g251
sg56
(lp321
g49
(g70
g51
NtRp322
(dp323
g54
(dp324
g74
g75
ssg63
g318
sg56
(lp325
S'max-age'
p326
asbag49
(g70
g51
NtRp327
(dp328
g54
(dp329
g81
g82
ssg63
g318
sg56
(lp330
S':'
asbag49
(g70
g51
NtRp331
(dp332
g54
(dp333
sg63
g318
sg56
(lp334
g49
(g50
g51
NtRp335
(dp336
g54
(dp337
g62
I3
ssg63
g331
sg56
(lp338
S''
asbasbasbag49
(g65
g51
NtRp339
(dp340
g54
(dp341
sg63
g251
sg56
(lp342
g49
(g70
g51
NtRp343
(dp344
g54
(dp345
g74
g75
ssg63
g339
sg56
(lp346
S'path'
p347
asbag49
(g70
g51
NtRp348
(dp349
g54
(dp350
g81
g82
ssg63
g339
sg56
(lp351
S':'
asbag49
(g70
g51
NtRp352
(dp353
g54
(dp354
sg63
g339
sg56
(lp355
g49
(g50
g51
NtRp356
(dp357
g54
(dp358
g62
I3
ssg63
g352
sg56
(lp359
S''
asbasbasbag49
(g65
g51
NtRp360
(dp361
g54
(dp362
sg63
g251
sg56
(lp363
g49
(g70
g51
NtRp364
(dp365
g54
(dp366
g74
g75
ssg63
g360
sg56
(lp367
S'secure'
p368
asbag49
(g70
g51
NtRp369
(dp370
g54
(dp371
g81
g82
ssg63
g360
sg56
(lp372
S':'
asbag49
(g70
g51
NtRp373
(dp374
g54
(dp375
sg63
g360
sg56
(lp376
g49
(g50
g51
NtRp377
(dp378
g54
(dp379
g62
I3
ssg63
g373
sg56
(lp380
S''
asbasbasbag49
(g65
g51
NtRp381
(dp382
g54
(dp383
sg63
g251
sg56
(lp384
g49
(g70
g51
NtRp385
(dp386
g54
(dp387
g74
g75
ssg63
g381
sg56
(lp388
S'version'
p389
asbag49
(g70
g51
NtRp390
(dp391
g54
(dp392
g81
g82
ssg63
g381
sg56
(lp393
S':'
asbag49
(g70
g51
NtRp394
(dp395
g54
(dp396
sg63
g381
sg56
(lp397
g49
(g50
g51
NtRp398
(dp399
g54
(dp400
g62
I3
ssg63
g394
sg56
(lp401
S''
asbasbasbasbasbasbasbag49
(g65
g51
NtRp402
(dp403
g54
(dp404
sg63
g226
sg56
(lp405
g49
(g70
g51
NtRp406
(dp407
g54
(dp408
g74
g75
ssg63
g402
sg56
(lp409
S'session_id_udi0312'
p410
asbag49
(g70
g51
NtRp411
(dp412
g54
(dp413
g81
g82
ssg63
g402
sg56
(lp414
S':'
asbag49
(g70
g51
NtRp415
(dp416
g54
(dp417
sg63
g402
sg56
(lp418
g49
(g50
g51
NtRp419
(dp420
g54
(dp421
g62
I4
ssg63
g415
sg56
(lp422
g49
(g58
g51
NtRp423
(dp424
g54
(dp425
g62
I3
ssg63
Nsg56
(lp426
g49
(g65
g51
NtRp427
(dp428
g54
(dp429
sg63
g423
sg56
(lp430
g49
(g70
g51
NtRp431
(dp432
g54
(dp433
g74
g75
ssg63
g427
sg56
(lp434
g263
asbag49
(g70
g51
NtRp435
(dp436
g54
(dp437
g81
g82
ssg63
g427
sg56
(lp438
S':'
asbag49
(g70
g51
NtRp439
(dp440
g54
(dp441
sg63
g427
sg56
(lp442
g49
(g50
g51
NtRp443
(dp444
g54
(dp445
g62
I3
ssg63
g439
sg56
(lp446
S''
asbasbasbag49
(g65
g51
NtRp447
(dp448
g54
(dp449
sg63
g423
sg56
(lp450
g49
(g70
g51
NtRp451
(dp452
g54
(dp453
g74
g75
ssg63
g447
sg56
(lp454
g284
asbag49
(g70
g51
NtRp455
(dp456
g54
(dp457
g81
g82
ssg63
g447
sg56
(lp458
S':'
asbag49
(g70
g51
NtRp459
(dp460
g54
(dp461
sg63
g447
sg56
(lp462
g49
(g50
g51
NtRp463
(dp464
g54
(dp465
g62
I3
ssg63
g459
sg56
(lp466
S''
asbasbasbag49
(g65
g51
NtRp467
(dp468
g54
(dp469
sg63
g423
sg56
(lp470
g49
(g70
g51
NtRp471
(dp472
g54
(dp473
g74
g75
ssg63
g467
sg56
(lp474
g305
asbag49
(g70
g51
NtRp475
(dp476
g54
(dp477
g81
g82
ssg63
g467
sg56
(lp478
S':'
asbag49
(g70
g51
NtRp479
(dp480
g54
(dp481
sg63
g467
sg56
(lp482
g49
(g50
g51
NtRp483
(dp484
g54
(dp485
g62
I3
ssg63
g479
sg56
(lp486
S''
asbasbasbag49
(g65
g51
NtRp487
(dp488
g54
(dp489
sg63
g423
sg56
(lp490
g49
(g70
g51
NtRp491
(dp492
g54
(dp493
g74
g75
ssg63
g487
sg56
(lp494
g326
asbag49
(g70
g51
NtRp495
(dp496
g54
(dp497
g81
g82
ssg63
g487
sg56
(lp498
S':'
asbag49
(g70
g51
NtRp499
(dp500
g54
(dp501
sg63
g487
sg56
(lp502
g49
(g50
g51
NtRp503
(dp504
g54
(dp505
g62
I3
ssg63
g499
sg56
(lp506
S''
asbasbasbag49
(g65
g51
NtRp507
(dp508
g54
(dp509
sg63
g423
sg56
(lp510
g49
(g70
g51
NtRp511
(dp512
g54
(dp513
g74
g75
ssg63
g507
sg56
(lp514
g347
asbag49
(g70
g51
NtRp515
(dp516
g54
(dp517
g81
g82
ssg63
g507
sg56
(lp518
S':'
asbag49
(g70
g51
NtRp519
(dp520
g54
(dp521
sg63
g507
sg56
(lp522
g49
(g50
g51
NtRp523
(dp524
g54
(dp525
g62
I3
ssg63
g519
sg56
(lp526
S''
asbasbasbag49
(g65
g51
NtRp527
(dp528
g54
(dp529
sg63
g423
sg56
(lp530
g49
(g70
g51
NtRp531
(dp532
g54
(dp533
g74
g75
ssg63
g527
sg56
(lp534
g368
asbag49
(g70
g51
NtRp535
(dp536
g54
(dp537
g81
g82
ssg63
g527
sg56
(lp538
S':'
asbag49
(g70
g51
NtRp539
(dp540
g54
(dp541
sg63
g527
sg56
(lp542
g49
(g50
g51
NtRp543
(dp544
g54
(dp545
g62
I3
ssg63
g539
sg56
(lp546
S''
asbasbasbag49
(g65
g51
NtRp547
(dp548
g54
(dp549
sg63
g423
sg56
(lp550
g49
(g70
g51
NtRp551
(dp552
g54
(dp553
g74
g75
ssg63
g547
sg56
(lp554
g389
asbag49
(g70
g51
NtRp555
(dp556
g54
(dp557
g81
g82
ssg63
g547
sg56
(lp558
S':'
asbag49
(g70
g51
NtRp559
(dp560
g54
(dp561
sg63
g547
sg56
(lp562
g49
(g50
g51
NtRp563
(dp564
g54
(dp565
g62
I3
ssg63
g559
sg56
(lp566
S''
asbasbasbasbasbasbasbasbasbasbasbag49
(g65
g51
NtRp567
(dp568
g54
(dp569
sg63
g59
sg56
(lp570
g49
(g70
g51
NtRp571
(dp572
g54
(dp573
g74
g75
ssg63
g567
sg56
(lp574
S'env'
p575
asbag49
(g70
g51
NtRp576
(dp577
g54
(dp578
g81
g82
ssg63
g567
sg56
(lp579
S':'
asbag49
(g70
g51
NtRp580
(dp581
g54
(dp582
sg63
g567
sg56
(lp583
g49
(g50
g51
NtRp584
(dp585
g54
(dp586
g62
I5
ssg63
g580
sg56
(lp587
g49
(g58
g51
NtRp588
(dp589
g54
(dp590
g62
I4
ssg63
Nsg56
(lp591
g49
(g65
g51
NtRp592
(dp593
g54
(dp594
sg63
g588
sg56
(lp595
g49
(g70
g51
NtRp596
(dp597
g54
(dp598
g74
g75
ssg63
g592
sg56
(lp599
S'app_folders'
p600
asbag49
(g70
g51
NtRp601
(dp602
g54
(dp603
g81
g82
ssg63
g592
sg56
(lp604
S':'
asbag49
(g70
g51
NtRp605
(dp606
g54
(dp607
sg63
g592
sg56
(lp608
g49
(g50
g51
NtRp609
(dp610
g54
(dp611
g62
I4
ssg63
g605
sg56
(lp612
S"set(['/Users/udimilo/Documents/web2py/applications/udi0312/', '/Users/udimilo/Documents/web2py/applications/admin/'])"
p613
asbasbasbag49
(g65
g51
NtRp614
(dp615
g54
(dp616
sg63
g588
sg56
(lp617
g49
(g70
g51
NtRp618
(dp619
g54
(dp620
g74
g75
ssg63
g614
sg56
(lp621
S'applications_parent'
p622
asbag49
(g70
g51
NtRp623
(dp624
g54
(dp625
g81
g82
ssg63
g614
sg56
(lp626
S':'
asbag49
(g70
g51
NtRp627
(dp628
g54
(dp629
sg63
g614
sg56
(lp630
g49
(g50
g51
NtRp631
(dp632
g54
(dp633
g62
I4
ssg63
g627
sg56
(lp634
S'/Users/udimilo/Documents/web2py'
p635
asbasbasbag49
(g65
g51
NtRp636
(dp637
g54
(dp638
sg63
g588
sg56
(lp639
g49
(g70
g51
NtRp640
(dp641
g54
(dp642
g74
g75
ssg63
g636
sg56
(lp643
S'cmd_args'
p644
asbag49
(g70
g51
NtRp645
(dp646
g54
(dp647
g81
g82
ssg63
g636
sg56
(lp648
S':'
asbag49
(g70
g51
NtRp649
(dp650
g54
(dp651
sg63
g636
sg56
(lp652
g49
(g50
g51
NtRp653
(dp654
g54
(dp655
g62
I4
ssg63
g649
sg56
(lp656
g49
(g58
g51
NtRp657
(dp658
g54
(dp659
g62
I3
ssg63
Nsg56
(lp660
sbasbasbasbag49
(g65
g51
NtRp661
(dp662
g54
(dp663
sg63
g588
sg56
(lp664
g49
(g70
g51
NtRp665
(dp666
g54
(dp667
g74
g75
ssg63
g661
sg56
(lp668
S'cmd_options'
p669
asbag49
(g70
g51
NtRp670
(dp671
g54
(dp672
g81
g82
ssg63
g661
sg56
(lp673
S':'
asbag49
(g70
g51
NtRp674
(dp675
g54
(dp676
sg63
g661
sg56
(lp677
g49
(g50
g51
NtRp678
(dp679
g54
(dp680
g62
I4
ssg63
g674
sg56
(lp681
S"<Values at 0x23196e8: {'verbose': False, 'ip': '127.0.0.1', 'shutdown_timeout': 5, 'taskbar': False, 'nocron': False, 'pid_filename': 'httpserver.pid', 'maxthreads': None, 'softcron': False, 'server_name': 'Udi-Milos-MacBook-Pro.local', 'bpython': False, 'nogui': False, 'port': 8000, 'extcron': False, 'debuglevel': 30, 'test': None, 'folder': '/Users/udimilo/Documents/web2py', 'config': '', 'import_models': False, 'winservice': '', 'shell': None, 'run': '', 'log_filename': 'httpserver.log', 'args': [''], 'socket_timeout': 5, 'ssl_ca_certificate': None, 'scheduler': None, 'profiler_filename': None, 'ssl_private_key': '', 'password': '<ask>', 'request_queue_size': 5, 'ssl_certificate': '', 'cronjob': False, 'numthreads': None, 'quiet': False, 'interfaces': None, 'minthreads': None, 'timeout': 10, 'plain': False, 'nobanner': False}>"
p682
asbasbasbag49
(g65
g51
NtRp683
(dp684
g54
(dp685
sg63
g588
sg56
(lp686
g49
(g70
g51
NtRp687
(dp688
g54
(dp689
g74
g75
ssg63
g683
sg56
(lp690
S'db_sessions'
p691
asbag49
(g70
g51
NtRp692
(dp693
g54
(dp694
g81
g82
ssg63
g683
sg56
(lp695
S':'
asbag49
(g70
g51
NtRp696
(dp697
g54
(dp698
sg63
g683
sg56
(lp699
g49
(g50
g51
NtRp700
(dp701
g54
(dp702
g62
I4
ssg63
g696
sg56
(lp703
S'set([])'
p704
asbasbasbag49
(g65
g51
NtRp705
(dp706
g54
(dp707
sg63
g588
sg56
(lp708
g49
(g70
g51
NtRp709
(dp710
g54
(dp711
g74
g75
ssg63
g705
sg56
(lp712
S'debugging'
p713
asbag49
(g70
g51
NtRp714
(dp715
g54
(dp716
g81
g82
ssg63
g705
sg56
(lp717
S':'
asbag49
(g70
g51
NtRp718
(dp719
g54
(dp720
sg63
g705
sg56
(lp721
g49
(g50
g51
NtRp722
(dp723
g54
(dp724
g62
I4
ssg63
g718
sg56
(lp725
g92
asbasbasbag49
(g65
g51
NtRp726
(dp727
g54
(dp728
sg63
g588
sg56
(lp729
g49
(g70
g51
NtRp730
(dp731
g54
(dp732
g74
g75
ssg63
g726
sg56
(lp733
S'gluon_parent'
p734
asbag49
(g70
g51
NtRp735
(dp736
g54
(dp737
g81
g82
ssg63
g726
sg56
(lp738
S':'
asbag49
(g70
g51
NtRp739
(dp740
g54
(dp741
sg63
g726
sg56
(lp742
g49
(g50
g51
NtRp743
(dp744
g54
(dp745
g62
I4
ssg63
g739
sg56
(lp746
S'/Users/udimilo/Documents/web2py'
p747
asbasbasbag49
(g65
g51
NtRp748
(dp749
g54
(dp750
sg63
g588
sg56
(lp751
g49
(g70
g51
NtRp752
(dp753
g54
(dp754
g74
g75
ssg63
g748
sg56
(lp755
S'http_accept'
p756
asbag49
(g70
g51
NtRp757
(dp758
g54
(dp759
g81
g82
ssg63
g748
sg56
(lp760
S':'
asbag49
(g70
g51
NtRp761
(dp762
g54
(dp763
sg63
g748
sg56
(lp764
g49
(g50
g51
NtRp765
(dp766
g54
(dp767
g62
I4
ssg63
g761
sg56
(lp768
S'text/html,application/xhtml+xml,application/xml;q=0.9,*/*;q=0.8'
p769
asbasbasbag49
(g65
g51
NtRp770
(dp771
g54
(dp772
sg63
g588
sg56
(lp773
g49
(g70
g51
NtRp774
(dp775
g54
(dp776
g74
g75
ssg63
g770
sg56
(lp777
S'http_accept_charset'
p778
asbag49
(g70
g51
NtRp779
(dp780
g54
(dp781
g81
g82
ssg63
g770
sg56
(lp782
S':'
asbag49
(g70
g51
NtRp783
(dp784
g54
(dp785
sg63
g770
sg56
(lp786
g49
(g50
g51
NtRp787
(dp788
g54
(dp789
g62
I4
ssg63
g783
sg56
(lp790
S'ISO-8859-1,utf-8;q=0.7,*;q=0.3'
p791
asbasbasbag49
(g65
g51
NtRp792
(dp793
g54
(dp794
sg63
g588
sg56
(lp795
g49
(g70
g51
NtRp796
(dp797
g54
(dp798
g74
g75
ssg63
g792
sg56
(lp799
S'http_accept_encoding'
p800
asbag49
(g70
g51
NtRp801
(dp802
g54
(dp803
g81
g82
ssg63
g792
sg56
(lp804
S':'
asbag49
(g70
g51
NtRp805
(dp806
g54
(dp807
sg63
g792
sg56
(lp808
g49
(g50
g51
NtRp809
(dp810
g54
(dp811
g62
I4
ssg63
g805
sg56
(lp812
S'gzip,deflate,sdch'
p813
asbasbasbag49
(g65
g51
NtRp814
(dp815
g54
(dp816
sg63
g588
sg56
(lp817
g49
(g70
g51
NtRp818
(dp819
g54
(dp820
g74
g75
ssg63
g814
sg56
(lp821
S'http_accept_language'
p822
asbag49
(g70
g51
NtRp823
(dp824
g54
(dp825
g81
g82
ssg63
g814
sg56
(lp826
S':'
asbag49
(g70
g51
NtRp827
(dp828
g54
(dp829
sg63
g814
sg56
(lp830
g49
(g50
g51
NtRp831
(dp832
g54
(dp833
g62
I4
ssg63
g827
sg56
(lp834
S'en-US,en;q=0.8'
p835
asbasbasbag49
(g65
g51
NtRp836
(dp837
g54
(dp838
sg63
g588
sg56
(lp839
g49
(g70
g51
NtRp840
(dp841
g54
(dp842
g74
g75
ssg63
g836
sg56
(lp843
S'http_cache_control'
p844
asbag49
(g70
g51
NtRp845
(dp846
g54
(dp847
g81
g82
ssg63
g836
sg56
(lp848
S':'
asbag49
(g70
g51
NtRp849
(dp850
g54
(dp851
sg63
g836
sg56
(lp852
g49
(g50
g51
NtRp853
(dp854
g54
(dp855
g62
I4
ssg63
g849
sg56
(lp856
S'max-age=0'
p857
asbasbasbag49
(g65
g51
NtRp858
(dp859
g54
(dp860
sg63
g588
sg56
(lp861
g49
(g70
g51
NtRp862
(dp863
g54
(dp864
g74
g75
ssg63
g858
sg56
(lp865
S'http_connection'
p866
asbag49
(g70
g51
NtRp867
(dp868
g54
(dp869
g81
g82
ssg63
g858
sg56
(lp870
S':'
asbag49
(g70
g51
NtRp871
(dp872
g54
(dp873
sg63
g858
sg56
(lp874
g49
(g50
g51
NtRp875
(dp876
g54
(dp877
g62
I4
ssg63
g871
sg56
(lp878
S'keep-alive'
p879
asbasbasbag49
(g65
g51
NtRp880
(dp881
g54
(dp882
sg63
g588
sg56
(lp883
g49
(g70
g51
NtRp884
(dp885
g54
(dp886
g74
g75
ssg63
g880
sg56
(lp887
S'http_cookie'
p888
asbag49
(g70
g51
NtRp889
(dp890
g54
(dp891
g81
g82
ssg63
g880
sg56
(lp892
S':'
asbag49
(g70
g51
NtRp893
(dp894
g54
(dp895
sg63
g880
sg56
(lp896
g49
(g50
g51
NtRp897
(dp898
g54
(dp899
g62
I4
ssg63
g893
sg56
(lp900
S'session_id_udi0312=127.0.0.1-fcd6a577-d448-4882-b7bc-f353da84ba3b; session_id_admin=127.0.0.1-c3f9aae6-4dc5-442d-b038-f9bb8f2de899'
p901
asbasbasbag49
(g65
g51
NtRp902
(dp903
g54
(dp904
sg63
g588
sg56
(lp905
g49
(g70
g51
NtRp906
(dp907
g54
(dp908
g74
g75
ssg63
g902
sg56
(lp909
S'http_host'
p910
asbag49
(g70
g51
NtRp911
(dp912
g54
(dp913
g81
g82
ssg63
g902
sg56
(lp914
S':'
asbag49
(g70
g51
NtRp915
(dp916
g54
(dp917
sg63
g902
sg56
(lp918
g49
(g50
g51
NtRp919
(dp920
g54
(dp921
g62
I4
ssg63
g915
sg56
(lp922
S'127.0.0.1:8000'
p923
asbasbasbag49
(g65
g51
NtRp924
(dp925
g54
(dp926
sg63
g588
sg56
(lp927
g49
(g70
g51
NtRp928
(dp929
g54
(dp930
g74
g75
ssg63
g924
sg56
(lp931
S'http_referer'
p932
asbag49
(g70
g51
NtRp933
(dp934
g54
(dp935
g81
g82
ssg63
g924
sg56
(lp936
S':'
asbag49
(g70
g51
NtRp937
(dp938
g54
(dp939
sg63
g924
sg56
(lp940
g49
(g50
g51
NtRp941
(dp942
g54
(dp943
g62
I4
ssg63
g937
sg56
(lp944
S'http://127.0.0.1:8000/all'
p945
asbasbasbag49
(g65
g51
NtRp946
(dp947
g54
(dp948
sg63
g588
sg56
(lp949
g49
(g70
g51
NtRp950
(dp951
g54
(dp952
g74
g75
ssg63
g946
sg56
(lp953
S'http_user_agent'
p954
asbag49
(g70
g51
NtRp955
(dp956
g54
(dp957
g81
g82
ssg63
g946
sg56
(lp958
S':'
asbag49
(g70
g51
NtRp959
(dp960
g54
(dp961
sg63
g946
sg56
(lp962
g49
(g50
g51
NtRp963
(dp964
g54
(dp965
g62
I4
ssg63
g959
sg56
(lp966
S'Mozilla/5.0 (Macintosh; Intel Mac OS X 10_7_3) AppleWebKit/535.11 (KHTML, like Gecko) Chrome/17.0.963.79 Safari/535.11'
p967
asbasbasbag49
(g65
g51
NtRp968
(dp969
g54
(dp970
sg63
g588
sg56
(lp971
g49
(g70
g51
NtRp972
(dp973
g54
(dp974
g74
g75
ssg63
g968
sg56
(lp975
S'is_jython'
p976
asbag49
(g70
g51
NtRp977
(dp978
g54
(dp979
g81
g82
ssg63
g968
sg56
(lp980
S':'
asbag49
(g70
g51
NtRp981
(dp982
g54
(dp983
sg63
g968
sg56
(lp984
g49
(g50
g51
NtRp985
(dp986
g54
(dp987
g62
I4
ssg63
g981
sg56
(lp988
g92
asbasbasbag49
(g65
g51
NtRp989
(dp990
g54
(dp991
sg63
g588
sg56
(lp992
g49
(g70
g51
NtRp993
(dp994
g54
(dp995
g74
g75
ssg63
g989
sg56
(lp996
S'is_pypy'
p997
asbag49
(g70
g51
NtRp998
(dp999
g54
(dp1000
g81
g82
ssg63
g989
sg56
(lp1001
S':'
asbag49
(g70
g51
NtRp1002
(dp1003
g54
(dp1004
sg63
g989
sg56
(lp1005
g49
(g50
g51
NtRp1006
(dp1007
g54
(dp1008
g62
I4
ssg63
g1002
sg56
(lp1009
g92
asbasbasbag49
(g65
g51
NtRp1010
(dp1011
g54
(dp1012
sg63
g588
sg56
(lp1013
g49
(g70
g51
NtRp1014
(dp1015
g54
(dp1016
g74
g75
ssg63
g1010
sg56
(lp1017
S'path_info'
p1018
asbag49
(g70
g51
NtRp1019
(dp1020
g54
(dp1021
g81
g82
ssg63
g1010
sg56
(lp1022
S':'
asbag49
(g70
g51
NtRp1023
(dp1024
g54
(dp1025
sg63
g1010
sg56
(lp1026
g49
(g50
g51
NtRp1027
(dp1028
g54
(dp1029
g62
I4
ssg63
g1023
sg56
(lp1030
S'/'
asbasbasbag49
(g65
g51
NtRp1031
(dp1032
g54
(dp1033
sg63
g588
sg56
(lp1034
g49
(g70
g51
NtRp1035
(dp1036
g54
(dp1037
g74
g75
ssg63
g1031
sg56
(lp1038
S'query_string'
p1039
asbag49
(g70
g51
NtRp1040
(dp1041
g54
(dp1042
g81
g82
ssg63
g1031
sg56
(lp1043
S':'
asbag49
(g70
g51
NtRp1044
(dp1045
g54
(dp1046
sg63
g1031
sg56
(lp1047
g49
(g50
g51
NtRp1048
(dp1049
g54
(dp1050
g62
I4
ssg63
g1044
sg56
(lp1051
S''
asbasbasbag49
(g65
g51
NtRp1052
(dp1053
g54
(dp1054
sg63
g588
sg56
(lp1055
g49
(g70
g51
NtRp1056
(dp1057
g54
(dp1058
g74
g75
ssg63
g1052
sg56
(lp1059
S'remote_addr'
p1060
asbag49
(g70
g51
NtRp1061
(dp1062
g54
(dp1063
g81
g82
ssg63
g1052
sg56
(lp1064
S':'
asbag49
(g70
g51
NtRp1065
(dp1066
g54
(dp1067
sg63
g1052
sg56
(lp1068
g49
(g50
g51
NtRp1069
(dp1070
g54
(dp1071
g62
I4
ssg63
g1065
sg56
(lp1072
g182
asbasbasbag49
(g65
g51
NtRp1073
(dp1074
g54
(dp1075
sg63
g588
sg56
(lp1076
g49
(g70
g51
NtRp1077
(dp1078
g54
(dp1079
g74
g75
ssg63
g1073
sg56
(lp1080
S'remote_port'
p1081
asbag49
(g70
g51
NtRp1082
(dp1083
g54
(dp1084
g81
g82
ssg63
g1073
sg56
(lp1085
S':'
asbag49
(g70
g51
NtRp1086
(dp1087
g54
(dp1088
sg63
g1073
sg56
(lp1089
g49
(g50
g51
NtRp1090
(dp1091
g54
(dp1092
g62
I4
ssg63
g1086
sg56
(lp1093
S'49719'
p1094
asbasbasbag49
(g65
g51
NtRp1095
(dp1096
g54
(dp1097
sg63
g588
sg56
(lp1098
g49
(g70
g51
NtRp1099
(dp1100
g54
(dp1101
g74
g75
ssg63
g1095
sg56
(lp1102
S'request_method'
p1103
asbag49
(g70
g51
NtRp1104
(dp1105
g54
(dp1106
g81
g82
ssg63
g1095
sg56
(lp1107
S':'
asbag49
(g70
g51
NtRp1108
(dp1109
g54
(dp1110
sg63
g1095
sg56
(lp1111
g49
(g50
g51
NtRp1112
(dp1113
g54
(dp1114
g62
I4
ssg63
g1108
sg56
(lp1115
S'GET'
p1116
asbasbasbag49
(g65
g51
NtRp1117
(dp1118
g54
(dp1119
sg63
g588
sg56
(lp1120
g49
(g70
g51
NtRp1121
(dp1122
g54
(dp1123
g74
g75
ssg63
g1117
sg56
(lp1124
S'request_uri'
p1125
asbag49
(g70
g51
NtRp1126
(dp1127
g54
(dp1128
g81
g82
ssg63
g1117
sg56
(lp1129
S':'
asbag49
(g70
g51
NtRp1130
(dp1131
g54
(dp1132
sg63
g1117
sg56
(lp1133
g49
(g50
g51
NtRp1134
(dp1135
g54
(dp1136
g62
I4
ssg63
g1130
sg56
(lp1137
S'/udi0312/default/index'
p1138
asbasbasbag49
(g65
g51
NtRp1139
(dp1140
g54
(dp1141
sg63
g588
sg56
(lp1142
g49
(g70
g51
NtRp1143
(dp1144
g54
(dp1145
g74
g75
ssg63
g1139
sg56
(lp1146
S'script_name'
p1147
asbag49
(g70
g51
NtRp1148
(dp1149
g54
(dp1150
g81
g82
ssg63
g1139
sg56
(lp1151
S':'
asbag49
(g70
g51
NtRp1152
(dp1153
g54
(dp1154
sg63
g1139
sg56
(lp1155
g49
(g50
g51
NtRp1156
(dp1157
g54
(dp1158
g62
I4
ssg63
g1152
sg56
(lp1159
S''
asbasbasbag49
(g65
g51
NtRp1160
(dp1161
g54
(dp1162
sg63
g588
sg56
(lp1163
g49
(g70
g51
NtRp1164
(dp1165
g54
(dp1166
g74
g75
ssg63
g1160
sg56
(lp1167
S'server_name'
p1168
asbag49
(g70
g51
NtRp1169
(dp1170
g54
(dp1171
g81
g82
ssg63
g1160
sg56
(lp1172
S':'
asbag49
(g70
g51
NtRp1173
(dp1174
g54
(dp1175
sg63
g1160
sg56
(lp1176
g49
(g50
g51
NtRp1177
(dp1178
g54
(dp1179
g62
I4
ssg63
g1173
sg56
(lp1180
S'Udi-Milos-MacBook-Pro.local'
p1181
asbasbasbag49
(g65
g51
NtRp1182
(dp1183
g54
(dp1184
sg63
g588
sg56
(lp1185
g49
(g70
g51
NtRp1186
(dp1187
g54
(dp1188
g74
g75
ssg63
g1182
sg56
(lp1189
S'server_port'
p1190
asbag49
(g70
g51
NtRp1191
(dp1192
g54
(dp1193
g81
g82
ssg63
g1182
sg56
(lp1194
S':'
asbag49
(g70
g51
NtRp1195
(dp1196
g54
(dp1197
sg63
g1182
sg56
(lp1198
g49
(g50
g51
NtRp1199
(dp1200
g54
(dp1201
g62
I4
ssg63
g1195
sg56
(lp1202
S'8000'
p1203
asbasbasbag49
(g65
g51
NtRp1204
(dp1205
g54
(dp1206
sg63
g588
sg56
(lp1207
g49
(g70
g51
NtRp1208
(dp1209
g54
(dp1210
g74
g75
ssg63
g1204
sg56
(lp1211
S'server_protocol'
p1212
asbag49
(g70
g51
NtRp1213
(dp1214
g54
(dp1215
g81
g82
ssg63
g1204
sg56
(lp1216
S':'
asbag49
(g70
g51
NtRp1217
(dp1218
g54
(dp1219
sg63
g1204
sg56
(lp1220
g49
(g50
g51
NtRp1221
(dp1222
g54
(dp1223
g62
I4
ssg63
g1217
sg56
(lp1224
S'HTTP/1.1'
p1225
asbasbasbag49
(g65
g51
NtRp1226
(dp1227
g54
(dp1228
sg63
g588
sg56
(lp1229
g49
(g70
g51
NtRp1230
(dp1231
g54
(dp1232
g74
g75
ssg63
g1226
sg56
(lp1233
S'server_software'
p1234
asbag49
(g70
g51
NtRp1235
(dp1236
g54
(dp1237
g81
g82
ssg63
g1226
sg56
(lp1238
S':'
asbag49
(g70
g51
NtRp1239
(dp1240
g54
(dp1241
sg63
g1226
sg56
(lp1242
g49
(g50
g51
NtRp1243
(dp1244
g54
(dp1245
g62
I4
ssg63
g1239
sg56
(lp1246
S'Rocket 1.2.4'
p1247
asbasbasbag49
(g65
g51
NtRp1248
(dp1249
g54
(dp1250
sg63
g588
sg56
(lp1251
g49
(g70
g51
NtRp1252
(dp1253
g54
(dp1254
g74
g75
ssg63
g1248
sg56
(lp1255
S'web2py_crontype'
p1256
asbag49
(g70
g51
NtRp1257
(dp1258
g54
(dp1259
g81
g82
ssg63
g1248
sg56
(lp1260
S':'
asbag49
(g70
g51
NtRp1261
(dp1262
g54
(dp1263
sg63
g1248
sg56
(lp1264
g49
(g50
g51
NtRp1265
(dp1266
g54
(dp1267
g62
I4
ssg63
g1261
sg56
(lp1268
S'hard'
p1269
asbasbasbag49
(g65
g51
NtRp1270
(dp1271
g54
(dp1272
sg63
g588
sg56
(lp1273
g49
(g70
g51
NtRp1274
(dp1275
g54
(dp1276
g74
g75
ssg63
g1270
sg56
(lp1277
S'web2py_original_uri'
p1278
asbag49
(g70
g51
NtRp1279
(dp1280
g54
(dp1281
g81
g82
ssg63
g1270
sg56
(lp1282
S':'
asbag49
(g70
g51
NtRp1283
(dp1284
g54
(dp1285
sg63
g1270
sg56
(lp1286
g49
(g50
g51
NtRp1287
(dp1288
g54
(dp1289
g62
I4
ssg63
g1283
sg56
(lp1290
S'/'
asbasbasbag49
(g65
g51
NtRp1291
(dp1292
g54
(dp1293
sg63
g588
sg56
(lp1294
g49
(g70
g51
NtRp1295
(dp1296
g54
(dp1297
g74
g75
ssg63
g1291
sg56
(lp1298
S'web2py_path'
p1299
asbag49
(g70
g51
NtRp1300
(dp1301
g54
(dp1302
g81
g82
ssg63
g1291
sg56
(lp1303
S':'
asbag49
(g70
g51
NtRp1304
(dp1305
g54
(dp1306
sg63
g1291
sg56
(lp1307
g49
(g50
g51
NtRp1308
(dp1309
g54
(dp1310
g62
I4
ssg63
g1304
sg56
(lp1311
g635
asbasbasbag49
(g65
g51
NtRp1312
(dp1313
g54
(dp1314
sg63
g588
sg56
(lp1315
g49
(g70
g51
NtRp1316
(dp1317
g54
(dp1318
g74
g75
ssg63
g1312
sg56
(lp1319
S'web2py_version'
p1320
asbag49
(g70
g51
NtRp1321
(dp1322
g54
(dp1323
g81
g82
ssg63
g1312
sg56
(lp1324
S':'
asbag49
(g70
g51
NtRp1325
(dp1326
g54
(dp1327
sg63
g1312
sg56
(lp1328
g49
(g50
g51
NtRp1329
(dp1330
g54
(dp1331
g62
I4
ssg63
g1325
sg56
(lp1332
g49
(g58
g51
NtRp1333
(dp1334
g54
(dp1335
g62
I3
ssg63
Nsg56
(lp1336
g49
(g65
g51
NtRp1337
(dp1338
g54
(dp1339
sg63
g1333
sg56
(lp1340
g49
(g70
g51
NtRp1341
(dp1342
g54
(dp1343
sg63
g1337
sg56
(lp1344
g49
(g50
g51
NtRp1345
(dp1346
g54
(dp1347
g62
I3
ssg63
g1341
sg56
(lp1348
S'1'
asbasbasbag49
(g65
g51
NtRp1349
(dp1350
g54
(dp1351
sg63
g1333
sg56
(lp1352
g49
(g70
g51
NtRp1353
(dp1354
g54
(dp1355
sg63
g1349
sg56
(lp1356
g49
(g50
g51
NtRp1357
(dp1358
g54
(dp1359
g62
I3
ssg63
g1353
sg56
(lp1360
S'99'
p1361
asbasbasbag49
(g65
g51
NtRp1362
(dp1363
g54
(dp1364
sg63
g1333
sg56
(lp1365
g49
(g70
g51
NtRp1366
(dp1367
g54
(dp1368
sg63
g1362
sg56
(lp1369
g49
(g50
g51
NtRp1370
(dp1371
g54
(dp1372
g62
I3
ssg63
g1366
sg56
(lp1373
S'7'
asbasbasbag49
(g65
g51
NtRp1374
(dp1375
g54
(dp1376
sg63
g1333
sg56
(lp1377
g49
(g70
g51
NtRp1378
(dp1379
g54
(dp1380
sg63
g1374
sg56
(lp1381
g49
(g50
g51
NtRp1382
(dp1383
g54
(dp1384
g62
I3
ssg63
g1378
sg56
(lp1385
S'datetime.datetime(2012, 3, 4, 22, 12, 8)'
p1386
asbasbasbag49
(g65
g51
NtRp1387
(dp1388
g54
(dp1389
sg63
g1333
sg56
(lp1390
g49
(g70
g51
NtRp1391
(dp1392
g54
(dp1393
sg63
g1387
sg56
(lp1394
g49
(g50
g51
NtRp1395
(dp1396
g54
(dp1397
g62
I3
ssg63
g1391
sg56
(lp1398
S'stable'
p1399
asbasbasbasbasbasbasbag49
(g65
g51
NtRp1400
(dp1401
g54
(dp1402
sg63
g588
sg56
(lp1403
g49
(g70
g51
NtRp1404
(dp1405
g54
(dp1406
g74
g75
ssg63
g1400
sg56
(lp1407
S'wsgi_errors'
p1408
asbag49
(g70
g51
NtRp1409
(dp1410
g54
(dp1411
g81
g82
ssg63
g1400
sg56
(lp1412
S':'
asbag49
(g70
g51
NtRp1413
(dp1414
g54
(dp1415
sg63
g1400
sg56
(lp1416
g49
(g50
g51
NtRp1417
(dp1418
g54
(dp1419
g62
I4
ssg63
g1413
sg56
(lp1420
S"<open file '<stderr>', mode 'w' at 0x4220b0>"
p1421
asbasbasbag49
(g65
g51
NtRp1422
(dp1423
g54
(dp1424
sg63
g588
sg56
(lp1425
g49
(g70
g51
NtRp1426
(dp1427
g54
(dp1428
g74
g75
ssg63
g1422
sg56
(lp1429
S'wsgi_file_wrapper'
p1430
asbag49
(g70
g51
NtRp1431
(dp1432
g54
(dp1433
g81
g82
ssg63
g1422
sg56
(lp1434
S':'
asbag49
(g70
g51
NtRp1435
(dp1436
g54
(dp1437
sg63
g1422
sg56
(lp1438
g49
(g50
g51
NtRp1439
(dp1440
g54
(dp1441
g62
I4
ssg63
g1435
sg56
(lp1442
S'<class wsgiref.util.FileWrapper at 0x225e6c0>'
p1443
asbasbasbag49
(g65
g51
NtRp1444
(dp1445
g54
(dp1446
sg63
g588
sg56
(lp1447
g49
(g70
g51
NtRp1448
(dp1449
g54
(dp1450
g74
g75
ssg63
g1444
sg56
(lp1451
S'wsgi_input'
p1452
asbag49
(g70
g51
NtRp1453
(dp1454
g54
(dp1455
g81
g82
ssg63
g1444
sg56
(lp1456
S':'
asbag49
(g70
g51
NtRp1457
(dp1458
g54
(dp1459
sg63
g1444
sg56
(lp1460
g49
(g50
g51
NtRp1461
(dp1462
g54
(dp1463
g62
I4
ssg63
g1457
sg56
(lp1464
S'<socket._fileobject object at 0xa2caaf0>'
p1465
asbasbasbag49
(g65
g51
NtRp1466
(dp1467
g54
(dp1468
sg63
g588
sg56
(lp1469
g49
(g70
g51
NtRp1470
(dp1471
g54
(dp1472
g74
g75
ssg63
g1466
sg56
(lp1473
S'wsgi_multiprocess'
p1474
asbag49
(g70
g51
NtRp1475
(dp1476
g54
(dp1477
g81
g82
ssg63
g1466
sg56
(lp1478
S':'
asbag49
(g70
g51
NtRp1479
(dp1480
g54
(dp1481
sg63
g1466
sg56
(lp1482
g49
(g50
g51
NtRp1483
(dp1484
g54
(dp1485
g62
I4
ssg63
g1479
sg56
(lp1486
g92
asbasbasbag49
(g65
g51
NtRp1487
(dp1488
g54
(dp1489
sg63
g588
sg56
(lp1490
g49
(g70
g51
NtRp1491
(dp1492
g54
(dp1493
g74
g75
ssg63
g1487
sg56
(lp1494
S'wsgi_multithread'
p1495
asbag49
(g70
g51
NtRp1496
(dp1497
g54
(dp1498
g81
g82
ssg63
g1487
sg56
(lp1499
S':'
asbag49
(g70
g51
NtRp1500
(dp1501
g54
(dp1502
sg63
g1487
sg56
(lp1503
g49
(g50
g51
NtRp1504
(dp1505
g54
(dp1506
g62
I4
ssg63
g1500
sg56
(lp1507
S'True'
p1508
asbasbasbag49
(g65
g51
NtRp1509
(dp1510
g54
(dp1511
sg63
g588
sg56
(lp1512
g49
(g70
g51
NtRp1513
(dp1514
g54
(dp1515
g74
g75
ssg63
g1509
sg56
(lp1516
S'wsgi_run_once'
p1517
asbag49
(g70
g51
NtRp1518
(dp1519
g54
(dp1520
g81
g82
ssg63
g1509
sg56
(lp1521
S':'
asbag49
(g70
g51
NtRp1522
(dp1523
g54
(dp1524
sg63
g1509
sg56
(lp1525
g49
(g50
g51
NtRp1526
(dp1527
g54
(dp1528
g62
I4
ssg63
g1522
sg56
(lp1529
g92
asbasbasbag49
(g65
g51
NtRp1530
(dp1531
g54
(dp1532
sg63
g588
sg56
(lp1533
g49
(g70
g51
NtRp1534
(dp1535
g54
(dp1536
g74
g75
ssg63
g1530
sg56
(lp1537
S'wsgi_url_scheme'
p1538
asbag49
(g70
g51
NtRp1539
(dp1540
g54
(dp1541
g81
g82
ssg63
g1530
sg56
(lp1542
S':'
asbag49
(g70
g51
NtRp1543
(dp1544
g54
(dp1545
sg63
g1530
sg56
(lp1546
g49
(g50
g51
NtRp1547
(dp1548
g54
(dp1549
g62
I4
ssg63
g1543
sg56
(lp1550
S'http'
p1551
asbasbasbag49
(g65
g51
NtRp1552
(dp1553
g54
(dp1554
sg63
g588
sg56
(lp1555
g49
(g70
g51
NtRp1556
(dp1557
g54
(dp1558
g74
g75
ssg63
g1552
sg56
(lp1559
S'wsgi_version'
p1560
asbag49
(g70
g51
NtRp1561
(dp1562
g54
(dp1563
g81
g82
ssg63
g1552
sg56
(lp1564
S':'
asbag49
(g70
g51
NtRp1565
(dp1566
g54
(dp1567
sg63
g1552
sg56
(lp1568
g49
(g50
g51
NtRp1569
(dp1570
g54
(dp1571
g62
I4
ssg63
g1565
sg56
(lp1572
g49
(g58
g51
NtRp1573
(dp1574
g54
(dp1575
g62
I3
ssg63
Nsg56
(lp1576
g49
(g65
g51
NtRp1577
(dp1578
g54
(dp1579
sg63
g1573
sg56
(lp1580
g49
(g70
g51
NtRp1581
(dp1582
g54
(dp1583
sg63
g1577
sg56
(lp1584
g49
(g50
g51
NtRp1585
(dp1586
g54
(dp1587
g62
I3
ssg63
g1581
sg56
(lp1588
S'1'
asbasbasbag49
(g65
g51
NtRp1589
(dp1590
g54
(dp1591
sg63
g1573
sg56
(lp1592
g49
(g70
g51
NtRp1593
(dp1594
g54
(dp1595
sg63
g1589
sg56
(lp1596
g49
(g50
g51
NtRp1597
(dp1598
g54
(dp1599
g62
I3
ssg63
g1593
sg56
(lp1600
S'0'
asbasbasbasbasbasbasbasbasbasbasbag49
(g65
g51
NtRp1601
(dp1602
g54
(dp1603
sg63
g59
sg56
(lp1604
g49
(g70
g51
NtRp1605
(dp1606
g54
(dp1607
g74
g75
ssg63
g1601
sg56
(lp1608
S'extension'
p1609
asbag49
(g70
g51
NtRp1610
(dp1611
g54
(dp1612
g81
g82
ssg63
g1601
sg56
(lp1613
S':'
asbag49
(g70
g51
NtRp1614
(dp1615
g54
(dp1616
sg63
g1601
sg56
(lp1617
g49
(g50
g51
NtRp1618
(dp1619
g54
(dp1620
g62
I5
ssg63
g1614
sg56
(lp1621
S'html'
p1622
asbasbasbag49
(g65
g51
NtRp1623
(dp1624
g54
(dp1625
sg63
g59
sg56
(lp1626
g49
(g70
g51
NtRp1627
(dp1628
g54
(dp1629
g74
g75
ssg63
g1623
sg56
(lp1630
S'folder'
p1631
asbag49
(g70
g51
NtRp1632
(dp1633
g54
(dp1634
g81
g82
ssg63
g1623
sg56
(lp1635
S':'
asbag49
(g70
g51
NtRp1636
(dp1637
g54
(dp1638
sg63
g1623
sg56
(lp1639
g49
(g50
g51
NtRp1640
(dp1641
g54
(dp1642
g62
I5
ssg63
g1636
sg56
(lp1643
S'/Users/udimilo/Documents/web2py/applications/udi0312/'
p1644
asbasbasbag49
(g65
g51
NtRp1645
(dp1646
g54
(dp1647
sg63
g59
sg56
(lp1648
g49
(g70
g51
NtRp1649
(dp1650
g54
(dp1651
g74
g75
ssg63
g1645
sg56
(lp1652
S'function'
p1653
asbag49
(g70
g51
NtRp1654
(dp1655
g54
(dp1656
g81
g82
ssg63
g1645
sg56
(lp1657
S':'
asbag49
(g70
g51
NtRp1658
(dp1659
g54
(dp1660
sg63
g1645
sg56
(lp1661
g49
(g50
g51
NtRp1662
(dp1663
g54
(dp1664
g62
I5
ssg63
g1658
sg56
(lp1665
S'index'
p1666
asbasbasbag49
(g65
g51
NtRp1667
(dp1668
g54
(dp1669
sg63
g59
sg56
(lp1670
g49
(g70
g51
NtRp1671
(dp1672
g54
(dp1673
g74
g75
ssg63
g1667
sg56
(lp1674
S'get_vars'
p1675
asbag49
(g70
g51
NtRp1676
(dp1677
g54
(dp1678
g81
g82
ssg63
g1667
sg56
(lp1679
S':'
asbag49
(g70
g51
NtRp1680
(dp1681
g54
(dp1682
sg63
g1667
sg56
(lp1683
g49
(g50
g51
NtRp1684
(dp1685
g54
(dp1686
g62
I5
ssg63
g1680
sg56
(lp1687
g49
(g58
g51
NtRp1688
(dp1689
g54
(dp1690
g62
I4
ssg63
Nsg56
(lp1691
sbasbasbasbag49
(g65
g51
NtRp1692
(dp1693
g54
(dp1694
sg63
g59
sg56
(lp1695
g49
(g70
g51
NtRp1696
(dp1697
g54
(dp1698
g74
g75
ssg63
g1692
sg56
(lp1699
S'global_settings'
p1700
asbag49
(g70
g51
NtRp1701
(dp1702
g54
(dp1703
g81
g82
ssg63
g1692
sg56
(lp1704
S':'
asbag49
(g70
g51
NtRp1705
(dp1706
g54
(dp1707
sg63
g1692
sg56
(lp1708
g49
(g50
g51
NtRp1709
(dp1710
g54
(dp1711
g62
I5
ssg63
g1705
sg56
(lp1712
g49
(g58
g51
NtRp1713
(dp1714
g54
(dp1715
g62
I4
ssg63
Nsg56
(lp1716
g49
(g65
g51
NtRp1717
(dp1718
g54
(dp1719
sg63
g1713
sg56
(lp1720
g49
(g70
g51
NtRp1721
(dp1722
g54
(dp1723
g74
g75
ssg63
g1717
sg56
(lp1724
g600
asbag49
(g70
g51
NtRp1725
(dp1726
g54
(dp1727
g81
g82
ssg63
g1717
sg56
(lp1728
S':'
asbag49
(g70
g51
NtRp1729
(dp1730
g54
(dp1731
sg63
g1717
sg56
(lp1732
g49
(g50
g51
NtRp1733
(dp1734
g54
(dp1735
g62
I4
ssg63
g1729
sg56
(lp1736
S"set(['/Users/udimilo/Documents/web2py/applications/udi0312/', '/Users/udimilo/Documents/web2py/applications/admin/'])"
p1737
asbasbasbag49
(g65
g51
NtRp1738
(dp1739
g54
(dp1740
sg63
g1713
sg56
(lp1741
g49
(g70
g51
NtRp1742
(dp1743
g54
(dp1744
g74
g75
ssg63
g1738
sg56
(lp1745
g622
asbag49
(g70
g51
NtRp1746
(dp1747
g54
(dp1748
g81
g82
ssg63
g1738
sg56
(lp1749
S':'
asbag49
(g70
g51
NtRp1750
(dp1751
g54
(dp1752
sg63
g1738
sg56
(lp1753
g49
(g50
g51
NtRp1754
(dp1755
g54
(dp1756
g62
I4
ssg63
g1750
sg56
(lp1757
g635
asbasbasbag49
(g65
g51
NtRp1758
(dp1759
g54
(dp1760
sg63
g1713
sg56
(lp1761
g49
(g70
g51
NtRp1762
(dp1763
g54
(dp1764
g74
g75
ssg63
g1758
sg56
(lp1765
g644
asbag49
(g70
g51
NtRp1766
(dp1767
g54
(dp1768
g81
g82
ssg63
g1758
sg56
(lp1769
S':'
asbag49
(g70
g51
NtRp1770
(dp1771
g54
(dp1772
sg63
g1758
sg56
(lp1773
g49
(g50
g51
NtRp1774
(dp1775
g54
(dp1776
g62
I4
ssg63
g1770
sg56
(lp1777
g49
(g58
g51
NtRp1778
(dp1779
g54
(dp1780
g62
I3
ssg63
Nsg56
(lp1781
sbasbasbasbag49
(g65
g51
NtRp1782
(dp1783
g54
(dp1784
sg63
g1713
sg56
(lp1785
g49
(g70
g51
NtRp1786
(dp1787
g54
(dp1788
g74
g75
ssg63
g1782
sg56
(lp1789
g669
asbag49
(g70
g51
NtRp1790
(dp1791
g54
(dp1792
g81
g82
ssg63
g1782
sg56
(lp1793
S':'
asbag49
(g70
g51
NtRp1794
(dp1795
g54
(dp1796
sg63
g1782
sg56
(lp1797
g49
(g50
g51
NtRp1798
(dp1799
g54
(dp1800
g62
I4
ssg63
g1794
sg56
(lp1801
S"<Values at 0x23196e8: {'verbose': False, 'ip': '127.0.0.1', 'shutdown_timeout': 5, 'taskbar': False, 'nocron': False, 'pid_filename': 'httpserver.pid', 'maxthreads': None, 'softcron': False, 'server_name': 'Udi-Milos-MacBook-Pro.local', 'bpython': False, 'nogui': False, 'port': 8000, 'extcron': False, 'debuglevel': 30, 'test': None, 'folder': '/Users/udimilo/Documents/web2py', 'config': '', 'import_models': False, 'winservice': '', 'shell': None, 'run': '', 'log_filename': 'httpserver.log', 'args': [''], 'socket_timeout': 5, 'ssl_ca_certificate': None, 'scheduler': None, 'profiler_filename': None, 'ssl_private_key': '', 'password': '<ask>', 'request_queue_size': 5, 'ssl_certificate': '', 'cronjob': False, 'numthreads': None, 'quiet': False, 'interfaces': None, 'minthreads': None, 'timeout': 10, 'plain': False, 'nobanner': False}>"
p1802
asbasbasbag49
(g65
g51
NtRp1803
(dp1804
g54
(dp1805
sg63
g1713
sg56
(lp1806
g49
(g70
g51
NtRp1807
(dp1808
g54
(dp1809
g74
g75
ssg63
g1803
sg56
(lp1810
g691
asbag49
(g70
g51
NtRp1811
(dp1812
g54
(dp1813
g81
g82
ssg63
g1803
sg56
(lp1814
S':'
asbag49
(g70
g51
NtRp1815
(dp1816
g54
(dp1817
sg63
g1803
sg56
(lp1818
g49
(g50
g51
NtRp1819
(dp1820
g54
(dp1821
g62
I4
ssg63
g1815
sg56
(lp1822
S'set([])'
p1823
asbasbasbag49
(g65
g51
NtRp1824
(dp1825
g54
(dp1826
sg63
g1713
sg56
(lp1827
g49
(g70
g51
NtRp1828
(dp1829
g54
(dp1830
g74
g75
ssg63
g1824
sg56
(lp1831
g713
asbag49
(g70
g51
NtRp1832
(dp1833
g54
(dp1834
g81
g82
ssg63
g1824
sg56
(lp1835
S':'
asbag49
(g70
g51
NtRp1836
(dp1837
g54
(dp1838
sg63
g1824
sg56
(lp1839
g49
(g50
g51
NtRp1840
(dp1841
g54
(dp1842
g62
I4
ssg63
g1836
sg56
(lp1843
g92
asbasbasbag49
(g65
g51
NtRp1844
(dp1845
g54
(dp1846
sg63
g1713
sg56
(lp1847
g49
(g70
g51
NtRp1848
(dp1849
g54
(dp1850
g74
g75
ssg63
g1844
sg56
(lp1851
g734
asbag49
(g70
g51
NtRp1852
(dp1853
g54
(dp1854
g81
g82
ssg63
g1844
sg56
(lp1855
S':'
asbag49
(g70
g51
NtRp1856
(dp1857
g54
(dp1858
sg63
g1844
sg56
(lp1859
g49
(g50
g51
NtRp1860
(dp1861
g54
(dp1862
g62
I4
ssg63
g1856
sg56
(lp1863
g747
asbasbasbag49
(g65
g51
NtRp1864
(dp1865
g54
(dp1866
sg63
g1713
sg56
(lp1867
g49
(g70
g51
NtRp1868
(dp1869
g54
(dp1870
g74
g75
ssg63
g1864
sg56
(lp1871
g976
asbag49
(g70
g51
NtRp1872
(dp1873
g54
(dp1874
g81
g82
ssg63
g1864
sg56
(lp1875
S':'
asbag49
(g70
g51
NtRp1876
(dp1877
g54
(dp1878
sg63
g1864
sg56
(lp1879
g49
(g50
g51
NtRp1880
(dp1881
g54
(dp1882
g62
I4
ssg63
g1876
sg56
(lp1883
g92
asbasbasbag49
(g65
g51
NtRp1884
(dp1885
g54
(dp1886
sg63
g1713
sg56
(lp1887
g49
(g70
g51
NtRp1888
(dp1889
g54
(dp1890
g74
g75
ssg63
g1884
sg56
(lp1891
g997
asbag49
(g70
g51
NtRp1892
(dp1893
g54
(dp1894
g81
g82
ssg63
g1884
sg56
(lp1895
S':'
asbag49
(g70
g51
NtRp1896
(dp1897
g54
(dp1898
sg63
g1884
sg56
(lp1899
g49
(g50
g51
NtRp1900
(dp1901
g54
(dp1902
g62
I4
ssg63
g1896
sg56
(lp1903
g92
asbasbasbag49
(g65
g51
NtRp1904
(dp1905
g54
(dp1906
sg63
g1713
sg56
(lp1907
g49
(g70
g51
NtRp1908
(dp1909
g54
(dp1910
g74
g75
ssg63
g1904
sg56
(lp1911
g1256
asbag49
(g70
g51
NtRp1912
(dp1913
g54
(dp1914
g81
g82
ssg63
g1904
sg56
(lp1915
S':'
asbag49
(g70
g51
NtRp1916
(dp1917
g54
(dp1918
sg63
g1904
sg56
(lp1919
g49
(g50
g51
NtRp1920
(dp1921
g54
(dp1922
g62
I4
ssg63
g1916
sg56
(lp1923
g1269
asbasbasbag49
(g65
g51
NtRp1924
(dp1925
g54
(dp1926
sg63
g1713
sg56
(lp1927
g49
(g70
g51
NtRp1928
(dp1929
g54
(dp1930
g74
g75
ssg63
g1924
sg56
(lp1931
g1320
asbag49
(g70
g51
NtRp1932
(dp1933
g54
(dp1934
g81
g82
ssg63
g1924
sg56
(lp1935
S':'
asbag49
(g70
g51
NtRp1936
(dp1937
g54
(dp1938
sg63
g1924
sg56
(lp1939
g49
(g50
g51
NtRp1940
(dp1941
g54
(dp1942
g62
I4
ssg63
g1936
sg56
(lp1943
g49
(g58
g51
NtRp1944
(dp1945
g54
(dp1946
g62
I3
ssg63
Nsg56
(lp1947
g49
(g65
g51
NtRp1948
(dp1949
g54
(dp1950
sg63
g1944
sg56
(lp1951
g49
(g70
g51
NtRp1952
(dp1953
g54
(dp1954
sg63
g1948
sg56
(lp1955
g49
(g50
g51
NtRp1956
(dp1957
g54
(dp1958
g62
I3
ssg63
g1952
sg56
(lp1959
S'1'
asbasbasbag49
(g65
g51
NtRp1960
(dp1961
g54
(dp1962
sg63
g1944
sg56
(lp1963
g49
(g70
g51
NtRp1964
(dp1965
g54
(dp1966
sg63
g1960
sg56
(lp1967
g49
(g50
g51
NtRp1968
(dp1969
g54
(dp1970
g62
I3
ssg63
g1964
sg56
(lp1971
S'99'
p1972
asbasbasbag49
(g65
g51
NtRp1973
(dp1974
g54
(dp1975
sg63
g1944
sg56
(lp1976
g49
(g70
g51
NtRp1977
(dp1978
g54
(dp1979
sg63
g1973
sg56
(lp1980
g49
(g50
g51
NtRp1981
(dp1982
g54
(dp1983
g62
I3
ssg63
g1977
sg56
(lp1984
S'7'
asbasbasbag49
(g65
g51
NtRp1985
(dp1986
g54
(dp1987
sg63
g1944
sg56
(lp1988
g49
(g70
g51
NtRp1989
(dp1990
g54
(dp1991
sg63
g1985
sg56
(lp1992
g49
(g50
g51
NtRp1993
(dp1994
g54
(dp1995
g62
I3
ssg63
g1989
sg56
(lp1996
S'datetime.datetime(2012, 3, 4, 22, 12, 8)'
p1997
asbasbasbag49
(g65
g51
NtRp1998
(dp1999
g54
(dp2000
sg63
g1944
sg56
(lp2001
g49
(g70
g51
NtRp2002
(dp2003
g54
(dp2004
sg63
g1998
sg56
(lp2005
g49
(g50
g51
NtRp2006
(dp2007
g54
(dp2008
g62
I3
ssg63
g2002
sg56
(lp2009
g1399
asbasbasbasbasbasbasbasbasbasbasbag49
(g65
g51
NtRp2010
(dp2011
g54
(dp2012
sg63
g59
sg56
(lp2013
g49
(g70
g51
NtRp2014
(dp2015
g54
(dp2016
g74
g75
ssg63
g2010
sg56
(lp2017
S'is_https'
p2018
asbag49
(g70
g51
NtRp2019
(dp2020
g54
(dp2021
g81
g82
ssg63
g2010
sg56
(lp2022
S':'
asbag49
(g70
g51
NtRp2023
(dp2024
g54
(dp2025
sg63
g2010
sg56
(lp2026
g49
(g50
g51
NtRp2027
(dp2028
g54
(dp2029
g62
I5
ssg63
g2023
sg56
(lp2030
g92
asbasbasbag49
(g65
g51
NtRp2031
(dp2032
g54
(dp2033
sg63
g59
sg56
(lp2034
g49
(g70
g51
NtRp2035
(dp2036
g54
(dp2037
g74
g75
ssg63
g2031
sg56
(lp2038
S'is_local'
p2039
asbag49
(g70
g51
NtRp2040
(dp2041
g54
(dp2042
g81
g82
ssg63
g2031
sg56
(lp2043
S':'
asbag49
(g70
g51
NtRp2044
(dp2045
g54
(dp2046
sg63
g2031
sg56
(lp2047
g49
(g50
g51
NtRp2048
(dp2049
g54
(dp2050
g62
I5
ssg63
g2044
sg56
(lp2051
g1508
asbasbasbag49
(g65
g51
NtRp2052
(dp2053
g54
(dp2054
sg63
g59
sg56
(lp2055
g49
(g70
g51
NtRp2056
(dp2057
g54
(dp2058
g74
g75
ssg63
g2052
sg56
(lp2059
S'is_restful'
p2060
asbag49
(g70
g51
NtRp2061
(dp2062
g54
(dp2063
g81
g82
ssg63
g2052
sg56
(lp2064
S':'
asbag49
(g70
g51
NtRp2065
(dp2066
g54
(dp2067
sg63
g2052
sg56
(lp2068
g49
(g50
g51
NtRp2069
(dp2070
g54
(dp2071
g62
I5
ssg63
g2065
sg56
(lp2072
g92
asbasbasbag49
(g65
g51
NtRp2073
(dp2074
g54
(dp2075
sg63
g59
sg56
(lp2076
g49
(g70
g51
NtRp2077
(dp2078
g54
(dp2079
g74
g75
ssg63
g2073
sg56
(lp2080
S'now'
p2081
asbag49
(g70
g51
NtRp2082
(dp2083
g54
(dp2084
g81
g82
ssg63
g2073
sg56
(lp2085
S':'
asbag49
(g70
g51
NtRp2086
(dp2087
g54
(dp2088
sg63
g2073
sg56
(lp2089
g49
(g50
g51
NtRp2090
(dp2091
g54
(dp2092
g62
I5
ssg63
g2086
sg56
(lp2093
S'datetime.datetime(2012, 3, 20, 12, 59, 20, 638238)'
p2094
asbasbasbag49
(g65
g51
NtRp2095
(dp2096
g54
(dp2097
sg63
g59
sg56
(lp2098
g49
(g70
g51
NtRp2099
(dp2100
g54
(dp2101
g74
g75
ssg63
g2095
sg56
(lp2102
S'post_vars'
p2103
asbag49
(g70
g51
NtRp2104
(dp2105
g54
(dp2106
g81
g82
ssg63
g2095
sg56
(lp2107
S':'
asbag49
(g70
g51
NtRp2108
(dp2109
g54
(dp2110
sg63
g2095
sg56
(lp2111
g49
(g50
g51
NtRp2112
(dp2113
g54
(dp2114
g62
I5
ssg63
g2108
sg56
(lp2115
g49
(g58
g51
NtRp2116
(dp2117
g54
(dp2118
g62
I4
ssg63
Nsg56
(lp2119
sbasbasbasbag49
(g65
g51
NtRp2120
(dp2121
g54
(dp2122
sg63
g59
sg56
(lp2123
g49
(g70
g51
NtRp2124
(dp2125
g54
(dp2126
g74
g75
ssg63
g2120
sg56
(lp2127
S'url'
p2128
asbag49
(g70
g51
NtRp2129
(dp2130
g54
(dp2131
g81
g82
ssg63
g2120
sg56
(lp2132
S':'
asbag49
(g70
g51
NtRp2133
(dp2134
g54
(dp2135
sg63
g2120
sg56
(lp2136
g49
(g50
g51
NtRp2137
(dp2138
g54
(dp2139
g62
I5
ssg63
g2133
sg56
(lp2140
S'/'
asbasbasbag49
(g65
g51
NtRp2141
(dp2142
g54
(dp2143
sg63
g59
sg56
(lp2144
g49
(g70
g51
NtRp2145
(dp2146
g54
(dp2147
g74
g75
ssg63
g2141
sg56
(lp2148
S'utcnow'
p2149
asbag49
(g70
g51
NtRp2150
(dp2151
g54
(dp2152
g81
g82
ssg63
g2141
sg56
(lp2153
S':'
asbag49
(g70
g51
NtRp2154
(dp2155
g54
(dp2156
sg63
g2141
sg56
(lp2157
g49
(g50
g51
NtRp2158
(dp2159
g54
(dp2160
g62
I5
ssg63
g2154
sg56
(lp2161
S'datetime.datetime(2012, 3, 20, 16, 59, 20, 638255)'
p2162
asbasbasbag49
(g65
g51
NtRp2163
(dp2164
g54
(dp2165
sg63
g59
sg56
(lp2166
g49
(g70
g51
NtRp2167
(dp2168
g54
(dp2169
g74
g75
ssg63
g2163
sg56
(lp2170
S'uuid'
p2171
asbag49
(g70
g51
NtRp2172
(dp2173
g54
(dp2174
g81
g82
ssg63
g2163
sg56
(lp2175
S':'
asbag49
(g70
g51
NtRp2176
(dp2177
g54
(dp2178
sg63
g2163
sg56
(lp2179
g49
(g50
g51
NtRp2180
(dp2181
g54
(dp2182
g62
I5
ssg63
g2176
sg56
(lp2183
S'udi0312/127.0.0.1.2012-03-20.12-59-20.0c32332b-0347-40a6-a48d-44a81f3e96a2'
p2184
asbasbasbag49
(g65
g51
NtRp2185
(dp2186
g54
(dp2187
sg63
g59
sg56
(lp2188
g49
(g70
g51
NtRp2189
(dp2190
g54
(dp2191
g74
g75
ssg63
g2185
sg56
(lp2192
S'vars'
p2193
asbag49
(g70
g51
NtRp2194
(dp2195
g54
(dp2196
g81
g82
ssg63
g2185
sg56
(lp2197
S':'
asbag49
(g70
g51
NtRp2198
(dp2199
g54
(dp2200
sg63
g2185
sg56
(lp2201
g49
(g50
g51
NtRp2202
(dp2203
g54
(dp2204
g62
I5
ssg63
g2198
sg56
(lp2205
g49
(g58
g51
NtRp2206
(dp2207
g54
(dp2208
g62
I4
ssg63
Nsg56
(lp2209
sbasbasbasbag49
(g65
g51
NtRp2210
(dp2211
g54
(dp2212
sg63
g59
sg56
(lp2213
g49
(g70
g51
NtRp2214
(dp2215
g54
(dp2216
g74
g75
ssg63
g2210
sg56
(lp2217
S'wsgi'
p2218
asbag49
(g70
g51
NtRp2219
(dp2220
g54
(dp2221
g81
g82
ssg63
g2210
sg56
(lp2222
S':'
asbag49
(g70
g51
NtRp2223
(dp2224
g54
(dp2225
sg63
g2210
sg56
(lp2226
g49
(g50
g51
NtRp2227
(dp2228
g54
(dp2229
g62
I5
ssg63
g2223
sg56
(lp2230
g49
(g58
g51
NtRp2231
(dp2232
g54
(dp2233
g62
I4
ssg63
Nsg56
(lp2234
g49
(g65
g51
NtRp2235
(dp2236
g54
(dp2237
sg63
g2231
sg56
(lp2238
g49
(g70
g51
NtRp2239
(dp2240
g54
(dp2241
g74
g75
ssg63
g2235
sg56
(lp2242
S'environ'
p2243
asbag49
(g70
g51
NtRp2244
(dp2245
g54
(dp2246
g81
g82
ssg63
g2235
sg56
(lp2247
S':'
asbag49
(g70
g51
NtRp2248
(dp2249
g54
(dp2250
sg63
g2235
sg56
(lp2251
g49
(g50
g51
NtRp2252
(dp2253
g54
(dp2254
g62
I4
ssg63
g2248
sg56
(lp2255
g49
(g58
g51
NtRp2256
(dp2257
g54
(dp2258
g62
I3
ssg63
Nsg56
(lp2259
g49
(g65
g51
NtRp2260
(dp2261
g54
(dp2262
sg63
g2256
sg56
(lp2263
g49
(g70
g51
NtRp2264
(dp2265
g54
(dp2266
g74
g75
ssg63
g2260
sg56
(lp2267
S'HTTP_ACCEPT'
p2268
asbag49
(g70
g51
NtRp2269
(dp2270
g54
(dp2271
g81
g82
ssg63
g2260
sg56
(lp2272
S':'
asbag49
(g70
g51
NtRp2273
(dp2274
g54
(dp2275
sg63
g2260
sg56
(lp2276
g49
(g50
g51
NtRp2277
(dp2278
g54
(dp2279
g62
I3
ssg63
g2273
sg56
(lp2280
g769
asbasbasbag49
(g65
g51
NtRp2281
(dp2282
g54
(dp2283
sg63
g2256
sg56
(lp2284
g49
(g70
g51
NtRp2285
(dp2286
g54
(dp2287
g74
g75
ssg63
g2281
sg56
(lp2288
S'HTTP_ACCEPT_CHARSET'
p2289
asbag49
(g70
g51
NtRp2290
(dp2291
g54
(dp2292
g81
g82
ssg63
g2281
sg56
(lp2293
S':'
asbag49
(g70
g51
NtRp2294
(dp2295
g54
(dp2296
sg63
g2281
sg56
(lp2297
g49
(g50
g51
NtRp2298
(dp2299
g54
(dp2300
g62
I3
ssg63
g2294
sg56
(lp2301
g791
asbasbasbag49
(g65
g51
NtRp2302
(dp2303
g54
(dp2304
sg63
g2256
sg56
(lp2305
g49
(g70
g51
NtRp2306
(dp2307
g54
(dp2308
g74
g75
ssg63
g2302
sg56
(lp2309
S'HTTP_ACCEPT_ENCODING'
p2310
asbag49
(g70
g51
NtRp2311
(dp2312
g54
(dp2313
g81
g82
ssg63
g2302
sg56
(lp2314
S':'
asbag49
(g70
g51
NtRp2315
(dp2316
g54
(dp2317
sg63
g2302
sg56
(lp2318
g49
(g50
g51
NtRp2319
(dp2320
g54
(dp2321
g62
I3
ssg63
g2315
sg56
(lp2322
g813
asbasbasbag49
(g65
g51
NtRp2323
(dp2324
g54
(dp2325
sg63
g2256
sg56
(lp2326
g49
(g70
g51
NtRp2327
(dp2328
g54
(dp2329
g74
g75
ssg63
g2323
sg56
(lp2330
S'HTTP_ACCEPT_LANGUAGE'
p2331
asbag49
(g70
g51
NtRp2332
(dp2333
g54
(dp2334
g81
g82
ssg63
g2323
sg56
(lp2335
S':'
asbag49
(g70
g51
NtRp2336
(dp2337
g54
(dp2338
sg63
g2323
sg56
(lp2339
g49
(g50
g51
NtRp2340
(dp2341
g54
(dp2342
g62
I3
ssg63
g2336
sg56
(lp2343
g835
asbasbasbag49
(g65
g51
NtRp2344
(dp2345
g54
(dp2346
sg63
g2256
sg56
(lp2347
g49
(g70
g51
NtRp2348
(dp2349
g54
(dp2350
g74
g75
ssg63
g2344
sg56
(lp2351
S'HTTP_CACHE_CONTROL'
p2352
asbag49
(g70
g51
NtRp2353
(dp2354
g54
(dp2355
g81
g82
ssg63
g2344
sg56
(lp2356
S':'
asbag49
(g70
g51
NtRp2357
(dp2358
g54
(dp2359
sg63
g2344
sg56
(lp2360
g49
(g50
g51
NtRp2361
(dp2362
g54
(dp2363
g62
I3
ssg63
g2357
sg56
(lp2364
g857
asbasbasbag49
(g65
g51
NtRp2365
(dp2366
g54
(dp2367
sg63
g2256
sg56
(lp2368
g49
(g70
g51
NtRp2369
(dp2370
g54
(dp2371
g74
g75
ssg63
g2365
sg56
(lp2372
S'HTTP_CONNECTION'
p2373
asbag49
(g70
g51
NtRp2374
(dp2375
g54
(dp2376
g81
g82
ssg63
g2365
sg56
(lp2377
S':'
asbag49
(g70
g51
NtRp2378
(dp2379
g54
(dp2380
sg63
g2365
sg56
(lp2381
g49
(g50
g51
NtRp2382
(dp2383
g54
(dp2384
g62
I3
ssg63
g2378
sg56
(lp2385
g879
asbasbasbag49
(g65
g51
NtRp2386
(dp2387
g54
(dp2388
sg63
g2256
sg56
(lp2389
g49
(g70
g51
NtRp2390
(dp2391
g54
(dp2392
g74
g75
ssg63
g2386
sg56
(lp2393
S'HTTP_COOKIE'
p2394
asbag49
(g70
g51
NtRp2395
(dp2396
g54
(dp2397
g81
g82
ssg63
g2386
sg56
(lp2398
S':'
asbag49
(g70
g51
NtRp2399
(dp2400
g54
(dp2401
sg63
g2386
sg56
(lp2402
g49
(g50
g51
NtRp2403
(dp2404
g54
(dp2405
g62
I3
ssg63
g2399
sg56
(lp2406
g901
asbasbasbag49
(g65
g51
NtRp2407
(dp2408
g54
(dp2409
sg63
g2256
sg56
(lp2410
g49
(g70
g51
NtRp2411
(dp2412
g54
(dp2413
g74
g75
ssg63
g2407
sg56
(lp2414
S'HTTP_HOST'
p2415
asbag49
(g70
g51
NtRp2416
(dp2417
g54
(dp2418
g81
g82
ssg63
g2407
sg56
(lp2419
S':'
asbag49
(g70
g51
NtRp2420
(dp2421
g54
(dp2422
sg63
g2407
sg56
(lp2423
g49
(g50
g51
NtRp2424
(dp2425
g54
(dp2426
g62
I3
ssg63
g2420
sg56
(lp2427
g923
asbasbasbag49
(g65
g51
NtRp2428
(dp2429
g54
(dp2430
sg63
g2256
sg56
(lp2431
g49
(g70
g51
NtRp2432
(dp2433
g54
(dp2434
g74
g75
ssg63
g2428
sg56
(lp2435
S'HTTP_REFERER'
p2436
asbag49
(g70
g51
NtRp2437
(dp2438
g54
(dp2439
g81
g82
ssg63
g2428
sg56
(lp2440
S':'
asbag49
(g70
g51
NtRp2441
(dp2442
g54
(dp2443
sg63
g2428
sg56
(lp2444
g49
(g50
g51
NtRp2445
(dp2446
g54
(dp2447
g62
I3
ssg63
g2441
sg56
(lp2448
g945
asbasbasbag49
(g65
g51
NtRp2449
(dp2450
g54
(dp2451
sg63
g2256
sg56
(lp2452
g49
(g70
g51
NtRp2453
(dp2454
g54
(dp2455
g74
g75
ssg63
g2449
sg56
(lp2456
S'HTTP_USER_AGENT'
p2457
asbag49
(g70
g51
NtRp2458
(dp2459
g54
(dp2460
g81
g82
ssg63
g2449
sg56
(lp2461
S':'
asbag49
(g70
g51
NtRp2462
(dp2463
g54
(dp2464
sg63
g2449
sg56
(lp2465
g49
(g50
g51
NtRp2466
(dp2467
g54
(dp2468
g62
I3
ssg63
g2462
sg56
(lp2469
g967
asbasbasbag49
(g65
g51
NtRp2470
(dp2471
g54
(dp2472
sg63
g2256
sg56
(lp2473
g49
(g70
g51
NtRp2474
(dp2475
g54
(dp2476
g74
g75
ssg63
g2470
sg56
(lp2477
S'PATH_INFO'
p2478
asbag49
(g70
g51
NtRp2479
(dp2480
g54
(dp2481
g81
g82
ssg63
g2470
sg56
(lp2482
S':'
asbag49
(g70
g51
NtRp2483
(dp2484
g54
(dp2485
sg63
g2470
sg56
(lp2486
g49
(g50
g51
NtRp2487
(dp2488
g54
(dp2489
g62
I3
ssg63
g2483
sg56
(lp2490
S'/'
asbasbasbag49
(g65
g51
NtRp2491
(dp2492
g54
(dp2493
sg63
g2256
sg56
(lp2494
g49
(g70
g51
NtRp2495
(dp2496
g54
(dp2497
g74
g75
ssg63
g2491
sg56
(lp2498
S'QUERY_STRING'
p2499
asbag49
(g70
g51
NtRp2500
(dp2501
g54
(dp2502
g81
g82
ssg63
g2491
sg56
(lp2503
S':'
asbag49
(g70
g51
NtRp2504
(dp2505
g54
(dp2506
sg63
g2491
sg56
(lp2507
g49
(g50
g51
NtRp2508
(dp2509
g54
(dp2510
g62
I3
ssg63
g2504
sg56
(lp2511
S''
asbasbasbag49
(g65
g51
NtRp2512
(dp2513
g54
(dp2514
sg63
g2256
sg56
(lp2515
g49
(g70
g51
NtRp2516
(dp2517
g54
(dp2518
g74
g75
ssg63
g2512
sg56
(lp2519
S'REMOTE_ADDR'
p2520
asbag49
(g70
g51
NtRp2521
(dp2522
g54
(dp2523
g81
g82
ssg63
g2512
sg56
(lp2524
S':'
asbag49
(g70
g51
NtRp2525
(dp2526
g54
(dp2527
sg63
g2512
sg56
(lp2528
g49
(g50
g51
NtRp2529
(dp2530
g54
(dp2531
g62
I3
ssg63
g2525
sg56
(lp2532
g182
asbasbasbag49
(g65
g51
NtRp2533
(dp2534
g54
(dp2535
sg63
g2256
sg56
(lp2536
g49
(g70
g51
NtRp2537
(dp2538
g54
(dp2539
g74
g75
ssg63
g2533
sg56
(lp2540
S'REMOTE_PORT'
p2541
asbag49
(g70
g51
NtRp2542
(dp2543
g54
(dp2544
g81
g82
ssg63
g2533
sg56
(lp2545
S':'
asbag49
(g70
g51
NtRp2546
(dp2547
g54
(dp2548
sg63
g2533
sg56
(lp2549
g49
(g50
g51
NtRp2550
(dp2551
g54
(dp2552
g62
I3
ssg63
g2546
sg56
(lp2553
g1094
asbasbasbag49
(g65
g51
NtRp2554
(dp2555
g54
(dp2556
sg63
g2256
sg56
(lp2557
g49
(g70
g51
NtRp2558
(dp2559
g54
(dp2560
g74
g75
ssg63
g2554
sg56
(lp2561
S'REQUEST_METHOD'
p2562
asbag49
(g70
g51
NtRp2563
(dp2564
g54
(dp2565
g81
g82
ssg63
g2554
sg56
(lp2566
S':'
asbag49
(g70
g51
NtRp2567
(dp2568
g54
(dp2569
sg63
g2554
sg56
(lp2570
g49
(g50
g51
NtRp2571
(dp2572
g54
(dp2573
g62
I3
ssg63
g2567
sg56
(lp2574
g1116
asbasbasbag49
(g65
g51
NtRp2575
(dp2576
g54
(dp2577
sg63
g2256
sg56
(lp2578
g49
(g70
g51
NtRp2579
(dp2580
g54
(dp2581
g74
g75
ssg63
g2575
sg56
(lp2582
S'REQUEST_URI'
p2583
asbag49
(g70
g51
NtRp2584
(dp2585
g54
(dp2586
g81
g82
ssg63
g2575
sg56
(lp2587
S':'
asbag49
(g70
g51
NtRp2588
(dp2589
g54
(dp2590
sg63
g2575
sg56
(lp2591
g49
(g50
g51
NtRp2592
(dp2593
g54
(dp2594
g62
I3
ssg63
g2588
sg56
(lp2595
g1138
asbasbasbag49
(g65
g51
NtRp2596
(dp2597
g54
(dp2598
sg63
g2256
sg56
(lp2599
g49
(g70
g51
NtRp2600
(dp2601
g54
(dp2602
g74
g75
ssg63
g2596
sg56
(lp2603
S'SCRIPT_NAME'
p2604
asbag49
(g70
g51
NtRp2605
(dp2606
g54
(dp2607
g81
g82
ssg63
g2596
sg56
(lp2608
S':'
asbag49
(g70
g51
NtRp2609
(dp2610
g54
(dp2611
sg63
g2596
sg56
(lp2612
g49
(g50
g51
NtRp2613
(dp2614
g54
(dp2615
g62
I3
ssg63
g2609
sg56
(lp2616
S''
asbasbasbag49
(g65
g51
NtRp2617
(dp2618
g54
(dp2619
sg63
g2256
sg56
(lp2620
g49
(g70
g51
NtRp2621
(dp2622
g54
(dp2623
g74
g75
ssg63
g2617
sg56
(lp2624
S'SERVER_NAME'
p2625
asbag49
(g70
g51
NtRp2626
(dp2627
g54
(dp2628
g81
g82
ssg63
g2617
sg56
(lp2629
S':'
asbag49
(g70
g51
NtRp2630
(dp2631
g54
(dp2632
sg63
g2617
sg56
(lp2633
g49
(g50
g51
NtRp2634
(dp2635
g54
(dp2636
g62
I3
ssg63
g2630
sg56
(lp2637
g1181
asbasbasbag49
(g65
g51
NtRp2638
(dp2639
g54
(dp2640
sg63
g2256
sg56
(lp2641
g49
(g70
g51
NtRp2642
(dp2643
g54
(dp2644
g74
g75
ssg63
g2638
sg56
(lp2645
S'SERVER_PORT'
p2646
asbag49
(g70
g51
NtRp2647
(dp2648
g54
(dp2649
g81
g82
ssg63
g2638
sg56
(lp2650
S':'
asbag49
(g70
g51
NtRp2651
(dp2652
g54
(dp2653
sg63
g2638
sg56
(lp2654
g49
(g50
g51
NtRp2655
(dp2656
g54
(dp2657
g62
I3
ssg63
g2651
sg56
(lp2658
g1203
asbasbasbag49
(g65
g51
NtRp2659
(dp2660
g54
(dp2661
sg63
g2256
sg56
(lp2662
g49
(g70
g51
NtRp2663
(dp2664
g54
(dp2665
g74
g75
ssg63
g2659
sg56
(lp2666
S'SERVER_PROTOCOL'
p2667
asbag49
(g70
g51
NtRp2668
(dp2669
g54
(dp2670
g81
g82
ssg63
g2659
sg56
(lp2671
S':'
asbag49
(g70
g51
NtRp2672
(dp2673
g54
(dp2674
sg63
g2659
sg56
(lp2675
g49
(g50
g51
NtRp2676
(dp2677
g54
(dp2678
g62
I3
ssg63
g2672
sg56
(lp2679
g1225
asbasbasbag49
(g65
g51
NtRp2680
(dp2681
g54
(dp2682
sg63
g2256
sg56
(lp2683
g49
(g70
g51
NtRp2684
(dp2685
g54
(dp2686
g74
g75
ssg63
g2680
sg56
(lp2687
S'SERVER_SOFTWARE'
p2688
asbag49
(g70
g51
NtRp2689
(dp2690
g54
(dp2691
g81
g82
ssg63
g2680
sg56
(lp2692
S':'
asbag49
(g70
g51
NtRp2693
(dp2694
g54
(dp2695
sg63
g2680
sg56
(lp2696
g49
(g50
g51
NtRp2697
(dp2698
g54
(dp2699
g62
I3
ssg63
g2693
sg56
(lp2700
g1247
asbasbasbag49
(g65
g51
NtRp2701
(dp2702
g54
(dp2703
sg63
g2256
sg56
(lp2704
g49
(g70
g51
NtRp2705
(dp2706
g54
(dp2707
g74
g75
ssg63
g2701
sg56
(lp2708
S'WEB2PY_ORIGINAL_URI'
p2709
asbag49
(g70
g51
NtRp2710
(dp2711
g54
(dp2712
g81
g82
ssg63
g2701
sg56
(lp2713
S':'
asbag49
(g70
g51
NtRp2714
(dp2715
g54
(dp2716
sg63
g2701
sg56
(lp2717
g49
(g50
g51
NtRp2718
(dp2719
g54
(dp2720
g62
I3
ssg63
g2714
sg56
(lp2721
S'/'
asbasbasbag49
(g65
g51
NtRp2722
(dp2723
g54
(dp2724
sg63
g2256
sg56
(lp2725
g49
(g70
g51
NtRp2726
(dp2727
g54
(dp2728
g74
g75
ssg63
g2722
sg56
(lp2729
S'wsgi.errors'
p2730
asbag49
(g70
g51
NtRp2731
(dp2732
g54
(dp2733
g81
g82
ssg63
g2722
sg56
(lp2734
S':'
asbag49
(g70
g51
NtRp2735
(dp2736
g54
(dp2737
sg63
g2722
sg56
(lp2738
g49
(g50
g51
NtRp2739
(dp2740
g54
(dp2741
g62
I3
ssg63
g2735
sg56
(lp2742
S"<open file '<stderr>', mode 'w' at 0x4220b0>"
p2743
asbasbasbag49
(g65
g51
NtRp2744
(dp2745
g54
(dp2746
sg63
g2256
sg56
(lp2747
g49
(g70
g51
NtRp2748
(dp2749
g54
(dp2750
g74
g75
ssg63
g2744
sg56
(lp2751
S'wsgi.file_wrapper'
p2752
asbag49
(g70
g51
NtRp2753
(dp2754
g54
(dp2755
g81
g82
ssg63
g2744
sg56
(lp2756
S':'
asbag49
(g70
g51
NtRp2757
(dp2758
g54
(dp2759
sg63
g2744
sg56
(lp2760
g49
(g50
g51
NtRp2761
(dp2762
g54
(dp2763
g62
I3
ssg63
g2757
sg56
(lp2764
S'<class wsgiref.util.FileWrapper at 0x225e6c0>'
p2765
asbasbasbag49
(g65
g51
NtRp2766
(dp2767
g54
(dp2768
sg63
g2256
sg56
(lp2769
g49
(g70
g51
NtRp2770
(dp2771
g54
(dp2772
g74
g75
ssg63
g2766
sg56
(lp2773
S'wsgi.input'
p2774
asbag49
(g70
g51
NtRp2775
(dp2776
g54
(dp2777
g81
g82
ssg63
g2766
sg56
(lp2778
S':'
asbag49
(g70
g51
NtRp2779
(dp2780
g54
(dp2781
sg63
g2766
sg56
(lp2782
g49
(g50
g51
NtRp2783
(dp2784
g54
(dp2785
g62
I3
ssg63
g2779
sg56
(lp2786
S'<cStringIO.StringO object at 0xa1dae80>'
p2787
asbasbasbag49
(g65
g51
NtRp2788
(dp2789
g54
(dp2790
sg63
g2256
sg56
(lp2791
g49
(g70
g51
NtRp2792
(dp2793
g54
(dp2794
g74
g75
ssg63
g2788
sg56
(lp2795
S'wsgi.multiprocess'
p2796
asbag49
(g70
g51
NtRp2797
(dp2798
g54
(dp2799
g81
g82
ssg63
g2788
sg56
(lp2800
S':'
asbag49
(g70
g51
NtRp2801
(dp2802
g54
(dp2803
sg63
g2788
sg56
(lp2804
g49
(g50
g51
NtRp2805
(dp2806
g54
(dp2807
g62
I3
ssg63
g2801
sg56
(lp2808
g92
asbasbasbag49
(g65
g51
NtRp2809
(dp2810
g54
(dp2811
sg63
g2256
sg56
(lp2812
g49
(g70
g51
NtRp2813
(dp2814
g54
(dp2815
g74
g75
ssg63
g2809
sg56
(lp2816
S'wsgi.multithread'
p2817
asbag49
(g70
g51
NtRp2818
(dp2819
g54
(dp2820
g81
g82
ssg63
g2809
sg56
(lp2821
S':'
asbag49
(g70
g51
NtRp2822
(dp2823
g54
(dp2824
sg63
g2809
sg56
(lp2825
g49
(g50
g51
NtRp2826
(dp2827
g54
(dp2828
g62
I3
ssg63
g2822
sg56
(lp2829
g1508
asbasbasbag49
(g65
g51
NtRp2830
(dp2831
g54
(dp2832
sg63
g2256
sg56
(lp2833
g49
(g70
g51
NtRp2834
(dp2835
g54
(dp2836
g74
g75
ssg63
g2830
sg56
(lp2837
S'wsgi.run_once'
p2838
asbag49
(g70
g51
NtRp2839
(dp2840
g54
(dp2841
g81
g82
ssg63
g2830
sg56
(lp2842
S':'
asbag49
(g70
g51
NtRp2843
(dp2844
g54
(dp2845
sg63
g2830
sg56
(lp2846
g49
(g50
g51
NtRp2847
(dp2848
g54
(dp2849
g62
I3
ssg63
g2843
sg56
(lp2850
g92
asbasbasbag49
(g65
g51
NtRp2851
(dp2852
g54
(dp2853
sg63
g2256
sg56
(lp2854
g49
(g70
g51
NtRp2855
(dp2856
g54
(dp2857
g74
g75
ssg63
g2851
sg56
(lp2858
S'wsgi.url_scheme'
p2859
asbag49
(g70
g51
NtRp2860
(dp2861
g54
(dp2862
g81
g82
ssg63
g2851
sg56
(lp2863
S':'
asbag49
(g70
g51
NtRp2864
(dp2865
g54
(dp2866
sg63
g2851
sg56
(lp2867
g49
(g50
g51
NtRp2868
(dp2869
g54
(dp2870
g62
I3
ssg63
g2864
sg56
(lp2871
g1551
asbasbasbag49
(g65
g51
NtRp2872
(dp2873
g54
(dp2874
sg63
g2256
sg56
(lp2875
g49
(g70
g51
NtRp2876
(dp2877
g54
(dp2878
g74
g75
ssg63
g2872
sg56
(lp2879
S'wsgi.version'
p2880
asbag49
(g70
g51
NtRp2881
(dp2882
g54
(dp2883
g81
g82
ssg63
g2872
sg56
(lp2884
S':'
asbag49
(g70
g51
NtRp2885
(dp2886
g54
(dp2887
sg63
g2872
sg56
(lp2888
g49
(g50
g51
NtRp2889
(dp2890
g54
(dp2891
g62
I3
ssg63
g2885
sg56
(lp2892
S'1'
asbasbasbasbasbasbasbasbasbasbasbasbasbsS'frames'
p2893
(lp2894
(dp2895
S'file'
p2896
S'/users/udimilo/Documents/web2py/gluon/restricted.py'
p2897
sS'dump'
p2898
(dp2899
S'environment'
p2900
S"{'A': <class 'gluon.html.A'>, 'Auth': <class 'gluon.tools.Auth'>, 'B': <class 'gluon.html.B'>, 'BEAUTIFY': <class 'gluon.html.BEAUTIFY'>, 'BODY': <class 'gluon.html.BODY'>, 'BR': <class 'gluon.html.BR'>, 'BUTTON': <class 'gluon.html.BUTTON'>, 'CAT': <class 'gluon.html.CAT'>, 'CENTER': <class 'gluon.html.CENTER'>, 'CLEANUP': <class 'gluon.validators.CLEANUP'>, ...}"
p2901
sS'ccode'
p2902
S'<code object <module> at 0xa14a7b8, file "/Users...ications/udi0312/controllers/default.py", line 2>'
p2903
ssS'lnum'
p2904
I205
sS'lines'
p2905
(dp2906
I200
S'    try:'
p2907
sI201
S'        if type(code) == types.CodeType:'
p2908
sI202
S'            ccode = code'
p2909
sI203
S'        else:'
p2910
sI204
S'            ccode = compile2(code,layer)'
p2911
sI205
S'        exec ccode in environment'
p2912
sI206
S'    except HTTP:'
p2913
sI207
S'        raise'
p2914
sI208
S'    except RestrictedError:'
p2915
sI209
S'        # do not encapsulate (obfuscate) the original RestrictedError'
p2916
ssS'call'
p2917
S"(code='# -*- coding: utf-8 -*-\\nimport feedparser\\nimport...=crud())\\n\\nresponse._vars=response._caller(index)\\n', environment={'A': <class 'gluon.html.A'>, 'Auth': <class 'gluon.tools.Auth'>, 'B': <class 'gluon.html.B'>, 'BEAUTIFY': <class 'gluon.html.BEAUTIFY'>, 'BODY': <class 'gluon.html.BODY'>, 'BR': <class 'gluon.html.BR'>, 'BUTTON': <class 'gluon.html.BUTTON'>, 'CAT': <class 'gluon.html.CAT'>, 'CENTER': <class 'gluon.html.CENTER'>, 'CLEANUP': <class 'gluon.validators.CLEANUP'>, ...}, layer='/Users/udimilo/Documents/web2py/applications/udi0312/controllers/default.py')"
p2918
sS'func'
p2919
S'restricted'
p2920
sa(dp2921
g2896
S'/Users/udimilo/Documents/web2py/applications/udi0312/controllers/default.py'
p2922
sg2898
(dp2923
sg2904
I151
sg2905
(dp2924
I140
S'    http://..../[app]/default/data/update/[table]/[id]'
p2925
sI141
S'    http://..../[app]/default/data/delete/[table]/[id]'
p2926
sI142
S'    http://..../[app]/default/data/select/[table]'
p2927
sI143
S'    http://..../[app]/default/data/search/[table]'
p2928
sI144
S'    but URLs must be signed, i.e. linked with'
p2929
sI145
S"      A('table',_href=URL('data/tables',user_signature=True))"
p2930
sI146
S'    or with the signed load operator'
p2931
sI147
S"      LOAD('default','data.load',args='tables',ajax=True,user_signature=True)"
p2932
sI148
S'    """'
p2933
sI149
S'    return dict(form=crud())'
p2934
ssg2917
S'()'
p2935
sg2919
S'<module>'
p2936
sa(dp2937
g2896
S'/users/udimilo/Documents/web2py/gluon/globals.py'
p2938
sg2898
(dp2939
S'self'
p2940
S'undefined'
p2941
sS'f'
S'<function index at 0xa40f770>'
p2942
ssg2904
I173
sg2905
(dp2943
I168
S'        self.menu = []             # used by the default view layout'
p2944
sI169
S'        self.files = []            # used by web2py_ajax.html'
p2945
sI170
S'        self.generic_patterns = [] # patterns to allow generic views'
p2946
sI171
S"        self.delimiters = ('{{','}}')"
p2947
sI172
S'        self._vars = None'
p2948
sI173
S'        self._caller = lambda f: f()'
p2949
sI174
S'        self._view_environment = None'
p2950
sI175
S'        self._custom_commit = None'
p2951
sI176
S'        self._custom_rollback = None'
p2952
sI177
S''
ssg2917
S'(f=<function index at 0xa40f770>)'
p2953
sg2919
S'<lambda>'
p2954
sa(dp2955
g2896
S'/Users/udimilo/Documents/web2py/applications/udi0312/controllers/default.py'
p2956
sg2898
(dp2957
S'auth.user'
p2958
S"<Storage {'first_name': 'Udi', 'last_name': 'Mil...stration_key': '', 'email': 'udimilo@gmail.com'}>"
p2959
sS'c'
S'<applications.udi0312.modules.cacheable.Cacheable object at 0xa5a9090>'
p2960
sS'c.get_categories'
p2961
S'<bound method Cacheable.get_categories of <appli...modules.cacheable.Cacheable object at 0xa5a9090>>'
p2962
sS'global auth'
p2963
S'<gluon.tools.Auth object at 0x9fa7790>'
p2964
sS'categories'
p2965
g2941
ssg2904
I22
sg2905
(dp2966
I17
S'##'
p2967
sI18
S'## public functions'
p2968
sI19
S'##'
p2969
sI20
S'def index():'
p2970
sI21
S'    c = Cacheable()'
p2971
sI22
S'    categories = c.get_categories() if auth.user else []'
p2972
sI23
S'    boards = db(db.board.user==auth.user.id).select() if auth.user else []'
p2973
sI24
S''
sI25
S'    if auth.user is None:'
p2974
sI26
S'        pins = db().select(db.pin.ALL, orderby=~db.pin.created_on)'
p2975
ssg2917
S'()'
p2976
sg2919
g1666
sa(dp2977
g2896
S'/Users/udimilo/Documents/web2py/applications/udi0312/modules/cacheable.py'
p2978
sg2898
(dp2979
S'get_categories'
p2980
g2941
ssg2904
I8
sg2905
(dp2981
I1
S'#!/usr/bin/env python'
p2982
sI2
S'# coding: utf8'
p2983
sI3
S'from gluon import *'
p2984
sI4
S''
sI5
S'class Cacheable(object):'
p2985
sI6
S''
sI7
S'    def get_categories(self):'
p2986
sI8
S'        return db().select(db.category.ALL, orderby=db.category.name)'
p2987
ssg2917
S'(self=<applications.udi0312.modules.cacheable.Cacheable object at 0xa5a9090>)'
p2988
sg2919
S'get_categories'
p2989
sasS'pyver'
p2990
S'Python 2.5.4: /Library/Frameworks/Python.framework/Versions/2.5/Resources/Python.app/Contents/MacOS/Python'
p2991
sS'session'
p2992
g49
(g50
g51
NtRp2993
(dp2994
g54
(dp2995
sg56
(lp2996
g49
(g58
g51
NtRp2997
(dp2998
g54
(dp2999
g62
I5
ssg63
Nsg56
(lp3000
g49
(g65
g51
NtRp3001
(dp3002
g54
(dp3003
sg63
g2997
sg56
(lp3004
g49
(g70
g51
NtRp3005
(dp3006
g54
(dp3007
g74
g75
ssg63
g3001
sg56
(lp3008
S'auth'
p3009
asbag49
(g70
g51
NtRp3010
(dp3011
g54
(dp3012
g81
g82
ssg63
g3001
sg56
(lp3013
S':'
asbag49
(g70
g51
NtRp3014
(dp3015
g54
(dp3016
sg63
g3001
sg56
(lp3017
g49
(g50
g51
NtRp3018
(dp3019
g54
(dp3020
g62
I5
ssg63
g3014
sg56
(lp3021
g49
(g58
g51
NtRp3022
(dp3023
g54
(dp3024
g62
I4
ssg63
Nsg56
(lp3025
g49
(g65
g51
NtRp3026
(dp3027
g54
(dp3028
sg63
g3022
sg56
(lp3029
g49
(g70
g51
NtRp3030
(dp3031
g54
(dp3032
g74
g75
ssg63
g3026
sg56
(lp3033
S'expiration'
p3034
asbag49
(g70
g51
NtRp3035
(dp3036
g54
(dp3037
g81
g82
ssg63
g3026
sg56
(lp3038
S':'
asbag49
(g70
g51
NtRp3039
(dp3040
g54
(dp3041
sg63
g3026
sg56
(lp3042
g49
(g50
g51
NtRp3043
(dp3044
g54
(dp3045
g62
I4
ssg63
g3039
sg56
(lp3046
S'2592000'
p3047
asbasbasbag49
(g65
g51
NtRp3048
(dp3049
g54
(dp3050
sg63
g3022
sg56
(lp3051
g49
(g70
g51
NtRp3052
(dp3053
g54
(dp3054
g74
g75
ssg63
g3048
sg56
(lp3055
S'hmac_key'
p3056
asbag49
(g70
g51
NtRp3057
(dp3058
g54
(dp3059
g81
g82
ssg63
g3048
sg56
(lp3060
S':'
asbag49
(g70
g51
NtRp3061
(dp3062
g54
(dp3063
sg63
g3048
sg56
(lp3064
g49
(g50
g51
NtRp3065
(dp3066
g54
(dp3067
g62
I4
ssg63
g3061
sg56
(lp3068
S'f181a846-a979-48a5-b7fb-4fe8c0459836'
p3069
asbasbasbag49
(g65
g51
NtRp3070
(dp3071
g54
(dp3072
sg63
g3022
sg56
(lp3073
g49
(g70
g51
NtRp3074
(dp3075
g54
(dp3076
g74
g75
ssg63
g3070
sg56
(lp3077
S'last_visit'
p3078
asbag49
(g70
g51
NtRp3079
(dp3080
g54
(dp3081
g81
g82
ssg63
g3070
sg56
(lp3082
S':'
asbag49
(g70
g51
NtRp3083
(dp3084
g54
(dp3085
sg63
g3070
sg56
(lp3086
g49
(g50
g51
NtRp3087
(dp3088
g54
(dp3089
g62
I4
ssg63
g3083
sg56
(lp3090
S'datetime.datetime(2012, 3, 19, 18, 54, 18, 447051)'
p3091
asbasbasbag49
(g65
g51
NtRp3092
(dp3093
g54
(dp3094
sg63
g3022
sg56
(lp3095
g49
(g70
g51
NtRp3096
(dp3097
g54
(dp3098
g74
g75
ssg63
g3092
sg56
(lp3099
S'remember'
p3100
asbag49
(g70
g51
NtRp3101
(dp3102
g54
(dp3103
g81
g82
ssg63
g3092
sg56
(lp3104
S':'
asbag49
(g70
g51
NtRp3105
(dp3106
g54
(dp3107
sg63
g3092
sg56
(lp3108
g49
(g50
g51
NtRp3109
(dp3110
g54
(dp3111
g62
I4
ssg63
g3105
sg56
(lp3112
g1508
asbasbasbag49
(g65
g51
NtRp3113
(dp3114
g54
(dp3115
sg63
g3022
sg56
(lp3116
g49
(g70
g51
NtRp3117
(dp3118
g54
(dp3119
g74
g75
ssg63
g3113
sg56
(lp3120
S'user'
p3121
asbag49
(g70
g51
NtRp3122
(dp3123
g54
(dp3124
g81
g82
ssg63
g3113
sg56
(lp3125
S':'
asbag49
(g70
g51
NtRp3126
(dp3127
g54
(dp3128
sg63
g3113
sg56
(lp3129
g49
(g50
g51
NtRp3130
(dp3131
g54
(dp3132
g62
I4
ssg63
g3126
sg56
(lp3133
g49
(g58
g51
NtRp3134
(dp3135
g54
(dp3136
g62
I3
ssg63
Nsg56
(lp3137
g49
(g65
g51
NtRp3138
(dp3139
g54
(dp3140
sg63
g3134
sg56
(lp3141
g49
(g70
g51
NtRp3142
(dp3143
g54
(dp3144
g74
g75
ssg63
g3138
sg56
(lp3145
S'email'
p3146
asbag49
(g70
g51
NtRp3147
(dp3148
g54
(dp3149
g81
g82
ssg63
g3138
sg56
(lp3150
S':'
asbag49
(g70
g51
NtRp3151
(dp3152
g54
(dp3153
sg63
g3138
sg56
(lp3154
g49
(g50
g51
NtRp3155
(dp3156
g54
(dp3157
g62
I3
ssg63
g3151
sg56
(lp3158
S'udimilo@gmail.com'
p3159
asbasbasbag49
(g65
g51
NtRp3160
(dp3161
g54
(dp3162
sg63
g3134
sg56
(lp3163
g49
(g70
g51
NtRp3164
(dp3165
g54
(dp3166
g74
g75
ssg63
g3160
sg56
(lp3167
S'first_name'
p3168
asbag49
(g70
g51
NtRp3169
(dp3170
g54
(dp3171
g81
g82
ssg63
g3160
sg56
(lp3172
S':'
asbag49
(g70
g51
NtRp3173
(dp3174
g54
(dp3175
sg63
g3160
sg56
(lp3176
g49
(g50
g51
NtRp3177
(dp3178
g54
(dp3179
g62
I3
ssg63
g3173
sg56
(lp3180
S'Udi'
p3181
asbasbasbag49
(g65
g51
NtRp3182
(dp3183
g54
(dp3184
sg63
g3134
sg56
(lp3185
g49
(g70
g51
NtRp3186
(dp3187
g54
(dp3188
g74
g75
ssg63
g3182
sg56
(lp3189
S'id'
p3190
asbag49
(g70
g51
NtRp3191
(dp3192
g54
(dp3193
g81
g82
ssg63
g3182
sg56
(lp3194
S':'
asbag49
(g70
g51
NtRp3195
(dp3196
g54
(dp3197
sg63
g3182
sg56
(lp3198
g49
(g50
g51
NtRp3199
(dp3200
g54
(dp3201
g62
I3
ssg63
g3195
sg56
(lp3202
S'1'
asbasbasbag49
(g65
g51
NtRp3203
(dp3204
g54
(dp3205
sg63
g3134
sg56
(lp3206
g49
(g70
g51
NtRp3207
(dp3208
g54
(dp3209
g74
g75
ssg63
g3203
sg56
(lp3210
S'last_name'
p3211
asbag49
(g70
g51
NtRp3212
(dp3213
g54
(dp3214
g81
g82
ssg63
g3203
sg56
(lp3215
S':'
asbag49
(g70
g51
NtRp3216
(dp3217
g54
(dp3218
sg63
g3203
sg56
(lp3219
g49
(g50
g51
NtRp3220
(dp3221
g54
(dp3222
g62
I3
ssg63
g3216
sg56
(lp3223
S'Milo'
p3224
asbasbasbag49
(g65
g51
NtRp3225
(dp3226
g54
(dp3227
sg63
g3134
sg56
(lp3228
g49
(g70
g51
NtRp3229
(dp3230
g54
(dp3231
g74
g75
ssg63
g3225
sg56
(lp3232
S'password'
p3233
asbag49
(g70
g51
NtRp3234
(dp3235
g54
(dp3236
g81
g82
ssg63
g3225
sg56
(lp3237
S':'
asbag49
(g70
g51
NtRp3238
(dp3239
g54
(dp3240
sg63
g3225
sg56
(lp3241
g49
(g50
g51
NtRp3242
(dp3243
g54
(dp3244
g62
I3
ssg63
g3238
sg56
(lp3245
S'7a6e3c6a68ceed66634484a3f64a3468'
p3246
asbasbasbag49
(g65
g51
NtRp3247
(dp3248
g54
(dp3249
sg63
g3134
sg56
(lp3250
g49
(g70
g51
NtRp3251
(dp3252
g54
(dp3253
g74
g75
ssg63
g3247
sg56
(lp3254
S'registration_id'
p3255
asbag49
(g70
g51
NtRp3256
(dp3257
g54
(dp3258
g81
g82
ssg63
g3247
sg56
(lp3259
S':'
asbag49
(g70
g51
NtRp3260
(dp3261
g54
(dp3262
sg63
g3247
sg56
(lp3263
g49
(g50
g51
NtRp3264
(dp3265
g54
(dp3266
g62
I3
ssg63
g3260
sg56
(lp3267
S''
asbasbasbag49
(g65
g51
NtRp3268
(dp3269
g54
(dp3270
sg63
g3134
sg56
(lp3271
g49
(g70
g51
NtRp3272
(dp3273
g54
(dp3274
g74
g75
ssg63
g3268
sg56
(lp3275
S'registration_key'
p3276
asbag49
(g70
g51
NtRp3277
(dp3278
g54
(dp3279
g81
g82
ssg63
g3268
sg56
(lp3280
S':'
asbag49
(g70
g51
NtRp3281
(dp3282
g54
(dp3283
sg63
g3268
sg56
(lp3284
g49
(g50
g51
NtRp3285
(dp3286
g54
(dp3287
g62
I3
ssg63
g3281
sg56
(lp3288
S''
asbasbasbag49
(g65
g51
NtRp3289
(dp3290
g54
(dp3291
sg63
g3134
sg56
(lp3292
g49
(g70
g51
NtRp3293
(dp3294
g54
(dp3295
g74
g75
ssg63
g3289
sg56
(lp3296
S'reset_password_key'
p3297
asbag49
(g70
g51
NtRp3298
(dp3299
g54
(dp3300
g81
g82
ssg63
g3289
sg56
(lp3301
S':'
asbag49
(g70
g51
NtRp3302
(dp3303
g54
(dp3304
sg63
g3289
sg56
(lp3305
g49
(g50
g51
NtRp3306
(dp3307
g54
(dp3308
g62
I3
ssg63
g3302
sg56
(lp3309
S''
asbasbasbasbasbasbasbag49
(g65
g51
NtRp3310
(dp3311
g54
(dp3312
sg63
g3022
sg56
(lp3313
g49
(g70
g51
NtRp3314
(dp3315
g54
(dp3316
g74
g75
ssg63
g3310
sg56
(lp3317
S'user_groups'
p3318
asbag49
(g70
g51
NtRp3319
(dp3320
g54
(dp3321
g81
g82
ssg63
g3310
sg56
(lp3322
S':'
asbag49
(g70
g51
NtRp3323
(dp3324
g54
(dp3325
sg63
g3310
sg56
(lp3326
g49
(g50
g51
NtRp3327
(dp3328
g54
(dp3329
g62
I4
ssg63
g3323
sg56
(lp3330
g49
(g58
g51
NtRp3331
(dp3332
g54
(dp3333
g62
I3
ssg63
Nsg56
(lp3334
g49
(g65
g51
NtRp3335
(dp3336
g54
(dp3337
sg63
g3331
sg56
(lp3338
g49
(g70
g51
NtRp3339
(dp3340
g54
(dp3341
g74
g75
ssg63
g3335
sg56
(lp3342
S'1'
asbag49
(g70
g51
NtRp3343
(dp3344
g54
(dp3345
g81
g82
ssg63
g3335
sg56
(lp3346
S':'
asbag49
(g70
g51
NtRp3347
(dp3348
g54
(dp3349
sg63
g3335
sg56
(lp3350
g49
(g50
g51
NtRp3351
(dp3352
g54
(dp3353
g62
I3
ssg63
g3347
sg56
(lp3354
S'user_1'
p3355
asbasbasbasbasbasbasbasbasbasbasbag49
(g65
g51
NtRp3356
(dp3357
g54
(dp3358
sg63
g2997
sg56
(lp3359
g49
(g70
g51
NtRp3360
(dp3361
g54
(dp3362
g74
g75
ssg63
g3356
sg56
(lp3363
S'last_query'
p3364
asbag49
(g70
g51
NtRp3365
(dp3366
g54
(dp3367
g81
g82
ssg63
g3356
sg56
(lp3368
S':'
asbag49
(g70
g51
NtRp3369
(dp3370
g54
(dp3371
sg63
g3356
sg56
(lp3372
g49
(g50
g51
NtRp3373
(dp3374
g54
(dp3375
g62
I5
ssg63
g3369
sg56
(lp3376
S'db.pin.id>0'
p3377
asbasbasbasbasbsS'etype'
p3378
S"<type 'exceptions.NameError'>"
p3379
sS'date'
p3380
S'Tue Mar 20 12:59:20 2012'
p3381
sS'response'
p3382
g49
(g50
g51
NtRp3383
(dp3384
g54
(dp3385
sg56
(lp3386
g49
(g58
g51
NtRp3387
(dp3388
g54
(dp3389
g62
I5
ssg63
Nsg56
(lp3390
g49
(g65
g51
NtRp3391
(dp3392
g54
(dp3393
sg63
g3387
sg56
(lp3394
g49
(g70
g51
NtRp3395
(dp3396
g54
(dp3397
g74
g75
ssg63
g3391
sg56
(lp3398
g147
asbag49
(g70
g51
NtRp3399
(dp3400
g54
(dp3401
g81
g82
ssg63
g3391
sg56
(lp3402
S':'
asbag49
(g70
g51
NtRp3403
(dp3404
g54
(dp3405
sg63
g3391
sg56
(lp3406
g49
(g50
g51
NtRp3407
(dp3408
g54
(dp3409
g62
I5
ssg63
g3403
sg56
(lp3410
S'<cStringIO.StringO object at 0x9b6c580>'
p3411
asbasbasbag49
(g65
g51
NtRp3412
(dp3413
g54
(dp3414
sg63
g3387
sg56
(lp3415
g49
(g70
g51
NtRp3416
(dp3417
g54
(dp3418
g74
g75
ssg63
g3412
sg56
(lp3419
g213
asbag49
(g70
g51
NtRp3420
(dp3421
g54
(dp3422
g81
g82
ssg63
g3412
sg56
(lp3423
S':'
asbag49
(g70
g51
NtRp3424
(dp3425
g54
(dp3426
sg63
g3412
sg56
(lp3427
g49
(g50
g51
NtRp3428
(dp3429
g54
(dp3430
g62
I5
ssg63
g3424
sg56
(lp3431
g49
(g58
g51
NtRp3432
(dp3433
g54
(dp3434
g62
I4
ssg63
Nsg56
(lp3435
g49
(g65
g51
NtRp3436
(dp3437
g54
(dp3438
sg63
g3432
sg56
(lp3439
g49
(g70
g51
NtRp3440
(dp3441
g54
(dp3442
g74
g75
ssg63
g3436
sg56
(lp3443
S'session_id_udi0312'
p3444
asbag49
(g70
g51
NtRp3445
(dp3446
g54
(dp3447
g81
g82
ssg63
g3436
sg56
(lp3448
S':'
asbag49
(g70
g51
NtRp3449
(dp3450
g54
(dp3451
sg63
g3436
sg56
(lp3452
g49
(g50
g51
NtRp3453
(dp3454
g54
(dp3455
g62
I4
ssg63
g3449
sg56
(lp3456
g49
(g58
g51
NtRp3457
(dp3458
g54
(dp3459
g62
I3
ssg63
Nsg56
(lp3460
g49
(g65
g51
NtRp3461
(dp3462
g54
(dp3463
sg63
g3457
sg56
(lp3464
g49
(g70
g51
NtRp3465
(dp3466
g54
(dp3467
g74
g75
ssg63
g3461
sg56
(lp3468
g263
asbag49
(g70
g51
NtRp3469
(dp3470
g54
(dp3471
g81
g82
ssg63
g3461
sg56
(lp3472
S':'
asbag49
(g70
g51
NtRp3473
(dp3474
g54
(dp3475
sg63
g3461
sg56
(lp3476
g49
(g50
g51
NtRp3477
(dp3478
g54
(dp3479
g62
I3
ssg63
g3473
sg56
(lp3480
S''
asbasbasbag49
(g65
g51
NtRp3481
(dp3482
g54
(dp3483
sg63
g3457
sg56
(lp3484
g49
(g70
g51
NtRp3485
(dp3486
g54
(dp3487
g74
g75
ssg63
g3481
sg56
(lp3488
g284
asbag49
(g70
g51
NtRp3489
(dp3490
g54
(dp3491
g81
g82
ssg63
g3481
sg56
(lp3492
S':'
asbag49
(g70
g51
NtRp3493
(dp3494
g54
(dp3495
sg63
g3481
sg56
(lp3496
g49
(g50
g51
NtRp3497
(dp3498
g54
(dp3499
g62
I3
ssg63
g3493
sg56
(lp3500
S''
asbasbasbag49
(g65
g51
NtRp3501
(dp3502
g54
(dp3503
sg63
g3457
sg56
(lp3504
g49
(g70
g51
NtRp3505
(dp3506
g54
(dp3507
g74
g75
ssg63
g3501
sg56
(lp3508
g305
asbag49
(g70
g51
NtRp3509
(dp3510
g54
(dp3511
g81
g82
ssg63
g3501
sg56
(lp3512
S':'
asbag49
(g70
g51
NtRp3513
(dp3514
g54
(dp3515
sg63
g3501
sg56
(lp3516
g49
(g50
g51
NtRp3517
(dp3518
g54
(dp3519
g62
I3
ssg63
g3513
sg56
(lp3520
S'2592000'
p3521
asbasbasbag49
(g65
g51
NtRp3522
(dp3523
g54
(dp3524
sg63
g3457
sg56
(lp3525
g49
(g70
g51
NtRp3526
(dp3527
g54
(dp3528
g74
g75
ssg63
g3522
sg56
(lp3529
g326
asbag49
(g70
g51
NtRp3530
(dp3531
g54
(dp3532
g81
g82
ssg63
g3522
sg56
(lp3533
S':'
asbag49
(g70
g51
NtRp3534
(dp3535
g54
(dp3536
sg63
g3522
sg56
(lp3537
g49
(g50
g51
NtRp3538
(dp3539
g54
(dp3540
g62
I3
ssg63
g3534
sg56
(lp3541
S''
asbasbasbag49
(g65
g51
NtRp3542
(dp3543
g54
(dp3544
sg63
g3457
sg56
(lp3545
g49
(g70
g51
NtRp3546
(dp3547
g54
(dp3548
g74
g75
ssg63
g3542
sg56
(lp3549
g347
asbag49
(g70
g51
NtRp3550
(dp3551
g54
(dp3552
g81
g82
ssg63
g3542
sg56
(lp3553
S':'
asbag49
(g70
g51
NtRp3554
(dp3555
g54
(dp3556
sg63
g3542
sg56
(lp3557
g49
(g50
g51
NtRp3558
(dp3559
g54
(dp3560
g62
I3
ssg63
g3554
sg56
(lp3561
S'/'
asbasbasbag49
(g65
g51
NtRp3562
(dp3563
g54
(dp3564
sg63
g3457
sg56
(lp3565
g49
(g70
g51
NtRp3566
(dp3567
g54
(dp3568
g74
g75
ssg63
g3562
sg56
(lp3569
g368
asbag49
(g70
g51
NtRp3570
(dp3571
g54
(dp3572
g81
g82
ssg63
g3562
sg56
(lp3573
S':'
asbag49
(g70
g51
NtRp3574
(dp3575
g54
(dp3576
sg63
g3562
sg56
(lp3577
g49
(g50
g51
NtRp3578
(dp3579
g54
(dp3580
g62
I3
ssg63
g3574
sg56
(lp3581
S''
asbasbasbag49
(g65
g51
NtRp3582
(dp3583
g54
(dp3584
sg63
g3457
sg56
(lp3585
g49
(g70
g51
NtRp3586
(dp3587
g54
(dp3588
g74
g75
ssg63
g3582
sg56
(lp3589
g389
asbag49
(g70
g51
NtRp3590
(dp3591
g54
(dp3592
g81
g82
ssg63
g3582
sg56
(lp3593
S':'
asbag49
(g70
g51
NtRp3594
(dp3595
g54
(dp3596
sg63
g3582
sg56
(lp3597
g49
(g50
g51
NtRp3598
(dp3599
g54
(dp3600
g62
I3
ssg63
g3594
sg56
(lp3601
S''
asbasbasbasbasbasbasbasbasbasbasbag49
(g65
g51
NtRp3602
(dp3603
g54
(dp3604
sg63
g3387
sg56
(lp3605
g49
(g70
g51
NtRp3606
(dp3607
g54
(dp3608
g74
g75
ssg63
g3602
sg56
(lp3609
S'delimiters'
p3610
asbag49
(g70
g51
NtRp3611
(dp3612
g54
(dp3613
g81
g82
ssg63
g3602
sg56
(lp3614
S':'
asbag49
(g70
g51
NtRp3615
(dp3616
g54
(dp3617
sg63
g3602
sg56
(lp3618
g49
(g50
g51
NtRp3619
(dp3620
g54
(dp3621
g62
I5
ssg63
g3615
sg56
(lp3622
g49
(g58
g51
NtRp3623
(dp3624
g54
(dp3625
g62
I4
ssg63
Nsg56
(lp3626
g49
(g65
g51
NtRp3627
(dp3628
g54
(dp3629
sg63
g3623
sg56
(lp3630
g49
(g70
g51
NtRp3631
(dp3632
g54
(dp3633
sg63
g3627
sg56
(lp3634
g49
(g50
g51
NtRp3635
(dp3636
g54
(dp3637
g62
I4
ssg63
g3631
sg56
(lp3638
S'{{'
p3639
asbasbasbag49
(g65
g51
NtRp3640
(dp3641
g54
(dp3642
sg63
g3623
sg56
(lp3643
g49
(g70
g51
NtRp3644
(dp3645
g54
(dp3646
sg63
g3640
sg56
(lp3647
g49
(g50
g51
NtRp3648
(dp3649
g54
(dp3650
g62
I4
ssg63
g3644
sg56
(lp3651
S'}}'
p3652
asbasbasbasbasbasbasbag49
(g65
g51
NtRp3653
(dp3654
g54
(dp3655
sg63
g3387
sg56
(lp3656
g49
(g70
g51
NtRp3657
(dp3658
g54
(dp3659
g74
g75
ssg63
g3653
sg56
(lp3660
S'files'
p3661
asbag49
(g70
g51
NtRp3662
(dp3663
g54
(dp3664
g81
g82
ssg63
g3653
sg56
(lp3665
S':'
asbag49
(g70
g51
NtRp3666
(dp3667
g54
(dp3668
sg63
g3653
sg56
(lp3669
g49
(g50
g51
NtRp3670
(dp3671
g54
(dp3672
g62
I5
ssg63
g3666
sg56
(lp3673
g49
(g58
g51
NtRp3674
(dp3675
g54
(dp3676
g62
I4
ssg63
Nsg56
(lp3677
sbasbasbasbag49
(g65
g51
NtRp3678
(dp3679
g54
(dp3680
sg63
g3387
sg56
(lp3681
g49
(g70
g51
NtRp3682
(dp3683
g54
(dp3684
g74
g75
ssg63
g3678
sg56
(lp3685
S'flash'
p3686
asbag49
(g70
g51
NtRp3687
(dp3688
g54
(dp3689
g81
g82
ssg63
g3678
sg56
(lp3690
S':'
asbag49
(g70
g51
NtRp3691
(dp3692
g54
(dp3693
sg63
g3678
sg56
(lp3694
g49
(g50
g51
NtRp3695
(dp3696
g54
(dp3697
g62
I5
ssg63
g3691
sg56
(lp3698
S''
asbasbasbag49
(g65
g51
NtRp3699
(dp3700
g54
(dp3701
sg63
g3387
sg56
(lp3702
g49
(g70
g51
NtRp3703
(dp3704
g54
(dp3705
g74
g75
ssg63
g3699
sg56
(lp3706
S'generic_patterns'
p3707
asbag49
(g70
g51
NtRp3708
(dp3709
g54
(dp3710
g81
g82
ssg63
g3699
sg56
(lp3711
S':'
asbag49
(g70
g51
NtRp3712
(dp3713
g54
(dp3714
sg63
g3699
sg56
(lp3715
g49
(g50
g51
NtRp3716
(dp3717
g54
(dp3718
g62
I5
ssg63
g3712
sg56
(lp3719
g49
(g58
g51
NtRp3720
(dp3721
g54
(dp3722
g62
I4
ssg63
Nsg56
(lp3723
g49
(g65
g51
NtRp3724
(dp3725
g54
(dp3726
sg63
g3720
sg56
(lp3727
g49
(g70
g51
NtRp3728
(dp3729
g54
(dp3730
sg63
g3724
sg56
(lp3731
g49
(g50
g51
NtRp3732
(dp3733
g54
(dp3734
g62
I4
ssg63
g3728
sg56
(lp3735
S'*'
asbasbasbasbasbasbasbag49
(g65
g51
NtRp3736
(dp3737
g54
(dp3738
sg63
g3387
sg56
(lp3739
g49
(g70
g51
NtRp3740
(dp3741
g54
(dp3742
g74
g75
ssg63
g3736
sg56
(lp3743
S'headers'
p3744
asbag49
(g70
g51
NtRp3745
(dp3746
g54
(dp3747
g81
g82
ssg63
g3736
sg56
(lp3748
S':'
asbag49
(g70
g51
NtRp3749
(dp3750
g54
(dp3751
sg63
g3736
sg56
(lp3752
g49
(g50
g51
NtRp3753
(dp3754
g54
(dp3755
g62
I5
ssg63
g3749
sg56
(lp3756
g49
(g58
g51
NtRp3757
(dp3758
g54
(dp3759
g62
I4
ssg63
Nsg56
(lp3760
g49
(g65
g51
NtRp3761
(dp3762
g54
(dp3763
sg63
g3757
sg56
(lp3764
g49
(g70
g51
NtRp3765
(dp3766
g54
(dp3767
g74
g75
ssg63
g3761
sg56
(lp3768
S'Cache-Control'
p3769
asbag49
(g70
g51
NtRp3770
(dp3771
g54
(dp3772
g81
g82
ssg63
g3761
sg56
(lp3773
S':'
asbag49
(g70
g51
NtRp3774
(dp3775
g54
(dp3776
sg63
g3761
sg56
(lp3777
g49
(g50
g51
NtRp3778
(dp3779
g54
(dp3780
g62
I4
ssg63
g3774
sg56
(lp3781
S'no-store, no-cache, must-revalidate, post-check=0, pre-check=0'
p3782
asbasbasbag49
(g65
g51
NtRp3783
(dp3784
g54
(dp3785
sg63
g3757
sg56
(lp3786
g49
(g70
g51
NtRp3787
(dp3788
g54
(dp3789
g74
g75
ssg63
g3783
sg56
(lp3790
S'Content-Type'
p3791
asbag49
(g70
g51
NtRp3792
(dp3793
g54
(dp3794
g81
g82
ssg63
g3783
sg56
(lp3795
S':'
asbag49
(g70
g51
NtRp3796
(dp3797
g54
(dp3798
sg63
g3783
sg56
(lp3799
g49
(g50
g51
NtRp3800
(dp3801
g54
(dp3802
g62
I4
ssg63
g3796
sg56
(lp3803
S'text/html; charset=utf-8'
p3804
asbasbasbag49
(g65
g51
NtRp3805
(dp3806
g54
(dp3807
sg63
g3757
sg56
(lp3808
g49
(g70
g51
NtRp3809
(dp3810
g54
(dp3811
g74
g75
ssg63
g3805
sg56
(lp3812
S'Expires'
p3813
asbag49
(g70
g51
NtRp3814
(dp3815
g54
(dp3816
g81
g82
ssg63
g3805
sg56
(lp3817
S':'
asbag49
(g70
g51
NtRp3818
(dp3819
g54
(dp3820
sg63
g3805
sg56
(lp3821
g49
(g50
g51
NtRp3822
(dp3823
g54
(dp3824
g62
I4
ssg63
g3818
sg56
(lp3825
S'Tue, 20 Mar 2012 16:59:20 GMT'
p3826
asbasbasbag49
(g65
g51
NtRp3827
(dp3828
g54
(dp3829
sg63
g3757
sg56
(lp3830
g49
(g70
g51
NtRp3831
(dp3832
g54
(dp3833
g74
g75
ssg63
g3827
sg56
(lp3834
S'Pragma'
p3835
asbag49
(g70
g51
NtRp3836
(dp3837
g54
(dp3838
g81
g82
ssg63
g3827
sg56
(lp3839
S':'
asbag49
(g70
g51
NtRp3840
(dp3841
g54
(dp3842
sg63
g3827
sg56
(lp3843
g49
(g50
g51
NtRp3844
(dp3845
g54
(dp3846
g62
I4
ssg63
g3840
sg56
(lp3847
S'no-cache'
p3848
asbasbasbag49
(g65
g51
NtRp3849
(dp3850
g54
(dp3851
sg63
g3757
sg56
(lp3852
g49
(g70
g51
NtRp3853
(dp3854
g54
(dp3855
g74
g75
ssg63
g3849
sg56
(lp3856
S'X-Powered-By'
p3857
asbag49
(g70
g51
NtRp3858
(dp3859
g54
(dp3860
g81
g82
ssg63
g3849
sg56
(lp3861
S':'
asbag49
(g70
g51
NtRp3862
(dp3863
g54
(dp3864
sg63
g3849
sg56
(lp3865
g49
(g50
g51
NtRp3866
(dp3867
g54
(dp3868
g62
I4
ssg63
g3862
sg56
(lp3869
S'web2py'
p3870
asbasbasbasbasbasbasbag49
(g65
g51
NtRp3871
(dp3872
g54
(dp3873
sg63
g3387
sg56
(lp3874
g49
(g70
g51
NtRp3875
(dp3876
g54
(dp3877
g74
g75
ssg63
g3871
sg56
(lp3878
S'menu'
p3879
asbag49
(g70
g51
NtRp3880
(dp3881
g54
(dp3882
g81
g82
ssg63
g3871
sg56
(lp3883
S':'
asbag49
(g70
g51
NtRp3884
(dp3885
g54
(dp3886
sg63
g3871
sg56
(lp3887
g49
(g50
g51
NtRp3888
(dp3889
g54
(dp3890
g62
I5
ssg63
g3884
sg56
(lp3891
g49
(g58
g51
NtRp3892
(dp3893
g54
(dp3894
g62
I4
ssg63
Nsg56
(lp3895
g49
(g65
g51
NtRp3896
(dp3897
g54
(dp3898
sg63
g3892
sg56
(lp3899
g49
(g70
g51
NtRp3900
(dp3901
g54
(dp3902
sg63
g3896
sg56
(lp3903
g49
(g50
g51
NtRp3904
(dp3905
g54
(dp3906
g62
I4
ssg63
g3900
sg56
(lp3907
g49
(g58
g51
NtRp3908
(dp3909
g54
(dp3910
g62
I3
ssg63
Nsg56
(lp3911
g49
(g65
g51
NtRp3912
(dp3913
g54
(dp3914
sg63
g3908
sg56
(lp3915
g49
(g70
g51
NtRp3916
(dp3917
g54
(dp3918
sg63
g3912
sg56
(lp3919
g49
(g50
g51
NtRp3920
(dp3921
g54
(dp3922
g62
I3
ssg63
g3916
sg56
(lp3923
cgluon.languages
lazyT_unpickle
p3924
(S's\x04\x00\x00\x00Home'
tRp3925
asbasbasbag49
(g65
g51
NtRp3926
(dp3927
g54
(dp3928
sg63
g3908
sg56
(lp3929
g49
(g70
g51
NtRp3930
(dp3931
g54
(dp3932
sg63
g3926
sg56
(lp3933
g49
(g50
g51
NtRp3934
(dp3935
g54
(dp3936
g62
I3
ssg63
g3930
sg56
(lp3937
g92
asbasbasbag49
(g65
g51
NtRp3938
(dp3939
g54
(dp3940
sg63
g3908
sg56
(lp3941
g49
(g70
g51
NtRp3942
(dp3943
g54
(dp3944
sg63
g3938
sg56
(lp3945
g49
(g50
g51
NtRp3946
(dp3947
g54
(dp3948
g62
I3
ssg63
g3942
sg56
(lp3949
S'/'
asbasbasbag49
(g65
g51
NtRp3950
(dp3951
g54
(dp3952
sg63
g3908
sg56
(lp3953
g49
(g70
g51
NtRp3954
(dp3955
g54
(dp3956
sg63
g3950
sg56
(lp3957
g49
(g50
g51
NtRp3958
(dp3959
g54
(dp3960
g62
I3
ssg63
g3954
sg56
(lp3961
g49
(g58
g51
NtRp3962
(dp3963
g54
(dp3964
g62
I2
ssg63
Nsg56
(lp3965
sbasbasbasbasbasbasbasbag49
(g65
g51
NtRp3966
(dp3967
g54
(dp3968
sg63
g3892
sg56
(lp3969
g49
(g70
g51
NtRp3970
(dp3971
g54
(dp3972
sg63
g3966
sg56
(lp3973
g49
(g50
g51
NtRp3974
(dp3975
g54
(dp3976
g62
I4
ssg63
g3970
sg56
(lp3977
g49
(g58
g51
NtRp3978
(dp3979
g54
(dp3980
g62
I3
ssg63
Nsg56
(lp3981
g49
(g65
g51
NtRp3982
(dp3983
g54
(dp3984
sg63
g3978
sg56
(lp3985
g49
(g70
g51
NtRp3986
(dp3987
g54
(dp3988
sg63
g3982
sg56
(lp3989
g49
(g50
g51
NtRp3990
(dp3991
g54
(dp3992
g62
I3
ssg63
g3986
sg56
(lp3993
g49
(cgluon.html
SPAN
p3994
g51
NtRp3995
(dp3996
g54
(dp3997
g74
S'color:yellow'
p3998
ssg63
Nsg56
(lp3999
g3870
asbasbasbasbag49
(g65
g51
NtRp4000
(dp4001
g54
(dp4002
sg63
g3978
sg56
(lp4003
g49
(g70
g51
NtRp4004
(dp4005
g54
(dp4006
sg63
g4000
sg56
(lp4007
g49
(g50
g51
NtRp4008
(dp4009
g54
(dp4010
g62
I3
ssg63
g4004
sg56
(lp4011
g92
asbasbasbag49
(g65
g51
NtRp4012
(dp4013
g54
(dp4014
sg63
g3978
sg56
(lp4015
g49
(g70
g51
NtRp4016
(dp4017
g54
(dp4018
sg63
g4012
sg56
(lp4019
g49
(g50
g51
NtRp4020
(dp4021
g54
(dp4022
g62
I3
ssg63
g4016
sg56
(lp4023
S'None'
p4024
asbasbasbag49
(g65
g51
NtRp4025
(dp4026
g54
(dp4027
sg63
g3978
sg56
(lp4028
g49
(g70
g51
NtRp4029
(dp4030
g54
(dp4031
sg63
g4025
sg56
(lp4032
g49
(g50
g51
NtRp4033
(dp4034
g54
(dp4035
g62
I3
ssg63
g4029
sg56
(lp4036
g49
(g58
g51
NtRp4037
(dp4038
g54
(dp4039
g62
I2
ssg63
Nsg56
(lp4040
g49
(g65
g51
NtRp4041
(dp4042
g54
(dp4043
sg63
g4037
sg56
(lp4044
g49
(g70
g51
NtRp4045
(dp4046
g54
(dp4047
sg63
g4041
sg56
(lp4048
g49
(g50
g51
NtRp4049
(dp4050
g54
(dp4051
g62
I2
ssg63
g4045
sg56
(lp4052
g49
(g58
g51
NtRp4053
(dp4054
g54
(dp4055
g62
I1
ssg63
Nsg56
(lp4056
g49
(g65
g51
NtRp4057
(dp4058
g54
(dp4059
sg63
g4053
sg56
(lp4060
g49
(g70
g51
NtRp4061
(dp4062
g54
(dp4063
sg63
g4057
sg56
(lp4064
g49
(g50
g51
NtRp4065
(dp4066
g54
(dp4067
g62
I1
ssg63
g4061
sg56
(lp4068
g3924
(S's\x08\x00\x00\x00My Sites'
tRp4069
asbasbasbag49
(g65
g51
NtRp4070
(dp4071
g54
(dp4072
sg63
g4053
sg56
(lp4073
g49
(g70
g51
NtRp4074
(dp4075
g54
(dp4076
sg63
g4070
sg56
(lp4077
g49
(g50
g51
NtRp4078
(dp4079
g54
(dp4080
g62
I1
ssg63
g4074
sg56
(lp4081
I00
asbasbasbag49
(g65
g51
NtRp4082
(dp4083
g54
(dp4084
sg63
g4053
sg56
(lp4085
g49
(g70
g51
NtRp4086
(dp4087
g54
(dp4088
sg63
g4082
sg56
(lp4089
g49
(g50
g51
NtRp4090
(dp4091
g54
(dp4092
g62
I1
ssg63
g4086
sg56
(lp4093
S'/admin/site'
p4094
asbasbasbasbasbasbasbag49
(g65
g51
NtRp4095
(dp4096
g54
(dp4097
sg63
g4037
sg56
(lp4098
g49
(g70
g51
NtRp4099
(dp4100
g54
(dp4101
sg63
g4095
sg56
(lp4102
g49
(g50
g51
NtRp4103
(dp4104
g54
(dp4105
g62
I2
ssg63
g4099
sg56
(lp4106
g49
(g58
g51
NtRp4107
(dp4108
g54
(dp4109
g62
I1
ssg63
Nsg56
(lp4110
g49
(g65
g51
NtRp4111
(dp4112
g54
(dp4113
sg63
g4107
sg56
(lp4114
g49
(g70
g51
NtRp4115
(dp4116
g54
(dp4117
sg63
g4111
sg56
(lp4118
g49
(g50
g51
NtRp4119
(dp4120
g54
(dp4121
g62
I1
ssg63
g4115
sg56
(lp4122
g3924
(S's\x08\x00\x00\x00This App'
tRp4123
asbasbasbag49
(g65
g51
NtRp4124
(dp4125
g54
(dp4126
sg63
g4107
sg56
(lp4127
g49
(g70
g51
NtRp4128
(dp4129
g54
(dp4130
sg63
g4124
sg56
(lp4131
g49
(g50
g51
NtRp4132
(dp4133
g54
(dp4134
g62
I1
ssg63
g4128
sg56
(lp4135
I00
asbasbasbag49
(g65
g51
NtRp4136
(dp4137
g54
(dp4138
sg63
g4107
sg56
(lp4139
g49
(g70
g51
NtRp4140
(dp4141
g54
(dp4142
sg63
g4136
sg56
(lp4143
g49
(g50
g51
NtRp4144
(dp4145
g54
(dp4146
g62
I1
ssg63
g4140
sg56
(lp4147
S'/admin/design/udi0312'
p4148
asbasbasbag49
(g65
g51
NtRp4149
(dp4150
g54
(dp4151
sg63
g4107
sg56
(lp4152
g49
(g70
g51
NtRp4153
(dp4154
g54
(dp4155
sg63
g4149
sg56
(lp4156
g49
(g50
g51
NtRp4157
(dp4158
g54
(dp4159
g62
I1
ssg63
g4153
sg56
(lp4160
(lp4161
(g3924
(S's\n\x00\x00\x00Controller'
tRp4162
I00
S'/admin/edit/udi0312/controllers/default.py'
tp4163
a(g3924
(S's\x04\x00\x00\x00View'
tRp4164
I00
S'/admin/edit/udi0312/views/default/index.html'
tp4165
a(g3924
(S's\x06\x00\x00\x00Layout'
tRp4166
I00
S'/admin/edit/udi0312/views/layout.html'
tp4167
a(g3924
(S's\n\x00\x00\x00Stylesheet'
tRp4168
I00
S'/admin/edit/udi0312/static/css/web2py.css'
tp4169
a(g3924
(S's\x08\x00\x00\x00DB Model'
tRp4170
I00
S'/admin/edit/udi0312/models/db.py'
tp4171
a(g3924
(S's\n\x00\x00\x00Menu Model'
tRp4172
I00
S'/admin/edit/udi0312/models/menu.py'
tp4173
a(g3924
(S's\x08\x00\x00\x00Database'
tRp4174
I00
S'/appadmin'
tp4175
a(g3924
(S's\x06\x00\x00\x00Errors'
tRp4176
I00
S'/admin/errors/udi0312'
tp4177
a(g3924
(S's\x05\x00\x00\x00About'
tRp4178
I00
S'/admin/about/udi0312'
tp4179
aasbasbasbasbasbasbasbag49
(g65
g51
NtRp4180
(dp4181
g54
(dp4182
sg63
g4037
sg56
(lp4183
g49
(g70
g51
NtRp4184
(dp4185
g54
(dp4186
sg63
g4180
sg56
(lp4187
g49
(g50
g51
NtRp4188
(dp4189
g54
(dp4190
g62
I2
ssg63
g4184
sg56
(lp4191
g49
(g58
g51
NtRp4192
(dp4193
g54
(dp4194
g62
I1
ssg63
Nsg56
(lp4195
g49
(g65
g51
NtRp4196
(dp4197
g54
(dp4198
sg63
g4192
sg56
(lp4199
g49
(g70
g51
NtRp4200
(dp4201
g54
(dp4202
sg63
g4196
sg56
(lp4203
g49
(g50
g51
NtRp4204
(dp4205
g54
(dp4206
g62
I1
ssg63
g4200
sg56
(lp4207
S'web2py.com'
p4208
asbasbasbag49
(g65
g51
NtRp4209
(dp4210
g54
(dp4211
sg63
g4192
sg56
(lp4212
g49
(g70
g51
NtRp4213
(dp4214
g54
(dp4215
sg63
g4209
sg56
(lp4216
g49
(g50
g51
NtRp4217
(dp4218
g54
(dp4219
g62
I1
ssg63
g4213
sg56
(lp4220
I00
asbasbasbag49
(g65
g51
NtRp4221
(dp4222
g54
(dp4223
sg63
g4192
sg56
(lp4224
g49
(g70
g51
NtRp4225
(dp4226
g54
(dp4227
sg63
g4221
sg56
(lp4228
g49
(g50
g51
NtRp4229
(dp4230
g54
(dp4231
g62
I1
ssg63
g4225
sg56
(lp4232
S'http://www.web2py.com'
p4233
asbasbasbag49
(g65
g51
NtRp4234
(dp4235
g54
(dp4236
sg63
g4192
sg56
(lp4237
g49
(g70
g51
NtRp4238
(dp4239
g54
(dp4240
sg63
g4234
sg56
(lp4241
g49
(g50
g51
NtRp4242
(dp4243
g54
(dp4244
g62
I1
ssg63
g4238
sg56
(lp4245
(lp4246
(g3924
(S's\x08\x00\x00\x00Download'
tRp4247
I00
S'http://www.web2py.com/examples/default/download'
p4248
tp4249
a(g3924
(S's\x07\x00\x00\x00Support'
tRp4250
I00
S'http://www.web2py.com/examples/default/support'
p4251
tp4252
a(g3924
(S's\x04\x00\x00\x00Demo'
tRp4253
I00
S'http://web2py.com/demo_admin'
p4254
tp4255
a(g3924
(S's\x0e\x00\x00\x00Quick Examples'
tRp4256
I00
S'http://web2py.com/examples/default/examples'
p4257
tp4258
a(g3924
(S's\x03\x00\x00\x00FAQ'
tRp4259
I00
S'http://web2py.com/AlterEgo'
p4260
tp4261
a(g3924
(S's\x06\x00\x00\x00Videos'
tRp4262
I00
S'http://www.web2py.com/examples/default/videos/'
p4263
tp4264
a(g3924
(S's\x11\x00\x00\x00Free Applications'
tRp4265
I00
S'http://web2py.com/appliances'
p4266
tp4267
a(g3924
(S's\x07\x00\x00\x00Plugins'
tRp4268
I00
S'http://web2py.com/plugins'
p4269
tp4270
a(g3924
(S's\x07\x00\x00\x00Layouts'
tRp4271
I00
S'http://web2py.com/layouts'
p4272
tp4273
a(g3924
(S's\x07\x00\x00\x00Recipes'
tRp4274
I00
S'http://web2pyslices.com/'
p4275
tp4276
a(g3924
(S's\x08\x00\x00\x00Semantic'
tRp4277
I00
S'http://web2py.com/semantic'
p4278
tp4279
aasbasbasbasbasbasbasbag49
(g65
g51
NtRp4280
(dp4281
g54
(dp4282
sg63
g4037
sg56
(lp4283
g49
(g70
g51
NtRp4284
(dp4285
g54
(dp4286
sg63
g4280
sg56
(lp4287
g49
(g50
g51
NtRp4288
(dp4289
g54
(dp4290
g62
I2
ssg63
g4284
sg56
(lp4291
g49
(g58
g51
NtRp4292
(dp4293
g54
(dp4294
g62
I1
ssg63
Nsg56
(lp4295
g49
(g65
g51
NtRp4296
(dp4297
g54
(dp4298
sg63
g4292
sg56
(lp4299
g49
(g70
g51
NtRp4300
(dp4301
g54
(dp4302
sg63
g4296
sg56
(lp4303
g49
(g50
g51
NtRp4304
(dp4305
g54
(dp4306
g62
I1
ssg63
g4300
sg56
(lp4307
g3924
(S's\r\x00\x00\x00Documentation'
tRp4308
asbasbasbag49
(g65
g51
NtRp4309
(dp4310
g54
(dp4311
sg63
g4292
sg56
(lp4312
g49
(g70
g51
NtRp4313
(dp4314
g54
(dp4315
sg63
g4309
sg56
(lp4316
g49
(g50
g51
NtRp4317
(dp4318
g54
(dp4319
g62
I1
ssg63
g4313
sg56
(lp4320
I00
asbasbasbag49
(g65
g51
NtRp4321
(dp4322
g54
(dp4323
sg63
g4292
sg56
(lp4324
g49
(g70
g51
NtRp4325
(dp4326
g54
(dp4327
sg63
g4321
sg56
(lp4328
g49
(g50
g51
NtRp4329
(dp4330
g54
(dp4331
g62
I1
ssg63
g4325
sg56
(lp4332
S'http://www.web2py.com/book'
p4333
asbasbasbag49
(g65
g51
NtRp4334
(dp4335
g54
(dp4336
sg63
g4292
sg56
(lp4337
g49
(g70
g51
NtRp4338
(dp4339
g54
(dp4340
sg63
g4334
sg56
(lp4341
g49
(g50
g51
NtRp4342
(dp4343
g54
(dp4344
g62
I1
ssg63
g4338
sg56
(lp4345
(lp4346
(g3924
(S's\x07\x00\x00\x00Preface'
tRp4347
I00
S'http://www.web2py.com/book/default/chapter/00'
p4348
tp4349
a(g3924
(S's\x0c\x00\x00\x00Introduction'
tRp4350
I00
S'http://www.web2py.com/book/default/chapter/01'
p4351
tp4352
a(g3924
(S's\x06\x00\x00\x00Python'
tRp4353
I00
S'http://www.web2py.com/book/default/chapter/02'
p4354
tp4355
a(g3924
(S's\x08\x00\x00\x00Overview'
tRp4356
I00
S'http://www.web2py.com/book/default/chapter/03'
p4357
tp4358
a(g3924
(S's\x08\x00\x00\x00The Core'
tRp4359
I00
S'http://www.web2py.com/book/default/chapter/04'
p4360
tp4361
a(g3924
(S's\t\x00\x00\x00The Views'
tRp4362
I00
S'http://www.web2py.com/book/default/chapter/05'
p4363
tp4364
a(g3924
(S's\x08\x00\x00\x00Database'
tRp4365
I00
S'http://www.web2py.com/book/default/chapter/06'
p4366
tp4367
a(g3924
(S's\x14\x00\x00\x00Forms and Validators'
tRp4368
I00
S'http://www.web2py.com/book/default/chapter/07'
p4369
tp4370
a(g3924
(S's\r\x00\x00\x00Email and SMS'
tRp4371
I00
S'http://www.web2py.com/book/default/chapter/08'
p4372
tp4373
a(g3924
(S's\x0e\x00\x00\x00Access Control'
tRp4374
I00
S'http://www.web2py.com/book/default/chapter/09'
p4375
tp4376
a(g3924
(S's\x08\x00\x00\x00Services'
tRp4377
I00
S'http://www.web2py.com/book/default/chapter/10'
p4378
tp4379
a(g3924
(S's\x0c\x00\x00\x00Ajax Recipes'
tRp4380
I00
S'http://www.web2py.com/book/default/chapter/11'
p4381
tp4382
a(g3924
(S's\x16\x00\x00\x00Components and Plugins'
tRp4383
I00
S'http://www.web2py.com/book/default/chapter/12'
p4384
tp4385
a(g3924
(S's\x12\x00\x00\x00Deployment Recipes'
tRp4386
I00
S'http://www.web2py.com/book/default/chapter/13'
p4387
tp4388
a(g3924
(S's\r\x00\x00\x00Other Recipes'
tRp4389
I00
S'http://www.web2py.com/book/default/chapter/14'
p4390
tp4391
a(g3924
(S's\r\x00\x00\x00Buy this book'
tRp4392
I00
S'http://stores.lulu.com/web2py'
p4393
tp4394
aasbasbasbasbasbasbasbag49
(g65
g51
NtRp4395
(dp4396
g54
(dp4397
sg63
g4037
sg56
(lp4398
g49
(g70
g51
NtRp4399
(dp4400
g54
(dp4401
sg63
g4395
sg56
(lp4402
g49
(g50
g51
NtRp4403
(dp4404
g54
(dp4405
g62
I2
ssg63
g4399
sg56
(lp4406
g49
(g58
g51
NtRp4407
(dp4408
g54
(dp4409
g62
I1
ssg63
Nsg56
(lp4410
g49
(g65
g51
NtRp4411
(dp4412
g54
(dp4413
sg63
g4407
sg56
(lp4414
g49
(g70
g51
NtRp4415
(dp4416
g54
(dp4417
sg63
g4411
sg56
(lp4418
g49
(g50
g51
NtRp4419
(dp4420
g54
(dp4421
g62
I1
ssg63
g4415
sg56
(lp4422
g3924
(S's\t\x00\x00\x00Community'
tRp4423
asbasbasbag49
(g65
g51
NtRp4424
(dp4425
g54
(dp4426
sg63
g4407
sg56
(lp4427
g49
(g70
g51
NtRp4428
(dp4429
g54
(dp4430
sg63
g4424
sg56
(lp4431
g49
(g50
g51
NtRp4432
(dp4433
g54
(dp4434
g62
I1
ssg63
g4428
sg56
(lp4435
I00
asbasbasbag49
(g65
g51
NtRp4436
(dp4437
g54
(dp4438
sg63
g4407
sg56
(lp4439
g49
(g70
g51
NtRp4440
(dp4441
g54
(dp4442
sg63
g4436
sg56
(lp4443
g49
(g50
g51
NtRp4444
(dp4445
g54
(dp4446
g62
I1
ssg63
g4440
sg56
(lp4447
Nasbasbasbag49
(g65
g51
NtRp4448
(dp4449
g54
(dp4450
sg63
g4407
sg56
(lp4451
g49
(g70
g51
NtRp4452
(dp4453
g54
(dp4454
sg63
g4448
sg56
(lp4455
g49
(g50
g51
NtRp4456
(dp4457
g54
(dp4458
g62
I1
ssg63
g4452
sg56
(lp4459
(lp4460
(g3924
(S's\x06\x00\x00\x00Groups'
tRp4461
I00
S'http://www.web2py.com/examples/default/usergroups'
p4462
tp4463
a(g3924
(S's\x07\x00\x00\x00Twitter'
tRp4464
I00
S'http://twitter.com/web2py'
p4465
tp4466
a(g3924
(S's\t\x00\x00\x00Live Chat'
tRp4467
I00
S'http://webchat.freenode.net/?channels=web2py'
p4468
tp4469
aasbasbasbasbasbasbasbag49
(g65
g51
NtRp4470
(dp4471
g54
(dp4472
sg63
g4037
sg56
(lp4473
g49
(g70
g51
NtRp4474
(dp4475
g54
(dp4476
sg63
g4470
sg56
(lp4477
g49
(g50
g51
NtRp4478
(dp4479
g54
(dp4480
g62
I2
ssg63
g4474
sg56
(lp4481
g49
(g58
g51
NtRp4482
(dp4483
g54
(dp4484
g62
I1
ssg63
Nsg56
(lp4485
g49
(g65
g51
NtRp4486
(dp4487
g54
(dp4488
sg63
g4482
sg56
(lp4489
g49
(g70
g51
NtRp4490
(dp4491
g54
(dp4492
sg63
g4486
sg56
(lp4493
g49
(g50
g51
NtRp4494
(dp4495
g54
(dp4496
g62
I1
ssg63
g4490
sg56
(lp4497
g3924
(S's\x07\x00\x00\x00Plugins'
tRp4498
asbasbasbag49
(g65
g51
NtRp4499
(dp4500
g54
(dp4501
sg63
g4482
sg56
(lp4502
g49
(g70
g51
NtRp4503
(dp4504
g54
(dp4505
sg63
g4499
sg56
(lp4506
g49
(g50
g51
NtRp4507
(dp4508
g54
(dp4509
g62
I1
ssg63
g4503
sg56
(lp4510
I00
asbasbasbag49
(g65
g51
NtRp4511
(dp4512
g54
(dp4513
sg63
g4482
sg56
(lp4514
g49
(g70
g51
NtRp4515
(dp4516
g54
(dp4517
sg63
g4511
sg56
(lp4518
g49
(g50
g51
NtRp4519
(dp4520
g54
(dp4521
g62
I1
ssg63
g4515
sg56
(lp4522
Nasbasbasbag49
(g65
g51
NtRp4523
(dp4524
g54
(dp4525
sg63
g4482
sg56
(lp4526
g49
(g70
g51
NtRp4527
(dp4528
g54
(dp4529
sg63
g4523
sg56
(lp4530
g49
(g50
g51
NtRp4531
(dp4532
g54
(dp4533
g62
I1
ssg63
g4527
sg56
(lp4534
(lp4535
(S'plugin_wiki'
p4536
I00
S'http://web2py.com/examples/default/download'
p4537
tp4538
a(g3924
(S's\r\x00\x00\x00Other Plugins'
tRp4539
I00
g4269
tp4540
a(g3924
(S's\x0e\x00\x00\x00Layout Plugins'
tRp4541
I00
g4272
tp4542
aasbasbasbasbasbasbasbasbasbasbasbasbasbasbasbasbasbasbasbag49
(g65
g51
NtRp4543
(dp4544
g54
(dp4545
sg63
g3387
sg56
(lp4546
g49
(g70
g51
NtRp4547
(dp4548
g54
(dp4549
g74
g75
ssg63
g4543
sg56
(lp4550
S'meta'
p4551
asbag49
(g70
g51
NtRp4552
(dp4553
g54
(dp4554
g81
g82
ssg63
g4543
sg56
(lp4555
S':'
asbag49
(g70
g51
NtRp4556
(dp4557
g54
(dp4558
sg63
g4543
sg56
(lp4559
g49
(g50
g51
NtRp4560
(dp4561
g54
(dp4562
g62
I5
ssg63
g4556
sg56
(lp4563
g49
(g58
g51
NtRp4564
(dp4565
g54
(dp4566
g62
I4
ssg63
Nsg56
(lp4567
g49
(g65
g51
NtRp4568
(dp4569
g54
(dp4570
sg63
g4564
sg56
(lp4571
g49
(g70
g51
NtRp4572
(dp4573
g54
(dp4574
g74
g75
ssg63
g4568
sg56
(lp4575
S'author'
p4576
asbag49
(g70
g51
NtRp4577
(dp4578
g54
(dp4579
g81
g82
ssg63
g4568
sg56
(lp4580
S':'
asbag49
(g70
g51
NtRp4581
(dp4582
g54
(dp4583
sg63
g4568
sg56
(lp4584
g49
(g50
g51
NtRp4585
(dp4586
g54
(dp4587
g62
I4
ssg63
g4581
sg56
(lp4588
S'Your Name <you@example.com>'
p4589
asbasbasbag49
(g65
g51
NtRp4590
(dp4591
g54
(dp4592
sg63
g4564
sg56
(lp4593
g49
(g70
g51
NtRp4594
(dp4595
g54
(dp4596
g74
g75
ssg63
g4590
sg56
(lp4597
S'copyright'
p4598
asbag49
(g70
g51
NtRp4599
(dp4600
g54
(dp4601
g81
g82
ssg63
g4590
sg56
(lp4602
S':'
asbag49
(g70
g51
NtRp4603
(dp4604
g54
(dp4605
sg63
g4590
sg56
(lp4606
g49
(g50
g51
NtRp4607
(dp4608
g54
(dp4609
g62
I4
ssg63
g4603
sg56
(lp4610
S'Copyright 2011'
p4611
asbasbasbag49
(g65
g51
NtRp4612
(dp4613
g54
(dp4614
sg63
g4564
sg56
(lp4615
g49
(g70
g51
NtRp4616
(dp4617
g54
(dp4618
g74
g75
ssg63
g4612
sg56
(lp4619
S'description'
p4620
asbag49
(g70
g51
NtRp4621
(dp4622
g54
(dp4623
g81
g82
ssg63
g4612
sg56
(lp4624
S':'
asbag49
(g70
g51
NtRp4625
(dp4626
g54
(dp4627
sg63
g4612
sg56
(lp4628
g49
(g50
g51
NtRp4629
(dp4630
g54
(dp4631
g62
I4
ssg63
g4625
sg56
(lp4632
S'a cool new app'
p4633
asbasbasbag49
(g65
g51
NtRp4634
(dp4635
g54
(dp4636
sg63
g4564
sg56
(lp4637
g49
(g70
g51
NtRp4638
(dp4639
g54
(dp4640
g74
g75
ssg63
g4634
sg56
(lp4641
S'generator'
p4642
asbag49
(g70
g51
NtRp4643
(dp4644
g54
(dp4645
g81
g82
ssg63
g4634
sg56
(lp4646
S':'
asbag49
(g70
g51
NtRp4647
(dp4648
g54
(dp4649
sg63
g4634
sg56
(lp4650
g49
(g50
g51
NtRp4651
(dp4652
g54
(dp4653
g62
I4
ssg63
g4647
sg56
(lp4654
S'Web2py Web Framework'
p4655
asbasbasbag49
(g65
g51
NtRp4656
(dp4657
g54
(dp4658
sg63
g4564
sg56
(lp4659
g49
(g70
g51
NtRp4660
(dp4661
g54
(dp4662
g74
g75
ssg63
g4656
sg56
(lp4663
S'keywords'
p4664
asbag49
(g70
g51
NtRp4665
(dp4666
g54
(dp4667
g81
g82
ssg63
g4656
sg56
(lp4668
S':'
asbag49
(g70
g51
NtRp4669
(dp4670
g54
(dp4671
sg63
g4656
sg56
(lp4672
g49
(g50
g51
NtRp4673
(dp4674
g54
(dp4675
g62
I4
ssg63
g4669
sg56
(lp4676
S'web2py, python, framework'
p4677
asbasbasbasbasbasbasbag49
(g65
g51
NtRp4678
(dp4679
g54
(dp4680
sg63
g3387
sg56
(lp4681
g49
(g70
g51
NtRp4682
(dp4683
g54
(dp4684
g74
g75
ssg63
g4678
sg56
(lp4685
S'postprocessing'
p4686
asbag49
(g70
g51
NtRp4687
(dp4688
g54
(dp4689
g81
g82
ssg63
g4678
sg56
(lp4690
S':'
asbag49
(g70
g51
NtRp4691
(dp4692
g54
(dp4693
sg63
g4678
sg56
(lp4694
g49
(g50
g51
NtRp4695
(dp4696
g54
(dp4697
g62
I5
ssg63
g4691
sg56
(lp4698
g49
(g58
g51
NtRp4699
(dp4700
g54
(dp4701
g62
I4
ssg63
Nsg56
(lp4702
sbasbasbasbag49
(g65
g51
NtRp4703
(dp4704
g54
(dp4705
sg63
g3387
sg56
(lp4706
g49
(g70
g51
NtRp4707
(dp4708
g54
(dp4709
g74
g75
ssg63
g4703
sg56
(lp4710
S'session_file'
p4711
asbag49
(g70
g51
NtRp4712
(dp4713
g54
(dp4714
g81
g82
ssg63
g4703
sg56
(lp4715
S':'
asbag49
(g70
g51
NtRp4716
(dp4717
g54
(dp4718
sg63
g4703
sg56
(lp4719
g49
(g50
g51
NtRp4720
(dp4721
g54
(dp4722
g62
I5
ssg63
g4716
sg56
(lp4723
S"<open file '/Users/udimilo/Documents/web2py/applications/udi0312/sessions/127.0.0.1-fcd6a577-d448-4882-b7bc-f353da84ba3b', mode 'rb+' at 0xa3918d8>"
p4724
asbasbasbag49
(g65
g51
NtRp4725
(dp4726
g54
(dp4727
sg63
g3387
sg56
(lp4728
g49
(g70
g51
NtRp4729
(dp4730
g54
(dp4731
g74
g75
ssg63
g4725
sg56
(lp4732
S'session_filename'
p4733
asbag49
(g70
g51
NtRp4734
(dp4735
g54
(dp4736
g81
g82
ssg63
g4725
sg56
(lp4737
S':'
asbag49
(g70
g51
NtRp4738
(dp4739
g54
(dp4740
sg63
g4725
sg56
(lp4741
g49
(g50
g51
NtRp4742
(dp4743
g54
(dp4744
g62
I5
ssg63
g4738
sg56
(lp4745
S'/Users/udimilo/Documents/web2py/applications/udi0312/sessions/127.0.0.1-fcd6a577-d448-4882-b7bc-f353da84ba3b'
p4746
asbasbasbag49
(g65
g51
NtRp4747
(dp4748
g54
(dp4749
sg63
g3387
sg56
(lp4750
g49
(g70
g51
NtRp4751
(dp4752
g54
(dp4753
g74
g75
ssg63
g4747
sg56
(lp4754
S'session_id'
p4755
asbag49
(g70
g51
NtRp4756
(dp4757
g54
(dp4758
g81
g82
ssg63
g4747
sg56
(lp4759
S':'
asbag49
(g70
g51
NtRp4760
(dp4761
g54
(dp4762
sg63
g4747
sg56
(lp4763
g49
(g50
g51
NtRp4764
(dp4765
g54
(dp4766
g62
I5
ssg63
g4760
sg56
(lp4767
S'127.0.0.1-fcd6a577-d448-4882-b7bc-f353da84ba3b'
p4768
asbasbasbag49
(g65
g51
NtRp4769
(dp4770
g54
(dp4771
sg63
g3387
sg56
(lp4772
g49
(g70
g51
NtRp4773
(dp4774
g54
(dp4775
g74
g75
ssg63
g4769
sg56
(lp4776
S'session_id_name'
p4777
asbag49
(g70
g51
NtRp4778
(dp4779
g54
(dp4780
g81
g82
ssg63
g4769
sg56
(lp4781
S':'
asbag49
(g70
g51
NtRp4782
(dp4783
g54
(dp4784
sg63
g4769
sg56
(lp4785
g49
(g50
g51
NtRp4786
(dp4787
g54
(dp4788
g62
I5
ssg63
g4782
sg56
(lp4789
g3444
asbasbasbag49
(g65
g51
NtRp4790
(dp4791
g54
(dp4792
sg63
g3387
sg56
(lp4793
g49
(g70
g51
NtRp4794
(dp4795
g54
(dp4796
g74
g75
ssg63
g4790
sg56
(lp4797
S'session_locked'
p4798
asbag49
(g70
g51
NtRp4799
(dp4800
g54
(dp4801
g81
g82
ssg63
g4790
sg56
(lp4802
S':'
asbag49
(g70
g51
NtRp4803
(dp4804
g54
(dp4805
sg63
g4790
sg56
(lp4806
g49
(g50
g51
NtRp4807
(dp4808
g54
(dp4809
g62
I5
ssg63
g4803
sg56
(lp4810
g1508
asbasbasbag49
(g65
g51
NtRp4811
(dp4812
g54
(dp4813
sg63
g3387
sg56
(lp4814
g49
(g70
g51
NtRp4815
(dp4816
g54
(dp4817
g74
g75
ssg63
g4811
sg56
(lp4818
S'session_new'
p4819
asbag49
(g70
g51
NtRp4820
(dp4821
g54
(dp4822
g81
g82
ssg63
g4811
sg56
(lp4823
S':'
asbag49
(g70
g51
NtRp4824
(dp4825
g54
(dp4826
sg63
g4811
sg56
(lp4827
g49
(g50
g51
NtRp4828
(dp4829
g54
(dp4830
g62
I5
ssg63
g4824
sg56
(lp4831
g92
asbasbasbag49
(g65
g51
NtRp4832
(dp4833
g54
(dp4834
sg63
g3387
sg56
(lp4835
g49
(g70
g51
NtRp4836
(dp4837
g54
(dp4838
g74
g75
ssg63
g4832
sg56
(lp4839
S'status'
p4840
asbag49
(g70
g51
NtRp4841
(dp4842
g54
(dp4843
g81
g82
ssg63
g4832
sg56
(lp4844
S':'
asbag49
(g70
g51
NtRp4845
(dp4846
g54
(dp4847
sg63
g4832
sg56
(lp4848
g49
(g50
g51
NtRp4849
(dp4850
g54
(dp4851
g62
I5
ssg63
g4845
sg56
(lp4852
S'200'
p4853
asbasbasbag49
(g65
g51
NtRp4854
(dp4855
g54
(dp4856
sg63
g3387
sg56
(lp4857
g49
(g70
g51
NtRp4858
(dp4859
g54
(dp4860
g74
g75
ssg63
g4854
sg56
(lp4861
S'subtitle'
p4862
asbag49
(g70
g51
NtRp4863
(dp4864
g54
(dp4865
g81
g82
ssg63
g4854
sg56
(lp4866
S':'
asbag49
(g70
g51
NtRp4867
(dp4868
g54
(dp4869
sg63
g4854
sg56
(lp4870
g49
(g50
g51
NtRp4871
(dp4872
g54
(dp4873
g62
I5
ssg63
g4867
sg56
(lp4874
g3924
(S's\r\x00\x00\x00customize me!'
tRp4875
asbasbasbag49
(g65
g51
NtRp4876
(dp4877
g54
(dp4878
sg63
g3387
sg56
(lp4879
g49
(g70
g51
NtRp4880
(dp4881
g54
(dp4882
g74
g75
ssg63
g4876
sg56
(lp4883
S'title'
p4884
asbag49
(g70
g51
NtRp4885
(dp4886
g54
(dp4887
g81
g82
ssg63
g4876
sg56
(lp4888
S':'
asbag49
(g70
g51
NtRp4889
(dp4890
g54
(dp4891
sg63
g4876
sg56
(lp4892
g49
(g50
g51
NtRp4893
(dp4894
g54
(dp4895
g62
I5
ssg63
g4889
sg56
(lp4896
S'Udi0312'
p4897
asbasbasbag49
(g65
g51
NtRp4898
(dp4899
g54
(dp4900
sg63
g3387
sg56
(lp4901
g49
(g70
g51
NtRp4902
(dp4903
g54
(dp4904
g74
g75
ssg63
g4898
sg56
(lp4905
g2171
asbag49
(g70
g51
NtRp4906
(dp4907
g54
(dp4908
g81
g82
ssg63
g4898
sg56
(lp4909
S':'
asbag49
(g70
g51
NtRp4910
(dp4911
g54
(dp4912
sg63
g4898
sg56
(lp4913
g49
(g50
g51
NtRp4914
(dp4915
g54
(dp4916
g62
I5
ssg63
g4910
sg56
(lp4917
g2184
asbasbasbag49
(g65
g51
NtRp4918
(dp4919
g54
(dp4920
sg63
g3387
sg56
(lp4921
g49
(g70
g51
NtRp4922
(dp4923
g54
(dp4924
g74
g75
ssg63
g4918
sg56
(lp4925
S'view'
p4926
asbag49
(g70
g51
NtRp4927
(dp4928
g54
(dp4929
g81
g82
ssg63
g4918
sg56
(lp4930
S':'
asbag49
(g70
g51
NtRp4931
(dp4932
g54
(dp4933
sg63
g4918
sg56
(lp4934
g49
(g50
g51
NtRp4935
(dp4936
g54
(dp4937
g62
I5
ssg63
g4931
sg56
(lp4938
S'default/index.html'
p4939
asbasbasbasbasbsS'locals'
p4940
(dp4941
S'self'
p4942
S'<applications.udi0312.modules.cacheable.Cacheable object at 0xa5a9090>'
p4943
sssS'traceback'
p4944
S'Traceback (most recent call last):\n  File "/users/udimilo/Documents/web2py/gluon/restricted.py", line 205, in restricted\n    exec ccode in environment\n  File "/Users/udimilo/Documents/web2py/applications/udi0312/controllers/default.py", line 151, in <module>\n  File "/users/udimilo/Documents/web2py/gluon/globals.py", line 173, in <lambda>\n    self._caller = lambda f: f()\n  File "/Users/udimilo/Documents/web2py/applications/udi0312/controllers/default.py", line 22, in index\n    categories = c.get_categories() if auth.user else []\n  File "applications/udi0312/modules/cacheable.py", line 8, in get_categories\n    return db().select(db.category.ALL, orderby=db.category.name)\nNameError: global name \'db\' is not defined\n'
p4945
s.