(dp1
S'output'
p2
S"<type 'exceptions.NameError'> global name 'article_media_thumbnail' is not defined"
p3
sS'layer'
p4
S'/Users/udimilo/Documents/web2py/applications/udi0312/controllers/tasks.py'
p5
sS'code'
p6
S"# coding: utf8\nimport feedparser\nimport urllib2\n\ndef index(): return 'hello from tasks'\n\ndef create_article(data):\n    article = db(db.article.url == data.feedburner_origlink).select().first()\n    if article is None:\n        article = db.article.insert(\n            url=data.feedburner_origlink,\n            title=data.title,\n            content=data.content[0].value,\n            domain=urllib2.Request(url=data.feedburner_origlink).get_host(),\n            author=data.author,\n            excerpt=data.summary,\n            date_published=data.updated,\n            media_thumbnail = data.media_thumbnail[0]\n        )\n    return article\n\ndef create_pin(article, rss):\n    pin = db((db.pin.article == article.id)&(db.pin.board == rss.board)).select().first()\n    if pin is None:\n        pin = db.pin.insert(\n            article=article.id, \n            article_title = article.title,\n            article_content = article.content,\n            article_domain = article.domain,\n            article_media_thumbnail = article_media_thumbnail,\n            article_excerpt = article_excerpt,\n            board=rss.board,\n            board_name=rss.board.name,\n            user = rss.board.user,\n            user_name = rss.board.user.first_name + ' ' + rss.board.user.last_name,\n            )\n    return pin        \n\ndef rrss():\n    rss = db().select(db.rss_feed.ALL)\n    for r in rss:\n        d = feedparser.parse(r.url)\n        for item in d['entries']:\n            a = create_article(item)\n            p = create_pin(a, r)\n    return '1'\n\n\ndef rss():\n    rss = db().select(db.rss_feed.ALL)\n    for r in rss:\n        try:\n            d = feedparser.parse(r.url)\n            for item in d['entries']:\n                try:\n                    a = create_article(item)\n                    p = create_pin(a, r)\n                except:\n                    pass\n        except:\n            pass               \n    return '1'\n\nresponse._vars=response._caller(rrss)\n"
p7
sS'snapshot'
p8
(dp9
S'exception'
p10
(dp11
S'__hash__'
p12
S"<method-wrapper '__hash__' of exceptions.NameError object at 0x9fa1cd8>"
p13
sS'__setattr__'
p14
S"<method-wrapper '__setattr__' of exceptions.NameError object at 0x9fa1cd8>"
p15
sS'__reduce_ex__'
p16
S'<built-in method __reduce_ex__ of exceptions.NameError object at 0x9fa1cd8>'
p17
sS'__getslice__'
p18
S"<method-wrapper '__getslice__' of exceptions.NameError object at 0x9fa1cd8>"
p19
sS'__getitem__'
p20
S"<method-wrapper '__getitem__' of exceptions.NameError object at 0x9fa1cd8>"
p21
sS'__setstate__'
p22
S'<built-in method __setstate__ of exceptions.NameError object at 0x9fa1cd8>'
p23
sS'__reduce__'
p24
S'<built-in method __reduce__ of exceptions.NameError object at 0x9fa1cd8>'
p25
sS'__str__'
p26
S"<method-wrapper '__str__' of exceptions.NameError object at 0x9fa1cd8>"
p27
sS'args'
p28
S'("global name \'article_media_thumbnail\' is not defined",)'
p29
sS'__getattribute__'
p30
S"<method-wrapper '__getattribute__' of exceptions.NameError object at 0x9fa1cd8>"
p31
sS'__class__'
p32
S"<type 'exceptions.NameError'>"
p33
sS'__delattr__'
p34
S"<method-wrapper '__delattr__' of exceptions.NameError object at 0x9fa1cd8>"
p35
sS'__repr__'
p36
S"<method-wrapper '__repr__' of exceptions.NameError object at 0x9fa1cd8>"
p37
sS'__dict__'
p38
S'{}'
p39
sS'__doc__'
p40
S"'Name not found globally.'"
p41
sS'__init__'
p42
S"<method-wrapper '__init__' of exceptions.NameError object at 0x9fa1cd8>"
p43
sS'__new__'
p44
S'<built-in method __new__ of type object at 0x100640>'
p45
ssS'evalue'
p46
S"global name 'article_media_thumbnail' is not defined"
p47
sS'request'
p48
ccopy_reg
_reconstructor
p49
(cgluon.html
BEAUTIFY
p50
c__builtin__
object
p51
NtRp52
(dp53
S'attributes'
p54
(dp55
sS'components'
p56
(lp57
g49
(cgluon.html
TABLE
p58
g51
NtRp59
(dp60
g54
(dp61
S'level'
p62
I5
ssS'parent'
p63
Nsg56
(lp64
g49
(cgluon.html
TR
p65
g51
NtRp66
(dp67
g54
(dp68
sg63
g59
sg56
(lp69
g49
(cgluon.html
TD
p70
g51
NtRp71
(dp72
g54
(dp73
S'_style'
p74
S'font-weight:bold;vertical-align:top'
p75
ssg63
g66
sg56
(lp76
S'ajax'
p77
asbag49
(g70
g51
NtRp78
(dp79
g54
(dp80
S'_valign'
p81
S'top'
p82
ssg63
g66
sg56
(lp83
S':'
asbag49
(g70
g51
NtRp84
(dp85
g54
(dp86
sg63
g66
sg56
(lp87
g49
(g50
g51
NtRp88
(dp89
g54
(dp90
g62
I5
ssg63
g84
sg56
(lp91
S'False'
p92
asbasbasbag49
(g65
g51
NtRp93
(dp94
g54
(dp95
sg63
g59
sg56
(lp96
g49
(g70
g51
NtRp97
(dp98
g54
(dp99
g74
g75
ssg63
g93
sg56
(lp100
S'application'
p101
asbag49
(g70
g51
NtRp102
(dp103
g54
(dp104
g81
g82
ssg63
g93
sg56
(lp105
S':'
asbag49
(g70
g51
NtRp106
(dp107
g54
(dp108
sg63
g93
sg56
(lp109
g49
(g50
g51
NtRp110
(dp111
g54
(dp112
g62
I5
ssg63
g106
sg56
(lp113
S'udi0312'
p114
asbasbasbag49
(g65
g51
NtRp115
(dp116
g54
(dp117
sg63
g59
sg56
(lp118
g49
(g70
g51
NtRp119
(dp120
g54
(dp121
g74
g75
ssg63
g115
sg56
(lp122
g28
asbag49
(g70
g51
NtRp123
(dp124
g54
(dp125
g81
g82
ssg63
g115
sg56
(lp126
S':'
asbag49
(g70
g51
NtRp127
(dp128
g54
(dp129
sg63
g115
sg56
(lp130
g49
(g50
g51
NtRp131
(dp132
g54
(dp133
g62
I5
ssg63
g127
sg56
(lp134
g49
(g58
g51
NtRp135
(dp136
g54
(dp137
g62
I4
ssg63
Nsg56
(lp138
sbasbasbasbag49
(g65
g51
NtRp139
(dp140
g54
(dp141
sg63
g59
sg56
(lp142
g49
(g70
g51
NtRp143
(dp144
g54
(dp145
g74
g75
ssg63
g139
sg56
(lp146
S'body'
p147
asbag49
(g70
g51
NtRp148
(dp149
g54
(dp150
g81
g82
ssg63
g139
sg56
(lp151
S':'
asbag49
(g70
g51
NtRp152
(dp153
g54
(dp154
sg63
g139
sg56
(lp155
g49
(g50
g51
NtRp156
(dp157
g54
(dp158
g62
I5
ssg63
g152
sg56
(lp159
S'<cStringIO.StringO object at 0xacf03e0>'
p160
asbasbasbag49
(g65
g51
NtRp161
(dp162
g54
(dp163
sg63
g59
sg56
(lp164
g49
(g70
g51
NtRp165
(dp166
g54
(dp167
g74
g75
ssg63
g161
sg56
(lp168
S'client'
p169
asbag49
(g70
g51
NtRp170
(dp171
g54
(dp172
g81
g82
ssg63
g161
sg56
(lp173
S':'
asbag49
(g70
g51
NtRp174
(dp175
g54
(dp176
sg63
g161
sg56
(lp177
g49
(g50
g51
NtRp178
(dp179
g54
(dp180
g62
I5
ssg63
g174
sg56
(lp181
S'127.0.0.1'
p182
asbasbasbag49
(g65
g51
NtRp183
(dp184
g54
(dp185
sg63
g59
sg56
(lp186
g49
(g70
g51
NtRp187
(dp188
g54
(dp189
g74
g75
ssg63
g183
sg56
(lp190
S'controller'
p191
asbag49
(g70
g51
NtRp192
(dp193
g54
(dp194
g81
g82
ssg63
g183
sg56
(lp195
S':'
asbag49
(g70
g51
NtRp196
(dp197
g54
(dp198
sg63
g183
sg56
(lp199
g49
(g50
g51
NtRp200
(dp201
g54
(dp202
g62
I5
ssg63
g196
sg56
(lp203
S'tasks'
p204
asbasbasbag49
(g65
g51
NtRp205
(dp206
g54
(dp207
sg63
g59
sg56
(lp208
g49
(g70
g51
NtRp209
(dp210
g54
(dp211
g74
g75
ssg63
g205
sg56
(lp212
S'cookies'
p213
asbag49
(g70
g51
NtRp214
(dp215
g54
(dp216
g81
g82
ssg63
g205
sg56
(lp217
S':'
asbag49
(g70
g51
NtRp218
(dp219
g54
(dp220
sg63
g205
sg56
(lp221
g49
(g50
g51
NtRp222
(dp223
g54
(dp224
g62
I5
ssg63
g218
sg56
(lp225
g49
(g58
g51
NtRp226
(dp227
g54
(dp228
g62
I4
ssg63
Nsg56
(lp229
g49
(g65
g51
NtRp230
(dp231
g54
(dp232
sg63
g226
sg56
(lp233
g49
(g70
g51
NtRp234
(dp235
g54
(dp236
g74
g75
ssg63
g230
sg56
(lp237
S'session_id_admin'
p238
asbag49
(g70
g51
NtRp239
(dp240
g54
(dp241
g81
g82
ssg63
g230
sg56
(lp242
S':'
asbag49
(g70
g51
NtRp243
(dp244
g54
(dp245
sg63
g230
sg56
(lp246
g49
(g50
g51
NtRp247
(dp248
g54
(dp249
g62
I4
ssg63
g243
sg56
(lp250
g49
(g58
g51
NtRp251
(dp252
g54
(dp253
g62
I3
ssg63
Nsg56
(lp254
g49
(g65
g51
NtRp255
(dp256
g54
(dp257
sg63
g251
sg56
(lp258
g49
(g70
g51
NtRp259
(dp260
g54
(dp261
g74
g75
ssg63
g255
sg56
(lp262
S'comment'
p263
asbag49
(g70
g51
NtRp264
(dp265
g54
(dp266
g81
g82
ssg63
g255
sg56
(lp267
S':'
asbag49
(g70
g51
NtRp268
(dp269
g54
(dp270
sg63
g255
sg56
(lp271
g49
(g50
g51
NtRp272
(dp273
g54
(dp274
g62
I3
ssg63
g268
sg56
(lp275
S''
asbasbasbag49
(g65
g51
NtRp276
(dp277
g54
(dp278
sg63
g251
sg56
(lp279
g49
(g70
g51
NtRp280
(dp281
g54
(dp282
g74
g75
ssg63
g276
sg56
(lp283
S'domain'
p284
asbag49
(g70
g51
NtRp285
(dp286
g54
(dp287
g81
g82
ssg63
g276
sg56
(lp288
S':'
asbag49
(g70
g51
NtRp289
(dp290
g54
(dp291
sg63
g276
sg56
(lp292
g49
(g50
g51
NtRp293
(dp294
g54
(dp295
g62
I3
ssg63
g289
sg56
(lp296
S''
asbasbasbag49
(g65
g51
NtRp297
(dp298
g54
(dp299
sg63
g251
sg56
(lp300
g49
(g70
g51
NtRp301
(dp302
g54
(dp303
g74
g75
ssg63
g297
sg56
(lp304
S'expires'
p305
asbag49
(g70
g51
NtRp306
(dp307
g54
(dp308
g81
g82
ssg63
g297
sg56
(lp309
S':'
asbag49
(g70
g51
NtRp310
(dp311
g54
(dp312
sg63
g297
sg56
(lp313
g49
(g50
g51
NtRp314
(dp315
g54
(dp316
g62
I3
ssg63
g310
sg56
(lp317
S''
asbasbasbag49
(g65
g51
NtRp318
(dp319
g54
(dp320
sg63
g251
sg56
(lp321
g49
(g70
g51
NtRp322
(dp323
g54
(dp324
g74
g75
ssg63
g318
sg56
(lp325
S'max-age'
p326
asbag49
(g70
g51
NtRp327
(dp328
g54
(dp329
g81
g82
ssg63
g318
sg56
(lp330
S':'
asbag49
(g70
g51
NtRp331
(dp332
g54
(dp333
sg63
g318
sg56
(lp334
g49
(g50
g51
NtRp335
(dp336
g54
(dp337
g62
I3
ssg63
g331
sg56
(lp338
S''
asbasbasbag49
(g65
g51
NtRp339
(dp340
g54
(dp341
sg63
g251
sg56
(lp342
g49
(g70
g51
NtRp343
(dp344
g54
(dp345
g74
g75
ssg63
g339
sg56
(lp346
S'path'
p347
asbag49
(g70
g51
NtRp348
(dp349
g54
(dp350
g81
g82
ssg63
g339
sg56
(lp351
S':'
asbag49
(g70
g51
NtRp352
(dp353
g54
(dp354
sg63
g339
sg56
(lp355
g49
(g50
g51
NtRp356
(dp357
g54
(dp358
g62
I3
ssg63
g352
sg56
(lp359
S''
asbasbasbag49
(g65
g51
NtRp360
(dp361
g54
(dp362
sg63
g251
sg56
(lp363
g49
(g70
g51
NtRp364
(dp365
g54
(dp366
g74
g75
ssg63
g360
sg56
(lp367
S'secure'
p368
asbag49
(g70
g51
NtRp369
(dp370
g54
(dp371
g81
g82
ssg63
g360
sg56
(lp372
S':'
asbag49
(g70
g51
NtRp373
(dp374
g54
(dp375
sg63
g360
sg56
(lp376
g49
(g50
g51
NtRp377
(dp378
g54
(dp379
g62
I3
ssg63
g373
sg56
(lp380
S''
asbasbasbag49
(g65
g51
NtRp381
(dp382
g54
(dp383
sg63
g251
sg56
(lp384
g49
(g70
g51
NtRp385
(dp386
g54
(dp387
g74
g75
ssg63
g381
sg56
(lp388
S'version'
p389
asbag49
(g70
g51
NtRp390
(dp391
g54
(dp392
g81
g82
ssg63
g381
sg56
(lp393
S':'
asbag49
(g70
g51
NtRp394
(dp395
g54
(dp396
sg63
g381
sg56
(lp397
g49
(g50
g51
NtRp398
(dp399
g54
(dp400
g62
I3
ssg63
g394
sg56
(lp401
S''
asbasbasbasbasbasbasbag49
(g65
g51
NtRp402
(dp403
g54
(dp404
sg63
g226
sg56
(lp405
g49
(g70
g51
NtRp406
(dp407
g54
(dp408
g74
g75
ssg63
g402
sg56
(lp409
S'session_id_udi0312'
p410
asbag49
(g70
g51
NtRp411
(dp412
g54
(dp413
g81
g82
ssg63
g402
sg56
(lp414
S':'
asbag49
(g70
g51
NtRp415
(dp416
g54
(dp417
sg63
g402
sg56
(lp418
g49
(g50
g51
NtRp419
(dp420
g54
(dp421
g62
I4
ssg63
g415
sg56
(lp422
g49
(g58
g51
NtRp423
(dp424
g54
(dp425
g62
I3
ssg63
Nsg56
(lp426
g49
(g65
g51
NtRp427
(dp428
g54
(dp429
sg63
g423
sg56
(lp430
g49
(g70
g51
NtRp431
(dp432
g54
(dp433
g74
g75
ssg63
g427
sg56
(lp434
g263
asbag49
(g70
g51
NtRp435
(dp436
g54
(dp437
g81
g82
ssg63
g427
sg56
(lp438
S':'
asbag49
(g70
g51
NtRp439
(dp440
g54
(dp441
sg63
g427
sg56
(lp442
g49
(g50
g51
NtRp443
(dp444
g54
(dp445
g62
I3
ssg63
g439
sg56
(lp446
S''
asbasbasbag49
(g65
g51
NtRp447
(dp448
g54
(dp449
sg63
g423
sg56
(lp450
g49
(g70
g51
NtRp451
(dp452
g54
(dp453
g74
g75
ssg63
g447
sg56
(lp454
g284
asbag49
(g70
g51
NtRp455
(dp456
g54
(dp457
g81
g82
ssg63
g447
sg56
(lp458
S':'
asbag49
(g70
g51
NtRp459
(dp460
g54
(dp461
sg63
g447
sg56
(lp462
g49
(g50
g51
NtRp463
(dp464
g54
(dp465
g62
I3
ssg63
g459
sg56
(lp466
S''
asbasbasbag49
(g65
g51
NtRp467
(dp468
g54
(dp469
sg63
g423
sg56
(lp470
g49
(g70
g51
NtRp471
(dp472
g54
(dp473
g74
g75
ssg63
g467
sg56
(lp474
g305
asbag49
(g70
g51
NtRp475
(dp476
g54
(dp477
g81
g82
ssg63
g467
sg56
(lp478
S':'
asbag49
(g70
g51
NtRp479
(dp480
g54
(dp481
sg63
g467
sg56
(lp482
g49
(g50
g51
NtRp483
(dp484
g54
(dp485
g62
I3
ssg63
g479
sg56
(lp486
S''
asbasbasbag49
(g65
g51
NtRp487
(dp488
g54
(dp489
sg63
g423
sg56
(lp490
g49
(g70
g51
NtRp491
(dp492
g54
(dp493
g74
g75
ssg63
g487
sg56
(lp494
g326
asbag49
(g70
g51
NtRp495
(dp496
g54
(dp497
g81
g82
ssg63
g487
sg56
(lp498
S':'
asbag49
(g70
g51
NtRp499
(dp500
g54
(dp501
sg63
g487
sg56
(lp502
g49
(g50
g51
NtRp503
(dp504
g54
(dp505
g62
I3
ssg63
g499
sg56
(lp506
S''
asbasbasbag49
(g65
g51
NtRp507
(dp508
g54
(dp509
sg63
g423
sg56
(lp510
g49
(g70
g51
NtRp511
(dp512
g54
(dp513
g74
g75
ssg63
g507
sg56
(lp514
g347
asbag49
(g70
g51
NtRp515
(dp516
g54
(dp517
g81
g82
ssg63
g507
sg56
(lp518
S':'
asbag49
(g70
g51
NtRp519
(dp520
g54
(dp521
sg63
g507
sg56
(lp522
g49
(g50
g51
NtRp523
(dp524
g54
(dp525
g62
I3
ssg63
g519
sg56
(lp526
S''
asbasbasbag49
(g65
g51
NtRp527
(dp528
g54
(dp529
sg63
g423
sg56
(lp530
g49
(g70
g51
NtRp531
(dp532
g54
(dp533
g74
g75
ssg63
g527
sg56
(lp534
g368
asbag49
(g70
g51
NtRp535
(dp536
g54
(dp537
g81
g82
ssg63
g527
sg56
(lp538
S':'
asbag49
(g70
g51
NtRp539
(dp540
g54
(dp541
sg63
g527
sg56
(lp542
g49
(g50
g51
NtRp543
(dp544
g54
(dp545
g62
I3
ssg63
g539
sg56
(lp546
S''
asbasbasbag49
(g65
g51
NtRp547
(dp548
g54
(dp549
sg63
g423
sg56
(lp550
g49
(g70
g51
NtRp551
(dp552
g54
(dp553
g74
g75
ssg63
g547
sg56
(lp554
g389
asbag49
(g70
g51
NtRp555
(dp556
g54
(dp557
g81
g82
ssg63
g547
sg56
(lp558
S':'
asbag49
(g70
g51
NtRp559
(dp560
g54
(dp561
sg63
g547
sg56
(lp562
g49
(g50
g51
NtRp563
(dp564
g54
(dp565
g62
I3
ssg63
g559
sg56
(lp566
S''
asbasbasbasbasbasbasbasbasbasbasbag49
(g65
g51
NtRp567
(dp568
g54
(dp569
sg63
g59
sg56
(lp570
g49
(g70
g51
NtRp571
(dp572
g54
(dp573
g74
g75
ssg63
g567
sg56
(lp574
S'env'
p575
asbag49
(g70
g51
NtRp576
(dp577
g54
(dp578
g81
g82
ssg63
g567
sg56
(lp579
S':'
asbag49
(g70
g51
NtRp580
(dp581
g54
(dp582
sg63
g567
sg56
(lp583
g49
(g50
g51
NtRp584
(dp585
g54
(dp586
g62
I5
ssg63
g580
sg56
(lp587
g49
(g58
g51
NtRp588
(dp589
g54
(dp590
g62
I4
ssg63
Nsg56
(lp591
g49
(g65
g51
NtRp592
(dp593
g54
(dp594
sg63
g588
sg56
(lp595
g49
(g70
g51
NtRp596
(dp597
g54
(dp598
g74
g75
ssg63
g592
sg56
(lp599
S'app_folders'
p600
asbag49
(g70
g51
NtRp601
(dp602
g54
(dp603
g81
g82
ssg63
g592
sg56
(lp604
S':'
asbag49
(g70
g51
NtRp605
(dp606
g54
(dp607
sg63
g592
sg56
(lp608
g49
(g50
g51
NtRp609
(dp610
g54
(dp611
g62
I4
ssg63
g605
sg56
(lp612
S"set(['/Users/udimilo/Documents/web2py/applications/udi0312/', '/Users/udimilo/Documents/web2py/applications/admin/'])"
p613
asbasbasbag49
(g65
g51
NtRp614
(dp615
g54
(dp616
sg63
g588
sg56
(lp617
g49
(g70
g51
NtRp618
(dp619
g54
(dp620
g74
g75
ssg63
g614
sg56
(lp621
S'applications_parent'
p622
asbag49
(g70
g51
NtRp623
(dp624
g54
(dp625
g81
g82
ssg63
g614
sg56
(lp626
S':'
asbag49
(g70
g51
NtRp627
(dp628
g54
(dp629
sg63
g614
sg56
(lp630
g49
(g50
g51
NtRp631
(dp632
g54
(dp633
g62
I4
ssg63
g627
sg56
(lp634
S'/Users/udimilo/Documents/web2py'
p635
asbasbasbag49
(g65
g51
NtRp636
(dp637
g54
(dp638
sg63
g588
sg56
(lp639
g49
(g70
g51
NtRp640
(dp641
g54
(dp642
g74
g75
ssg63
g636
sg56
(lp643
S'cmd_args'
p644
asbag49
(g70
g51
NtRp645
(dp646
g54
(dp647
g81
g82
ssg63
g636
sg56
(lp648
S':'
asbag49
(g70
g51
NtRp649
(dp650
g54
(dp651
sg63
g636
sg56
(lp652
g49
(g50
g51
NtRp653
(dp654
g54
(dp655
g62
I4
ssg63
g649
sg56
(lp656
g49
(g58
g51
NtRp657
(dp658
g54
(dp659
g62
I3
ssg63
Nsg56
(lp660
sbasbasbasbag49
(g65
g51
NtRp661
(dp662
g54
(dp663
sg63
g588
sg56
(lp664
g49
(g70
g51
NtRp665
(dp666
g54
(dp667
g74
g75
ssg63
g661
sg56
(lp668
S'cmd_options'
p669
asbag49
(g70
g51
NtRp670
(dp671
g54
(dp672
g81
g82
ssg63
g661
sg56
(lp673
S':'
asbag49
(g70
g51
NtRp674
(dp675
g54
(dp676
sg63
g661
sg56
(lp677
g49
(g50
g51
NtRp678
(dp679
g54
(dp680
g62
I4
ssg63
g674
sg56
(lp681
S"<Values at 0x22190a8: {'verbose': False, 'ip': '127.0.0.1', 'shutdown_timeout': 5, 'taskbar': False, 'nocron': False, 'pid_filename': 'httpserver.pid', 'maxthreads': None, 'softcron': False, 'server_name': 'Udi-Milos-MacBook-Pro.local', 'bpython': False, 'nogui': False, 'port': 8000, 'extcron': False, 'debuglevel': 30, 'test': None, 'folder': '/Users/udimilo/Documents/web2py', 'config': '', 'import_models': False, 'winservice': '', 'shell': None, 'run': '', 'log_filename': 'httpserver.log', 'args': [''], 'socket_timeout': 5, 'ssl_ca_certificate': None, 'scheduler': None, 'profiler_filename': None, 'ssl_private_key': '', 'password': '<ask>', 'request_queue_size': 5, 'ssl_certificate': '', 'cronjob': False, 'numthreads': None, 'quiet': False, 'interfaces': None, 'minthreads': None, 'timeout': 10, 'plain': False, 'nobanner': False}>"
p682
asbasbasbag49
(g65
g51
NtRp683
(dp684
g54
(dp685
sg63
g588
sg56
(lp686
g49
(g70
g51
NtRp687
(dp688
g54
(dp689
g74
g75
ssg63
g683
sg56
(lp690
S'db_sessions'
p691
asbag49
(g70
g51
NtRp692
(dp693
g54
(dp694
g81
g82
ssg63
g683
sg56
(lp695
S':'
asbag49
(g70
g51
NtRp696
(dp697
g54
(dp698
sg63
g683
sg56
(lp699
g49
(g50
g51
NtRp700
(dp701
g54
(dp702
g62
I4
ssg63
g696
sg56
(lp703
S'set([])'
p704
asbasbasbag49
(g65
g51
NtRp705
(dp706
g54
(dp707
sg63
g588
sg56
(lp708
g49
(g70
g51
NtRp709
(dp710
g54
(dp711
g74
g75
ssg63
g705
sg56
(lp712
S'debugging'
p713
asbag49
(g70
g51
NtRp714
(dp715
g54
(dp716
g81
g82
ssg63
g705
sg56
(lp717
S':'
asbag49
(g70
g51
NtRp718
(dp719
g54
(dp720
sg63
g705
sg56
(lp721
g49
(g50
g51
NtRp722
(dp723
g54
(dp724
g62
I4
ssg63
g718
sg56
(lp725
g92
asbasbasbag49
(g65
g51
NtRp726
(dp727
g54
(dp728
sg63
g588
sg56
(lp729
g49
(g70
g51
NtRp730
(dp731
g54
(dp732
g74
g75
ssg63
g726
sg56
(lp733
S'gluon_parent'
p734
asbag49
(g70
g51
NtRp735
(dp736
g54
(dp737
g81
g82
ssg63
g726
sg56
(lp738
S':'
asbag49
(g70
g51
NtRp739
(dp740
g54
(dp741
sg63
g726
sg56
(lp742
g49
(g50
g51
NtRp743
(dp744
g54
(dp745
g62
I4
ssg63
g739
sg56
(lp746
S'/Users/udimilo/Documents/web2py'
p747
asbasbasbag49
(g65
g51
NtRp748
(dp749
g54
(dp750
sg63
g588
sg56
(lp751
g49
(g70
g51
NtRp752
(dp753
g54
(dp754
g74
g75
ssg63
g748
sg56
(lp755
S'http_accept'
p756
asbag49
(g70
g51
NtRp757
(dp758
g54
(dp759
g81
g82
ssg63
g748
sg56
(lp760
S':'
asbag49
(g70
g51
NtRp761
(dp762
g54
(dp763
sg63
g748
sg56
(lp764
g49
(g50
g51
NtRp765
(dp766
g54
(dp767
g62
I4
ssg63
g761
sg56
(lp768
S'text/html,application/xhtml+xml,application/xml;q=0.9,*/*;q=0.8'
p769
asbasbasbag49
(g65
g51
NtRp770
(dp771
g54
(dp772
sg63
g588
sg56
(lp773
g49
(g70
g51
NtRp774
(dp775
g54
(dp776
g74
g75
ssg63
g770
sg56
(lp777
S'http_accept_charset'
p778
asbag49
(g70
g51
NtRp779
(dp780
g54
(dp781
g81
g82
ssg63
g770
sg56
(lp782
S':'
asbag49
(g70
g51
NtRp783
(dp784
g54
(dp785
sg63
g770
sg56
(lp786
g49
(g50
g51
NtRp787
(dp788
g54
(dp789
g62
I4
ssg63
g783
sg56
(lp790
S'ISO-8859-1,utf-8;q=0.7,*;q=0.3'
p791
asbasbasbag49
(g65
g51
NtRp792
(dp793
g54
(dp794
sg63
g588
sg56
(lp795
g49
(g70
g51
NtRp796
(dp797
g54
(dp798
g74
g75
ssg63
g792
sg56
(lp799
S'http_accept_encoding'
p800
asbag49
(g70
g51
NtRp801
(dp802
g54
(dp803
g81
g82
ssg63
g792
sg56
(lp804
S':'
asbag49
(g70
g51
NtRp805
(dp806
g54
(dp807
sg63
g792
sg56
(lp808
g49
(g50
g51
NtRp809
(dp810
g54
(dp811
g62
I4
ssg63
g805
sg56
(lp812
S'gzip,deflate,sdch'
p813
asbasbasbag49
(g65
g51
NtRp814
(dp815
g54
(dp816
sg63
g588
sg56
(lp817
g49
(g70
g51
NtRp818
(dp819
g54
(dp820
g74
g75
ssg63
g814
sg56
(lp821
S'http_accept_language'
p822
asbag49
(g70
g51
NtRp823
(dp824
g54
(dp825
g81
g82
ssg63
g814
sg56
(lp826
S':'
asbag49
(g70
g51
NtRp827
(dp828
g54
(dp829
sg63
g814
sg56
(lp830
g49
(g50
g51
NtRp831
(dp832
g54
(dp833
g62
I4
ssg63
g827
sg56
(lp834
S'en-US,en;q=0.8'
p835
asbasbasbag49
(g65
g51
NtRp836
(dp837
g54
(dp838
sg63
g588
sg56
(lp839
g49
(g70
g51
NtRp840
(dp841
g54
(dp842
g74
g75
ssg63
g836
sg56
(lp843
S'http_connection'
p844
asbag49
(g70
g51
NtRp845
(dp846
g54
(dp847
g81
g82
ssg63
g836
sg56
(lp848
S':'
asbag49
(g70
g51
NtRp849
(dp850
g54
(dp851
sg63
g836
sg56
(lp852
g49
(g50
g51
NtRp853
(dp854
g54
(dp855
g62
I4
ssg63
g849
sg56
(lp856
S'keep-alive'
p857
asbasbasbag49
(g65
g51
NtRp858
(dp859
g54
(dp860
sg63
g588
sg56
(lp861
g49
(g70
g51
NtRp862
(dp863
g54
(dp864
g74
g75
ssg63
g858
sg56
(lp865
S'http_cookie'
p866
asbag49
(g70
g51
NtRp867
(dp868
g54
(dp869
g81
g82
ssg63
g858
sg56
(lp870
S':'
asbag49
(g70
g51
NtRp871
(dp872
g54
(dp873
sg63
g858
sg56
(lp874
g49
(g50
g51
NtRp875
(dp876
g54
(dp877
g62
I4
ssg63
g871
sg56
(lp878
S'session_id_udi0312=127.0.0.1-0c931b0e-a0cb-46a7-8daa-2609a27949d9; session_id_admin=127.0.0.1-c94551bc-8dee-41f4-b460-2ecff129da72'
p879
asbasbasbag49
(g65
g51
NtRp880
(dp881
g54
(dp882
sg63
g588
sg56
(lp883
g49
(g70
g51
NtRp884
(dp885
g54
(dp886
g74
g75
ssg63
g880
sg56
(lp887
S'http_host'
p888
asbag49
(g70
g51
NtRp889
(dp890
g54
(dp891
g81
g82
ssg63
g880
sg56
(lp892
S':'
asbag49
(g70
g51
NtRp893
(dp894
g54
(dp895
sg63
g880
sg56
(lp896
g49
(g50
g51
NtRp897
(dp898
g54
(dp899
g62
I4
ssg63
g893
sg56
(lp900
S'127.0.0.1:8000'
p901
asbasbasbag49
(g65
g51
NtRp902
(dp903
g54
(dp904
sg63
g588
sg56
(lp905
g49
(g70
g51
NtRp906
(dp907
g54
(dp908
g74
g75
ssg63
g902
sg56
(lp909
S'http_user_agent'
p910
asbag49
(g70
g51
NtRp911
(dp912
g54
(dp913
g81
g82
ssg63
g902
sg56
(lp914
S':'
asbag49
(g70
g51
NtRp915
(dp916
g54
(dp917
sg63
g902
sg56
(lp918
g49
(g50
g51
NtRp919
(dp920
g54
(dp921
g62
I4
ssg63
g915
sg56
(lp922
S'Mozilla/5.0 (Macintosh; Intel Mac OS X 10_7_3) AppleWebKit/535.11 (KHTML, like Gecko) Chrome/17.0.963.83 Safari/535.11'
p923
asbasbasbag49
(g65
g51
NtRp924
(dp925
g54
(dp926
sg63
g588
sg56
(lp927
g49
(g70
g51
NtRp928
(dp929
g54
(dp930
g74
g75
ssg63
g924
sg56
(lp931
S'is_jython'
p932
asbag49
(g70
g51
NtRp933
(dp934
g54
(dp935
g81
g82
ssg63
g924
sg56
(lp936
S':'
asbag49
(g70
g51
NtRp937
(dp938
g54
(dp939
sg63
g924
sg56
(lp940
g49
(g50
g51
NtRp941
(dp942
g54
(dp943
g62
I4
ssg63
g937
sg56
(lp944
g92
asbasbasbag49
(g65
g51
NtRp945
(dp946
g54
(dp947
sg63
g588
sg56
(lp948
g49
(g70
g51
NtRp949
(dp950
g54
(dp951
g74
g75
ssg63
g945
sg56
(lp952
S'is_pypy'
p953
asbag49
(g70
g51
NtRp954
(dp955
g54
(dp956
g81
g82
ssg63
g945
sg56
(lp957
S':'
asbag49
(g70
g51
NtRp958
(dp959
g54
(dp960
sg63
g945
sg56
(lp961
g49
(g50
g51
NtRp962
(dp963
g54
(dp964
g62
I4
ssg63
g958
sg56
(lp965
g92
asbasbasbag49
(g65
g51
NtRp966
(dp967
g54
(dp968
sg63
g588
sg56
(lp969
g49
(g70
g51
NtRp970
(dp971
g54
(dp972
g74
g75
ssg63
g966
sg56
(lp973
S'path_info'
p974
asbag49
(g70
g51
NtRp975
(dp976
g54
(dp977
g81
g82
ssg63
g966
sg56
(lp978
S':'
asbag49
(g70
g51
NtRp979
(dp980
g54
(dp981
sg63
g966
sg56
(lp982
g49
(g50
g51
NtRp983
(dp984
g54
(dp985
g62
I4
ssg63
g979
sg56
(lp986
S'/tasks/rrss'
p987
asbasbasbag49
(g65
g51
NtRp988
(dp989
g54
(dp990
sg63
g588
sg56
(lp991
g49
(g70
g51
NtRp992
(dp993
g54
(dp994
g74
g75
ssg63
g988
sg56
(lp995
S'query_string'
p996
asbag49
(g70
g51
NtRp997
(dp998
g54
(dp999
g81
g82
ssg63
g988
sg56
(lp1000
S':'
asbag49
(g70
g51
NtRp1001
(dp1002
g54
(dp1003
sg63
g988
sg56
(lp1004
g49
(g50
g51
NtRp1005
(dp1006
g54
(dp1007
g62
I4
ssg63
g1001
sg56
(lp1008
S''
asbasbasbag49
(g65
g51
NtRp1009
(dp1010
g54
(dp1011
sg63
g588
sg56
(lp1012
g49
(g70
g51
NtRp1013
(dp1014
g54
(dp1015
g74
g75
ssg63
g1009
sg56
(lp1016
S'remote_addr'
p1017
asbag49
(g70
g51
NtRp1018
(dp1019
g54
(dp1020
g81
g82
ssg63
g1009
sg56
(lp1021
S':'
asbag49
(g70
g51
NtRp1022
(dp1023
g54
(dp1024
sg63
g1009
sg56
(lp1025
g49
(g50
g51
NtRp1026
(dp1027
g54
(dp1028
g62
I4
ssg63
g1022
sg56
(lp1029
g182
asbasbasbag49
(g65
g51
NtRp1030
(dp1031
g54
(dp1032
sg63
g588
sg56
(lp1033
g49
(g70
g51
NtRp1034
(dp1035
g54
(dp1036
g74
g75
ssg63
g1030
sg56
(lp1037
S'remote_port'
p1038
asbag49
(g70
g51
NtRp1039
(dp1040
g54
(dp1041
g81
g82
ssg63
g1030
sg56
(lp1042
S':'
asbag49
(g70
g51
NtRp1043
(dp1044
g54
(dp1045
sg63
g1030
sg56
(lp1046
g49
(g50
g51
NtRp1047
(dp1048
g54
(dp1049
g62
I4
ssg63
g1043
sg56
(lp1050
S'55721'
p1051
asbasbasbag49
(g65
g51
NtRp1052
(dp1053
g54
(dp1054
sg63
g588
sg56
(lp1055
g49
(g70
g51
NtRp1056
(dp1057
g54
(dp1058
g74
g75
ssg63
g1052
sg56
(lp1059
S'request_method'
p1060
asbag49
(g70
g51
NtRp1061
(dp1062
g54
(dp1063
g81
g82
ssg63
g1052
sg56
(lp1064
S':'
asbag49
(g70
g51
NtRp1065
(dp1066
g54
(dp1067
sg63
g1052
sg56
(lp1068
g49
(g50
g51
NtRp1069
(dp1070
g54
(dp1071
g62
I4
ssg63
g1065
sg56
(lp1072
S'GET'
p1073
asbasbasbag49
(g65
g51
NtRp1074
(dp1075
g54
(dp1076
sg63
g588
sg56
(lp1077
g49
(g70
g51
NtRp1078
(dp1079
g54
(dp1080
g74
g75
ssg63
g1074
sg56
(lp1081
S'request_uri'
p1082
asbag49
(g70
g51
NtRp1083
(dp1084
g54
(dp1085
g81
g82
ssg63
g1074
sg56
(lp1086
S':'
asbag49
(g70
g51
NtRp1087
(dp1088
g54
(dp1089
sg63
g1074
sg56
(lp1090
g49
(g50
g51
NtRp1091
(dp1092
g54
(dp1093
g62
I4
ssg63
g1087
sg56
(lp1094
S'/udi0312/tasks/rrss'
p1095
asbasbasbag49
(g65
g51
NtRp1096
(dp1097
g54
(dp1098
sg63
g588
sg56
(lp1099
g49
(g70
g51
NtRp1100
(dp1101
g54
(dp1102
g74
g75
ssg63
g1096
sg56
(lp1103
S'script_name'
p1104
asbag49
(g70
g51
NtRp1105
(dp1106
g54
(dp1107
g81
g82
ssg63
g1096
sg56
(lp1108
S':'
asbag49
(g70
g51
NtRp1109
(dp1110
g54
(dp1111
sg63
g1096
sg56
(lp1112
g49
(g50
g51
NtRp1113
(dp1114
g54
(dp1115
g62
I4
ssg63
g1109
sg56
(lp1116
S''
asbasbasbag49
(g65
g51
NtRp1117
(dp1118
g54
(dp1119
sg63
g588
sg56
(lp1120
g49
(g70
g51
NtRp1121
(dp1122
g54
(dp1123
g74
g75
ssg63
g1117
sg56
(lp1124
S'server_name'
p1125
asbag49
(g70
g51
NtRp1126
(dp1127
g54
(dp1128
g81
g82
ssg63
g1117
sg56
(lp1129
S':'
asbag49
(g70
g51
NtRp1130
(dp1131
g54
(dp1132
sg63
g1117
sg56
(lp1133
g49
(g50
g51
NtRp1134
(dp1135
g54
(dp1136
g62
I4
ssg63
g1130
sg56
(lp1137
S'Udi-Milos-MacBook-Pro.local'
p1138
asbasbasbag49
(g65
g51
NtRp1139
(dp1140
g54
(dp1141
sg63
g588
sg56
(lp1142
g49
(g70
g51
NtRp1143
(dp1144
g54
(dp1145
g74
g75
ssg63
g1139
sg56
(lp1146
S'server_port'
p1147
asbag49
(g70
g51
NtRp1148
(dp1149
g54
(dp1150
g81
g82
ssg63
g1139
sg56
(lp1151
S':'
asbag49
(g70
g51
NtRp1152
(dp1153
g54
(dp1154
sg63
g1139
sg56
(lp1155
g49
(g50
g51
NtRp1156
(dp1157
g54
(dp1158
g62
I4
ssg63
g1152
sg56
(lp1159
S'8000'
p1160
asbasbasbag49
(g65
g51
NtRp1161
(dp1162
g54
(dp1163
sg63
g588
sg56
(lp1164
g49
(g70
g51
NtRp1165
(dp1166
g54
(dp1167
g74
g75
ssg63
g1161
sg56
(lp1168
S'server_protocol'
p1169
asbag49
(g70
g51
NtRp1170
(dp1171
g54
(dp1172
g81
g82
ssg63
g1161
sg56
(lp1173
S':'
asbag49
(g70
g51
NtRp1174
(dp1175
g54
(dp1176
sg63
g1161
sg56
(lp1177
g49
(g50
g51
NtRp1178
(dp1179
g54
(dp1180
g62
I4
ssg63
g1174
sg56
(lp1181
S'HTTP/1.1'
p1182
asbasbasbag49
(g65
g51
NtRp1183
(dp1184
g54
(dp1185
sg63
g588
sg56
(lp1186
g49
(g70
g51
NtRp1187
(dp1188
g54
(dp1189
g74
g75
ssg63
g1183
sg56
(lp1190
S'server_software'
p1191
asbag49
(g70
g51
NtRp1192
(dp1193
g54
(dp1194
g81
g82
ssg63
g1183
sg56
(lp1195
S':'
asbag49
(g70
g51
NtRp1196
(dp1197
g54
(dp1198
sg63
g1183
sg56
(lp1199
g49
(g50
g51
NtRp1200
(dp1201
g54
(dp1202
g62
I4
ssg63
g1196
sg56
(lp1203
S'Rocket 1.2.4'
p1204
asbasbasbag49
(g65
g51
NtRp1205
(dp1206
g54
(dp1207
sg63
g588
sg56
(lp1208
g49
(g70
g51
NtRp1209
(dp1210
g54
(dp1211
g74
g75
ssg63
g1205
sg56
(lp1212
S'web2py_crontype'
p1213
asbag49
(g70
g51
NtRp1214
(dp1215
g54
(dp1216
g81
g82
ssg63
g1205
sg56
(lp1217
S':'
asbag49
(g70
g51
NtRp1218
(dp1219
g54
(dp1220
sg63
g1205
sg56
(lp1221
g49
(g50
g51
NtRp1222
(dp1223
g54
(dp1224
g62
I4
ssg63
g1218
sg56
(lp1225
S'hard'
p1226
asbasbasbag49
(g65
g51
NtRp1227
(dp1228
g54
(dp1229
sg63
g588
sg56
(lp1230
g49
(g70
g51
NtRp1231
(dp1232
g54
(dp1233
g74
g75
ssg63
g1227
sg56
(lp1234
S'web2py_original_uri'
p1235
asbag49
(g70
g51
NtRp1236
(dp1237
g54
(dp1238
g81
g82
ssg63
g1227
sg56
(lp1239
S':'
asbag49
(g70
g51
NtRp1240
(dp1241
g54
(dp1242
sg63
g1227
sg56
(lp1243
g49
(g50
g51
NtRp1244
(dp1245
g54
(dp1246
g62
I4
ssg63
g1240
sg56
(lp1247
g987
asbasbasbag49
(g65
g51
NtRp1248
(dp1249
g54
(dp1250
sg63
g588
sg56
(lp1251
g49
(g70
g51
NtRp1252
(dp1253
g54
(dp1254
g74
g75
ssg63
g1248
sg56
(lp1255
S'web2py_path'
p1256
asbag49
(g70
g51
NtRp1257
(dp1258
g54
(dp1259
g81
g82
ssg63
g1248
sg56
(lp1260
S':'
asbag49
(g70
g51
NtRp1261
(dp1262
g54
(dp1263
sg63
g1248
sg56
(lp1264
g49
(g50
g51
NtRp1265
(dp1266
g54
(dp1267
g62
I4
ssg63
g1261
sg56
(lp1268
g635
asbasbasbag49
(g65
g51
NtRp1269
(dp1270
g54
(dp1271
sg63
g588
sg56
(lp1272
g49
(g70
g51
NtRp1273
(dp1274
g54
(dp1275
g74
g75
ssg63
g1269
sg56
(lp1276
S'web2py_version'
p1277
asbag49
(g70
g51
NtRp1278
(dp1279
g54
(dp1280
g81
g82
ssg63
g1269
sg56
(lp1281
S':'
asbag49
(g70
g51
NtRp1282
(dp1283
g54
(dp1284
sg63
g1269
sg56
(lp1285
g49
(g50
g51
NtRp1286
(dp1287
g54
(dp1288
g62
I4
ssg63
g1282
sg56
(lp1289
g49
(g58
g51
NtRp1290
(dp1291
g54
(dp1292
g62
I3
ssg63
Nsg56
(lp1293
g49
(g65
g51
NtRp1294
(dp1295
g54
(dp1296
sg63
g1290
sg56
(lp1297
g49
(g70
g51
NtRp1298
(dp1299
g54
(dp1300
sg63
g1294
sg56
(lp1301
g49
(g50
g51
NtRp1302
(dp1303
g54
(dp1304
g62
I3
ssg63
g1298
sg56
(lp1305
S'1'
asbasbasbag49
(g65
g51
NtRp1306
(dp1307
g54
(dp1308
sg63
g1290
sg56
(lp1309
g49
(g70
g51
NtRp1310
(dp1311
g54
(dp1312
sg63
g1306
sg56
(lp1313
g49
(g50
g51
NtRp1314
(dp1315
g54
(dp1316
g62
I3
ssg63
g1310
sg56
(lp1317
S'99'
p1318
asbasbasbag49
(g65
g51
NtRp1319
(dp1320
g54
(dp1321
sg63
g1290
sg56
(lp1322
g49
(g70
g51
NtRp1323
(dp1324
g54
(dp1325
sg63
g1319
sg56
(lp1326
g49
(g50
g51
NtRp1327
(dp1328
g54
(dp1329
g62
I3
ssg63
g1323
sg56
(lp1330
S'7'
asbasbasbag49
(g65
g51
NtRp1331
(dp1332
g54
(dp1333
sg63
g1290
sg56
(lp1334
g49
(g70
g51
NtRp1335
(dp1336
g54
(dp1337
sg63
g1331
sg56
(lp1338
g49
(g50
g51
NtRp1339
(dp1340
g54
(dp1341
g62
I3
ssg63
g1335
sg56
(lp1342
S'datetime.datetime(2012, 3, 4, 22, 12, 8)'
p1343
asbasbasbag49
(g65
g51
NtRp1344
(dp1345
g54
(dp1346
sg63
g1290
sg56
(lp1347
g49
(g70
g51
NtRp1348
(dp1349
g54
(dp1350
sg63
g1344
sg56
(lp1351
g49
(g50
g51
NtRp1352
(dp1353
g54
(dp1354
g62
I3
ssg63
g1348
sg56
(lp1355
S'stable'
p1356
asbasbasbasbasbasbasbag49
(g65
g51
NtRp1357
(dp1358
g54
(dp1359
sg63
g588
sg56
(lp1360
g49
(g70
g51
NtRp1361
(dp1362
g54
(dp1363
g74
g75
ssg63
g1357
sg56
(lp1364
S'wsgi_errors'
p1365
asbag49
(g70
g51
NtRp1366
(dp1367
g54
(dp1368
g81
g82
ssg63
g1357
sg56
(lp1369
S':'
asbag49
(g70
g51
NtRp1370
(dp1371
g54
(dp1372
sg63
g1357
sg56
(lp1373
g49
(g50
g51
NtRp1374
(dp1375
g54
(dp1376
g62
I4
ssg63
g1370
sg56
(lp1377
S"<open file '<stderr>', mode 'w' at 0x4220b0>"
p1378
asbasbasbag49
(g65
g51
NtRp1379
(dp1380
g54
(dp1381
sg63
g588
sg56
(lp1382
g49
(g70
g51
NtRp1383
(dp1384
g54
(dp1385
g74
g75
ssg63
g1379
sg56
(lp1386
S'wsgi_file_wrapper'
p1387
asbag49
(g70
g51
NtRp1388
(dp1389
g54
(dp1390
g81
g82
ssg63
g1379
sg56
(lp1391
S':'
asbag49
(g70
g51
NtRp1392
(dp1393
g54
(dp1394
sg63
g1379
sg56
(lp1395
g49
(g50
g51
NtRp1396
(dp1397
g54
(dp1398
g62
I4
ssg63
g1392
sg56
(lp1399
S'<class wsgiref.util.FileWrapper at 0x215e6c0>'
p1400
asbasbasbag49
(g65
g51
NtRp1401
(dp1402
g54
(dp1403
sg63
g588
sg56
(lp1404
g49
(g70
g51
NtRp1405
(dp1406
g54
(dp1407
g74
g75
ssg63
g1401
sg56
(lp1408
S'wsgi_input'
p1409
asbag49
(g70
g51
NtRp1410
(dp1411
g54
(dp1412
g81
g82
ssg63
g1401
sg56
(lp1413
S':'
asbag49
(g70
g51
NtRp1414
(dp1415
g54
(dp1416
sg63
g1401
sg56
(lp1417
g49
(g50
g51
NtRp1418
(dp1419
g54
(dp1420
g62
I4
ssg63
g1414
sg56
(lp1421
S'<socket._fileobject object at 0x9f105b0>'
p1422
asbasbasbag49
(g65
g51
NtRp1423
(dp1424
g54
(dp1425
sg63
g588
sg56
(lp1426
g49
(g70
g51
NtRp1427
(dp1428
g54
(dp1429
g74
g75
ssg63
g1423
sg56
(lp1430
S'wsgi_multiprocess'
p1431
asbag49
(g70
g51
NtRp1432
(dp1433
g54
(dp1434
g81
g82
ssg63
g1423
sg56
(lp1435
S':'
asbag49
(g70
g51
NtRp1436
(dp1437
g54
(dp1438
sg63
g1423
sg56
(lp1439
g49
(g50
g51
NtRp1440
(dp1441
g54
(dp1442
g62
I4
ssg63
g1436
sg56
(lp1443
g92
asbasbasbag49
(g65
g51
NtRp1444
(dp1445
g54
(dp1446
sg63
g588
sg56
(lp1447
g49
(g70
g51
NtRp1448
(dp1449
g54
(dp1450
g74
g75
ssg63
g1444
sg56
(lp1451
S'wsgi_multithread'
p1452
asbag49
(g70
g51
NtRp1453
(dp1454
g54
(dp1455
g81
g82
ssg63
g1444
sg56
(lp1456
S':'
asbag49
(g70
g51
NtRp1457
(dp1458
g54
(dp1459
sg63
g1444
sg56
(lp1460
g49
(g50
g51
NtRp1461
(dp1462
g54
(dp1463
g62
I4
ssg63
g1457
sg56
(lp1464
S'True'
p1465
asbasbasbag49
(g65
g51
NtRp1466
(dp1467
g54
(dp1468
sg63
g588
sg56
(lp1469
g49
(g70
g51
NtRp1470
(dp1471
g54
(dp1472
g74
g75
ssg63
g1466
sg56
(lp1473
S'wsgi_run_once'
p1474
asbag49
(g70
g51
NtRp1475
(dp1476
g54
(dp1477
g81
g82
ssg63
g1466
sg56
(lp1478
S':'
asbag49
(g70
g51
NtRp1479
(dp1480
g54
(dp1481
sg63
g1466
sg56
(lp1482
g49
(g50
g51
NtRp1483
(dp1484
g54
(dp1485
g62
I4
ssg63
g1479
sg56
(lp1486
g92
asbasbasbag49
(g65
g51
NtRp1487
(dp1488
g54
(dp1489
sg63
g588
sg56
(lp1490
g49
(g70
g51
NtRp1491
(dp1492
g54
(dp1493
g74
g75
ssg63
g1487
sg56
(lp1494
S'wsgi_url_scheme'
p1495
asbag49
(g70
g51
NtRp1496
(dp1497
g54
(dp1498
g81
g82
ssg63
g1487
sg56
(lp1499
S':'
asbag49
(g70
g51
NtRp1500
(dp1501
g54
(dp1502
sg63
g1487
sg56
(lp1503
g49
(g50
g51
NtRp1504
(dp1505
g54
(dp1506
g62
I4
ssg63
g1500
sg56
(lp1507
S'http'
p1508
asbasbasbag49
(g65
g51
NtRp1509
(dp1510
g54
(dp1511
sg63
g588
sg56
(lp1512
g49
(g70
g51
NtRp1513
(dp1514
g54
(dp1515
g74
g75
ssg63
g1509
sg56
(lp1516
S'wsgi_version'
p1517
asbag49
(g70
g51
NtRp1518
(dp1519
g54
(dp1520
g81
g82
ssg63
g1509
sg56
(lp1521
S':'
asbag49
(g70
g51
NtRp1522
(dp1523
g54
(dp1524
sg63
g1509
sg56
(lp1525
g49
(g50
g51
NtRp1526
(dp1527
g54
(dp1528
g62
I4
ssg63
g1522
sg56
(lp1529
g49
(g58
g51
NtRp1530
(dp1531
g54
(dp1532
g62
I3
ssg63
Nsg56
(lp1533
g49
(g65
g51
NtRp1534
(dp1535
g54
(dp1536
sg63
g1530
sg56
(lp1537
g49
(g70
g51
NtRp1538
(dp1539
g54
(dp1540
sg63
g1534
sg56
(lp1541
g49
(g50
g51
NtRp1542
(dp1543
g54
(dp1544
g62
I3
ssg63
g1538
sg56
(lp1545
S'1'
asbasbasbag49
(g65
g51
NtRp1546
(dp1547
g54
(dp1548
sg63
g1530
sg56
(lp1549
g49
(g70
g51
NtRp1550
(dp1551
g54
(dp1552
sg63
g1546
sg56
(lp1553
g49
(g50
g51
NtRp1554
(dp1555
g54
(dp1556
g62
I3
ssg63
g1550
sg56
(lp1557
S'0'
asbasbasbasbasbasbasbasbasbasbasbag49
(g65
g51
NtRp1558
(dp1559
g54
(dp1560
sg63
g59
sg56
(lp1561
g49
(g70
g51
NtRp1562
(dp1563
g54
(dp1564
g74
g75
ssg63
g1558
sg56
(lp1565
S'extension'
p1566
asbag49
(g70
g51
NtRp1567
(dp1568
g54
(dp1569
g81
g82
ssg63
g1558
sg56
(lp1570
S':'
asbag49
(g70
g51
NtRp1571
(dp1572
g54
(dp1573
sg63
g1558
sg56
(lp1574
g49
(g50
g51
NtRp1575
(dp1576
g54
(dp1577
g62
I5
ssg63
g1571
sg56
(lp1578
S'html'
p1579
asbasbasbag49
(g65
g51
NtRp1580
(dp1581
g54
(dp1582
sg63
g59
sg56
(lp1583
g49
(g70
g51
NtRp1584
(dp1585
g54
(dp1586
g74
g75
ssg63
g1580
sg56
(lp1587
S'folder'
p1588
asbag49
(g70
g51
NtRp1589
(dp1590
g54
(dp1591
g81
g82
ssg63
g1580
sg56
(lp1592
S':'
asbag49
(g70
g51
NtRp1593
(dp1594
g54
(dp1595
sg63
g1580
sg56
(lp1596
g49
(g50
g51
NtRp1597
(dp1598
g54
(dp1599
g62
I5
ssg63
g1593
sg56
(lp1600
S'/Users/udimilo/Documents/web2py/applications/udi0312/'
p1601
asbasbasbag49
(g65
g51
NtRp1602
(dp1603
g54
(dp1604
sg63
g59
sg56
(lp1605
g49
(g70
g51
NtRp1606
(dp1607
g54
(dp1608
g74
g75
ssg63
g1602
sg56
(lp1609
S'function'
p1610
asbag49
(g70
g51
NtRp1611
(dp1612
g54
(dp1613
g81
g82
ssg63
g1602
sg56
(lp1614
S':'
asbag49
(g70
g51
NtRp1615
(dp1616
g54
(dp1617
sg63
g1602
sg56
(lp1618
g49
(g50
g51
NtRp1619
(dp1620
g54
(dp1621
g62
I5
ssg63
g1615
sg56
(lp1622
S'rrss'
p1623
asbasbasbag49
(g65
g51
NtRp1624
(dp1625
g54
(dp1626
sg63
g59
sg56
(lp1627
g49
(g70
g51
NtRp1628
(dp1629
g54
(dp1630
g74
g75
ssg63
g1624
sg56
(lp1631
S'get_vars'
p1632
asbag49
(g70
g51
NtRp1633
(dp1634
g54
(dp1635
g81
g82
ssg63
g1624
sg56
(lp1636
S':'
asbag49
(g70
g51
NtRp1637
(dp1638
g54
(dp1639
sg63
g1624
sg56
(lp1640
g49
(g50
g51
NtRp1641
(dp1642
g54
(dp1643
g62
I5
ssg63
g1637
sg56
(lp1644
g49
(g58
g51
NtRp1645
(dp1646
g54
(dp1647
g62
I4
ssg63
Nsg56
(lp1648
sbasbasbasbag49
(g65
g51
NtRp1649
(dp1650
g54
(dp1651
sg63
g59
sg56
(lp1652
g49
(g70
g51
NtRp1653
(dp1654
g54
(dp1655
g74
g75
ssg63
g1649
sg56
(lp1656
S'global_settings'
p1657
asbag49
(g70
g51
NtRp1658
(dp1659
g54
(dp1660
g81
g82
ssg63
g1649
sg56
(lp1661
S':'
asbag49
(g70
g51
NtRp1662
(dp1663
g54
(dp1664
sg63
g1649
sg56
(lp1665
g49
(g50
g51
NtRp1666
(dp1667
g54
(dp1668
g62
I5
ssg63
g1662
sg56
(lp1669
g49
(g58
g51
NtRp1670
(dp1671
g54
(dp1672
g62
I4
ssg63
Nsg56
(lp1673
g49
(g65
g51
NtRp1674
(dp1675
g54
(dp1676
sg63
g1670
sg56
(lp1677
g49
(g70
g51
NtRp1678
(dp1679
g54
(dp1680
g74
g75
ssg63
g1674
sg56
(lp1681
g600
asbag49
(g70
g51
NtRp1682
(dp1683
g54
(dp1684
g81
g82
ssg63
g1674
sg56
(lp1685
S':'
asbag49
(g70
g51
NtRp1686
(dp1687
g54
(dp1688
sg63
g1674
sg56
(lp1689
g49
(g50
g51
NtRp1690
(dp1691
g54
(dp1692
g62
I4
ssg63
g1686
sg56
(lp1693
S"set(['/Users/udimilo/Documents/web2py/applications/udi0312/', '/Users/udimilo/Documents/web2py/applications/admin/'])"
p1694
asbasbasbag49
(g65
g51
NtRp1695
(dp1696
g54
(dp1697
sg63
g1670
sg56
(lp1698
g49
(g70
g51
NtRp1699
(dp1700
g54
(dp1701
g74
g75
ssg63
g1695
sg56
(lp1702
g622
asbag49
(g70
g51
NtRp1703
(dp1704
g54
(dp1705
g81
g82
ssg63
g1695
sg56
(lp1706
S':'
asbag49
(g70
g51
NtRp1707
(dp1708
g54
(dp1709
sg63
g1695
sg56
(lp1710
g49
(g50
g51
NtRp1711
(dp1712
g54
(dp1713
g62
I4
ssg63
g1707
sg56
(lp1714
g635
asbasbasbag49
(g65
g51
NtRp1715
(dp1716
g54
(dp1717
sg63
g1670
sg56
(lp1718
g49
(g70
g51
NtRp1719
(dp1720
g54
(dp1721
g74
g75
ssg63
g1715
sg56
(lp1722
g644
asbag49
(g70
g51
NtRp1723
(dp1724
g54
(dp1725
g81
g82
ssg63
g1715
sg56
(lp1726
S':'
asbag49
(g70
g51
NtRp1727
(dp1728
g54
(dp1729
sg63
g1715
sg56
(lp1730
g49
(g50
g51
NtRp1731
(dp1732
g54
(dp1733
g62
I4
ssg63
g1727
sg56
(lp1734
g49
(g58
g51
NtRp1735
(dp1736
g54
(dp1737
g62
I3
ssg63
Nsg56
(lp1738
sbasbasbasbag49
(g65
g51
NtRp1739
(dp1740
g54
(dp1741
sg63
g1670
sg56
(lp1742
g49
(g70
g51
NtRp1743
(dp1744
g54
(dp1745
g74
g75
ssg63
g1739
sg56
(lp1746
g669
asbag49
(g70
g51
NtRp1747
(dp1748
g54
(dp1749
g81
g82
ssg63
g1739
sg56
(lp1750
S':'
asbag49
(g70
g51
NtRp1751
(dp1752
g54
(dp1753
sg63
g1739
sg56
(lp1754
g49
(g50
g51
NtRp1755
(dp1756
g54
(dp1757
g62
I4
ssg63
g1751
sg56
(lp1758
S"<Values at 0x22190a8: {'verbose': False, 'ip': '127.0.0.1', 'shutdown_timeout': 5, 'taskbar': False, 'nocron': False, 'pid_filename': 'httpserver.pid', 'maxthreads': None, 'softcron': False, 'server_name': 'Udi-Milos-MacBook-Pro.local', 'bpython': False, 'nogui': False, 'port': 8000, 'extcron': False, 'debuglevel': 30, 'test': None, 'folder': '/Users/udimilo/Documents/web2py', 'config': '', 'import_models': False, 'winservice': '', 'shell': None, 'run': '', 'log_filename': 'httpserver.log', 'args': [''], 'socket_timeout': 5, 'ssl_ca_certificate': None, 'scheduler': None, 'profiler_filename': None, 'ssl_private_key': '', 'password': '<ask>', 'request_queue_size': 5, 'ssl_certificate': '', 'cronjob': False, 'numthreads': None, 'quiet': False, 'interfaces': None, 'minthreads': None, 'timeout': 10, 'plain': False, 'nobanner': False}>"
p1759
asbasbasbag49
(g65
g51
NtRp1760
(dp1761
g54
(dp1762
sg63
g1670
sg56
(lp1763
g49
(g70
g51
NtRp1764
(dp1765
g54
(dp1766
g74
g75
ssg63
g1760
sg56
(lp1767
g691
asbag49
(g70
g51
NtRp1768
(dp1769
g54
(dp1770
g81
g82
ssg63
g1760
sg56
(lp1771
S':'
asbag49
(g70
g51
NtRp1772
(dp1773
g54
(dp1774
sg63
g1760
sg56
(lp1775
g49
(g50
g51
NtRp1776
(dp1777
g54
(dp1778
g62
I4
ssg63
g1772
sg56
(lp1779
S'set([])'
p1780
asbasbasbag49
(g65
g51
NtRp1781
(dp1782
g54
(dp1783
sg63
g1670
sg56
(lp1784
g49
(g70
g51
NtRp1785
(dp1786
g54
(dp1787
g74
g75
ssg63
g1781
sg56
(lp1788
g713
asbag49
(g70
g51
NtRp1789
(dp1790
g54
(dp1791
g81
g82
ssg63
g1781
sg56
(lp1792
S':'
asbag49
(g70
g51
NtRp1793
(dp1794
g54
(dp1795
sg63
g1781
sg56
(lp1796
g49
(g50
g51
NtRp1797
(dp1798
g54
(dp1799
g62
I4
ssg63
g1793
sg56
(lp1800
g92
asbasbasbag49
(g65
g51
NtRp1801
(dp1802
g54
(dp1803
sg63
g1670
sg56
(lp1804
g49
(g70
g51
NtRp1805
(dp1806
g54
(dp1807
g74
g75
ssg63
g1801
sg56
(lp1808
g734
asbag49
(g70
g51
NtRp1809
(dp1810
g54
(dp1811
g81
g82
ssg63
g1801
sg56
(lp1812
S':'
asbag49
(g70
g51
NtRp1813
(dp1814
g54
(dp1815
sg63
g1801
sg56
(lp1816
g49
(g50
g51
NtRp1817
(dp1818
g54
(dp1819
g62
I4
ssg63
g1813
sg56
(lp1820
g747
asbasbasbag49
(g65
g51
NtRp1821
(dp1822
g54
(dp1823
sg63
g1670
sg56
(lp1824
g49
(g70
g51
NtRp1825
(dp1826
g54
(dp1827
g74
g75
ssg63
g1821
sg56
(lp1828
g932
asbag49
(g70
g51
NtRp1829
(dp1830
g54
(dp1831
g81
g82
ssg63
g1821
sg56
(lp1832
S':'
asbag49
(g70
g51
NtRp1833
(dp1834
g54
(dp1835
sg63
g1821
sg56
(lp1836
g49
(g50
g51
NtRp1837
(dp1838
g54
(dp1839
g62
I4
ssg63
g1833
sg56
(lp1840
g92
asbasbasbag49
(g65
g51
NtRp1841
(dp1842
g54
(dp1843
sg63
g1670
sg56
(lp1844
g49
(g70
g51
NtRp1845
(dp1846
g54
(dp1847
g74
g75
ssg63
g1841
sg56
(lp1848
g953
asbag49
(g70
g51
NtRp1849
(dp1850
g54
(dp1851
g81
g82
ssg63
g1841
sg56
(lp1852
S':'
asbag49
(g70
g51
NtRp1853
(dp1854
g54
(dp1855
sg63
g1841
sg56
(lp1856
g49
(g50
g51
NtRp1857
(dp1858
g54
(dp1859
g62
I4
ssg63
g1853
sg56
(lp1860
g92
asbasbasbag49
(g65
g51
NtRp1861
(dp1862
g54
(dp1863
sg63
g1670
sg56
(lp1864
g49
(g70
g51
NtRp1865
(dp1866
g54
(dp1867
g74
g75
ssg63
g1861
sg56
(lp1868
g1213
asbag49
(g70
g51
NtRp1869
(dp1870
g54
(dp1871
g81
g82
ssg63
g1861
sg56
(lp1872
S':'
asbag49
(g70
g51
NtRp1873
(dp1874
g54
(dp1875
sg63
g1861
sg56
(lp1876
g49
(g50
g51
NtRp1877
(dp1878
g54
(dp1879
g62
I4
ssg63
g1873
sg56
(lp1880
g1226
asbasbasbag49
(g65
g51
NtRp1881
(dp1882
g54
(dp1883
sg63
g1670
sg56
(lp1884
g49
(g70
g51
NtRp1885
(dp1886
g54
(dp1887
g74
g75
ssg63
g1881
sg56
(lp1888
g1277
asbag49
(g70
g51
NtRp1889
(dp1890
g54
(dp1891
g81
g82
ssg63
g1881
sg56
(lp1892
S':'
asbag49
(g70
g51
NtRp1893
(dp1894
g54
(dp1895
sg63
g1881
sg56
(lp1896
g49
(g50
g51
NtRp1897
(dp1898
g54
(dp1899
g62
I4
ssg63
g1893
sg56
(lp1900
g49
(g58
g51
NtRp1901
(dp1902
g54
(dp1903
g62
I3
ssg63
Nsg56
(lp1904
g49
(g65
g51
NtRp1905
(dp1906
g54
(dp1907
sg63
g1901
sg56
(lp1908
g49
(g70
g51
NtRp1909
(dp1910
g54
(dp1911
sg63
g1905
sg56
(lp1912
g49
(g50
g51
NtRp1913
(dp1914
g54
(dp1915
g62
I3
ssg63
g1909
sg56
(lp1916
S'1'
asbasbasbag49
(g65
g51
NtRp1917
(dp1918
g54
(dp1919
sg63
g1901
sg56
(lp1920
g49
(g70
g51
NtRp1921
(dp1922
g54
(dp1923
sg63
g1917
sg56
(lp1924
g49
(g50
g51
NtRp1925
(dp1926
g54
(dp1927
g62
I3
ssg63
g1921
sg56
(lp1928
S'99'
p1929
asbasbasbag49
(g65
g51
NtRp1930
(dp1931
g54
(dp1932
sg63
g1901
sg56
(lp1933
g49
(g70
g51
NtRp1934
(dp1935
g54
(dp1936
sg63
g1930
sg56
(lp1937
g49
(g50
g51
NtRp1938
(dp1939
g54
(dp1940
g62
I3
ssg63
g1934
sg56
(lp1941
S'7'
asbasbasbag49
(g65
g51
NtRp1942
(dp1943
g54
(dp1944
sg63
g1901
sg56
(lp1945
g49
(g70
g51
NtRp1946
(dp1947
g54
(dp1948
sg63
g1942
sg56
(lp1949
g49
(g50
g51
NtRp1950
(dp1951
g54
(dp1952
g62
I3
ssg63
g1946
sg56
(lp1953
S'datetime.datetime(2012, 3, 4, 22, 12, 8)'
p1954
asbasbasbag49
(g65
g51
NtRp1955
(dp1956
g54
(dp1957
sg63
g1901
sg56
(lp1958
g49
(g70
g51
NtRp1959
(dp1960
g54
(dp1961
sg63
g1955
sg56
(lp1962
g49
(g50
g51
NtRp1963
(dp1964
g54
(dp1965
g62
I3
ssg63
g1959
sg56
(lp1966
g1356
asbasbasbasbasbasbasbasbasbasbasbag49
(g65
g51
NtRp1967
(dp1968
g54
(dp1969
sg63
g59
sg56
(lp1970
g49
(g70
g51
NtRp1971
(dp1972
g54
(dp1973
g74
g75
ssg63
g1967
sg56
(lp1974
S'is_https'
p1975
asbag49
(g70
g51
NtRp1976
(dp1977
g54
(dp1978
g81
g82
ssg63
g1967
sg56
(lp1979
S':'
asbag49
(g70
g51
NtRp1980
(dp1981
g54
(dp1982
sg63
g1967
sg56
(lp1983
g49
(g50
g51
NtRp1984
(dp1985
g54
(dp1986
g62
I5
ssg63
g1980
sg56
(lp1987
g92
asbasbasbag49
(g65
g51
NtRp1988
(dp1989
g54
(dp1990
sg63
g59
sg56
(lp1991
g49
(g70
g51
NtRp1992
(dp1993
g54
(dp1994
g74
g75
ssg63
g1988
sg56
(lp1995
S'is_local'
p1996
asbag49
(g70
g51
NtRp1997
(dp1998
g54
(dp1999
g81
g82
ssg63
g1988
sg56
(lp2000
S':'
asbag49
(g70
g51
NtRp2001
(dp2002
g54
(dp2003
sg63
g1988
sg56
(lp2004
g49
(g50
g51
NtRp2005
(dp2006
g54
(dp2007
g62
I5
ssg63
g2001
sg56
(lp2008
g1465
asbasbasbag49
(g65
g51
NtRp2009
(dp2010
g54
(dp2011
sg63
g59
sg56
(lp2012
g49
(g70
g51
NtRp2013
(dp2014
g54
(dp2015
g74
g75
ssg63
g2009
sg56
(lp2016
S'is_restful'
p2017
asbag49
(g70
g51
NtRp2018
(dp2019
g54
(dp2020
g81
g82
ssg63
g2009
sg56
(lp2021
S':'
asbag49
(g70
g51
NtRp2022
(dp2023
g54
(dp2024
sg63
g2009
sg56
(lp2025
g49
(g50
g51
NtRp2026
(dp2027
g54
(dp2028
g62
I5
ssg63
g2022
sg56
(lp2029
g92
asbasbasbag49
(g65
g51
NtRp2030
(dp2031
g54
(dp2032
sg63
g59
sg56
(lp2033
g49
(g70
g51
NtRp2034
(dp2035
g54
(dp2036
g74
g75
ssg63
g2030
sg56
(lp2037
S'now'
p2038
asbag49
(g70
g51
NtRp2039
(dp2040
g54
(dp2041
g81
g82
ssg63
g2030
sg56
(lp2042
S':'
asbag49
(g70
g51
NtRp2043
(dp2044
g54
(dp2045
sg63
g2030
sg56
(lp2046
g49
(g50
g51
NtRp2047
(dp2048
g54
(dp2049
g62
I5
ssg63
g2043
sg56
(lp2050
S'datetime.datetime(2012, 3, 27, 16, 2, 39, 485900)'
p2051
asbasbasbag49
(g65
g51
NtRp2052
(dp2053
g54
(dp2054
sg63
g59
sg56
(lp2055
g49
(g70
g51
NtRp2056
(dp2057
g54
(dp2058
g74
g75
ssg63
g2052
sg56
(lp2059
S'post_vars'
p2060
asbag49
(g70
g51
NtRp2061
(dp2062
g54
(dp2063
g81
g82
ssg63
g2052
sg56
(lp2064
S':'
asbag49
(g70
g51
NtRp2065
(dp2066
g54
(dp2067
sg63
g2052
sg56
(lp2068
g49
(g50
g51
NtRp2069
(dp2070
g54
(dp2071
g62
I5
ssg63
g2065
sg56
(lp2072
g49
(g58
g51
NtRp2073
(dp2074
g54
(dp2075
g62
I4
ssg63
Nsg56
(lp2076
sbasbasbasbag49
(g65
g51
NtRp2077
(dp2078
g54
(dp2079
sg63
g59
sg56
(lp2080
g49
(g70
g51
NtRp2081
(dp2082
g54
(dp2083
g74
g75
ssg63
g2077
sg56
(lp2084
S'url'
p2085
asbag49
(g70
g51
NtRp2086
(dp2087
g54
(dp2088
g81
g82
ssg63
g2077
sg56
(lp2089
S':'
asbag49
(g70
g51
NtRp2090
(dp2091
g54
(dp2092
sg63
g2077
sg56
(lp2093
g49
(g50
g51
NtRp2094
(dp2095
g54
(dp2096
g62
I5
ssg63
g2090
sg56
(lp2097
S'/tasks/rrss'
p2098
asbasbasbag49
(g65
g51
NtRp2099
(dp2100
g54
(dp2101
sg63
g59
sg56
(lp2102
g49
(g70
g51
NtRp2103
(dp2104
g54
(dp2105
g74
g75
ssg63
g2099
sg56
(lp2106
S'utcnow'
p2107
asbag49
(g70
g51
NtRp2108
(dp2109
g54
(dp2110
g81
g82
ssg63
g2099
sg56
(lp2111
S':'
asbag49
(g70
g51
NtRp2112
(dp2113
g54
(dp2114
sg63
g2099
sg56
(lp2115
g49
(g50
g51
NtRp2116
(dp2117
g54
(dp2118
g62
I5
ssg63
g2112
sg56
(lp2119
S'datetime.datetime(2012, 3, 27, 20, 2, 39, 485917)'
p2120
asbasbasbag49
(g65
g51
NtRp2121
(dp2122
g54
(dp2123
sg63
g59
sg56
(lp2124
g49
(g70
g51
NtRp2125
(dp2126
g54
(dp2127
g74
g75
ssg63
g2121
sg56
(lp2128
S'uuid'
p2129
asbag49
(g70
g51
NtRp2130
(dp2131
g54
(dp2132
g81
g82
ssg63
g2121
sg56
(lp2133
S':'
asbag49
(g70
g51
NtRp2134
(dp2135
g54
(dp2136
sg63
g2121
sg56
(lp2137
g49
(g50
g51
NtRp2138
(dp2139
g54
(dp2140
g62
I5
ssg63
g2134
sg56
(lp2141
S'udi0312/127.0.0.1.2012-03-27.16-02-39.55702a9d-4397-4edc-afc9-baf7aec18484'
p2142
asbasbasbag49
(g65
g51
NtRp2143
(dp2144
g54
(dp2145
sg63
g59
sg56
(lp2146
g49
(g70
g51
NtRp2147
(dp2148
g54
(dp2149
g74
g75
ssg63
g2143
sg56
(lp2150
S'vars'
p2151
asbag49
(g70
g51
NtRp2152
(dp2153
g54
(dp2154
g81
g82
ssg63
g2143
sg56
(lp2155
S':'
asbag49
(g70
g51
NtRp2156
(dp2157
g54
(dp2158
sg63
g2143
sg56
(lp2159
g49
(g50
g51
NtRp2160
(dp2161
g54
(dp2162
g62
I5
ssg63
g2156
sg56
(lp2163
g49
(g58
g51
NtRp2164
(dp2165
g54
(dp2166
g62
I4
ssg63
Nsg56
(lp2167
sbasbasbasbag49
(g65
g51
NtRp2168
(dp2169
g54
(dp2170
sg63
g59
sg56
(lp2171
g49
(g70
g51
NtRp2172
(dp2173
g54
(dp2174
g74
g75
ssg63
g2168
sg56
(lp2175
S'wsgi'
p2176
asbag49
(g70
g51
NtRp2177
(dp2178
g54
(dp2179
g81
g82
ssg63
g2168
sg56
(lp2180
S':'
asbag49
(g70
g51
NtRp2181
(dp2182
g54
(dp2183
sg63
g2168
sg56
(lp2184
g49
(g50
g51
NtRp2185
(dp2186
g54
(dp2187
g62
I5
ssg63
g2181
sg56
(lp2188
g49
(g58
g51
NtRp2189
(dp2190
g54
(dp2191
g62
I4
ssg63
Nsg56
(lp2192
g49
(g65
g51
NtRp2193
(dp2194
g54
(dp2195
sg63
g2189
sg56
(lp2196
g49
(g70
g51
NtRp2197
(dp2198
g54
(dp2199
g74
g75
ssg63
g2193
sg56
(lp2200
S'environ'
p2201
asbag49
(g70
g51
NtRp2202
(dp2203
g54
(dp2204
g81
g82
ssg63
g2193
sg56
(lp2205
S':'
asbag49
(g70
g51
NtRp2206
(dp2207
g54
(dp2208
sg63
g2193
sg56
(lp2209
g49
(g50
g51
NtRp2210
(dp2211
g54
(dp2212
g62
I4
ssg63
g2206
sg56
(lp2213
g49
(g58
g51
NtRp2214
(dp2215
g54
(dp2216
g62
I3
ssg63
Nsg56
(lp2217
g49
(g65
g51
NtRp2218
(dp2219
g54
(dp2220
sg63
g2214
sg56
(lp2221
g49
(g70
g51
NtRp2222
(dp2223
g54
(dp2224
g74
g75
ssg63
g2218
sg56
(lp2225
S'HTTP_ACCEPT'
p2226
asbag49
(g70
g51
NtRp2227
(dp2228
g54
(dp2229
g81
g82
ssg63
g2218
sg56
(lp2230
S':'
asbag49
(g70
g51
NtRp2231
(dp2232
g54
(dp2233
sg63
g2218
sg56
(lp2234
g49
(g50
g51
NtRp2235
(dp2236
g54
(dp2237
g62
I3
ssg63
g2231
sg56
(lp2238
g769
asbasbasbag49
(g65
g51
NtRp2239
(dp2240
g54
(dp2241
sg63
g2214
sg56
(lp2242
g49
(g70
g51
NtRp2243
(dp2244
g54
(dp2245
g74
g75
ssg63
g2239
sg56
(lp2246
S'HTTP_ACCEPT_CHARSET'
p2247
asbag49
(g70
g51
NtRp2248
(dp2249
g54
(dp2250
g81
g82
ssg63
g2239
sg56
(lp2251
S':'
asbag49
(g70
g51
NtRp2252
(dp2253
g54
(dp2254
sg63
g2239
sg56
(lp2255
g49
(g50
g51
NtRp2256
(dp2257
g54
(dp2258
g62
I3
ssg63
g2252
sg56
(lp2259
g791
asbasbasbag49
(g65
g51
NtRp2260
(dp2261
g54
(dp2262
sg63
g2214
sg56
(lp2263
g49
(g70
g51
NtRp2264
(dp2265
g54
(dp2266
g74
g75
ssg63
g2260
sg56
(lp2267
S'HTTP_ACCEPT_ENCODING'
p2268
asbag49
(g70
g51
NtRp2269
(dp2270
g54
(dp2271
g81
g82
ssg63
g2260
sg56
(lp2272
S':'
asbag49
(g70
g51
NtRp2273
(dp2274
g54
(dp2275
sg63
g2260
sg56
(lp2276
g49
(g50
g51
NtRp2277
(dp2278
g54
(dp2279
g62
I3
ssg63
g2273
sg56
(lp2280
g813
asbasbasbag49
(g65
g51
NtRp2281
(dp2282
g54
(dp2283
sg63
g2214
sg56
(lp2284
g49
(g70
g51
NtRp2285
(dp2286
g54
(dp2287
g74
g75
ssg63
g2281
sg56
(lp2288
S'HTTP_ACCEPT_LANGUAGE'
p2289
asbag49
(g70
g51
NtRp2290
(dp2291
g54
(dp2292
g81
g82
ssg63
g2281
sg56
(lp2293
S':'
asbag49
(g70
g51
NtRp2294
(dp2295
g54
(dp2296
sg63
g2281
sg56
(lp2297
g49
(g50
g51
NtRp2298
(dp2299
g54
(dp2300
g62
I3
ssg63
g2294
sg56
(lp2301
g835
asbasbasbag49
(g65
g51
NtRp2302
(dp2303
g54
(dp2304
sg63
g2214
sg56
(lp2305
g49
(g70
g51
NtRp2306
(dp2307
g54
(dp2308
g74
g75
ssg63
g2302
sg56
(lp2309
S'HTTP_CONNECTION'
p2310
asbag49
(g70
g51
NtRp2311
(dp2312
g54
(dp2313
g81
g82
ssg63
g2302
sg56
(lp2314
S':'
asbag49
(g70
g51
NtRp2315
(dp2316
g54
(dp2317
sg63
g2302
sg56
(lp2318
g49
(g50
g51
NtRp2319
(dp2320
g54
(dp2321
g62
I3
ssg63
g2315
sg56
(lp2322
g857
asbasbasbag49
(g65
g51
NtRp2323
(dp2324
g54
(dp2325
sg63
g2214
sg56
(lp2326
g49
(g70
g51
NtRp2327
(dp2328
g54
(dp2329
g74
g75
ssg63
g2323
sg56
(lp2330
S'HTTP_COOKIE'
p2331
asbag49
(g70
g51
NtRp2332
(dp2333
g54
(dp2334
g81
g82
ssg63
g2323
sg56
(lp2335
S':'
asbag49
(g70
g51
NtRp2336
(dp2337
g54
(dp2338
sg63
g2323
sg56
(lp2339
g49
(g50
g51
NtRp2340
(dp2341
g54
(dp2342
g62
I3
ssg63
g2336
sg56
(lp2343
g879
asbasbasbag49
(g65
g51
NtRp2344
(dp2345
g54
(dp2346
sg63
g2214
sg56
(lp2347
g49
(g70
g51
NtRp2348
(dp2349
g54
(dp2350
g74
g75
ssg63
g2344
sg56
(lp2351
S'HTTP_HOST'
p2352
asbag49
(g70
g51
NtRp2353
(dp2354
g54
(dp2355
g81
g82
ssg63
g2344
sg56
(lp2356
S':'
asbag49
(g70
g51
NtRp2357
(dp2358
g54
(dp2359
sg63
g2344
sg56
(lp2360
g49
(g50
g51
NtRp2361
(dp2362
g54
(dp2363
g62
I3
ssg63
g2357
sg56
(lp2364
g901
asbasbasbag49
(g65
g51
NtRp2365
(dp2366
g54
(dp2367
sg63
g2214
sg56
(lp2368
g49
(g70
g51
NtRp2369
(dp2370
g54
(dp2371
g74
g75
ssg63
g2365
sg56
(lp2372
S'HTTP_USER_AGENT'
p2373
asbag49
(g70
g51
NtRp2374
(dp2375
g54
(dp2376
g81
g82
ssg63
g2365
sg56
(lp2377
S':'
asbag49
(g70
g51
NtRp2378
(dp2379
g54
(dp2380
sg63
g2365
sg56
(lp2381
g49
(g50
g51
NtRp2382
(dp2383
g54
(dp2384
g62
I3
ssg63
g2378
sg56
(lp2385
g923
asbasbasbag49
(g65
g51
NtRp2386
(dp2387
g54
(dp2388
sg63
g2214
sg56
(lp2389
g49
(g70
g51
NtRp2390
(dp2391
g54
(dp2392
g74
g75
ssg63
g2386
sg56
(lp2393
S'PATH_INFO'
p2394
asbag49
(g70
g51
NtRp2395
(dp2396
g54
(dp2397
g81
g82
ssg63
g2386
sg56
(lp2398
S':'
asbag49
(g70
g51
NtRp2399
(dp2400
g54
(dp2401
sg63
g2386
sg56
(lp2402
g49
(g50
g51
NtRp2403
(dp2404
g54
(dp2405
g62
I3
ssg63
g2399
sg56
(lp2406
g987
asbasbasbag49
(g65
g51
NtRp2407
(dp2408
g54
(dp2409
sg63
g2214
sg56
(lp2410
g49
(g70
g51
NtRp2411
(dp2412
g54
(dp2413
g74
g75
ssg63
g2407
sg56
(lp2414
S'QUERY_STRING'
p2415
asbag49
(g70
g51
NtRp2416
(dp2417
g54
(dp2418
g81
g82
ssg63
g2407
sg56
(lp2419
S':'
asbag49
(g70
g51
NtRp2420
(dp2421
g54
(dp2422
sg63
g2407
sg56
(lp2423
g49
(g50
g51
NtRp2424
(dp2425
g54
(dp2426
g62
I3
ssg63
g2420
sg56
(lp2427
S''
asbasbasbag49
(g65
g51
NtRp2428
(dp2429
g54
(dp2430
sg63
g2214
sg56
(lp2431
g49
(g70
g51
NtRp2432
(dp2433
g54
(dp2434
g74
g75
ssg63
g2428
sg56
(lp2435
S'REMOTE_ADDR'
p2436
asbag49
(g70
g51
NtRp2437
(dp2438
g54
(dp2439
g81
g82
ssg63
g2428
sg56
(lp2440
S':'
asbag49
(g70
g51
NtRp2441
(dp2442
g54
(dp2443
sg63
g2428
sg56
(lp2444
g49
(g50
g51
NtRp2445
(dp2446
g54
(dp2447
g62
I3
ssg63
g2441
sg56
(lp2448
g182
asbasbasbag49
(g65
g51
NtRp2449
(dp2450
g54
(dp2451
sg63
g2214
sg56
(lp2452
g49
(g70
g51
NtRp2453
(dp2454
g54
(dp2455
g74
g75
ssg63
g2449
sg56
(lp2456
S'REMOTE_PORT'
p2457
asbag49
(g70
g51
NtRp2458
(dp2459
g54
(dp2460
g81
g82
ssg63
g2449
sg56
(lp2461
S':'
asbag49
(g70
g51
NtRp2462
(dp2463
g54
(dp2464
sg63
g2449
sg56
(lp2465
g49
(g50
g51
NtRp2466
(dp2467
g54
(dp2468
g62
I3
ssg63
g2462
sg56
(lp2469
g1051
asbasbasbag49
(g65
g51
NtRp2470
(dp2471
g54
(dp2472
sg63
g2214
sg56
(lp2473
g49
(g70
g51
NtRp2474
(dp2475
g54
(dp2476
g74
g75
ssg63
g2470
sg56
(lp2477
S'REQUEST_METHOD'
p2478
asbag49
(g70
g51
NtRp2479
(dp2480
g54
(dp2481
g81
g82
ssg63
g2470
sg56
(lp2482
S':'
asbag49
(g70
g51
NtRp2483
(dp2484
g54
(dp2485
sg63
g2470
sg56
(lp2486
g49
(g50
g51
NtRp2487
(dp2488
g54
(dp2489
g62
I3
ssg63
g2483
sg56
(lp2490
g1073
asbasbasbag49
(g65
g51
NtRp2491
(dp2492
g54
(dp2493
sg63
g2214
sg56
(lp2494
g49
(g70
g51
NtRp2495
(dp2496
g54
(dp2497
g74
g75
ssg63
g2491
sg56
(lp2498
S'REQUEST_URI'
p2499
asbag49
(g70
g51
NtRp2500
(dp2501
g54
(dp2502
g81
g82
ssg63
g2491
sg56
(lp2503
S':'
asbag49
(g70
g51
NtRp2504
(dp2505
g54
(dp2506
sg63
g2491
sg56
(lp2507
g49
(g50
g51
NtRp2508
(dp2509
g54
(dp2510
g62
I3
ssg63
g2504
sg56
(lp2511
g1095
asbasbasbag49
(g65
g51
NtRp2512
(dp2513
g54
(dp2514
sg63
g2214
sg56
(lp2515
g49
(g70
g51
NtRp2516
(dp2517
g54
(dp2518
g74
g75
ssg63
g2512
sg56
(lp2519
S'SCRIPT_NAME'
p2520
asbag49
(g70
g51
NtRp2521
(dp2522
g54
(dp2523
g81
g82
ssg63
g2512
sg56
(lp2524
S':'
asbag49
(g70
g51
NtRp2525
(dp2526
g54
(dp2527
sg63
g2512
sg56
(lp2528
g49
(g50
g51
NtRp2529
(dp2530
g54
(dp2531
g62
I3
ssg63
g2525
sg56
(lp2532
S''
asbasbasbag49
(g65
g51
NtRp2533
(dp2534
g54
(dp2535
sg63
g2214
sg56
(lp2536
g49
(g70
g51
NtRp2537
(dp2538
g54
(dp2539
g74
g75
ssg63
g2533
sg56
(lp2540
S'SERVER_NAME'
p2541
asbag49
(g70
g51
NtRp2542
(dp2543
g54
(dp2544
g81
g82
ssg63
g2533
sg56
(lp2545
S':'
asbag49
(g70
g51
NtRp2546
(dp2547
g54
(dp2548
sg63
g2533
sg56
(lp2549
g49
(g50
g51
NtRp2550
(dp2551
g54
(dp2552
g62
I3
ssg63
g2546
sg56
(lp2553
g1138
asbasbasbag49
(g65
g51
NtRp2554
(dp2555
g54
(dp2556
sg63
g2214
sg56
(lp2557
g49
(g70
g51
NtRp2558
(dp2559
g54
(dp2560
g74
g75
ssg63
g2554
sg56
(lp2561
S'SERVER_PORT'
p2562
asbag49
(g70
g51
NtRp2563
(dp2564
g54
(dp2565
g81
g82
ssg63
g2554
sg56
(lp2566
S':'
asbag49
(g70
g51
NtRp2567
(dp2568
g54
(dp2569
sg63
g2554
sg56
(lp2570
g49
(g50
g51
NtRp2571
(dp2572
g54
(dp2573
g62
I3
ssg63
g2567
sg56
(lp2574
g1160
asbasbasbag49
(g65
g51
NtRp2575
(dp2576
g54
(dp2577
sg63
g2214
sg56
(lp2578
g49
(g70
g51
NtRp2579
(dp2580
g54
(dp2581
g74
g75
ssg63
g2575
sg56
(lp2582
S'SERVER_PROTOCOL'
p2583
asbag49
(g70
g51
NtRp2584
(dp2585
g54
(dp2586
g81
g82
ssg63
g2575
sg56
(lp2587
S':'
asbag49
(g70
g51
NtRp2588
(dp2589
g54
(dp2590
sg63
g2575
sg56
(lp2591
g49
(g50
g51
NtRp2592
(dp2593
g54
(dp2594
g62
I3
ssg63
g2588
sg56
(lp2595
g1182
asbasbasbag49
(g65
g51
NtRp2596
(dp2597
g54
(dp2598
sg63
g2214
sg56
(lp2599
g49
(g70
g51
NtRp2600
(dp2601
g54
(dp2602
g74
g75
ssg63
g2596
sg56
(lp2603
S'SERVER_SOFTWARE'
p2604
asbag49
(g70
g51
NtRp2605
(dp2606
g54
(dp2607
g81
g82
ssg63
g2596
sg56
(lp2608
S':'
asbag49
(g70
g51
NtRp2609
(dp2610
g54
(dp2611
sg63
g2596
sg56
(lp2612
g49
(g50
g51
NtRp2613
(dp2614
g54
(dp2615
g62
I3
ssg63
g2609
sg56
(lp2616
g1204
asbasbasbag49
(g65
g51
NtRp2617
(dp2618
g54
(dp2619
sg63
g2214
sg56
(lp2620
g49
(g70
g51
NtRp2621
(dp2622
g54
(dp2623
g74
g75
ssg63
g2617
sg56
(lp2624
S'WEB2PY_ORIGINAL_URI'
p2625
asbag49
(g70
g51
NtRp2626
(dp2627
g54
(dp2628
g81
g82
ssg63
g2617
sg56
(lp2629
S':'
asbag49
(g70
g51
NtRp2630
(dp2631
g54
(dp2632
sg63
g2617
sg56
(lp2633
g49
(g50
g51
NtRp2634
(dp2635
g54
(dp2636
g62
I3
ssg63
g2630
sg56
(lp2637
g987
asbasbasbag49
(g65
g51
NtRp2638
(dp2639
g54
(dp2640
sg63
g2214
sg56
(lp2641
g49
(g70
g51
NtRp2642
(dp2643
g54
(dp2644
g74
g75
ssg63
g2638
sg56
(lp2645
S'wsgi.errors'
p2646
asbag49
(g70
g51
NtRp2647
(dp2648
g54
(dp2649
g81
g82
ssg63
g2638
sg56
(lp2650
S':'
asbag49
(g70
g51
NtRp2651
(dp2652
g54
(dp2653
sg63
g2638
sg56
(lp2654
g49
(g50
g51
NtRp2655
(dp2656
g54
(dp2657
g62
I3
ssg63
g2651
sg56
(lp2658
S"<open file '<stderr>', mode 'w' at 0x4220b0>"
p2659
asbasbasbag49
(g65
g51
NtRp2660
(dp2661
g54
(dp2662
sg63
g2214
sg56
(lp2663
g49
(g70
g51
NtRp2664
(dp2665
g54
(dp2666
g74
g75
ssg63
g2660
sg56
(lp2667
S'wsgi.file_wrapper'
p2668
asbag49
(g70
g51
NtRp2669
(dp2670
g54
(dp2671
g81
g82
ssg63
g2660
sg56
(lp2672
S':'
asbag49
(g70
g51
NtRp2673
(dp2674
g54
(dp2675
sg63
g2660
sg56
(lp2676
g49
(g50
g51
NtRp2677
(dp2678
g54
(dp2679
g62
I3
ssg63
g2673
sg56
(lp2680
S'<class wsgiref.util.FileWrapper at 0x215e6c0>'
p2681
asbasbasbag49
(g65
g51
NtRp2682
(dp2683
g54
(dp2684
sg63
g2214
sg56
(lp2685
g49
(g70
g51
NtRp2686
(dp2687
g54
(dp2688
g74
g75
ssg63
g2682
sg56
(lp2689
S'wsgi.input'
p2690
asbag49
(g70
g51
NtRp2691
(dp2692
g54
(dp2693
g81
g82
ssg63
g2682
sg56
(lp2694
S':'
asbag49
(g70
g51
NtRp2695
(dp2696
g54
(dp2697
sg63
g2682
sg56
(lp2698
g49
(g50
g51
NtRp2699
(dp2700
g54
(dp2701
g62
I3
ssg63
g2695
sg56
(lp2702
S'<cStringIO.StringO object at 0xacf03e0>'
p2703
asbasbasbag49
(g65
g51
NtRp2704
(dp2705
g54
(dp2706
sg63
g2214
sg56
(lp2707
g49
(g70
g51
NtRp2708
(dp2709
g54
(dp2710
g74
g75
ssg63
g2704
sg56
(lp2711
S'wsgi.multiprocess'
p2712
asbag49
(g70
g51
NtRp2713
(dp2714
g54
(dp2715
g81
g82
ssg63
g2704
sg56
(lp2716
S':'
asbag49
(g70
g51
NtRp2717
(dp2718
g54
(dp2719
sg63
g2704
sg56
(lp2720
g49
(g50
g51
NtRp2721
(dp2722
g54
(dp2723
g62
I3
ssg63
g2717
sg56
(lp2724
g92
asbasbasbag49
(g65
g51
NtRp2725
(dp2726
g54
(dp2727
sg63
g2214
sg56
(lp2728
g49
(g70
g51
NtRp2729
(dp2730
g54
(dp2731
g74
g75
ssg63
g2725
sg56
(lp2732
S'wsgi.multithread'
p2733
asbag49
(g70
g51
NtRp2734
(dp2735
g54
(dp2736
g81
g82
ssg63
g2725
sg56
(lp2737
S':'
asbag49
(g70
g51
NtRp2738
(dp2739
g54
(dp2740
sg63
g2725
sg56
(lp2741
g49
(g50
g51
NtRp2742
(dp2743
g54
(dp2744
g62
I3
ssg63
g2738
sg56
(lp2745
g1465
asbasbasbag49
(g65
g51
NtRp2746
(dp2747
g54
(dp2748
sg63
g2214
sg56
(lp2749
g49
(g70
g51
NtRp2750
(dp2751
g54
(dp2752
g74
g75
ssg63
g2746
sg56
(lp2753
S'wsgi.run_once'
p2754
asbag49
(g70
g51
NtRp2755
(dp2756
g54
(dp2757
g81
g82
ssg63
g2746
sg56
(lp2758
S':'
asbag49
(g70
g51
NtRp2759
(dp2760
g54
(dp2761
sg63
g2746
sg56
(lp2762
g49
(g50
g51
NtRp2763
(dp2764
g54
(dp2765
g62
I3
ssg63
g2759
sg56
(lp2766
g92
asbasbasbag49
(g65
g51
NtRp2767
(dp2768
g54
(dp2769
sg63
g2214
sg56
(lp2770
g49
(g70
g51
NtRp2771
(dp2772
g54
(dp2773
g74
g75
ssg63
g2767
sg56
(lp2774
S'wsgi.url_scheme'
p2775
asbag49
(g70
g51
NtRp2776
(dp2777
g54
(dp2778
g81
g82
ssg63
g2767
sg56
(lp2779
S':'
asbag49
(g70
g51
NtRp2780
(dp2781
g54
(dp2782
sg63
g2767
sg56
(lp2783
g49
(g50
g51
NtRp2784
(dp2785
g54
(dp2786
g62
I3
ssg63
g2780
sg56
(lp2787
g1508
asbasbasbag49
(g65
g51
NtRp2788
(dp2789
g54
(dp2790
sg63
g2214
sg56
(lp2791
g49
(g70
g51
NtRp2792
(dp2793
g54
(dp2794
g74
g75
ssg63
g2788
sg56
(lp2795
S'wsgi.version'
p2796
asbag49
(g70
g51
NtRp2797
(dp2798
g54
(dp2799
g81
g82
ssg63
g2788
sg56
(lp2800
S':'
asbag49
(g70
g51
NtRp2801
(dp2802
g54
(dp2803
sg63
g2788
sg56
(lp2804
g49
(g50
g51
NtRp2805
(dp2806
g54
(dp2807
g62
I3
ssg63
g2801
sg56
(lp2808
S'1'
asbasbasbasbasbasbasbasbasbasbasbasbasbsS'frames'
p2809
(lp2810
(dp2811
S'file'
p2812
S'/users/udimilo/Documents/web2py/gluon/restricted.py'
p2813
sS'dump'
p2814
(dp2815
S'environment'
p2816
S"{'A': <class 'gluon.html.A'>, 'Auth': <class 'gluon.tools.Auth'>, 'B': <class 'gluon.html.B'>, 'BEAUTIFY': <class 'gluon.html.BEAUTIFY'>, 'BODY': <class 'gluon.html.BODY'>, 'BR': <class 'gluon.html.BR'>, 'BUTTON': <class 'gluon.html.BUTTON'>, 'CAT': <class 'gluon.html.CAT'>, 'CENTER': <class 'gluon.html.CENTER'>, 'CLEANUP': <class 'gluon.validators.CLEANUP'>, ...}"
p2817
sS'ccode'
p2818
S'<code object <module> at 0x6d4ec38, file "/Users...plications/udi0312/controllers/tasks.py", line 2>'
p2819
ssS'lnum'
p2820
I205
sS'lines'
p2821
(dp2822
I200
S'    try:'
p2823
sI201
S'        if type(code) == types.CodeType:'
p2824
sI202
S'            ccode = code'
p2825
sI203
S'        else:'
p2826
sI204
S'            ccode = compile2(code,layer)'
p2827
sI205
S'        exec ccode in environment'
p2828
sI206
S'    except HTTP:'
p2829
sI207
S'        raise'
p2830
sI208
S'    except RestrictedError:'
p2831
sI209
S'        # do not encapsulate (obfuscate) the original RestrictedError'
p2832
ssS'call'
p2833
S'(code="# coding: utf8\\nimport feedparser\\nimport urllib2\\n...eturn \'1\'\\n\\nresponse._vars=response._caller(rrss)\\n", environment={\'A\': <class \'gluon.html.A\'>, \'Auth\': <class \'gluon.tools.Auth\'>, \'B\': <class \'gluon.html.B\'>, \'BEAUTIFY\': <class \'gluon.html.BEAUTIFY\'>, \'BODY\': <class \'gluon.html.BODY\'>, \'BR\': <class \'gluon.html.BR\'>, \'BUTTON\': <class \'gluon.html.BUTTON\'>, \'CAT\': <class \'gluon.html.CAT\'>, \'CENTER\': <class \'gluon.html.CENTER\'>, \'CLEANUP\': <class \'gluon.validators.CLEANUP\'>, ...}, layer=\'/Users/udimilo/Documents/web2py/applications/udi0312/controllers/tasks.py\')'
p2834
sS'func'
p2835
S'restricted'
p2836
sa(dp2837
g2812
S'/Users/udimilo/Documents/web2py/applications/udi0312/controllers/tasks.py'
p2838
sg2814
(dp2839
sg2820
I64
sg2821
(dp2840
I53
S'            d = feedparser.parse(r.url)'
p2841
sI54
S"            for item in d['entries']:"
p2842
sI55
S'                try:'
p2843
sI56
S'                    a = create_article(item)'
p2844
sI57
S'                    p = create_pin(a, r)'
p2845
sI58
S'                except:'
p2846
sI59
S'                    pass'
p2847
sI60
S'        except:'
p2848
sI61
S'            pass'
p2849
sI62
S"    return '1'"
p2850
ssg2833
S'()'
p2851
sg2835
S'<module>'
p2852
sa(dp2853
g2812
S'/users/udimilo/Documents/web2py/gluon/globals.py'
p2854
sg2814
(dp2855
S'self'
p2856
S'undefined'
p2857
sS'f'
S'<function rrss at 0xa2b2cb0>'
p2858
ssg2820
I173
sg2821
(dp2859
I168
S'        self.menu = []             # used by the default view layout'
p2860
sI169
S'        self.files = []            # used by web2py_ajax.html'
p2861
sI170
S'        self.generic_patterns = [] # patterns to allow generic views'
p2862
sI171
S"        self.delimiters = ('{{','}}')"
p2863
sI172
S'        self._vars = None'
p2864
sI173
S'        self._caller = lambda f: f()'
p2865
sI174
S'        self._view_environment = None'
p2866
sI175
S'        self._custom_commit = None'
p2867
sI176
S'        self._custom_rollback = None'
p2868
sI177
S''
ssg2833
S'(f=<function rrss at 0xa2b2cb0>)'
p2869
sg2835
S'<lambda>'
p2870
sa(dp2871
g2812
S'/Users/udimilo/Documents/web2py/applications/udi0312/controllers/tasks.py'
p2872
sg2814
(dp2873
S'a'
S"<Row {'domain': 'techcrunch.com', 'star': <gluon...<lambda> at 0xa2b22b0>, 'readability_url': None}>"
p2874
sS'p'
g2857
sS'r'
S"<Row {'update_record': <function <lambda> at 0xa...elete_record': <function <lambda> at 0xa2b2fb0>}>"
p2875
sS'global create_pin'
p2876
S'<function create_pin at 0xa2b2a70>'
p2877
ssg2820
I45
sg2821
(dp2878
I40
S'    rss = db().select(db.rss_feed.ALL)'
p2879
sI41
S'    for r in rss:'
p2880
sI42
S'        d = feedparser.parse(r.url)'
p2881
sI43
S"        for item in d['entries']:"
p2882
sI44
S'            a = create_article(item)'
p2883
sI45
S'            p = create_pin(a, r)'
p2884
sI46
S"    return '1'"
p2885
sI47
S''
sI48
S''
sI49
S'def rss():'
p2886
ssg2833
S'()'
p2887
sg2835
S'rrss'
p2888
sa(dp2889
g2812
S'/Users/udimilo/Documents/web2py/applications/udi0312/controllers/tasks.py'
p2890
sg2814
(dp2891
S'article_media_thumbnail'
p2892
g2857
ssg2820
I30
sg2821
(dp2893
I32
S'            board=rss.board,'
p2894
sI33
S'            board_name=rss.board.name,'
p2895
sI34
S'            user = rss.board.user,'
p2896
sI25
S'        pin = db.pin.insert('
p2897
sI26
S'            article=article.id,'
p2898
sI27
S'            article_title = article.title,'
p2899
sI28
S'            article_content = article.content,'
p2900
sI29
S'            article_domain = article.domain,'
p2901
sI30
S'            article_media_thumbnail = article_media_thumbnail,'
p2902
sI31
S'            article_excerpt = article_excerpt,'
p2903
ssg2833
S"(article=<Row {'domain': 'techcrunch.com', 'star': <gluon...<lambda> at 0xa2b22b0>, 'readability_url': None}>, rss=<Row {'update_record': <function <lambda> at 0xa...elete_record': <function <lambda> at 0xa2b2fb0>}>)"
p2904
sg2835
S'create_pin'
p2905
sasS'pyver'
p2906
S'Python 2.5.4: /Library/Frameworks/Python.framework/Versions/2.5/Resources/Python.app/Contents/MacOS/Python'
p2907
sS'session'
p2908
g49
(g50
g51
NtRp2909
(dp2910
g54
(dp2911
sg56
(lp2912
g49
(g58
g51
NtRp2913
(dp2914
g54
(dp2915
g62
I5
ssg63
Nsg56
(lp2916
g49
(g65
g51
NtRp2917
(dp2918
g54
(dp2919
sg63
g2913
sg56
(lp2920
g49
(g70
g51
NtRp2921
(dp2922
g54
(dp2923
g74
g75
ssg63
g2917
sg56
(lp2924
S'last_query'
p2925
asbag49
(g70
g51
NtRp2926
(dp2927
g54
(dp2928
g81
g82
ssg63
g2917
sg56
(lp2929
S':'
asbag49
(g70
g51
NtRp2930
(dp2931
g54
(dp2932
sg63
g2917
sg56
(lp2933
g49
(g50
g51
NtRp2934
(dp2935
g54
(dp2936
g62
I5
ssg63
g2930
sg56
(lp2937
S'db.comment.id>0'
p2938
asbasbasbasbasbsS'etype'
p2939
S"<type 'exceptions.NameError'>"
p2940
sS'date'
p2941
S'Tue Mar 27 16:02:41 2012'
p2942
sS'response'
p2943
g49
(g50
g51
NtRp2944
(dp2945
g54
(dp2946
sg56
(lp2947
g49
(g58
g51
NtRp2948
(dp2949
g54
(dp2950
g62
I5
ssg63
Nsg56
(lp2951
g49
(g65
g51
NtRp2952
(dp2953
g54
(dp2954
sg63
g2948
sg56
(lp2955
g49
(g70
g51
NtRp2956
(dp2957
g54
(dp2958
g74
g75
ssg63
g2952
sg56
(lp2959
g147
asbag49
(g70
g51
NtRp2960
(dp2961
g54
(dp2962
g81
g82
ssg63
g2952
sg56
(lp2963
S':'
asbag49
(g70
g51
NtRp2964
(dp2965
g54
(dp2966
sg63
g2952
sg56
(lp2967
g49
(g50
g51
NtRp2968
(dp2969
g54
(dp2970
g62
I5
ssg63
g2964
sg56
(lp2971
S'<cStringIO.StringO object at 0xa8ca320>'
p2972
asbasbasbag49
(g65
g51
NtRp2973
(dp2974
g54
(dp2975
sg63
g2948
sg56
(lp2976
g49
(g70
g51
NtRp2977
(dp2978
g54
(dp2979
g74
g75
ssg63
g2973
sg56
(lp2980
g213
asbag49
(g70
g51
NtRp2981
(dp2982
g54
(dp2983
g81
g82
ssg63
g2973
sg56
(lp2984
S':'
asbag49
(g70
g51
NtRp2985
(dp2986
g54
(dp2987
sg63
g2973
sg56
(lp2988
g49
(g50
g51
NtRp2989
(dp2990
g54
(dp2991
g62
I5
ssg63
g2985
sg56
(lp2992
g49
(g58
g51
NtRp2993
(dp2994
g54
(dp2995
g62
I4
ssg63
Nsg56
(lp2996
g49
(g65
g51
NtRp2997
(dp2998
g54
(dp2999
sg63
g2993
sg56
(lp3000
g49
(g70
g51
NtRp3001
(dp3002
g54
(dp3003
g74
g75
ssg63
g2997
sg56
(lp3004
S'session_id_udi0312'
p3005
asbag49
(g70
g51
NtRp3006
(dp3007
g54
(dp3008
g81
g82
ssg63
g2997
sg56
(lp3009
S':'
asbag49
(g70
g51
NtRp3010
(dp3011
g54
(dp3012
sg63
g2997
sg56
(lp3013
g49
(g50
g51
NtRp3014
(dp3015
g54
(dp3016
g62
I4
ssg63
g3010
sg56
(lp3017
g49
(g58
g51
NtRp3018
(dp3019
g54
(dp3020
g62
I3
ssg63
Nsg56
(lp3021
g49
(g65
g51
NtRp3022
(dp3023
g54
(dp3024
sg63
g3018
sg56
(lp3025
g49
(g70
g51
NtRp3026
(dp3027
g54
(dp3028
g74
g75
ssg63
g3022
sg56
(lp3029
g263
asbag49
(g70
g51
NtRp3030
(dp3031
g54
(dp3032
g81
g82
ssg63
g3022
sg56
(lp3033
S':'
asbag49
(g70
g51
NtRp3034
(dp3035
g54
(dp3036
sg63
g3022
sg56
(lp3037
g49
(g50
g51
NtRp3038
(dp3039
g54
(dp3040
g62
I3
ssg63
g3034
sg56
(lp3041
S''
asbasbasbag49
(g65
g51
NtRp3042
(dp3043
g54
(dp3044
sg63
g3018
sg56
(lp3045
g49
(g70
g51
NtRp3046
(dp3047
g54
(dp3048
g74
g75
ssg63
g3042
sg56
(lp3049
g284
asbag49
(g70
g51
NtRp3050
(dp3051
g54
(dp3052
g81
g82
ssg63
g3042
sg56
(lp3053
S':'
asbag49
(g70
g51
NtRp3054
(dp3055
g54
(dp3056
sg63
g3042
sg56
(lp3057
g49
(g50
g51
NtRp3058
(dp3059
g54
(dp3060
g62
I3
ssg63
g3054
sg56
(lp3061
S''
asbasbasbag49
(g65
g51
NtRp3062
(dp3063
g54
(dp3064
sg63
g3018
sg56
(lp3065
g49
(g70
g51
NtRp3066
(dp3067
g54
(dp3068
g74
g75
ssg63
g3062
sg56
(lp3069
g305
asbag49
(g70
g51
NtRp3070
(dp3071
g54
(dp3072
g81
g82
ssg63
g3062
sg56
(lp3073
S':'
asbag49
(g70
g51
NtRp3074
(dp3075
g54
(dp3076
sg63
g3062
sg56
(lp3077
g49
(g50
g51
NtRp3078
(dp3079
g54
(dp3080
g62
I3
ssg63
g3074
sg56
(lp3081
S''
asbasbasbag49
(g65
g51
NtRp3082
(dp3083
g54
(dp3084
sg63
g3018
sg56
(lp3085
g49
(g70
g51
NtRp3086
(dp3087
g54
(dp3088
g74
g75
ssg63
g3082
sg56
(lp3089
g326
asbag49
(g70
g51
NtRp3090
(dp3091
g54
(dp3092
g81
g82
ssg63
g3082
sg56
(lp3093
S':'
asbag49
(g70
g51
NtRp3094
(dp3095
g54
(dp3096
sg63
g3082
sg56
(lp3097
g49
(g50
g51
NtRp3098
(dp3099
g54
(dp3100
g62
I3
ssg63
g3094
sg56
(lp3101
S''
asbasbasbag49
(g65
g51
NtRp3102
(dp3103
g54
(dp3104
sg63
g3018
sg56
(lp3105
g49
(g70
g51
NtRp3106
(dp3107
g54
(dp3108
g74
g75
ssg63
g3102
sg56
(lp3109
g347
asbag49
(g70
g51
NtRp3110
(dp3111
g54
(dp3112
g81
g82
ssg63
g3102
sg56
(lp3113
S':'
asbag49
(g70
g51
NtRp3114
(dp3115
g54
(dp3116
sg63
g3102
sg56
(lp3117
g49
(g50
g51
NtRp3118
(dp3119
g54
(dp3120
g62
I3
ssg63
g3114
sg56
(lp3121
S'/'
asbasbasbag49
(g65
g51
NtRp3122
(dp3123
g54
(dp3124
sg63
g3018
sg56
(lp3125
g49
(g70
g51
NtRp3126
(dp3127
g54
(dp3128
g74
g75
ssg63
g3122
sg56
(lp3129
g368
asbag49
(g70
g51
NtRp3130
(dp3131
g54
(dp3132
g81
g82
ssg63
g3122
sg56
(lp3133
S':'
asbag49
(g70
g51
NtRp3134
(dp3135
g54
(dp3136
sg63
g3122
sg56
(lp3137
g49
(g50
g51
NtRp3138
(dp3139
g54
(dp3140
g62
I3
ssg63
g3134
sg56
(lp3141
S''
asbasbasbag49
(g65
g51
NtRp3142
(dp3143
g54
(dp3144
sg63
g3018
sg56
(lp3145
g49
(g70
g51
NtRp3146
(dp3147
g54
(dp3148
g74
g75
ssg63
g3142
sg56
(lp3149
g389
asbag49
(g70
g51
NtRp3150
(dp3151
g54
(dp3152
g81
g82
ssg63
g3142
sg56
(lp3153
S':'
asbag49
(g70
g51
NtRp3154
(dp3155
g54
(dp3156
sg63
g3142
sg56
(lp3157
g49
(g50
g51
NtRp3158
(dp3159
g54
(dp3160
g62
I3
ssg63
g3154
sg56
(lp3161
S''
asbasbasbasbasbasbasbasbasbasbasbag49
(g65
g51
NtRp3162
(dp3163
g54
(dp3164
sg63
g2948
sg56
(lp3165
g49
(g70
g51
NtRp3166
(dp3167
g54
(dp3168
g74
g75
ssg63
g3162
sg56
(lp3169
S'delimiters'
p3170
asbag49
(g70
g51
NtRp3171
(dp3172
g54
(dp3173
g81
g82
ssg63
g3162
sg56
(lp3174
S':'
asbag49
(g70
g51
NtRp3175
(dp3176
g54
(dp3177
sg63
g3162
sg56
(lp3178
g49
(g50
g51
NtRp3179
(dp3180
g54
(dp3181
g62
I5
ssg63
g3175
sg56
(lp3182
g49
(g58
g51
NtRp3183
(dp3184
g54
(dp3185
g62
I4
ssg63
Nsg56
(lp3186
g49
(g65
g51
NtRp3187
(dp3188
g54
(dp3189
sg63
g3183
sg56
(lp3190
g49
(g70
g51
NtRp3191
(dp3192
g54
(dp3193
sg63
g3187
sg56
(lp3194
g49
(g50
g51
NtRp3195
(dp3196
g54
(dp3197
g62
I4
ssg63
g3191
sg56
(lp3198
S'{{'
p3199
asbasbasbag49
(g65
g51
NtRp3200
(dp3201
g54
(dp3202
sg63
g3183
sg56
(lp3203
g49
(g70
g51
NtRp3204
(dp3205
g54
(dp3206
sg63
g3200
sg56
(lp3207
g49
(g50
g51
NtRp3208
(dp3209
g54
(dp3210
g62
I4
ssg63
g3204
sg56
(lp3211
S'}}'
p3212
asbasbasbasbasbasbasbag49
(g65
g51
NtRp3213
(dp3214
g54
(dp3215
sg63
g2948
sg56
(lp3216
g49
(g70
g51
NtRp3217
(dp3218
g54
(dp3219
g74
g75
ssg63
g3213
sg56
(lp3220
S'files'
p3221
asbag49
(g70
g51
NtRp3222
(dp3223
g54
(dp3224
g81
g82
ssg63
g3213
sg56
(lp3225
S':'
asbag49
(g70
g51
NtRp3226
(dp3227
g54
(dp3228
sg63
g3213
sg56
(lp3229
g49
(g50
g51
NtRp3230
(dp3231
g54
(dp3232
g62
I5
ssg63
g3226
sg56
(lp3233
g49
(g58
g51
NtRp3234
(dp3235
g54
(dp3236
g62
I4
ssg63
Nsg56
(lp3237
sbasbasbasbag49
(g65
g51
NtRp3238
(dp3239
g54
(dp3240
sg63
g2948
sg56
(lp3241
g49
(g70
g51
NtRp3242
(dp3243
g54
(dp3244
g74
g75
ssg63
g3238
sg56
(lp3245
S'flash'
p3246
asbag49
(g70
g51
NtRp3247
(dp3248
g54
(dp3249
g81
g82
ssg63
g3238
sg56
(lp3250
S':'
asbag49
(g70
g51
NtRp3251
(dp3252
g54
(dp3253
sg63
g3238
sg56
(lp3254
g49
(g50
g51
NtRp3255
(dp3256
g54
(dp3257
g62
I5
ssg63
g3251
sg56
(lp3258
S''
asbasbasbag49
(g65
g51
NtRp3259
(dp3260
g54
(dp3261
sg63
g2948
sg56
(lp3262
g49
(g70
g51
NtRp3263
(dp3264
g54
(dp3265
g74
g75
ssg63
g3259
sg56
(lp3266
S'generic_patterns'
p3267
asbag49
(g70
g51
NtRp3268
(dp3269
g54
(dp3270
g81
g82
ssg63
g3259
sg56
(lp3271
S':'
asbag49
(g70
g51
NtRp3272
(dp3273
g54
(dp3274
sg63
g3259
sg56
(lp3275
g49
(g50
g51
NtRp3276
(dp3277
g54
(dp3278
g62
I5
ssg63
g3272
sg56
(lp3279
g49
(g58
g51
NtRp3280
(dp3281
g54
(dp3282
g62
I4
ssg63
Nsg56
(lp3283
g49
(g65
g51
NtRp3284
(dp3285
g54
(dp3286
sg63
g3280
sg56
(lp3287
g49
(g70
g51
NtRp3288
(dp3289
g54
(dp3290
sg63
g3284
sg56
(lp3291
g49
(g50
g51
NtRp3292
(dp3293
g54
(dp3294
g62
I4
ssg63
g3288
sg56
(lp3295
S'*'
asbasbasbasbasbasbasbag49
(g65
g51
NtRp3296
(dp3297
g54
(dp3298
sg63
g2948
sg56
(lp3299
g49
(g70
g51
NtRp3300
(dp3301
g54
(dp3302
g74
g75
ssg63
g3296
sg56
(lp3303
S'headers'
p3304
asbag49
(g70
g51
NtRp3305
(dp3306
g54
(dp3307
g81
g82
ssg63
g3296
sg56
(lp3308
S':'
asbag49
(g70
g51
NtRp3309
(dp3310
g54
(dp3311
sg63
g3296
sg56
(lp3312
g49
(g50
g51
NtRp3313
(dp3314
g54
(dp3315
g62
I5
ssg63
g3309
sg56
(lp3316
g49
(g58
g51
NtRp3317
(dp3318
g54
(dp3319
g62
I4
ssg63
Nsg56
(lp3320
g49
(g65
g51
NtRp3321
(dp3322
g54
(dp3323
sg63
g3317
sg56
(lp3324
g49
(g70
g51
NtRp3325
(dp3326
g54
(dp3327
g74
g75
ssg63
g3321
sg56
(lp3328
S'Cache-Control'
p3329
asbag49
(g70
g51
NtRp3330
(dp3331
g54
(dp3332
g81
g82
ssg63
g3321
sg56
(lp3333
S':'
asbag49
(g70
g51
NtRp3334
(dp3335
g54
(dp3336
sg63
g3321
sg56
(lp3337
g49
(g50
g51
NtRp3338
(dp3339
g54
(dp3340
g62
I4
ssg63
g3334
sg56
(lp3341
S'no-store, no-cache, must-revalidate, post-check=0, pre-check=0'
p3342
asbasbasbag49
(g65
g51
NtRp3343
(dp3344
g54
(dp3345
sg63
g3317
sg56
(lp3346
g49
(g70
g51
NtRp3347
(dp3348
g54
(dp3349
g74
g75
ssg63
g3343
sg56
(lp3350
S'Content-Type'
p3351
asbag49
(g70
g51
NtRp3352
(dp3353
g54
(dp3354
g81
g82
ssg63
g3343
sg56
(lp3355
S':'
asbag49
(g70
g51
NtRp3356
(dp3357
g54
(dp3358
sg63
g3343
sg56
(lp3359
g49
(g50
g51
NtRp3360
(dp3361
g54
(dp3362
g62
I4
ssg63
g3356
sg56
(lp3363
S'text/html; charset=utf-8'
p3364
asbasbasbag49
(g65
g51
NtRp3365
(dp3366
g54
(dp3367
sg63
g3317
sg56
(lp3368
g49
(g70
g51
NtRp3369
(dp3370
g54
(dp3371
g74
g75
ssg63
g3365
sg56
(lp3372
S'Expires'
p3373
asbag49
(g70
g51
NtRp3374
(dp3375
g54
(dp3376
g81
g82
ssg63
g3365
sg56
(lp3377
S':'
asbag49
(g70
g51
NtRp3378
(dp3379
g54
(dp3380
sg63
g3365
sg56
(lp3381
g49
(g50
g51
NtRp3382
(dp3383
g54
(dp3384
g62
I4
ssg63
g3378
sg56
(lp3385
S'Tue, 27 Mar 2012 20:02:39 GMT'
p3386
asbasbasbag49
(g65
g51
NtRp3387
(dp3388
g54
(dp3389
sg63
g3317
sg56
(lp3390
g49
(g70
g51
NtRp3391
(dp3392
g54
(dp3393
g74
g75
ssg63
g3387
sg56
(lp3394
S'Pragma'
p3395
asbag49
(g70
g51
NtRp3396
(dp3397
g54
(dp3398
g81
g82
ssg63
g3387
sg56
(lp3399
S':'
asbag49
(g70
g51
NtRp3400
(dp3401
g54
(dp3402
sg63
g3387
sg56
(lp3403
g49
(g50
g51
NtRp3404
(dp3405
g54
(dp3406
g62
I4
ssg63
g3400
sg56
(lp3407
S'no-cache'
p3408
asbasbasbag49
(g65
g51
NtRp3409
(dp3410
g54
(dp3411
sg63
g3317
sg56
(lp3412
g49
(g70
g51
NtRp3413
(dp3414
g54
(dp3415
g74
g75
ssg63
g3409
sg56
(lp3416
S'X-Powered-By'
p3417
asbag49
(g70
g51
NtRp3418
(dp3419
g54
(dp3420
g81
g82
ssg63
g3409
sg56
(lp3421
S':'
asbag49
(g70
g51
NtRp3422
(dp3423
g54
(dp3424
sg63
g3409
sg56
(lp3425
g49
(g50
g51
NtRp3426
(dp3427
g54
(dp3428
g62
I4
ssg63
g3422
sg56
(lp3429
S'web2py'
p3430
asbasbasbasbasbasbasbag49
(g65
g51
NtRp3431
(dp3432
g54
(dp3433
sg63
g2948
sg56
(lp3434
g49
(g70
g51
NtRp3435
(dp3436
g54
(dp3437
g74
g75
ssg63
g3431
sg56
(lp3438
S'menu'
p3439
asbag49
(g70
g51
NtRp3440
(dp3441
g54
(dp3442
g81
g82
ssg63
g3431
sg56
(lp3443
S':'
asbag49
(g70
g51
NtRp3444
(dp3445
g54
(dp3446
sg63
g3431
sg56
(lp3447
g49
(g50
g51
NtRp3448
(dp3449
g54
(dp3450
g62
I5
ssg63
g3444
sg56
(lp3451
g49
(g58
g51
NtRp3452
(dp3453
g54
(dp3454
g62
I4
ssg63
Nsg56
(lp3455
g49
(g65
g51
NtRp3456
(dp3457
g54
(dp3458
sg63
g3452
sg56
(lp3459
g49
(g70
g51
NtRp3460
(dp3461
g54
(dp3462
sg63
g3456
sg56
(lp3463
g49
(g50
g51
NtRp3464
(dp3465
g54
(dp3466
g62
I4
ssg63
g3460
sg56
(lp3467
g49
(g58
g51
NtRp3468
(dp3469
g54
(dp3470
g62
I3
ssg63
Nsg56
(lp3471
g49
(g65
g51
NtRp3472
(dp3473
g54
(dp3474
sg63
g3468
sg56
(lp3475
g49
(g70
g51
NtRp3476
(dp3477
g54
(dp3478
sg63
g3472
sg56
(lp3479
g49
(g50
g51
NtRp3480
(dp3481
g54
(dp3482
g62
I3
ssg63
g3476
sg56
(lp3483
cgluon.languages
lazyT_unpickle
p3484
(S's\x04\x00\x00\x00Home'
tRp3485
asbasbasbag49
(g65
g51
NtRp3486
(dp3487
g54
(dp3488
sg63
g3468
sg56
(lp3489
g49
(g70
g51
NtRp3490
(dp3491
g54
(dp3492
sg63
g3486
sg56
(lp3493
g49
(g50
g51
NtRp3494
(dp3495
g54
(dp3496
g62
I3
ssg63
g3490
sg56
(lp3497
g92
asbasbasbag49
(g65
g51
NtRp3498
(dp3499
g54
(dp3500
sg63
g3468
sg56
(lp3501
g49
(g70
g51
NtRp3502
(dp3503
g54
(dp3504
sg63
g3498
sg56
(lp3505
g49
(g50
g51
NtRp3506
(dp3507
g54
(dp3508
g62
I3
ssg63
g3502
sg56
(lp3509
S'/'
asbasbasbag49
(g65
g51
NtRp3510
(dp3511
g54
(dp3512
sg63
g3468
sg56
(lp3513
g49
(g70
g51
NtRp3514
(dp3515
g54
(dp3516
sg63
g3510
sg56
(lp3517
g49
(g50
g51
NtRp3518
(dp3519
g54
(dp3520
g62
I3
ssg63
g3514
sg56
(lp3521
g49
(g58
g51
NtRp3522
(dp3523
g54
(dp3524
g62
I2
ssg63
Nsg56
(lp3525
sbasbasbasbasbasbasbasbag49
(g65
g51
NtRp3526
(dp3527
g54
(dp3528
sg63
g3452
sg56
(lp3529
g49
(g70
g51
NtRp3530
(dp3531
g54
(dp3532
sg63
g3526
sg56
(lp3533
g49
(g50
g51
NtRp3534
(dp3535
g54
(dp3536
g62
I4
ssg63
g3530
sg56
(lp3537
g49
(g58
g51
NtRp3538
(dp3539
g54
(dp3540
g62
I3
ssg63
Nsg56
(lp3541
g49
(g65
g51
NtRp3542
(dp3543
g54
(dp3544
sg63
g3538
sg56
(lp3545
g49
(g70
g51
NtRp3546
(dp3547
g54
(dp3548
sg63
g3542
sg56
(lp3549
g49
(g50
g51
NtRp3550
(dp3551
g54
(dp3552
g62
I3
ssg63
g3546
sg56
(lp3553
g49
(cgluon.html
SPAN
p3554
g51
NtRp3555
(dp3556
g54
(dp3557
g74
S'color:yellow'
p3558
ssg63
Nsg56
(lp3559
g3430
asbasbasbasbag49
(g65
g51
NtRp3560
(dp3561
g54
(dp3562
sg63
g3538
sg56
(lp3563
g49
(g70
g51
NtRp3564
(dp3565
g54
(dp3566
sg63
g3560
sg56
(lp3567
g49
(g50
g51
NtRp3568
(dp3569
g54
(dp3570
g62
I3
ssg63
g3564
sg56
(lp3571
g92
asbasbasbag49
(g65
g51
NtRp3572
(dp3573
g54
(dp3574
sg63
g3538
sg56
(lp3575
g49
(g70
g51
NtRp3576
(dp3577
g54
(dp3578
sg63
g3572
sg56
(lp3579
g49
(g50
g51
NtRp3580
(dp3581
g54
(dp3582
g62
I3
ssg63
g3576
sg56
(lp3583
S'None'
p3584
asbasbasbag49
(g65
g51
NtRp3585
(dp3586
g54
(dp3587
sg63
g3538
sg56
(lp3588
g49
(g70
g51
NtRp3589
(dp3590
g54
(dp3591
sg63
g3585
sg56
(lp3592
g49
(g50
g51
NtRp3593
(dp3594
g54
(dp3595
g62
I3
ssg63
g3589
sg56
(lp3596
g49
(g58
g51
NtRp3597
(dp3598
g54
(dp3599
g62
I2
ssg63
Nsg56
(lp3600
g49
(g65
g51
NtRp3601
(dp3602
g54
(dp3603
sg63
g3597
sg56
(lp3604
g49
(g70
g51
NtRp3605
(dp3606
g54
(dp3607
sg63
g3601
sg56
(lp3608
g49
(g50
g51
NtRp3609
(dp3610
g54
(dp3611
g62
I2
ssg63
g3605
sg56
(lp3612
g49
(g58
g51
NtRp3613
(dp3614
g54
(dp3615
g62
I1
ssg63
Nsg56
(lp3616
g49
(g65
g51
NtRp3617
(dp3618
g54
(dp3619
sg63
g3613
sg56
(lp3620
g49
(g70
g51
NtRp3621
(dp3622
g54
(dp3623
sg63
g3617
sg56
(lp3624
g49
(g50
g51
NtRp3625
(dp3626
g54
(dp3627
g62
I1
ssg63
g3621
sg56
(lp3628
g3484
(S's\x08\x00\x00\x00My Sites'
tRp3629
asbasbasbag49
(g65
g51
NtRp3630
(dp3631
g54
(dp3632
sg63
g3613
sg56
(lp3633
g49
(g70
g51
NtRp3634
(dp3635
g54
(dp3636
sg63
g3630
sg56
(lp3637
g49
(g50
g51
NtRp3638
(dp3639
g54
(dp3640
g62
I1
ssg63
g3634
sg56
(lp3641
I00
asbasbasbag49
(g65
g51
NtRp3642
(dp3643
g54
(dp3644
sg63
g3613
sg56
(lp3645
g49
(g70
g51
NtRp3646
(dp3647
g54
(dp3648
sg63
g3642
sg56
(lp3649
g49
(g50
g51
NtRp3650
(dp3651
g54
(dp3652
g62
I1
ssg63
g3646
sg56
(lp3653
S'/admin/site'
p3654
asbasbasbasbasbasbasbag49
(g65
g51
NtRp3655
(dp3656
g54
(dp3657
sg63
g3597
sg56
(lp3658
g49
(g70
g51
NtRp3659
(dp3660
g54
(dp3661
sg63
g3655
sg56
(lp3662
g49
(g50
g51
NtRp3663
(dp3664
g54
(dp3665
g62
I2
ssg63
g3659
sg56
(lp3666
g49
(g58
g51
NtRp3667
(dp3668
g54
(dp3669
g62
I1
ssg63
Nsg56
(lp3670
g49
(g65
g51
NtRp3671
(dp3672
g54
(dp3673
sg63
g3667
sg56
(lp3674
g49
(g70
g51
NtRp3675
(dp3676
g54
(dp3677
sg63
g3671
sg56
(lp3678
g49
(g50
g51
NtRp3679
(dp3680
g54
(dp3681
g62
I1
ssg63
g3675
sg56
(lp3682
g3484
(S's\x08\x00\x00\x00This App'
tRp3683
asbasbasbag49
(g65
g51
NtRp3684
(dp3685
g54
(dp3686
sg63
g3667
sg56
(lp3687
g49
(g70
g51
NtRp3688
(dp3689
g54
(dp3690
sg63
g3684
sg56
(lp3691
g49
(g50
g51
NtRp3692
(dp3693
g54
(dp3694
g62
I1
ssg63
g3688
sg56
(lp3695
I00
asbasbasbag49
(g65
g51
NtRp3696
(dp3697
g54
(dp3698
sg63
g3667
sg56
(lp3699
g49
(g70
g51
NtRp3700
(dp3701
g54
(dp3702
sg63
g3696
sg56
(lp3703
g49
(g50
g51
NtRp3704
(dp3705
g54
(dp3706
g62
I1
ssg63
g3700
sg56
(lp3707
S'/admin/design/udi0312'
p3708
asbasbasbag49
(g65
g51
NtRp3709
(dp3710
g54
(dp3711
sg63
g3667
sg56
(lp3712
g49
(g70
g51
NtRp3713
(dp3714
g54
(dp3715
sg63
g3709
sg56
(lp3716
g49
(g50
g51
NtRp3717
(dp3718
g54
(dp3719
g62
I1
ssg63
g3713
sg56
(lp3720
(lp3721
(g3484
(S's\n\x00\x00\x00Controller'
tRp3722
I00
S'/admin/edit/udi0312/controllers/tasks.py'
tp3723
a(g3484
(S's\x04\x00\x00\x00View'
tRp3724
I00
S'/admin/edit/udi0312/views/tasks/rrss.html'
tp3725
a(g3484
(S's\x06\x00\x00\x00Layout'
tRp3726
I00
S'/admin/edit/udi0312/views/layout.html'
tp3727
a(g3484
(S's\n\x00\x00\x00Stylesheet'
tRp3728
I00
S'/admin/edit/udi0312/static/css/web2py.css'
tp3729
a(g3484
(S's\x08\x00\x00\x00DB Model'
tRp3730
I00
S'/admin/edit/udi0312/models/db.py'
tp3731
a(g3484
(S's\n\x00\x00\x00Menu Model'
tRp3732
I00
S'/admin/edit/udi0312/models/menu.py'
tp3733
a(g3484
(S's\x08\x00\x00\x00Database'
tRp3734
I00
S'/appadmin'
tp3735
a(g3484
(S's\x06\x00\x00\x00Errors'
tRp3736
I00
S'/admin/errors/udi0312'
tp3737
a(g3484
(S's\x05\x00\x00\x00About'
tRp3738
I00
S'/admin/about/udi0312'
tp3739
aasbasbasbasbasbasbasbag49
(g65
g51
NtRp3740
(dp3741
g54
(dp3742
sg63
g3597
sg56
(lp3743
g49
(g70
g51
NtRp3744
(dp3745
g54
(dp3746
sg63
g3740
sg56
(lp3747
g49
(g50
g51
NtRp3748
(dp3749
g54
(dp3750
g62
I2
ssg63
g3744
sg56
(lp3751
g49
(g58
g51
NtRp3752
(dp3753
g54
(dp3754
g62
I1
ssg63
Nsg56
(lp3755
g49
(g65
g51
NtRp3756
(dp3757
g54
(dp3758
sg63
g3752
sg56
(lp3759
g49
(g70
g51
NtRp3760
(dp3761
g54
(dp3762
sg63
g3756
sg56
(lp3763
g49
(g50
g51
NtRp3764
(dp3765
g54
(dp3766
g62
I1
ssg63
g3760
sg56
(lp3767
S'web2py.com'
p3768
asbasbasbag49
(g65
g51
NtRp3769
(dp3770
g54
(dp3771
sg63
g3752
sg56
(lp3772
g49
(g70
g51
NtRp3773
(dp3774
g54
(dp3775
sg63
g3769
sg56
(lp3776
g49
(g50
g51
NtRp3777
(dp3778
g54
(dp3779
g62
I1
ssg63
g3773
sg56
(lp3780
I00
asbasbasbag49
(g65
g51
NtRp3781
(dp3782
g54
(dp3783
sg63
g3752
sg56
(lp3784
g49
(g70
g51
NtRp3785
(dp3786
g54
(dp3787
sg63
g3781
sg56
(lp3788
g49
(g50
g51
NtRp3789
(dp3790
g54
(dp3791
g62
I1
ssg63
g3785
sg56
(lp3792
S'http://www.web2py.com'
p3793
asbasbasbag49
(g65
g51
NtRp3794
(dp3795
g54
(dp3796
sg63
g3752
sg56
(lp3797
g49
(g70
g51
NtRp3798
(dp3799
g54
(dp3800
sg63
g3794
sg56
(lp3801
g49
(g50
g51
NtRp3802
(dp3803
g54
(dp3804
g62
I1
ssg63
g3798
sg56
(lp3805
(lp3806
(g3484
(S's\x08\x00\x00\x00Download'
tRp3807
I00
S'http://www.web2py.com/examples/default/download'
p3808
tp3809
a(g3484
(S's\x07\x00\x00\x00Support'
tRp3810
I00
S'http://www.web2py.com/examples/default/support'
p3811
tp3812
a(g3484
(S's\x04\x00\x00\x00Demo'
tRp3813
I00
S'http://web2py.com/demo_admin'
p3814
tp3815
a(g3484
(S's\x0e\x00\x00\x00Quick Examples'
tRp3816
I00
S'http://web2py.com/examples/default/examples'
p3817
tp3818
a(g3484
(S's\x03\x00\x00\x00FAQ'
tRp3819
I00
S'http://web2py.com/AlterEgo'
p3820
tp3821
a(g3484
(S's\x06\x00\x00\x00Videos'
tRp3822
I00
S'http://www.web2py.com/examples/default/videos/'
p3823
tp3824
a(g3484
(S's\x11\x00\x00\x00Free Applications'
tRp3825
I00
S'http://web2py.com/appliances'
p3826
tp3827
a(g3484
(S's\x07\x00\x00\x00Plugins'
tRp3828
I00
S'http://web2py.com/plugins'
p3829
tp3830
a(g3484
(S's\x07\x00\x00\x00Layouts'
tRp3831
I00
S'http://web2py.com/layouts'
p3832
tp3833
a(g3484
(S's\x07\x00\x00\x00Recipes'
tRp3834
I00
S'http://web2pyslices.com/'
p3835
tp3836
a(g3484
(S's\x08\x00\x00\x00Semantic'
tRp3837
I00
S'http://web2py.com/semantic'
p3838
tp3839
aasbasbasbasbasbasbasbag49
(g65
g51
NtRp3840
(dp3841
g54
(dp3842
sg63
g3597
sg56
(lp3843
g49
(g70
g51
NtRp3844
(dp3845
g54
(dp3846
sg63
g3840
sg56
(lp3847
g49
(g50
g51
NtRp3848
(dp3849
g54
(dp3850
g62
I2
ssg63
g3844
sg56
(lp3851
g49
(g58
g51
NtRp3852
(dp3853
g54
(dp3854
g62
I1
ssg63
Nsg56
(lp3855
g49
(g65
g51
NtRp3856
(dp3857
g54
(dp3858
sg63
g3852
sg56
(lp3859
g49
(g70
g51
NtRp3860
(dp3861
g54
(dp3862
sg63
g3856
sg56
(lp3863
g49
(g50
g51
NtRp3864
(dp3865
g54
(dp3866
g62
I1
ssg63
g3860
sg56
(lp3867
g3484
(S's\r\x00\x00\x00Documentation'
tRp3868
asbasbasbag49
(g65
g51
NtRp3869
(dp3870
g54
(dp3871
sg63
g3852
sg56
(lp3872
g49
(g70
g51
NtRp3873
(dp3874
g54
(dp3875
sg63
g3869
sg56
(lp3876
g49
(g50
g51
NtRp3877
(dp3878
g54
(dp3879
g62
I1
ssg63
g3873
sg56
(lp3880
I00
asbasbasbag49
(g65
g51
NtRp3881
(dp3882
g54
(dp3883
sg63
g3852
sg56
(lp3884
g49
(g70
g51
NtRp3885
(dp3886
g54
(dp3887
sg63
g3881
sg56
(lp3888
g49
(g50
g51
NtRp3889
(dp3890
g54
(dp3891
g62
I1
ssg63
g3885
sg56
(lp3892
S'http://www.web2py.com/book'
p3893
asbasbasbag49
(g65
g51
NtRp3894
(dp3895
g54
(dp3896
sg63
g3852
sg56
(lp3897
g49
(g70
g51
NtRp3898
(dp3899
g54
(dp3900
sg63
g3894
sg56
(lp3901
g49
(g50
g51
NtRp3902
(dp3903
g54
(dp3904
g62
I1
ssg63
g3898
sg56
(lp3905
(lp3906
(g3484
(S's\x07\x00\x00\x00Preface'
tRp3907
I00
S'http://www.web2py.com/book/default/chapter/00'
p3908
tp3909
a(g3484
(S's\x0c\x00\x00\x00Introduction'
tRp3910
I00
S'http://www.web2py.com/book/default/chapter/01'
p3911
tp3912
a(g3484
(S's\x06\x00\x00\x00Python'
tRp3913
I00
S'http://www.web2py.com/book/default/chapter/02'
p3914
tp3915
a(g3484
(S's\x08\x00\x00\x00Overview'
tRp3916
I00
S'http://www.web2py.com/book/default/chapter/03'
p3917
tp3918
a(g3484
(S's\x08\x00\x00\x00The Core'
tRp3919
I00
S'http://www.web2py.com/book/default/chapter/04'
p3920
tp3921
a(g3484
(S's\t\x00\x00\x00The Views'
tRp3922
I00
S'http://www.web2py.com/book/default/chapter/05'
p3923
tp3924
a(g3484
(S's\x08\x00\x00\x00Database'
tRp3925
I00
S'http://www.web2py.com/book/default/chapter/06'
p3926
tp3927
a(g3484
(S's\x14\x00\x00\x00Forms and Validators'
tRp3928
I00
S'http://www.web2py.com/book/default/chapter/07'
p3929
tp3930
a(g3484
(S's\r\x00\x00\x00Email and SMS'
tRp3931
I00
S'http://www.web2py.com/book/default/chapter/08'
p3932
tp3933
a(g3484
(S's\x0e\x00\x00\x00Access Control'
tRp3934
I00
S'http://www.web2py.com/book/default/chapter/09'
p3935
tp3936
a(g3484
(S's\x08\x00\x00\x00Services'
tRp3937
I00
S'http://www.web2py.com/book/default/chapter/10'
p3938
tp3939
a(g3484
(S's\x0c\x00\x00\x00Ajax Recipes'
tRp3940
I00
S'http://www.web2py.com/book/default/chapter/11'
p3941
tp3942
a(g3484
(S's\x16\x00\x00\x00Components and Plugins'
tRp3943
I00
S'http://www.web2py.com/book/default/chapter/12'
p3944
tp3945
a(g3484
(S's\x12\x00\x00\x00Deployment Recipes'
tRp3946
I00
S'http://www.web2py.com/book/default/chapter/13'
p3947
tp3948
a(g3484
(S's\r\x00\x00\x00Other Recipes'
tRp3949
I00
S'http://www.web2py.com/book/default/chapter/14'
p3950
tp3951
a(g3484
(S's\r\x00\x00\x00Buy this book'
tRp3952
I00
S'http://stores.lulu.com/web2py'
p3953
tp3954
aasbasbasbasbasbasbasbag49
(g65
g51
NtRp3955
(dp3956
g54
(dp3957
sg63
g3597
sg56
(lp3958
g49
(g70
g51
NtRp3959
(dp3960
g54
(dp3961
sg63
g3955
sg56
(lp3962
g49
(g50
g51
NtRp3963
(dp3964
g54
(dp3965
g62
I2
ssg63
g3959
sg56
(lp3966
g49
(g58
g51
NtRp3967
(dp3968
g54
(dp3969
g62
I1
ssg63
Nsg56
(lp3970
g49
(g65
g51
NtRp3971
(dp3972
g54
(dp3973
sg63
g3967
sg56
(lp3974
g49
(g70
g51
NtRp3975
(dp3976
g54
(dp3977
sg63
g3971
sg56
(lp3978
g49
(g50
g51
NtRp3979
(dp3980
g54
(dp3981
g62
I1
ssg63
g3975
sg56
(lp3982
g3484
(S's\t\x00\x00\x00Community'
tRp3983
asbasbasbag49
(g65
g51
NtRp3984
(dp3985
g54
(dp3986
sg63
g3967
sg56
(lp3987
g49
(g70
g51
NtRp3988
(dp3989
g54
(dp3990
sg63
g3984
sg56
(lp3991
g49
(g50
g51
NtRp3992
(dp3993
g54
(dp3994
g62
I1
ssg63
g3988
sg56
(lp3995
I00
asbasbasbag49
(g65
g51
NtRp3996
(dp3997
g54
(dp3998
sg63
g3967
sg56
(lp3999
g49
(g70
g51
NtRp4000
(dp4001
g54
(dp4002
sg63
g3996
sg56
(lp4003
g49
(g50
g51
NtRp4004
(dp4005
g54
(dp4006
g62
I1
ssg63
g4000
sg56
(lp4007
Nasbasbasbag49
(g65
g51
NtRp4008
(dp4009
g54
(dp4010
sg63
g3967
sg56
(lp4011
g49
(g70
g51
NtRp4012
(dp4013
g54
(dp4014
sg63
g4008
sg56
(lp4015
g49
(g50
g51
NtRp4016
(dp4017
g54
(dp4018
g62
I1
ssg63
g4012
sg56
(lp4019
(lp4020
(g3484
(S's\x06\x00\x00\x00Groups'
tRp4021
I00
S'http://www.web2py.com/examples/default/usergroups'
p4022
tp4023
a(g3484
(S's\x07\x00\x00\x00Twitter'
tRp4024
I00
S'http://twitter.com/web2py'
p4025
tp4026
a(g3484
(S's\t\x00\x00\x00Live Chat'
tRp4027
I00
S'http://webchat.freenode.net/?channels=web2py'
p4028
tp4029
aasbasbasbasbasbasbasbag49
(g65
g51
NtRp4030
(dp4031
g54
(dp4032
sg63
g3597
sg56
(lp4033
g49
(g70
g51
NtRp4034
(dp4035
g54
(dp4036
sg63
g4030
sg56
(lp4037
g49
(g50
g51
NtRp4038
(dp4039
g54
(dp4040
g62
I2
ssg63
g4034
sg56
(lp4041
g49
(g58
g51
NtRp4042
(dp4043
g54
(dp4044
g62
I1
ssg63
Nsg56
(lp4045
g49
(g65
g51
NtRp4046
(dp4047
g54
(dp4048
sg63
g4042
sg56
(lp4049
g49
(g70
g51
NtRp4050
(dp4051
g54
(dp4052
sg63
g4046
sg56
(lp4053
g49
(g50
g51
NtRp4054
(dp4055
g54
(dp4056
g62
I1
ssg63
g4050
sg56
(lp4057
g3484
(S's\x07\x00\x00\x00Plugins'
tRp4058
asbasbasbag49
(g65
g51
NtRp4059
(dp4060
g54
(dp4061
sg63
g4042
sg56
(lp4062
g49
(g70
g51
NtRp4063
(dp4064
g54
(dp4065
sg63
g4059
sg56
(lp4066
g49
(g50
g51
NtRp4067
(dp4068
g54
(dp4069
g62
I1
ssg63
g4063
sg56
(lp4070
I00
asbasbasbag49
(g65
g51
NtRp4071
(dp4072
g54
(dp4073
sg63
g4042
sg56
(lp4074
g49
(g70
g51
NtRp4075
(dp4076
g54
(dp4077
sg63
g4071
sg56
(lp4078
g49
(g50
g51
NtRp4079
(dp4080
g54
(dp4081
g62
I1
ssg63
g4075
sg56
(lp4082
Nasbasbasbag49
(g65
g51
NtRp4083
(dp4084
g54
(dp4085
sg63
g4042
sg56
(lp4086
g49
(g70
g51
NtRp4087
(dp4088
g54
(dp4089
sg63
g4083
sg56
(lp4090
g49
(g50
g51
NtRp4091
(dp4092
g54
(dp4093
g62
I1
ssg63
g4087
sg56
(lp4094
(lp4095
(S'plugin_wiki'
p4096
I00
S'http://web2py.com/examples/default/download'
p4097
tp4098
a(g3484
(S's\r\x00\x00\x00Other Plugins'
tRp4099
I00
g3829
tp4100
a(g3484
(S's\x0e\x00\x00\x00Layout Plugins'
tRp4101
I00
g3832
tp4102
aasbasbasbasbasbasbasbasbasbasbasbasbasbasbasbasbasbasbasbag49
(g65
g51
NtRp4103
(dp4104
g54
(dp4105
sg63
g2948
sg56
(lp4106
g49
(g70
g51
NtRp4107
(dp4108
g54
(dp4109
g74
g75
ssg63
g4103
sg56
(lp4110
S'meta'
p4111
asbag49
(g70
g51
NtRp4112
(dp4113
g54
(dp4114
g81
g82
ssg63
g4103
sg56
(lp4115
S':'
asbag49
(g70
g51
NtRp4116
(dp4117
g54
(dp4118
sg63
g4103
sg56
(lp4119
g49
(g50
g51
NtRp4120
(dp4121
g54
(dp4122
g62
I5
ssg63
g4116
sg56
(lp4123
g49
(g58
g51
NtRp4124
(dp4125
g54
(dp4126
g62
I4
ssg63
Nsg56
(lp4127
g49
(g65
g51
NtRp4128
(dp4129
g54
(dp4130
sg63
g4124
sg56
(lp4131
g49
(g70
g51
NtRp4132
(dp4133
g54
(dp4134
g74
g75
ssg63
g4128
sg56
(lp4135
S'author'
p4136
asbag49
(g70
g51
NtRp4137
(dp4138
g54
(dp4139
g81
g82
ssg63
g4128
sg56
(lp4140
S':'
asbag49
(g70
g51
NtRp4141
(dp4142
g54
(dp4143
sg63
g4128
sg56
(lp4144
g49
(g50
g51
NtRp4145
(dp4146
g54
(dp4147
g62
I4
ssg63
g4141
sg56
(lp4148
S'Udi Milo'
p4149
asbasbasbag49
(g65
g51
NtRp4150
(dp4151
g54
(dp4152
sg63
g4124
sg56
(lp4153
g49
(g70
g51
NtRp4154
(dp4155
g54
(dp4156
g74
g75
ssg63
g4150
sg56
(lp4157
S'description'
p4158
asbag49
(g70
g51
NtRp4159
(dp4160
g54
(dp4161
g81
g82
ssg63
g4150
sg56
(lp4162
S':'
asbag49
(g70
g51
NtRp4163
(dp4164
g54
(dp4165
sg63
g4150
sg56
(lp4166
g49
(g50
g51
NtRp4167
(dp4168
g54
(dp4169
g62
I4
ssg63
g4163
sg56
(lp4170
S'Curate, organize and share your web resources'
p4171
asbasbasbasbasbasbasbag49
(g65
g51
NtRp4172
(dp4173
g54
(dp4174
sg63
g2948
sg56
(lp4175
g49
(g70
g51
NtRp4176
(dp4177
g54
(dp4178
g74
g75
ssg63
g4172
sg56
(lp4179
S'postprocessing'
p4180
asbag49
(g70
g51
NtRp4181
(dp4182
g54
(dp4183
g81
g82
ssg63
g4172
sg56
(lp4184
S':'
asbag49
(g70
g51
NtRp4185
(dp4186
g54
(dp4187
sg63
g4172
sg56
(lp4188
g49
(g50
g51
NtRp4189
(dp4190
g54
(dp4191
g62
I5
ssg63
g4185
sg56
(lp4192
g49
(g58
g51
NtRp4193
(dp4194
g54
(dp4195
g62
I4
ssg63
Nsg56
(lp4196
sbasbasbasbag49
(g65
g51
NtRp4197
(dp4198
g54
(dp4199
sg63
g2948
sg56
(lp4200
g49
(g70
g51
NtRp4201
(dp4202
g54
(dp4203
g74
g75
ssg63
g4197
sg56
(lp4204
S'session_file'
p4205
asbag49
(g70
g51
NtRp4206
(dp4207
g54
(dp4208
g81
g82
ssg63
g4197
sg56
(lp4209
S':'
asbag49
(g70
g51
NtRp4210
(dp4211
g54
(dp4212
sg63
g4197
sg56
(lp4213
g49
(g50
g51
NtRp4214
(dp4215
g54
(dp4216
g62
I5
ssg63
g4210
sg56
(lp4217
S"<open file '/Users/udimilo/Documents/web2py/applications/udi0312/sessions/127.0.0.1-0c931b0e-a0cb-46a7-8daa-2609a27949d9', mode 'rb+' at 0xa12ccc8>"
p4218
asbasbasbag49
(g65
g51
NtRp4219
(dp4220
g54
(dp4221
sg63
g2948
sg56
(lp4222
g49
(g70
g51
NtRp4223
(dp4224
g54
(dp4225
g74
g75
ssg63
g4219
sg56
(lp4226
S'session_filename'
p4227
asbag49
(g70
g51
NtRp4228
(dp4229
g54
(dp4230
g81
g82
ssg63
g4219
sg56
(lp4231
S':'
asbag49
(g70
g51
NtRp4232
(dp4233
g54
(dp4234
sg63
g4219
sg56
(lp4235
g49
(g50
g51
NtRp4236
(dp4237
g54
(dp4238
g62
I5
ssg63
g4232
sg56
(lp4239
S'/Users/udimilo/Documents/web2py/applications/udi0312/sessions/127.0.0.1-0c931b0e-a0cb-46a7-8daa-2609a27949d9'
p4240
asbasbasbag49
(g65
g51
NtRp4241
(dp4242
g54
(dp4243
sg63
g2948
sg56
(lp4244
g49
(g70
g51
NtRp4245
(dp4246
g54
(dp4247
g74
g75
ssg63
g4241
sg56
(lp4248
S'session_id'
p4249
asbag49
(g70
g51
NtRp4250
(dp4251
g54
(dp4252
g81
g82
ssg63
g4241
sg56
(lp4253
S':'
asbag49
(g70
g51
NtRp4254
(dp4255
g54
(dp4256
sg63
g4241
sg56
(lp4257
g49
(g50
g51
NtRp4258
(dp4259
g54
(dp4260
g62
I5
ssg63
g4254
sg56
(lp4261
S'127.0.0.1-0c931b0e-a0cb-46a7-8daa-2609a27949d9'
p4262
asbasbasbag49
(g65
g51
NtRp4263
(dp4264
g54
(dp4265
sg63
g2948
sg56
(lp4266
g49
(g70
g51
NtRp4267
(dp4268
g54
(dp4269
g74
g75
ssg63
g4263
sg56
(lp4270
S'session_id_name'
p4271
asbag49
(g70
g51
NtRp4272
(dp4273
g54
(dp4274
g81
g82
ssg63
g4263
sg56
(lp4275
S':'
asbag49
(g70
g51
NtRp4276
(dp4277
g54
(dp4278
sg63
g4263
sg56
(lp4279
g49
(g50
g51
NtRp4280
(dp4281
g54
(dp4282
g62
I5
ssg63
g4276
sg56
(lp4283
g3005
asbasbasbag49
(g65
g51
NtRp4284
(dp4285
g54
(dp4286
sg63
g2948
sg56
(lp4287
g49
(g70
g51
NtRp4288
(dp4289
g54
(dp4290
g74
g75
ssg63
g4284
sg56
(lp4291
S'session_locked'
p4292
asbag49
(g70
g51
NtRp4293
(dp4294
g54
(dp4295
g81
g82
ssg63
g4284
sg56
(lp4296
S':'
asbag49
(g70
g51
NtRp4297
(dp4298
g54
(dp4299
sg63
g4284
sg56
(lp4300
g49
(g50
g51
NtRp4301
(dp4302
g54
(dp4303
g62
I5
ssg63
g4297
sg56
(lp4304
g1465
asbasbasbag49
(g65
g51
NtRp4305
(dp4306
g54
(dp4307
sg63
g2948
sg56
(lp4308
g49
(g70
g51
NtRp4309
(dp4310
g54
(dp4311
g74
g75
ssg63
g4305
sg56
(lp4312
S'session_new'
p4313
asbag49
(g70
g51
NtRp4314
(dp4315
g54
(dp4316
g81
g82
ssg63
g4305
sg56
(lp4317
S':'
asbag49
(g70
g51
NtRp4318
(dp4319
g54
(dp4320
sg63
g4305
sg56
(lp4321
g49
(g50
g51
NtRp4322
(dp4323
g54
(dp4324
g62
I5
ssg63
g4318
sg56
(lp4325
g92
asbasbasbag49
(g65
g51
NtRp4326
(dp4327
g54
(dp4328
sg63
g2948
sg56
(lp4329
g49
(g70
g51
NtRp4330
(dp4331
g54
(dp4332
g74
g75
ssg63
g4326
sg56
(lp4333
S'status'
p4334
asbag49
(g70
g51
NtRp4335
(dp4336
g54
(dp4337
g81
g82
ssg63
g4326
sg56
(lp4338
S':'
asbag49
(g70
g51
NtRp4339
(dp4340
g54
(dp4341
sg63
g4326
sg56
(lp4342
g49
(g50
g51
NtRp4343
(dp4344
g54
(dp4345
g62
I5
ssg63
g4339
sg56
(lp4346
S'200'
p4347
asbasbasbag49
(g65
g51
NtRp4348
(dp4349
g54
(dp4350
sg63
g2948
sg56
(lp4351
g49
(g70
g51
NtRp4352
(dp4353
g54
(dp4354
g74
g75
ssg63
g4348
sg56
(lp4355
S'title'
p4356
asbag49
(g70
g51
NtRp4357
(dp4358
g54
(dp4359
g81
g82
ssg63
g4348
sg56
(lp4360
S':'
asbag49
(g70
g51
NtRp4361
(dp4362
g54
(dp4363
sg63
g4348
sg56
(lp4364
g49
(g50
g51
NtRp4365
(dp4366
g54
(dp4367
g62
I5
ssg63
g4361
sg56
(lp4368
S'inFormation - Curate The Web'
p4369
asbasbasbag49
(g65
g51
NtRp4370
(dp4371
g54
(dp4372
sg63
g2948
sg56
(lp4373
g49
(g70
g51
NtRp4374
(dp4375
g54
(dp4376
g74
g75
ssg63
g4370
sg56
(lp4377
g2129
asbag49
(g70
g51
NtRp4378
(dp4379
g54
(dp4380
g81
g82
ssg63
g4370
sg56
(lp4381
S':'
asbag49
(g70
g51
NtRp4382
(dp4383
g54
(dp4384
sg63
g4370
sg56
(lp4385
g49
(g50
g51
NtRp4386
(dp4387
g54
(dp4388
g62
I5
ssg63
g4382
sg56
(lp4389
g2142
asbasbasbag49
(g65
g51
NtRp4390
(dp4391
g54
(dp4392
sg63
g2948
sg56
(lp4393
g49
(g70
g51
NtRp4394
(dp4395
g54
(dp4396
g74
g75
ssg63
g4390
sg56
(lp4397
S'view'
p4398
asbag49
(g70
g51
NtRp4399
(dp4400
g54
(dp4401
g81
g82
ssg63
g4390
sg56
(lp4402
S':'
asbag49
(g70
g51
NtRp4403
(dp4404
g54
(dp4405
sg63
g4390
sg56
(lp4406
g49
(g50
g51
NtRp4407
(dp4408
g54
(dp4409
g62
I5
ssg63
g4403
sg56
(lp4410
S'tasks/rrss.html'
p4411
asbasbasbasbasbsS'locals'
p4412
(dp4413
S'article'
p4414
S"<Row {'domain': 'techcrunch.com', 'star': <gluon...<lambda> at 0xa2b22b0>, 'readability_url': None}>"
p4415
sS'pin'
p4416
S'None'
p4417
sS'rss'
p4418
S"<Row {'update_record': <function <lambda> at 0xa...elete_record': <function <lambda> at 0xa2b2fb0>}>"
p4419
sssS'traceback'
p4420
S'Traceback (most recent call last):\n  File "/users/udimilo/Documents/web2py/gluon/restricted.py", line 205, in restricted\n    exec ccode in environment\n  File "/Users/udimilo/Documents/web2py/applications/udi0312/controllers/tasks.py", line 64, in <module>\n  File "/users/udimilo/Documents/web2py/gluon/globals.py", line 173, in <lambda>\n    self._caller = lambda f: f()\n  File "/Users/udimilo/Documents/web2py/applications/udi0312/controllers/tasks.py", line 45, in rrss\n    p = create_pin(a, r)\n  File "/Users/udimilo/Documents/web2py/applications/udi0312/controllers/tasks.py", line 30, in create_pin\n    article_media_thumbnail = article_media_thumbnail,\nNameError: global name \'article_media_thumbnail\' is not defined\n'
p4421
s.