(dp1
S'output'
p2
S"<type 'exceptions.SyntaxError'> invalid syntax (api.py, line 19)"
p3
sS'layer'
p4
S'/Users/udimilo/Documents/web2py/applications/udi0312/controllers/api.py'
p5
sS'code'
p6
S"# coding: utf8\nimport re\nimport time\nfrom readability import Readability\nimport feedparser\n\n@cache('a', 5)\ndef f():\n    return time.ctime()\n     \ndef add_article(data):\n    return 1\n    \ndef test():\n    rss = db().select(db.rss_feed.ALL)\n    items = []\n    for r in rss:\n        d = feedparser.parse(r.url)\n        for item in d['entries']\n            items.append(add_article(item))\n   \n    return items\n\ndef fix():\n    pins = db().select(db.pin.ALL)\n    for p in pins:\n        p.board_name = p.board.name\n        p.user = p.board.user\n        p.user_name = p.board.user.first_name + ' ' + p.board.user.last_name\n        p.article_title = p.article.title\n        p.article_content = p.article.content\n        p.article_domain = p.article.domain\n        p.update_record()\n    return pins\n\ndef add_repin():\n    pin_id = request.vars.id\n    pin = db.pin(pin_id)\n\n    board_id = request.vars.repin_board\n    board = db.board(board_id)\n    \n    new_pin = db((db.pin.article==pin.article.id)&(db.pin.board==board.id)).select().first()\n    if new_pin is None:\n        new_pin = db.pin.insert(\n            original_pin=pin.id,\n            article=pin.article, \n            article_title = pin.article_title,\n            article_content = pin.article_content,\n            article_domain = pin.article_domain,\n            board=board.id,\n            board_name=board.name,\n            user = board.user,\n            user_name = board.user.first_name + ' ' + board.user.last_name,\n            )\n    \n    return 'reload'\n    \ndef add_board():\n    name = request.vars.name\n    if re.match('(^[\\w\\s.-]+$)', name): #sanitize the name\n        category = db.category(request.vars.category)\n        board = db.board.insert(user=auth.user.id, category=category.id, name=name)\n        return board.id\n\n    return 'please use only alpha numeric characters'\n    \ndef add_article():\n    url = request.vars.url\n    board = db.board(request.vars.board)\n    article = db(db.article.url == url).select().first()\n    if article is None:\n        r = Readability()\n        json = r.content(url)\n        article = db.article.insert(\n            height=300,\n            url=json['url'],\n            readability_url=json['short_url'],\n            title=json['title'],\n            content=json['content'],\n            domain=json['domain'],\n            author=json['author'],\n            excerpt=json['excerpt'],\n            word_count=json['word_count'],\n            total_pages=json['total_pages'],\n            date_published=json['date_published'],\n            next_page_id=json['next_page_id'],\n            rendered_pages=json['rendered_pages'],            \n        )\n    \n    pin = db((db.pin.board == board.id) & (db.pin.article == article.id)).select().first()\n    if pin is None:\n        new_pin = db.pin.insert(\n            article=article.id, \n            article_title = article.title,\n            article_content = article.content,\n            article_domain = article.domain,\n            board=board.id,\n            board_name=board.name,\n            user = board.user,\n            user_name = board.user.first_name + ' ' + board.user.last_name,\n            )\n    \n    return new_pin.id\n\nresponse._vars=response._caller(test)\n"
p7
sS'snapshot'
p8
(dp9
S'exception'
p10
(dp11
S'__getslice__'
p12
S"<method-wrapper '__getslice__' of exceptions.SyntaxError object at 0xa83d6f0>"
p13
sS'text'
p14
S'"        for item in d[\'entries\']\\n"'
p15
sS'__str__'
p16
S"<method-wrapper '__str__' of exceptions.SyntaxError object at 0xa83d6f0>"
p17
sS'__reduce__'
p18
S'<built-in method __reduce__ of exceptions.SyntaxError object at 0xa83d6f0>'
p19
sS'__dict__'
p20
S'{}'
p21
sS'__init__'
p22
S"<method-wrapper '__init__' of exceptions.SyntaxError object at 0xa83d6f0>"
p23
sS'__setattr__'
p24
S"<method-wrapper '__setattr__' of exceptions.SyntaxError object at 0xa83d6f0>"
p25
sS'__reduce_ex__'
p26
S'<built-in method __reduce_ex__ of exceptions.SyntaxError object at 0xa83d6f0>'
p27
sS'__new__'
p28
S'<built-in method __new__ of type object at 0x100320>'
p29
sS'__class__'
p30
S"<type 'exceptions.SyntaxError'>"
p31
sS'filename'
p32
S"'/Users/udimilo/Documents/web2py/applications/udi0312/controllers/api.py'"
p33
sS'lineno'
p34
S'19'
p35
sS'msg'
p36
S"'invalid syntax'"
p37
sS'__doc__'
p38
S"'Invalid syntax.'"
p39
sS'__getitem__'
p40
S"<method-wrapper '__getitem__' of exceptions.SyntaxError object at 0xa83d6f0>"
p41
sS'__setstate__'
p42
S'<built-in method __setstate__ of exceptions.SyntaxError object at 0xa83d6f0>'
p43
sS'__getattribute__'
p44
S"<method-wrapper '__getattribute__' of exceptions.SyntaxError object at 0xa83d6f0>"
p45
sS'print_file_and_line'
p46
S'None'
p47
sS'args'
p48
S'(\'invalid syntax\', (\'/Users/udimilo/Documents/web2py/applications/udi0312/controllers/api.py\', 19, 33, "        for item in d[\'entries\']\\n"))'
p49
sS'offset'
p50
S'33'
p51
sS'__delattr__'
p52
S"<method-wrapper '__delattr__' of exceptions.SyntaxError object at 0xa83d6f0>"
p53
sS'__repr__'
p54
S"<method-wrapper '__repr__' of exceptions.SyntaxError object at 0xa83d6f0>"
p55
sS'__hash__'
p56
S"<method-wrapper '__hash__' of exceptions.SyntaxError object at 0xa83d6f0>"
p57
ssS'evalue'
p58
S'invalid syntax (api.py, line 19)'
p59
sS'request'
p60
ccopy_reg
_reconstructor
p61
(cgluon.html
BEAUTIFY
p62
c__builtin__
object
p63
NtRp64
(dp65
S'attributes'
p66
(dp67
sS'components'
p68
(lp69
g61
(cgluon.html
TABLE
p70
g63
NtRp71
(dp72
g66
(dp73
S'level'
p74
I5
ssS'parent'
p75
Nsg68
(lp76
g61
(cgluon.html
TR
p77
g63
NtRp78
(dp79
g66
(dp80
sg75
g71
sg68
(lp81
g61
(cgluon.html
TD
p82
g63
NtRp83
(dp84
g66
(dp85
S'_style'
p86
S'font-weight:bold;vertical-align:top'
p87
ssg75
g78
sg68
(lp88
S'ajax'
p89
asbag61
(g82
g63
NtRp90
(dp91
g66
(dp92
S'_valign'
p93
S'top'
p94
ssg75
g78
sg68
(lp95
S':'
asbag61
(g82
g63
NtRp96
(dp97
g66
(dp98
sg75
g78
sg68
(lp99
g61
(g62
g63
NtRp100
(dp101
g66
(dp102
g74
I5
ssg75
g96
sg68
(lp103
S'False'
p104
asbasbasbag61
(g77
g63
NtRp105
(dp106
g66
(dp107
sg75
g71
sg68
(lp108
g61
(g82
g63
NtRp109
(dp110
g66
(dp111
g86
g87
ssg75
g105
sg68
(lp112
S'application'
p113
asbag61
(g82
g63
NtRp114
(dp115
g66
(dp116
g93
g94
ssg75
g105
sg68
(lp117
S':'
asbag61
(g82
g63
NtRp118
(dp119
g66
(dp120
sg75
g105
sg68
(lp121
g61
(g62
g63
NtRp122
(dp123
g66
(dp124
g74
I5
ssg75
g118
sg68
(lp125
S'udi0312'
p126
asbasbasbag61
(g77
g63
NtRp127
(dp128
g66
(dp129
sg75
g71
sg68
(lp130
g61
(g82
g63
NtRp131
(dp132
g66
(dp133
g86
g87
ssg75
g127
sg68
(lp134
g48
asbag61
(g82
g63
NtRp135
(dp136
g66
(dp137
g93
g94
ssg75
g127
sg68
(lp138
S':'
asbag61
(g82
g63
NtRp139
(dp140
g66
(dp141
sg75
g127
sg68
(lp142
g61
(g62
g63
NtRp143
(dp144
g66
(dp145
g74
I5
ssg75
g139
sg68
(lp146
g61
(g70
g63
NtRp147
(dp148
g66
(dp149
g74
I4
ssg75
Nsg68
(lp150
sbasbasbasbag61
(g77
g63
NtRp151
(dp152
g66
(dp153
sg75
g71
sg68
(lp154
g61
(g82
g63
NtRp155
(dp156
g66
(dp157
g86
g87
ssg75
g151
sg68
(lp158
S'body'
p159
asbag61
(g82
g63
NtRp160
(dp161
g66
(dp162
g93
g94
ssg75
g151
sg68
(lp163
S':'
asbag61
(g82
g63
NtRp164
(dp165
g66
(dp166
sg75
g151
sg68
(lp167
g61
(g62
g63
NtRp168
(dp169
g66
(dp170
g74
I5
ssg75
g164
sg68
(lp171
S'<cStringIO.StringO object at 0xa4fb020>'
p172
asbasbasbag61
(g77
g63
NtRp173
(dp174
g66
(dp175
sg75
g71
sg68
(lp176
g61
(g82
g63
NtRp177
(dp178
g66
(dp179
g86
g87
ssg75
g173
sg68
(lp180
S'client'
p181
asbag61
(g82
g63
NtRp182
(dp183
g66
(dp184
g93
g94
ssg75
g173
sg68
(lp185
S':'
asbag61
(g82
g63
NtRp186
(dp187
g66
(dp188
sg75
g173
sg68
(lp189
g61
(g62
g63
NtRp190
(dp191
g66
(dp192
g74
I5
ssg75
g186
sg68
(lp193
S'127.0.0.1'
p194
asbasbasbag61
(g77
g63
NtRp195
(dp196
g66
(dp197
sg75
g71
sg68
(lp198
g61
(g82
g63
NtRp199
(dp200
g66
(dp201
g86
g87
ssg75
g195
sg68
(lp202
S'controller'
p203
asbag61
(g82
g63
NtRp204
(dp205
g66
(dp206
g93
g94
ssg75
g195
sg68
(lp207
S':'
asbag61
(g82
g63
NtRp208
(dp209
g66
(dp210
sg75
g195
sg68
(lp211
g61
(g62
g63
NtRp212
(dp213
g66
(dp214
g74
I5
ssg75
g208
sg68
(lp215
S'api'
p216
asbasbasbag61
(g77
g63
NtRp217
(dp218
g66
(dp219
sg75
g71
sg68
(lp220
g61
(g82
g63
NtRp221
(dp222
g66
(dp223
g86
g87
ssg75
g217
sg68
(lp224
S'cookies'
p225
asbag61
(g82
g63
NtRp226
(dp227
g66
(dp228
g93
g94
ssg75
g217
sg68
(lp229
S':'
asbag61
(g82
g63
NtRp230
(dp231
g66
(dp232
sg75
g217
sg68
(lp233
g61
(g62
g63
NtRp234
(dp235
g66
(dp236
g74
I5
ssg75
g230
sg68
(lp237
g61
(g70
g63
NtRp238
(dp239
g66
(dp240
g74
I4
ssg75
Nsg68
(lp241
sbasbasbasbag61
(g77
g63
NtRp242
(dp243
g66
(dp244
sg75
g71
sg68
(lp245
g61
(g82
g63
NtRp246
(dp247
g66
(dp248
g86
g87
ssg75
g242
sg68
(lp249
S'env'
p250
asbag61
(g82
g63
NtRp251
(dp252
g66
(dp253
g93
g94
ssg75
g242
sg68
(lp254
S':'
asbag61
(g82
g63
NtRp255
(dp256
g66
(dp257
sg75
g242
sg68
(lp258
g61
(g62
g63
NtRp259
(dp260
g66
(dp261
g74
I5
ssg75
g255
sg68
(lp262
g61
(g70
g63
NtRp263
(dp264
g66
(dp265
g74
I4
ssg75
Nsg68
(lp266
g61
(g77
g63
NtRp267
(dp268
g66
(dp269
sg75
g263
sg68
(lp270
g61
(g82
g63
NtRp271
(dp272
g66
(dp273
g86
g87
ssg75
g267
sg68
(lp274
S'app_folders'
p275
asbag61
(g82
g63
NtRp276
(dp277
g66
(dp278
g93
g94
ssg75
g267
sg68
(lp279
S':'
asbag61
(g82
g63
NtRp280
(dp281
g66
(dp282
sg75
g267
sg68
(lp283
g61
(g62
g63
NtRp284
(dp285
g66
(dp286
g74
I4
ssg75
g280
sg68
(lp287
S"set(['/Users/udimilo/Documents/web2py/applications/udi0312/', '/Users/udimilo/Documents/web2py/applications/admin/'])"
p288
asbasbasbag61
(g77
g63
NtRp289
(dp290
g66
(dp291
sg75
g263
sg68
(lp292
g61
(g82
g63
NtRp293
(dp294
g66
(dp295
g86
g87
ssg75
g289
sg68
(lp296
S'applications_parent'
p297
asbag61
(g82
g63
NtRp298
(dp299
g66
(dp300
g93
g94
ssg75
g289
sg68
(lp301
S':'
asbag61
(g82
g63
NtRp302
(dp303
g66
(dp304
sg75
g289
sg68
(lp305
g61
(g62
g63
NtRp306
(dp307
g66
(dp308
g74
I4
ssg75
g302
sg68
(lp309
S'/Users/udimilo/Documents/web2py'
p310
asbasbasbag61
(g77
g63
NtRp311
(dp312
g66
(dp313
sg75
g263
sg68
(lp314
g61
(g82
g63
NtRp315
(dp316
g66
(dp317
g86
g87
ssg75
g311
sg68
(lp318
S'cmd_args'
p319
asbag61
(g82
g63
NtRp320
(dp321
g66
(dp322
g93
g94
ssg75
g311
sg68
(lp323
S':'
asbag61
(g82
g63
NtRp324
(dp325
g66
(dp326
sg75
g311
sg68
(lp327
g61
(g62
g63
NtRp328
(dp329
g66
(dp330
g74
I4
ssg75
g324
sg68
(lp331
g61
(g70
g63
NtRp332
(dp333
g66
(dp334
g74
I3
ssg75
Nsg68
(lp335
sbasbasbasbag61
(g77
g63
NtRp336
(dp337
g66
(dp338
sg75
g263
sg68
(lp339
g61
(g82
g63
NtRp340
(dp341
g66
(dp342
g86
g87
ssg75
g336
sg68
(lp343
S'cmd_options'
p344
asbag61
(g82
g63
NtRp345
(dp346
g66
(dp347
g93
g94
ssg75
g336
sg68
(lp348
S':'
asbag61
(g82
g63
NtRp349
(dp350
g66
(dp351
sg75
g336
sg68
(lp352
g61
(g62
g63
NtRp353
(dp354
g66
(dp355
g74
I4
ssg75
g349
sg68
(lp356
S"<Values at 0x22190a8: {'verbose': False, 'ip': '127.0.0.1', 'shutdown_timeout': 5, 'taskbar': False, 'nocron': False, 'pid_filename': 'httpserver.pid', 'maxthreads': None, 'softcron': False, 'server_name': 'Udi-Milos-MacBook-Pro.local', 'bpython': False, 'nogui': False, 'port': 8000, 'extcron': False, 'debuglevel': 30, 'test': None, 'folder': '/Users/udimilo/Documents/web2py', 'config': '', 'import_models': False, 'winservice': '', 'shell': None, 'run': '', 'log_filename': 'httpserver.log', 'args': [''], 'socket_timeout': 5, 'ssl_ca_certificate': None, 'scheduler': None, 'profiler_filename': None, 'ssl_private_key': '', 'password': '<ask>', 'request_queue_size': 5, 'ssl_certificate': '', 'cronjob': False, 'numthreads': None, 'quiet': False, 'interfaces': None, 'minthreads': None, 'timeout': 10, 'plain': False, 'nobanner': False}>"
p357
asbasbasbag61
(g77
g63
NtRp358
(dp359
g66
(dp360
sg75
g263
sg68
(lp361
g61
(g82
g63
NtRp362
(dp363
g66
(dp364
g86
g87
ssg75
g358
sg68
(lp365
S'db_sessions'
p366
asbag61
(g82
g63
NtRp367
(dp368
g66
(dp369
g93
g94
ssg75
g358
sg68
(lp370
S':'
asbag61
(g82
g63
NtRp371
(dp372
g66
(dp373
sg75
g358
sg68
(lp374
g61
(g62
g63
NtRp375
(dp376
g66
(dp377
g74
I4
ssg75
g371
sg68
(lp378
S'set([])'
p379
asbasbasbag61
(g77
g63
NtRp380
(dp381
g66
(dp382
sg75
g263
sg68
(lp383
g61
(g82
g63
NtRp384
(dp385
g66
(dp386
g86
g87
ssg75
g380
sg68
(lp387
S'debugging'
p388
asbag61
(g82
g63
NtRp389
(dp390
g66
(dp391
g93
g94
ssg75
g380
sg68
(lp392
S':'
asbag61
(g82
g63
NtRp393
(dp394
g66
(dp395
sg75
g380
sg68
(lp396
g61
(g62
g63
NtRp397
(dp398
g66
(dp399
g74
I4
ssg75
g393
sg68
(lp400
g104
asbasbasbag61
(g77
g63
NtRp401
(dp402
g66
(dp403
sg75
g263
sg68
(lp404
g61
(g82
g63
NtRp405
(dp406
g66
(dp407
g86
g87
ssg75
g401
sg68
(lp408
S'gluon_parent'
p409
asbag61
(g82
g63
NtRp410
(dp411
g66
(dp412
g93
g94
ssg75
g401
sg68
(lp413
S':'
asbag61
(g82
g63
NtRp414
(dp415
g66
(dp416
sg75
g401
sg68
(lp417
g61
(g62
g63
NtRp418
(dp419
g66
(dp420
g74
I4
ssg75
g414
sg68
(lp421
S'/Users/udimilo/Documents/web2py'
p422
asbasbasbag61
(g77
g63
NtRp423
(dp424
g66
(dp425
sg75
g263
sg68
(lp426
g61
(g82
g63
NtRp427
(dp428
g66
(dp429
g86
g87
ssg75
g423
sg68
(lp430
S'http_accept'
p431
asbag61
(g82
g63
NtRp432
(dp433
g66
(dp434
g93
g94
ssg75
g423
sg68
(lp435
S':'
asbag61
(g82
g63
NtRp436
(dp437
g66
(dp438
sg75
g423
sg68
(lp439
g61
(g62
g63
NtRp440
(dp441
g66
(dp442
g74
I4
ssg75
g436
sg68
(lp443
S'text/html,application/xhtml+xml,application/xml;q=0.9,*/*;q=0.8'
p444
asbasbasbag61
(g77
g63
NtRp445
(dp446
g66
(dp447
sg75
g263
sg68
(lp448
g61
(g82
g63
NtRp449
(dp450
g66
(dp451
g86
g87
ssg75
g445
sg68
(lp452
S'http_accept_charset'
p453
asbag61
(g82
g63
NtRp454
(dp455
g66
(dp456
g93
g94
ssg75
g445
sg68
(lp457
S':'
asbag61
(g82
g63
NtRp458
(dp459
g66
(dp460
sg75
g445
sg68
(lp461
g61
(g62
g63
NtRp462
(dp463
g66
(dp464
g74
I4
ssg75
g458
sg68
(lp465
S'ISO-8859-1,utf-8;q=0.7,*;q=0.3'
p466
asbasbasbag61
(g77
g63
NtRp467
(dp468
g66
(dp469
sg75
g263
sg68
(lp470
g61
(g82
g63
NtRp471
(dp472
g66
(dp473
g86
g87
ssg75
g467
sg68
(lp474
S'http_accept_encoding'
p475
asbag61
(g82
g63
NtRp476
(dp477
g66
(dp478
g93
g94
ssg75
g467
sg68
(lp479
S':'
asbag61
(g82
g63
NtRp480
(dp481
g66
(dp482
sg75
g467
sg68
(lp483
g61
(g62
g63
NtRp484
(dp485
g66
(dp486
g74
I4
ssg75
g480
sg68
(lp487
S'gzip,deflate,sdch'
p488
asbasbasbag61
(g77
g63
NtRp489
(dp490
g66
(dp491
sg75
g263
sg68
(lp492
g61
(g82
g63
NtRp493
(dp494
g66
(dp495
g86
g87
ssg75
g489
sg68
(lp496
S'http_accept_language'
p497
asbag61
(g82
g63
NtRp498
(dp499
g66
(dp500
g93
g94
ssg75
g489
sg68
(lp501
S':'
asbag61
(g82
g63
NtRp502
(dp503
g66
(dp504
sg75
g489
sg68
(lp505
g61
(g62
g63
NtRp506
(dp507
g66
(dp508
g74
I4
ssg75
g502
sg68
(lp509
S'en-US,en;q=0.8'
p510
asbasbasbag61
(g77
g63
NtRp511
(dp512
g66
(dp513
sg75
g263
sg68
(lp514
g61
(g82
g63
NtRp515
(dp516
g66
(dp517
g86
g87
ssg75
g511
sg68
(lp518
S'http_connection'
p519
asbag61
(g82
g63
NtRp520
(dp521
g66
(dp522
g93
g94
ssg75
g511
sg68
(lp523
S':'
asbag61
(g82
g63
NtRp524
(dp525
g66
(dp526
sg75
g511
sg68
(lp527
g61
(g62
g63
NtRp528
(dp529
g66
(dp530
g74
I4
ssg75
g524
sg68
(lp531
S'keep-alive'
p532
asbasbasbag61
(g77
g63
NtRp533
(dp534
g66
(dp535
sg75
g263
sg68
(lp536
g61
(g82
g63
NtRp537
(dp538
g66
(dp539
g86
g87
ssg75
g533
sg68
(lp540
S'http_host'
p541
asbag61
(g82
g63
NtRp542
(dp543
g66
(dp544
g93
g94
ssg75
g533
sg68
(lp545
S':'
asbag61
(g82
g63
NtRp546
(dp547
g66
(dp548
sg75
g533
sg68
(lp549
g61
(g62
g63
NtRp550
(dp551
g66
(dp552
g74
I4
ssg75
g546
sg68
(lp553
S'127.0.0.1:8000'
p554
asbasbasbag61
(g77
g63
NtRp555
(dp556
g66
(dp557
sg75
g263
sg68
(lp558
g61
(g82
g63
NtRp559
(dp560
g66
(dp561
g86
g87
ssg75
g555
sg68
(lp562
S'http_user_agent'
p563
asbag61
(g82
g63
NtRp564
(dp565
g66
(dp566
g93
g94
ssg75
g555
sg68
(lp567
S':'
asbag61
(g82
g63
NtRp568
(dp569
g66
(dp570
sg75
g555
sg68
(lp571
g61
(g62
g63
NtRp572
(dp573
g66
(dp574
g74
I4
ssg75
g568
sg68
(lp575
S'Mozilla/5.0 (Macintosh; Intel Mac OS X 10_7_3) AppleWebKit/535.11 (KHTML, like Gecko) Chrome/17.0.963.83 Safari/535.11'
p576
asbasbasbag61
(g77
g63
NtRp577
(dp578
g66
(dp579
sg75
g263
sg68
(lp580
g61
(g82
g63
NtRp581
(dp582
g66
(dp583
g86
g87
ssg75
g577
sg68
(lp584
S'is_jython'
p585
asbag61
(g82
g63
NtRp586
(dp587
g66
(dp588
g93
g94
ssg75
g577
sg68
(lp589
S':'
asbag61
(g82
g63
NtRp590
(dp591
g66
(dp592
sg75
g577
sg68
(lp593
g61
(g62
g63
NtRp594
(dp595
g66
(dp596
g74
I4
ssg75
g590
sg68
(lp597
g104
asbasbasbag61
(g77
g63
NtRp598
(dp599
g66
(dp600
sg75
g263
sg68
(lp601
g61
(g82
g63
NtRp602
(dp603
g66
(dp604
g86
g87
ssg75
g598
sg68
(lp605
S'is_pypy'
p606
asbag61
(g82
g63
NtRp607
(dp608
g66
(dp609
g93
g94
ssg75
g598
sg68
(lp610
S':'
asbag61
(g82
g63
NtRp611
(dp612
g66
(dp613
sg75
g598
sg68
(lp614
g61
(g62
g63
NtRp615
(dp616
g66
(dp617
g74
I4
ssg75
g611
sg68
(lp618
g104
asbasbasbag61
(g77
g63
NtRp619
(dp620
g66
(dp621
sg75
g263
sg68
(lp622
g61
(g82
g63
NtRp623
(dp624
g66
(dp625
g86
g87
ssg75
g619
sg68
(lp626
S'path_info'
p627
asbag61
(g82
g63
NtRp628
(dp629
g66
(dp630
g93
g94
ssg75
g619
sg68
(lp631
S':'
asbag61
(g82
g63
NtRp632
(dp633
g66
(dp634
sg75
g619
sg68
(lp635
g61
(g62
g63
NtRp636
(dp637
g66
(dp638
g74
I4
ssg75
g632
sg68
(lp639
S'/api/test'
p640
asbasbasbag61
(g77
g63
NtRp641
(dp642
g66
(dp643
sg75
g263
sg68
(lp644
g61
(g82
g63
NtRp645
(dp646
g66
(dp647
g86
g87
ssg75
g641
sg68
(lp648
S'query_string'
p649
asbag61
(g82
g63
NtRp650
(dp651
g66
(dp652
g93
g94
ssg75
g641
sg68
(lp653
S':'
asbag61
(g82
g63
NtRp654
(dp655
g66
(dp656
sg75
g641
sg68
(lp657
g61
(g62
g63
NtRp658
(dp659
g66
(dp660
g74
I4
ssg75
g654
sg68
(lp661
S''
asbasbasbag61
(g77
g63
NtRp662
(dp663
g66
(dp664
sg75
g263
sg68
(lp665
g61
(g82
g63
NtRp666
(dp667
g66
(dp668
g86
g87
ssg75
g662
sg68
(lp669
S'remote_addr'
p670
asbag61
(g82
g63
NtRp671
(dp672
g66
(dp673
g93
g94
ssg75
g662
sg68
(lp674
S':'
asbag61
(g82
g63
NtRp675
(dp676
g66
(dp677
sg75
g662
sg68
(lp678
g61
(g62
g63
NtRp679
(dp680
g66
(dp681
g74
I4
ssg75
g675
sg68
(lp682
g194
asbasbasbag61
(g77
g63
NtRp683
(dp684
g66
(dp685
sg75
g263
sg68
(lp686
g61
(g82
g63
NtRp687
(dp688
g66
(dp689
g86
g87
ssg75
g683
sg68
(lp690
S'remote_port'
p691
asbag61
(g82
g63
NtRp692
(dp693
g66
(dp694
g93
g94
ssg75
g683
sg68
(lp695
S':'
asbag61
(g82
g63
NtRp696
(dp697
g66
(dp698
sg75
g683
sg68
(lp699
g61
(g62
g63
NtRp700
(dp701
g66
(dp702
g74
I4
ssg75
g696
sg68
(lp703
S'49465'
p704
asbasbasbag61
(g77
g63
NtRp705
(dp706
g66
(dp707
sg75
g263
sg68
(lp708
g61
(g82
g63
NtRp709
(dp710
g66
(dp711
g86
g87
ssg75
g705
sg68
(lp712
S'request_method'
p713
asbag61
(g82
g63
NtRp714
(dp715
g66
(dp716
g93
g94
ssg75
g705
sg68
(lp717
S':'
asbag61
(g82
g63
NtRp718
(dp719
g66
(dp720
sg75
g705
sg68
(lp721
g61
(g62
g63
NtRp722
(dp723
g66
(dp724
g74
I4
ssg75
g718
sg68
(lp725
S'GET'
p726
asbasbasbag61
(g77
g63
NtRp727
(dp728
g66
(dp729
sg75
g263
sg68
(lp730
g61
(g82
g63
NtRp731
(dp732
g66
(dp733
g86
g87
ssg75
g727
sg68
(lp734
S'request_uri'
p735
asbag61
(g82
g63
NtRp736
(dp737
g66
(dp738
g93
g94
ssg75
g727
sg68
(lp739
S':'
asbag61
(g82
g63
NtRp740
(dp741
g66
(dp742
sg75
g727
sg68
(lp743
g61
(g62
g63
NtRp744
(dp745
g66
(dp746
g74
I4
ssg75
g740
sg68
(lp747
S'/udi0312/api/test'
p748
asbasbasbag61
(g77
g63
NtRp749
(dp750
g66
(dp751
sg75
g263
sg68
(lp752
g61
(g82
g63
NtRp753
(dp754
g66
(dp755
g86
g87
ssg75
g749
sg68
(lp756
S'script_name'
p757
asbag61
(g82
g63
NtRp758
(dp759
g66
(dp760
g93
g94
ssg75
g749
sg68
(lp761
S':'
asbag61
(g82
g63
NtRp762
(dp763
g66
(dp764
sg75
g749
sg68
(lp765
g61
(g62
g63
NtRp766
(dp767
g66
(dp768
g74
I4
ssg75
g762
sg68
(lp769
S''
asbasbasbag61
(g77
g63
NtRp770
(dp771
g66
(dp772
sg75
g263
sg68
(lp773
g61
(g82
g63
NtRp774
(dp775
g66
(dp776
g86
g87
ssg75
g770
sg68
(lp777
S'server_name'
p778
asbag61
(g82
g63
NtRp779
(dp780
g66
(dp781
g93
g94
ssg75
g770
sg68
(lp782
S':'
asbag61
(g82
g63
NtRp783
(dp784
g66
(dp785
sg75
g770
sg68
(lp786
g61
(g62
g63
NtRp787
(dp788
g66
(dp789
g74
I4
ssg75
g783
sg68
(lp790
S'Udi-Milos-MacBook-Pro.local'
p791
asbasbasbag61
(g77
g63
NtRp792
(dp793
g66
(dp794
sg75
g263
sg68
(lp795
g61
(g82
g63
NtRp796
(dp797
g66
(dp798
g86
g87
ssg75
g792
sg68
(lp799
S'server_port'
p800
asbag61
(g82
g63
NtRp801
(dp802
g66
(dp803
g93
g94
ssg75
g792
sg68
(lp804
S':'
asbag61
(g82
g63
NtRp805
(dp806
g66
(dp807
sg75
g792
sg68
(lp808
g61
(g62
g63
NtRp809
(dp810
g66
(dp811
g74
I4
ssg75
g805
sg68
(lp812
S'8000'
p813
asbasbasbag61
(g77
g63
NtRp814
(dp815
g66
(dp816
sg75
g263
sg68
(lp817
g61
(g82
g63
NtRp818
(dp819
g66
(dp820
g86
g87
ssg75
g814
sg68
(lp821
S'server_protocol'
p822
asbag61
(g82
g63
NtRp823
(dp824
g66
(dp825
g93
g94
ssg75
g814
sg68
(lp826
S':'
asbag61
(g82
g63
NtRp827
(dp828
g66
(dp829
sg75
g814
sg68
(lp830
g61
(g62
g63
NtRp831
(dp832
g66
(dp833
g74
I4
ssg75
g827
sg68
(lp834
S'HTTP/1.1'
p835
asbasbasbag61
(g77
g63
NtRp836
(dp837
g66
(dp838
sg75
g263
sg68
(lp839
g61
(g82
g63
NtRp840
(dp841
g66
(dp842
g86
g87
ssg75
g836
sg68
(lp843
S'server_software'
p844
asbag61
(g82
g63
NtRp845
(dp846
g66
(dp847
g93
g94
ssg75
g836
sg68
(lp848
S':'
asbag61
(g82
g63
NtRp849
(dp850
g66
(dp851
sg75
g836
sg68
(lp852
g61
(g62
g63
NtRp853
(dp854
g66
(dp855
g74
I4
ssg75
g849
sg68
(lp856
S'Rocket 1.2.4'
p857
asbasbasbag61
(g77
g63
NtRp858
(dp859
g66
(dp860
sg75
g263
sg68
(lp861
g61
(g82
g63
NtRp862
(dp863
g66
(dp864
g86
g87
ssg75
g858
sg68
(lp865
S'web2py_crontype'
p866
asbag61
(g82
g63
NtRp867
(dp868
g66
(dp869
g93
g94
ssg75
g858
sg68
(lp870
S':'
asbag61
(g82
g63
NtRp871
(dp872
g66
(dp873
sg75
g858
sg68
(lp874
g61
(g62
g63
NtRp875
(dp876
g66
(dp877
g74
I4
ssg75
g871
sg68
(lp878
S'hard'
p879
asbasbasbag61
(g77
g63
NtRp880
(dp881
g66
(dp882
sg75
g263
sg68
(lp883
g61
(g82
g63
NtRp884
(dp885
g66
(dp886
g86
g87
ssg75
g880
sg68
(lp887
S'web2py_original_uri'
p888
asbag61
(g82
g63
NtRp889
(dp890
g66
(dp891
g93
g94
ssg75
g880
sg68
(lp892
S':'
asbag61
(g82
g63
NtRp893
(dp894
g66
(dp895
sg75
g880
sg68
(lp896
g61
(g62
g63
NtRp897
(dp898
g66
(dp899
g74
I4
ssg75
g893
sg68
(lp900
g640
asbasbasbag61
(g77
g63
NtRp901
(dp902
g66
(dp903
sg75
g263
sg68
(lp904
g61
(g82
g63
NtRp905
(dp906
g66
(dp907
g86
g87
ssg75
g901
sg68
(lp908
S'web2py_path'
p909
asbag61
(g82
g63
NtRp910
(dp911
g66
(dp912
g93
g94
ssg75
g901
sg68
(lp913
S':'
asbag61
(g82
g63
NtRp914
(dp915
g66
(dp916
sg75
g901
sg68
(lp917
g61
(g62
g63
NtRp918
(dp919
g66
(dp920
g74
I4
ssg75
g914
sg68
(lp921
g310
asbasbasbag61
(g77
g63
NtRp922
(dp923
g66
(dp924
sg75
g263
sg68
(lp925
g61
(g82
g63
NtRp926
(dp927
g66
(dp928
g86
g87
ssg75
g922
sg68
(lp929
S'web2py_version'
p930
asbag61
(g82
g63
NtRp931
(dp932
g66
(dp933
g93
g94
ssg75
g922
sg68
(lp934
S':'
asbag61
(g82
g63
NtRp935
(dp936
g66
(dp937
sg75
g922
sg68
(lp938
g61
(g62
g63
NtRp939
(dp940
g66
(dp941
g74
I4
ssg75
g935
sg68
(lp942
g61
(g70
g63
NtRp943
(dp944
g66
(dp945
g74
I3
ssg75
Nsg68
(lp946
g61
(g77
g63
NtRp947
(dp948
g66
(dp949
sg75
g943
sg68
(lp950
g61
(g82
g63
NtRp951
(dp952
g66
(dp953
sg75
g947
sg68
(lp954
g61
(g62
g63
NtRp955
(dp956
g66
(dp957
g74
I3
ssg75
g951
sg68
(lp958
S'1'
asbasbasbag61
(g77
g63
NtRp959
(dp960
g66
(dp961
sg75
g943
sg68
(lp962
g61
(g82
g63
NtRp963
(dp964
g66
(dp965
sg75
g959
sg68
(lp966
g61
(g62
g63
NtRp967
(dp968
g66
(dp969
g74
I3
ssg75
g963
sg68
(lp970
S'99'
p971
asbasbasbag61
(g77
g63
NtRp972
(dp973
g66
(dp974
sg75
g943
sg68
(lp975
g61
(g82
g63
NtRp976
(dp977
g66
(dp978
sg75
g972
sg68
(lp979
g61
(g62
g63
NtRp980
(dp981
g66
(dp982
g74
I3
ssg75
g976
sg68
(lp983
S'7'
asbasbasbag61
(g77
g63
NtRp984
(dp985
g66
(dp986
sg75
g943
sg68
(lp987
g61
(g82
g63
NtRp988
(dp989
g66
(dp990
sg75
g984
sg68
(lp991
g61
(g62
g63
NtRp992
(dp993
g66
(dp994
g74
I3
ssg75
g988
sg68
(lp995
S'datetime.datetime(2012, 3, 4, 22, 12, 8)'
p996
asbasbasbag61
(g77
g63
NtRp997
(dp998
g66
(dp999
sg75
g943
sg68
(lp1000
g61
(g82
g63
NtRp1001
(dp1002
g66
(dp1003
sg75
g997
sg68
(lp1004
g61
(g62
g63
NtRp1005
(dp1006
g66
(dp1007
g74
I3
ssg75
g1001
sg68
(lp1008
S'stable'
p1009
asbasbasbasbasbasbasbag61
(g77
g63
NtRp1010
(dp1011
g66
(dp1012
sg75
g263
sg68
(lp1013
g61
(g82
g63
NtRp1014
(dp1015
g66
(dp1016
g86
g87
ssg75
g1010
sg68
(lp1017
S'wsgi_errors'
p1018
asbag61
(g82
g63
NtRp1019
(dp1020
g66
(dp1021
g93
g94
ssg75
g1010
sg68
(lp1022
S':'
asbag61
(g82
g63
NtRp1023
(dp1024
g66
(dp1025
sg75
g1010
sg68
(lp1026
g61
(g62
g63
NtRp1027
(dp1028
g66
(dp1029
g74
I4
ssg75
g1023
sg68
(lp1030
S"<open file '<stderr>', mode 'w' at 0x4220b0>"
p1031
asbasbasbag61
(g77
g63
NtRp1032
(dp1033
g66
(dp1034
sg75
g263
sg68
(lp1035
g61
(g82
g63
NtRp1036
(dp1037
g66
(dp1038
g86
g87
ssg75
g1032
sg68
(lp1039
S'wsgi_file_wrapper'
p1040
asbag61
(g82
g63
NtRp1041
(dp1042
g66
(dp1043
g93
g94
ssg75
g1032
sg68
(lp1044
S':'
asbag61
(g82
g63
NtRp1045
(dp1046
g66
(dp1047
sg75
g1032
sg68
(lp1048
g61
(g62
g63
NtRp1049
(dp1050
g66
(dp1051
g74
I4
ssg75
g1045
sg68
(lp1052
S'<class wsgiref.util.FileWrapper at 0x215e6c0>'
p1053
asbasbasbag61
(g77
g63
NtRp1054
(dp1055
g66
(dp1056
sg75
g263
sg68
(lp1057
g61
(g82
g63
NtRp1058
(dp1059
g66
(dp1060
g86
g87
ssg75
g1054
sg68
(lp1061
S'wsgi_input'
p1062
asbag61
(g82
g63
NtRp1063
(dp1064
g66
(dp1065
g93
g94
ssg75
g1054
sg68
(lp1066
S':'
asbag61
(g82
g63
NtRp1067
(dp1068
g66
(dp1069
sg75
g1054
sg68
(lp1070
g61
(g62
g63
NtRp1071
(dp1072
g66
(dp1073
g74
I4
ssg75
g1067
sg68
(lp1074
S'<socket._fileobject object at 0xa13a670>'
p1075
asbasbasbag61
(g77
g63
NtRp1076
(dp1077
g66
(dp1078
sg75
g263
sg68
(lp1079
g61
(g82
g63
NtRp1080
(dp1081
g66
(dp1082
g86
g87
ssg75
g1076
sg68
(lp1083
S'wsgi_multiprocess'
p1084
asbag61
(g82
g63
NtRp1085
(dp1086
g66
(dp1087
g93
g94
ssg75
g1076
sg68
(lp1088
S':'
asbag61
(g82
g63
NtRp1089
(dp1090
g66
(dp1091
sg75
g1076
sg68
(lp1092
g61
(g62
g63
NtRp1093
(dp1094
g66
(dp1095
g74
I4
ssg75
g1089
sg68
(lp1096
g104
asbasbasbag61
(g77
g63
NtRp1097
(dp1098
g66
(dp1099
sg75
g263
sg68
(lp1100
g61
(g82
g63
NtRp1101
(dp1102
g66
(dp1103
g86
g87
ssg75
g1097
sg68
(lp1104
S'wsgi_multithread'
p1105
asbag61
(g82
g63
NtRp1106
(dp1107
g66
(dp1108
g93
g94
ssg75
g1097
sg68
(lp1109
S':'
asbag61
(g82
g63
NtRp1110
(dp1111
g66
(dp1112
sg75
g1097
sg68
(lp1113
g61
(g62
g63
NtRp1114
(dp1115
g66
(dp1116
g74
I4
ssg75
g1110
sg68
(lp1117
S'True'
p1118
asbasbasbag61
(g77
g63
NtRp1119
(dp1120
g66
(dp1121
sg75
g263
sg68
(lp1122
g61
(g82
g63
NtRp1123
(dp1124
g66
(dp1125
g86
g87
ssg75
g1119
sg68
(lp1126
S'wsgi_run_once'
p1127
asbag61
(g82
g63
NtRp1128
(dp1129
g66
(dp1130
g93
g94
ssg75
g1119
sg68
(lp1131
S':'
asbag61
(g82
g63
NtRp1132
(dp1133
g66
(dp1134
sg75
g1119
sg68
(lp1135
g61
(g62
g63
NtRp1136
(dp1137
g66
(dp1138
g74
I4
ssg75
g1132
sg68
(lp1139
g104
asbasbasbag61
(g77
g63
NtRp1140
(dp1141
g66
(dp1142
sg75
g263
sg68
(lp1143
g61
(g82
g63
NtRp1144
(dp1145
g66
(dp1146
g86
g87
ssg75
g1140
sg68
(lp1147
S'wsgi_url_scheme'
p1148
asbag61
(g82
g63
NtRp1149
(dp1150
g66
(dp1151
g93
g94
ssg75
g1140
sg68
(lp1152
S':'
asbag61
(g82
g63
NtRp1153
(dp1154
g66
(dp1155
sg75
g1140
sg68
(lp1156
g61
(g62
g63
NtRp1157
(dp1158
g66
(dp1159
g74
I4
ssg75
g1153
sg68
(lp1160
S'http'
p1161
asbasbasbag61
(g77
g63
NtRp1162
(dp1163
g66
(dp1164
sg75
g263
sg68
(lp1165
g61
(g82
g63
NtRp1166
(dp1167
g66
(dp1168
g86
g87
ssg75
g1162
sg68
(lp1169
S'wsgi_version'
p1170
asbag61
(g82
g63
NtRp1171
(dp1172
g66
(dp1173
g93
g94
ssg75
g1162
sg68
(lp1174
S':'
asbag61
(g82
g63
NtRp1175
(dp1176
g66
(dp1177
sg75
g1162
sg68
(lp1178
g61
(g62
g63
NtRp1179
(dp1180
g66
(dp1181
g74
I4
ssg75
g1175
sg68
(lp1182
g61
(g70
g63
NtRp1183
(dp1184
g66
(dp1185
g74
I3
ssg75
Nsg68
(lp1186
g61
(g77
g63
NtRp1187
(dp1188
g66
(dp1189
sg75
g1183
sg68
(lp1190
g61
(g82
g63
NtRp1191
(dp1192
g66
(dp1193
sg75
g1187
sg68
(lp1194
g61
(g62
g63
NtRp1195
(dp1196
g66
(dp1197
g74
I3
ssg75
g1191
sg68
(lp1198
S'1'
asbasbasbag61
(g77
g63
NtRp1199
(dp1200
g66
(dp1201
sg75
g1183
sg68
(lp1202
g61
(g82
g63
NtRp1203
(dp1204
g66
(dp1205
sg75
g1199
sg68
(lp1206
g61
(g62
g63
NtRp1207
(dp1208
g66
(dp1209
g74
I3
ssg75
g1203
sg68
(lp1210
S'0'
asbasbasbasbasbasbasbasbasbasbasbag61
(g77
g63
NtRp1211
(dp1212
g66
(dp1213
sg75
g71
sg68
(lp1214
g61
(g82
g63
NtRp1215
(dp1216
g66
(dp1217
g86
g87
ssg75
g1211
sg68
(lp1218
S'extension'
p1219
asbag61
(g82
g63
NtRp1220
(dp1221
g66
(dp1222
g93
g94
ssg75
g1211
sg68
(lp1223
S':'
asbag61
(g82
g63
NtRp1224
(dp1225
g66
(dp1226
sg75
g1211
sg68
(lp1227
g61
(g62
g63
NtRp1228
(dp1229
g66
(dp1230
g74
I5
ssg75
g1224
sg68
(lp1231
S'html'
p1232
asbasbasbag61
(g77
g63
NtRp1233
(dp1234
g66
(dp1235
sg75
g71
sg68
(lp1236
g61
(g82
g63
NtRp1237
(dp1238
g66
(dp1239
g86
g87
ssg75
g1233
sg68
(lp1240
S'folder'
p1241
asbag61
(g82
g63
NtRp1242
(dp1243
g66
(dp1244
g93
g94
ssg75
g1233
sg68
(lp1245
S':'
asbag61
(g82
g63
NtRp1246
(dp1247
g66
(dp1248
sg75
g1233
sg68
(lp1249
g61
(g62
g63
NtRp1250
(dp1251
g66
(dp1252
g74
I5
ssg75
g1246
sg68
(lp1253
S'/Users/udimilo/Documents/web2py/applications/udi0312/'
p1254
asbasbasbag61
(g77
g63
NtRp1255
(dp1256
g66
(dp1257
sg75
g71
sg68
(lp1258
g61
(g82
g63
NtRp1259
(dp1260
g66
(dp1261
g86
g87
ssg75
g1255
sg68
(lp1262
S'function'
p1263
asbag61
(g82
g63
NtRp1264
(dp1265
g66
(dp1266
g93
g94
ssg75
g1255
sg68
(lp1267
S':'
asbag61
(g82
g63
NtRp1268
(dp1269
g66
(dp1270
sg75
g1255
sg68
(lp1271
g61
(g62
g63
NtRp1272
(dp1273
g66
(dp1274
g74
I5
ssg75
g1268
sg68
(lp1275
S'test'
p1276
asbasbasbag61
(g77
g63
NtRp1277
(dp1278
g66
(dp1279
sg75
g71
sg68
(lp1280
g61
(g82
g63
NtRp1281
(dp1282
g66
(dp1283
g86
g87
ssg75
g1277
sg68
(lp1284
S'get_vars'
p1285
asbag61
(g82
g63
NtRp1286
(dp1287
g66
(dp1288
g93
g94
ssg75
g1277
sg68
(lp1289
S':'
asbag61
(g82
g63
NtRp1290
(dp1291
g66
(dp1292
sg75
g1277
sg68
(lp1293
g61
(g62
g63
NtRp1294
(dp1295
g66
(dp1296
g74
I5
ssg75
g1290
sg68
(lp1297
g61
(g70
g63
NtRp1298
(dp1299
g66
(dp1300
g74
I4
ssg75
Nsg68
(lp1301
sbasbasbasbag61
(g77
g63
NtRp1302
(dp1303
g66
(dp1304
sg75
g71
sg68
(lp1305
g61
(g82
g63
NtRp1306
(dp1307
g66
(dp1308
g86
g87
ssg75
g1302
sg68
(lp1309
S'global_settings'
p1310
asbag61
(g82
g63
NtRp1311
(dp1312
g66
(dp1313
g93
g94
ssg75
g1302
sg68
(lp1314
S':'
asbag61
(g82
g63
NtRp1315
(dp1316
g66
(dp1317
sg75
g1302
sg68
(lp1318
g61
(g62
g63
NtRp1319
(dp1320
g66
(dp1321
g74
I5
ssg75
g1315
sg68
(lp1322
g61
(g70
g63
NtRp1323
(dp1324
g66
(dp1325
g74
I4
ssg75
Nsg68
(lp1326
g61
(g77
g63
NtRp1327
(dp1328
g66
(dp1329
sg75
g1323
sg68
(lp1330
g61
(g82
g63
NtRp1331
(dp1332
g66
(dp1333
g86
g87
ssg75
g1327
sg68
(lp1334
g275
asbag61
(g82
g63
NtRp1335
(dp1336
g66
(dp1337
g93
g94
ssg75
g1327
sg68
(lp1338
S':'
asbag61
(g82
g63
NtRp1339
(dp1340
g66
(dp1341
sg75
g1327
sg68
(lp1342
g61
(g62
g63
NtRp1343
(dp1344
g66
(dp1345
g74
I4
ssg75
g1339
sg68
(lp1346
S"set(['/Users/udimilo/Documents/web2py/applications/udi0312/', '/Users/udimilo/Documents/web2py/applications/admin/'])"
p1347
asbasbasbag61
(g77
g63
NtRp1348
(dp1349
g66
(dp1350
sg75
g1323
sg68
(lp1351
g61
(g82
g63
NtRp1352
(dp1353
g66
(dp1354
g86
g87
ssg75
g1348
sg68
(lp1355
g297
asbag61
(g82
g63
NtRp1356
(dp1357
g66
(dp1358
g93
g94
ssg75
g1348
sg68
(lp1359
S':'
asbag61
(g82
g63
NtRp1360
(dp1361
g66
(dp1362
sg75
g1348
sg68
(lp1363
g61
(g62
g63
NtRp1364
(dp1365
g66
(dp1366
g74
I4
ssg75
g1360
sg68
(lp1367
g310
asbasbasbag61
(g77
g63
NtRp1368
(dp1369
g66
(dp1370
sg75
g1323
sg68
(lp1371
g61
(g82
g63
NtRp1372
(dp1373
g66
(dp1374
g86
g87
ssg75
g1368
sg68
(lp1375
g319
asbag61
(g82
g63
NtRp1376
(dp1377
g66
(dp1378
g93
g94
ssg75
g1368
sg68
(lp1379
S':'
asbag61
(g82
g63
NtRp1380
(dp1381
g66
(dp1382
sg75
g1368
sg68
(lp1383
g61
(g62
g63
NtRp1384
(dp1385
g66
(dp1386
g74
I4
ssg75
g1380
sg68
(lp1387
g61
(g70
g63
NtRp1388
(dp1389
g66
(dp1390
g74
I3
ssg75
Nsg68
(lp1391
sbasbasbasbag61
(g77
g63
NtRp1392
(dp1393
g66
(dp1394
sg75
g1323
sg68
(lp1395
g61
(g82
g63
NtRp1396
(dp1397
g66
(dp1398
g86
g87
ssg75
g1392
sg68
(lp1399
g344
asbag61
(g82
g63
NtRp1400
(dp1401
g66
(dp1402
g93
g94
ssg75
g1392
sg68
(lp1403
S':'
asbag61
(g82
g63
NtRp1404
(dp1405
g66
(dp1406
sg75
g1392
sg68
(lp1407
g61
(g62
g63
NtRp1408
(dp1409
g66
(dp1410
g74
I4
ssg75
g1404
sg68
(lp1411
S"<Values at 0x22190a8: {'verbose': False, 'ip': '127.0.0.1', 'shutdown_timeout': 5, 'taskbar': False, 'nocron': False, 'pid_filename': 'httpserver.pid', 'maxthreads': None, 'softcron': False, 'server_name': 'Udi-Milos-MacBook-Pro.local', 'bpython': False, 'nogui': False, 'port': 8000, 'extcron': False, 'debuglevel': 30, 'test': None, 'folder': '/Users/udimilo/Documents/web2py', 'config': '', 'import_models': False, 'winservice': '', 'shell': None, 'run': '', 'log_filename': 'httpserver.log', 'args': [''], 'socket_timeout': 5, 'ssl_ca_certificate': None, 'scheduler': None, 'profiler_filename': None, 'ssl_private_key': '', 'password': '<ask>', 'request_queue_size': 5, 'ssl_certificate': '', 'cronjob': False, 'numthreads': None, 'quiet': False, 'interfaces': None, 'minthreads': None, 'timeout': 10, 'plain': False, 'nobanner': False}>"
p1412
asbasbasbag61
(g77
g63
NtRp1413
(dp1414
g66
(dp1415
sg75
g1323
sg68
(lp1416
g61
(g82
g63
NtRp1417
(dp1418
g66
(dp1419
g86
g87
ssg75
g1413
sg68
(lp1420
g366
asbag61
(g82
g63
NtRp1421
(dp1422
g66
(dp1423
g93
g94
ssg75
g1413
sg68
(lp1424
S':'
asbag61
(g82
g63
NtRp1425
(dp1426
g66
(dp1427
sg75
g1413
sg68
(lp1428
g61
(g62
g63
NtRp1429
(dp1430
g66
(dp1431
g74
I4
ssg75
g1425
sg68
(lp1432
S'set([])'
p1433
asbasbasbag61
(g77
g63
NtRp1434
(dp1435
g66
(dp1436
sg75
g1323
sg68
(lp1437
g61
(g82
g63
NtRp1438
(dp1439
g66
(dp1440
g86
g87
ssg75
g1434
sg68
(lp1441
g388
asbag61
(g82
g63
NtRp1442
(dp1443
g66
(dp1444
g93
g94
ssg75
g1434
sg68
(lp1445
S':'
asbag61
(g82
g63
NtRp1446
(dp1447
g66
(dp1448
sg75
g1434
sg68
(lp1449
g61
(g62
g63
NtRp1450
(dp1451
g66
(dp1452
g74
I4
ssg75
g1446
sg68
(lp1453
g104
asbasbasbag61
(g77
g63
NtRp1454
(dp1455
g66
(dp1456
sg75
g1323
sg68
(lp1457
g61
(g82
g63
NtRp1458
(dp1459
g66
(dp1460
g86
g87
ssg75
g1454
sg68
(lp1461
g409
asbag61
(g82
g63
NtRp1462
(dp1463
g66
(dp1464
g93
g94
ssg75
g1454
sg68
(lp1465
S':'
asbag61
(g82
g63
NtRp1466
(dp1467
g66
(dp1468
sg75
g1454
sg68
(lp1469
g61
(g62
g63
NtRp1470
(dp1471
g66
(dp1472
g74
I4
ssg75
g1466
sg68
(lp1473
g422
asbasbasbag61
(g77
g63
NtRp1474
(dp1475
g66
(dp1476
sg75
g1323
sg68
(lp1477
g61
(g82
g63
NtRp1478
(dp1479
g66
(dp1480
g86
g87
ssg75
g1474
sg68
(lp1481
g585
asbag61
(g82
g63
NtRp1482
(dp1483
g66
(dp1484
g93
g94
ssg75
g1474
sg68
(lp1485
S':'
asbag61
(g82
g63
NtRp1486
(dp1487
g66
(dp1488
sg75
g1474
sg68
(lp1489
g61
(g62
g63
NtRp1490
(dp1491
g66
(dp1492
g74
I4
ssg75
g1486
sg68
(lp1493
g104
asbasbasbag61
(g77
g63
NtRp1494
(dp1495
g66
(dp1496
sg75
g1323
sg68
(lp1497
g61
(g82
g63
NtRp1498
(dp1499
g66
(dp1500
g86
g87
ssg75
g1494
sg68
(lp1501
g606
asbag61
(g82
g63
NtRp1502
(dp1503
g66
(dp1504
g93
g94
ssg75
g1494
sg68
(lp1505
S':'
asbag61
(g82
g63
NtRp1506
(dp1507
g66
(dp1508
sg75
g1494
sg68
(lp1509
g61
(g62
g63
NtRp1510
(dp1511
g66
(dp1512
g74
I4
ssg75
g1506
sg68
(lp1513
g104
asbasbasbag61
(g77
g63
NtRp1514
(dp1515
g66
(dp1516
sg75
g1323
sg68
(lp1517
g61
(g82
g63
NtRp1518
(dp1519
g66
(dp1520
g86
g87
ssg75
g1514
sg68
(lp1521
g866
asbag61
(g82
g63
NtRp1522
(dp1523
g66
(dp1524
g93
g94
ssg75
g1514
sg68
(lp1525
S':'
asbag61
(g82
g63
NtRp1526
(dp1527
g66
(dp1528
sg75
g1514
sg68
(lp1529
g61
(g62
g63
NtRp1530
(dp1531
g66
(dp1532
g74
I4
ssg75
g1526
sg68
(lp1533
g879
asbasbasbag61
(g77
g63
NtRp1534
(dp1535
g66
(dp1536
sg75
g1323
sg68
(lp1537
g61
(g82
g63
NtRp1538
(dp1539
g66
(dp1540
g86
g87
ssg75
g1534
sg68
(lp1541
g930
asbag61
(g82
g63
NtRp1542
(dp1543
g66
(dp1544
g93
g94
ssg75
g1534
sg68
(lp1545
S':'
asbag61
(g82
g63
NtRp1546
(dp1547
g66
(dp1548
sg75
g1534
sg68
(lp1549
g61
(g62
g63
NtRp1550
(dp1551
g66
(dp1552
g74
I4
ssg75
g1546
sg68
(lp1553
g61
(g70
g63
NtRp1554
(dp1555
g66
(dp1556
g74
I3
ssg75
Nsg68
(lp1557
g61
(g77
g63
NtRp1558
(dp1559
g66
(dp1560
sg75
g1554
sg68
(lp1561
g61
(g82
g63
NtRp1562
(dp1563
g66
(dp1564
sg75
g1558
sg68
(lp1565
g61
(g62
g63
NtRp1566
(dp1567
g66
(dp1568
g74
I3
ssg75
g1562
sg68
(lp1569
S'1'
asbasbasbag61
(g77
g63
NtRp1570
(dp1571
g66
(dp1572
sg75
g1554
sg68
(lp1573
g61
(g82
g63
NtRp1574
(dp1575
g66
(dp1576
sg75
g1570
sg68
(lp1577
g61
(g62
g63
NtRp1578
(dp1579
g66
(dp1580
g74
I3
ssg75
g1574
sg68
(lp1581
S'99'
p1582
asbasbasbag61
(g77
g63
NtRp1583
(dp1584
g66
(dp1585
sg75
g1554
sg68
(lp1586
g61
(g82
g63
NtRp1587
(dp1588
g66
(dp1589
sg75
g1583
sg68
(lp1590
g61
(g62
g63
NtRp1591
(dp1592
g66
(dp1593
g74
I3
ssg75
g1587
sg68
(lp1594
S'7'
asbasbasbag61
(g77
g63
NtRp1595
(dp1596
g66
(dp1597
sg75
g1554
sg68
(lp1598
g61
(g82
g63
NtRp1599
(dp1600
g66
(dp1601
sg75
g1595
sg68
(lp1602
g61
(g62
g63
NtRp1603
(dp1604
g66
(dp1605
g74
I3
ssg75
g1599
sg68
(lp1606
S'datetime.datetime(2012, 3, 4, 22, 12, 8)'
p1607
asbasbasbag61
(g77
g63
NtRp1608
(dp1609
g66
(dp1610
sg75
g1554
sg68
(lp1611
g61
(g82
g63
NtRp1612
(dp1613
g66
(dp1614
sg75
g1608
sg68
(lp1615
g61
(g62
g63
NtRp1616
(dp1617
g66
(dp1618
g74
I3
ssg75
g1612
sg68
(lp1619
g1009
asbasbasbasbasbasbasbasbasbasbasbag61
(g77
g63
NtRp1620
(dp1621
g66
(dp1622
sg75
g71
sg68
(lp1623
g61
(g82
g63
NtRp1624
(dp1625
g66
(dp1626
g86
g87
ssg75
g1620
sg68
(lp1627
S'is_https'
p1628
asbag61
(g82
g63
NtRp1629
(dp1630
g66
(dp1631
g93
g94
ssg75
g1620
sg68
(lp1632
S':'
asbag61
(g82
g63
NtRp1633
(dp1634
g66
(dp1635
sg75
g1620
sg68
(lp1636
g61
(g62
g63
NtRp1637
(dp1638
g66
(dp1639
g74
I5
ssg75
g1633
sg68
(lp1640
g104
asbasbasbag61
(g77
g63
NtRp1641
(dp1642
g66
(dp1643
sg75
g71
sg68
(lp1644
g61
(g82
g63
NtRp1645
(dp1646
g66
(dp1647
g86
g87
ssg75
g1641
sg68
(lp1648
S'is_local'
p1649
asbag61
(g82
g63
NtRp1650
(dp1651
g66
(dp1652
g93
g94
ssg75
g1641
sg68
(lp1653
S':'
asbag61
(g82
g63
NtRp1654
(dp1655
g66
(dp1656
sg75
g1641
sg68
(lp1657
g61
(g62
g63
NtRp1658
(dp1659
g66
(dp1660
g74
I5
ssg75
g1654
sg68
(lp1661
g1118
asbasbasbag61
(g77
g63
NtRp1662
(dp1663
g66
(dp1664
sg75
g71
sg68
(lp1665
g61
(g82
g63
NtRp1666
(dp1667
g66
(dp1668
g86
g87
ssg75
g1662
sg68
(lp1669
S'is_restful'
p1670
asbag61
(g82
g63
NtRp1671
(dp1672
g66
(dp1673
g93
g94
ssg75
g1662
sg68
(lp1674
S':'
asbag61
(g82
g63
NtRp1675
(dp1676
g66
(dp1677
sg75
g1662
sg68
(lp1678
g61
(g62
g63
NtRp1679
(dp1680
g66
(dp1681
g74
I5
ssg75
g1675
sg68
(lp1682
g104
asbasbasbag61
(g77
g63
NtRp1683
(dp1684
g66
(dp1685
sg75
g71
sg68
(lp1686
g61
(g82
g63
NtRp1687
(dp1688
g66
(dp1689
g86
g87
ssg75
g1683
sg68
(lp1690
S'now'
p1691
asbag61
(g82
g63
NtRp1692
(dp1693
g66
(dp1694
g93
g94
ssg75
g1683
sg68
(lp1695
S':'
asbag61
(g82
g63
NtRp1696
(dp1697
g66
(dp1698
sg75
g1683
sg68
(lp1699
g61
(g62
g63
NtRp1700
(dp1701
g66
(dp1702
g74
I5
ssg75
g1696
sg68
(lp1703
S'datetime.datetime(2012, 3, 24, 11, 38, 13, 754442)'
p1704
asbasbasbag61
(g77
g63
NtRp1705
(dp1706
g66
(dp1707
sg75
g71
sg68
(lp1708
g61
(g82
g63
NtRp1709
(dp1710
g66
(dp1711
g86
g87
ssg75
g1705
sg68
(lp1712
S'post_vars'
p1713
asbag61
(g82
g63
NtRp1714
(dp1715
g66
(dp1716
g93
g94
ssg75
g1705
sg68
(lp1717
S':'
asbag61
(g82
g63
NtRp1718
(dp1719
g66
(dp1720
sg75
g1705
sg68
(lp1721
g61
(g62
g63
NtRp1722
(dp1723
g66
(dp1724
g74
I5
ssg75
g1718
sg68
(lp1725
g61
(g70
g63
NtRp1726
(dp1727
g66
(dp1728
g74
I4
ssg75
Nsg68
(lp1729
sbasbasbasbag61
(g77
g63
NtRp1730
(dp1731
g66
(dp1732
sg75
g71
sg68
(lp1733
g61
(g82
g63
NtRp1734
(dp1735
g66
(dp1736
g86
g87
ssg75
g1730
sg68
(lp1737
S'url'
p1738
asbag61
(g82
g63
NtRp1739
(dp1740
g66
(dp1741
g93
g94
ssg75
g1730
sg68
(lp1742
S':'
asbag61
(g82
g63
NtRp1743
(dp1744
g66
(dp1745
sg75
g1730
sg68
(lp1746
g61
(g62
g63
NtRp1747
(dp1748
g66
(dp1749
g74
I5
ssg75
g1743
sg68
(lp1750
S'/api/test'
p1751
asbasbasbag61
(g77
g63
NtRp1752
(dp1753
g66
(dp1754
sg75
g71
sg68
(lp1755
g61
(g82
g63
NtRp1756
(dp1757
g66
(dp1758
g86
g87
ssg75
g1752
sg68
(lp1759
S'utcnow'
p1760
asbag61
(g82
g63
NtRp1761
(dp1762
g66
(dp1763
g93
g94
ssg75
g1752
sg68
(lp1764
S':'
asbag61
(g82
g63
NtRp1765
(dp1766
g66
(dp1767
sg75
g1752
sg68
(lp1768
g61
(g62
g63
NtRp1769
(dp1770
g66
(dp1771
g74
I5
ssg75
g1765
sg68
(lp1772
S'datetime.datetime(2012, 3, 24, 15, 38, 13, 754452)'
p1773
asbasbasbag61
(g77
g63
NtRp1774
(dp1775
g66
(dp1776
sg75
g71
sg68
(lp1777
g61
(g82
g63
NtRp1778
(dp1779
g66
(dp1780
g86
g87
ssg75
g1774
sg68
(lp1781
S'uuid'
p1782
asbag61
(g82
g63
NtRp1783
(dp1784
g66
(dp1785
g93
g94
ssg75
g1774
sg68
(lp1786
S':'
asbag61
(g82
g63
NtRp1787
(dp1788
g66
(dp1789
sg75
g1774
sg68
(lp1790
g61
(g62
g63
NtRp1791
(dp1792
g66
(dp1793
g74
I5
ssg75
g1787
sg68
(lp1794
S'udi0312/127.0.0.1.2012-03-24.11-38-13.d7402e8b-c2ca-4e19-92b1-3edabbad1be0'
p1795
asbasbasbag61
(g77
g63
NtRp1796
(dp1797
g66
(dp1798
sg75
g71
sg68
(lp1799
g61
(g82
g63
NtRp1800
(dp1801
g66
(dp1802
g86
g87
ssg75
g1796
sg68
(lp1803
S'vars'
p1804
asbag61
(g82
g63
NtRp1805
(dp1806
g66
(dp1807
g93
g94
ssg75
g1796
sg68
(lp1808
S':'
asbag61
(g82
g63
NtRp1809
(dp1810
g66
(dp1811
sg75
g1796
sg68
(lp1812
g61
(g62
g63
NtRp1813
(dp1814
g66
(dp1815
g74
I5
ssg75
g1809
sg68
(lp1816
g61
(g70
g63
NtRp1817
(dp1818
g66
(dp1819
g74
I4
ssg75
Nsg68
(lp1820
sbasbasbasbag61
(g77
g63
NtRp1821
(dp1822
g66
(dp1823
sg75
g71
sg68
(lp1824
g61
(g82
g63
NtRp1825
(dp1826
g66
(dp1827
g86
g87
ssg75
g1821
sg68
(lp1828
S'wsgi'
p1829
asbag61
(g82
g63
NtRp1830
(dp1831
g66
(dp1832
g93
g94
ssg75
g1821
sg68
(lp1833
S':'
asbag61
(g82
g63
NtRp1834
(dp1835
g66
(dp1836
sg75
g1821
sg68
(lp1837
g61
(g62
g63
NtRp1838
(dp1839
g66
(dp1840
g74
I5
ssg75
g1834
sg68
(lp1841
g61
(g70
g63
NtRp1842
(dp1843
g66
(dp1844
g74
I4
ssg75
Nsg68
(lp1845
g61
(g77
g63
NtRp1846
(dp1847
g66
(dp1848
sg75
g1842
sg68
(lp1849
g61
(g82
g63
NtRp1850
(dp1851
g66
(dp1852
g86
g87
ssg75
g1846
sg68
(lp1853
S'environ'
p1854
asbag61
(g82
g63
NtRp1855
(dp1856
g66
(dp1857
g93
g94
ssg75
g1846
sg68
(lp1858
S':'
asbag61
(g82
g63
NtRp1859
(dp1860
g66
(dp1861
sg75
g1846
sg68
(lp1862
g61
(g62
g63
NtRp1863
(dp1864
g66
(dp1865
g74
I4
ssg75
g1859
sg68
(lp1866
g61
(g70
g63
NtRp1867
(dp1868
g66
(dp1869
g74
I3
ssg75
Nsg68
(lp1870
g61
(g77
g63
NtRp1871
(dp1872
g66
(dp1873
sg75
g1867
sg68
(lp1874
g61
(g82
g63
NtRp1875
(dp1876
g66
(dp1877
g86
g87
ssg75
g1871
sg68
(lp1878
S'HTTP_ACCEPT'
p1879
asbag61
(g82
g63
NtRp1880
(dp1881
g66
(dp1882
g93
g94
ssg75
g1871
sg68
(lp1883
S':'
asbag61
(g82
g63
NtRp1884
(dp1885
g66
(dp1886
sg75
g1871
sg68
(lp1887
g61
(g62
g63
NtRp1888
(dp1889
g66
(dp1890
g74
I3
ssg75
g1884
sg68
(lp1891
g444
asbasbasbag61
(g77
g63
NtRp1892
(dp1893
g66
(dp1894
sg75
g1867
sg68
(lp1895
g61
(g82
g63
NtRp1896
(dp1897
g66
(dp1898
g86
g87
ssg75
g1892
sg68
(lp1899
S'HTTP_ACCEPT_CHARSET'
p1900
asbag61
(g82
g63
NtRp1901
(dp1902
g66
(dp1903
g93
g94
ssg75
g1892
sg68
(lp1904
S':'
asbag61
(g82
g63
NtRp1905
(dp1906
g66
(dp1907
sg75
g1892
sg68
(lp1908
g61
(g62
g63
NtRp1909
(dp1910
g66
(dp1911
g74
I3
ssg75
g1905
sg68
(lp1912
g466
asbasbasbag61
(g77
g63
NtRp1913
(dp1914
g66
(dp1915
sg75
g1867
sg68
(lp1916
g61
(g82
g63
NtRp1917
(dp1918
g66
(dp1919
g86
g87
ssg75
g1913
sg68
(lp1920
S'HTTP_ACCEPT_ENCODING'
p1921
asbag61
(g82
g63
NtRp1922
(dp1923
g66
(dp1924
g93
g94
ssg75
g1913
sg68
(lp1925
S':'
asbag61
(g82
g63
NtRp1926
(dp1927
g66
(dp1928
sg75
g1913
sg68
(lp1929
g61
(g62
g63
NtRp1930
(dp1931
g66
(dp1932
g74
I3
ssg75
g1926
sg68
(lp1933
g488
asbasbasbag61
(g77
g63
NtRp1934
(dp1935
g66
(dp1936
sg75
g1867
sg68
(lp1937
g61
(g82
g63
NtRp1938
(dp1939
g66
(dp1940
g86
g87
ssg75
g1934
sg68
(lp1941
S'HTTP_ACCEPT_LANGUAGE'
p1942
asbag61
(g82
g63
NtRp1943
(dp1944
g66
(dp1945
g93
g94
ssg75
g1934
sg68
(lp1946
S':'
asbag61
(g82
g63
NtRp1947
(dp1948
g66
(dp1949
sg75
g1934
sg68
(lp1950
g61
(g62
g63
NtRp1951
(dp1952
g66
(dp1953
g74
I3
ssg75
g1947
sg68
(lp1954
g510
asbasbasbag61
(g77
g63
NtRp1955
(dp1956
g66
(dp1957
sg75
g1867
sg68
(lp1958
g61
(g82
g63
NtRp1959
(dp1960
g66
(dp1961
g86
g87
ssg75
g1955
sg68
(lp1962
S'HTTP_CONNECTION'
p1963
asbag61
(g82
g63
NtRp1964
(dp1965
g66
(dp1966
g93
g94
ssg75
g1955
sg68
(lp1967
S':'
asbag61
(g82
g63
NtRp1968
(dp1969
g66
(dp1970
sg75
g1955
sg68
(lp1971
g61
(g62
g63
NtRp1972
(dp1973
g66
(dp1974
g74
I3
ssg75
g1968
sg68
(lp1975
g532
asbasbasbag61
(g77
g63
NtRp1976
(dp1977
g66
(dp1978
sg75
g1867
sg68
(lp1979
g61
(g82
g63
NtRp1980
(dp1981
g66
(dp1982
g86
g87
ssg75
g1976
sg68
(lp1983
S'HTTP_HOST'
p1984
asbag61
(g82
g63
NtRp1985
(dp1986
g66
(dp1987
g93
g94
ssg75
g1976
sg68
(lp1988
S':'
asbag61
(g82
g63
NtRp1989
(dp1990
g66
(dp1991
sg75
g1976
sg68
(lp1992
g61
(g62
g63
NtRp1993
(dp1994
g66
(dp1995
g74
I3
ssg75
g1989
sg68
(lp1996
g554
asbasbasbag61
(g77
g63
NtRp1997
(dp1998
g66
(dp1999
sg75
g1867
sg68
(lp2000
g61
(g82
g63
NtRp2001
(dp2002
g66
(dp2003
g86
g87
ssg75
g1997
sg68
(lp2004
S'HTTP_USER_AGENT'
p2005
asbag61
(g82
g63
NtRp2006
(dp2007
g66
(dp2008
g93
g94
ssg75
g1997
sg68
(lp2009
S':'
asbag61
(g82
g63
NtRp2010
(dp2011
g66
(dp2012
sg75
g1997
sg68
(lp2013
g61
(g62
g63
NtRp2014
(dp2015
g66
(dp2016
g74
I3
ssg75
g2010
sg68
(lp2017
g576
asbasbasbag61
(g77
g63
NtRp2018
(dp2019
g66
(dp2020
sg75
g1867
sg68
(lp2021
g61
(g82
g63
NtRp2022
(dp2023
g66
(dp2024
g86
g87
ssg75
g2018
sg68
(lp2025
S'PATH_INFO'
p2026
asbag61
(g82
g63
NtRp2027
(dp2028
g66
(dp2029
g93
g94
ssg75
g2018
sg68
(lp2030
S':'
asbag61
(g82
g63
NtRp2031
(dp2032
g66
(dp2033
sg75
g2018
sg68
(lp2034
g61
(g62
g63
NtRp2035
(dp2036
g66
(dp2037
g74
I3
ssg75
g2031
sg68
(lp2038
g640
asbasbasbag61
(g77
g63
NtRp2039
(dp2040
g66
(dp2041
sg75
g1867
sg68
(lp2042
g61
(g82
g63
NtRp2043
(dp2044
g66
(dp2045
g86
g87
ssg75
g2039
sg68
(lp2046
S'QUERY_STRING'
p2047
asbag61
(g82
g63
NtRp2048
(dp2049
g66
(dp2050
g93
g94
ssg75
g2039
sg68
(lp2051
S':'
asbag61
(g82
g63
NtRp2052
(dp2053
g66
(dp2054
sg75
g2039
sg68
(lp2055
g61
(g62
g63
NtRp2056
(dp2057
g66
(dp2058
g74
I3
ssg75
g2052
sg68
(lp2059
S''
asbasbasbag61
(g77
g63
NtRp2060
(dp2061
g66
(dp2062
sg75
g1867
sg68
(lp2063
g61
(g82
g63
NtRp2064
(dp2065
g66
(dp2066
g86
g87
ssg75
g2060
sg68
(lp2067
S'REMOTE_ADDR'
p2068
asbag61
(g82
g63
NtRp2069
(dp2070
g66
(dp2071
g93
g94
ssg75
g2060
sg68
(lp2072
S':'
asbag61
(g82
g63
NtRp2073
(dp2074
g66
(dp2075
sg75
g2060
sg68
(lp2076
g61
(g62
g63
NtRp2077
(dp2078
g66
(dp2079
g74
I3
ssg75
g2073
sg68
(lp2080
g194
asbasbasbag61
(g77
g63
NtRp2081
(dp2082
g66
(dp2083
sg75
g1867
sg68
(lp2084
g61
(g82
g63
NtRp2085
(dp2086
g66
(dp2087
g86
g87
ssg75
g2081
sg68
(lp2088
S'REMOTE_PORT'
p2089
asbag61
(g82
g63
NtRp2090
(dp2091
g66
(dp2092
g93
g94
ssg75
g2081
sg68
(lp2093
S':'
asbag61
(g82
g63
NtRp2094
(dp2095
g66
(dp2096
sg75
g2081
sg68
(lp2097
g61
(g62
g63
NtRp2098
(dp2099
g66
(dp2100
g74
I3
ssg75
g2094
sg68
(lp2101
g704
asbasbasbag61
(g77
g63
NtRp2102
(dp2103
g66
(dp2104
sg75
g1867
sg68
(lp2105
g61
(g82
g63
NtRp2106
(dp2107
g66
(dp2108
g86
g87
ssg75
g2102
sg68
(lp2109
S'REQUEST_METHOD'
p2110
asbag61
(g82
g63
NtRp2111
(dp2112
g66
(dp2113
g93
g94
ssg75
g2102
sg68
(lp2114
S':'
asbag61
(g82
g63
NtRp2115
(dp2116
g66
(dp2117
sg75
g2102
sg68
(lp2118
g61
(g62
g63
NtRp2119
(dp2120
g66
(dp2121
g74
I3
ssg75
g2115
sg68
(lp2122
g726
asbasbasbag61
(g77
g63
NtRp2123
(dp2124
g66
(dp2125
sg75
g1867
sg68
(lp2126
g61
(g82
g63
NtRp2127
(dp2128
g66
(dp2129
g86
g87
ssg75
g2123
sg68
(lp2130
S'REQUEST_URI'
p2131
asbag61
(g82
g63
NtRp2132
(dp2133
g66
(dp2134
g93
g94
ssg75
g2123
sg68
(lp2135
S':'
asbag61
(g82
g63
NtRp2136
(dp2137
g66
(dp2138
sg75
g2123
sg68
(lp2139
g61
(g62
g63
NtRp2140
(dp2141
g66
(dp2142
g74
I3
ssg75
g2136
sg68
(lp2143
g748
asbasbasbag61
(g77
g63
NtRp2144
(dp2145
g66
(dp2146
sg75
g1867
sg68
(lp2147
g61
(g82
g63
NtRp2148
(dp2149
g66
(dp2150
g86
g87
ssg75
g2144
sg68
(lp2151
S'SCRIPT_NAME'
p2152
asbag61
(g82
g63
NtRp2153
(dp2154
g66
(dp2155
g93
g94
ssg75
g2144
sg68
(lp2156
S':'
asbag61
(g82
g63
NtRp2157
(dp2158
g66
(dp2159
sg75
g2144
sg68
(lp2160
g61
(g62
g63
NtRp2161
(dp2162
g66
(dp2163
g74
I3
ssg75
g2157
sg68
(lp2164
S''
asbasbasbag61
(g77
g63
NtRp2165
(dp2166
g66
(dp2167
sg75
g1867
sg68
(lp2168
g61
(g82
g63
NtRp2169
(dp2170
g66
(dp2171
g86
g87
ssg75
g2165
sg68
(lp2172
S'SERVER_NAME'
p2173
asbag61
(g82
g63
NtRp2174
(dp2175
g66
(dp2176
g93
g94
ssg75
g2165
sg68
(lp2177
S':'
asbag61
(g82
g63
NtRp2178
(dp2179
g66
(dp2180
sg75
g2165
sg68
(lp2181
g61
(g62
g63
NtRp2182
(dp2183
g66
(dp2184
g74
I3
ssg75
g2178
sg68
(lp2185
g791
asbasbasbag61
(g77
g63
NtRp2186
(dp2187
g66
(dp2188
sg75
g1867
sg68
(lp2189
g61
(g82
g63
NtRp2190
(dp2191
g66
(dp2192
g86
g87
ssg75
g2186
sg68
(lp2193
S'SERVER_PORT'
p2194
asbag61
(g82
g63
NtRp2195
(dp2196
g66
(dp2197
g93
g94
ssg75
g2186
sg68
(lp2198
S':'
asbag61
(g82
g63
NtRp2199
(dp2200
g66
(dp2201
sg75
g2186
sg68
(lp2202
g61
(g62
g63
NtRp2203
(dp2204
g66
(dp2205
g74
I3
ssg75
g2199
sg68
(lp2206
g813
asbasbasbag61
(g77
g63
NtRp2207
(dp2208
g66
(dp2209
sg75
g1867
sg68
(lp2210
g61
(g82
g63
NtRp2211
(dp2212
g66
(dp2213
g86
g87
ssg75
g2207
sg68
(lp2214
S'SERVER_PROTOCOL'
p2215
asbag61
(g82
g63
NtRp2216
(dp2217
g66
(dp2218
g93
g94
ssg75
g2207
sg68
(lp2219
S':'
asbag61
(g82
g63
NtRp2220
(dp2221
g66
(dp2222
sg75
g2207
sg68
(lp2223
g61
(g62
g63
NtRp2224
(dp2225
g66
(dp2226
g74
I3
ssg75
g2220
sg68
(lp2227
g835
asbasbasbag61
(g77
g63
NtRp2228
(dp2229
g66
(dp2230
sg75
g1867
sg68
(lp2231
g61
(g82
g63
NtRp2232
(dp2233
g66
(dp2234
g86
g87
ssg75
g2228
sg68
(lp2235
S'SERVER_SOFTWARE'
p2236
asbag61
(g82
g63
NtRp2237
(dp2238
g66
(dp2239
g93
g94
ssg75
g2228
sg68
(lp2240
S':'
asbag61
(g82
g63
NtRp2241
(dp2242
g66
(dp2243
sg75
g2228
sg68
(lp2244
g61
(g62
g63
NtRp2245
(dp2246
g66
(dp2247
g74
I3
ssg75
g2241
sg68
(lp2248
g857
asbasbasbag61
(g77
g63
NtRp2249
(dp2250
g66
(dp2251
sg75
g1867
sg68
(lp2252
g61
(g82
g63
NtRp2253
(dp2254
g66
(dp2255
g86
g87
ssg75
g2249
sg68
(lp2256
S'WEB2PY_ORIGINAL_URI'
p2257
asbag61
(g82
g63
NtRp2258
(dp2259
g66
(dp2260
g93
g94
ssg75
g2249
sg68
(lp2261
S':'
asbag61
(g82
g63
NtRp2262
(dp2263
g66
(dp2264
sg75
g2249
sg68
(lp2265
g61
(g62
g63
NtRp2266
(dp2267
g66
(dp2268
g74
I3
ssg75
g2262
sg68
(lp2269
g640
asbasbasbag61
(g77
g63
NtRp2270
(dp2271
g66
(dp2272
sg75
g1867
sg68
(lp2273
g61
(g82
g63
NtRp2274
(dp2275
g66
(dp2276
g86
g87
ssg75
g2270
sg68
(lp2277
S'wsgi.errors'
p2278
asbag61
(g82
g63
NtRp2279
(dp2280
g66
(dp2281
g93
g94
ssg75
g2270
sg68
(lp2282
S':'
asbag61
(g82
g63
NtRp2283
(dp2284
g66
(dp2285
sg75
g2270
sg68
(lp2286
g61
(g62
g63
NtRp2287
(dp2288
g66
(dp2289
g74
I3
ssg75
g2283
sg68
(lp2290
S"<open file '<stderr>', mode 'w' at 0x4220b0>"
p2291
asbasbasbag61
(g77
g63
NtRp2292
(dp2293
g66
(dp2294
sg75
g1867
sg68
(lp2295
g61
(g82
g63
NtRp2296
(dp2297
g66
(dp2298
g86
g87
ssg75
g2292
sg68
(lp2299
S'wsgi.file_wrapper'
p2300
asbag61
(g82
g63
NtRp2301
(dp2302
g66
(dp2303
g93
g94
ssg75
g2292
sg68
(lp2304
S':'
asbag61
(g82
g63
NtRp2305
(dp2306
g66
(dp2307
sg75
g2292
sg68
(lp2308
g61
(g62
g63
NtRp2309
(dp2310
g66
(dp2311
g74
I3
ssg75
g2305
sg68
(lp2312
S'<class wsgiref.util.FileWrapper at 0x215e6c0>'
p2313
asbasbasbag61
(g77
g63
NtRp2314
(dp2315
g66
(dp2316
sg75
g1867
sg68
(lp2317
g61
(g82
g63
NtRp2318
(dp2319
g66
(dp2320
g86
g87
ssg75
g2314
sg68
(lp2321
S'wsgi.input'
p2322
asbag61
(g82
g63
NtRp2323
(dp2324
g66
(dp2325
g93
g94
ssg75
g2314
sg68
(lp2326
S':'
asbag61
(g82
g63
NtRp2327
(dp2328
g66
(dp2329
sg75
g2314
sg68
(lp2330
g61
(g62
g63
NtRp2331
(dp2332
g66
(dp2333
g74
I3
ssg75
g2327
sg68
(lp2334
S'<cStringIO.StringO object at 0xa4fb020>'
p2335
asbasbasbag61
(g77
g63
NtRp2336
(dp2337
g66
(dp2338
sg75
g1867
sg68
(lp2339
g61
(g82
g63
NtRp2340
(dp2341
g66
(dp2342
g86
g87
ssg75
g2336
sg68
(lp2343
S'wsgi.multiprocess'
p2344
asbag61
(g82
g63
NtRp2345
(dp2346
g66
(dp2347
g93
g94
ssg75
g2336
sg68
(lp2348
S':'
asbag61
(g82
g63
NtRp2349
(dp2350
g66
(dp2351
sg75
g2336
sg68
(lp2352
g61
(g62
g63
NtRp2353
(dp2354
g66
(dp2355
g74
I3
ssg75
g2349
sg68
(lp2356
g104
asbasbasbag61
(g77
g63
NtRp2357
(dp2358
g66
(dp2359
sg75
g1867
sg68
(lp2360
g61
(g82
g63
NtRp2361
(dp2362
g66
(dp2363
g86
g87
ssg75
g2357
sg68
(lp2364
S'wsgi.multithread'
p2365
asbag61
(g82
g63
NtRp2366
(dp2367
g66
(dp2368
g93
g94
ssg75
g2357
sg68
(lp2369
S':'
asbag61
(g82
g63
NtRp2370
(dp2371
g66
(dp2372
sg75
g2357
sg68
(lp2373
g61
(g62
g63
NtRp2374
(dp2375
g66
(dp2376
g74
I3
ssg75
g2370
sg68
(lp2377
g1118
asbasbasbag61
(g77
g63
NtRp2378
(dp2379
g66
(dp2380
sg75
g1867
sg68
(lp2381
g61
(g82
g63
NtRp2382
(dp2383
g66
(dp2384
g86
g87
ssg75
g2378
sg68
(lp2385
S'wsgi.run_once'
p2386
asbag61
(g82
g63
NtRp2387
(dp2388
g66
(dp2389
g93
g94
ssg75
g2378
sg68
(lp2390
S':'
asbag61
(g82
g63
NtRp2391
(dp2392
g66
(dp2393
sg75
g2378
sg68
(lp2394
g61
(g62
g63
NtRp2395
(dp2396
g66
(dp2397
g74
I3
ssg75
g2391
sg68
(lp2398
g104
asbasbasbag61
(g77
g63
NtRp2399
(dp2400
g66
(dp2401
sg75
g1867
sg68
(lp2402
g61
(g82
g63
NtRp2403
(dp2404
g66
(dp2405
g86
g87
ssg75
g2399
sg68
(lp2406
S'wsgi.url_scheme'
p2407
asbag61
(g82
g63
NtRp2408
(dp2409
g66
(dp2410
g93
g94
ssg75
g2399
sg68
(lp2411
S':'
asbag61
(g82
g63
NtRp2412
(dp2413
g66
(dp2414
sg75
g2399
sg68
(lp2415
g61
(g62
g63
NtRp2416
(dp2417
g66
(dp2418
g74
I3
ssg75
g2412
sg68
(lp2419
g1161
asbasbasbag61
(g77
g63
NtRp2420
(dp2421
g66
(dp2422
sg75
g1867
sg68
(lp2423
g61
(g82
g63
NtRp2424
(dp2425
g66
(dp2426
g86
g87
ssg75
g2420
sg68
(lp2427
S'wsgi.version'
p2428
asbag61
(g82
g63
NtRp2429
(dp2430
g66
(dp2431
g93
g94
ssg75
g2420
sg68
(lp2432
S':'
asbag61
(g82
g63
NtRp2433
(dp2434
g66
(dp2435
sg75
g2420
sg68
(lp2436
g61
(g62
g63
NtRp2437
(dp2438
g66
(dp2439
g74
I3
ssg75
g2433
sg68
(lp2440
S'1'
asbasbasbasbasbasbasbasbasbasbasbasbasbsS'frames'
p2441
(lp2442
(dp2443
S'file'
p2444
S'/users/udimilo/Documents/web2py/gluon/restricted.py'
p2445
sS'dump'
p2446
(dp2447
S'code'
p2448
S"'# coding: utf8\\nimport re\\nimport time\\nfrom readab...ew_pin.id\\n\\nresponse._vars=response._caller(test)\\n'"
p2449
sS'layer'
p2450
S"'/Users/udimilo/Documents/web2py/applications/udi0312/controllers/api.py'"
p2451
sS'global compile2'
p2452
S'<function compile2 at 0x20e1cf0>'
p2453
sS'ccode'
p2454
S'undefined'
p2455
ssS'lnum'
p2456
I204
sS'lines'
p2457
(dp2458
I199
S"    environment['__name__'] = '__restricted__'"
p2459
sI200
S'    try:'
p2460
sI201
S'        if type(code) == types.CodeType:'
p2461
sI202
S'            ccode = code'
p2462
sI203
S'        else:'
p2463
sI204
S'            ccode = compile2(code,layer)'
p2464
sI205
S'        exec ccode in environment'
p2465
sI206
S'    except HTTP:'
p2466
sI207
S'        raise'
p2467
sI208
S'    except RestrictedError:'
p2468
ssS'call'
p2469
S"(code='# coding: utf8\\nimport re\\nimport time\\nfrom readab...ew_pin.id\\n\\nresponse._vars=response._caller(test)\\n', environment={'A': <class 'gluon.html.A'>, 'Auth': <class 'gluon.tools.Auth'>, 'B': <class 'gluon.html.B'>, 'BEAUTIFY': <class 'gluon.html.BEAUTIFY'>, 'BODY': <class 'gluon.html.BODY'>, 'BR': <class 'gluon.html.BR'>, 'BUTTON': <class 'gluon.html.BUTTON'>, 'CAT': <class 'gluon.html.CAT'>, 'CENTER': <class 'gluon.html.CENTER'>, 'CLEANUP': <class 'gluon.validators.CLEANUP'>, ...}, layer='/Users/udimilo/Documents/web2py/applications/udi0312/controllers/api.py')"
p2470
sS'func'
p2471
S'restricted'
p2472
sa(dp2473
g2444
S'/users/udimilo/Documents/web2py/gluon/restricted.py'
p2474
sg2446
(dp2475
S'builtincompile'
p2476
S'<built-in function compile>'
p2477
sS'code'
p2478
S"'# coding: utf8\\nimport re\\nimport time\\nfrom readab...ew_pin.id\\n\\nresponse._vars=response._caller(test)\\n'"
p2479
sS'code.rstrip'
p2480
S'<built-in method rstrip of str object at 0xdd2000>'
p2481
sS').replace'
p2482
g2455
sS'layer'
p2483
S"'/Users/udimilo/Documents/web2py/applications/udi0312/controllers/api.py'"
p2484
ssg2456
I189
sg2457
(dp2485
I192
S'    """'
p2486
sI193
S'    runs code in environment and returns the output. if an exception occurs'
p2487
sI184
S''
sI185
S'def compile2(code,layer):'
p2488
sI186
S'    """'
p2489
sI187
S"    The +'\\n' is necessary else compile fails when code ends in a comment."
p2490
sI188
S'    """'
p2491
sI189
S"    return compile(code.rstrip().replace('\\r\\n','\\n')+'\\n', layer, 'exec')"
p2492
sI190
S''
sI191
S"def restricted(code, environment=None, layer='Unknown'):"
p2493
ssg2469
S"(code='# coding: utf8\\nimport re\\nimport time\\nfrom readab...ew_pin.id\\n\\nresponse._vars=response._caller(test)\\n', layer='/Users/udimilo/Documents/web2py/applications/udi0312/controllers/api.py')"
p2494
sg2471
S'compile2'
p2495
sasS'pyver'
p2496
S'Python 2.5.4: /Library/Frameworks/Python.framework/Versions/2.5/Resources/Python.app/Contents/MacOS/Python'
p2497
sS'session'
p2498
g61
(g62
g63
NtRp2499
(dp2500
g66
(dp2501
sg68
(lp2502
g61
(g70
g63
NtRp2503
(dp2504
g66
(dp2505
g74
I5
ssg75
Nsg68
(lp2506
sbasbsS'etype'
p2507
S"<type 'exceptions.SyntaxError'>"
p2508
sS'date'
p2509
S'Sat Mar 24 11:38:17 2012'
p2510
sS'response'
p2511
g61
(g62
g63
NtRp2512
(dp2513
g66
(dp2514
sg68
(lp2515
g61
(g70
g63
NtRp2516
(dp2517
g66
(dp2518
g74
I5
ssg75
Nsg68
(lp2519
g61
(g77
g63
NtRp2520
(dp2521
g66
(dp2522
sg75
g2516
sg68
(lp2523
g61
(g82
g63
NtRp2524
(dp2525
g66
(dp2526
g86
g87
ssg75
g2520
sg68
(lp2527
g159
asbag61
(g82
g63
NtRp2528
(dp2529
g66
(dp2530
g93
g94
ssg75
g2520
sg68
(lp2531
S':'
asbag61
(g82
g63
NtRp2532
(dp2533
g66
(dp2534
sg75
g2520
sg68
(lp2535
g61
(g62
g63
NtRp2536
(dp2537
g66
(dp2538
g74
I5
ssg75
g2532
sg68
(lp2539
S'<cStringIO.StringO object at 0xa911ca0>'
p2540
asbasbasbag61
(g77
g63
NtRp2541
(dp2542
g66
(dp2543
sg75
g2516
sg68
(lp2544
g61
(g82
g63
NtRp2545
(dp2546
g66
(dp2547
g86
g87
ssg75
g2541
sg68
(lp2548
g225
asbag61
(g82
g63
NtRp2549
(dp2550
g66
(dp2551
g93
g94
ssg75
g2541
sg68
(lp2552
S':'
asbag61
(g82
g63
NtRp2553
(dp2554
g66
(dp2555
sg75
g2541
sg68
(lp2556
g61
(g62
g63
NtRp2557
(dp2558
g66
(dp2559
g74
I5
ssg75
g2553
sg68
(lp2560
g61
(g70
g63
NtRp2561
(dp2562
g66
(dp2563
g74
I4
ssg75
Nsg68
(lp2564
g61
(g77
g63
NtRp2565
(dp2566
g66
(dp2567
sg75
g2561
sg68
(lp2568
g61
(g82
g63
NtRp2569
(dp2570
g66
(dp2571
g86
g87
ssg75
g2565
sg68
(lp2572
S'session_id_udi0312'
p2573
asbag61
(g82
g63
NtRp2574
(dp2575
g66
(dp2576
g93
g94
ssg75
g2565
sg68
(lp2577
S':'
asbag61
(g82
g63
NtRp2578
(dp2579
g66
(dp2580
sg75
g2565
sg68
(lp2581
g61
(g62
g63
NtRp2582
(dp2583
g66
(dp2584
g74
I4
ssg75
g2578
sg68
(lp2585
g61
(g70
g63
NtRp2586
(dp2587
g66
(dp2588
g74
I3
ssg75
Nsg68
(lp2589
g61
(g77
g63
NtRp2590
(dp2591
g66
(dp2592
sg75
g2586
sg68
(lp2593
g61
(g82
g63
NtRp2594
(dp2595
g66
(dp2596
g86
g87
ssg75
g2590
sg68
(lp2597
S'comment'
p2598
asbag61
(g82
g63
NtRp2599
(dp2600
g66
(dp2601
g93
g94
ssg75
g2590
sg68
(lp2602
S':'
asbag61
(g82
g63
NtRp2603
(dp2604
g66
(dp2605
sg75
g2590
sg68
(lp2606
g61
(g62
g63
NtRp2607
(dp2608
g66
(dp2609
g74
I3
ssg75
g2603
sg68
(lp2610
S''
asbasbasbag61
(g77
g63
NtRp2611
(dp2612
g66
(dp2613
sg75
g2586
sg68
(lp2614
g61
(g82
g63
NtRp2615
(dp2616
g66
(dp2617
g86
g87
ssg75
g2611
sg68
(lp2618
S'domain'
p2619
asbag61
(g82
g63
NtRp2620
(dp2621
g66
(dp2622
g93
g94
ssg75
g2611
sg68
(lp2623
S':'
asbag61
(g82
g63
NtRp2624
(dp2625
g66
(dp2626
sg75
g2611
sg68
(lp2627
g61
(g62
g63
NtRp2628
(dp2629
g66
(dp2630
g74
I3
ssg75
g2624
sg68
(lp2631
S''
asbasbasbag61
(g77
g63
NtRp2632
(dp2633
g66
(dp2634
sg75
g2586
sg68
(lp2635
g61
(g82
g63
NtRp2636
(dp2637
g66
(dp2638
g86
g87
ssg75
g2632
sg68
(lp2639
S'expires'
p2640
asbag61
(g82
g63
NtRp2641
(dp2642
g66
(dp2643
g93
g94
ssg75
g2632
sg68
(lp2644
S':'
asbag61
(g82
g63
NtRp2645
(dp2646
g66
(dp2647
sg75
g2632
sg68
(lp2648
g61
(g62
g63
NtRp2649
(dp2650
g66
(dp2651
g74
I3
ssg75
g2645
sg68
(lp2652
S''
asbasbasbag61
(g77
g63
NtRp2653
(dp2654
g66
(dp2655
sg75
g2586
sg68
(lp2656
g61
(g82
g63
NtRp2657
(dp2658
g66
(dp2659
g86
g87
ssg75
g2653
sg68
(lp2660
S'max-age'
p2661
asbag61
(g82
g63
NtRp2662
(dp2663
g66
(dp2664
g93
g94
ssg75
g2653
sg68
(lp2665
S':'
asbag61
(g82
g63
NtRp2666
(dp2667
g66
(dp2668
sg75
g2653
sg68
(lp2669
g61
(g62
g63
NtRp2670
(dp2671
g66
(dp2672
g74
I3
ssg75
g2666
sg68
(lp2673
S''
asbasbasbag61
(g77
g63
NtRp2674
(dp2675
g66
(dp2676
sg75
g2586
sg68
(lp2677
g61
(g82
g63
NtRp2678
(dp2679
g66
(dp2680
g86
g87
ssg75
g2674
sg68
(lp2681
S'path'
p2682
asbag61
(g82
g63
NtRp2683
(dp2684
g66
(dp2685
g93
g94
ssg75
g2674
sg68
(lp2686
S':'
asbag61
(g82
g63
NtRp2687
(dp2688
g66
(dp2689
sg75
g2674
sg68
(lp2690
g61
(g62
g63
NtRp2691
(dp2692
g66
(dp2693
g74
I3
ssg75
g2687
sg68
(lp2694
S'/'
asbasbasbag61
(g77
g63
NtRp2695
(dp2696
g66
(dp2697
sg75
g2586
sg68
(lp2698
g61
(g82
g63
NtRp2699
(dp2700
g66
(dp2701
g86
g87
ssg75
g2695
sg68
(lp2702
S'secure'
p2703
asbag61
(g82
g63
NtRp2704
(dp2705
g66
(dp2706
g93
g94
ssg75
g2695
sg68
(lp2707
S':'
asbag61
(g82
g63
NtRp2708
(dp2709
g66
(dp2710
sg75
g2695
sg68
(lp2711
g61
(g62
g63
NtRp2712
(dp2713
g66
(dp2714
g74
I3
ssg75
g2708
sg68
(lp2715
S''
asbasbasbag61
(g77
g63
NtRp2716
(dp2717
g66
(dp2718
sg75
g2586
sg68
(lp2719
g61
(g82
g63
NtRp2720
(dp2721
g66
(dp2722
g86
g87
ssg75
g2716
sg68
(lp2723
S'version'
p2724
asbag61
(g82
g63
NtRp2725
(dp2726
g66
(dp2727
g93
g94
ssg75
g2716
sg68
(lp2728
S':'
asbag61
(g82
g63
NtRp2729
(dp2730
g66
(dp2731
sg75
g2716
sg68
(lp2732
g61
(g62
g63
NtRp2733
(dp2734
g66
(dp2735
g74
I3
ssg75
g2729
sg68
(lp2736
S''
asbasbasbasbasbasbasbasbasbasbasbag61
(g77
g63
NtRp2737
(dp2738
g66
(dp2739
sg75
g2516
sg68
(lp2740
g61
(g82
g63
NtRp2741
(dp2742
g66
(dp2743
g86
g87
ssg75
g2737
sg68
(lp2744
S'delimiters'
p2745
asbag61
(g82
g63
NtRp2746
(dp2747
g66
(dp2748
g93
g94
ssg75
g2737
sg68
(lp2749
S':'
asbag61
(g82
g63
NtRp2750
(dp2751
g66
(dp2752
sg75
g2737
sg68
(lp2753
g61
(g62
g63
NtRp2754
(dp2755
g66
(dp2756
g74
I5
ssg75
g2750
sg68
(lp2757
g61
(g70
g63
NtRp2758
(dp2759
g66
(dp2760
g74
I4
ssg75
Nsg68
(lp2761
g61
(g77
g63
NtRp2762
(dp2763
g66
(dp2764
sg75
g2758
sg68
(lp2765
g61
(g82
g63
NtRp2766
(dp2767
g66
(dp2768
sg75
g2762
sg68
(lp2769
g61
(g62
g63
NtRp2770
(dp2771
g66
(dp2772
g74
I4
ssg75
g2766
sg68
(lp2773
S'{{'
p2774
asbasbasbag61
(g77
g63
NtRp2775
(dp2776
g66
(dp2777
sg75
g2758
sg68
(lp2778
g61
(g82
g63
NtRp2779
(dp2780
g66
(dp2781
sg75
g2775
sg68
(lp2782
g61
(g62
g63
NtRp2783
(dp2784
g66
(dp2785
g74
I4
ssg75
g2779
sg68
(lp2786
S'}}'
p2787
asbasbasbasbasbasbasbag61
(g77
g63
NtRp2788
(dp2789
g66
(dp2790
sg75
g2516
sg68
(lp2791
g61
(g82
g63
NtRp2792
(dp2793
g66
(dp2794
g86
g87
ssg75
g2788
sg68
(lp2795
S'files'
p2796
asbag61
(g82
g63
NtRp2797
(dp2798
g66
(dp2799
g93
g94
ssg75
g2788
sg68
(lp2800
S':'
asbag61
(g82
g63
NtRp2801
(dp2802
g66
(dp2803
sg75
g2788
sg68
(lp2804
g61
(g62
g63
NtRp2805
(dp2806
g66
(dp2807
g74
I5
ssg75
g2801
sg68
(lp2808
g61
(g70
g63
NtRp2809
(dp2810
g66
(dp2811
g74
I4
ssg75
Nsg68
(lp2812
sbasbasbasbag61
(g77
g63
NtRp2813
(dp2814
g66
(dp2815
sg75
g2516
sg68
(lp2816
g61
(g82
g63
NtRp2817
(dp2818
g66
(dp2819
g86
g87
ssg75
g2813
sg68
(lp2820
S'flash'
p2821
asbag61
(g82
g63
NtRp2822
(dp2823
g66
(dp2824
g93
g94
ssg75
g2813
sg68
(lp2825
S':'
asbag61
(g82
g63
NtRp2826
(dp2827
g66
(dp2828
sg75
g2813
sg68
(lp2829
g61
(g62
g63
NtRp2830
(dp2831
g66
(dp2832
g74
I5
ssg75
g2826
sg68
(lp2833
S''
asbasbasbag61
(g77
g63
NtRp2834
(dp2835
g66
(dp2836
sg75
g2516
sg68
(lp2837
g61
(g82
g63
NtRp2838
(dp2839
g66
(dp2840
g86
g87
ssg75
g2834
sg68
(lp2841
S'generic_patterns'
p2842
asbag61
(g82
g63
NtRp2843
(dp2844
g66
(dp2845
g93
g94
ssg75
g2834
sg68
(lp2846
S':'
asbag61
(g82
g63
NtRp2847
(dp2848
g66
(dp2849
sg75
g2834
sg68
(lp2850
g61
(g62
g63
NtRp2851
(dp2852
g66
(dp2853
g74
I5
ssg75
g2847
sg68
(lp2854
g61
(g70
g63
NtRp2855
(dp2856
g66
(dp2857
g74
I4
ssg75
Nsg68
(lp2858
g61
(g77
g63
NtRp2859
(dp2860
g66
(dp2861
sg75
g2855
sg68
(lp2862
g61
(g82
g63
NtRp2863
(dp2864
g66
(dp2865
sg75
g2859
sg68
(lp2866
g61
(g62
g63
NtRp2867
(dp2868
g66
(dp2869
g74
I4
ssg75
g2863
sg68
(lp2870
S'*'
asbasbasbasbasbasbasbag61
(g77
g63
NtRp2871
(dp2872
g66
(dp2873
sg75
g2516
sg68
(lp2874
g61
(g82
g63
NtRp2875
(dp2876
g66
(dp2877
g86
g87
ssg75
g2871
sg68
(lp2878
S'headers'
p2879
asbag61
(g82
g63
NtRp2880
(dp2881
g66
(dp2882
g93
g94
ssg75
g2871
sg68
(lp2883
S':'
asbag61
(g82
g63
NtRp2884
(dp2885
g66
(dp2886
sg75
g2871
sg68
(lp2887
g61
(g62
g63
NtRp2888
(dp2889
g66
(dp2890
g74
I5
ssg75
g2884
sg68
(lp2891
g61
(g70
g63
NtRp2892
(dp2893
g66
(dp2894
g74
I4
ssg75
Nsg68
(lp2895
g61
(g77
g63
NtRp2896
(dp2897
g66
(dp2898
sg75
g2892
sg68
(lp2899
g61
(g82
g63
NtRp2900
(dp2901
g66
(dp2902
g86
g87
ssg75
g2896
sg68
(lp2903
S'Cache-Control'
p2904
asbag61
(g82
g63
NtRp2905
(dp2906
g66
(dp2907
g93
g94
ssg75
g2896
sg68
(lp2908
S':'
asbag61
(g82
g63
NtRp2909
(dp2910
g66
(dp2911
sg75
g2896
sg68
(lp2912
g61
(g62
g63
NtRp2913
(dp2914
g66
(dp2915
g74
I4
ssg75
g2909
sg68
(lp2916
S'no-store, no-cache, must-revalidate, post-check=0, pre-check=0'
p2917
asbasbasbag61
(g77
g63
NtRp2918
(dp2919
g66
(dp2920
sg75
g2892
sg68
(lp2921
g61
(g82
g63
NtRp2922
(dp2923
g66
(dp2924
g86
g87
ssg75
g2918
sg68
(lp2925
S'Content-Type'
p2926
asbag61
(g82
g63
NtRp2927
(dp2928
g66
(dp2929
g93
g94
ssg75
g2918
sg68
(lp2930
S':'
asbag61
(g82
g63
NtRp2931
(dp2932
g66
(dp2933
sg75
g2918
sg68
(lp2934
g61
(g62
g63
NtRp2935
(dp2936
g66
(dp2937
g74
I4
ssg75
g2931
sg68
(lp2938
S'text/html; charset=utf-8'
p2939
asbasbasbag61
(g77
g63
NtRp2940
(dp2941
g66
(dp2942
sg75
g2892
sg68
(lp2943
g61
(g82
g63
NtRp2944
(dp2945
g66
(dp2946
g86
g87
ssg75
g2940
sg68
(lp2947
S'Expires'
p2948
asbag61
(g82
g63
NtRp2949
(dp2950
g66
(dp2951
g93
g94
ssg75
g2940
sg68
(lp2952
S':'
asbag61
(g82
g63
NtRp2953
(dp2954
g66
(dp2955
sg75
g2940
sg68
(lp2956
g61
(g62
g63
NtRp2957
(dp2958
g66
(dp2959
g74
I4
ssg75
g2953
sg68
(lp2960
S'Sat, 24 Mar 2012 15:38:13 GMT'
p2961
asbasbasbag61
(g77
g63
NtRp2962
(dp2963
g66
(dp2964
sg75
g2892
sg68
(lp2965
g61
(g82
g63
NtRp2966
(dp2967
g66
(dp2968
g86
g87
ssg75
g2962
sg68
(lp2969
S'Pragma'
p2970
asbag61
(g82
g63
NtRp2971
(dp2972
g66
(dp2973
g93
g94
ssg75
g2962
sg68
(lp2974
S':'
asbag61
(g82
g63
NtRp2975
(dp2976
g66
(dp2977
sg75
g2962
sg68
(lp2978
g61
(g62
g63
NtRp2979
(dp2980
g66
(dp2981
g74
I4
ssg75
g2975
sg68
(lp2982
S'no-cache'
p2983
asbasbasbag61
(g77
g63
NtRp2984
(dp2985
g66
(dp2986
sg75
g2892
sg68
(lp2987
g61
(g82
g63
NtRp2988
(dp2989
g66
(dp2990
g86
g87
ssg75
g2984
sg68
(lp2991
S'X-Powered-By'
p2992
asbag61
(g82
g63
NtRp2993
(dp2994
g66
(dp2995
g93
g94
ssg75
g2984
sg68
(lp2996
S':'
asbag61
(g82
g63
NtRp2997
(dp2998
g66
(dp2999
sg75
g2984
sg68
(lp3000
g61
(g62
g63
NtRp3001
(dp3002
g66
(dp3003
g74
I4
ssg75
g2997
sg68
(lp3004
S'web2py'
p3005
asbasbasbasbasbasbasbag61
(g77
g63
NtRp3006
(dp3007
g66
(dp3008
sg75
g2516
sg68
(lp3009
g61
(g82
g63
NtRp3010
(dp3011
g66
(dp3012
g86
g87
ssg75
g3006
sg68
(lp3013
S'menu'
p3014
asbag61
(g82
g63
NtRp3015
(dp3016
g66
(dp3017
g93
g94
ssg75
g3006
sg68
(lp3018
S':'
asbag61
(g82
g63
NtRp3019
(dp3020
g66
(dp3021
sg75
g3006
sg68
(lp3022
g61
(g62
g63
NtRp3023
(dp3024
g66
(dp3025
g74
I5
ssg75
g3019
sg68
(lp3026
g61
(g70
g63
NtRp3027
(dp3028
g66
(dp3029
g74
I4
ssg75
Nsg68
(lp3030
g61
(g77
g63
NtRp3031
(dp3032
g66
(dp3033
sg75
g3027
sg68
(lp3034
g61
(g82
g63
NtRp3035
(dp3036
g66
(dp3037
sg75
g3031
sg68
(lp3038
g61
(g62
g63
NtRp3039
(dp3040
g66
(dp3041
g74
I4
ssg75
g3035
sg68
(lp3042
g61
(g70
g63
NtRp3043
(dp3044
g66
(dp3045
g74
I3
ssg75
Nsg68
(lp3046
g61
(g77
g63
NtRp3047
(dp3048
g66
(dp3049
sg75
g3043
sg68
(lp3050
g61
(g82
g63
NtRp3051
(dp3052
g66
(dp3053
sg75
g3047
sg68
(lp3054
g61
(g62
g63
NtRp3055
(dp3056
g66
(dp3057
g74
I3
ssg75
g3051
sg68
(lp3058
cgluon.languages
lazyT_unpickle
p3059
(S's\x04\x00\x00\x00Home'
tRp3060
asbasbasbag61
(g77
g63
NtRp3061
(dp3062
g66
(dp3063
sg75
g3043
sg68
(lp3064
g61
(g82
g63
NtRp3065
(dp3066
g66
(dp3067
sg75
g3061
sg68
(lp3068
g61
(g62
g63
NtRp3069
(dp3070
g66
(dp3071
g74
I3
ssg75
g3065
sg68
(lp3072
g104
asbasbasbag61
(g77
g63
NtRp3073
(dp3074
g66
(dp3075
sg75
g3043
sg68
(lp3076
g61
(g82
g63
NtRp3077
(dp3078
g66
(dp3079
sg75
g3073
sg68
(lp3080
g61
(g62
g63
NtRp3081
(dp3082
g66
(dp3083
g74
I3
ssg75
g3077
sg68
(lp3084
S'/'
asbasbasbag61
(g77
g63
NtRp3085
(dp3086
g66
(dp3087
sg75
g3043
sg68
(lp3088
g61
(g82
g63
NtRp3089
(dp3090
g66
(dp3091
sg75
g3085
sg68
(lp3092
g61
(g62
g63
NtRp3093
(dp3094
g66
(dp3095
g74
I3
ssg75
g3089
sg68
(lp3096
g61
(g70
g63
NtRp3097
(dp3098
g66
(dp3099
g74
I2
ssg75
Nsg68
(lp3100
sbasbasbasbasbasbasbasbag61
(g77
g63
NtRp3101
(dp3102
g66
(dp3103
sg75
g3027
sg68
(lp3104
g61
(g82
g63
NtRp3105
(dp3106
g66
(dp3107
sg75
g3101
sg68
(lp3108
g61
(g62
g63
NtRp3109
(dp3110
g66
(dp3111
g74
I4
ssg75
g3105
sg68
(lp3112
g61
(g70
g63
NtRp3113
(dp3114
g66
(dp3115
g74
I3
ssg75
Nsg68
(lp3116
g61
(g77
g63
NtRp3117
(dp3118
g66
(dp3119
sg75
g3113
sg68
(lp3120
g61
(g82
g63
NtRp3121
(dp3122
g66
(dp3123
sg75
g3117
sg68
(lp3124
g61
(g62
g63
NtRp3125
(dp3126
g66
(dp3127
g74
I3
ssg75
g3121
sg68
(lp3128
g61
(cgluon.html
SPAN
p3129
g63
NtRp3130
(dp3131
g66
(dp3132
g86
S'color:yellow'
p3133
ssg75
Nsg68
(lp3134
g3005
asbasbasbasbag61
(g77
g63
NtRp3135
(dp3136
g66
(dp3137
sg75
g3113
sg68
(lp3138
g61
(g82
g63
NtRp3139
(dp3140
g66
(dp3141
sg75
g3135
sg68
(lp3142
g61
(g62
g63
NtRp3143
(dp3144
g66
(dp3145
g74
I3
ssg75
g3139
sg68
(lp3146
g104
asbasbasbag61
(g77
g63
NtRp3147
(dp3148
g66
(dp3149
sg75
g3113
sg68
(lp3150
g61
(g82
g63
NtRp3151
(dp3152
g66
(dp3153
sg75
g3147
sg68
(lp3154
g61
(g62
g63
NtRp3155
(dp3156
g66
(dp3157
g74
I3
ssg75
g3151
sg68
(lp3158
S'None'
p3159
asbasbasbag61
(g77
g63
NtRp3160
(dp3161
g66
(dp3162
sg75
g3113
sg68
(lp3163
g61
(g82
g63
NtRp3164
(dp3165
g66
(dp3166
sg75
g3160
sg68
(lp3167
g61
(g62
g63
NtRp3168
(dp3169
g66
(dp3170
g74
I3
ssg75
g3164
sg68
(lp3171
g61
(g70
g63
NtRp3172
(dp3173
g66
(dp3174
g74
I2
ssg75
Nsg68
(lp3175
g61
(g77
g63
NtRp3176
(dp3177
g66
(dp3178
sg75
g3172
sg68
(lp3179
g61
(g82
g63
NtRp3180
(dp3181
g66
(dp3182
sg75
g3176
sg68
(lp3183
g61
(g62
g63
NtRp3184
(dp3185
g66
(dp3186
g74
I2
ssg75
g3180
sg68
(lp3187
g61
(g70
g63
NtRp3188
(dp3189
g66
(dp3190
g74
I1
ssg75
Nsg68
(lp3191
g61
(g77
g63
NtRp3192
(dp3193
g66
(dp3194
sg75
g3188
sg68
(lp3195
g61
(g82
g63
NtRp3196
(dp3197
g66
(dp3198
sg75
g3192
sg68
(lp3199
g61
(g62
g63
NtRp3200
(dp3201
g66
(dp3202
g74
I1
ssg75
g3196
sg68
(lp3203
g3059
(S's\x08\x00\x00\x00My Sites'
tRp3204
asbasbasbag61
(g77
g63
NtRp3205
(dp3206
g66
(dp3207
sg75
g3188
sg68
(lp3208
g61
(g82
g63
NtRp3209
(dp3210
g66
(dp3211
sg75
g3205
sg68
(lp3212
g61
(g62
g63
NtRp3213
(dp3214
g66
(dp3215
g74
I1
ssg75
g3209
sg68
(lp3216
I00
asbasbasbag61
(g77
g63
NtRp3217
(dp3218
g66
(dp3219
sg75
g3188
sg68
(lp3220
g61
(g82
g63
NtRp3221
(dp3222
g66
(dp3223
sg75
g3217
sg68
(lp3224
g61
(g62
g63
NtRp3225
(dp3226
g66
(dp3227
g74
I1
ssg75
g3221
sg68
(lp3228
S'/admin/site'
p3229
asbasbasbasbasbasbasbag61
(g77
g63
NtRp3230
(dp3231
g66
(dp3232
sg75
g3172
sg68
(lp3233
g61
(g82
g63
NtRp3234
(dp3235
g66
(dp3236
sg75
g3230
sg68
(lp3237
g61
(g62
g63
NtRp3238
(dp3239
g66
(dp3240
g74
I2
ssg75
g3234
sg68
(lp3241
g61
(g70
g63
NtRp3242
(dp3243
g66
(dp3244
g74
I1
ssg75
Nsg68
(lp3245
g61
(g77
g63
NtRp3246
(dp3247
g66
(dp3248
sg75
g3242
sg68
(lp3249
g61
(g82
g63
NtRp3250
(dp3251
g66
(dp3252
sg75
g3246
sg68
(lp3253
g61
(g62
g63
NtRp3254
(dp3255
g66
(dp3256
g74
I1
ssg75
g3250
sg68
(lp3257
g3059
(S's\x08\x00\x00\x00This App'
tRp3258
asbasbasbag61
(g77
g63
NtRp3259
(dp3260
g66
(dp3261
sg75
g3242
sg68
(lp3262
g61
(g82
g63
NtRp3263
(dp3264
g66
(dp3265
sg75
g3259
sg68
(lp3266
g61
(g62
g63
NtRp3267
(dp3268
g66
(dp3269
g74
I1
ssg75
g3263
sg68
(lp3270
I00
asbasbasbag61
(g77
g63
NtRp3271
(dp3272
g66
(dp3273
sg75
g3242
sg68
(lp3274
g61
(g82
g63
NtRp3275
(dp3276
g66
(dp3277
sg75
g3271
sg68
(lp3278
g61
(g62
g63
NtRp3279
(dp3280
g66
(dp3281
g74
I1
ssg75
g3275
sg68
(lp3282
S'/admin/design/udi0312'
p3283
asbasbasbag61
(g77
g63
NtRp3284
(dp3285
g66
(dp3286
sg75
g3242
sg68
(lp3287
g61
(g82
g63
NtRp3288
(dp3289
g66
(dp3290
sg75
g3284
sg68
(lp3291
g61
(g62
g63
NtRp3292
(dp3293
g66
(dp3294
g74
I1
ssg75
g3288
sg68
(lp3295
(lp3296
(g3059
(S's\n\x00\x00\x00Controller'
tRp3297
I00
S'/admin/edit/udi0312/controllers/api.py'
tp3298
a(g3059
(S's\x04\x00\x00\x00View'
tRp3299
I00
S'/admin/edit/udi0312/views/api/test.html'
tp3300
a(g3059
(S's\x06\x00\x00\x00Layout'
tRp3301
I00
S'/admin/edit/udi0312/views/layout.html'
tp3302
a(g3059
(S's\n\x00\x00\x00Stylesheet'
tRp3303
I00
S'/admin/edit/udi0312/static/css/web2py.css'
tp3304
a(g3059
(S's\x08\x00\x00\x00DB Model'
tRp3305
I00
S'/admin/edit/udi0312/models/db.py'
tp3306
a(g3059
(S's\n\x00\x00\x00Menu Model'
tRp3307
I00
S'/admin/edit/udi0312/models/menu.py'
tp3308
a(g3059
(S's\x08\x00\x00\x00Database'
tRp3309
I00
S'/appadmin'
tp3310
a(g3059
(S's\x06\x00\x00\x00Errors'
tRp3311
I00
S'/admin/errors/udi0312'
tp3312
a(g3059
(S's\x05\x00\x00\x00About'
tRp3313
I00
S'/admin/about/udi0312'
tp3314
aasbasbasbasbasbasbasbag61
(g77
g63
NtRp3315
(dp3316
g66
(dp3317
sg75
g3172
sg68
(lp3318
g61
(g82
g63
NtRp3319
(dp3320
g66
(dp3321
sg75
g3315
sg68
(lp3322
g61
(g62
g63
NtRp3323
(dp3324
g66
(dp3325
g74
I2
ssg75
g3319
sg68
(lp3326
g61
(g70
g63
NtRp3327
(dp3328
g66
(dp3329
g74
I1
ssg75
Nsg68
(lp3330
g61
(g77
g63
NtRp3331
(dp3332
g66
(dp3333
sg75
g3327
sg68
(lp3334
g61
(g82
g63
NtRp3335
(dp3336
g66
(dp3337
sg75
g3331
sg68
(lp3338
g61
(g62
g63
NtRp3339
(dp3340
g66
(dp3341
g74
I1
ssg75
g3335
sg68
(lp3342
S'web2py.com'
p3343
asbasbasbag61
(g77
g63
NtRp3344
(dp3345
g66
(dp3346
sg75
g3327
sg68
(lp3347
g61
(g82
g63
NtRp3348
(dp3349
g66
(dp3350
sg75
g3344
sg68
(lp3351
g61
(g62
g63
NtRp3352
(dp3353
g66
(dp3354
g74
I1
ssg75
g3348
sg68
(lp3355
I00
asbasbasbag61
(g77
g63
NtRp3356
(dp3357
g66
(dp3358
sg75
g3327
sg68
(lp3359
g61
(g82
g63
NtRp3360
(dp3361
g66
(dp3362
sg75
g3356
sg68
(lp3363
g61
(g62
g63
NtRp3364
(dp3365
g66
(dp3366
g74
I1
ssg75
g3360
sg68
(lp3367
S'http://www.web2py.com'
p3368
asbasbasbag61
(g77
g63
NtRp3369
(dp3370
g66
(dp3371
sg75
g3327
sg68
(lp3372
g61
(g82
g63
NtRp3373
(dp3374
g66
(dp3375
sg75
g3369
sg68
(lp3376
g61
(g62
g63
NtRp3377
(dp3378
g66
(dp3379
g74
I1
ssg75
g3373
sg68
(lp3380
(lp3381
(g3059
(S's\x08\x00\x00\x00Download'
tRp3382
I00
S'http://www.web2py.com/examples/default/download'
p3383
tp3384
a(g3059
(S's\x07\x00\x00\x00Support'
tRp3385
I00
S'http://www.web2py.com/examples/default/support'
p3386
tp3387
a(g3059
(S's\x04\x00\x00\x00Demo'
tRp3388
I00
S'http://web2py.com/demo_admin'
p3389
tp3390
a(g3059
(S's\x0e\x00\x00\x00Quick Examples'
tRp3391
I00
S'http://web2py.com/examples/default/examples'
p3392
tp3393
a(g3059
(S's\x03\x00\x00\x00FAQ'
tRp3394
I00
S'http://web2py.com/AlterEgo'
p3395
tp3396
a(g3059
(S's\x06\x00\x00\x00Videos'
tRp3397
I00
S'http://www.web2py.com/examples/default/videos/'
p3398
tp3399
a(g3059
(S's\x11\x00\x00\x00Free Applications'
tRp3400
I00
S'http://web2py.com/appliances'
p3401
tp3402
a(g3059
(S's\x07\x00\x00\x00Plugins'
tRp3403
I00
S'http://web2py.com/plugins'
p3404
tp3405
a(g3059
(S's\x07\x00\x00\x00Layouts'
tRp3406
I00
S'http://web2py.com/layouts'
p3407
tp3408
a(g3059
(S's\x07\x00\x00\x00Recipes'
tRp3409
I00
S'http://web2pyslices.com/'
p3410
tp3411
a(g3059
(S's\x08\x00\x00\x00Semantic'
tRp3412
I00
S'http://web2py.com/semantic'
p3413
tp3414
aasbasbasbasbasbasbasbag61
(g77
g63
NtRp3415
(dp3416
g66
(dp3417
sg75
g3172
sg68
(lp3418
g61
(g82
g63
NtRp3419
(dp3420
g66
(dp3421
sg75
g3415
sg68
(lp3422
g61
(g62
g63
NtRp3423
(dp3424
g66
(dp3425
g74
I2
ssg75
g3419
sg68
(lp3426
g61
(g70
g63
NtRp3427
(dp3428
g66
(dp3429
g74
I1
ssg75
Nsg68
(lp3430
g61
(g77
g63
NtRp3431
(dp3432
g66
(dp3433
sg75
g3427
sg68
(lp3434
g61
(g82
g63
NtRp3435
(dp3436
g66
(dp3437
sg75
g3431
sg68
(lp3438
g61
(g62
g63
NtRp3439
(dp3440
g66
(dp3441
g74
I1
ssg75
g3435
sg68
(lp3442
g3059
(S's\r\x00\x00\x00Documentation'
tRp3443
asbasbasbag61
(g77
g63
NtRp3444
(dp3445
g66
(dp3446
sg75
g3427
sg68
(lp3447
g61
(g82
g63
NtRp3448
(dp3449
g66
(dp3450
sg75
g3444
sg68
(lp3451
g61
(g62
g63
NtRp3452
(dp3453
g66
(dp3454
g74
I1
ssg75
g3448
sg68
(lp3455
I00
asbasbasbag61
(g77
g63
NtRp3456
(dp3457
g66
(dp3458
sg75
g3427
sg68
(lp3459
g61
(g82
g63
NtRp3460
(dp3461
g66
(dp3462
sg75
g3456
sg68
(lp3463
g61
(g62
g63
NtRp3464
(dp3465
g66
(dp3466
g74
I1
ssg75
g3460
sg68
(lp3467
S'http://www.web2py.com/book'
p3468
asbasbasbag61
(g77
g63
NtRp3469
(dp3470
g66
(dp3471
sg75
g3427
sg68
(lp3472
g61
(g82
g63
NtRp3473
(dp3474
g66
(dp3475
sg75
g3469
sg68
(lp3476
g61
(g62
g63
NtRp3477
(dp3478
g66
(dp3479
g74
I1
ssg75
g3473
sg68
(lp3480
(lp3481
(g3059
(S's\x07\x00\x00\x00Preface'
tRp3482
I00
S'http://www.web2py.com/book/default/chapter/00'
p3483
tp3484
a(g3059
(S's\x0c\x00\x00\x00Introduction'
tRp3485
I00
S'http://www.web2py.com/book/default/chapter/01'
p3486
tp3487
a(g3059
(S's\x06\x00\x00\x00Python'
tRp3488
I00
S'http://www.web2py.com/book/default/chapter/02'
p3489
tp3490
a(g3059
(S's\x08\x00\x00\x00Overview'
tRp3491
I00
S'http://www.web2py.com/book/default/chapter/03'
p3492
tp3493
a(g3059
(S's\x08\x00\x00\x00The Core'
tRp3494
I00
S'http://www.web2py.com/book/default/chapter/04'
p3495
tp3496
a(g3059
(S's\t\x00\x00\x00The Views'
tRp3497
I00
S'http://www.web2py.com/book/default/chapter/05'
p3498
tp3499
a(g3059
(S's\x08\x00\x00\x00Database'
tRp3500
I00
S'http://www.web2py.com/book/default/chapter/06'
p3501
tp3502
a(g3059
(S's\x14\x00\x00\x00Forms and Validators'
tRp3503
I00
S'http://www.web2py.com/book/default/chapter/07'
p3504
tp3505
a(g3059
(S's\r\x00\x00\x00Email and SMS'
tRp3506
I00
S'http://www.web2py.com/book/default/chapter/08'
p3507
tp3508
a(g3059
(S's\x0e\x00\x00\x00Access Control'
tRp3509
I00
S'http://www.web2py.com/book/default/chapter/09'
p3510
tp3511
a(g3059
(S's\x08\x00\x00\x00Services'
tRp3512
I00
S'http://www.web2py.com/book/default/chapter/10'
p3513
tp3514
a(g3059
(S's\x0c\x00\x00\x00Ajax Recipes'
tRp3515
I00
S'http://www.web2py.com/book/default/chapter/11'
p3516
tp3517
a(g3059
(S's\x16\x00\x00\x00Components and Plugins'
tRp3518
I00
S'http://www.web2py.com/book/default/chapter/12'
p3519
tp3520
a(g3059
(S's\x12\x00\x00\x00Deployment Recipes'
tRp3521
I00
S'http://www.web2py.com/book/default/chapter/13'
p3522
tp3523
a(g3059
(S's\r\x00\x00\x00Other Recipes'
tRp3524
I00
S'http://www.web2py.com/book/default/chapter/14'
p3525
tp3526
a(g3059
(S's\r\x00\x00\x00Buy this book'
tRp3527
I00
S'http://stores.lulu.com/web2py'
p3528
tp3529
aasbasbasbasbasbasbasbag61
(g77
g63
NtRp3530
(dp3531
g66
(dp3532
sg75
g3172
sg68
(lp3533
g61
(g82
g63
NtRp3534
(dp3535
g66
(dp3536
sg75
g3530
sg68
(lp3537
g61
(g62
g63
NtRp3538
(dp3539
g66
(dp3540
g74
I2
ssg75
g3534
sg68
(lp3541
g61
(g70
g63
NtRp3542
(dp3543
g66
(dp3544
g74
I1
ssg75
Nsg68
(lp3545
g61
(g77
g63
NtRp3546
(dp3547
g66
(dp3548
sg75
g3542
sg68
(lp3549
g61
(g82
g63
NtRp3550
(dp3551
g66
(dp3552
sg75
g3546
sg68
(lp3553
g61
(g62
g63
NtRp3554
(dp3555
g66
(dp3556
g74
I1
ssg75
g3550
sg68
(lp3557
g3059
(S's\t\x00\x00\x00Community'
tRp3558
asbasbasbag61
(g77
g63
NtRp3559
(dp3560
g66
(dp3561
sg75
g3542
sg68
(lp3562
g61
(g82
g63
NtRp3563
(dp3564
g66
(dp3565
sg75
g3559
sg68
(lp3566
g61
(g62
g63
NtRp3567
(dp3568
g66
(dp3569
g74
I1
ssg75
g3563
sg68
(lp3570
I00
asbasbasbag61
(g77
g63
NtRp3571
(dp3572
g66
(dp3573
sg75
g3542
sg68
(lp3574
g61
(g82
g63
NtRp3575
(dp3576
g66
(dp3577
sg75
g3571
sg68
(lp3578
g61
(g62
g63
NtRp3579
(dp3580
g66
(dp3581
g74
I1
ssg75
g3575
sg68
(lp3582
Nasbasbasbag61
(g77
g63
NtRp3583
(dp3584
g66
(dp3585
sg75
g3542
sg68
(lp3586
g61
(g82
g63
NtRp3587
(dp3588
g66
(dp3589
sg75
g3583
sg68
(lp3590
g61
(g62
g63
NtRp3591
(dp3592
g66
(dp3593
g74
I1
ssg75
g3587
sg68
(lp3594
(lp3595
(g3059
(S's\x06\x00\x00\x00Groups'
tRp3596
I00
S'http://www.web2py.com/examples/default/usergroups'
p3597
tp3598
a(g3059
(S's\x07\x00\x00\x00Twitter'
tRp3599
I00
S'http://twitter.com/web2py'
p3600
tp3601
a(g3059
(S's\t\x00\x00\x00Live Chat'
tRp3602
I00
S'http://webchat.freenode.net/?channels=web2py'
p3603
tp3604
aasbasbasbasbasbasbasbag61
(g77
g63
NtRp3605
(dp3606
g66
(dp3607
sg75
g3172
sg68
(lp3608
g61
(g82
g63
NtRp3609
(dp3610
g66
(dp3611
sg75
g3605
sg68
(lp3612
g61
(g62
g63
NtRp3613
(dp3614
g66
(dp3615
g74
I2
ssg75
g3609
sg68
(lp3616
g61
(g70
g63
NtRp3617
(dp3618
g66
(dp3619
g74
I1
ssg75
Nsg68
(lp3620
g61
(g77
g63
NtRp3621
(dp3622
g66
(dp3623
sg75
g3617
sg68
(lp3624
g61
(g82
g63
NtRp3625
(dp3626
g66
(dp3627
sg75
g3621
sg68
(lp3628
g61
(g62
g63
NtRp3629
(dp3630
g66
(dp3631
g74
I1
ssg75
g3625
sg68
(lp3632
g3059
(S's\x07\x00\x00\x00Plugins'
tRp3633
asbasbasbag61
(g77
g63
NtRp3634
(dp3635
g66
(dp3636
sg75
g3617
sg68
(lp3637
g61
(g82
g63
NtRp3638
(dp3639
g66
(dp3640
sg75
g3634
sg68
(lp3641
g61
(g62
g63
NtRp3642
(dp3643
g66
(dp3644
g74
I1
ssg75
g3638
sg68
(lp3645
I00
asbasbasbag61
(g77
g63
NtRp3646
(dp3647
g66
(dp3648
sg75
g3617
sg68
(lp3649
g61
(g82
g63
NtRp3650
(dp3651
g66
(dp3652
sg75
g3646
sg68
(lp3653
g61
(g62
g63
NtRp3654
(dp3655
g66
(dp3656
g74
I1
ssg75
g3650
sg68
(lp3657
Nasbasbasbag61
(g77
g63
NtRp3658
(dp3659
g66
(dp3660
sg75
g3617
sg68
(lp3661
g61
(g82
g63
NtRp3662
(dp3663
g66
(dp3664
sg75
g3658
sg68
(lp3665
g61
(g62
g63
NtRp3666
(dp3667
g66
(dp3668
g74
I1
ssg75
g3662
sg68
(lp3669
(lp3670
(S'plugin_wiki'
p3671
I00
S'http://web2py.com/examples/default/download'
p3672
tp3673
a(g3059
(S's\r\x00\x00\x00Other Plugins'
tRp3674
I00
g3404
tp3675
a(g3059
(S's\x0e\x00\x00\x00Layout Plugins'
tRp3676
I00
g3407
tp3677
aasbasbasbasbasbasbasbasbasbasbasbasbasbasbasbasbasbasbasbag61
(g77
g63
NtRp3678
(dp3679
g66
(dp3680
sg75
g2516
sg68
(lp3681
g61
(g82
g63
NtRp3682
(dp3683
g66
(dp3684
g86
g87
ssg75
g3678
sg68
(lp3685
S'meta'
p3686
asbag61
(g82
g63
NtRp3687
(dp3688
g66
(dp3689
g93
g94
ssg75
g3678
sg68
(lp3690
S':'
asbag61
(g82
g63
NtRp3691
(dp3692
g66
(dp3693
sg75
g3678
sg68
(lp3694
g61
(g62
g63
NtRp3695
(dp3696
g66
(dp3697
g74
I5
ssg75
g3691
sg68
(lp3698
g61
(g70
g63
NtRp3699
(dp3700
g66
(dp3701
g74
I4
ssg75
Nsg68
(lp3702
g61
(g77
g63
NtRp3703
(dp3704
g66
(dp3705
sg75
g3699
sg68
(lp3706
g61
(g82
g63
NtRp3707
(dp3708
g66
(dp3709
g86
g87
ssg75
g3703
sg68
(lp3710
S'author'
p3711
asbag61
(g82
g63
NtRp3712
(dp3713
g66
(dp3714
g93
g94
ssg75
g3703
sg68
(lp3715
S':'
asbag61
(g82
g63
NtRp3716
(dp3717
g66
(dp3718
sg75
g3703
sg68
(lp3719
g61
(g62
g63
NtRp3720
(dp3721
g66
(dp3722
g74
I4
ssg75
g3716
sg68
(lp3723
S'Udi Milo'
p3724
asbasbasbag61
(g77
g63
NtRp3725
(dp3726
g66
(dp3727
sg75
g3699
sg68
(lp3728
g61
(g82
g63
NtRp3729
(dp3730
g66
(dp3731
g86
g87
ssg75
g3725
sg68
(lp3732
S'description'
p3733
asbag61
(g82
g63
NtRp3734
(dp3735
g66
(dp3736
g93
g94
ssg75
g3725
sg68
(lp3737
S':'
asbag61
(g82
g63
NtRp3738
(dp3739
g66
(dp3740
sg75
g3725
sg68
(lp3741
g61
(g62
g63
NtRp3742
(dp3743
g66
(dp3744
g74
I4
ssg75
g3738
sg68
(lp3745
S'Curate, organize and share your web resources'
p3746
asbasbasbasbasbasbasbag61
(g77
g63
NtRp3747
(dp3748
g66
(dp3749
sg75
g2516
sg68
(lp3750
g61
(g82
g63
NtRp3751
(dp3752
g66
(dp3753
g86
g87
ssg75
g3747
sg68
(lp3754
S'postprocessing'
p3755
asbag61
(g82
g63
NtRp3756
(dp3757
g66
(dp3758
g93
g94
ssg75
g3747
sg68
(lp3759
S':'
asbag61
(g82
g63
NtRp3760
(dp3761
g66
(dp3762
sg75
g3747
sg68
(lp3763
g61
(g62
g63
NtRp3764
(dp3765
g66
(dp3766
g74
I5
ssg75
g3760
sg68
(lp3767
g61
(g70
g63
NtRp3768
(dp3769
g66
(dp3770
g74
I4
ssg75
Nsg68
(lp3771
sbasbasbasbag61
(g77
g63
NtRp3772
(dp3773
g66
(dp3774
sg75
g2516
sg68
(lp3775
g61
(g82
g63
NtRp3776
(dp3777
g66
(dp3778
g86
g87
ssg75
g3772
sg68
(lp3779
S'session_filename'
p3780
asbag61
(g82
g63
NtRp3781
(dp3782
g66
(dp3783
g93
g94
ssg75
g3772
sg68
(lp3784
S':'
asbag61
(g82
g63
NtRp3785
(dp3786
g66
(dp3787
sg75
g3772
sg68
(lp3788
g61
(g62
g63
NtRp3789
(dp3790
g66
(dp3791
g74
I5
ssg75
g3785
sg68
(lp3792
S'/Users/udimilo/Documents/web2py/applications/udi0312/sessions/127.0.0.1-df2599bc-5861-41d1-83c2-653d78dd107e'
p3793
asbasbasbag61
(g77
g63
NtRp3794
(dp3795
g66
(dp3796
sg75
g2516
sg68
(lp3797
g61
(g82
g63
NtRp3798
(dp3799
g66
(dp3800
g86
g87
ssg75
g3794
sg68
(lp3801
S'session_id'
p3802
asbag61
(g82
g63
NtRp3803
(dp3804
g66
(dp3805
g93
g94
ssg75
g3794
sg68
(lp3806
S':'
asbag61
(g82
g63
NtRp3807
(dp3808
g66
(dp3809
sg75
g3794
sg68
(lp3810
g61
(g62
g63
NtRp3811
(dp3812
g66
(dp3813
g74
I5
ssg75
g3807
sg68
(lp3814
S'127.0.0.1-df2599bc-5861-41d1-83c2-653d78dd107e'
p3815
asbasbasbag61
(g77
g63
NtRp3816
(dp3817
g66
(dp3818
sg75
g2516
sg68
(lp3819
g61
(g82
g63
NtRp3820
(dp3821
g66
(dp3822
g86
g87
ssg75
g3816
sg68
(lp3823
S'session_id_name'
p3824
asbag61
(g82
g63
NtRp3825
(dp3826
g66
(dp3827
g93
g94
ssg75
g3816
sg68
(lp3828
S':'
asbag61
(g82
g63
NtRp3829
(dp3830
g66
(dp3831
sg75
g3816
sg68
(lp3832
g61
(g62
g63
NtRp3833
(dp3834
g66
(dp3835
g74
I5
ssg75
g3829
sg68
(lp3836
g2573
asbasbasbag61
(g77
g63
NtRp3837
(dp3838
g66
(dp3839
sg75
g2516
sg68
(lp3840
g61
(g82
g63
NtRp3841
(dp3842
g66
(dp3843
g86
g87
ssg75
g3837
sg68
(lp3844
S'session_new'
p3845
asbag61
(g82
g63
NtRp3846
(dp3847
g66
(dp3848
g93
g94
ssg75
g3837
sg68
(lp3849
S':'
asbag61
(g82
g63
NtRp3850
(dp3851
g66
(dp3852
sg75
g3837
sg68
(lp3853
g61
(g62
g63
NtRp3854
(dp3855
g66
(dp3856
g74
I5
ssg75
g3850
sg68
(lp3857
g1118
asbasbasbag61
(g77
g63
NtRp3858
(dp3859
g66
(dp3860
sg75
g2516
sg68
(lp3861
g61
(g82
g63
NtRp3862
(dp3863
g66
(dp3864
g86
g87
ssg75
g3858
sg68
(lp3865
S'status'
p3866
asbag61
(g82
g63
NtRp3867
(dp3868
g66
(dp3869
g93
g94
ssg75
g3858
sg68
(lp3870
S':'
asbag61
(g82
g63
NtRp3871
(dp3872
g66
(dp3873
sg75
g3858
sg68
(lp3874
g61
(g62
g63
NtRp3875
(dp3876
g66
(dp3877
g74
I5
ssg75
g3871
sg68
(lp3878
S'200'
p3879
asbasbasbag61
(g77
g63
NtRp3880
(dp3881
g66
(dp3882
sg75
g2516
sg68
(lp3883
g61
(g82
g63
NtRp3884
(dp3885
g66
(dp3886
g86
g87
ssg75
g3880
sg68
(lp3887
S'title'
p3888
asbag61
(g82
g63
NtRp3889
(dp3890
g66
(dp3891
g93
g94
ssg75
g3880
sg68
(lp3892
S':'
asbag61
(g82
g63
NtRp3893
(dp3894
g66
(dp3895
sg75
g3880
sg68
(lp3896
g61
(g62
g63
NtRp3897
(dp3898
g66
(dp3899
g74
I5
ssg75
g3893
sg68
(lp3900
S'inFormation - Curate The Web'
p3901
asbasbasbag61
(g77
g63
NtRp3902
(dp3903
g66
(dp3904
sg75
g2516
sg68
(lp3905
g61
(g82
g63
NtRp3906
(dp3907
g66
(dp3908
g86
g87
ssg75
g3902
sg68
(lp3909
g1782
asbag61
(g82
g63
NtRp3910
(dp3911
g66
(dp3912
g93
g94
ssg75
g3902
sg68
(lp3913
S':'
asbag61
(g82
g63
NtRp3914
(dp3915
g66
(dp3916
sg75
g3902
sg68
(lp3917
g61
(g62
g63
NtRp3918
(dp3919
g66
(dp3920
g74
I5
ssg75
g3914
sg68
(lp3921
g1795
asbasbasbag61
(g77
g63
NtRp3922
(dp3923
g66
(dp3924
sg75
g2516
sg68
(lp3925
g61
(g82
g63
NtRp3926
(dp3927
g66
(dp3928
g86
g87
ssg75
g3922
sg68
(lp3929
S'view'
p3930
asbag61
(g82
g63
NtRp3931
(dp3932
g66
(dp3933
g93
g94
ssg75
g3922
sg68
(lp3934
S':'
asbag61
(g82
g63
NtRp3935
(dp3936
g66
(dp3937
sg75
g3922
sg68
(lp3938
g61
(g62
g63
NtRp3939
(dp3940
g66
(dp3941
g74
I5
ssg75
g3935
sg68
(lp3942
S'api/test.html'
p3943
asbasbasbasbasbsS'locals'
p3944
(dp3945
g4
S"'/Users/udimilo/Documents/web2py/applications/udi0312/controllers/api.py'"
p3946
sg6
S"'# coding: utf8\\nimport re\\nimport time\\nfrom readab...ew_pin.id\\n\\nresponse._vars=response._caller(test)\\n'"
p3947
sssS'traceback'
p3948
S'Traceback (most recent call last):\n  File "/users/udimilo/Documents/web2py/gluon/restricted.py", line 204, in restricted\n    ccode = compile2(code,layer)\n  File "/users/udimilo/Documents/web2py/gluon/restricted.py", line 189, in compile2\n    return compile(code.rstrip().replace(\'\\r\\n\',\'\\n\')+\'\\n\', layer, \'exec\')\n  File "/Users/udimilo/Documents/web2py/applications/udi0312/controllers/api.py", line 19\n    for item in d[\'entries\']\n                           \n^\nSyntaxError: invalid syntax\n'
p3949
s.