(dp1
S'output'
p2
S"<type 'exceptions.KeyError'> 'img'"
p3
sS'layer'
p4
S'/Users/udimilo/Documents/web2py/applications/udi0312/views/default/index.html'
p5
sS'code'
p6
S'response.write(\'<html lan="en">\\n<head>\\n    <title>Biz</title>\\n    <script type="text/javascript" src="http://ajax.googleapis.com/ajax/libs/jquery/1.7.1/jquery.min.js"></script>\\n    <script type="text/javascript" src="/static/js/jquery.wookmark.js"></script>\\n    <link href=\\\'http://fonts.googleapis.com/css?family=PT+Sans\\\' rel=\\\'stylesheet\\\' type=\\\'text/css\\\'>\\n    <link href=\\\'/static/css/site.css\\\' rel=\\\'stylesheet\\\' type=\\\'text/css\\\'>\\n    </head>\\n<body>\\n    <div id="header">\\n        <div id="search">\\n            <input type="text" id="query" size="27" value="Search">\\n            <a id="query_button" href="#" class="lg"><img src="http://passets-cdn.pinterest.com/images/search.gif" alt=""></a>\\n        </div>\\n        <a id="logo"><img src="http://press.linkedin.com/sites/all/themes/presslinkedin/images/LinkedIn_IN_Icon_25px.png"/><span>formation</span></a>\\n        <ul id="navigation">\\n            <li><a href="#"><span>Add +<span></a></li>\\n            <li><a href="#"><span>About</span></a></li>\\n            <li><a href="#"><img src="http://profile.ak.fbcdn.net/hprofile-ak-snc4/373721_202953045644_22849796_q.jpg" /><span>Neytiri<span></a></li>\\n        </ul>\\n    </div>\\n    <div id="showItem">\\n        <div id="itemHeader" class="clearfix">\\n            <div id="itemCreator">\\n                <div id="showItemClose"></div>\\n                <img src="http://profile.ak.fbcdn.net/hprofile-ak-snc4/373721_202953045644_22849796_q.jpg" />\\n                <div id="creatorName">Neytiri</div>\\n                <div id="creatorStats">Pinned 1 hour ago from TechCrunch.com</div>\\n            </div>\\n        </div>\\n        <div id="showItemContent" class="clearfix"></div>\\n    </div>\\n\', escape=False)\nresponse.write(\'\\n\', escape=False)\nresponse.write(\'\\n\\n<div id="categoriesBar">\\n    <ul id="categoriesNav">\\n        <li><b>Info you follow</b></li>\\n        <li><a href="#">Everything</a></li>\\n        <li><a href="#">Popular</a></li>\\n        <li><a href="#">Recommended</a></li>\\n    </ul>\\n</div>\\n\\n<div id="wrapper">\\n    <ul id="example">\\n        \', escape=False)\nfor item in items:\n    response.write(\'\\n            <li style="height:\', escape=False)\n    response.write(item[\'height\'])\n    response.write(\'px">\\n                <div class="itemWrapper">\\n                    <div class="actions">\\n                        <a href="#" class="whiteButton repinButton"><em></em><strong>Repin</strong></a>\\n                        <a href="#" class="whiteButton likeButton"><em></em><strong>Like</strong></a>\\n                        <a href="#" class="whiteButton commentButton"><em></em><strong>Comment</strong></a>\\n                    </div>\\n                    <h1 class="itemTitle">\', escape=False)\n    response.write(item[\'title\'])\n    response.write(\'</h1>\\n                    <h2 class="itemSubtitle">\\n                        <a href="#">\\n                            <img src="\', escape=False)\n    response.write(item[\'iconURL\'])\n    response.write(\'"/>\\n                            <span>\', escape=False)\n    response.write(item[\'source\'])\n    response.write(\'<span>\\n                        </a>\\n                        <label class="itemTime">\', escape=False)\n    response.write(item[\'hours\'])\n    response.write(\' hours ago</label>\\n                    </h2>\\n                    <div class="itemContent">\\n                        \', escape=False)\n    response.write(item[\'img\'])\n    response.write(\'\\n                        <label class="itemText" />\\n                    </div>\\n                </div>\\n            </li>\\n        \', escape=False)\n    pass\nresponse.write(\'\\n            <li style="height:239px">\\n                <div class="itemWrapper">\\n                <div class="actions">\\n                    <a href="#" class="whiteButton repinButton"><em></em><strong>Repin</strong></a>\\n                    <a href="#" class="whiteButton likeButton"><em></em><strong>Like</strong></a>\\n                    <a href="#" class="whiteButton commentButton"><em></em><strong>Comment</strong></a>\\n                </div>\\n                <h1 class="itemTitle">It\\\'s time to Acknowledge CEO Loneliness</h1>\\n                <h2 class="itemSubtitle">\\n                    <a href="#">\\n                        <img src="http://theheadlinereport.com/images/newsicons/forbes_icon.png"/>\\n                        <span>Harvard Business Review<span>\\n                    </a>\\n                    <label class="itemTime">3 hours ago</label>\\n                </h2>\\n                <div class="itemContent">\\n                    <label class="itemText" />\\n                </div>\\n            </div>\\n        </li>\\n        <li style="height:285px">\\n            <div class="itemWrapper">\\n                <div class="actions">\\n                    <a href="#" class="whiteButton repinButton"><em></em><strong>Repin</strong></a>\\n                    <a href="#" class="whiteButton likeButton"><em></em><strong>Like</strong></a>\\n                    <a href="#" class="whiteButton commentButton"><em></em><strong>Comment</strong></a>\\n                </div>\\n                <h1 class="itemTitle">Post-Disaster Retreat from Social Media Backfires on Carnival | DigitalNext: A Blog Emerging</h1>\\n                <h2 class="itemSubtitle">\\n                    <a href="#">\\n                        <img src="http://a3.twimg.com/profile_images/674280505/bz_twitter_avatar_normal.jpg"/>\\n                        <span>Adage.com<span>\\n                    </a>\\n                    <label class="itemTime">4 hours ago</label>\\n                </h2>\\n                <div class="itemContent">\\n                    <img src="http://sg.wsj.net/public/resources/images/OB-RJ919_simonn_A_20120116050452.gif" />\\n                    <label class="itemText" />\\n                </div>\\n            </div>\\n        </li>\\n        <li style="height:396px">\\n            <div class="itemWrapper">\\n                <div class="actions">\\n                    <a href="#" class="whiteButton repinButton"><em></em><strong>Repin</strong></a>\\n                    <a href="#" class="whiteButton likeButton"><em></em><strong>Like</strong></a>\\n                    <a href="#" class="whiteButton commentButton"><em></em><strong>Comment</strong></a>\\n                </div>\\n                <h1 class="itemTitle">The Rules of Fancy Drinks Marketing Technique [INFOGRAPHICS]</h1>\\n                <h2 class="itemSubtitle">\\n                    <a href="#">\\n                        <img src="http://3.bp.blogspot.com/-KUk98YET_w8/TiSDmEMQZyI/AAAAAAAABgY/RwzfbxRtyxA/s1600/128.png"/>\\n                        <span>TechCrunch.com<span>\\n                    </a>\\n                    <label class="itemTime">5 hours ago</label>\\n                </h2>\\n                <div class="itemContent">\\n                    <img src="http://media-cdn.pinterest.com/upload/2814818487066187_Bzf9XshC_f.jpg" />\\n                    <label class="itemText" />\\n                </div>\\n            </div>\\n        </li>\\n        <li style="height:452px">\\n            <div class="itemWrapper">\\n                <div class="actions">\\n                    <a href="#" class="whiteButton repinButton"><em></em><strong>Repin</strong></a>\\n                    <a href="#" class="whiteButton likeButton"><em></em><strong>Like</strong></a>\\n                    <a href="#" class="whiteButton commentButton"><em></em><strong>Comment</strong></a>\\n                </div>\\n                <h1 class="itemTitle">Apple Yanks The iPad Off Of Amazon\\\'s Chinese Shelves, But Why?</h1>\\n                <h2 class="itemSubtitle">\\n                    <a href="#">\\n                        <img src="http://nickoneill.com/wordpress/wp-content/uploads/pinterest-icon.png"/>\\n                        <span>Pinterest.com<span>\\n                    </a>\\n                    <label class="itemTime">5 hours ago</label>\\n                </h2>\\n                <div class="itemContent">\\n                    <img src="http://media-cdn.pinterest.com/upload/132504414006474693_Ab8zAfwQ_f.jpg" />\\n                    <label class="itemText" />\\n                </div>\\n            </div>\\n        </li>\\n        <li style="height:239px">\\n            <div class="itemWrapper">\\n                <div class="actions">\\n                    <a href="#" class="whiteButton repinButton"><em></em><strong>Repin</strong></a>\\n                    <a href="#" class="whiteButton likeButton"><em></em><strong>Like</strong></a>\\n                    <a href="#" class="whiteButton commentButton"><em></em><strong>Comment</strong></a>\\n                </div>\\n                <h1 class="itemTitle">It\\\'s time to Acknowledge CEO Loneliness</h1>\\n                <h2 class="itemSubtitle">\\n                    <a href="#">\\n                        <img src="http://theheadlinereport.com/images/newsicons/forbes_icon.png"/>\\n                        <span>Harvard Business Review<span>\\n                    </a>\\n                    <label class="itemTime">3 hours ago</label>\\n                </h2>\\n                <div class="itemContent">\\n                    <label class="itemText" />\\n                </div>\\n            </div>\\n        </li>\\n        <li style="height:285px">\\n            <div class="itemWrapper">\\n                <div class="actions">\\n                    <a href="#" class="whiteButton repinButton"><em></em><strong>Repin</strong></a>\\n                    <a href="#" class="whiteButton likeButton"><em></em><strong>Like</strong></a>\\n                    <a href="#" class="whiteButton commentButton"><em></em><strong>Comment</strong></a>\\n                </div>\\n                <h1 class="itemTitle">Post-Disaster Retreat from Social Media Backfires on Carnival | DigitalNext: A Blog Emerging</h1>\\n                <h2 class="itemSubtitle">\\n                    <a href="#">\\n                        <img src="http://a3.twimg.com/profile_images/674280505/bz_twitter_avatar_normal.jpg"/>\\n                        <span>Adage.com<span>\\n                    </a>\\n                    <label class="itemTime">4 hours ago</label>\\n                </h2>\\n                <div class="itemContent">\\n                    <img src="http://sg.wsj.net/public/resources/images/OB-RJ919_simonn_A_20120116050452.gif" />\\n                    <label class="itemText" />\\n                </div>\\n            </div>\\n        </li>\\n        <li style="height:396px">\\n            <div class="itemWrapper">\\n                <div class="actions">\\n                    <a href="#" class="whiteButton repinButton"><em></em><strong>Repin</strong></a>\\n                    <a href="#" class="whiteButton likeButton"><em></em><strong>Like</strong></a>\\n                    <a href="#" class="whiteButton commentButton"><em></em><strong>Comment</strong></a>\\n                </div>\\n                <h1 class="itemTitle">The Rules of Fancy Drinks Marketing Technique [INFOGRAPHICS]</h1>\\n                <h2 class="itemSubtitle">\\n                    <a href="#">\\n                        <img src="http://3.bp.blogspot.com/-KUk98YET_w8/TiSDmEMQZyI/AAAAAAAABgY/RwzfbxRtyxA/s1600/128.png"/>\\n                        <span>TechCrunch.com<span>\\n                    </a>\\n                    <label class="itemTime">5 hours ago</label>\\n                </h2>\\n                <div class="itemContent">\\n                    <img src="http://media-cdn.pinterest.com/upload/2814818487066187_Bzf9XshC_f.jpg" />\\n                    <label class="itemText" />\\n                </div>\\n            </div>\\n        </li>\\n        <li style="height:452px">\\n            <div class="itemWrapper">\\n                <div class="actions">\\n                    <a href="#" class="whiteButton repinButton"><em></em><strong>Repin</strong></a>\\n                    <a href="#" class="whiteButton likeButton"><em></em><strong>Like</strong></a>\\n                    <a href="#" class="whiteButton commentButton"><em></em><strong>Comment</strong></a>\\n                </div>\\n                <h1 class="itemTitle">Apple Yanks The iPad Off Of Amazon\\\'s Chinese Shelves, But Why?</h1>\\n                <h2 class="itemSubtitle">\\n                    <a href="#">\\n                        <img src="http://nickoneill.com/wordpress/wp-content/uploads/pinterest-icon.png"/>\\n                        <span>Pinterest.com<span>\\n                    </a>\\n                    <label class="itemTime">5 hours ago</label>\\n                </h2>\\n                <div class="itemContent">\\n                    <img src="http://media-cdn.pinterest.com/upload/132504414006474693_Ab8zAfwQ_f.jpg" />\\n                    <label class="itemText" />\\n                </div>\\n            </div>\\n        </li>\\n        <li style="height:239px">\\n            <div class="itemWrapper">\\n                <div class="actions">\\n                    <a href="#" class="whiteButton repinButton"><em></em><strong>Repin</strong></a>\\n                    <a href="#" class="whiteButton likeButton"><em></em><strong>Like</strong></a>\\n                    <a href="#" class="whiteButton commentButton"><em></em><strong>Comment</strong></a>\\n                </div>\\n                <h1 class="itemTitle">It\\\'s time to Acknowledge CEO Loneliness</h1>\\n                <h2 class="itemSubtitle">\\n                    <a href="#">\\n                        <img src="http://theheadlinereport.com/images/newsicons/forbes_icon.png"/>\\n                        <span>Harvard Business Review<span>\\n                    </a>\\n                    <label class="itemTime">3 hours ago</label>\\n                </h2>\\n                <div class="itemContent">\\n                    <label class="itemText" />\\n                </div>\\n            </div>\\n        </li>\\n        <li style="height:285px">\\n            <div class="itemWrapper">\\n                <div class="actions">\\n                    <a href="#" class="whiteButton repinButton"><em></em><strong>Repin</strong></a>\\n                    <a href="#" class="whiteButton likeButton"><em></em><strong>Like</strong></a>\\n                    <a href="#" class="whiteButton commentButton"><em></em><strong>Comment</strong></a>\\n                </div>\\n                <h1 class="itemTitle">Post-Disaster Retreat from Social Media Backfires on Carnival | DigitalNext: A Blog Emerging</h1>\\n                <h2 class="itemSubtitle">\\n                    <a href="#">\\n                        <img src="http://a3.twimg.com/profile_images/674280505/bz_twitter_avatar_normal.jpg"/>\\n                        <span>Adage.com<span>\\n                    </a>\\n                    <label class="itemTime">4 hours ago</label>\\n                </h2>\\n                <div class="itemContent">\\n                    <img src="http://sg.wsj.net/public/resources/images/OB-RJ919_simonn_A_20120116050452.gif" />\\n                    <label class="itemText" />\\n                </div>\\n            </div>\\n        </li>\\n        <li style="height:396px">\\n            <div class="itemWrapper">\\n                <div class="actions">\\n                    <a href="#" class="whiteButton repinButton"><em></em><strong>Repin</strong></a>\\n                    <a href="#" class="whiteButton likeButton"><em></em><strong>Like</strong></a>\\n                    <a href="#" class="whiteButton commentButton"><em></em><strong>Comment</strong></a>\\n                </div>\\n                <h1 class="itemTitle">The Rules of Fancy Drinks Marketing Technique [INFOGRAPHICS]</h1>\\n                <h2 class="itemSubtitle">\\n                    <a href="#">\\n                        <img src="http://3.bp.blogspot.com/-KUk98YET_w8/TiSDmEMQZyI/AAAAAAAABgY/RwzfbxRtyxA/s1600/128.png"/>\\n                        <span>TechCrunch.com<span>\\n                    </a>\\n                    <label class="itemTime">5 hours ago</label>\\n                </h2>\\n                <div class="itemContent">\\n                    <img src="http://media-cdn.pinterest.com/upload/2814818487066187_Bzf9XshC_f.jpg" />\\n                    <label class="itemText" />\\n                </div>\\n            </div>\\n        </li>\\n        <li style="height:452px">\\n            <div class="itemWrapper">\\n                <div class="actions">\\n                    <a href="#" class="whiteButton repinButton"><em></em><strong>Repin</strong></a>\\n                    <a href="#" class="whiteButton likeButton"><em></em><strong>Like</strong></a>\\n                    <a href="#" class="whiteButton commentButton"><em></em><strong>Comment</strong></a>\\n                </div>\\n                <h1 class="itemTitle">Apple Yanks The iPad Off Of Amazon\\\'s Chinese Shelves, But Why?</h1>\\n                <h2 class="itemSubtitle">\\n                    <a href="#">\\n                        <img src="http://nickoneill.com/wordpress/wp-content/uploads/pinterest-icon.png"/>\\n                        <span>Pinterest.com<span>\\n                    </a>\\n                    <label class="itemTime">5 hours ago</label>\\n                </h2>\\n                <div class="itemContent">\\n                    <img src="http://media-cdn.pinterest.com/upload/132504414006474693_Ab8zAfwQ_f.jpg" />\\n                    <label class="itemText" />\\n                </div>\\n            </div>\\n        </li>\\n        <li style="height:239px">\\n            <div class="itemWrapper">\\n                <div class="actions">\\n                    <a href="#" class="whiteButton repinButton"><em></em><strong>Repin</strong></a>\\n                    <a href="#" class="whiteButton likeButton"><em></em><strong>Like</strong></a>\\n                    <a href="#" class="whiteButton commentButton"><em></em><strong>Comment</strong></a>\\n                </div>\\n                <h1 class="itemTitle">It\\\'s time to Acknowledge CEO Loneliness</h1>\\n                <h2 class="itemSubtitle">\\n                    <a href="#">\\n                        <img src="http://theheadlinereport.com/images/newsicons/forbes_icon.png"/>\\n                        <span>Harvard Business Review<span>\\n                    </a>\\n                    <label class="itemTime">3 hours ago</label>\\n                </h2>\\n                <div class="itemContent">\\n                    <label class="itemText" />\\n                </div>\\n            </div>\\n        </li>\\n        <li style="height:239px">\\n            <div class="itemWrapper">\\n                <div class="actions">\\n                    <a href="#" class="whiteButton repinButton"><em></em><strong>Repin</strong></a>\\n                    <a href="#" class="whiteButton likeButton"><em></em><strong>Like</strong></a>\\n                    <a href="#" class="whiteButton commentButton"><em></em><strong>Comment</strong></a>\\n                </div>\\n                <h1 class="itemTitle">It\\\'s time to Acknowledge CEO Loneliness</h1>\\n                <h2 class="itemSubtitle">\\n                    <a href="#">\\n                        <img src="http://theheadlinereport.com/images/newsicons/forbes_icon.png"/>\\n                        <span>Harvard Business Review<span>\\n                    </a>\\n                    <label class="itemTime">3 hours ago</label>\\n                </h2>\\n                <div class="itemContent">\\n                    <label class="itemText" />\\n                </div>\\n            </div>\\n        </li>\\n        <li style="height:285px">\\n            <div class="itemWrapper">\\n                <div class="actions">\\n                    <a href="#" class="whiteButton repinButton"><em></em><strong>Repin</strong></a>\\n                    <a href="#" class="whiteButton likeButton"><em></em><strong>Like</strong></a>\\n                    <a href="#" class="whiteButton commentButton"><em></em><strong>Comment</strong></a>\\n                </div>\\n                <h1 class="itemTitle">Post-Disaster Retreat from Social Media Backfires on Carnival | DigitalNext: A Blog Emerging</h1>\\n                <h2 class="itemSubtitle">\\n                    <a href="#">\\n                        <img src="http://a3.twimg.com/profile_images/674280505/bz_twitter_avatar_normal.jpg"/>\\n                        <span>Adage.com<span>\\n                    </a>\\n                    <label class="itemTime">4 hours ago</label>\\n                </h2>\\n                <div class="itemContent">\\n                    <img src="http://sg.wsj.net/public/resources/images/OB-RJ919_simonn_A_20120116050452.gif" />\\n                    <label class="itemText" />\\n                </div>\\n            </div>\\n        </li>\\n        <li style="height:396px">\\n            <div class="itemWrapper">\\n                <div class="actions">\\n                    <a href="#" class="whiteButton repinButton"><em></em><strong>Repin</strong></a>\\n                    <a href="#" class="whiteButton likeButton"><em></em><strong>Like</strong></a>\\n                    <a href="#" class="whiteButton commentButton"><em></em><strong>Comment</strong></a>\\n                </div>\\n                <h1 class="itemTitle">The Rules of Fancy Drinks Marketing Technique [INFOGRAPHICS]</h1>\\n                <h2 class="itemSubtitle">\\n                    <a href="#">\\n                        <img src="http://3.bp.blogspot.com/-KUk98YET_w8/TiSDmEMQZyI/AAAAAAAABgY/RwzfbxRtyxA/s1600/128.png"/>\\n                        <span>TechCrunch.com<span>\\n                    </a>\\n                    <label class="itemTime">5 hours ago</label>\\n                </h2>\\n                <div class="itemContent">\\n                    <img src="http://media-cdn.pinterest.com/upload/2814818487066187_Bzf9XshC_f.jpg" />\\n                    <label class="itemText" />\\n                </div>\\n            </div>\\n        </li>\\n        <li style="height:452px">\\n            <div class="itemWrapper">\\n                <div class="actions">\\n                    <a href="#" class="whiteButton repinButton"><em></em><strong>Repin</strong></a>\\n                    <a href="#" class="whiteButton likeButton"><em></em><strong>Like</strong></a>\\n                    <a href="#" class="whiteButton commentButton"><em></em><strong>Comment</strong></a>\\n                </div>\\n                <h1 class="itemTitle">Apple Yanks The iPad Off Of Amazon\\\'s Chinese Shelves, But Why?</h1>\\n                <h2 class="itemSubtitle">\\n                    <a href="#">\\n                        <img src="http://nickoneill.com/wordpress/wp-content/uploads/pinterest-icon.png"/>\\n                        <span>Pinterest.com<span>\\n                    </a>\\n                    <label class="itemTime">5 hours ago</label>\\n                </h2>\\n                <div class="itemContent">\\n                    <img src="http://media-cdn.pinterest.com/upload/132504414006474693_Ab8zAfwQ_f.jpg" />\\n                    <label class="itemText" />\\n                </div>\\n            </div>\\n        </li>\\n    </ul>\\n</div>\\n\', escape=False)\nresponse.write(\'\\n\', escape=False)\nresponse.write(\'\\n    <script type="text/javascript" src="/static/js/site.js"></script>\\n</body>\\n</html>\\n\', escape=False)\nresponse.write(BEAUTIFY(response._vars))\nresponse.write(\'\\n\', escape=False)'
p7
sS'snapshot'
p8
(dp9
S'exception'
p10
(dp11
S'__hash__'
p12
S"<method-wrapper '__hash__' of exceptions.KeyError object at 0x9fb95a8>"
p13
sS'__setattr__'
p14
S"<method-wrapper '__setattr__' of exceptions.KeyError object at 0x9fb95a8>"
p15
sS'__reduce_ex__'
p16
S'<built-in method __reduce_ex__ of exceptions.KeyError object at 0x9fb95a8>'
p17
sS'__getslice__'
p18
S"<method-wrapper '__getslice__' of exceptions.KeyError object at 0x9fb95a8>"
p19
sS'__getitem__'
p20
S"<method-wrapper '__getitem__' of exceptions.KeyError object at 0x9fb95a8>"
p21
sS'__setstate__'
p22
S'<built-in method __setstate__ of exceptions.KeyError object at 0x9fb95a8>'
p23
sS'__reduce__'
p24
S'<built-in method __reduce__ of exceptions.KeyError object at 0x9fb95a8>'
p25
sS'__str__'
p26
S"<method-wrapper '__str__' of exceptions.KeyError object at 0x9fb95a8>"
p27
sS'args'
p28
S"('img',)"
p29
sS'__getattribute__'
p30
S"<method-wrapper '__getattribute__' of exceptions.KeyError object at 0x9fb95a8>"
p31
sS'__class__'
p32
S"<type 'exceptions.KeyError'>"
p33
sS'__delattr__'
p34
S"<method-wrapper '__delattr__' of exceptions.KeyError object at 0x9fb95a8>"
p35
sS'__repr__'
p36
S"<method-wrapper '__repr__' of exceptions.KeyError object at 0x9fb95a8>"
p37
sS'__dict__'
p38
S'{}'
p39
sS'__doc__'
p40
S"'Mapping key not found.'"
p41
sS'__init__'
p42
S"<method-wrapper '__init__' of exceptions.KeyError object at 0x9fb95a8>"
p43
sS'__new__'
p44
S'<built-in method __new__ of type object at 0xfff20>'
p45
ssS'evalue'
p46
S"'img'"
p47
sS'request'
p48
ccopy_reg
_reconstructor
p49
(cgluon.html
BEAUTIFY
p50
c__builtin__
object
p51
NtRp52
(dp53
S'attributes'
p54
(dp55
sS'components'
p56
(lp57
g49
(cgluon.html
TABLE
p58
g51
NtRp59
(dp60
g54
(dp61
S'level'
p62
I5
ssS'parent'
p63
Nsg56
(lp64
g49
(cgluon.html
TR
p65
g51
NtRp66
(dp67
g54
(dp68
sg63
g59
sg56
(lp69
g49
(cgluon.html
TD
p70
g51
NtRp71
(dp72
g54
(dp73
S'_style'
p74
S'font-weight:bold;vertical-align:top'
p75
ssg63
g66
sg56
(lp76
S'ajax'
p77
asbag49
(g70
g51
NtRp78
(dp79
g54
(dp80
S'_valign'
p81
S'top'
p82
ssg63
g66
sg56
(lp83
S':'
asbag49
(g70
g51
NtRp84
(dp85
g54
(dp86
sg63
g66
sg56
(lp87
g49
(g50
g51
NtRp88
(dp89
g54
(dp90
g62
I5
ssg63
g84
sg56
(lp91
S'False'
p92
asbasbasbag49
(g65
g51
NtRp93
(dp94
g54
(dp95
sg63
g59
sg56
(lp96
g49
(g70
g51
NtRp97
(dp98
g54
(dp99
g74
g75
ssg63
g93
sg56
(lp100
S'application'
p101
asbag49
(g70
g51
NtRp102
(dp103
g54
(dp104
g81
g82
ssg63
g93
sg56
(lp105
S':'
asbag49
(g70
g51
NtRp106
(dp107
g54
(dp108
sg63
g93
sg56
(lp109
g49
(g50
g51
NtRp110
(dp111
g54
(dp112
g62
I5
ssg63
g106
sg56
(lp113
S'udi0312'
p114
asbasbasbag49
(g65
g51
NtRp115
(dp116
g54
(dp117
sg63
g59
sg56
(lp118
g49
(g70
g51
NtRp119
(dp120
g54
(dp121
g74
g75
ssg63
g115
sg56
(lp122
g28
asbag49
(g70
g51
NtRp123
(dp124
g54
(dp125
g81
g82
ssg63
g115
sg56
(lp126
S':'
asbag49
(g70
g51
NtRp127
(dp128
g54
(dp129
sg63
g115
sg56
(lp130
g49
(g50
g51
NtRp131
(dp132
g54
(dp133
g62
I5
ssg63
g127
sg56
(lp134
g49
(g58
g51
NtRp135
(dp136
g54
(dp137
g62
I4
ssg63
Nsg56
(lp138
sbasbasbasbag49
(g65
g51
NtRp139
(dp140
g54
(dp141
sg63
g59
sg56
(lp142
g49
(g70
g51
NtRp143
(dp144
g54
(dp145
g74
g75
ssg63
g139
sg56
(lp146
S'body'
p147
asbag49
(g70
g51
NtRp148
(dp149
g54
(dp150
g81
g82
ssg63
g139
sg56
(lp151
S':'
asbag49
(g70
g51
NtRp152
(dp153
g54
(dp154
sg63
g139
sg56
(lp155
g49
(g50
g51
NtRp156
(dp157
g54
(dp158
g62
I5
ssg63
g152
sg56
(lp159
S'<cStringIO.StringO object at 0xa223cc0>'
p160
asbasbasbag49
(g65
g51
NtRp161
(dp162
g54
(dp163
sg63
g59
sg56
(lp164
g49
(g70
g51
NtRp165
(dp166
g54
(dp167
g74
g75
ssg63
g161
sg56
(lp168
S'client'
p169
asbag49
(g70
g51
NtRp170
(dp171
g54
(dp172
g81
g82
ssg63
g161
sg56
(lp173
S':'
asbag49
(g70
g51
NtRp174
(dp175
g54
(dp176
sg63
g161
sg56
(lp177
g49
(g50
g51
NtRp178
(dp179
g54
(dp180
g62
I5
ssg63
g174
sg56
(lp181
S'127.0.0.1'
p182
asbasbasbag49
(g65
g51
NtRp183
(dp184
g54
(dp185
sg63
g59
sg56
(lp186
g49
(g70
g51
NtRp187
(dp188
g54
(dp189
g74
g75
ssg63
g183
sg56
(lp190
S'controller'
p191
asbag49
(g70
g51
NtRp192
(dp193
g54
(dp194
g81
g82
ssg63
g183
sg56
(lp195
S':'
asbag49
(g70
g51
NtRp196
(dp197
g54
(dp198
sg63
g183
sg56
(lp199
g49
(g50
g51
NtRp200
(dp201
g54
(dp202
g62
I5
ssg63
g196
sg56
(lp203
S'default'
p204
asbasbasbag49
(g65
g51
NtRp205
(dp206
g54
(dp207
sg63
g59
sg56
(lp208
g49
(g70
g51
NtRp209
(dp210
g54
(dp211
g74
g75
ssg63
g205
sg56
(lp212
S'cookies'
p213
asbag49
(g70
g51
NtRp214
(dp215
g54
(dp216
g81
g82
ssg63
g205
sg56
(lp217
S':'
asbag49
(g70
g51
NtRp218
(dp219
g54
(dp220
sg63
g205
sg56
(lp221
g49
(g50
g51
NtRp222
(dp223
g54
(dp224
g62
I5
ssg63
g218
sg56
(lp225
g49
(g58
g51
NtRp226
(dp227
g54
(dp228
g62
I4
ssg63
Nsg56
(lp229
g49
(g65
g51
NtRp230
(dp231
g54
(dp232
sg63
g226
sg56
(lp233
g49
(g70
g51
NtRp234
(dp235
g54
(dp236
g74
g75
ssg63
g230
sg56
(lp237
S'session_id_admin'
p238
asbag49
(g70
g51
NtRp239
(dp240
g54
(dp241
g81
g82
ssg63
g230
sg56
(lp242
S':'
asbag49
(g70
g51
NtRp243
(dp244
g54
(dp245
sg63
g230
sg56
(lp246
g49
(g50
g51
NtRp247
(dp248
g54
(dp249
g62
I4
ssg63
g243
sg56
(lp250
g49
(g58
g51
NtRp251
(dp252
g54
(dp253
g62
I3
ssg63
Nsg56
(lp254
g49
(g65
g51
NtRp255
(dp256
g54
(dp257
sg63
g251
sg56
(lp258
g49
(g70
g51
NtRp259
(dp260
g54
(dp261
g74
g75
ssg63
g255
sg56
(lp262
S'comment'
p263
asbag49
(g70
g51
NtRp264
(dp265
g54
(dp266
g81
g82
ssg63
g255
sg56
(lp267
S':'
asbag49
(g70
g51
NtRp268
(dp269
g54
(dp270
sg63
g255
sg56
(lp271
g49
(g50
g51
NtRp272
(dp273
g54
(dp274
g62
I3
ssg63
g268
sg56
(lp275
S''
asbasbasbag49
(g65
g51
NtRp276
(dp277
g54
(dp278
sg63
g251
sg56
(lp279
g49
(g70
g51
NtRp280
(dp281
g54
(dp282
g74
g75
ssg63
g276
sg56
(lp283
S'domain'
p284
asbag49
(g70
g51
NtRp285
(dp286
g54
(dp287
g81
g82
ssg63
g276
sg56
(lp288
S':'
asbag49
(g70
g51
NtRp289
(dp290
g54
(dp291
sg63
g276
sg56
(lp292
g49
(g50
g51
NtRp293
(dp294
g54
(dp295
g62
I3
ssg63
g289
sg56
(lp296
S''
asbasbasbag49
(g65
g51
NtRp297
(dp298
g54
(dp299
sg63
g251
sg56
(lp300
g49
(g70
g51
NtRp301
(dp302
g54
(dp303
g74
g75
ssg63
g297
sg56
(lp304
S'expires'
p305
asbag49
(g70
g51
NtRp306
(dp307
g54
(dp308
g81
g82
ssg63
g297
sg56
(lp309
S':'
asbag49
(g70
g51
NtRp310
(dp311
g54
(dp312
sg63
g297
sg56
(lp313
g49
(g50
g51
NtRp314
(dp315
g54
(dp316
g62
I3
ssg63
g310
sg56
(lp317
S''
asbasbasbag49
(g65
g51
NtRp318
(dp319
g54
(dp320
sg63
g251
sg56
(lp321
g49
(g70
g51
NtRp322
(dp323
g54
(dp324
g74
g75
ssg63
g318
sg56
(lp325
S'max-age'
p326
asbag49
(g70
g51
NtRp327
(dp328
g54
(dp329
g81
g82
ssg63
g318
sg56
(lp330
S':'
asbag49
(g70
g51
NtRp331
(dp332
g54
(dp333
sg63
g318
sg56
(lp334
g49
(g50
g51
NtRp335
(dp336
g54
(dp337
g62
I3
ssg63
g331
sg56
(lp338
S''
asbasbasbag49
(g65
g51
NtRp339
(dp340
g54
(dp341
sg63
g251
sg56
(lp342
g49
(g70
g51
NtRp343
(dp344
g54
(dp345
g74
g75
ssg63
g339
sg56
(lp346
S'path'
p347
asbag49
(g70
g51
NtRp348
(dp349
g54
(dp350
g81
g82
ssg63
g339
sg56
(lp351
S':'
asbag49
(g70
g51
NtRp352
(dp353
g54
(dp354
sg63
g339
sg56
(lp355
g49
(g50
g51
NtRp356
(dp357
g54
(dp358
g62
I3
ssg63
g352
sg56
(lp359
S''
asbasbasbag49
(g65
g51
NtRp360
(dp361
g54
(dp362
sg63
g251
sg56
(lp363
g49
(g70
g51
NtRp364
(dp365
g54
(dp366
g74
g75
ssg63
g360
sg56
(lp367
S'secure'
p368
asbag49
(g70
g51
NtRp369
(dp370
g54
(dp371
g81
g82
ssg63
g360
sg56
(lp372
S':'
asbag49
(g70
g51
NtRp373
(dp374
g54
(dp375
sg63
g360
sg56
(lp376
g49
(g50
g51
NtRp377
(dp378
g54
(dp379
g62
I3
ssg63
g373
sg56
(lp380
S''
asbasbasbag49
(g65
g51
NtRp381
(dp382
g54
(dp383
sg63
g251
sg56
(lp384
g49
(g70
g51
NtRp385
(dp386
g54
(dp387
g74
g75
ssg63
g381
sg56
(lp388
S'version'
p389
asbag49
(g70
g51
NtRp390
(dp391
g54
(dp392
g81
g82
ssg63
g381
sg56
(lp393
S':'
asbag49
(g70
g51
NtRp394
(dp395
g54
(dp396
sg63
g381
sg56
(lp397
g49
(g50
g51
NtRp398
(dp399
g54
(dp400
g62
I3
ssg63
g394
sg56
(lp401
S''
asbasbasbasbasbasbasbag49
(g65
g51
NtRp402
(dp403
g54
(dp404
sg63
g226
sg56
(lp405
g49
(g70
g51
NtRp406
(dp407
g54
(dp408
g74
g75
ssg63
g402
sg56
(lp409
S'session_id_udi0312'
p410
asbag49
(g70
g51
NtRp411
(dp412
g54
(dp413
g81
g82
ssg63
g402
sg56
(lp414
S':'
asbag49
(g70
g51
NtRp415
(dp416
g54
(dp417
sg63
g402
sg56
(lp418
g49
(g50
g51
NtRp419
(dp420
g54
(dp421
g62
I4
ssg63
g415
sg56
(lp422
g49
(g58
g51
NtRp423
(dp424
g54
(dp425
g62
I3
ssg63
Nsg56
(lp426
g49
(g65
g51
NtRp427
(dp428
g54
(dp429
sg63
g423
sg56
(lp430
g49
(g70
g51
NtRp431
(dp432
g54
(dp433
g74
g75
ssg63
g427
sg56
(lp434
g263
asbag49
(g70
g51
NtRp435
(dp436
g54
(dp437
g81
g82
ssg63
g427
sg56
(lp438
S':'
asbag49
(g70
g51
NtRp439
(dp440
g54
(dp441
sg63
g427
sg56
(lp442
g49
(g50
g51
NtRp443
(dp444
g54
(dp445
g62
I3
ssg63
g439
sg56
(lp446
S''
asbasbasbag49
(g65
g51
NtRp447
(dp448
g54
(dp449
sg63
g423
sg56
(lp450
g49
(g70
g51
NtRp451
(dp452
g54
(dp453
g74
g75
ssg63
g447
sg56
(lp454
g284
asbag49
(g70
g51
NtRp455
(dp456
g54
(dp457
g81
g82
ssg63
g447
sg56
(lp458
S':'
asbag49
(g70
g51
NtRp459
(dp460
g54
(dp461
sg63
g447
sg56
(lp462
g49
(g50
g51
NtRp463
(dp464
g54
(dp465
g62
I3
ssg63
g459
sg56
(lp466
S''
asbasbasbag49
(g65
g51
NtRp467
(dp468
g54
(dp469
sg63
g423
sg56
(lp470
g49
(g70
g51
NtRp471
(dp472
g54
(dp473
g74
g75
ssg63
g467
sg56
(lp474
g305
asbag49
(g70
g51
NtRp475
(dp476
g54
(dp477
g81
g82
ssg63
g467
sg56
(lp478
S':'
asbag49
(g70
g51
NtRp479
(dp480
g54
(dp481
sg63
g467
sg56
(lp482
g49
(g50
g51
NtRp483
(dp484
g54
(dp485
g62
I3
ssg63
g479
sg56
(lp486
S''
asbasbasbag49
(g65
g51
NtRp487
(dp488
g54
(dp489
sg63
g423
sg56
(lp490
g49
(g70
g51
NtRp491
(dp492
g54
(dp493
g74
g75
ssg63
g487
sg56
(lp494
g326
asbag49
(g70
g51
NtRp495
(dp496
g54
(dp497
g81
g82
ssg63
g487
sg56
(lp498
S':'
asbag49
(g70
g51
NtRp499
(dp500
g54
(dp501
sg63
g487
sg56
(lp502
g49
(g50
g51
NtRp503
(dp504
g54
(dp505
g62
I3
ssg63
g499
sg56
(lp506
S''
asbasbasbag49
(g65
g51
NtRp507
(dp508
g54
(dp509
sg63
g423
sg56
(lp510
g49
(g70
g51
NtRp511
(dp512
g54
(dp513
g74
g75
ssg63
g507
sg56
(lp514
g347
asbag49
(g70
g51
NtRp515
(dp516
g54
(dp517
g81
g82
ssg63
g507
sg56
(lp518
S':'
asbag49
(g70
g51
NtRp519
(dp520
g54
(dp521
sg63
g507
sg56
(lp522
g49
(g50
g51
NtRp523
(dp524
g54
(dp525
g62
I3
ssg63
g519
sg56
(lp526
S''
asbasbasbag49
(g65
g51
NtRp527
(dp528
g54
(dp529
sg63
g423
sg56
(lp530
g49
(g70
g51
NtRp531
(dp532
g54
(dp533
g74
g75
ssg63
g527
sg56
(lp534
g368
asbag49
(g70
g51
NtRp535
(dp536
g54
(dp537
g81
g82
ssg63
g527
sg56
(lp538
S':'
asbag49
(g70
g51
NtRp539
(dp540
g54
(dp541
sg63
g527
sg56
(lp542
g49
(g50
g51
NtRp543
(dp544
g54
(dp545
g62
I3
ssg63
g539
sg56
(lp546
S''
asbasbasbag49
(g65
g51
NtRp547
(dp548
g54
(dp549
sg63
g423
sg56
(lp550
g49
(g70
g51
NtRp551
(dp552
g54
(dp553
g74
g75
ssg63
g547
sg56
(lp554
g389
asbag49
(g70
g51
NtRp555
(dp556
g54
(dp557
g81
g82
ssg63
g547
sg56
(lp558
S':'
asbag49
(g70
g51
NtRp559
(dp560
g54
(dp561
sg63
g547
sg56
(lp562
g49
(g50
g51
NtRp563
(dp564
g54
(dp565
g62
I3
ssg63
g559
sg56
(lp566
S''
asbasbasbasbasbasbasbag49
(g65
g51
NtRp567
(dp568
g54
(dp569
sg63
g226
sg56
(lp570
g49
(g70
g51
NtRp571
(dp572
g54
(dp573
g74
g75
ssg63
g567
sg56
(lp574
S'session_id_welcome'
p575
asbag49
(g70
g51
NtRp576
(dp577
g54
(dp578
g81
g82
ssg63
g567
sg56
(lp579
S':'
asbag49
(g70
g51
NtRp580
(dp581
g54
(dp582
sg63
g567
sg56
(lp583
g49
(g50
g51
NtRp584
(dp585
g54
(dp586
g62
I4
ssg63
g580
sg56
(lp587
g49
(g58
g51
NtRp588
(dp589
g54
(dp590
g62
I3
ssg63
Nsg56
(lp591
g49
(g65
g51
NtRp592
(dp593
g54
(dp594
sg63
g588
sg56
(lp595
g49
(g70
g51
NtRp596
(dp597
g54
(dp598
g74
g75
ssg63
g592
sg56
(lp599
g263
asbag49
(g70
g51
NtRp600
(dp601
g54
(dp602
g81
g82
ssg63
g592
sg56
(lp603
S':'
asbag49
(g70
g51
NtRp604
(dp605
g54
(dp606
sg63
g592
sg56
(lp607
g49
(g50
g51
NtRp608
(dp609
g54
(dp610
g62
I3
ssg63
g604
sg56
(lp611
S''
asbasbasbag49
(g65
g51
NtRp612
(dp613
g54
(dp614
sg63
g588
sg56
(lp615
g49
(g70
g51
NtRp616
(dp617
g54
(dp618
g74
g75
ssg63
g612
sg56
(lp619
g284
asbag49
(g70
g51
NtRp620
(dp621
g54
(dp622
g81
g82
ssg63
g612
sg56
(lp623
S':'
asbag49
(g70
g51
NtRp624
(dp625
g54
(dp626
sg63
g612
sg56
(lp627
g49
(g50
g51
NtRp628
(dp629
g54
(dp630
g62
I3
ssg63
g624
sg56
(lp631
S''
asbasbasbag49
(g65
g51
NtRp632
(dp633
g54
(dp634
sg63
g588
sg56
(lp635
g49
(g70
g51
NtRp636
(dp637
g54
(dp638
g74
g75
ssg63
g632
sg56
(lp639
g305
asbag49
(g70
g51
NtRp640
(dp641
g54
(dp642
g81
g82
ssg63
g632
sg56
(lp643
S':'
asbag49
(g70
g51
NtRp644
(dp645
g54
(dp646
sg63
g632
sg56
(lp647
g49
(g50
g51
NtRp648
(dp649
g54
(dp650
g62
I3
ssg63
g644
sg56
(lp651
S''
asbasbasbag49
(g65
g51
NtRp652
(dp653
g54
(dp654
sg63
g588
sg56
(lp655
g49
(g70
g51
NtRp656
(dp657
g54
(dp658
g74
g75
ssg63
g652
sg56
(lp659
g326
asbag49
(g70
g51
NtRp660
(dp661
g54
(dp662
g81
g82
ssg63
g652
sg56
(lp663
S':'
asbag49
(g70
g51
NtRp664
(dp665
g54
(dp666
sg63
g652
sg56
(lp667
g49
(g50
g51
NtRp668
(dp669
g54
(dp670
g62
I3
ssg63
g664
sg56
(lp671
S''
asbasbasbag49
(g65
g51
NtRp672
(dp673
g54
(dp674
sg63
g588
sg56
(lp675
g49
(g70
g51
NtRp676
(dp677
g54
(dp678
g74
g75
ssg63
g672
sg56
(lp679
g347
asbag49
(g70
g51
NtRp680
(dp681
g54
(dp682
g81
g82
ssg63
g672
sg56
(lp683
S':'
asbag49
(g70
g51
NtRp684
(dp685
g54
(dp686
sg63
g672
sg56
(lp687
g49
(g50
g51
NtRp688
(dp689
g54
(dp690
g62
I3
ssg63
g684
sg56
(lp691
S''
asbasbasbag49
(g65
g51
NtRp692
(dp693
g54
(dp694
sg63
g588
sg56
(lp695
g49
(g70
g51
NtRp696
(dp697
g54
(dp698
g74
g75
ssg63
g692
sg56
(lp699
g368
asbag49
(g70
g51
NtRp700
(dp701
g54
(dp702
g81
g82
ssg63
g692
sg56
(lp703
S':'
asbag49
(g70
g51
NtRp704
(dp705
g54
(dp706
sg63
g692
sg56
(lp707
g49
(g50
g51
NtRp708
(dp709
g54
(dp710
g62
I3
ssg63
g704
sg56
(lp711
S''
asbasbasbag49
(g65
g51
NtRp712
(dp713
g54
(dp714
sg63
g588
sg56
(lp715
g49
(g70
g51
NtRp716
(dp717
g54
(dp718
g74
g75
ssg63
g712
sg56
(lp719
g389
asbag49
(g70
g51
NtRp720
(dp721
g54
(dp722
g81
g82
ssg63
g712
sg56
(lp723
S':'
asbag49
(g70
g51
NtRp724
(dp725
g54
(dp726
sg63
g712
sg56
(lp727
g49
(g50
g51
NtRp728
(dp729
g54
(dp730
g62
I3
ssg63
g724
sg56
(lp731
S''
asbasbasbasbasbasbasbasbasbasbasbag49
(g65
g51
NtRp732
(dp733
g54
(dp734
sg63
g59
sg56
(lp735
g49
(g70
g51
NtRp736
(dp737
g54
(dp738
g74
g75
ssg63
g732
sg56
(lp739
S'env'
p740
asbag49
(g70
g51
NtRp741
(dp742
g54
(dp743
g81
g82
ssg63
g732
sg56
(lp744
S':'
asbag49
(g70
g51
NtRp745
(dp746
g54
(dp747
sg63
g732
sg56
(lp748
g49
(g50
g51
NtRp749
(dp750
g54
(dp751
g62
I5
ssg63
g745
sg56
(lp752
g49
(g58
g51
NtRp753
(dp754
g54
(dp755
g62
I4
ssg63
Nsg56
(lp756
g49
(g65
g51
NtRp757
(dp758
g54
(dp759
sg63
g753
sg56
(lp760
g49
(g70
g51
NtRp761
(dp762
g54
(dp763
g74
g75
ssg63
g757
sg56
(lp764
S'app_folders'
p765
asbag49
(g70
g51
NtRp766
(dp767
g54
(dp768
g81
g82
ssg63
g757
sg56
(lp769
S':'
asbag49
(g70
g51
NtRp770
(dp771
g54
(dp772
sg63
g757
sg56
(lp773
g49
(g50
g51
NtRp774
(dp775
g54
(dp776
g62
I4
ssg63
g770
sg56
(lp777
S"set(['/Users/udimilo/Documents/web2py/applications/udi0312/', '/Users/udimilo/Documents/web2py/applications/admin/'])"
p778
asbasbasbag49
(g65
g51
NtRp779
(dp780
g54
(dp781
sg63
g753
sg56
(lp782
g49
(g70
g51
NtRp783
(dp784
g54
(dp785
g74
g75
ssg63
g779
sg56
(lp786
S'applications_parent'
p787
asbag49
(g70
g51
NtRp788
(dp789
g54
(dp790
g81
g82
ssg63
g779
sg56
(lp791
S':'
asbag49
(g70
g51
NtRp792
(dp793
g54
(dp794
sg63
g779
sg56
(lp795
g49
(g50
g51
NtRp796
(dp797
g54
(dp798
g62
I4
ssg63
g792
sg56
(lp799
S'/Users/udimilo/Documents/web2py'
p800
asbasbasbag49
(g65
g51
NtRp801
(dp802
g54
(dp803
sg63
g753
sg56
(lp804
g49
(g70
g51
NtRp805
(dp806
g54
(dp807
g74
g75
ssg63
g801
sg56
(lp808
S'cmd_args'
p809
asbag49
(g70
g51
NtRp810
(dp811
g54
(dp812
g81
g82
ssg63
g801
sg56
(lp813
S':'
asbag49
(g70
g51
NtRp814
(dp815
g54
(dp816
sg63
g801
sg56
(lp817
g49
(g50
g51
NtRp818
(dp819
g54
(dp820
g62
I4
ssg63
g814
sg56
(lp821
g49
(g58
g51
NtRp822
(dp823
g54
(dp824
g62
I3
ssg63
Nsg56
(lp825
sbasbasbasbag49
(g65
g51
NtRp826
(dp827
g54
(dp828
sg63
g753
sg56
(lp829
g49
(g70
g51
NtRp830
(dp831
g54
(dp832
g74
g75
ssg63
g826
sg56
(lp833
S'cmd_options'
p834
asbag49
(g70
g51
NtRp835
(dp836
g54
(dp837
g81
g82
ssg63
g826
sg56
(lp838
S':'
asbag49
(g70
g51
NtRp839
(dp840
g54
(dp841
sg63
g826
sg56
(lp842
g49
(g50
g51
NtRp843
(dp844
g54
(dp845
g62
I4
ssg63
g839
sg56
(lp846
S"<Values at 0x2317300: {'verbose': False, 'ip': '127.0.0.1', 'shutdown_timeout': 5, 'taskbar': False, 'nocron': False, 'pid_filename': 'httpserver.pid', 'maxthreads': None, 'softcron': False, 'server_name': 'Udi-Milos-MacBook-Pro.local', 'bpython': False, 'nogui': False, 'port': 8000, 'extcron': False, 'debuglevel': 30, 'test': None, 'folder': '/Users/udimilo/Documents/web2py', 'config': '', 'import_models': False, 'winservice': '', 'shell': None, 'run': '', 'log_filename': 'httpserver.log', 'args': [''], 'socket_timeout': 5, 'ssl_ca_certificate': None, 'scheduler': None, 'profiler_filename': None, 'ssl_private_key': '', 'password': '<ask>', 'request_queue_size': 5, 'ssl_certificate': '', 'cronjob': False, 'numthreads': None, 'quiet': False, 'interfaces': None, 'minthreads': None, 'timeout': 10, 'plain': False, 'nobanner': False}>"
p847
asbasbasbag49
(g65
g51
NtRp848
(dp849
g54
(dp850
sg63
g753
sg56
(lp851
g49
(g70
g51
NtRp852
(dp853
g54
(dp854
g74
g75
ssg63
g848
sg56
(lp855
S'db_sessions'
p856
asbag49
(g70
g51
NtRp857
(dp858
g54
(dp859
g81
g82
ssg63
g848
sg56
(lp860
S':'
asbag49
(g70
g51
NtRp861
(dp862
g54
(dp863
sg63
g848
sg56
(lp864
g49
(g50
g51
NtRp865
(dp866
g54
(dp867
g62
I4
ssg63
g861
sg56
(lp868
S'set([])'
p869
asbasbasbag49
(g65
g51
NtRp870
(dp871
g54
(dp872
sg63
g753
sg56
(lp873
g49
(g70
g51
NtRp874
(dp875
g54
(dp876
g74
g75
ssg63
g870
sg56
(lp877
S'debugging'
p878
asbag49
(g70
g51
NtRp879
(dp880
g54
(dp881
g81
g82
ssg63
g870
sg56
(lp882
S':'
asbag49
(g70
g51
NtRp883
(dp884
g54
(dp885
sg63
g870
sg56
(lp886
g49
(g50
g51
NtRp887
(dp888
g54
(dp889
g62
I4
ssg63
g883
sg56
(lp890
g92
asbasbasbag49
(g65
g51
NtRp891
(dp892
g54
(dp893
sg63
g753
sg56
(lp894
g49
(g70
g51
NtRp895
(dp896
g54
(dp897
g74
g75
ssg63
g891
sg56
(lp898
S'gluon_parent'
p899
asbag49
(g70
g51
NtRp900
(dp901
g54
(dp902
g81
g82
ssg63
g891
sg56
(lp903
S':'
asbag49
(g70
g51
NtRp904
(dp905
g54
(dp906
sg63
g891
sg56
(lp907
g49
(g50
g51
NtRp908
(dp909
g54
(dp910
g62
I4
ssg63
g904
sg56
(lp911
S'/Users/udimilo/Documents/web2py'
p912
asbasbasbag49
(g65
g51
NtRp913
(dp914
g54
(dp915
sg63
g753
sg56
(lp916
g49
(g70
g51
NtRp917
(dp918
g54
(dp919
g74
g75
ssg63
g913
sg56
(lp920
S'http_accept'
p921
asbag49
(g70
g51
NtRp922
(dp923
g54
(dp924
g81
g82
ssg63
g913
sg56
(lp925
S':'
asbag49
(g70
g51
NtRp926
(dp927
g54
(dp928
sg63
g913
sg56
(lp929
g49
(g50
g51
NtRp930
(dp931
g54
(dp932
g62
I4
ssg63
g926
sg56
(lp933
S'text/html,application/xhtml+xml,application/xml;q=0.9,*/*;q=0.8'
p934
asbasbasbag49
(g65
g51
NtRp935
(dp936
g54
(dp937
sg63
g753
sg56
(lp938
g49
(g70
g51
NtRp939
(dp940
g54
(dp941
g74
g75
ssg63
g935
sg56
(lp942
S'http_accept_charset'
p943
asbag49
(g70
g51
NtRp944
(dp945
g54
(dp946
g81
g82
ssg63
g935
sg56
(lp947
S':'
asbag49
(g70
g51
NtRp948
(dp949
g54
(dp950
sg63
g935
sg56
(lp951
g49
(g50
g51
NtRp952
(dp953
g54
(dp954
g62
I4
ssg63
g948
sg56
(lp955
S'ISO-8859-1,utf-8;q=0.7,*;q=0.3'
p956
asbasbasbag49
(g65
g51
NtRp957
(dp958
g54
(dp959
sg63
g753
sg56
(lp960
g49
(g70
g51
NtRp961
(dp962
g54
(dp963
g74
g75
ssg63
g957
sg56
(lp964
S'http_accept_encoding'
p965
asbag49
(g70
g51
NtRp966
(dp967
g54
(dp968
g81
g82
ssg63
g957
sg56
(lp969
S':'
asbag49
(g70
g51
NtRp970
(dp971
g54
(dp972
sg63
g957
sg56
(lp973
g49
(g50
g51
NtRp974
(dp975
g54
(dp976
g62
I4
ssg63
g970
sg56
(lp977
S'gzip,deflate,sdch'
p978
asbasbasbag49
(g65
g51
NtRp979
(dp980
g54
(dp981
sg63
g753
sg56
(lp982
g49
(g70
g51
NtRp983
(dp984
g54
(dp985
g74
g75
ssg63
g979
sg56
(lp986
S'http_accept_language'
p987
asbag49
(g70
g51
NtRp988
(dp989
g54
(dp990
g81
g82
ssg63
g979
sg56
(lp991
S':'
asbag49
(g70
g51
NtRp992
(dp993
g54
(dp994
sg63
g979
sg56
(lp995
g49
(g50
g51
NtRp996
(dp997
g54
(dp998
g62
I4
ssg63
g992
sg56
(lp999
S'en-US,en;q=0.8'
p1000
asbasbasbag49
(g65
g51
NtRp1001
(dp1002
g54
(dp1003
sg63
g753
sg56
(lp1004
g49
(g70
g51
NtRp1005
(dp1006
g54
(dp1007
g74
g75
ssg63
g1001
sg56
(lp1008
S'http_cache_control'
p1009
asbag49
(g70
g51
NtRp1010
(dp1011
g54
(dp1012
g81
g82
ssg63
g1001
sg56
(lp1013
S':'
asbag49
(g70
g51
NtRp1014
(dp1015
g54
(dp1016
sg63
g1001
sg56
(lp1017
g49
(g50
g51
NtRp1018
(dp1019
g54
(dp1020
g62
I4
ssg63
g1014
sg56
(lp1021
S'max-age=0'
p1022
asbasbasbag49
(g65
g51
NtRp1023
(dp1024
g54
(dp1025
sg63
g753
sg56
(lp1026
g49
(g70
g51
NtRp1027
(dp1028
g54
(dp1029
g74
g75
ssg63
g1023
sg56
(lp1030
S'http_connection'
p1031
asbag49
(g70
g51
NtRp1032
(dp1033
g54
(dp1034
g81
g82
ssg63
g1023
sg56
(lp1035
S':'
asbag49
(g70
g51
NtRp1036
(dp1037
g54
(dp1038
sg63
g1023
sg56
(lp1039
g49
(g50
g51
NtRp1040
(dp1041
g54
(dp1042
g62
I4
ssg63
g1036
sg56
(lp1043
S'keep-alive'
p1044
asbasbasbag49
(g65
g51
NtRp1045
(dp1046
g54
(dp1047
sg63
g753
sg56
(lp1048
g49
(g70
g51
NtRp1049
(dp1050
g54
(dp1051
g74
g75
ssg63
g1045
sg56
(lp1052
S'http_cookie'
p1053
asbag49
(g70
g51
NtRp1054
(dp1055
g54
(dp1056
g81
g82
ssg63
g1045
sg56
(lp1057
S':'
asbag49
(g70
g51
NtRp1058
(dp1059
g54
(dp1060
sg63
g1045
sg56
(lp1061
g49
(g50
g51
NtRp1062
(dp1063
g54
(dp1064
g62
I4
ssg63
g1058
sg56
(lp1065
S'session_id_welcome=127.0.0.1-a504b24f-4d61-4d9a-9b5b-4625969b9aa0; session_id_udi0312=127.0.0.1-fcd6a577-d448-4882-b7bc-f353da84ba3b; session_id_admin=127.0.0.1-d97186a8-ec58-47a4-a700-407b6196b15e'
p1066
asbasbasbag49
(g65
g51
NtRp1067
(dp1068
g54
(dp1069
sg63
g753
sg56
(lp1070
g49
(g70
g51
NtRp1071
(dp1072
g54
(dp1073
g74
g75
ssg63
g1067
sg56
(lp1074
S'http_host'
p1075
asbag49
(g70
g51
NtRp1076
(dp1077
g54
(dp1078
g81
g82
ssg63
g1067
sg56
(lp1079
S':'
asbag49
(g70
g51
NtRp1080
(dp1081
g54
(dp1082
sg63
g1067
sg56
(lp1083
g49
(g50
g51
NtRp1084
(dp1085
g54
(dp1086
g62
I4
ssg63
g1080
sg56
(lp1087
S'127.0.0.1:8000'
p1088
asbasbasbag49
(g65
g51
NtRp1089
(dp1090
g54
(dp1091
sg63
g753
sg56
(lp1092
g49
(g70
g51
NtRp1093
(dp1094
g54
(dp1095
g74
g75
ssg63
g1089
sg56
(lp1096
S'http_user_agent'
p1097
asbag49
(g70
g51
NtRp1098
(dp1099
g54
(dp1100
g81
g82
ssg63
g1089
sg56
(lp1101
S':'
asbag49
(g70
g51
NtRp1102
(dp1103
g54
(dp1104
sg63
g1089
sg56
(lp1105
g49
(g50
g51
NtRp1106
(dp1107
g54
(dp1108
g62
I4
ssg63
g1102
sg56
(lp1109
S'Mozilla/5.0 (Macintosh; Intel Mac OS X 10_7_3) AppleWebKit/535.11 (KHTML, like Gecko) Chrome/17.0.963.65 Safari/535.11'
p1110
asbasbasbag49
(g65
g51
NtRp1111
(dp1112
g54
(dp1113
sg63
g753
sg56
(lp1114
g49
(g70
g51
NtRp1115
(dp1116
g54
(dp1117
g74
g75
ssg63
g1111
sg56
(lp1118
S'is_jython'
p1119
asbag49
(g70
g51
NtRp1120
(dp1121
g54
(dp1122
g81
g82
ssg63
g1111
sg56
(lp1123
S':'
asbag49
(g70
g51
NtRp1124
(dp1125
g54
(dp1126
sg63
g1111
sg56
(lp1127
g49
(g50
g51
NtRp1128
(dp1129
g54
(dp1130
g62
I4
ssg63
g1124
sg56
(lp1131
g92
asbasbasbag49
(g65
g51
NtRp1132
(dp1133
g54
(dp1134
sg63
g753
sg56
(lp1135
g49
(g70
g51
NtRp1136
(dp1137
g54
(dp1138
g74
g75
ssg63
g1132
sg56
(lp1139
S'is_pypy'
p1140
asbag49
(g70
g51
NtRp1141
(dp1142
g54
(dp1143
g81
g82
ssg63
g1132
sg56
(lp1144
S':'
asbag49
(g70
g51
NtRp1145
(dp1146
g54
(dp1147
sg63
g1132
sg56
(lp1148
g49
(g50
g51
NtRp1149
(dp1150
g54
(dp1151
g62
I4
ssg63
g1145
sg56
(lp1152
g92
asbasbasbag49
(g65
g51
NtRp1153
(dp1154
g54
(dp1155
sg63
g753
sg56
(lp1156
g49
(g70
g51
NtRp1157
(dp1158
g54
(dp1159
g74
g75
ssg63
g1153
sg56
(lp1160
S'path_info'
p1161
asbag49
(g70
g51
NtRp1162
(dp1163
g54
(dp1164
g81
g82
ssg63
g1153
sg56
(lp1165
S':'
asbag49
(g70
g51
NtRp1166
(dp1167
g54
(dp1168
sg63
g1153
sg56
(lp1169
g49
(g50
g51
NtRp1170
(dp1171
g54
(dp1172
g62
I4
ssg63
g1166
sg56
(lp1173
S'/'
asbasbasbag49
(g65
g51
NtRp1174
(dp1175
g54
(dp1176
sg63
g753
sg56
(lp1177
g49
(g70
g51
NtRp1178
(dp1179
g54
(dp1180
g74
g75
ssg63
g1174
sg56
(lp1181
S'query_string'
p1182
asbag49
(g70
g51
NtRp1183
(dp1184
g54
(dp1185
g81
g82
ssg63
g1174
sg56
(lp1186
S':'
asbag49
(g70
g51
NtRp1187
(dp1188
g54
(dp1189
sg63
g1174
sg56
(lp1190
g49
(g50
g51
NtRp1191
(dp1192
g54
(dp1193
g62
I4
ssg63
g1187
sg56
(lp1194
S''
asbasbasbag49
(g65
g51
NtRp1195
(dp1196
g54
(dp1197
sg63
g753
sg56
(lp1198
g49
(g70
g51
NtRp1199
(dp1200
g54
(dp1201
g74
g75
ssg63
g1195
sg56
(lp1202
S'remote_addr'
p1203
asbag49
(g70
g51
NtRp1204
(dp1205
g54
(dp1206
g81
g82
ssg63
g1195
sg56
(lp1207
S':'
asbag49
(g70
g51
NtRp1208
(dp1209
g54
(dp1210
sg63
g1195
sg56
(lp1211
g49
(g50
g51
NtRp1212
(dp1213
g54
(dp1214
g62
I4
ssg63
g1208
sg56
(lp1215
g182
asbasbasbag49
(g65
g51
NtRp1216
(dp1217
g54
(dp1218
sg63
g753
sg56
(lp1219
g49
(g70
g51
NtRp1220
(dp1221
g54
(dp1222
g74
g75
ssg63
g1216
sg56
(lp1223
S'remote_port'
p1224
asbag49
(g70
g51
NtRp1225
(dp1226
g54
(dp1227
g81
g82
ssg63
g1216
sg56
(lp1228
S':'
asbag49
(g70
g51
NtRp1229
(dp1230
g54
(dp1231
sg63
g1216
sg56
(lp1232
g49
(g50
g51
NtRp1233
(dp1234
g54
(dp1235
g62
I4
ssg63
g1229
sg56
(lp1236
S'55584'
p1237
asbasbasbag49
(g65
g51
NtRp1238
(dp1239
g54
(dp1240
sg63
g753
sg56
(lp1241
g49
(g70
g51
NtRp1242
(dp1243
g54
(dp1244
g74
g75
ssg63
g1238
sg56
(lp1245
S'request_method'
p1246
asbag49
(g70
g51
NtRp1247
(dp1248
g54
(dp1249
g81
g82
ssg63
g1238
sg56
(lp1250
S':'
asbag49
(g70
g51
NtRp1251
(dp1252
g54
(dp1253
sg63
g1238
sg56
(lp1254
g49
(g50
g51
NtRp1255
(dp1256
g54
(dp1257
g62
I4
ssg63
g1251
sg56
(lp1258
S'GET'
p1259
asbasbasbag49
(g65
g51
NtRp1260
(dp1261
g54
(dp1262
sg63
g753
sg56
(lp1263
g49
(g70
g51
NtRp1264
(dp1265
g54
(dp1266
g74
g75
ssg63
g1260
sg56
(lp1267
S'request_uri'
p1268
asbag49
(g70
g51
NtRp1269
(dp1270
g54
(dp1271
g81
g82
ssg63
g1260
sg56
(lp1272
S':'
asbag49
(g70
g51
NtRp1273
(dp1274
g54
(dp1275
sg63
g1260
sg56
(lp1276
g49
(g50
g51
NtRp1277
(dp1278
g54
(dp1279
g62
I4
ssg63
g1273
sg56
(lp1280
S'/'
asbasbasbag49
(g65
g51
NtRp1281
(dp1282
g54
(dp1283
sg63
g753
sg56
(lp1284
g49
(g70
g51
NtRp1285
(dp1286
g54
(dp1287
g74
g75
ssg63
g1281
sg56
(lp1288
S'script_name'
p1289
asbag49
(g70
g51
NtRp1290
(dp1291
g54
(dp1292
g81
g82
ssg63
g1281
sg56
(lp1293
S':'
asbag49
(g70
g51
NtRp1294
(dp1295
g54
(dp1296
sg63
g1281
sg56
(lp1297
g49
(g50
g51
NtRp1298
(dp1299
g54
(dp1300
g62
I4
ssg63
g1294
sg56
(lp1301
S''
asbasbasbag49
(g65
g51
NtRp1302
(dp1303
g54
(dp1304
sg63
g753
sg56
(lp1305
g49
(g70
g51
NtRp1306
(dp1307
g54
(dp1308
g74
g75
ssg63
g1302
sg56
(lp1309
S'server_name'
p1310
asbag49
(g70
g51
NtRp1311
(dp1312
g54
(dp1313
g81
g82
ssg63
g1302
sg56
(lp1314
S':'
asbag49
(g70
g51
NtRp1315
(dp1316
g54
(dp1317
sg63
g1302
sg56
(lp1318
g49
(g50
g51
NtRp1319
(dp1320
g54
(dp1321
g62
I4
ssg63
g1315
sg56
(lp1322
S'Udi-Milos-MacBook-Pro.local'
p1323
asbasbasbag49
(g65
g51
NtRp1324
(dp1325
g54
(dp1326
sg63
g753
sg56
(lp1327
g49
(g70
g51
NtRp1328
(dp1329
g54
(dp1330
g74
g75
ssg63
g1324
sg56
(lp1331
S'server_port'
p1332
asbag49
(g70
g51
NtRp1333
(dp1334
g54
(dp1335
g81
g82
ssg63
g1324
sg56
(lp1336
S':'
asbag49
(g70
g51
NtRp1337
(dp1338
g54
(dp1339
sg63
g1324
sg56
(lp1340
g49
(g50
g51
NtRp1341
(dp1342
g54
(dp1343
g62
I4
ssg63
g1337
sg56
(lp1344
S'8000'
p1345
asbasbasbag49
(g65
g51
NtRp1346
(dp1347
g54
(dp1348
sg63
g753
sg56
(lp1349
g49
(g70
g51
NtRp1350
(dp1351
g54
(dp1352
g74
g75
ssg63
g1346
sg56
(lp1353
S'server_protocol'
p1354
asbag49
(g70
g51
NtRp1355
(dp1356
g54
(dp1357
g81
g82
ssg63
g1346
sg56
(lp1358
S':'
asbag49
(g70
g51
NtRp1359
(dp1360
g54
(dp1361
sg63
g1346
sg56
(lp1362
g49
(g50
g51
NtRp1363
(dp1364
g54
(dp1365
g62
I4
ssg63
g1359
sg56
(lp1366
S'HTTP/1.1'
p1367
asbasbasbag49
(g65
g51
NtRp1368
(dp1369
g54
(dp1370
sg63
g753
sg56
(lp1371
g49
(g70
g51
NtRp1372
(dp1373
g54
(dp1374
g74
g75
ssg63
g1368
sg56
(lp1375
S'server_software'
p1376
asbag49
(g70
g51
NtRp1377
(dp1378
g54
(dp1379
g81
g82
ssg63
g1368
sg56
(lp1380
S':'
asbag49
(g70
g51
NtRp1381
(dp1382
g54
(dp1383
sg63
g1368
sg56
(lp1384
g49
(g50
g51
NtRp1385
(dp1386
g54
(dp1387
g62
I4
ssg63
g1381
sg56
(lp1388
S'Rocket 1.2.4'
p1389
asbasbasbag49
(g65
g51
NtRp1390
(dp1391
g54
(dp1392
sg63
g753
sg56
(lp1393
g49
(g70
g51
NtRp1394
(dp1395
g54
(dp1396
g74
g75
ssg63
g1390
sg56
(lp1397
S'web2py_crontype'
p1398
asbag49
(g70
g51
NtRp1399
(dp1400
g54
(dp1401
g81
g82
ssg63
g1390
sg56
(lp1402
S':'
asbag49
(g70
g51
NtRp1403
(dp1404
g54
(dp1405
sg63
g1390
sg56
(lp1406
g49
(g50
g51
NtRp1407
(dp1408
g54
(dp1409
g62
I4
ssg63
g1403
sg56
(lp1410
S'hard'
p1411
asbasbasbag49
(g65
g51
NtRp1412
(dp1413
g54
(dp1414
sg63
g753
sg56
(lp1415
g49
(g70
g51
NtRp1416
(dp1417
g54
(dp1418
g74
g75
ssg63
g1412
sg56
(lp1419
S'web2py_original_uri'
p1420
asbag49
(g70
g51
NtRp1421
(dp1422
g54
(dp1423
g81
g82
ssg63
g1412
sg56
(lp1424
S':'
asbag49
(g70
g51
NtRp1425
(dp1426
g54
(dp1427
sg63
g1412
sg56
(lp1428
g49
(g50
g51
NtRp1429
(dp1430
g54
(dp1431
g62
I4
ssg63
g1425
sg56
(lp1432
S'/'
asbasbasbag49
(g65
g51
NtRp1433
(dp1434
g54
(dp1435
sg63
g753
sg56
(lp1436
g49
(g70
g51
NtRp1437
(dp1438
g54
(dp1439
g74
g75
ssg63
g1433
sg56
(lp1440
S'web2py_path'
p1441
asbag49
(g70
g51
NtRp1442
(dp1443
g54
(dp1444
g81
g82
ssg63
g1433
sg56
(lp1445
S':'
asbag49
(g70
g51
NtRp1446
(dp1447
g54
(dp1448
sg63
g1433
sg56
(lp1449
g49
(g50
g51
NtRp1450
(dp1451
g54
(dp1452
g62
I4
ssg63
g1446
sg56
(lp1453
g800
asbasbasbag49
(g65
g51
NtRp1454
(dp1455
g54
(dp1456
sg63
g753
sg56
(lp1457
g49
(g70
g51
NtRp1458
(dp1459
g54
(dp1460
g74
g75
ssg63
g1454
sg56
(lp1461
S'web2py_version'
p1462
asbag49
(g70
g51
NtRp1463
(dp1464
g54
(dp1465
g81
g82
ssg63
g1454
sg56
(lp1466
S':'
asbag49
(g70
g51
NtRp1467
(dp1468
g54
(dp1469
sg63
g1454
sg56
(lp1470
g49
(g50
g51
NtRp1471
(dp1472
g54
(dp1473
g62
I4
ssg63
g1467
sg56
(lp1474
g49
(g58
g51
NtRp1475
(dp1476
g54
(dp1477
g62
I3
ssg63
Nsg56
(lp1478
g49
(g65
g51
NtRp1479
(dp1480
g54
(dp1481
sg63
g1475
sg56
(lp1482
g49
(g70
g51
NtRp1483
(dp1484
g54
(dp1485
sg63
g1479
sg56
(lp1486
g49
(g50
g51
NtRp1487
(dp1488
g54
(dp1489
g62
I3
ssg63
g1483
sg56
(lp1490
S'1'
asbasbasbag49
(g65
g51
NtRp1491
(dp1492
g54
(dp1493
sg63
g1475
sg56
(lp1494
g49
(g70
g51
NtRp1495
(dp1496
g54
(dp1497
sg63
g1491
sg56
(lp1498
g49
(g50
g51
NtRp1499
(dp1500
g54
(dp1501
g62
I3
ssg63
g1495
sg56
(lp1502
S'99'
p1503
asbasbasbag49
(g65
g51
NtRp1504
(dp1505
g54
(dp1506
sg63
g1475
sg56
(lp1507
g49
(g70
g51
NtRp1508
(dp1509
g54
(dp1510
sg63
g1504
sg56
(lp1511
g49
(g50
g51
NtRp1512
(dp1513
g54
(dp1514
g62
I3
ssg63
g1508
sg56
(lp1515
S'7'
asbasbasbag49
(g65
g51
NtRp1516
(dp1517
g54
(dp1518
sg63
g1475
sg56
(lp1519
g49
(g70
g51
NtRp1520
(dp1521
g54
(dp1522
sg63
g1516
sg56
(lp1523
g49
(g50
g51
NtRp1524
(dp1525
g54
(dp1526
g62
I3
ssg63
g1520
sg56
(lp1527
S'datetime.datetime(2012, 3, 4, 22, 12, 8)'
p1528
asbasbasbag49
(g65
g51
NtRp1529
(dp1530
g54
(dp1531
sg63
g1475
sg56
(lp1532
g49
(g70
g51
NtRp1533
(dp1534
g54
(dp1535
sg63
g1529
sg56
(lp1536
g49
(g50
g51
NtRp1537
(dp1538
g54
(dp1539
g62
I3
ssg63
g1533
sg56
(lp1540
S'stable'
p1541
asbasbasbasbasbasbasbag49
(g65
g51
NtRp1542
(dp1543
g54
(dp1544
sg63
g753
sg56
(lp1545
g49
(g70
g51
NtRp1546
(dp1547
g54
(dp1548
g74
g75
ssg63
g1542
sg56
(lp1549
S'wsgi_errors'
p1550
asbag49
(g70
g51
NtRp1551
(dp1552
g54
(dp1553
g81
g82
ssg63
g1542
sg56
(lp1554
S':'
asbag49
(g70
g51
NtRp1555
(dp1556
g54
(dp1557
sg63
g1542
sg56
(lp1558
g49
(g50
g51
NtRp1559
(dp1560
g54
(dp1561
g62
I4
ssg63
g1555
sg56
(lp1562
S"<open file '<stderr>', mode 'w' at 0x4220b0>"
p1563
asbasbasbag49
(g65
g51
NtRp1564
(dp1565
g54
(dp1566
sg63
g753
sg56
(lp1567
g49
(g70
g51
NtRp1568
(dp1569
g54
(dp1570
g74
g75
ssg63
g1564
sg56
(lp1571
S'wsgi_file_wrapper'
p1572
asbag49
(g70
g51
NtRp1573
(dp1574
g54
(dp1575
g81
g82
ssg63
g1564
sg56
(lp1576
S':'
asbag49
(g70
g51
NtRp1577
(dp1578
g54
(dp1579
sg63
g1564
sg56
(lp1580
g49
(g50
g51
NtRp1581
(dp1582
g54
(dp1583
g62
I4
ssg63
g1577
sg56
(lp1584
S'<class wsgiref.util.FileWrapper at 0x2260450>'
p1585
asbasbasbag49
(g65
g51
NtRp1586
(dp1587
g54
(dp1588
sg63
g753
sg56
(lp1589
g49
(g70
g51
NtRp1590
(dp1591
g54
(dp1592
g74
g75
ssg63
g1586
sg56
(lp1593
S'wsgi_input'
p1594
asbag49
(g70
g51
NtRp1595
(dp1596
g54
(dp1597
g81
g82
ssg63
g1586
sg56
(lp1598
S':'
asbag49
(g70
g51
NtRp1599
(dp1600
g54
(dp1601
sg63
g1586
sg56
(lp1602
g49
(g50
g51
NtRp1603
(dp1604
g54
(dp1605
g62
I4
ssg63
g1599
sg56
(lp1606
S'<socket._fileobject object at 0xa0307b0>'
p1607
asbasbasbag49
(g65
g51
NtRp1608
(dp1609
g54
(dp1610
sg63
g753
sg56
(lp1611
g49
(g70
g51
NtRp1612
(dp1613
g54
(dp1614
g74
g75
ssg63
g1608
sg56
(lp1615
S'wsgi_multiprocess'
p1616
asbag49
(g70
g51
NtRp1617
(dp1618
g54
(dp1619
g81
g82
ssg63
g1608
sg56
(lp1620
S':'
asbag49
(g70
g51
NtRp1621
(dp1622
g54
(dp1623
sg63
g1608
sg56
(lp1624
g49
(g50
g51
NtRp1625
(dp1626
g54
(dp1627
g62
I4
ssg63
g1621
sg56
(lp1628
g92
asbasbasbag49
(g65
g51
NtRp1629
(dp1630
g54
(dp1631
sg63
g753
sg56
(lp1632
g49
(g70
g51
NtRp1633
(dp1634
g54
(dp1635
g74
g75
ssg63
g1629
sg56
(lp1636
S'wsgi_multithread'
p1637
asbag49
(g70
g51
NtRp1638
(dp1639
g54
(dp1640
g81
g82
ssg63
g1629
sg56
(lp1641
S':'
asbag49
(g70
g51
NtRp1642
(dp1643
g54
(dp1644
sg63
g1629
sg56
(lp1645
g49
(g50
g51
NtRp1646
(dp1647
g54
(dp1648
g62
I4
ssg63
g1642
sg56
(lp1649
S'True'
p1650
asbasbasbag49
(g65
g51
NtRp1651
(dp1652
g54
(dp1653
sg63
g753
sg56
(lp1654
g49
(g70
g51
NtRp1655
(dp1656
g54
(dp1657
g74
g75
ssg63
g1651
sg56
(lp1658
S'wsgi_run_once'
p1659
asbag49
(g70
g51
NtRp1660
(dp1661
g54
(dp1662
g81
g82
ssg63
g1651
sg56
(lp1663
S':'
asbag49
(g70
g51
NtRp1664
(dp1665
g54
(dp1666
sg63
g1651
sg56
(lp1667
g49
(g50
g51
NtRp1668
(dp1669
g54
(dp1670
g62
I4
ssg63
g1664
sg56
(lp1671
g92
asbasbasbag49
(g65
g51
NtRp1672
(dp1673
g54
(dp1674
sg63
g753
sg56
(lp1675
g49
(g70
g51
NtRp1676
(dp1677
g54
(dp1678
g74
g75
ssg63
g1672
sg56
(lp1679
S'wsgi_url_scheme'
p1680
asbag49
(g70
g51
NtRp1681
(dp1682
g54
(dp1683
g81
g82
ssg63
g1672
sg56
(lp1684
S':'
asbag49
(g70
g51
NtRp1685
(dp1686
g54
(dp1687
sg63
g1672
sg56
(lp1688
g49
(g50
g51
NtRp1689
(dp1690
g54
(dp1691
g62
I4
ssg63
g1685
sg56
(lp1692
S'http'
p1693
asbasbasbag49
(g65
g51
NtRp1694
(dp1695
g54
(dp1696
sg63
g753
sg56
(lp1697
g49
(g70
g51
NtRp1698
(dp1699
g54
(dp1700
g74
g75
ssg63
g1694
sg56
(lp1701
S'wsgi_version'
p1702
asbag49
(g70
g51
NtRp1703
(dp1704
g54
(dp1705
g81
g82
ssg63
g1694
sg56
(lp1706
S':'
asbag49
(g70
g51
NtRp1707
(dp1708
g54
(dp1709
sg63
g1694
sg56
(lp1710
g49
(g50
g51
NtRp1711
(dp1712
g54
(dp1713
g62
I4
ssg63
g1707
sg56
(lp1714
g49
(g58
g51
NtRp1715
(dp1716
g54
(dp1717
g62
I3
ssg63
Nsg56
(lp1718
g49
(g65
g51
NtRp1719
(dp1720
g54
(dp1721
sg63
g1715
sg56
(lp1722
g49
(g70
g51
NtRp1723
(dp1724
g54
(dp1725
sg63
g1719
sg56
(lp1726
g49
(g50
g51
NtRp1727
(dp1728
g54
(dp1729
g62
I3
ssg63
g1723
sg56
(lp1730
S'1'
asbasbasbag49
(g65
g51
NtRp1731
(dp1732
g54
(dp1733
sg63
g1715
sg56
(lp1734
g49
(g70
g51
NtRp1735
(dp1736
g54
(dp1737
sg63
g1731
sg56
(lp1738
g49
(g50
g51
NtRp1739
(dp1740
g54
(dp1741
g62
I3
ssg63
g1735
sg56
(lp1742
S'0'
asbasbasbasbasbasbasbasbasbasbasbag49
(g65
g51
NtRp1743
(dp1744
g54
(dp1745
sg63
g59
sg56
(lp1746
g49
(g70
g51
NtRp1747
(dp1748
g54
(dp1749
g74
g75
ssg63
g1743
sg56
(lp1750
S'extension'
p1751
asbag49
(g70
g51
NtRp1752
(dp1753
g54
(dp1754
g81
g82
ssg63
g1743
sg56
(lp1755
S':'
asbag49
(g70
g51
NtRp1756
(dp1757
g54
(dp1758
sg63
g1743
sg56
(lp1759
g49
(g50
g51
NtRp1760
(dp1761
g54
(dp1762
g62
I5
ssg63
g1756
sg56
(lp1763
S'html'
p1764
asbasbasbag49
(g65
g51
NtRp1765
(dp1766
g54
(dp1767
sg63
g59
sg56
(lp1768
g49
(g70
g51
NtRp1769
(dp1770
g54
(dp1771
g74
g75
ssg63
g1765
sg56
(lp1772
S'folder'
p1773
asbag49
(g70
g51
NtRp1774
(dp1775
g54
(dp1776
g81
g82
ssg63
g1765
sg56
(lp1777
S':'
asbag49
(g70
g51
NtRp1778
(dp1779
g54
(dp1780
sg63
g1765
sg56
(lp1781
g49
(g50
g51
NtRp1782
(dp1783
g54
(dp1784
g62
I5
ssg63
g1778
sg56
(lp1785
S'/Users/udimilo/Documents/web2py/applications/udi0312/'
p1786
asbasbasbag49
(g65
g51
NtRp1787
(dp1788
g54
(dp1789
sg63
g59
sg56
(lp1790
g49
(g70
g51
NtRp1791
(dp1792
g54
(dp1793
g74
g75
ssg63
g1787
sg56
(lp1794
S'function'
p1795
asbag49
(g70
g51
NtRp1796
(dp1797
g54
(dp1798
g81
g82
ssg63
g1787
sg56
(lp1799
S':'
asbag49
(g70
g51
NtRp1800
(dp1801
g54
(dp1802
sg63
g1787
sg56
(lp1803
g49
(g50
g51
NtRp1804
(dp1805
g54
(dp1806
g62
I5
ssg63
g1800
sg56
(lp1807
S'index'
p1808
asbasbasbag49
(g65
g51
NtRp1809
(dp1810
g54
(dp1811
sg63
g59
sg56
(lp1812
g49
(g70
g51
NtRp1813
(dp1814
g54
(dp1815
g74
g75
ssg63
g1809
sg56
(lp1816
S'get_vars'
p1817
asbag49
(g70
g51
NtRp1818
(dp1819
g54
(dp1820
g81
g82
ssg63
g1809
sg56
(lp1821
S':'
asbag49
(g70
g51
NtRp1822
(dp1823
g54
(dp1824
sg63
g1809
sg56
(lp1825
g49
(g50
g51
NtRp1826
(dp1827
g54
(dp1828
g62
I5
ssg63
g1822
sg56
(lp1829
g49
(g58
g51
NtRp1830
(dp1831
g54
(dp1832
g62
I4
ssg63
Nsg56
(lp1833
sbasbasbasbag49
(g65
g51
NtRp1834
(dp1835
g54
(dp1836
sg63
g59
sg56
(lp1837
g49
(g70
g51
NtRp1838
(dp1839
g54
(dp1840
g74
g75
ssg63
g1834
sg56
(lp1841
S'global_settings'
p1842
asbag49
(g70
g51
NtRp1843
(dp1844
g54
(dp1845
g81
g82
ssg63
g1834
sg56
(lp1846
S':'
asbag49
(g70
g51
NtRp1847
(dp1848
g54
(dp1849
sg63
g1834
sg56
(lp1850
g49
(g50
g51
NtRp1851
(dp1852
g54
(dp1853
g62
I5
ssg63
g1847
sg56
(lp1854
g49
(g58
g51
NtRp1855
(dp1856
g54
(dp1857
g62
I4
ssg63
Nsg56
(lp1858
g49
(g65
g51
NtRp1859
(dp1860
g54
(dp1861
sg63
g1855
sg56
(lp1862
g49
(g70
g51
NtRp1863
(dp1864
g54
(dp1865
g74
g75
ssg63
g1859
sg56
(lp1866
g765
asbag49
(g70
g51
NtRp1867
(dp1868
g54
(dp1869
g81
g82
ssg63
g1859
sg56
(lp1870
S':'
asbag49
(g70
g51
NtRp1871
(dp1872
g54
(dp1873
sg63
g1859
sg56
(lp1874
g49
(g50
g51
NtRp1875
(dp1876
g54
(dp1877
g62
I4
ssg63
g1871
sg56
(lp1878
S"set(['/Users/udimilo/Documents/web2py/applications/udi0312/', '/Users/udimilo/Documents/web2py/applications/admin/'])"
p1879
asbasbasbag49
(g65
g51
NtRp1880
(dp1881
g54
(dp1882
sg63
g1855
sg56
(lp1883
g49
(g70
g51
NtRp1884
(dp1885
g54
(dp1886
g74
g75
ssg63
g1880
sg56
(lp1887
g787
asbag49
(g70
g51
NtRp1888
(dp1889
g54
(dp1890
g81
g82
ssg63
g1880
sg56
(lp1891
S':'
asbag49
(g70
g51
NtRp1892
(dp1893
g54
(dp1894
sg63
g1880
sg56
(lp1895
g49
(g50
g51
NtRp1896
(dp1897
g54
(dp1898
g62
I4
ssg63
g1892
sg56
(lp1899
g800
asbasbasbag49
(g65
g51
NtRp1900
(dp1901
g54
(dp1902
sg63
g1855
sg56
(lp1903
g49
(g70
g51
NtRp1904
(dp1905
g54
(dp1906
g74
g75
ssg63
g1900
sg56
(lp1907
g809
asbag49
(g70
g51
NtRp1908
(dp1909
g54
(dp1910
g81
g82
ssg63
g1900
sg56
(lp1911
S':'
asbag49
(g70
g51
NtRp1912
(dp1913
g54
(dp1914
sg63
g1900
sg56
(lp1915
g49
(g50
g51
NtRp1916
(dp1917
g54
(dp1918
g62
I4
ssg63
g1912
sg56
(lp1919
g49
(g58
g51
NtRp1920
(dp1921
g54
(dp1922
g62
I3
ssg63
Nsg56
(lp1923
sbasbasbasbag49
(g65
g51
NtRp1924
(dp1925
g54
(dp1926
sg63
g1855
sg56
(lp1927
g49
(g70
g51
NtRp1928
(dp1929
g54
(dp1930
g74
g75
ssg63
g1924
sg56
(lp1931
g834
asbag49
(g70
g51
NtRp1932
(dp1933
g54
(dp1934
g81
g82
ssg63
g1924
sg56
(lp1935
S':'
asbag49
(g70
g51
NtRp1936
(dp1937
g54
(dp1938
sg63
g1924
sg56
(lp1939
g49
(g50
g51
NtRp1940
(dp1941
g54
(dp1942
g62
I4
ssg63
g1936
sg56
(lp1943
S"<Values at 0x2317300: {'verbose': False, 'ip': '127.0.0.1', 'shutdown_timeout': 5, 'taskbar': False, 'nocron': False, 'pid_filename': 'httpserver.pid', 'maxthreads': None, 'softcron': False, 'server_name': 'Udi-Milos-MacBook-Pro.local', 'bpython': False, 'nogui': False, 'port': 8000, 'extcron': False, 'debuglevel': 30, 'test': None, 'folder': '/Users/udimilo/Documents/web2py', 'config': '', 'import_models': False, 'winservice': '', 'shell': None, 'run': '', 'log_filename': 'httpserver.log', 'args': [''], 'socket_timeout': 5, 'ssl_ca_certificate': None, 'scheduler': None, 'profiler_filename': None, 'ssl_private_key': '', 'password': '<ask>', 'request_queue_size': 5, 'ssl_certificate': '', 'cronjob': False, 'numthreads': None, 'quiet': False, 'interfaces': None, 'minthreads': None, 'timeout': 10, 'plain': False, 'nobanner': False}>"
p1944
asbasbasbag49
(g65
g51
NtRp1945
(dp1946
g54
(dp1947
sg63
g1855
sg56
(lp1948
g49
(g70
g51
NtRp1949
(dp1950
g54
(dp1951
g74
g75
ssg63
g1945
sg56
(lp1952
g856
asbag49
(g70
g51
NtRp1953
(dp1954
g54
(dp1955
g81
g82
ssg63
g1945
sg56
(lp1956
S':'
asbag49
(g70
g51
NtRp1957
(dp1958
g54
(dp1959
sg63
g1945
sg56
(lp1960
g49
(g50
g51
NtRp1961
(dp1962
g54
(dp1963
g62
I4
ssg63
g1957
sg56
(lp1964
S'set([])'
p1965
asbasbasbag49
(g65
g51
NtRp1966
(dp1967
g54
(dp1968
sg63
g1855
sg56
(lp1969
g49
(g70
g51
NtRp1970
(dp1971
g54
(dp1972
g74
g75
ssg63
g1966
sg56
(lp1973
g878
asbag49
(g70
g51
NtRp1974
(dp1975
g54
(dp1976
g81
g82
ssg63
g1966
sg56
(lp1977
S':'
asbag49
(g70
g51
NtRp1978
(dp1979
g54
(dp1980
sg63
g1966
sg56
(lp1981
g49
(g50
g51
NtRp1982
(dp1983
g54
(dp1984
g62
I4
ssg63
g1978
sg56
(lp1985
g92
asbasbasbag49
(g65
g51
NtRp1986
(dp1987
g54
(dp1988
sg63
g1855
sg56
(lp1989
g49
(g70
g51
NtRp1990
(dp1991
g54
(dp1992
g74
g75
ssg63
g1986
sg56
(lp1993
g899
asbag49
(g70
g51
NtRp1994
(dp1995
g54
(dp1996
g81
g82
ssg63
g1986
sg56
(lp1997
S':'
asbag49
(g70
g51
NtRp1998
(dp1999
g54
(dp2000
sg63
g1986
sg56
(lp2001
g49
(g50
g51
NtRp2002
(dp2003
g54
(dp2004
g62
I4
ssg63
g1998
sg56
(lp2005
g912
asbasbasbag49
(g65
g51
NtRp2006
(dp2007
g54
(dp2008
sg63
g1855
sg56
(lp2009
g49
(g70
g51
NtRp2010
(dp2011
g54
(dp2012
g74
g75
ssg63
g2006
sg56
(lp2013
g1119
asbag49
(g70
g51
NtRp2014
(dp2015
g54
(dp2016
g81
g82
ssg63
g2006
sg56
(lp2017
S':'
asbag49
(g70
g51
NtRp2018
(dp2019
g54
(dp2020
sg63
g2006
sg56
(lp2021
g49
(g50
g51
NtRp2022
(dp2023
g54
(dp2024
g62
I4
ssg63
g2018
sg56
(lp2025
g92
asbasbasbag49
(g65
g51
NtRp2026
(dp2027
g54
(dp2028
sg63
g1855
sg56
(lp2029
g49
(g70
g51
NtRp2030
(dp2031
g54
(dp2032
g74
g75
ssg63
g2026
sg56
(lp2033
g1140
asbag49
(g70
g51
NtRp2034
(dp2035
g54
(dp2036
g81
g82
ssg63
g2026
sg56
(lp2037
S':'
asbag49
(g70
g51
NtRp2038
(dp2039
g54
(dp2040
sg63
g2026
sg56
(lp2041
g49
(g50
g51
NtRp2042
(dp2043
g54
(dp2044
g62
I4
ssg63
g2038
sg56
(lp2045
g92
asbasbasbag49
(g65
g51
NtRp2046
(dp2047
g54
(dp2048
sg63
g1855
sg56
(lp2049
g49
(g70
g51
NtRp2050
(dp2051
g54
(dp2052
g74
g75
ssg63
g2046
sg56
(lp2053
g1398
asbag49
(g70
g51
NtRp2054
(dp2055
g54
(dp2056
g81
g82
ssg63
g2046
sg56
(lp2057
S':'
asbag49
(g70
g51
NtRp2058
(dp2059
g54
(dp2060
sg63
g2046
sg56
(lp2061
g49
(g50
g51
NtRp2062
(dp2063
g54
(dp2064
g62
I4
ssg63
g2058
sg56
(lp2065
g1411
asbasbasbag49
(g65
g51
NtRp2066
(dp2067
g54
(dp2068
sg63
g1855
sg56
(lp2069
g49
(g70
g51
NtRp2070
(dp2071
g54
(dp2072
g74
g75
ssg63
g2066
sg56
(lp2073
g1462
asbag49
(g70
g51
NtRp2074
(dp2075
g54
(dp2076
g81
g82
ssg63
g2066
sg56
(lp2077
S':'
asbag49
(g70
g51
NtRp2078
(dp2079
g54
(dp2080
sg63
g2066
sg56
(lp2081
g49
(g50
g51
NtRp2082
(dp2083
g54
(dp2084
g62
I4
ssg63
g2078
sg56
(lp2085
g49
(g58
g51
NtRp2086
(dp2087
g54
(dp2088
g62
I3
ssg63
Nsg56
(lp2089
g49
(g65
g51
NtRp2090
(dp2091
g54
(dp2092
sg63
g2086
sg56
(lp2093
g49
(g70
g51
NtRp2094
(dp2095
g54
(dp2096
sg63
g2090
sg56
(lp2097
g49
(g50
g51
NtRp2098
(dp2099
g54
(dp2100
g62
I3
ssg63
g2094
sg56
(lp2101
S'1'
asbasbasbag49
(g65
g51
NtRp2102
(dp2103
g54
(dp2104
sg63
g2086
sg56
(lp2105
g49
(g70
g51
NtRp2106
(dp2107
g54
(dp2108
sg63
g2102
sg56
(lp2109
g49
(g50
g51
NtRp2110
(dp2111
g54
(dp2112
g62
I3
ssg63
g2106
sg56
(lp2113
S'99'
p2114
asbasbasbag49
(g65
g51
NtRp2115
(dp2116
g54
(dp2117
sg63
g2086
sg56
(lp2118
g49
(g70
g51
NtRp2119
(dp2120
g54
(dp2121
sg63
g2115
sg56
(lp2122
g49
(g50
g51
NtRp2123
(dp2124
g54
(dp2125
g62
I3
ssg63
g2119
sg56
(lp2126
S'7'
asbasbasbag49
(g65
g51
NtRp2127
(dp2128
g54
(dp2129
sg63
g2086
sg56
(lp2130
g49
(g70
g51
NtRp2131
(dp2132
g54
(dp2133
sg63
g2127
sg56
(lp2134
g49
(g50
g51
NtRp2135
(dp2136
g54
(dp2137
g62
I3
ssg63
g2131
sg56
(lp2138
S'datetime.datetime(2012, 3, 4, 22, 12, 8)'
p2139
asbasbasbag49
(g65
g51
NtRp2140
(dp2141
g54
(dp2142
sg63
g2086
sg56
(lp2143
g49
(g70
g51
NtRp2144
(dp2145
g54
(dp2146
sg63
g2140
sg56
(lp2147
g49
(g50
g51
NtRp2148
(dp2149
g54
(dp2150
g62
I3
ssg63
g2144
sg56
(lp2151
g1541
asbasbasbasbasbasbasbasbasbasbasbag49
(g65
g51
NtRp2152
(dp2153
g54
(dp2154
sg63
g59
sg56
(lp2155
g49
(g70
g51
NtRp2156
(dp2157
g54
(dp2158
g74
g75
ssg63
g2152
sg56
(lp2159
S'is_https'
p2160
asbag49
(g70
g51
NtRp2161
(dp2162
g54
(dp2163
g81
g82
ssg63
g2152
sg56
(lp2164
S':'
asbag49
(g70
g51
NtRp2165
(dp2166
g54
(dp2167
sg63
g2152
sg56
(lp2168
g49
(g50
g51
NtRp2169
(dp2170
g54
(dp2171
g62
I5
ssg63
g2165
sg56
(lp2172
g92
asbasbasbag49
(g65
g51
NtRp2173
(dp2174
g54
(dp2175
sg63
g59
sg56
(lp2176
g49
(g70
g51
NtRp2177
(dp2178
g54
(dp2179
g74
g75
ssg63
g2173
sg56
(lp2180
S'is_local'
p2181
asbag49
(g70
g51
NtRp2182
(dp2183
g54
(dp2184
g81
g82
ssg63
g2173
sg56
(lp2185
S':'
asbag49
(g70
g51
NtRp2186
(dp2187
g54
(dp2188
sg63
g2173
sg56
(lp2189
g49
(g50
g51
NtRp2190
(dp2191
g54
(dp2192
g62
I5
ssg63
g2186
sg56
(lp2193
g1650
asbasbasbag49
(g65
g51
NtRp2194
(dp2195
g54
(dp2196
sg63
g59
sg56
(lp2197
g49
(g70
g51
NtRp2198
(dp2199
g54
(dp2200
g74
g75
ssg63
g2194
sg56
(lp2201
S'is_restful'
p2202
asbag49
(g70
g51
NtRp2203
(dp2204
g54
(dp2205
g81
g82
ssg63
g2194
sg56
(lp2206
S':'
asbag49
(g70
g51
NtRp2207
(dp2208
g54
(dp2209
sg63
g2194
sg56
(lp2210
g49
(g50
g51
NtRp2211
(dp2212
g54
(dp2213
g62
I5
ssg63
g2207
sg56
(lp2214
g92
asbasbasbag49
(g65
g51
NtRp2215
(dp2216
g54
(dp2217
sg63
g59
sg56
(lp2218
g49
(g70
g51
NtRp2219
(dp2220
g54
(dp2221
g74
g75
ssg63
g2215
sg56
(lp2222
S'now'
p2223
asbag49
(g70
g51
NtRp2224
(dp2225
g54
(dp2226
g81
g82
ssg63
g2215
sg56
(lp2227
S':'
asbag49
(g70
g51
NtRp2228
(dp2229
g54
(dp2230
sg63
g2215
sg56
(lp2231
g49
(g50
g51
NtRp2232
(dp2233
g54
(dp2234
g62
I5
ssg63
g2228
sg56
(lp2235
S'datetime.datetime(2012, 3, 7, 10, 11, 23, 956326)'
p2236
asbasbasbag49
(g65
g51
NtRp2237
(dp2238
g54
(dp2239
sg63
g59
sg56
(lp2240
g49
(g70
g51
NtRp2241
(dp2242
g54
(dp2243
g74
g75
ssg63
g2237
sg56
(lp2244
S'post_vars'
p2245
asbag49
(g70
g51
NtRp2246
(dp2247
g54
(dp2248
g81
g82
ssg63
g2237
sg56
(lp2249
S':'
asbag49
(g70
g51
NtRp2250
(dp2251
g54
(dp2252
sg63
g2237
sg56
(lp2253
g49
(g50
g51
NtRp2254
(dp2255
g54
(dp2256
g62
I5
ssg63
g2250
sg56
(lp2257
g49
(g58
g51
NtRp2258
(dp2259
g54
(dp2260
g62
I4
ssg63
Nsg56
(lp2261
sbasbasbasbag49
(g65
g51
NtRp2262
(dp2263
g54
(dp2264
sg63
g59
sg56
(lp2265
g49
(g70
g51
NtRp2266
(dp2267
g54
(dp2268
g74
g75
ssg63
g2262
sg56
(lp2269
S'url'
p2270
asbag49
(g70
g51
NtRp2271
(dp2272
g54
(dp2273
g81
g82
ssg63
g2262
sg56
(lp2274
S':'
asbag49
(g70
g51
NtRp2275
(dp2276
g54
(dp2277
sg63
g2262
sg56
(lp2278
g49
(g50
g51
NtRp2279
(dp2280
g54
(dp2281
g62
I5
ssg63
g2275
sg56
(lp2282
S'/udi0312/default/index'
p2283
asbasbasbag49
(g65
g51
NtRp2284
(dp2285
g54
(dp2286
sg63
g59
sg56
(lp2287
g49
(g70
g51
NtRp2288
(dp2289
g54
(dp2290
g74
g75
ssg63
g2284
sg56
(lp2291
S'utcnow'
p2292
asbag49
(g70
g51
NtRp2293
(dp2294
g54
(dp2295
g81
g82
ssg63
g2284
sg56
(lp2296
S':'
asbag49
(g70
g51
NtRp2297
(dp2298
g54
(dp2299
sg63
g2284
sg56
(lp2300
g49
(g50
g51
NtRp2301
(dp2302
g54
(dp2303
g62
I5
ssg63
g2297
sg56
(lp2304
S'datetime.datetime(2012, 3, 7, 15, 11, 23, 956354)'
p2305
asbasbasbag49
(g65
g51
NtRp2306
(dp2307
g54
(dp2308
sg63
g59
sg56
(lp2309
g49
(g70
g51
NtRp2310
(dp2311
g54
(dp2312
g74
g75
ssg63
g2306
sg56
(lp2313
S'uuid'
p2314
asbag49
(g70
g51
NtRp2315
(dp2316
g54
(dp2317
g81
g82
ssg63
g2306
sg56
(lp2318
S':'
asbag49
(g70
g51
NtRp2319
(dp2320
g54
(dp2321
sg63
g2306
sg56
(lp2322
g49
(g50
g51
NtRp2323
(dp2324
g54
(dp2325
g62
I5
ssg63
g2319
sg56
(lp2326
S'udi0312/127.0.0.1.2012-03-07.10-11-23.6e90f8a4-6a45-4aa6-a37e-b862fed306b3'
p2327
asbasbasbag49
(g65
g51
NtRp2328
(dp2329
g54
(dp2330
sg63
g59
sg56
(lp2331
g49
(g70
g51
NtRp2332
(dp2333
g54
(dp2334
g74
g75
ssg63
g2328
sg56
(lp2335
S'vars'
p2336
asbag49
(g70
g51
NtRp2337
(dp2338
g54
(dp2339
g81
g82
ssg63
g2328
sg56
(lp2340
S':'
asbag49
(g70
g51
NtRp2341
(dp2342
g54
(dp2343
sg63
g2328
sg56
(lp2344
g49
(g50
g51
NtRp2345
(dp2346
g54
(dp2347
g62
I5
ssg63
g2341
sg56
(lp2348
g49
(g58
g51
NtRp2349
(dp2350
g54
(dp2351
g62
I4
ssg63
Nsg56
(lp2352
sbasbasbasbag49
(g65
g51
NtRp2353
(dp2354
g54
(dp2355
sg63
g59
sg56
(lp2356
g49
(g70
g51
NtRp2357
(dp2358
g54
(dp2359
g74
g75
ssg63
g2353
sg56
(lp2360
S'wsgi'
p2361
asbag49
(g70
g51
NtRp2362
(dp2363
g54
(dp2364
g81
g82
ssg63
g2353
sg56
(lp2365
S':'
asbag49
(g70
g51
NtRp2366
(dp2367
g54
(dp2368
sg63
g2353
sg56
(lp2369
g49
(g50
g51
NtRp2370
(dp2371
g54
(dp2372
g62
I5
ssg63
g2366
sg56
(lp2373
g49
(g58
g51
NtRp2374
(dp2375
g54
(dp2376
g62
I4
ssg63
Nsg56
(lp2377
g49
(g65
g51
NtRp2378
(dp2379
g54
(dp2380
sg63
g2374
sg56
(lp2381
g49
(g70
g51
NtRp2382
(dp2383
g54
(dp2384
g74
g75
ssg63
g2378
sg56
(lp2385
S'environ'
p2386
asbag49
(g70
g51
NtRp2387
(dp2388
g54
(dp2389
g81
g82
ssg63
g2378
sg56
(lp2390
S':'
asbag49
(g70
g51
NtRp2391
(dp2392
g54
(dp2393
sg63
g2378
sg56
(lp2394
g49
(g50
g51
NtRp2395
(dp2396
g54
(dp2397
g62
I4
ssg63
g2391
sg56
(lp2398
g49
(g58
g51
NtRp2399
(dp2400
g54
(dp2401
g62
I3
ssg63
Nsg56
(lp2402
g49
(g65
g51
NtRp2403
(dp2404
g54
(dp2405
sg63
g2399
sg56
(lp2406
g49
(g70
g51
NtRp2407
(dp2408
g54
(dp2409
g74
g75
ssg63
g2403
sg56
(lp2410
S'HTTP_ACCEPT'
p2411
asbag49
(g70
g51
NtRp2412
(dp2413
g54
(dp2414
g81
g82
ssg63
g2403
sg56
(lp2415
S':'
asbag49
(g70
g51
NtRp2416
(dp2417
g54
(dp2418
sg63
g2403
sg56
(lp2419
g49
(g50
g51
NtRp2420
(dp2421
g54
(dp2422
g62
I3
ssg63
g2416
sg56
(lp2423
g934
asbasbasbag49
(g65
g51
NtRp2424
(dp2425
g54
(dp2426
sg63
g2399
sg56
(lp2427
g49
(g70
g51
NtRp2428
(dp2429
g54
(dp2430
g74
g75
ssg63
g2424
sg56
(lp2431
S'HTTP_ACCEPT_CHARSET'
p2432
asbag49
(g70
g51
NtRp2433
(dp2434
g54
(dp2435
g81
g82
ssg63
g2424
sg56
(lp2436
S':'
asbag49
(g70
g51
NtRp2437
(dp2438
g54
(dp2439
sg63
g2424
sg56
(lp2440
g49
(g50
g51
NtRp2441
(dp2442
g54
(dp2443
g62
I3
ssg63
g2437
sg56
(lp2444
g956
asbasbasbag49
(g65
g51
NtRp2445
(dp2446
g54
(dp2447
sg63
g2399
sg56
(lp2448
g49
(g70
g51
NtRp2449
(dp2450
g54
(dp2451
g74
g75
ssg63
g2445
sg56
(lp2452
S'HTTP_ACCEPT_ENCODING'
p2453
asbag49
(g70
g51
NtRp2454
(dp2455
g54
(dp2456
g81
g82
ssg63
g2445
sg56
(lp2457
S':'
asbag49
(g70
g51
NtRp2458
(dp2459
g54
(dp2460
sg63
g2445
sg56
(lp2461
g49
(g50
g51
NtRp2462
(dp2463
g54
(dp2464
g62
I3
ssg63
g2458
sg56
(lp2465
g978
asbasbasbag49
(g65
g51
NtRp2466
(dp2467
g54
(dp2468
sg63
g2399
sg56
(lp2469
g49
(g70
g51
NtRp2470
(dp2471
g54
(dp2472
g74
g75
ssg63
g2466
sg56
(lp2473
S'HTTP_ACCEPT_LANGUAGE'
p2474
asbag49
(g70
g51
NtRp2475
(dp2476
g54
(dp2477
g81
g82
ssg63
g2466
sg56
(lp2478
S':'
asbag49
(g70
g51
NtRp2479
(dp2480
g54
(dp2481
sg63
g2466
sg56
(lp2482
g49
(g50
g51
NtRp2483
(dp2484
g54
(dp2485
g62
I3
ssg63
g2479
sg56
(lp2486
g1000
asbasbasbag49
(g65
g51
NtRp2487
(dp2488
g54
(dp2489
sg63
g2399
sg56
(lp2490
g49
(g70
g51
NtRp2491
(dp2492
g54
(dp2493
g74
g75
ssg63
g2487
sg56
(lp2494
S'HTTP_CACHE_CONTROL'
p2495
asbag49
(g70
g51
NtRp2496
(dp2497
g54
(dp2498
g81
g82
ssg63
g2487
sg56
(lp2499
S':'
asbag49
(g70
g51
NtRp2500
(dp2501
g54
(dp2502
sg63
g2487
sg56
(lp2503
g49
(g50
g51
NtRp2504
(dp2505
g54
(dp2506
g62
I3
ssg63
g2500
sg56
(lp2507
g1022
asbasbasbag49
(g65
g51
NtRp2508
(dp2509
g54
(dp2510
sg63
g2399
sg56
(lp2511
g49
(g70
g51
NtRp2512
(dp2513
g54
(dp2514
g74
g75
ssg63
g2508
sg56
(lp2515
S'HTTP_CONNECTION'
p2516
asbag49
(g70
g51
NtRp2517
(dp2518
g54
(dp2519
g81
g82
ssg63
g2508
sg56
(lp2520
S':'
asbag49
(g70
g51
NtRp2521
(dp2522
g54
(dp2523
sg63
g2508
sg56
(lp2524
g49
(g50
g51
NtRp2525
(dp2526
g54
(dp2527
g62
I3
ssg63
g2521
sg56
(lp2528
g1044
asbasbasbag49
(g65
g51
NtRp2529
(dp2530
g54
(dp2531
sg63
g2399
sg56
(lp2532
g49
(g70
g51
NtRp2533
(dp2534
g54
(dp2535
g74
g75
ssg63
g2529
sg56
(lp2536
S'HTTP_COOKIE'
p2537
asbag49
(g70
g51
NtRp2538
(dp2539
g54
(dp2540
g81
g82
ssg63
g2529
sg56
(lp2541
S':'
asbag49
(g70
g51
NtRp2542
(dp2543
g54
(dp2544
sg63
g2529
sg56
(lp2545
g49
(g50
g51
NtRp2546
(dp2547
g54
(dp2548
g62
I3
ssg63
g2542
sg56
(lp2549
g1066
asbasbasbag49
(g65
g51
NtRp2550
(dp2551
g54
(dp2552
sg63
g2399
sg56
(lp2553
g49
(g70
g51
NtRp2554
(dp2555
g54
(dp2556
g74
g75
ssg63
g2550
sg56
(lp2557
S'HTTP_HOST'
p2558
asbag49
(g70
g51
NtRp2559
(dp2560
g54
(dp2561
g81
g82
ssg63
g2550
sg56
(lp2562
S':'
asbag49
(g70
g51
NtRp2563
(dp2564
g54
(dp2565
sg63
g2550
sg56
(lp2566
g49
(g50
g51
NtRp2567
(dp2568
g54
(dp2569
g62
I3
ssg63
g2563
sg56
(lp2570
g1088
asbasbasbag49
(g65
g51
NtRp2571
(dp2572
g54
(dp2573
sg63
g2399
sg56
(lp2574
g49
(g70
g51
NtRp2575
(dp2576
g54
(dp2577
g74
g75
ssg63
g2571
sg56
(lp2578
S'HTTP_USER_AGENT'
p2579
asbag49
(g70
g51
NtRp2580
(dp2581
g54
(dp2582
g81
g82
ssg63
g2571
sg56
(lp2583
S':'
asbag49
(g70
g51
NtRp2584
(dp2585
g54
(dp2586
sg63
g2571
sg56
(lp2587
g49
(g50
g51
NtRp2588
(dp2589
g54
(dp2590
g62
I3
ssg63
g2584
sg56
(lp2591
g1110
asbasbasbag49
(g65
g51
NtRp2592
(dp2593
g54
(dp2594
sg63
g2399
sg56
(lp2595
g49
(g70
g51
NtRp2596
(dp2597
g54
(dp2598
g74
g75
ssg63
g2592
sg56
(lp2599
S'PATH_INFO'
p2600
asbag49
(g70
g51
NtRp2601
(dp2602
g54
(dp2603
g81
g82
ssg63
g2592
sg56
(lp2604
S':'
asbag49
(g70
g51
NtRp2605
(dp2606
g54
(dp2607
sg63
g2592
sg56
(lp2608
g49
(g50
g51
NtRp2609
(dp2610
g54
(dp2611
g62
I3
ssg63
g2605
sg56
(lp2612
S'/'
asbasbasbag49
(g65
g51
NtRp2613
(dp2614
g54
(dp2615
sg63
g2399
sg56
(lp2616
g49
(g70
g51
NtRp2617
(dp2618
g54
(dp2619
g74
g75
ssg63
g2613
sg56
(lp2620
S'QUERY_STRING'
p2621
asbag49
(g70
g51
NtRp2622
(dp2623
g54
(dp2624
g81
g82
ssg63
g2613
sg56
(lp2625
S':'
asbag49
(g70
g51
NtRp2626
(dp2627
g54
(dp2628
sg63
g2613
sg56
(lp2629
g49
(g50
g51
NtRp2630
(dp2631
g54
(dp2632
g62
I3
ssg63
g2626
sg56
(lp2633
S''
asbasbasbag49
(g65
g51
NtRp2634
(dp2635
g54
(dp2636
sg63
g2399
sg56
(lp2637
g49
(g70
g51
NtRp2638
(dp2639
g54
(dp2640
g74
g75
ssg63
g2634
sg56
(lp2641
S'REMOTE_ADDR'
p2642
asbag49
(g70
g51
NtRp2643
(dp2644
g54
(dp2645
g81
g82
ssg63
g2634
sg56
(lp2646
S':'
asbag49
(g70
g51
NtRp2647
(dp2648
g54
(dp2649
sg63
g2634
sg56
(lp2650
g49
(g50
g51
NtRp2651
(dp2652
g54
(dp2653
g62
I3
ssg63
g2647
sg56
(lp2654
g182
asbasbasbag49
(g65
g51
NtRp2655
(dp2656
g54
(dp2657
sg63
g2399
sg56
(lp2658
g49
(g70
g51
NtRp2659
(dp2660
g54
(dp2661
g74
g75
ssg63
g2655
sg56
(lp2662
S'REMOTE_PORT'
p2663
asbag49
(g70
g51
NtRp2664
(dp2665
g54
(dp2666
g81
g82
ssg63
g2655
sg56
(lp2667
S':'
asbag49
(g70
g51
NtRp2668
(dp2669
g54
(dp2670
sg63
g2655
sg56
(lp2671
g49
(g50
g51
NtRp2672
(dp2673
g54
(dp2674
g62
I3
ssg63
g2668
sg56
(lp2675
g1237
asbasbasbag49
(g65
g51
NtRp2676
(dp2677
g54
(dp2678
sg63
g2399
sg56
(lp2679
g49
(g70
g51
NtRp2680
(dp2681
g54
(dp2682
g74
g75
ssg63
g2676
sg56
(lp2683
S'REQUEST_METHOD'
p2684
asbag49
(g70
g51
NtRp2685
(dp2686
g54
(dp2687
g81
g82
ssg63
g2676
sg56
(lp2688
S':'
asbag49
(g70
g51
NtRp2689
(dp2690
g54
(dp2691
sg63
g2676
sg56
(lp2692
g49
(g50
g51
NtRp2693
(dp2694
g54
(dp2695
g62
I3
ssg63
g2689
sg56
(lp2696
g1259
asbasbasbag49
(g65
g51
NtRp2697
(dp2698
g54
(dp2699
sg63
g2399
sg56
(lp2700
g49
(g70
g51
NtRp2701
(dp2702
g54
(dp2703
g74
g75
ssg63
g2697
sg56
(lp2704
S'REQUEST_URI'
p2705
asbag49
(g70
g51
NtRp2706
(dp2707
g54
(dp2708
g81
g82
ssg63
g2697
sg56
(lp2709
S':'
asbag49
(g70
g51
NtRp2710
(dp2711
g54
(dp2712
sg63
g2697
sg56
(lp2713
g49
(g50
g51
NtRp2714
(dp2715
g54
(dp2716
g62
I3
ssg63
g2710
sg56
(lp2717
S'/'
asbasbasbag49
(g65
g51
NtRp2718
(dp2719
g54
(dp2720
sg63
g2399
sg56
(lp2721
g49
(g70
g51
NtRp2722
(dp2723
g54
(dp2724
g74
g75
ssg63
g2718
sg56
(lp2725
S'SCRIPT_NAME'
p2726
asbag49
(g70
g51
NtRp2727
(dp2728
g54
(dp2729
g81
g82
ssg63
g2718
sg56
(lp2730
S':'
asbag49
(g70
g51
NtRp2731
(dp2732
g54
(dp2733
sg63
g2718
sg56
(lp2734
g49
(g50
g51
NtRp2735
(dp2736
g54
(dp2737
g62
I3
ssg63
g2731
sg56
(lp2738
S''
asbasbasbag49
(g65
g51
NtRp2739
(dp2740
g54
(dp2741
sg63
g2399
sg56
(lp2742
g49
(g70
g51
NtRp2743
(dp2744
g54
(dp2745
g74
g75
ssg63
g2739
sg56
(lp2746
S'SERVER_NAME'
p2747
asbag49
(g70
g51
NtRp2748
(dp2749
g54
(dp2750
g81
g82
ssg63
g2739
sg56
(lp2751
S':'
asbag49
(g70
g51
NtRp2752
(dp2753
g54
(dp2754
sg63
g2739
sg56
(lp2755
g49
(g50
g51
NtRp2756
(dp2757
g54
(dp2758
g62
I3
ssg63
g2752
sg56
(lp2759
g1323
asbasbasbag49
(g65
g51
NtRp2760
(dp2761
g54
(dp2762
sg63
g2399
sg56
(lp2763
g49
(g70
g51
NtRp2764
(dp2765
g54
(dp2766
g74
g75
ssg63
g2760
sg56
(lp2767
S'SERVER_PORT'
p2768
asbag49
(g70
g51
NtRp2769
(dp2770
g54
(dp2771
g81
g82
ssg63
g2760
sg56
(lp2772
S':'
asbag49
(g70
g51
NtRp2773
(dp2774
g54
(dp2775
sg63
g2760
sg56
(lp2776
g49
(g50
g51
NtRp2777
(dp2778
g54
(dp2779
g62
I3
ssg63
g2773
sg56
(lp2780
g1345
asbasbasbag49
(g65
g51
NtRp2781
(dp2782
g54
(dp2783
sg63
g2399
sg56
(lp2784
g49
(g70
g51
NtRp2785
(dp2786
g54
(dp2787
g74
g75
ssg63
g2781
sg56
(lp2788
S'SERVER_PROTOCOL'
p2789
asbag49
(g70
g51
NtRp2790
(dp2791
g54
(dp2792
g81
g82
ssg63
g2781
sg56
(lp2793
S':'
asbag49
(g70
g51
NtRp2794
(dp2795
g54
(dp2796
sg63
g2781
sg56
(lp2797
g49
(g50
g51
NtRp2798
(dp2799
g54
(dp2800
g62
I3
ssg63
g2794
sg56
(lp2801
g1367
asbasbasbag49
(g65
g51
NtRp2802
(dp2803
g54
(dp2804
sg63
g2399
sg56
(lp2805
g49
(g70
g51
NtRp2806
(dp2807
g54
(dp2808
g74
g75
ssg63
g2802
sg56
(lp2809
S'SERVER_SOFTWARE'
p2810
asbag49
(g70
g51
NtRp2811
(dp2812
g54
(dp2813
g81
g82
ssg63
g2802
sg56
(lp2814
S':'
asbag49
(g70
g51
NtRp2815
(dp2816
g54
(dp2817
sg63
g2802
sg56
(lp2818
g49
(g50
g51
NtRp2819
(dp2820
g54
(dp2821
g62
I3
ssg63
g2815
sg56
(lp2822
g1389
asbasbasbag49
(g65
g51
NtRp2823
(dp2824
g54
(dp2825
sg63
g2399
sg56
(lp2826
g49
(g70
g51
NtRp2827
(dp2828
g54
(dp2829
g74
g75
ssg63
g2823
sg56
(lp2830
S'WEB2PY_ORIGINAL_URI'
p2831
asbag49
(g70
g51
NtRp2832
(dp2833
g54
(dp2834
g81
g82
ssg63
g2823
sg56
(lp2835
S':'
asbag49
(g70
g51
NtRp2836
(dp2837
g54
(dp2838
sg63
g2823
sg56
(lp2839
g49
(g50
g51
NtRp2840
(dp2841
g54
(dp2842
g62
I3
ssg63
g2836
sg56
(lp2843
S'/'
asbasbasbag49
(g65
g51
NtRp2844
(dp2845
g54
(dp2846
sg63
g2399
sg56
(lp2847
g49
(g70
g51
NtRp2848
(dp2849
g54
(dp2850
g74
g75
ssg63
g2844
sg56
(lp2851
S'wsgi.errors'
p2852
asbag49
(g70
g51
NtRp2853
(dp2854
g54
(dp2855
g81
g82
ssg63
g2844
sg56
(lp2856
S':'
asbag49
(g70
g51
NtRp2857
(dp2858
g54
(dp2859
sg63
g2844
sg56
(lp2860
g49
(g50
g51
NtRp2861
(dp2862
g54
(dp2863
g62
I3
ssg63
g2857
sg56
(lp2864
S"<open file '<stderr>', mode 'w' at 0x4220b0>"
p2865
asbasbasbag49
(g65
g51
NtRp2866
(dp2867
g54
(dp2868
sg63
g2399
sg56
(lp2869
g49
(g70
g51
NtRp2870
(dp2871
g54
(dp2872
g74
g75
ssg63
g2866
sg56
(lp2873
S'wsgi.file_wrapper'
p2874
asbag49
(g70
g51
NtRp2875
(dp2876
g54
(dp2877
g81
g82
ssg63
g2866
sg56
(lp2878
S':'
asbag49
(g70
g51
NtRp2879
(dp2880
g54
(dp2881
sg63
g2866
sg56
(lp2882
g49
(g50
g51
NtRp2883
(dp2884
g54
(dp2885
g62
I3
ssg63
g2879
sg56
(lp2886
S'<class wsgiref.util.FileWrapper at 0x2260450>'
p2887
asbasbasbag49
(g65
g51
NtRp2888
(dp2889
g54
(dp2890
sg63
g2399
sg56
(lp2891
g49
(g70
g51
NtRp2892
(dp2893
g54
(dp2894
g74
g75
ssg63
g2888
sg56
(lp2895
S'wsgi.input'
p2896
asbag49
(g70
g51
NtRp2897
(dp2898
g54
(dp2899
g81
g82
ssg63
g2888
sg56
(lp2900
S':'
asbag49
(g70
g51
NtRp2901
(dp2902
g54
(dp2903
sg63
g2888
sg56
(lp2904
g49
(g50
g51
NtRp2905
(dp2906
g54
(dp2907
g62
I3
ssg63
g2901
sg56
(lp2908
S'<cStringIO.StringO object at 0xa223cc0>'
p2909
asbasbasbag49
(g65
g51
NtRp2910
(dp2911
g54
(dp2912
sg63
g2399
sg56
(lp2913
g49
(g70
g51
NtRp2914
(dp2915
g54
(dp2916
g74
g75
ssg63
g2910
sg56
(lp2917
S'wsgi.multiprocess'
p2918
asbag49
(g70
g51
NtRp2919
(dp2920
g54
(dp2921
g81
g82
ssg63
g2910
sg56
(lp2922
S':'
asbag49
(g70
g51
NtRp2923
(dp2924
g54
(dp2925
sg63
g2910
sg56
(lp2926
g49
(g50
g51
NtRp2927
(dp2928
g54
(dp2929
g62
I3
ssg63
g2923
sg56
(lp2930
g92
asbasbasbag49
(g65
g51
NtRp2931
(dp2932
g54
(dp2933
sg63
g2399
sg56
(lp2934
g49
(g70
g51
NtRp2935
(dp2936
g54
(dp2937
g74
g75
ssg63
g2931
sg56
(lp2938
S'wsgi.multithread'
p2939
asbag49
(g70
g51
NtRp2940
(dp2941
g54
(dp2942
g81
g82
ssg63
g2931
sg56
(lp2943
S':'
asbag49
(g70
g51
NtRp2944
(dp2945
g54
(dp2946
sg63
g2931
sg56
(lp2947
g49
(g50
g51
NtRp2948
(dp2949
g54
(dp2950
g62
I3
ssg63
g2944
sg56
(lp2951
g1650
asbasbasbag49
(g65
g51
NtRp2952
(dp2953
g54
(dp2954
sg63
g2399
sg56
(lp2955
g49
(g70
g51
NtRp2956
(dp2957
g54
(dp2958
g74
g75
ssg63
g2952
sg56
(lp2959
S'wsgi.run_once'
p2960
asbag49
(g70
g51
NtRp2961
(dp2962
g54
(dp2963
g81
g82
ssg63
g2952
sg56
(lp2964
S':'
asbag49
(g70
g51
NtRp2965
(dp2966
g54
(dp2967
sg63
g2952
sg56
(lp2968
g49
(g50
g51
NtRp2969
(dp2970
g54
(dp2971
g62
I3
ssg63
g2965
sg56
(lp2972
g92
asbasbasbag49
(g65
g51
NtRp2973
(dp2974
g54
(dp2975
sg63
g2399
sg56
(lp2976
g49
(g70
g51
NtRp2977
(dp2978
g54
(dp2979
g74
g75
ssg63
g2973
sg56
(lp2980
S'wsgi.url_scheme'
p2981
asbag49
(g70
g51
NtRp2982
(dp2983
g54
(dp2984
g81
g82
ssg63
g2973
sg56
(lp2985
S':'
asbag49
(g70
g51
NtRp2986
(dp2987
g54
(dp2988
sg63
g2973
sg56
(lp2989
g49
(g50
g51
NtRp2990
(dp2991
g54
(dp2992
g62
I3
ssg63
g2986
sg56
(lp2993
g1693
asbasbasbag49
(g65
g51
NtRp2994
(dp2995
g54
(dp2996
sg63
g2399
sg56
(lp2997
g49
(g70
g51
NtRp2998
(dp2999
g54
(dp3000
g74
g75
ssg63
g2994
sg56
(lp3001
S'wsgi.version'
p3002
asbag49
(g70
g51
NtRp3003
(dp3004
g54
(dp3005
g81
g82
ssg63
g2994
sg56
(lp3006
S':'
asbag49
(g70
g51
NtRp3007
(dp3008
g54
(dp3009
sg63
g2994
sg56
(lp3010
g49
(g50
g51
NtRp3011
(dp3012
g54
(dp3013
g62
I3
ssg63
g3007
sg56
(lp3014
S'1'
asbasbasbasbasbasbasbasbasbasbasbasbasbsS'frames'
p3015
(lp3016
(dp3017
S'file'
p3018
S'/users/udimilo/Documents/web2py/gluon/restricted.py'
p3019
sS'dump'
p3020
(dp3021
S'environment'
p3022
S"{'A': <class 'gluon.html.A'>, 'Auth': <class 'gluon.tools.Auth'>, 'B': <class 'gluon.html.B'>, 'BEAUTIFY': <class 'gluon.html.BEAUTIFY'>, 'BODY': <class 'gluon.html.BODY'>, 'BR': <class 'gluon.html.BR'>, 'BUTTON': <class 'gluon.html.BUTTON'>, 'CAT': <class 'gluon.html.CAT'>, 'CENTER': <class 'gluon.html.CENTER'>, 'CLEANUP': <class 'gluon.validators.CLEANUP'>, ...}"
p3023
sS'ccode'
p3024
S'<code object <module> at 0x8e66d58, file "/Users...ations/udi0312/views/default/index.html", line 1>'
p3025
ssS'lnum'
p3026
I205
sS'lines'
p3027
(dp3028
I200
S'    try:'
p3029
sI201
S'        if type(code) == types.CodeType:'
p3030
sI202
S'            ccode = code'
p3031
sI203
S'        else:'
p3032
sI204
S'            ccode = compile2(code,layer)'
p3033
sI205
S'        exec ccode in environment'
p3034
sI206
S'    except HTTP:'
p3035
sI207
S'        raise'
p3036
sI208
S'    except RestrictedError:'
p3037
sI209
S'        # do not encapsulate (obfuscate) the original RestrictedError'
p3038
ssS'call'
p3039
S'(code=\'response.write(\\\'<html lan="en">\\\\n<head>\\\\n    <ti...sponse._vars))\\nresponse.write(\\\'\\\\n\\\', escape=False)\', environment={\'A\': <class \'gluon.html.A\'>, \'Auth\': <class \'gluon.tools.Auth\'>, \'B\': <class \'gluon.html.B\'>, \'BEAUTIFY\': <class \'gluon.html.BEAUTIFY\'>, \'BODY\': <class \'gluon.html.BODY\'>, \'BR\': <class \'gluon.html.BR\'>, \'BUTTON\': <class \'gluon.html.BUTTON\'>, \'CAT\': <class \'gluon.html.CAT\'>, \'CENTER\': <class \'gluon.html.CENTER\'>, \'CLEANUP\': <class \'gluon.validators.CLEANUP\'>, ...}, layer=\'/Users/udimilo/Documents/web2py/applications/udi0312/views/default/index.html\')'
p3040
sS'func'
p3041
S'restricted'
p3042
sa(dp3043
g3018
S'/Users/udimilo/Documents/web2py/applications/udi0312/views/default/index.html'
p3044
sg3020
(dp3045
S'div'
p3046
S'undefined'
p3047
ssg3026
I16
sg3027
(dp3048
I7
S'    response.write(\'px">\\n                <div class="itemWrapper">\\n                    <div class="actions">\\n                        <a href="#" class="whiteButton repinButton"><em></em><strong>Repin</strong></a>\\n                        <a href="#" class="whiteButton likeButton"><em></em><strong>Like</strong></a>\\n                        <a href="#" class="whiteButton commentButton"><em></em><strong>Comment</strong></a>\\n                    </div>\\n                    <h1 class="itemTitle">\', escape=False)'
p3049
sI8
S"    response.write(item['title'])"
p3050
sI9
S'    response.write(\'</h1>\\n                    <h2 class="itemSubtitle">\\n                        <a href="#">\\n                            <img src="\', escape=False)'
p3051
sI10
S"    response.write(item['iconURL'])"
p3052
sI11
S'    response.write(\'"/>\\n                            <span>\', escape=False)'
p3053
sI12
S"    response.write(item['source'])"
p3054
sI13
S'    response.write(\'<span>\\n                        </a>\\n                        <label class="itemTime">\', escape=False)'
p3055
sI14
S"    response.write(item['hours'])"
p3056
sI15
S'    response.write(\' hours ago</label>\\n                    </h2>\\n                    <div class="itemContent">\\n                        \', escape=False)'
p3057
sI16
S"    response.write(item['img'])"
p3058
sI17
S'    response.write(\'\\n                        <label class="itemText" />\\n                    </div>\\n                </div>\\n            </li>\\n        \', escape=False)'
p3059
sI18
S'    pass'
p3060
sI19
S'response.write(\'\\n            <li style="height:239px">\\n                <div class="itemWrapper">\\n                <div class="actions">\\n                    <a href="#" class="whiteButton repinButton"><em></em><strong>Repin</strong></a>\\n                    <a href="#" class="whiteButton likeButton"><em></em><strong>Like</strong></a>\\n                    <a href="#" class="whiteButton commentButton"><em></em><strong>Comment</strong></a>\\n                </div>\\n                <h1 class="itemTitle">It\\\'s time to Acknowledge CEO Loneliness</h1>\\n                <h2 class="itemSubtitle">\\n                    <a href="#">\\n                        <img src="http://theheadlinereport.com/images/newsicons/forbes_icon.png"/>\\n                        <span>Harvard Business Review<span>\\n                    </a>\\n                    <label class="itemTime">3 hours ago</label>\\n                </h2>\\n                <div class="itemContent">\\n                    <label class="itemText" />\\n                </div>\\n            </div>\\n        </li>\\n        <li style="height:285px">\\n            <div class="itemWrapper">\\n                <div class="actions">\\n                    <a href="#" class="whiteButton repinButton"><em></em><strong>Repin</strong></a>\\n                    <a href="#" class="whiteButton likeButton"><em></em><strong>Like</strong></a>\\n                    <a href="#" class="whiteButton commentButton"><em></em><strong>Comment</strong></a>\\n                </div>\\n                <h1 class="itemTitle">Post-Disaster Retreat from Social Media Backfires on Carnival | DigitalNext: A Blog Emerging</h1>\\n                <h2 class="itemSubtitle">\\n                    <a href="#">\\n                        <img src="http://a3.twimg.com/profile_images/674280505/bz_twitter_avatar_normal.jpg"/>\\n                        <span>Adage.com<span>\\n                    </a>\\n                    <label class="itemTime">4 hours ago</label>\\n                </h2>\\n                <div class="itemContent">\\n                    <img src="http://sg.wsj.net/public/resources/images/OB-RJ919_simonn_A_20120116050452.gif" />\\n                    <label class="itemText" />\\n                </div>\\n            </div>\\n        </li>\\n        <li style="height:396px">\\n            <div class="itemWrapper">\\n                <div class="actions">\\n                    <a href="#" class="whiteButton repinButton"><em></em><strong>Repin</strong></a>\\n                    <a href="#" class="whiteButton likeButton"><em></em><strong>Like</strong></a>\\n                    <a href="#" class="whiteButton commentButton"><em></em><strong>Comment</strong></a>\\n                </div>\\n                <h1 class="itemTitle">The Rules of Fancy Drinks Marketing Technique [INFOGRAPHICS]</h1>\\n                <h2 class="itemSubtitle">\\n                    <a href="#">\\n                        <img src="http://3.bp.blogspot.com/-KUk98YET_w8/TiSDmEMQZyI/AAAAAAAABgY/RwzfbxRtyxA/s1600/128.png"/>\\n                        <span>TechCrunch.com<span>\\n                    </a>\\n                    <label class="itemTime">5 hours ago</label>\\n                </h2>\\n                <div class="itemContent">\\n                    <img src="http://media-cdn.pinterest.com/upload/2814818487066187_Bzf9XshC_f.jpg" />\\n                    <label class="itemText" />\\n                </div>\\n            </div>\\n        </li>\\n        <li style="height:452px">\\n            <div class="itemWrapper">\\n                <div class="actions">\\n                    <a href="#" class="whiteButton repinButton"><em></em><strong>Repin</strong></a>\\n                    <a href="#" class="whiteButton likeButton"><em></em><strong>Like</strong></a>\\n                    <a href="#" class="whiteButton commentButton"><em></em><strong>Comment</strong></a>\\n                </div>\\n                <h1 class="itemTitle">Apple Yanks The iPad Off Of Amazon\\\'s Chinese Shelves, But Why?</h1>\\n                <h2 class="itemSubtitle">\\n                    <a href="#">\\n                        <img src="http://nickoneill.com/wordpress/wp-content/uploads/pinterest-icon.png"/>\\n                        <span>Pinterest.com<span>\\n                    </a>\\n                    <label class="itemTime">5 hours ago</label>\\n                </h2>\\n                <div class="itemContent">\\n                    <img src="http://media-cdn.pinterest.com/upload/132504414006474693_Ab8zAfwQ_f.jpg" />\\n                    <label class="itemText" />\\n                </div>\\n            </div>\\n        </li>\\n        <li style="height:239px">\\n            <div class="itemWrapper">\\n                <div class="actions">\\n                    <a href="#" class="whiteButton repinButton"><em></em><strong>Repin</strong></a>\\n                    <a href="#" class="whiteButton likeButton"><em></em><strong>Like</strong></a>\\n                    <a href="#" class="whiteButton commentButton"><em></em><strong>Comment</strong></a>\\n                </div>\\n                <h1 class="itemTitle">It\\\'s time to Acknowledge CEO Loneliness</h1>\\n                <h2 class="itemSubtitle">\\n                    <a href="#">\\n                        <img src="http://theheadlinereport.com/images/newsicons/forbes_icon.png"/>\\n                        <span>Harvard Business Review<span>\\n                    </a>\\n                    <label class="itemTime">3 hours ago</label>\\n                </h2>\\n                <div class="itemContent">\\n                    <label class="itemText" />\\n                </div>\\n            </div>\\n        </li>\\n        <li style="height:285px">\\n            <div class="itemWrapper">\\n                <div class="actions">\\n                    <a href="#" class="whiteButton repinButton"><em></em><strong>Repin</strong></a>\\n                    <a href="#" class="whiteButton likeButton"><em></em><strong>Like</strong></a>\\n                    <a href="#" class="whiteButton commentButton"><em></em><strong>Comment</strong></a>\\n                </div>\\n                <h1 class="itemTitle">Post-Disaster Retreat from Social Media Backfires on Carnival | DigitalNext: A Blog Emerging</h1>\\n                <h2 class="itemSubtitle">\\n                    <a href="#">\\n                        <img src="http://a3.twimg.com/profile_images/674280505/bz_twitter_avatar_normal.jpg"/>\\n                        <span>Adage.com<span>\\n                    </a>\\n                    <label class="itemTime">4 hours ago</label>\\n                </h2>\\n                <div class="itemContent">\\n                    <img src="http://sg.wsj.net/public/resources/images/OB-RJ919_simonn_A_20120116050452.gif" />\\n                    <label class="itemText" />\\n                </div>\\n            </div>\\n        </li>\\n        <li style="height:396px">\\n            <div class="itemWrapper">\\n                <div class="actions">\\n                    <a href="#" class="whiteButton repinButton"><em></em><strong>Repin</strong></a>\\n                    <a href="#" class="whiteButton likeButton"><em></em><strong>Like</strong></a>\\n                    <a href="#" class="whiteButton commentButton"><em></em><strong>Comment</strong></a>\\n                </div>\\n                <h1 class="itemTitle">The Rules of Fancy Drinks Marketing Technique [INFOGRAPHICS]</h1>\\n                <h2 class="itemSubtitle">\\n                    <a href="#">\\n                        <img src="http://3.bp.blogspot.com/-KUk98YET_w8/TiSDmEMQZyI/AAAAAAAABgY/RwzfbxRtyxA/s1600/128.png"/>\\n                        <span>TechCrunch.com<span>\\n                    </a>\\n                    <label class="itemTime">5 hours ago</label>\\n                </h2>\\n                <div class="itemContent">\\n                    <img src="http://media-cdn.pinterest.com/upload/2814818487066187_Bzf9XshC_f.jpg" />\\n                    <label class="itemText" />\\n                </div>\\n            </div>\\n        </li>\\n        <li style="height:452px">\\n            <div class="itemWrapper">\\n                <div class="actions">\\n                    <a href="#" class="whiteButton repinButton"><em></em><strong>Repin</strong></a>\\n                    <a href="#" class="whiteButton likeButton"><em></em><strong>Like</strong></a>\\n                    <a href="#" class="whiteButton commentButton"><em></em><strong>Comment</strong></a>\\n                </div>\\n                <h1 class="itemTitle">Apple Yanks The iPad Off Of Amazon\\\'s Chinese Shelves, But Why?</h1>\\n                <h2 class="itemSubtitle">\\n                    <a href="#">\\n                        <img src="http://nickoneill.com/wordpress/wp-content/uploads/pinterest-icon.png"/>\\n                        <span>Pinterest.com<span>\\n                    </a>\\n                    <label class="itemTime">5 hours ago</label>\\n                </h2>\\n                <div class="itemContent">\\n                    <img src="http://media-cdn.pinterest.com/upload/132504414006474693_Ab8zAfwQ_f.jpg" />\\n                    <label class="itemText" />\\n                </div>\\n            </div>\\n        </li>\\n        <li style="height:239px">\\n            <div class="itemWrapper">\\n                <div class="actions">\\n                    <a href="#" class="whiteButton repinButton"><em></em><strong>Repin</strong></a>\\n                    <a href="#" class="whiteButton likeButton"><em></em><strong>Like</strong></a>\\n                    <a href="#" class="whiteButton commentButton"><em></em><strong>Comment</strong></a>\\n                </div>\\n                <h1 class="itemTitle">It\\\'s time to Acknowledge CEO Loneliness</h1>\\n                <h2 class="itemSubtitle">\\n                    <a href="#">\\n                        <img src="http://theheadlinereport.com/images/newsicons/forbes_icon.png"/>\\n                        <span>Harvard Business Review<span>\\n                    </a>\\n                    <label class="itemTime">3 hours ago</label>\\n                </h2>\\n                <div class="itemContent">\\n                    <label class="itemText" />\\n                </div>\\n            </div>\\n        </li>\\n        <li style="height:285px">\\n            <div class="itemWrapper">\\n                <div class="actions">\\n                    <a href="#" class="whiteButton repinButton"><em></em><strong>Repin</strong></a>\\n                    <a href="#" class="whiteButton likeButton"><em></em><strong>Like</strong></a>\\n                    <a href="#" class="whiteButton commentButton"><em></em><strong>Comment</strong></a>\\n                </div>\\n                <h1 class="itemTitle">Post-Disaster Retreat from Social Media Backfires on Carnival | DigitalNext: A Blog Emerging</h1>\\n                <h2 class="itemSubtitle">\\n                    <a href="#">\\n                        <img src="http://a3.twimg.com/profile_images/674280505/bz_twitter_avatar_normal.jpg"/>\\n                        <span>Adage.com<span>\\n                    </a>\\n                    <label class="itemTime">4 hours ago</label>\\n                </h2>\\n                <div class="itemContent">\\n                    <img src="http://sg.wsj.net/public/resources/images/OB-RJ919_simonn_A_20120116050452.gif" />\\n                    <label class="itemText" />\\n                </div>\\n            </div>\\n        </li>\\n        <li style="height:396px">\\n            <div class="itemWrapper">\\n                <div class="actions">\\n                    <a href="#" class="whiteButton repinButton"><em></em><strong>Repin</strong></a>\\n                    <a href="#" class="whiteButton likeButton"><em></em><strong>Like</strong></a>\\n                    <a href="#" class="whiteButton commentButton"><em></em><strong>Comment</strong></a>\\n                </div>\\n                <h1 class="itemTitle">The Rules of Fancy Drinks Marketing Technique [INFOGRAPHICS]</h1>\\n                <h2 class="itemSubtitle">\\n                    <a href="#">\\n                        <img src="http://3.bp.blogspot.com/-KUk98YET_w8/TiSDmEMQZyI/AAAAAAAABgY/RwzfbxRtyxA/s1600/128.png"/>\\n                        <span>TechCrunch.com<span>\\n                    </a>\\n                    <label class="itemTime">5 hours ago</label>\\n                </h2>\\n                <div class="itemContent">\\n                    <img src="http://media-cdn.pinterest.com/upload/2814818487066187_Bzf9XshC_f.jpg" />\\n                    <label class="itemText" />\\n                </div>\\n            </div>\\n        </li>\\n        <li style="height:452px">\\n            <div class="itemWrapper">\\n                <div class="actions">\\n                    <a href="#" class="whiteButton repinButton"><em></em><strong>Repin</strong></a>\\n                    <a href="#" class="whiteButton likeButton"><em></em><strong>Like</strong></a>\\n                    <a href="#" class="whiteButton commentButton"><em></em><strong>Comment</strong></a>\\n                </div>\\n                <h1 class="itemTitle">Apple Yanks The iPad Off Of Amazon\\\'s Chinese Shelves, But Why?</h1>\\n                <h2 class="itemSubtitle">\\n                    <a href="#">\\n                        <img src="http://nickoneill.com/wordpress/wp-content/uploads/pinterest-icon.png"/>\\n                        <span>Pinterest.com<span>\\n                    </a>\\n                    <label class="itemTime">5 hours ago</label>\\n                </h2>\\n                <div class="itemContent">\\n                    <img src="http://media-cdn.pinterest.com/upload/132504414006474693_Ab8zAfwQ_f.jpg" />\\n                    <label class="itemText" />\\n                </div>\\n            </div>\\n        </li>\\n        <li style="height:239px">\\n            <div class="itemWrapper">\\n                <div class="actions">\\n                    <a href="#" class="whiteButton repinButton"><em></em><strong>Repin</strong></a>\\n                    <a href="#" class="whiteButton likeButton"><em></em><strong>Like</strong></a>\\n                    <a href="#" class="whiteButton commentButton"><em></em><strong>Comment</strong></a>\\n                </div>\\n                <h1 class="itemTitle">It\\\'s time to Acknowledge CEO Loneliness</h1>\\n                <h2 class="itemSubtitle">\\n                    <a href="#">\\n                        <img src="http://theheadlinereport.com/images/newsicons/forbes_icon.png"/>\\n                        <span>Harvard Business Review<span>\\n                    </a>\\n                    <label class="itemTime">3 hours ago</label>\\n                </h2>\\n                <div class="itemContent">\\n                    <label class="itemText" />\\n                </div>\\n            </div>\\n        </li>\\n        <li style="height:239px">\\n            <div class="itemWrapper">\\n                <div class="actions">\\n                    <a href="#" class="whiteButton repinButton"><em></em><strong>Repin</strong></a>\\n                    <a href="#" class="whiteButton likeButton"><em></em><strong>Like</strong></a>\\n                    <a href="#" class="whiteButton commentButton"><em></em><strong>Comment</strong></a>\\n                </div>\\n                <h1 class="itemTitle">It\\\'s time to Acknowledge CEO Loneliness</h1>\\n                <h2 class="itemSubtitle">\\n                    <a href="#">\\n                        <img src="http://theheadlinereport.com/images/newsicons/forbes_icon.png"/>\\n                        <span>Harvard Business Review<span>\\n                    </a>\\n                    <label class="itemTime">3 hours ago</label>\\n                </h2>\\n                <div class="itemContent">\\n                    <label class="itemText" />\\n                </div>\\n            </div>\\n        </li>\\n        <li style="height:285px">\\n            <div class="itemWrapper">\\n                <div class="actions">\\n                    <a href="#" class="whiteButton repinButton"><em></em><strong>Repin</strong></a>\\n                    <a href="#" class="whiteButton likeButton"><em></em><strong>Like</strong></a>\\n                    <a href="#" class="whiteButton commentButton"><em></em><strong>Comment</strong></a>\\n                </div>\\n                <h1 class="itemTitle">Post-Disaster Retreat from Social Media Backfires on Carnival | DigitalNext: A Blog Emerging</h1>\\n                <h2 class="itemSubtitle">\\n                    <a href="#">\\n                        <img src="http://a3.twimg.com/profile_images/674280505/bz_twitter_avatar_normal.jpg"/>\\n                        <span>Adage.com<span>\\n                    </a>\\n                    <label class="itemTime">4 hours ago</label>\\n                </h2>\\n                <div class="itemContent">\\n                    <img src="http://sg.wsj.net/public/resources/images/OB-RJ919_simonn_A_20120116050452.gif" />\\n                    <label class="itemText" />\\n                </div>\\n            </div>\\n        </li>\\n        <li style="height:396px">\\n            <div class="itemWrapper">\\n                <div class="actions">\\n                    <a href="#" class="whiteButton repinButton"><em></em><strong>Repin</strong></a>\\n                    <a href="#" class="whiteButton likeButton"><em></em><strong>Like</strong></a>\\n                    <a href="#" class="whiteButton commentButton"><em></em><strong>Comment</strong></a>\\n                </div>\\n                <h1 class="itemTitle">The Rules of Fancy Drinks Marketing Technique [INFOGRAPHICS]</h1>\\n                <h2 class="itemSubtitle">\\n                    <a href="#">\\n                        <img src="http://3.bp.blogspot.com/-KUk98YET_w8/TiSDmEMQZyI/AAAAAAAABgY/RwzfbxRtyxA/s1600/128.png"/>\\n                        <span>TechCrunch.com<span>\\n                    </a>\\n                    <label class="itemTime">5 hours ago</label>\\n                </h2>\\n                <div class="itemContent">\\n                    <img src="http://media-cdn.pinterest.com/upload/2814818487066187_Bzf9XshC_f.jpg" />\\n                    <label class="itemText" />\\n                </div>\\n            </div>\\n        </li>\\n        <li style="height:452px">\\n            <div class="itemWrapper">\\n                <div class="actions">\\n                    <a href="#" class="whiteButton repinButton"><em></em><strong>Repin</strong></a>\\n                    <a href="#" class="whiteButton likeButton"><em></em><strong>Like</strong></a>\\n                    <a href="#" class="whiteButton commentButton"><em></em><strong>Comment</strong></a>\\n                </div>\\n                <h1 class="itemTitle">Apple Yanks The iPad Off Of Amazon\\\'s Chinese Shelves, But Why?</h1>\\n                <h2 class="itemSubtitle">\\n                    <a href="#">\\n                        <img src="http://nickoneill.com/wordpress/wp-content/uploads/pinterest-icon.png"/>\\n                        <span>Pinterest.com<span>\\n                    </a>\\n                    <label class="itemTime">5 hours ago</label>\\n                </h2>\\n                <div class="itemContent">\\n                    <img src="http://media-cdn.pinterest.com/upload/132504414006474693_Ab8zAfwQ_f.jpg" />\\n                    <label class="itemText" />\\n                </div>\\n            </div>\\n        </li>\\n    </ul>\\n</div>\\n\', escape=False)'
p3061
sI20
S"response.write('\\n', escape=False)"
p3062
sI21
S'response.write(\'\\n    <script type="text/javascript" src="/static/js/site.js"></script>\\n</body>\\n</html>\\n\', escape=False)'
p3063
sI22
S'response.write(BEAUTIFY(response._vars))'
p3064
sI23
S"response.write('\\n', escape=False)"
p3065
ssg3039
S'()'
p3066
sg3041
S'<module>'
p3067
sasS'pyver'
p3068
S'Python 2.5.4: /Library/Frameworks/Python.framework/Versions/2.5/Resources/Python.app/Contents/MacOS/Python'
p3069
sS'session'
p3070
g49
(g50
g51
NtRp3071
(dp3072
g54
(dp3073
sg56
(lp3074
g49
(g58
g51
NtRp3075
(dp3076
g54
(dp3077
g62
I5
ssg63
Nsg56
(lp3078
sbasbsS'etype'
p3079
S"<type 'exceptions.KeyError'>"
p3080
sS'date'
p3081
S'Wed Mar  7 10:11:23 2012'
p3082
sS'response'
p3083
g49
(g50
g51
NtRp3084
(dp3085
g54
(dp3086
sg56
(lp3087
g49
(g58
g51
NtRp3088
(dp3089
g54
(dp3090
g62
I5
ssg63
Nsg56
(lp3091
g49
(g65
g51
NtRp3092
(dp3093
g54
(dp3094
sg63
g3088
sg56
(lp3095
g49
(g70
g51
NtRp3096
(dp3097
g54
(dp3098
g74
g75
ssg63
g3092
sg56
(lp3099
g147
asbag49
(g70
g51
NtRp3100
(dp3101
g54
(dp3102
g81
g82
ssg63
g3092
sg56
(lp3103
S':'
asbag49
(g70
g51
NtRp3104
(dp3105
g54
(dp3106
sg63
g3092
sg56
(lp3107
g49
(g50
g51
NtRp3108
(dp3109
g54
(dp3110
g62
I5
ssg63
g3104
sg56
(lp3111
S'<cStringIO.StringO object at 0xa223980>'
p3112
asbasbasbag49
(g65
g51
NtRp3113
(dp3114
g54
(dp3115
sg63
g3088
sg56
(lp3116
g49
(g70
g51
NtRp3117
(dp3118
g54
(dp3119
g74
g75
ssg63
g3113
sg56
(lp3120
g213
asbag49
(g70
g51
NtRp3121
(dp3122
g54
(dp3123
g81
g82
ssg63
g3113
sg56
(lp3124
S':'
asbag49
(g70
g51
NtRp3125
(dp3126
g54
(dp3127
sg63
g3113
sg56
(lp3128
g49
(g50
g51
NtRp3129
(dp3130
g54
(dp3131
g62
I5
ssg63
g3125
sg56
(lp3132
g49
(g58
g51
NtRp3133
(dp3134
g54
(dp3135
g62
I4
ssg63
Nsg56
(lp3136
g49
(g65
g51
NtRp3137
(dp3138
g54
(dp3139
sg63
g3133
sg56
(lp3140
g49
(g70
g51
NtRp3141
(dp3142
g54
(dp3143
g74
g75
ssg63
g3137
sg56
(lp3144
S'session_id_udi0312'
p3145
asbag49
(g70
g51
NtRp3146
(dp3147
g54
(dp3148
g81
g82
ssg63
g3137
sg56
(lp3149
S':'
asbag49
(g70
g51
NtRp3150
(dp3151
g54
(dp3152
sg63
g3137
sg56
(lp3153
g49
(g50
g51
NtRp3154
(dp3155
g54
(dp3156
g62
I4
ssg63
g3150
sg56
(lp3157
g49
(g58
g51
NtRp3158
(dp3159
g54
(dp3160
g62
I3
ssg63
Nsg56
(lp3161
g49
(g65
g51
NtRp3162
(dp3163
g54
(dp3164
sg63
g3158
sg56
(lp3165
g49
(g70
g51
NtRp3166
(dp3167
g54
(dp3168
g74
g75
ssg63
g3162
sg56
(lp3169
g263
asbag49
(g70
g51
NtRp3170
(dp3171
g54
(dp3172
g81
g82
ssg63
g3162
sg56
(lp3173
S':'
asbag49
(g70
g51
NtRp3174
(dp3175
g54
(dp3176
sg63
g3162
sg56
(lp3177
g49
(g50
g51
NtRp3178
(dp3179
g54
(dp3180
g62
I3
ssg63
g3174
sg56
(lp3181
S''
asbasbasbag49
(g65
g51
NtRp3182
(dp3183
g54
(dp3184
sg63
g3158
sg56
(lp3185
g49
(g70
g51
NtRp3186
(dp3187
g54
(dp3188
g74
g75
ssg63
g3182
sg56
(lp3189
g284
asbag49
(g70
g51
NtRp3190
(dp3191
g54
(dp3192
g81
g82
ssg63
g3182
sg56
(lp3193
S':'
asbag49
(g70
g51
NtRp3194
(dp3195
g54
(dp3196
sg63
g3182
sg56
(lp3197
g49
(g50
g51
NtRp3198
(dp3199
g54
(dp3200
g62
I3
ssg63
g3194
sg56
(lp3201
S''
asbasbasbag49
(g65
g51
NtRp3202
(dp3203
g54
(dp3204
sg63
g3158
sg56
(lp3205
g49
(g70
g51
NtRp3206
(dp3207
g54
(dp3208
g74
g75
ssg63
g3202
sg56
(lp3209
g305
asbag49
(g70
g51
NtRp3210
(dp3211
g54
(dp3212
g81
g82
ssg63
g3202
sg56
(lp3213
S':'
asbag49
(g70
g51
NtRp3214
(dp3215
g54
(dp3216
sg63
g3202
sg56
(lp3217
g49
(g50
g51
NtRp3218
(dp3219
g54
(dp3220
g62
I3
ssg63
g3214
sg56
(lp3221
S''
asbasbasbag49
(g65
g51
NtRp3222
(dp3223
g54
(dp3224
sg63
g3158
sg56
(lp3225
g49
(g70
g51
NtRp3226
(dp3227
g54
(dp3228
g74
g75
ssg63
g3222
sg56
(lp3229
g326
asbag49
(g70
g51
NtRp3230
(dp3231
g54
(dp3232
g81
g82
ssg63
g3222
sg56
(lp3233
S':'
asbag49
(g70
g51
NtRp3234
(dp3235
g54
(dp3236
sg63
g3222
sg56
(lp3237
g49
(g50
g51
NtRp3238
(dp3239
g54
(dp3240
g62
I3
ssg63
g3234
sg56
(lp3241
S''
asbasbasbag49
(g65
g51
NtRp3242
(dp3243
g54
(dp3244
sg63
g3158
sg56
(lp3245
g49
(g70
g51
NtRp3246
(dp3247
g54
(dp3248
g74
g75
ssg63
g3242
sg56
(lp3249
g347
asbag49
(g70
g51
NtRp3250
(dp3251
g54
(dp3252
g81
g82
ssg63
g3242
sg56
(lp3253
S':'
asbag49
(g70
g51
NtRp3254
(dp3255
g54
(dp3256
sg63
g3242
sg56
(lp3257
g49
(g50
g51
NtRp3258
(dp3259
g54
(dp3260
g62
I3
ssg63
g3254
sg56
(lp3261
S'/'
asbasbasbag49
(g65
g51
NtRp3262
(dp3263
g54
(dp3264
sg63
g3158
sg56
(lp3265
g49
(g70
g51
NtRp3266
(dp3267
g54
(dp3268
g74
g75
ssg63
g3262
sg56
(lp3269
g368
asbag49
(g70
g51
NtRp3270
(dp3271
g54
(dp3272
g81
g82
ssg63
g3262
sg56
(lp3273
S':'
asbag49
(g70
g51
NtRp3274
(dp3275
g54
(dp3276
sg63
g3262
sg56
(lp3277
g49
(g50
g51
NtRp3278
(dp3279
g54
(dp3280
g62
I3
ssg63
g3274
sg56
(lp3281
S''
asbasbasbag49
(g65
g51
NtRp3282
(dp3283
g54
(dp3284
sg63
g3158
sg56
(lp3285
g49
(g70
g51
NtRp3286
(dp3287
g54
(dp3288
g74
g75
ssg63
g3282
sg56
(lp3289
g389
asbag49
(g70
g51
NtRp3290
(dp3291
g54
(dp3292
g81
g82
ssg63
g3282
sg56
(lp3293
S':'
asbag49
(g70
g51
NtRp3294
(dp3295
g54
(dp3296
sg63
g3282
sg56
(lp3297
g49
(g50
g51
NtRp3298
(dp3299
g54
(dp3300
g62
I3
ssg63
g3294
sg56
(lp3301
S''
asbasbasbasbasbasbasbasbasbasbasbag49
(g65
g51
NtRp3302
(dp3303
g54
(dp3304
sg63
g3088
sg56
(lp3305
g49
(g70
g51
NtRp3306
(dp3307
g54
(dp3308
g74
g75
ssg63
g3302
sg56
(lp3309
S'delimiters'
p3310
asbag49
(g70
g51
NtRp3311
(dp3312
g54
(dp3313
g81
g82
ssg63
g3302
sg56
(lp3314
S':'
asbag49
(g70
g51
NtRp3315
(dp3316
g54
(dp3317
sg63
g3302
sg56
(lp3318
g49
(g50
g51
NtRp3319
(dp3320
g54
(dp3321
g62
I5
ssg63
g3315
sg56
(lp3322
g49
(g58
g51
NtRp3323
(dp3324
g54
(dp3325
g62
I4
ssg63
Nsg56
(lp3326
g49
(g65
g51
NtRp3327
(dp3328
g54
(dp3329
sg63
g3323
sg56
(lp3330
g49
(g70
g51
NtRp3331
(dp3332
g54
(dp3333
sg63
g3327
sg56
(lp3334
g49
(g50
g51
NtRp3335
(dp3336
g54
(dp3337
g62
I4
ssg63
g3331
sg56
(lp3338
S'{{'
p3339
asbasbasbag49
(g65
g51
NtRp3340
(dp3341
g54
(dp3342
sg63
g3323
sg56
(lp3343
g49
(g70
g51
NtRp3344
(dp3345
g54
(dp3346
sg63
g3340
sg56
(lp3347
g49
(g50
g51
NtRp3348
(dp3349
g54
(dp3350
g62
I4
ssg63
g3344
sg56
(lp3351
S'}}'
p3352
asbasbasbasbasbasbasbag49
(g65
g51
NtRp3353
(dp3354
g54
(dp3355
sg63
g3088
sg56
(lp3356
g49
(g70
g51
NtRp3357
(dp3358
g54
(dp3359
g74
g75
ssg63
g3353
sg56
(lp3360
S'files'
p3361
asbag49
(g70
g51
NtRp3362
(dp3363
g54
(dp3364
g81
g82
ssg63
g3353
sg56
(lp3365
S':'
asbag49
(g70
g51
NtRp3366
(dp3367
g54
(dp3368
sg63
g3353
sg56
(lp3369
g49
(g50
g51
NtRp3370
(dp3371
g54
(dp3372
g62
I5
ssg63
g3366
sg56
(lp3373
g49
(g58
g51
NtRp3374
(dp3375
g54
(dp3376
g62
I4
ssg63
Nsg56
(lp3377
sbasbasbasbag49
(g65
g51
NtRp3378
(dp3379
g54
(dp3380
sg63
g3088
sg56
(lp3381
g49
(g70
g51
NtRp3382
(dp3383
g54
(dp3384
g74
g75
ssg63
g3378
sg56
(lp3385
S'flash'
p3386
asbag49
(g70
g51
NtRp3387
(dp3388
g54
(dp3389
g81
g82
ssg63
g3378
sg56
(lp3390
S':'
asbag49
(g70
g51
NtRp3391
(dp3392
g54
(dp3393
sg63
g3378
sg56
(lp3394
g49
(g50
g51
NtRp3395
(dp3396
g54
(dp3397
g62
I5
ssg63
g3391
sg56
(lp3398
S''
asbasbasbag49
(g65
g51
NtRp3399
(dp3400
g54
(dp3401
sg63
g3088
sg56
(lp3402
g49
(g70
g51
NtRp3403
(dp3404
g54
(dp3405
g74
g75
ssg63
g3399
sg56
(lp3406
S'generic_patterns'
p3407
asbag49
(g70
g51
NtRp3408
(dp3409
g54
(dp3410
g81
g82
ssg63
g3399
sg56
(lp3411
S':'
asbag49
(g70
g51
NtRp3412
(dp3413
g54
(dp3414
sg63
g3399
sg56
(lp3415
g49
(g50
g51
NtRp3416
(dp3417
g54
(dp3418
g62
I5
ssg63
g3412
sg56
(lp3419
g49
(g58
g51
NtRp3420
(dp3421
g54
(dp3422
g62
I4
ssg63
Nsg56
(lp3423
g49
(g65
g51
NtRp3424
(dp3425
g54
(dp3426
sg63
g3420
sg56
(lp3427
g49
(g70
g51
NtRp3428
(dp3429
g54
(dp3430
sg63
g3424
sg56
(lp3431
g49
(g50
g51
NtRp3432
(dp3433
g54
(dp3434
g62
I4
ssg63
g3428
sg56
(lp3435
S'*'
asbasbasbasbasbasbasbag49
(g65
g51
NtRp3436
(dp3437
g54
(dp3438
sg63
g3088
sg56
(lp3439
g49
(g70
g51
NtRp3440
(dp3441
g54
(dp3442
g74
g75
ssg63
g3436
sg56
(lp3443
S'headers'
p3444
asbag49
(g70
g51
NtRp3445
(dp3446
g54
(dp3447
g81
g82
ssg63
g3436
sg56
(lp3448
S':'
asbag49
(g70
g51
NtRp3449
(dp3450
g54
(dp3451
sg63
g3436
sg56
(lp3452
g49
(g50
g51
NtRp3453
(dp3454
g54
(dp3455
g62
I5
ssg63
g3449
sg56
(lp3456
g49
(g58
g51
NtRp3457
(dp3458
g54
(dp3459
g62
I4
ssg63
Nsg56
(lp3460
g49
(g65
g51
NtRp3461
(dp3462
g54
(dp3463
sg63
g3457
sg56
(lp3464
g49
(g70
g51
NtRp3465
(dp3466
g54
(dp3467
g74
g75
ssg63
g3461
sg56
(lp3468
S'Cache-Control'
p3469
asbag49
(g70
g51
NtRp3470
(dp3471
g54
(dp3472
g81
g82
ssg63
g3461
sg56
(lp3473
S':'
asbag49
(g70
g51
NtRp3474
(dp3475
g54
(dp3476
sg63
g3461
sg56
(lp3477
g49
(g50
g51
NtRp3478
(dp3479
g54
(dp3480
g62
I4
ssg63
g3474
sg56
(lp3481
S'no-store, no-cache, must-revalidate, post-check=0, pre-check=0'
p3482
asbasbasbag49
(g65
g51
NtRp3483
(dp3484
g54
(dp3485
sg63
g3457
sg56
(lp3486
g49
(g70
g51
NtRp3487
(dp3488
g54
(dp3489
g74
g75
ssg63
g3483
sg56
(lp3490
S'Content-Type'
p3491
asbag49
(g70
g51
NtRp3492
(dp3493
g54
(dp3494
g81
g82
ssg63
g3483
sg56
(lp3495
S':'
asbag49
(g70
g51
NtRp3496
(dp3497
g54
(dp3498
sg63
g3483
sg56
(lp3499
g49
(g50
g51
NtRp3500
(dp3501
g54
(dp3502
g62
I4
ssg63
g3496
sg56
(lp3503
S'text/html; charset=utf-8'
p3504
asbasbasbag49
(g65
g51
NtRp3505
(dp3506
g54
(dp3507
sg63
g3457
sg56
(lp3508
g49
(g70
g51
NtRp3509
(dp3510
g54
(dp3511
g74
g75
ssg63
g3505
sg56
(lp3512
S'Expires'
p3513
asbag49
(g70
g51
NtRp3514
(dp3515
g54
(dp3516
g81
g82
ssg63
g3505
sg56
(lp3517
S':'
asbag49
(g70
g51
NtRp3518
(dp3519
g54
(dp3520
sg63
g3505
sg56
(lp3521
g49
(g50
g51
NtRp3522
(dp3523
g54
(dp3524
g62
I4
ssg63
g3518
sg56
(lp3525
S'Wed, 07 Mar 2012 15:11:23 GMT'
p3526
asbasbasbag49
(g65
g51
NtRp3527
(dp3528
g54
(dp3529
sg63
g3457
sg56
(lp3530
g49
(g70
g51
NtRp3531
(dp3532
g54
(dp3533
g74
g75
ssg63
g3527
sg56
(lp3534
S'Pragma'
p3535
asbag49
(g70
g51
NtRp3536
(dp3537
g54
(dp3538
g81
g82
ssg63
g3527
sg56
(lp3539
S':'
asbag49
(g70
g51
NtRp3540
(dp3541
g54
(dp3542
sg63
g3527
sg56
(lp3543
g49
(g50
g51
NtRp3544
(dp3545
g54
(dp3546
g62
I4
ssg63
g3540
sg56
(lp3547
S'no-cache'
p3548
asbasbasbag49
(g65
g51
NtRp3549
(dp3550
g54
(dp3551
sg63
g3457
sg56
(lp3552
g49
(g70
g51
NtRp3553
(dp3554
g54
(dp3555
g74
g75
ssg63
g3549
sg56
(lp3556
S'X-Powered-By'
p3557
asbag49
(g70
g51
NtRp3558
(dp3559
g54
(dp3560
g81
g82
ssg63
g3549
sg56
(lp3561
S':'
asbag49
(g70
g51
NtRp3562
(dp3563
g54
(dp3564
sg63
g3549
sg56
(lp3565
g49
(g50
g51
NtRp3566
(dp3567
g54
(dp3568
g62
I4
ssg63
g3562
sg56
(lp3569
S'web2py'
p3570
asbasbasbasbasbasbasbag49
(g65
g51
NtRp3571
(dp3572
g54
(dp3573
sg63
g3088
sg56
(lp3574
g49
(g70
g51
NtRp3575
(dp3576
g54
(dp3577
g74
g75
ssg63
g3571
sg56
(lp3578
S'menu'
p3579
asbag49
(g70
g51
NtRp3580
(dp3581
g54
(dp3582
g81
g82
ssg63
g3571
sg56
(lp3583
S':'
asbag49
(g70
g51
NtRp3584
(dp3585
g54
(dp3586
sg63
g3571
sg56
(lp3587
g49
(g50
g51
NtRp3588
(dp3589
g54
(dp3590
g62
I5
ssg63
g3584
sg56
(lp3591
g49
(g58
g51
NtRp3592
(dp3593
g54
(dp3594
g62
I4
ssg63
Nsg56
(lp3595
g49
(g65
g51
NtRp3596
(dp3597
g54
(dp3598
sg63
g3592
sg56
(lp3599
g49
(g70
g51
NtRp3600
(dp3601
g54
(dp3602
sg63
g3596
sg56
(lp3603
g49
(g50
g51
NtRp3604
(dp3605
g54
(dp3606
g62
I4
ssg63
g3600
sg56
(lp3607
g49
(g58
g51
NtRp3608
(dp3609
g54
(dp3610
g62
I3
ssg63
Nsg56
(lp3611
g49
(g65
g51
NtRp3612
(dp3613
g54
(dp3614
sg63
g3608
sg56
(lp3615
g49
(g70
g51
NtRp3616
(dp3617
g54
(dp3618
sg63
g3612
sg56
(lp3619
g49
(g50
g51
NtRp3620
(dp3621
g54
(dp3622
g62
I3
ssg63
g3616
sg56
(lp3623
cgluon.languages
lazyT_unpickle
p3624
(S's\x04\x00\x00\x00Home'
tRp3625
asbasbasbag49
(g65
g51
NtRp3626
(dp3627
g54
(dp3628
sg63
g3608
sg56
(lp3629
g49
(g70
g51
NtRp3630
(dp3631
g54
(dp3632
sg63
g3626
sg56
(lp3633
g49
(g50
g51
NtRp3634
(dp3635
g54
(dp3636
g62
I3
ssg63
g3630
sg56
(lp3637
g92
asbasbasbag49
(g65
g51
NtRp3638
(dp3639
g54
(dp3640
sg63
g3608
sg56
(lp3641
g49
(g70
g51
NtRp3642
(dp3643
g54
(dp3644
sg63
g3638
sg56
(lp3645
g49
(g50
g51
NtRp3646
(dp3647
g54
(dp3648
g62
I3
ssg63
g3642
sg56
(lp3649
S'/udi0312/default/index'
p3650
asbasbasbag49
(g65
g51
NtRp3651
(dp3652
g54
(dp3653
sg63
g3608
sg56
(lp3654
g49
(g70
g51
NtRp3655
(dp3656
g54
(dp3657
sg63
g3651
sg56
(lp3658
g49
(g50
g51
NtRp3659
(dp3660
g54
(dp3661
g62
I3
ssg63
g3655
sg56
(lp3662
g49
(g58
g51
NtRp3663
(dp3664
g54
(dp3665
g62
I2
ssg63
Nsg56
(lp3666
sbasbasbasbasbasbasbasbag49
(g65
g51
NtRp3667
(dp3668
g54
(dp3669
sg63
g3592
sg56
(lp3670
g49
(g70
g51
NtRp3671
(dp3672
g54
(dp3673
sg63
g3667
sg56
(lp3674
g49
(g50
g51
NtRp3675
(dp3676
g54
(dp3677
g62
I4
ssg63
g3671
sg56
(lp3678
g49
(g58
g51
NtRp3679
(dp3680
g54
(dp3681
g62
I3
ssg63
Nsg56
(lp3682
g49
(g65
g51
NtRp3683
(dp3684
g54
(dp3685
sg63
g3679
sg56
(lp3686
g49
(g70
g51
NtRp3687
(dp3688
g54
(dp3689
sg63
g3683
sg56
(lp3690
g49
(g50
g51
NtRp3691
(dp3692
g54
(dp3693
g62
I3
ssg63
g3687
sg56
(lp3694
g49
(cgluon.html
SPAN
p3695
g51
NtRp3696
(dp3697
g54
(dp3698
g74
S'color:yellow'
p3699
ssg63
Nsg56
(lp3700
g3570
asbasbasbasbag49
(g65
g51
NtRp3701
(dp3702
g54
(dp3703
sg63
g3679
sg56
(lp3704
g49
(g70
g51
NtRp3705
(dp3706
g54
(dp3707
sg63
g3701
sg56
(lp3708
g49
(g50
g51
NtRp3709
(dp3710
g54
(dp3711
g62
I3
ssg63
g3705
sg56
(lp3712
g92
asbasbasbag49
(g65
g51
NtRp3713
(dp3714
g54
(dp3715
sg63
g3679
sg56
(lp3716
g49
(g70
g51
NtRp3717
(dp3718
g54
(dp3719
sg63
g3713
sg56
(lp3720
g49
(g50
g51
NtRp3721
(dp3722
g54
(dp3723
g62
I3
ssg63
g3717
sg56
(lp3724
S'None'
p3725
asbasbasbag49
(g65
g51
NtRp3726
(dp3727
g54
(dp3728
sg63
g3679
sg56
(lp3729
g49
(g70
g51
NtRp3730
(dp3731
g54
(dp3732
sg63
g3726
sg56
(lp3733
g49
(g50
g51
NtRp3734
(dp3735
g54
(dp3736
g62
I3
ssg63
g3730
sg56
(lp3737
g49
(g58
g51
NtRp3738
(dp3739
g54
(dp3740
g62
I2
ssg63
Nsg56
(lp3741
g49
(g65
g51
NtRp3742
(dp3743
g54
(dp3744
sg63
g3738
sg56
(lp3745
g49
(g70
g51
NtRp3746
(dp3747
g54
(dp3748
sg63
g3742
sg56
(lp3749
g49
(g50
g51
NtRp3750
(dp3751
g54
(dp3752
g62
I2
ssg63
g3746
sg56
(lp3753
g49
(g58
g51
NtRp3754
(dp3755
g54
(dp3756
g62
I1
ssg63
Nsg56
(lp3757
g49
(g65
g51
NtRp3758
(dp3759
g54
(dp3760
sg63
g3754
sg56
(lp3761
g49
(g70
g51
NtRp3762
(dp3763
g54
(dp3764
sg63
g3758
sg56
(lp3765
g49
(g50
g51
NtRp3766
(dp3767
g54
(dp3768
g62
I1
ssg63
g3762
sg56
(lp3769
g3624
(S's\x08\x00\x00\x00My Sites'
tRp3770
asbasbasbag49
(g65
g51
NtRp3771
(dp3772
g54
(dp3773
sg63
g3754
sg56
(lp3774
g49
(g70
g51
NtRp3775
(dp3776
g54
(dp3777
sg63
g3771
sg56
(lp3778
g49
(g50
g51
NtRp3779
(dp3780
g54
(dp3781
g62
I1
ssg63
g3775
sg56
(lp3782
I00
asbasbasbag49
(g65
g51
NtRp3783
(dp3784
g54
(dp3785
sg63
g3754
sg56
(lp3786
g49
(g70
g51
NtRp3787
(dp3788
g54
(dp3789
sg63
g3783
sg56
(lp3790
g49
(g50
g51
NtRp3791
(dp3792
g54
(dp3793
g62
I1
ssg63
g3787
sg56
(lp3794
S'/admin/default/site'
p3795
asbasbasbasbasbasbasbag49
(g65
g51
NtRp3796
(dp3797
g54
(dp3798
sg63
g3738
sg56
(lp3799
g49
(g70
g51
NtRp3800
(dp3801
g54
(dp3802
sg63
g3796
sg56
(lp3803
g49
(g50
g51
NtRp3804
(dp3805
g54
(dp3806
g62
I2
ssg63
g3800
sg56
(lp3807
g49
(g58
g51
NtRp3808
(dp3809
g54
(dp3810
g62
I1
ssg63
Nsg56
(lp3811
g49
(g65
g51
NtRp3812
(dp3813
g54
(dp3814
sg63
g3808
sg56
(lp3815
g49
(g70
g51
NtRp3816
(dp3817
g54
(dp3818
sg63
g3812
sg56
(lp3819
g49
(g50
g51
NtRp3820
(dp3821
g54
(dp3822
g62
I1
ssg63
g3816
sg56
(lp3823
g3624
(S's\x08\x00\x00\x00This App'
tRp3824
asbasbasbag49
(g65
g51
NtRp3825
(dp3826
g54
(dp3827
sg63
g3808
sg56
(lp3828
g49
(g70
g51
NtRp3829
(dp3830
g54
(dp3831
sg63
g3825
sg56
(lp3832
g49
(g50
g51
NtRp3833
(dp3834
g54
(dp3835
g62
I1
ssg63
g3829
sg56
(lp3836
I00
asbasbasbag49
(g65
g51
NtRp3837
(dp3838
g54
(dp3839
sg63
g3808
sg56
(lp3840
g49
(g70
g51
NtRp3841
(dp3842
g54
(dp3843
sg63
g3837
sg56
(lp3844
g49
(g50
g51
NtRp3845
(dp3846
g54
(dp3847
g62
I1
ssg63
g3841
sg56
(lp3848
S'/admin/default/design/udi0312'
p3849
asbasbasbag49
(g65
g51
NtRp3850
(dp3851
g54
(dp3852
sg63
g3808
sg56
(lp3853
g49
(g70
g51
NtRp3854
(dp3855
g54
(dp3856
sg63
g3850
sg56
(lp3857
g49
(g50
g51
NtRp3858
(dp3859
g54
(dp3860
g62
I1
ssg63
g3854
sg56
(lp3861
(lp3862
(g3624
(S's\n\x00\x00\x00Controller'
tRp3863
I00
S'/admin/default/edit/udi0312/controllers/default.py'
tp3864
a(g3624
(S's\x04\x00\x00\x00View'
tRp3865
I00
S'/admin/default/edit/udi0312/views/default/index.html'
tp3866
a(g3624
(S's\x06\x00\x00\x00Layout'
tRp3867
I00
S'/admin/default/edit/udi0312/views/layout.html'
tp3868
a(g3624
(S's\n\x00\x00\x00Stylesheet'
tRp3869
I00
S'/admin/default/edit/udi0312/static/css/web2py.css'
tp3870
a(g3624
(S's\x08\x00\x00\x00DB Model'
tRp3871
I00
S'/admin/default/edit/udi0312/models/db.py'
tp3872
a(g3624
(S's\n\x00\x00\x00Menu Model'
tRp3873
I00
S'/admin/default/edit/udi0312/models/menu.py'
tp3874
a(g3624
(S's\x08\x00\x00\x00Database'
tRp3875
I00
S'/udi0312/appadmin/index'
tp3876
a(g3624
(S's\x06\x00\x00\x00Errors'
tRp3877
I00
S'/admin/default/errors/udi0312'
tp3878
a(g3624
(S's\x05\x00\x00\x00About'
tRp3879
I00
S'/admin/default/about/udi0312'
tp3880
aasbasbasbasbasbasbasbag49
(g65
g51
NtRp3881
(dp3882
g54
(dp3883
sg63
g3738
sg56
(lp3884
g49
(g70
g51
NtRp3885
(dp3886
g54
(dp3887
sg63
g3881
sg56
(lp3888
g49
(g50
g51
NtRp3889
(dp3890
g54
(dp3891
g62
I2
ssg63
g3885
sg56
(lp3892
g49
(g58
g51
NtRp3893
(dp3894
g54
(dp3895
g62
I1
ssg63
Nsg56
(lp3896
g49
(g65
g51
NtRp3897
(dp3898
g54
(dp3899
sg63
g3893
sg56
(lp3900
g49
(g70
g51
NtRp3901
(dp3902
g54
(dp3903
sg63
g3897
sg56
(lp3904
g49
(g50
g51
NtRp3905
(dp3906
g54
(dp3907
g62
I1
ssg63
g3901
sg56
(lp3908
S'web2py.com'
p3909
asbasbasbag49
(g65
g51
NtRp3910
(dp3911
g54
(dp3912
sg63
g3893
sg56
(lp3913
g49
(g70
g51
NtRp3914
(dp3915
g54
(dp3916
sg63
g3910
sg56
(lp3917
g49
(g50
g51
NtRp3918
(dp3919
g54
(dp3920
g62
I1
ssg63
g3914
sg56
(lp3921
I00
asbasbasbag49
(g65
g51
NtRp3922
(dp3923
g54
(dp3924
sg63
g3893
sg56
(lp3925
g49
(g70
g51
NtRp3926
(dp3927
g54
(dp3928
sg63
g3922
sg56
(lp3929
g49
(g50
g51
NtRp3930
(dp3931
g54
(dp3932
g62
I1
ssg63
g3926
sg56
(lp3933
S'http://www.web2py.com'
p3934
asbasbasbag49
(g65
g51
NtRp3935
(dp3936
g54
(dp3937
sg63
g3893
sg56
(lp3938
g49
(g70
g51
NtRp3939
(dp3940
g54
(dp3941
sg63
g3935
sg56
(lp3942
g49
(g50
g51
NtRp3943
(dp3944
g54
(dp3945
g62
I1
ssg63
g3939
sg56
(lp3946
(lp3947
(g3624
(S's\x08\x00\x00\x00Download'
tRp3948
I00
S'http://www.web2py.com/examples/default/download'
p3949
tp3950
a(g3624
(S's\x07\x00\x00\x00Support'
tRp3951
I00
S'http://www.web2py.com/examples/default/support'
p3952
tp3953
a(g3624
(S's\x04\x00\x00\x00Demo'
tRp3954
I00
S'http://web2py.com/demo_admin'
p3955
tp3956
a(g3624
(S's\x0e\x00\x00\x00Quick Examples'
tRp3957
I00
S'http://web2py.com/examples/default/examples'
p3958
tp3959
a(g3624
(S's\x03\x00\x00\x00FAQ'
tRp3960
I00
S'http://web2py.com/AlterEgo'
p3961
tp3962
a(g3624
(S's\x06\x00\x00\x00Videos'
tRp3963
I00
S'http://www.web2py.com/examples/default/videos/'
p3964
tp3965
a(g3624
(S's\x11\x00\x00\x00Free Applications'
tRp3966
I00
S'http://web2py.com/appliances'
p3967
tp3968
a(g3624
(S's\x07\x00\x00\x00Plugins'
tRp3969
I00
S'http://web2py.com/plugins'
p3970
tp3971
a(g3624
(S's\x07\x00\x00\x00Layouts'
tRp3972
I00
S'http://web2py.com/layouts'
p3973
tp3974
a(g3624
(S's\x07\x00\x00\x00Recipes'
tRp3975
I00
S'http://web2pyslices.com/'
p3976
tp3977
a(g3624
(S's\x08\x00\x00\x00Semantic'
tRp3978
I00
S'http://web2py.com/semantic'
p3979
tp3980
aasbasbasbasbasbasbasbag49
(g65
g51
NtRp3981
(dp3982
g54
(dp3983
sg63
g3738
sg56
(lp3984
g49
(g70
g51
NtRp3985
(dp3986
g54
(dp3987
sg63
g3981
sg56
(lp3988
g49
(g50
g51
NtRp3989
(dp3990
g54
(dp3991
g62
I2
ssg63
g3985
sg56
(lp3992
g49
(g58
g51
NtRp3993
(dp3994
g54
(dp3995
g62
I1
ssg63
Nsg56
(lp3996
g49
(g65
g51
NtRp3997
(dp3998
g54
(dp3999
sg63
g3993
sg56
(lp4000
g49
(g70
g51
NtRp4001
(dp4002
g54
(dp4003
sg63
g3997
sg56
(lp4004
g49
(g50
g51
NtRp4005
(dp4006
g54
(dp4007
g62
I1
ssg63
g4001
sg56
(lp4008
g3624
(S's\r\x00\x00\x00Documentation'
tRp4009
asbasbasbag49
(g65
g51
NtRp4010
(dp4011
g54
(dp4012
sg63
g3993
sg56
(lp4013
g49
(g70
g51
NtRp4014
(dp4015
g54
(dp4016
sg63
g4010
sg56
(lp4017
g49
(g50
g51
NtRp4018
(dp4019
g54
(dp4020
g62
I1
ssg63
g4014
sg56
(lp4021
I00
asbasbasbag49
(g65
g51
NtRp4022
(dp4023
g54
(dp4024
sg63
g3993
sg56
(lp4025
g49
(g70
g51
NtRp4026
(dp4027
g54
(dp4028
sg63
g4022
sg56
(lp4029
g49
(g50
g51
NtRp4030
(dp4031
g54
(dp4032
g62
I1
ssg63
g4026
sg56
(lp4033
S'http://www.web2py.com/book'
p4034
asbasbasbag49
(g65
g51
NtRp4035
(dp4036
g54
(dp4037
sg63
g3993
sg56
(lp4038
g49
(g70
g51
NtRp4039
(dp4040
g54
(dp4041
sg63
g4035
sg56
(lp4042
g49
(g50
g51
NtRp4043
(dp4044
g54
(dp4045
g62
I1
ssg63
g4039
sg56
(lp4046
(lp4047
(g3624
(S's\x07\x00\x00\x00Preface'
tRp4048
I00
S'http://www.web2py.com/book/default/chapter/00'
p4049
tp4050
a(g3624
(S's\x0c\x00\x00\x00Introduction'
tRp4051
I00
S'http://www.web2py.com/book/default/chapter/01'
p4052
tp4053
a(g3624
(S's\x06\x00\x00\x00Python'
tRp4054
I00
S'http://www.web2py.com/book/default/chapter/02'
p4055
tp4056
a(g3624
(S's\x08\x00\x00\x00Overview'
tRp4057
I00
S'http://www.web2py.com/book/default/chapter/03'
p4058
tp4059
a(g3624
(S's\x08\x00\x00\x00The Core'
tRp4060
I00
S'http://www.web2py.com/book/default/chapter/04'
p4061
tp4062
a(g3624
(S's\t\x00\x00\x00The Views'
tRp4063
I00
S'http://www.web2py.com/book/default/chapter/05'
p4064
tp4065
a(g3624
(S's\x08\x00\x00\x00Database'
tRp4066
I00
S'http://www.web2py.com/book/default/chapter/06'
p4067
tp4068
a(g3624
(S's\x14\x00\x00\x00Forms and Validators'
tRp4069
I00
S'http://www.web2py.com/book/default/chapter/07'
p4070
tp4071
a(g3624
(S's\r\x00\x00\x00Email and SMS'
tRp4072
I00
S'http://www.web2py.com/book/default/chapter/08'
p4073
tp4074
a(g3624
(S's\x0e\x00\x00\x00Access Control'
tRp4075
I00
S'http://www.web2py.com/book/default/chapter/09'
p4076
tp4077
a(g3624
(S's\x08\x00\x00\x00Services'
tRp4078
I00
S'http://www.web2py.com/book/default/chapter/10'
p4079
tp4080
a(g3624
(S's\x0c\x00\x00\x00Ajax Recipes'
tRp4081
I00
S'http://www.web2py.com/book/default/chapter/11'
p4082
tp4083
a(g3624
(S's\x16\x00\x00\x00Components and Plugins'
tRp4084
I00
S'http://www.web2py.com/book/default/chapter/12'
p4085
tp4086
a(g3624
(S's\x12\x00\x00\x00Deployment Recipes'
tRp4087
I00
S'http://www.web2py.com/book/default/chapter/13'
p4088
tp4089
a(g3624
(S's\r\x00\x00\x00Other Recipes'
tRp4090
I00
S'http://www.web2py.com/book/default/chapter/14'
p4091
tp4092
a(g3624
(S's\r\x00\x00\x00Buy this book'
tRp4093
I00
S'http://stores.lulu.com/web2py'
p4094
tp4095
aasbasbasbasbasbasbasbag49
(g65
g51
NtRp4096
(dp4097
g54
(dp4098
sg63
g3738
sg56
(lp4099
g49
(g70
g51
NtRp4100
(dp4101
g54
(dp4102
sg63
g4096
sg56
(lp4103
g49
(g50
g51
NtRp4104
(dp4105
g54
(dp4106
g62
I2
ssg63
g4100
sg56
(lp4107
g49
(g58
g51
NtRp4108
(dp4109
g54
(dp4110
g62
I1
ssg63
Nsg56
(lp4111
g49
(g65
g51
NtRp4112
(dp4113
g54
(dp4114
sg63
g4108
sg56
(lp4115
g49
(g70
g51
NtRp4116
(dp4117
g54
(dp4118
sg63
g4112
sg56
(lp4119
g49
(g50
g51
NtRp4120
(dp4121
g54
(dp4122
g62
I1
ssg63
g4116
sg56
(lp4123
g3624
(S's\t\x00\x00\x00Community'
tRp4124
asbasbasbag49
(g65
g51
NtRp4125
(dp4126
g54
(dp4127
sg63
g4108
sg56
(lp4128
g49
(g70
g51
NtRp4129
(dp4130
g54
(dp4131
sg63
g4125
sg56
(lp4132
g49
(g50
g51
NtRp4133
(dp4134
g54
(dp4135
g62
I1
ssg63
g4129
sg56
(lp4136
I00
asbasbasbag49
(g65
g51
NtRp4137
(dp4138
g54
(dp4139
sg63
g4108
sg56
(lp4140
g49
(g70
g51
NtRp4141
(dp4142
g54
(dp4143
sg63
g4137
sg56
(lp4144
g49
(g50
g51
NtRp4145
(dp4146
g54
(dp4147
g62
I1
ssg63
g4141
sg56
(lp4148
Nasbasbasbag49
(g65
g51
NtRp4149
(dp4150
g54
(dp4151
sg63
g4108
sg56
(lp4152
g49
(g70
g51
NtRp4153
(dp4154
g54
(dp4155
sg63
g4149
sg56
(lp4156
g49
(g50
g51
NtRp4157
(dp4158
g54
(dp4159
g62
I1
ssg63
g4153
sg56
(lp4160
(lp4161
(g3624
(S's\x06\x00\x00\x00Groups'
tRp4162
I00
S'http://www.web2py.com/examples/default/usergroups'
p4163
tp4164
a(g3624
(S's\x07\x00\x00\x00Twitter'
tRp4165
I00
S'http://twitter.com/web2py'
p4166
tp4167
a(g3624
(S's\t\x00\x00\x00Live Chat'
tRp4168
I00
S'http://webchat.freenode.net/?channels=web2py'
p4169
tp4170
aasbasbasbasbasbasbasbag49
(g65
g51
NtRp4171
(dp4172
g54
(dp4173
sg63
g3738
sg56
(lp4174
g49
(g70
g51
NtRp4175
(dp4176
g54
(dp4177
sg63
g4171
sg56
(lp4178
g49
(g50
g51
NtRp4179
(dp4180
g54
(dp4181
g62
I2
ssg63
g4175
sg56
(lp4182
g49
(g58
g51
NtRp4183
(dp4184
g54
(dp4185
g62
I1
ssg63
Nsg56
(lp4186
g49
(g65
g51
NtRp4187
(dp4188
g54
(dp4189
sg63
g4183
sg56
(lp4190
g49
(g70
g51
NtRp4191
(dp4192
g54
(dp4193
sg63
g4187
sg56
(lp4194
g49
(g50
g51
NtRp4195
(dp4196
g54
(dp4197
g62
I1
ssg63
g4191
sg56
(lp4198
g3624
(S's\x07\x00\x00\x00Plugins'
tRp4199
asbasbasbag49
(g65
g51
NtRp4200
(dp4201
g54
(dp4202
sg63
g4183
sg56
(lp4203
g49
(g70
g51
NtRp4204
(dp4205
g54
(dp4206
sg63
g4200
sg56
(lp4207
g49
(g50
g51
NtRp4208
(dp4209
g54
(dp4210
g62
I1
ssg63
g4204
sg56
(lp4211
I00
asbasbasbag49
(g65
g51
NtRp4212
(dp4213
g54
(dp4214
sg63
g4183
sg56
(lp4215
g49
(g70
g51
NtRp4216
(dp4217
g54
(dp4218
sg63
g4212
sg56
(lp4219
g49
(g50
g51
NtRp4220
(dp4221
g54
(dp4222
g62
I1
ssg63
g4216
sg56
(lp4223
Nasbasbasbag49
(g65
g51
NtRp4224
(dp4225
g54
(dp4226
sg63
g4183
sg56
(lp4227
g49
(g70
g51
NtRp4228
(dp4229
g54
(dp4230
sg63
g4224
sg56
(lp4231
g49
(g50
g51
NtRp4232
(dp4233
g54
(dp4234
g62
I1
ssg63
g4228
sg56
(lp4235
(lp4236
(S'plugin_wiki'
p4237
I00
S'http://web2py.com/examples/default/download'
p4238
tp4239
a(g3624
(S's\r\x00\x00\x00Other Plugins'
tRp4240
I00
g3970
tp4241
a(g3624
(S's\x0e\x00\x00\x00Layout Plugins'
tRp4242
I00
g3973
tp4243
aasbasbasbasbasbasbasbasbasbasbasbasbasbasbasbasbasbasbasbag49
(g65
g51
NtRp4244
(dp4245
g54
(dp4246
sg63
g3088
sg56
(lp4247
g49
(g70
g51
NtRp4248
(dp4249
g54
(dp4250
g74
g75
ssg63
g4244
sg56
(lp4251
S'meta'
p4252
asbag49
(g70
g51
NtRp4253
(dp4254
g54
(dp4255
g81
g82
ssg63
g4244
sg56
(lp4256
S':'
asbag49
(g70
g51
NtRp4257
(dp4258
g54
(dp4259
sg63
g4244
sg56
(lp4260
g49
(g50
g51
NtRp4261
(dp4262
g54
(dp4263
g62
I5
ssg63
g4257
sg56
(lp4264
g49
(g58
g51
NtRp4265
(dp4266
g54
(dp4267
g62
I4
ssg63
Nsg56
(lp4268
g49
(g65
g51
NtRp4269
(dp4270
g54
(dp4271
sg63
g4265
sg56
(lp4272
g49
(g70
g51
NtRp4273
(dp4274
g54
(dp4275
g74
g75
ssg63
g4269
sg56
(lp4276
S'author'
p4277
asbag49
(g70
g51
NtRp4278
(dp4279
g54
(dp4280
g81
g82
ssg63
g4269
sg56
(lp4281
S':'
asbag49
(g70
g51
NtRp4282
(dp4283
g54
(dp4284
sg63
g4269
sg56
(lp4285
g49
(g50
g51
NtRp4286
(dp4287
g54
(dp4288
g62
I4
ssg63
g4282
sg56
(lp4289
S'Your Name <you@example.com>'
p4290
asbasbasbag49
(g65
g51
NtRp4291
(dp4292
g54
(dp4293
sg63
g4265
sg56
(lp4294
g49
(g70
g51
NtRp4295
(dp4296
g54
(dp4297
g74
g75
ssg63
g4291
sg56
(lp4298
S'copyright'
p4299
asbag49
(g70
g51
NtRp4300
(dp4301
g54
(dp4302
g81
g82
ssg63
g4291
sg56
(lp4303
S':'
asbag49
(g70
g51
NtRp4304
(dp4305
g54
(dp4306
sg63
g4291
sg56
(lp4307
g49
(g50
g51
NtRp4308
(dp4309
g54
(dp4310
g62
I4
ssg63
g4304
sg56
(lp4311
S'Copyright 2011'
p4312
asbasbasbag49
(g65
g51
NtRp4313
(dp4314
g54
(dp4315
sg63
g4265
sg56
(lp4316
g49
(g70
g51
NtRp4317
(dp4318
g54
(dp4319
g74
g75
ssg63
g4313
sg56
(lp4320
S'description'
p4321
asbag49
(g70
g51
NtRp4322
(dp4323
g54
(dp4324
g81
g82
ssg63
g4313
sg56
(lp4325
S':'
asbag49
(g70
g51
NtRp4326
(dp4327
g54
(dp4328
sg63
g4313
sg56
(lp4329
g49
(g50
g51
NtRp4330
(dp4331
g54
(dp4332
g62
I4
ssg63
g4326
sg56
(lp4333
S'a cool new app'
p4334
asbasbasbag49
(g65
g51
NtRp4335
(dp4336
g54
(dp4337
sg63
g4265
sg56
(lp4338
g49
(g70
g51
NtRp4339
(dp4340
g54
(dp4341
g74
g75
ssg63
g4335
sg56
(lp4342
S'generator'
p4343
asbag49
(g70
g51
NtRp4344
(dp4345
g54
(dp4346
g81
g82
ssg63
g4335
sg56
(lp4347
S':'
asbag49
(g70
g51
NtRp4348
(dp4349
g54
(dp4350
sg63
g4335
sg56
(lp4351
g49
(g50
g51
NtRp4352
(dp4353
g54
(dp4354
g62
I4
ssg63
g4348
sg56
(lp4355
S'Web2py Web Framework'
p4356
asbasbasbag49
(g65
g51
NtRp4357
(dp4358
g54
(dp4359
sg63
g4265
sg56
(lp4360
g49
(g70
g51
NtRp4361
(dp4362
g54
(dp4363
g74
g75
ssg63
g4357
sg56
(lp4364
S'keywords'
p4365
asbag49
(g70
g51
NtRp4366
(dp4367
g54
(dp4368
g81
g82
ssg63
g4357
sg56
(lp4369
S':'
asbag49
(g70
g51
NtRp4370
(dp4371
g54
(dp4372
sg63
g4357
sg56
(lp4373
g49
(g50
g51
NtRp4374
(dp4375
g54
(dp4376
g62
I4
ssg63
g4370
sg56
(lp4377
S'web2py, python, framework'
p4378
asbasbasbasbasbasbasbag49
(g65
g51
NtRp4379
(dp4380
g54
(dp4381
sg63
g3088
sg56
(lp4382
g49
(g70
g51
NtRp4383
(dp4384
g54
(dp4385
g74
g75
ssg63
g4379
sg56
(lp4386
S'postprocessing'
p4387
asbag49
(g70
g51
NtRp4388
(dp4389
g54
(dp4390
g81
g82
ssg63
g4379
sg56
(lp4391
S':'
asbag49
(g70
g51
NtRp4392
(dp4393
g54
(dp4394
sg63
g4379
sg56
(lp4395
g49
(g50
g51
NtRp4396
(dp4397
g54
(dp4398
g62
I5
ssg63
g4392
sg56
(lp4399
g49
(g58
g51
NtRp4400
(dp4401
g54
(dp4402
g62
I4
ssg63
Nsg56
(lp4403
sbasbasbasbag49
(g65
g51
NtRp4404
(dp4405
g54
(dp4406
sg63
g3088
sg56
(lp4407
g49
(g70
g51
NtRp4408
(dp4409
g54
(dp4410
g74
g75
ssg63
g4404
sg56
(lp4411
S'session_file'
p4412
asbag49
(g70
g51
NtRp4413
(dp4414
g54
(dp4415
g81
g82
ssg63
g4404
sg56
(lp4416
S':'
asbag49
(g70
g51
NtRp4417
(dp4418
g54
(dp4419
sg63
g4404
sg56
(lp4420
g49
(g50
g51
NtRp4421
(dp4422
g54
(dp4423
g62
I5
ssg63
g4417
sg56
(lp4424
S"<open file '/Users/udimilo/Documents/web2py/applications/udi0312/sessions/127.0.0.1-fcd6a577-d448-4882-b7bc-f353da84ba3b', mode 'rb+' at 0xa0a74e8>"
p4425
asbasbasbag49
(g65
g51
NtRp4426
(dp4427
g54
(dp4428
sg63
g3088
sg56
(lp4429
g49
(g70
g51
NtRp4430
(dp4431
g54
(dp4432
g74
g75
ssg63
g4426
sg56
(lp4433
S'session_filename'
p4434
asbag49
(g70
g51
NtRp4435
(dp4436
g54
(dp4437
g81
g82
ssg63
g4426
sg56
(lp4438
S':'
asbag49
(g70
g51
NtRp4439
(dp4440
g54
(dp4441
sg63
g4426
sg56
(lp4442
g49
(g50
g51
NtRp4443
(dp4444
g54
(dp4445
g62
I5
ssg63
g4439
sg56
(lp4446
S'/Users/udimilo/Documents/web2py/applications/udi0312/sessions/127.0.0.1-fcd6a577-d448-4882-b7bc-f353da84ba3b'
p4447
asbasbasbag49
(g65
g51
NtRp4448
(dp4449
g54
(dp4450
sg63
g3088
sg56
(lp4451
g49
(g70
g51
NtRp4452
(dp4453
g54
(dp4454
g74
g75
ssg63
g4448
sg56
(lp4455
S'session_id'
p4456
asbag49
(g70
g51
NtRp4457
(dp4458
g54
(dp4459
g81
g82
ssg63
g4448
sg56
(lp4460
S':'
asbag49
(g70
g51
NtRp4461
(dp4462
g54
(dp4463
sg63
g4448
sg56
(lp4464
g49
(g50
g51
NtRp4465
(dp4466
g54
(dp4467
g62
I5
ssg63
g4461
sg56
(lp4468
S'127.0.0.1-fcd6a577-d448-4882-b7bc-f353da84ba3b'
p4469
asbasbasbag49
(g65
g51
NtRp4470
(dp4471
g54
(dp4472
sg63
g3088
sg56
(lp4473
g49
(g70
g51
NtRp4474
(dp4475
g54
(dp4476
g74
g75
ssg63
g4470
sg56
(lp4477
S'session_id_name'
p4478
asbag49
(g70
g51
NtRp4479
(dp4480
g54
(dp4481
g81
g82
ssg63
g4470
sg56
(lp4482
S':'
asbag49
(g70
g51
NtRp4483
(dp4484
g54
(dp4485
sg63
g4470
sg56
(lp4486
g49
(g50
g51
NtRp4487
(dp4488
g54
(dp4489
g62
I5
ssg63
g4483
sg56
(lp4490
g3145
asbasbasbag49
(g65
g51
NtRp4491
(dp4492
g54
(dp4493
sg63
g3088
sg56
(lp4494
g49
(g70
g51
NtRp4495
(dp4496
g54
(dp4497
g74
g75
ssg63
g4491
sg56
(lp4498
S'session_locked'
p4499
asbag49
(g70
g51
NtRp4500
(dp4501
g54
(dp4502
g81
g82
ssg63
g4491
sg56
(lp4503
S':'
asbag49
(g70
g51
NtRp4504
(dp4505
g54
(dp4506
sg63
g4491
sg56
(lp4507
g49
(g50
g51
NtRp4508
(dp4509
g54
(dp4510
g62
I5
ssg63
g4504
sg56
(lp4511
g1650
asbasbasbag49
(g65
g51
NtRp4512
(dp4513
g54
(dp4514
sg63
g3088
sg56
(lp4515
g49
(g70
g51
NtRp4516
(dp4517
g54
(dp4518
g74
g75
ssg63
g4512
sg56
(lp4519
S'session_new'
p4520
asbag49
(g70
g51
NtRp4521
(dp4522
g54
(dp4523
g81
g82
ssg63
g4512
sg56
(lp4524
S':'
asbag49
(g70
g51
NtRp4525
(dp4526
g54
(dp4527
sg63
g4512
sg56
(lp4528
g49
(g50
g51
NtRp4529
(dp4530
g54
(dp4531
g62
I5
ssg63
g4525
sg56
(lp4532
g92
asbasbasbag49
(g65
g51
NtRp4533
(dp4534
g54
(dp4535
sg63
g3088
sg56
(lp4536
g49
(g70
g51
NtRp4537
(dp4538
g54
(dp4539
g74
g75
ssg63
g4533
sg56
(lp4540
S'status'
p4541
asbag49
(g70
g51
NtRp4542
(dp4543
g54
(dp4544
g81
g82
ssg63
g4533
sg56
(lp4545
S':'
asbag49
(g70
g51
NtRp4546
(dp4547
g54
(dp4548
sg63
g4533
sg56
(lp4549
g49
(g50
g51
NtRp4550
(dp4551
g54
(dp4552
g62
I5
ssg63
g4546
sg56
(lp4553
S'200'
p4554
asbasbasbag49
(g65
g51
NtRp4555
(dp4556
g54
(dp4557
sg63
g3088
sg56
(lp4558
g49
(g70
g51
NtRp4559
(dp4560
g54
(dp4561
g74
g75
ssg63
g4555
sg56
(lp4562
S'subtitle'
p4563
asbag49
(g70
g51
NtRp4564
(dp4565
g54
(dp4566
g81
g82
ssg63
g4555
sg56
(lp4567
S':'
asbag49
(g70
g51
NtRp4568
(dp4569
g54
(dp4570
sg63
g4555
sg56
(lp4571
g49
(g50
g51
NtRp4572
(dp4573
g54
(dp4574
g62
I5
ssg63
g4568
sg56
(lp4575
g3624
(S's\r\x00\x00\x00customize me!'
tRp4576
asbasbasbag49
(g65
g51
NtRp4577
(dp4578
g54
(dp4579
sg63
g3088
sg56
(lp4580
g49
(g70
g51
NtRp4581
(dp4582
g54
(dp4583
g74
g75
ssg63
g4577
sg56
(lp4584
S'title'
p4585
asbag49
(g70
g51
NtRp4586
(dp4587
g54
(dp4588
g81
g82
ssg63
g4577
sg56
(lp4589
S':'
asbag49
(g70
g51
NtRp4590
(dp4591
g54
(dp4592
sg63
g4577
sg56
(lp4593
g49
(g50
g51
NtRp4594
(dp4595
g54
(dp4596
g62
I5
ssg63
g4590
sg56
(lp4597
S'Udi0312'
p4598
asbasbasbag49
(g65
g51
NtRp4599
(dp4600
g54
(dp4601
sg63
g3088
sg56
(lp4602
g49
(g70
g51
NtRp4603
(dp4604
g54
(dp4605
g74
g75
ssg63
g4599
sg56
(lp4606
g2314
asbag49
(g70
g51
NtRp4607
(dp4608
g54
(dp4609
g81
g82
ssg63
g4599
sg56
(lp4610
S':'
asbag49
(g70
g51
NtRp4611
(dp4612
g54
(dp4613
sg63
g4599
sg56
(lp4614
g49
(g50
g51
NtRp4615
(dp4616
g54
(dp4617
g62
I5
ssg63
g4611
sg56
(lp4618
g2327
asbasbasbag49
(g65
g51
NtRp4619
(dp4620
g54
(dp4621
sg63
g3088
sg56
(lp4622
g49
(g70
g51
NtRp4623
(dp4624
g54
(dp4625
g74
g75
ssg63
g4619
sg56
(lp4626
S'view'
p4627
asbag49
(g70
g51
NtRp4628
(dp4629
g54
(dp4630
g81
g82
ssg63
g4619
sg56
(lp4631
S':'
asbag49
(g70
g51
NtRp4632
(dp4633
g54
(dp4634
sg63
g4619
sg56
(lp4635
g49
(g50
g51
NtRp4636
(dp4637
g54
(dp4638
g62
I5
ssg63
g4632
sg56
(lp4639
S'default/index.html'
p4640
asbasbasbasbasbsS'locals'
p4641
(dp4642
S'Service'
p4643
S"<class 'gluon.tools.Service'>"
p4644
sS'OBJECT'
p4645
S"<class 'gluon.html.OBJECT'>"
p4646
sS'SQLDB'
p4647
S"<class 'gluon.dal.DAL'>"
p4648
sg3070
S"<Storage {'_Session__hash': '\\x94\\x18v\\xdc\\x7f\\x...: {'version': '17.0.963.65', 'name': 'Chrome'}}}>"
p4649
sS'LINK'
p4650
S"<class 'gluon.html.LINK'>"
p4651
sS'BR'
p4652
S"<class 'gluon.html.BR'>"
p4653
sS'local_import'
p4654
S'<function <lambda> at 0xa0aac30>'
p4655
sS'OPTGROUP'
p4656
S"<class 'gluon.html.OPTGROUP'>"
p4657
sS'PRE'
p4658
S"<class 'gluon.html.PRE'>"
p4659
sS'IS_INT_IN_RANGE'
p4660
S"<class 'gluon.validators.IS_INT_IN_RANGE'>"
p4661
sS'IS_LOWER'
p4662
S"<class 'gluon.validators.IS_LOWER'>"
p4663
sS'IS_STRONG'
p4664
S"<class 'gluon.validators.IS_STRONG'>"
p4665
sS'cache'
p4666
S'<gluon.cache.Cache object at 0xa223fb0>'
p4667
sS'IS_IN_DB'
p4668
S"<class 'gluon.validators.IS_IN_DB'>"
p4669
sS'TAG'
p4670
S'<gluon.html.__TAG__ object at 0x1230850>'
p4671
sS'SQLField'
p4672
S"<class 'gluon.dal.Field'>"
p4673
sS'mail'
p4674
S'<gluon.tools.Mail object at 0xa225890>'
p4675
sS'BODY'
p4676
S"<class 'gluon.html.BODY'>"
p4677
sS'IS_DATE_IN_RANGE'
p4678
S"<class 'gluon.validators.IS_DATE_IN_RANGE'>"
p4679
sS'TH'
p4680
S"<class 'gluon.html.TH'>"
p4681
sS'URL'
p4682
S'<function URL at 0x1241bf0>'
p4683
sS'__file__'
p4684
S"'/Users/udimilo/Documents/web2py/applications/udi0312/views/default/index.html'"
p4685
sS'db'
p4686
S"<DAL {'auth_event': <Table {'origin': <gluon.dal...n_key': <gluon.dal.Field object at 0xa083f70>}>}>"
p4687
sS'auth'
p4688
S'<gluon.tools.Auth object at 0xa225a90>'
p4689
sS'P'
S"<class 'gluon.html.P'>"
p4690
sS'TFOOT'
p4691
S"<class 'gluon.html.TFOOT'>"
p4692
sS'XHTML'
p4693
S"<class 'gluon.html.XHTML'>"
p4694
sS'ON'
p4695
g1650
sS'OL'
p4696
S"<class 'gluon.html.OL'>"
p4697
sS'TEXTAREA'
p4698
S"<class 'gluon.html.TEXTAREA'>"
p4699
sS'MENU'
p4700
S"<class 'gluon.html.MENU'>"
p4701
sS'item'
p4702
S"{'height': '289', 'hours': '3', 'iconURL': '', 'imgSrc': '', 'source': '', 'title': ''}"
p4703
sS'LOAD'
p4704
S'<function LOAD at 0x21ecfb0>'
p4705
sS'CODE'
p4706
S"<class 'gluon.html.CODE'>"
p4707
sS'HTTP'
p4708
S"<class 'gluon.http.HTTP'>"
p4709
sS'HR'
p4710
S"<class 'gluon.html.HR'>"
p4711
sS'IS_DATETIME'
p4712
S"<class 'gluon.validators.IS_DATETIME'>"
p4713
sS'HEAD'
p4714
S"<class 'gluon.html.HEAD'>"
p4715
sS'LABEL'
p4716
S"<class 'gluon.html.LABEL'>"
p4717
sS'CLEANUP'
p4718
S"<class 'gluon.validators.CLEANUP'>"
p4719
sS'plugins'
p4720
S'<gluon.tools.PluginManager object at 0x8db7ff0>'
p4721
sS'SELECT'
p4722
S"<class 'gluon.html.SELECT'>"
p4723
sS'use_janrain'
p4724
S'<function use_janrain at 0x9d358f0>'
p4725
sS'CENTER'
p4726
S"<class 'gluon.html.CENTER'>"
p4727
sS'prettydate'
p4728
S'<function prettydate at 0x9d31f30>'
p4729
sS'Crud'
p4730
S"<class 'gluon.tools.Crud'>"
p4731
sS'Auth'
p4732
S"<class 'gluon.tools.Auth'>"
p4733
sS'__builtins__'
p4734
S"{'ArithmeticError': <type 'exceptions.ArithmeticError'>, 'AssertionError': <type 'exceptions.AssertionError'>, 'AttributeError': <type 'exceptions.AttributeError'>, 'BaseException': <type 'exceptions.BaseException'>, 'DeprecationWarning': <type 'exceptions.DeprecationWarning'>, 'EOFError': <type 'exceptions.EOFError'>, 'Ellipsis': Ellipsis, 'EnvironmentError': <type 'exceptions.EnvironmentError'>, 'Exception': <type 'exceptions.Exception'>, 'False': False, ...}"
p4735
sS'HTML'
p4736
S"<class 'gluon.html.HTML'>"
p4737
sS'SQLFORM'
p4738
S"<class 'gluon.sqlhtml.SQLFORM'>"
p4739
sS'EM'
p4740
S"<class 'gluon.html.EM'>"
p4741
sS'redirect'
p4742
S'<function redirect at 0x654330>'
p4743
sS'FIELDSET'
p4744
S"<class 'gluon.html.FIELDSET'>"
p4745
sS'IS_EQUAL_TO'
p4746
S"<class 'gluon.validators.IS_EQUAL_TO'>"
p4747
sS'embed64'
p4748
S'<function embed64 at 0x1244730>'
p4749
sS'IS_LIST_OF'
p4750
S"<class 'gluon.validators.IS_LIST_OF'>"
p4751
sS'__name__'
p4752
S"'__restricted__'"
p4753
sS'EMBED'
p4754
S"<class 'gluon.html.EMBED'>"
p4755
sS'_'
S'<function _ at 0x8e5b770>'
p4756
sS'FORM'
p4757
S"<class 'gluon.html.FORM'>"
p4758
sS'H2'
p4759
S"<class 'gluon.html.H2'>"
p4760
sS'items'
p4761
S"({'height': '289', 'hours': '3', 'iconURL': '', 'imgSrc': '', 'source': '', 'title': ''}, {'height': '289', 'hours': '3', 'iconURL': '', 'imgSrc': '', 'source': '', 'title': ''}, {'height': '289', 'hours': '3', 'iconURL': '', 'imgSrc': '', 'source': '', 'title': ''}, {'height': '289', 'hours': '3', 'iconURL': '', 'imgSrc': '', 'source': '', 'title': ''}, {'height': '289', 'hours': '3', 'iconURL': '', 'imgSrc': '', 'source': '', 'title': ''})"
p4762
sS'BUTTON'
p4763
S"<class 'gluon.html.BUTTON'>"
p4764
sS'H1'
p4765
S"<class 'gluon.html.H1'>"
p4766
sS'H6'
p4767
S"<class 'gluon.html.H6'>"
p4768
sS'H4'
p4769
S"<class 'gluon.html.H4'>"
p4770
sS'H5'
p4771
S"<class 'gluon.html.H5'>"
p4772
sS'UL'
p4773
S"<class 'gluon.html.UL'>"
p4774
sS'IS_UPPER'
p4775
S"<class 'gluon.validators.IS_UPPER'>"
p4776
sS'xmlescape'
p4777
S'<function xmlescape at 0x1241b70>'
p4778
sS'IS_TIME'
p4779
S"<class 'gluon.validators.IS_TIME'>"
p4780
sS'OPTION'
p4781
S"<class 'gluon.html.OPTION'>"
p4782
sS'TITLE'
p4783
S"<class 'gluon.html.TITLE'>"
p4784
sS'CRYPT'
p4785
S"<class 'gluon.validators.CRYPT'>"
p4786
sS'IS_EMPTY_OR'
p4787
S"<class 'gluon.validators.IS_EMPTY_OR'>"
p4788
sS'MARKMIN'
p4789
S"<class 'gluon.html.MARKMIN'>"
p4790
sS'INPUT'
p4791
S"<class 'gluon.html.INPUT'>"
p4792
sS'COL'
p4793
S"<class 'gluon.html.COL'>"
p4794
sS'service'
p4795
S'<gluon.tools.Service object at 0xa225cf0>'
p4796
sS'SCRIPT'
p4797
S"<class 'gluon.html.SCRIPT'>"
p4798
sS'TABLE'
p4799
S"<class 'gluon.html.TABLE'>"
p4800
sS'IS_IPV4'
p4801
S"<class 'gluon.validators.IS_IPV4'>"
p4802
sS'IS_LENGTH'
p4803
S"<class 'gluon.validators.IS_LENGTH'>"
p4804
sS'XML'
p4805
S"<class 'gluon.html.XML'>"
p4806
sS'B'
S"<class 'gluon.html.B'>"
p4807
sS'IMG'
p4808
S"<class 'gluon.html.IMG'>"
p4809
sS'SQLTABLE'
p4810
S"<class 'gluon.sqlhtml.SQLTABLE'>"
p4811
sS'IS_MATCH'
p4812
S"<class 'gluon.validators.IS_MATCH'>"
p4813
sS'IS_ALPHANUMERIC'
p4814
S"<class 'gluon.validators.IS_ALPHANUMERIC'>"
p4815
sS'SPAN'
p4816
S"<class 'gluon.html.SPAN'>"
p4817
sS'IS_SLUG'
p4818
S"<class 'gluon.validators.IS_SLUG'>"
p4819
sS'BEAUTIFY'
p4820
S"<class 'gluon.html.BEAUTIFY'>"
p4821
sS'META'
p4822
S"<class 'gluon.html.META'>"
p4823
sS'H3'
p4824
S"<class 'gluon.html.H3'>"
p4825
sS'IS_DATE'
p4826
S"<class 'gluon.validators.IS_DATE'>"
p4827
sS'IS_EMAIL'
p4828
S"<class 'gluon.validators.IS_EMAIL'>"
p4829
sS'IS_NOT_EMPTY'
p4830
S"<class 'gluon.validators.IS_NOT_EMPTY'>"
p4831
sS'IS_FLOAT_IN_RANGE'
p4832
S"<class 'gluon.validators.IS_FLOAT_IN_RANGE'>"
p4833
sS'TBODY'
p4834
S"<class 'gluon.html.TBODY'>"
p4835
sS'CAT'
p4836
S"<class 'gluon.html.CAT'>"
p4837
sS'Field'
p4838
S"<class 'gluon.dal.Field'>"
p4839
sS'DIV'
p4840
S"<class 'gluon.html.DIV'>"
p4841
sS'LEGEND'
p4842
S"<class 'gluon.html.LEGEND'>"
p4843
sS'COLGROUP'
p4844
S"<class 'gluon.html.COLGROUP'>"
p4845
sS'DAL'
p4846
S"<class 'gluon.dal.DAL'>"
p4847
sS'TT'
p4848
S"<class 'gluon.html.TT'>"
p4849
sS'TR'
p4850
S"<class 'gluon.html.TR'>"
p4851
sS'LI'
p4852
S"<class 'gluon.html.LI'>"
p4853
sS'IFRAME'
p4854
S"<class 'gluon.html.IFRAME'>"
p4855
sS'TD'
p4856
S"<class 'gluon.html.TD'>"
p4857
sS'PluginManager'
p4858
S"<class 'gluon.tools.PluginManager'>"
p4859
sS'IS_URL'
p4860
S"<class 'gluon.validators.IS_URL'>"
p4861
sS'A'
S"<class 'gluon.html.A'>"
p4862
sS'STYLE'
p4863
S"<class 'gluon.html.STYLE'>"
p4864
sS'IS_DATETIME_IN_RANGE'
p4865
S"<class 'gluon.validators.IS_DATETIME_IN_RANGE'>"
p4866
sS'IS_IMAGE'
p4867
S"<class 'gluon.validators.IS_IMAGE'>"
p4868
sS'I'
S"<class 'gluon.html.I'>"
p4869
sS'crud'
p4870
S'<gluon.tools.Crud object at 0xa225bb0>'
p4871
sS'IS_NOT_IN_DB'
p4872
S"<class 'gluon.validators.IS_NOT_IN_DB'>"
p4873
sg3083
S"<Storage {'body': <cStringIO.StringO object at 0...da> at 0xa0aab70>, 'view': 'default/index.html'}>"
p4874
sS'THEAD'
p4875
S"<class 'gluon.html.THEAD'>"
p4876
sS'IS_NULL_OR'
p4877
S"<class 'gluon.validators.IS_EMPTY_OR'>"
p4878
sg48
S"<Storage {'body': <cStringIO.StringO object at 0..._vars': <Storage {}>, 'post_vars': <Storage {}>}>"
p4879
sS'IS_EXPR'
p4880
S"<class 'gluon.validators.IS_EXPR'>"
p4881
sS'T'
S'<gluon.languages.translator object at 0xa223ff0>'
p4882
sS'IS_IN_SET'
p4883
S"<class 'gluon.validators.IS_IN_SET'>"
p4884
sS'IS_UPLOAD_FILENAME'
p4885
S"<class 'gluon.validators.IS_UPLOAD_FILENAME'>"
p4886
sS'IS_DECIMAL_IN_RANGE'
p4887
S"<class 'gluon.validators.IS_DECIMAL_IN_RANGE'>"
p4888
sssS'traceback'
p4889
S'Traceback (most recent call last):\n  File "/users/udimilo/Documents/web2py/gluon/restricted.py", line 205, in restricted\n    exec ccode in environment\n  File "/Users/udimilo/Documents/web2py/applications/udi0312/views/default/index.html", line 16, in <module>\n    <div class="itemWrapper">\nKeyError: \'img\'\n'
p4890
s.