(dp1
S'output'
p2
S"<type 'exceptions.NameError'> global name 'content' is not defined"
p3
sS'layer'
p4
S'/Users/udimilo/Documents/web2py/applications/udi0312/controllers/default.py'
p5
sS'code'
p6
S'# -*- coding: utf-8 -*-\n# this file is released under public domain and you can use without limitations\n\n#########################################################################\n## This is a samples controller\n## - index is the default action of any application\n## - user is required for authentication and authorization\n## - download is for downloading files uploaded in the db (does streaming)\n## - call exposes all registered services (none by default)\n#########################################################################\nfrom readability import Readability\n\ndef index():\n    pages = db().select(db.page.ALL)\n    categories = db().select(db.category.ALL, orderby=db.category.name)\n    boards = db(db.board.user_id==auth.user.id).select() if auth.user else []\n    return dict(items=pages, categories=categories, boards=boards)\n\ndef addPage():\n    board = db(db.board.name==request.vars.board).select().first()\n    page = db.page.insert(user_id=auth.user.id, url=request.vars.url, height=300)\n    pin = db.pin.insert(board_id=board.id, page_id=page.id)\n    return pin.id\n\ndef addBoard():\n    category = db(db.category.name==request.vars.category).select().first()\n    board = db.board.insert(user_id=auth.user.id, category_id=category.id, name=request.vars.boardName)\n    return board.id\n\ndef test():\n    read = Readability()\n    json = read.content(\'http://techcrunch.com/2012/03/08/savingstar-series-c/\')\n    return content.text\n    return json[\'content\']\n\ndef user():\n    """\n    exposes:\n    http://..../[app]/default/user/login\n    http://..../[app]/default/user/logout\n    http://..../[app]/default/user/register\n    http://..../[app]/default/user/profile\n    http://..../[app]/default/user/retrieve_password\n    http://..../[app]/default/user/change_password\n    use @auth.requires_login()\n        @auth.requires_membership(\'group name\')\n        @auth.requires_permission(\'read\',\'table name\',record_id)\n    to decorate functions that need access control\n    """\n    return dict(form=auth())\n\n\ndef download():\n    """\n    allows downloading of uploaded files\n    http://..../[app]/default/download/[filename]\n    """\n    return response.download(request,db)\n\n\ndef call():\n    """\n    exposes services. for example:\n    http://..../[app]/default/call/jsonrpc\n    decorate with @services.jsonrpc the functions to expose\n    supports xml, json, xmlrpc, jsonrpc, amfrpc, rss, csv\n    """\n    return service()\n\n\n@auth.requires_signature()\ndef data():\n    """\n    http://..../[app]/default/data/tables\n    http://..../[app]/default/data/create/[table]\n    http://..../[app]/default/data/read/[table]/[id]\n    http://..../[app]/default/data/update/[table]/[id]\n    http://..../[app]/default/data/delete/[table]/[id]\n    http://..../[app]/default/data/select/[table]\n    http://..../[app]/default/data/search/[table]\n    but URLs must be signed, i.e. linked with\n      A(\'table\',_href=URL(\'data/tables\',user_signature=True))\n    or with the signed load operator\n      LOAD(\'default\',\'data.load\',args=\'tables\',ajax=True,user_signature=True)\n    """\n    return dict(form=crud())\n\nresponse._vars=response._caller(test)\n'
p7
sS'snapshot'
p8
(dp9
S'exception'
p10
(dp11
S'__hash__'
p12
S"<method-wrapper '__hash__' of exceptions.NameError object at 0x8d279b8>"
p13
sS'__setattr__'
p14
S"<method-wrapper '__setattr__' of exceptions.NameError object at 0x8d279b8>"
p15
sS'__reduce_ex__'
p16
S'<built-in method __reduce_ex__ of exceptions.NameError object at 0x8d279b8>'
p17
sS'__getslice__'
p18
S"<method-wrapper '__getslice__' of exceptions.NameError object at 0x8d279b8>"
p19
sS'__getitem__'
p20
S"<method-wrapper '__getitem__' of exceptions.NameError object at 0x8d279b8>"
p21
sS'__setstate__'
p22
S'<built-in method __setstate__ of exceptions.NameError object at 0x8d279b8>'
p23
sS'__reduce__'
p24
S'<built-in method __reduce__ of exceptions.NameError object at 0x8d279b8>'
p25
sS'__str__'
p26
S"<method-wrapper '__str__' of exceptions.NameError object at 0x8d279b8>"
p27
sS'args'
p28
S'("global name \'content\' is not defined",)'
p29
sS'__getattribute__'
p30
S"<method-wrapper '__getattribute__' of exceptions.NameError object at 0x8d279b8>"
p31
sS'__class__'
p32
S"<type 'exceptions.NameError'>"
p33
sS'__delattr__'
p34
S"<method-wrapper '__delattr__' of exceptions.NameError object at 0x8d279b8>"
p35
sS'__repr__'
p36
S"<method-wrapper '__repr__' of exceptions.NameError object at 0x8d279b8>"
p37
sS'__dict__'
p38
S'{}'
p39
sS'__doc__'
p40
S"'Name not found globally.'"
p41
sS'__init__'
p42
S"<method-wrapper '__init__' of exceptions.NameError object at 0x8d279b8>"
p43
sS'__new__'
p44
S'<built-in method __new__ of type object at 0x100640>'
p45
ssS'evalue'
p46
S"global name 'content' is not defined"
p47
sS'request'
p48
ccopy_reg
_reconstructor
p49
(cgluon.html
BEAUTIFY
p50
c__builtin__
object
p51
NtRp52
(dp53
S'attributes'
p54
(dp55
sS'components'
p56
(lp57
g49
(cgluon.html
TABLE
p58
g51
NtRp59
(dp60
g54
(dp61
S'level'
p62
I5
ssS'parent'
p63
Nsg56
(lp64
g49
(cgluon.html
TR
p65
g51
NtRp66
(dp67
g54
(dp68
sg63
g59
sg56
(lp69
g49
(cgluon.html
TD
p70
g51
NtRp71
(dp72
g54
(dp73
S'_style'
p74
S'font-weight:bold;vertical-align:top'
p75
ssg63
g66
sg56
(lp76
S'ajax'
p77
asbag49
(g70
g51
NtRp78
(dp79
g54
(dp80
S'_valign'
p81
S'top'
p82
ssg63
g66
sg56
(lp83
S':'
asbag49
(g70
g51
NtRp84
(dp85
g54
(dp86
sg63
g66
sg56
(lp87
g49
(g50
g51
NtRp88
(dp89
g54
(dp90
g62
I5
ssg63
g84
sg56
(lp91
S'False'
p92
asbasbasbag49
(g65
g51
NtRp93
(dp94
g54
(dp95
sg63
g59
sg56
(lp96
g49
(g70
g51
NtRp97
(dp98
g54
(dp99
g74
g75
ssg63
g93
sg56
(lp100
S'application'
p101
asbag49
(g70
g51
NtRp102
(dp103
g54
(dp104
g81
g82
ssg63
g93
sg56
(lp105
S':'
asbag49
(g70
g51
NtRp106
(dp107
g54
(dp108
sg63
g93
sg56
(lp109
g49
(g50
g51
NtRp110
(dp111
g54
(dp112
g62
I5
ssg63
g106
sg56
(lp113
S'udi0312'
p114
asbasbasbag49
(g65
g51
NtRp115
(dp116
g54
(dp117
sg63
g59
sg56
(lp118
g49
(g70
g51
NtRp119
(dp120
g54
(dp121
g74
g75
ssg63
g115
sg56
(lp122
g28
asbag49
(g70
g51
NtRp123
(dp124
g54
(dp125
g81
g82
ssg63
g115
sg56
(lp126
S':'
asbag49
(g70
g51
NtRp127
(dp128
g54
(dp129
sg63
g115
sg56
(lp130
g49
(g50
g51
NtRp131
(dp132
g54
(dp133
g62
I5
ssg63
g127
sg56
(lp134
g49
(g58
g51
NtRp135
(dp136
g54
(dp137
g62
I4
ssg63
Nsg56
(lp138
sbasbasbasbag49
(g65
g51
NtRp139
(dp140
g54
(dp141
sg63
g59
sg56
(lp142
g49
(g70
g51
NtRp143
(dp144
g54
(dp145
g74
g75
ssg63
g139
sg56
(lp146
S'body'
p147
asbag49
(g70
g51
NtRp148
(dp149
g54
(dp150
g81
g82
ssg63
g139
sg56
(lp151
S':'
asbag49
(g70
g51
NtRp152
(dp153
g54
(dp154
sg63
g139
sg56
(lp155
g49
(g50
g51
NtRp156
(dp157
g54
(dp158
g62
I5
ssg63
g152
sg56
(lp159
S'<cStringIO.StringO object at 0x8ce9e60>'
p160
asbasbasbag49
(g65
g51
NtRp161
(dp162
g54
(dp163
sg63
g59
sg56
(lp164
g49
(g70
g51
NtRp165
(dp166
g54
(dp167
g74
g75
ssg63
g161
sg56
(lp168
S'client'
p169
asbag49
(g70
g51
NtRp170
(dp171
g54
(dp172
g81
g82
ssg63
g161
sg56
(lp173
S':'
asbag49
(g70
g51
NtRp174
(dp175
g54
(dp176
sg63
g161
sg56
(lp177
g49
(g50
g51
NtRp178
(dp179
g54
(dp180
g62
I5
ssg63
g174
sg56
(lp181
S'127.0.0.1'
p182
asbasbasbag49
(g65
g51
NtRp183
(dp184
g54
(dp185
sg63
g59
sg56
(lp186
g49
(g70
g51
NtRp187
(dp188
g54
(dp189
g74
g75
ssg63
g183
sg56
(lp190
S'controller'
p191
asbag49
(g70
g51
NtRp192
(dp193
g54
(dp194
g81
g82
ssg63
g183
sg56
(lp195
S':'
asbag49
(g70
g51
NtRp196
(dp197
g54
(dp198
sg63
g183
sg56
(lp199
g49
(g50
g51
NtRp200
(dp201
g54
(dp202
g62
I5
ssg63
g196
sg56
(lp203
S'default'
p204
asbasbasbag49
(g65
g51
NtRp205
(dp206
g54
(dp207
sg63
g59
sg56
(lp208
g49
(g70
g51
NtRp209
(dp210
g54
(dp211
g74
g75
ssg63
g205
sg56
(lp212
S'cookies'
p213
asbag49
(g70
g51
NtRp214
(dp215
g54
(dp216
g81
g82
ssg63
g205
sg56
(lp217
S':'
asbag49
(g70
g51
NtRp218
(dp219
g54
(dp220
sg63
g205
sg56
(lp221
g49
(g50
g51
NtRp222
(dp223
g54
(dp224
g62
I5
ssg63
g218
sg56
(lp225
g49
(g58
g51
NtRp226
(dp227
g54
(dp228
g62
I4
ssg63
Nsg56
(lp229
g49
(g65
g51
NtRp230
(dp231
g54
(dp232
sg63
g226
sg56
(lp233
g49
(g70
g51
NtRp234
(dp235
g54
(dp236
g74
g75
ssg63
g230
sg56
(lp237
S'session_id_admin'
p238
asbag49
(g70
g51
NtRp239
(dp240
g54
(dp241
g81
g82
ssg63
g230
sg56
(lp242
S':'
asbag49
(g70
g51
NtRp243
(dp244
g54
(dp245
sg63
g230
sg56
(lp246
g49
(g50
g51
NtRp247
(dp248
g54
(dp249
g62
I4
ssg63
g243
sg56
(lp250
g49
(g58
g51
NtRp251
(dp252
g54
(dp253
g62
I3
ssg63
Nsg56
(lp254
g49
(g65
g51
NtRp255
(dp256
g54
(dp257
sg63
g251
sg56
(lp258
g49
(g70
g51
NtRp259
(dp260
g54
(dp261
g74
g75
ssg63
g255
sg56
(lp262
S'comment'
p263
asbag49
(g70
g51
NtRp264
(dp265
g54
(dp266
g81
g82
ssg63
g255
sg56
(lp267
S':'
asbag49
(g70
g51
NtRp268
(dp269
g54
(dp270
sg63
g255
sg56
(lp271
g49
(g50
g51
NtRp272
(dp273
g54
(dp274
g62
I3
ssg63
g268
sg56
(lp275
S''
asbasbasbag49
(g65
g51
NtRp276
(dp277
g54
(dp278
sg63
g251
sg56
(lp279
g49
(g70
g51
NtRp280
(dp281
g54
(dp282
g74
g75
ssg63
g276
sg56
(lp283
S'domain'
p284
asbag49
(g70
g51
NtRp285
(dp286
g54
(dp287
g81
g82
ssg63
g276
sg56
(lp288
S':'
asbag49
(g70
g51
NtRp289
(dp290
g54
(dp291
sg63
g276
sg56
(lp292
g49
(g50
g51
NtRp293
(dp294
g54
(dp295
g62
I3
ssg63
g289
sg56
(lp296
S''
asbasbasbag49
(g65
g51
NtRp297
(dp298
g54
(dp299
sg63
g251
sg56
(lp300
g49
(g70
g51
NtRp301
(dp302
g54
(dp303
g74
g75
ssg63
g297
sg56
(lp304
S'expires'
p305
asbag49
(g70
g51
NtRp306
(dp307
g54
(dp308
g81
g82
ssg63
g297
sg56
(lp309
S':'
asbag49
(g70
g51
NtRp310
(dp311
g54
(dp312
sg63
g297
sg56
(lp313
g49
(g50
g51
NtRp314
(dp315
g54
(dp316
g62
I3
ssg63
g310
sg56
(lp317
S''
asbasbasbag49
(g65
g51
NtRp318
(dp319
g54
(dp320
sg63
g251
sg56
(lp321
g49
(g70
g51
NtRp322
(dp323
g54
(dp324
g74
g75
ssg63
g318
sg56
(lp325
S'max-age'
p326
asbag49
(g70
g51
NtRp327
(dp328
g54
(dp329
g81
g82
ssg63
g318
sg56
(lp330
S':'
asbag49
(g70
g51
NtRp331
(dp332
g54
(dp333
sg63
g318
sg56
(lp334
g49
(g50
g51
NtRp335
(dp336
g54
(dp337
g62
I3
ssg63
g331
sg56
(lp338
S''
asbasbasbag49
(g65
g51
NtRp339
(dp340
g54
(dp341
sg63
g251
sg56
(lp342
g49
(g70
g51
NtRp343
(dp344
g54
(dp345
g74
g75
ssg63
g339
sg56
(lp346
S'path'
p347
asbag49
(g70
g51
NtRp348
(dp349
g54
(dp350
g81
g82
ssg63
g339
sg56
(lp351
S':'
asbag49
(g70
g51
NtRp352
(dp353
g54
(dp354
sg63
g339
sg56
(lp355
g49
(g50
g51
NtRp356
(dp357
g54
(dp358
g62
I3
ssg63
g352
sg56
(lp359
S''
asbasbasbag49
(g65
g51
NtRp360
(dp361
g54
(dp362
sg63
g251
sg56
(lp363
g49
(g70
g51
NtRp364
(dp365
g54
(dp366
g74
g75
ssg63
g360
sg56
(lp367
S'secure'
p368
asbag49
(g70
g51
NtRp369
(dp370
g54
(dp371
g81
g82
ssg63
g360
sg56
(lp372
S':'
asbag49
(g70
g51
NtRp373
(dp374
g54
(dp375
sg63
g360
sg56
(lp376
g49
(g50
g51
NtRp377
(dp378
g54
(dp379
g62
I3
ssg63
g373
sg56
(lp380
S''
asbasbasbag49
(g65
g51
NtRp381
(dp382
g54
(dp383
sg63
g251
sg56
(lp384
g49
(g70
g51
NtRp385
(dp386
g54
(dp387
g74
g75
ssg63
g381
sg56
(lp388
S'version'
p389
asbag49
(g70
g51
NtRp390
(dp391
g54
(dp392
g81
g82
ssg63
g381
sg56
(lp393
S':'
asbag49
(g70
g51
NtRp394
(dp395
g54
(dp396
sg63
g381
sg56
(lp397
g49
(g50
g51
NtRp398
(dp399
g54
(dp400
g62
I3
ssg63
g394
sg56
(lp401
S''
asbasbasbasbasbasbasbag49
(g65
g51
NtRp402
(dp403
g54
(dp404
sg63
g226
sg56
(lp405
g49
(g70
g51
NtRp406
(dp407
g54
(dp408
g74
g75
ssg63
g402
sg56
(lp409
S'session_id_udi0312'
p410
asbag49
(g70
g51
NtRp411
(dp412
g54
(dp413
g81
g82
ssg63
g402
sg56
(lp414
S':'
asbag49
(g70
g51
NtRp415
(dp416
g54
(dp417
sg63
g402
sg56
(lp418
g49
(g50
g51
NtRp419
(dp420
g54
(dp421
g62
I4
ssg63
g415
sg56
(lp422
g49
(g58
g51
NtRp423
(dp424
g54
(dp425
g62
I3
ssg63
Nsg56
(lp426
g49
(g65
g51
NtRp427
(dp428
g54
(dp429
sg63
g423
sg56
(lp430
g49
(g70
g51
NtRp431
(dp432
g54
(dp433
g74
g75
ssg63
g427
sg56
(lp434
g263
asbag49
(g70
g51
NtRp435
(dp436
g54
(dp437
g81
g82
ssg63
g427
sg56
(lp438
S':'
asbag49
(g70
g51
NtRp439
(dp440
g54
(dp441
sg63
g427
sg56
(lp442
g49
(g50
g51
NtRp443
(dp444
g54
(dp445
g62
I3
ssg63
g439
sg56
(lp446
S''
asbasbasbag49
(g65
g51
NtRp447
(dp448
g54
(dp449
sg63
g423
sg56
(lp450
g49
(g70
g51
NtRp451
(dp452
g54
(dp453
g74
g75
ssg63
g447
sg56
(lp454
g284
asbag49
(g70
g51
NtRp455
(dp456
g54
(dp457
g81
g82
ssg63
g447
sg56
(lp458
S':'
asbag49
(g70
g51
NtRp459
(dp460
g54
(dp461
sg63
g447
sg56
(lp462
g49
(g50
g51
NtRp463
(dp464
g54
(dp465
g62
I3
ssg63
g459
sg56
(lp466
S''
asbasbasbag49
(g65
g51
NtRp467
(dp468
g54
(dp469
sg63
g423
sg56
(lp470
g49
(g70
g51
NtRp471
(dp472
g54
(dp473
g74
g75
ssg63
g467
sg56
(lp474
g305
asbag49
(g70
g51
NtRp475
(dp476
g54
(dp477
g81
g82
ssg63
g467
sg56
(lp478
S':'
asbag49
(g70
g51
NtRp479
(dp480
g54
(dp481
sg63
g467
sg56
(lp482
g49
(g50
g51
NtRp483
(dp484
g54
(dp485
g62
I3
ssg63
g479
sg56
(lp486
S''
asbasbasbag49
(g65
g51
NtRp487
(dp488
g54
(dp489
sg63
g423
sg56
(lp490
g49
(g70
g51
NtRp491
(dp492
g54
(dp493
g74
g75
ssg63
g487
sg56
(lp494
g326
asbag49
(g70
g51
NtRp495
(dp496
g54
(dp497
g81
g82
ssg63
g487
sg56
(lp498
S':'
asbag49
(g70
g51
NtRp499
(dp500
g54
(dp501
sg63
g487
sg56
(lp502
g49
(g50
g51
NtRp503
(dp504
g54
(dp505
g62
I3
ssg63
g499
sg56
(lp506
S''
asbasbasbag49
(g65
g51
NtRp507
(dp508
g54
(dp509
sg63
g423
sg56
(lp510
g49
(g70
g51
NtRp511
(dp512
g54
(dp513
g74
g75
ssg63
g507
sg56
(lp514
g347
asbag49
(g70
g51
NtRp515
(dp516
g54
(dp517
g81
g82
ssg63
g507
sg56
(lp518
S':'
asbag49
(g70
g51
NtRp519
(dp520
g54
(dp521
sg63
g507
sg56
(lp522
g49
(g50
g51
NtRp523
(dp524
g54
(dp525
g62
I3
ssg63
g519
sg56
(lp526
S''
asbasbasbag49
(g65
g51
NtRp527
(dp528
g54
(dp529
sg63
g423
sg56
(lp530
g49
(g70
g51
NtRp531
(dp532
g54
(dp533
g74
g75
ssg63
g527
sg56
(lp534
g368
asbag49
(g70
g51
NtRp535
(dp536
g54
(dp537
g81
g82
ssg63
g527
sg56
(lp538
S':'
asbag49
(g70
g51
NtRp539
(dp540
g54
(dp541
sg63
g527
sg56
(lp542
g49
(g50
g51
NtRp543
(dp544
g54
(dp545
g62
I3
ssg63
g539
sg56
(lp546
S''
asbasbasbag49
(g65
g51
NtRp547
(dp548
g54
(dp549
sg63
g423
sg56
(lp550
g49
(g70
g51
NtRp551
(dp552
g54
(dp553
g74
g75
ssg63
g547
sg56
(lp554
g389
asbag49
(g70
g51
NtRp555
(dp556
g54
(dp557
g81
g82
ssg63
g547
sg56
(lp558
S':'
asbag49
(g70
g51
NtRp559
(dp560
g54
(dp561
sg63
g547
sg56
(lp562
g49
(g50
g51
NtRp563
(dp564
g54
(dp565
g62
I3
ssg63
g559
sg56
(lp566
S''
asbasbasbasbasbasbasbasbasbasbasbag49
(g65
g51
NtRp567
(dp568
g54
(dp569
sg63
g59
sg56
(lp570
g49
(g70
g51
NtRp571
(dp572
g54
(dp573
g74
g75
ssg63
g567
sg56
(lp574
S'env'
p575
asbag49
(g70
g51
NtRp576
(dp577
g54
(dp578
g81
g82
ssg63
g567
sg56
(lp579
S':'
asbag49
(g70
g51
NtRp580
(dp581
g54
(dp582
sg63
g567
sg56
(lp583
g49
(g50
g51
NtRp584
(dp585
g54
(dp586
g62
I5
ssg63
g580
sg56
(lp587
g49
(g58
g51
NtRp588
(dp589
g54
(dp590
g62
I4
ssg63
Nsg56
(lp591
g49
(g65
g51
NtRp592
(dp593
g54
(dp594
sg63
g588
sg56
(lp595
g49
(g70
g51
NtRp596
(dp597
g54
(dp598
g74
g75
ssg63
g592
sg56
(lp599
S'app_folders'
p600
asbag49
(g70
g51
NtRp601
(dp602
g54
(dp603
g81
g82
ssg63
g592
sg56
(lp604
S':'
asbag49
(g70
g51
NtRp605
(dp606
g54
(dp607
sg63
g592
sg56
(lp608
g49
(g50
g51
NtRp609
(dp610
g54
(dp611
g62
I4
ssg63
g605
sg56
(lp612
S"set(['/Users/udimilo/Documents/web2py/applications/udi0312/', '/Users/udimilo/Documents/web2py/applications/admin/'])"
p613
asbasbasbag49
(g65
g51
NtRp614
(dp615
g54
(dp616
sg63
g588
sg56
(lp617
g49
(g70
g51
NtRp618
(dp619
g54
(dp620
g74
g75
ssg63
g614
sg56
(lp621
S'applications_parent'
p622
asbag49
(g70
g51
NtRp623
(dp624
g54
(dp625
g81
g82
ssg63
g614
sg56
(lp626
S':'
asbag49
(g70
g51
NtRp627
(dp628
g54
(dp629
sg63
g614
sg56
(lp630
g49
(g50
g51
NtRp631
(dp632
g54
(dp633
g62
I4
ssg63
g627
sg56
(lp634
S'/Users/udimilo/Documents/web2py'
p635
asbasbasbag49
(g65
g51
NtRp636
(dp637
g54
(dp638
sg63
g588
sg56
(lp639
g49
(g70
g51
NtRp640
(dp641
g54
(dp642
g74
g75
ssg63
g636
sg56
(lp643
S'cmd_args'
p644
asbag49
(g70
g51
NtRp645
(dp646
g54
(dp647
g81
g82
ssg63
g636
sg56
(lp648
S':'
asbag49
(g70
g51
NtRp649
(dp650
g54
(dp651
sg63
g636
sg56
(lp652
g49
(g50
g51
NtRp653
(dp654
g54
(dp655
g62
I4
ssg63
g649
sg56
(lp656
g49
(g58
g51
NtRp657
(dp658
g54
(dp659
g62
I3
ssg63
Nsg56
(lp660
sbasbasbasbag49
(g65
g51
NtRp661
(dp662
g54
(dp663
sg63
g588
sg56
(lp664
g49
(g70
g51
NtRp665
(dp666
g54
(dp667
g74
g75
ssg63
g661
sg56
(lp668
S'cmd_options'
p669
asbag49
(g70
g51
NtRp670
(dp671
g54
(dp672
g81
g82
ssg63
g661
sg56
(lp673
S':'
asbag49
(g70
g51
NtRp674
(dp675
g54
(dp676
sg63
g661
sg56
(lp677
g49
(g50
g51
NtRp678
(dp679
g54
(dp680
g62
I4
ssg63
g674
sg56
(lp681
S"<Values at 0x25301c0: {'verbose': False, 'ip': '127.0.0.1', 'shutdown_timeout': 5, 'taskbar': False, 'nocron': False, 'pid_filename': 'httpserver.pid', 'maxthreads': None, 'softcron': False, 'server_name': 'Udi-Milos-MacBook-Pro.local', 'bpython': False, 'nogui': False, 'port': 8000, 'extcron': False, 'debuglevel': 30, 'test': None, 'folder': '/Users/udimilo/Documents/web2py', 'config': '', 'import_models': False, 'winservice': '', 'shell': None, 'run': '', 'log_filename': 'httpserver.log', 'args': [''], 'socket_timeout': 5, 'ssl_ca_certificate': None, 'scheduler': None, 'profiler_filename': None, 'ssl_private_key': '', 'password': '<ask>', 'request_queue_size': 5, 'ssl_certificate': '', 'cronjob': False, 'numthreads': None, 'quiet': False, 'interfaces': None, 'minthreads': None, 'timeout': 10, 'plain': False, 'nobanner': False}>"
p682
asbasbasbag49
(g65
g51
NtRp683
(dp684
g54
(dp685
sg63
g588
sg56
(lp686
g49
(g70
g51
NtRp687
(dp688
g54
(dp689
g74
g75
ssg63
g683
sg56
(lp690
S'db_sessions'
p691
asbag49
(g70
g51
NtRp692
(dp693
g54
(dp694
g81
g82
ssg63
g683
sg56
(lp695
S':'
asbag49
(g70
g51
NtRp696
(dp697
g54
(dp698
sg63
g683
sg56
(lp699
g49
(g50
g51
NtRp700
(dp701
g54
(dp702
g62
I4
ssg63
g696
sg56
(lp703
S'set([])'
p704
asbasbasbag49
(g65
g51
NtRp705
(dp706
g54
(dp707
sg63
g588
sg56
(lp708
g49
(g70
g51
NtRp709
(dp710
g54
(dp711
g74
g75
ssg63
g705
sg56
(lp712
S'debugging'
p713
asbag49
(g70
g51
NtRp714
(dp715
g54
(dp716
g81
g82
ssg63
g705
sg56
(lp717
S':'
asbag49
(g70
g51
NtRp718
(dp719
g54
(dp720
sg63
g705
sg56
(lp721
g49
(g50
g51
NtRp722
(dp723
g54
(dp724
g62
I4
ssg63
g718
sg56
(lp725
g92
asbasbasbag49
(g65
g51
NtRp726
(dp727
g54
(dp728
sg63
g588
sg56
(lp729
g49
(g70
g51
NtRp730
(dp731
g54
(dp732
g74
g75
ssg63
g726
sg56
(lp733
S'gluon_parent'
p734
asbag49
(g70
g51
NtRp735
(dp736
g54
(dp737
g81
g82
ssg63
g726
sg56
(lp738
S':'
asbag49
(g70
g51
NtRp739
(dp740
g54
(dp741
sg63
g726
sg56
(lp742
g49
(g50
g51
NtRp743
(dp744
g54
(dp745
g62
I4
ssg63
g739
sg56
(lp746
S'/Users/udimilo/Documents/web2py'
p747
asbasbasbag49
(g65
g51
NtRp748
(dp749
g54
(dp750
sg63
g588
sg56
(lp751
g49
(g70
g51
NtRp752
(dp753
g54
(dp754
g74
g75
ssg63
g748
sg56
(lp755
S'http_accept'
p756
asbag49
(g70
g51
NtRp757
(dp758
g54
(dp759
g81
g82
ssg63
g748
sg56
(lp760
S':'
asbag49
(g70
g51
NtRp761
(dp762
g54
(dp763
sg63
g748
sg56
(lp764
g49
(g50
g51
NtRp765
(dp766
g54
(dp767
g62
I4
ssg63
g761
sg56
(lp768
S'text/html,application/xhtml+xml,application/xml;q=0.9,*/*;q=0.8'
p769
asbasbasbag49
(g65
g51
NtRp770
(dp771
g54
(dp772
sg63
g588
sg56
(lp773
g49
(g70
g51
NtRp774
(dp775
g54
(dp776
g74
g75
ssg63
g770
sg56
(lp777
S'http_accept_charset'
p778
asbag49
(g70
g51
NtRp779
(dp780
g54
(dp781
g81
g82
ssg63
g770
sg56
(lp782
S':'
asbag49
(g70
g51
NtRp783
(dp784
g54
(dp785
sg63
g770
sg56
(lp786
g49
(g50
g51
NtRp787
(dp788
g54
(dp789
g62
I4
ssg63
g783
sg56
(lp790
S'ISO-8859-1,utf-8;q=0.7,*;q=0.3'
p791
asbasbasbag49
(g65
g51
NtRp792
(dp793
g54
(dp794
sg63
g588
sg56
(lp795
g49
(g70
g51
NtRp796
(dp797
g54
(dp798
g74
g75
ssg63
g792
sg56
(lp799
S'http_accept_encoding'
p800
asbag49
(g70
g51
NtRp801
(dp802
g54
(dp803
g81
g82
ssg63
g792
sg56
(lp804
S':'
asbag49
(g70
g51
NtRp805
(dp806
g54
(dp807
sg63
g792
sg56
(lp808
g49
(g50
g51
NtRp809
(dp810
g54
(dp811
g62
I4
ssg63
g805
sg56
(lp812
S'gzip,deflate,sdch'
p813
asbasbasbag49
(g65
g51
NtRp814
(dp815
g54
(dp816
sg63
g588
sg56
(lp817
g49
(g70
g51
NtRp818
(dp819
g54
(dp820
g74
g75
ssg63
g814
sg56
(lp821
S'http_accept_language'
p822
asbag49
(g70
g51
NtRp823
(dp824
g54
(dp825
g81
g82
ssg63
g814
sg56
(lp826
S':'
asbag49
(g70
g51
NtRp827
(dp828
g54
(dp829
sg63
g814
sg56
(lp830
g49
(g50
g51
NtRp831
(dp832
g54
(dp833
g62
I4
ssg63
g827
sg56
(lp834
S'en-US,en;q=0.8'
p835
asbasbasbag49
(g65
g51
NtRp836
(dp837
g54
(dp838
sg63
g588
sg56
(lp839
g49
(g70
g51
NtRp840
(dp841
g54
(dp842
g74
g75
ssg63
g836
sg56
(lp843
S'http_cache_control'
p844
asbag49
(g70
g51
NtRp845
(dp846
g54
(dp847
g81
g82
ssg63
g836
sg56
(lp848
S':'
asbag49
(g70
g51
NtRp849
(dp850
g54
(dp851
sg63
g836
sg56
(lp852
g49
(g50
g51
NtRp853
(dp854
g54
(dp855
g62
I4
ssg63
g849
sg56
(lp856
S'max-age=0'
p857
asbasbasbag49
(g65
g51
NtRp858
(dp859
g54
(dp860
sg63
g588
sg56
(lp861
g49
(g70
g51
NtRp862
(dp863
g54
(dp864
g74
g75
ssg63
g858
sg56
(lp865
S'http_connection'
p866
asbag49
(g70
g51
NtRp867
(dp868
g54
(dp869
g81
g82
ssg63
g858
sg56
(lp870
S':'
asbag49
(g70
g51
NtRp871
(dp872
g54
(dp873
sg63
g858
sg56
(lp874
g49
(g50
g51
NtRp875
(dp876
g54
(dp877
g62
I4
ssg63
g871
sg56
(lp878
S'keep-alive'
p879
asbasbasbag49
(g65
g51
NtRp880
(dp881
g54
(dp882
sg63
g588
sg56
(lp883
g49
(g70
g51
NtRp884
(dp885
g54
(dp886
g74
g75
ssg63
g880
sg56
(lp887
S'http_cookie'
p888
asbag49
(g70
g51
NtRp889
(dp890
g54
(dp891
g81
g82
ssg63
g880
sg56
(lp892
S':'
asbag49
(g70
g51
NtRp893
(dp894
g54
(dp895
sg63
g880
sg56
(lp896
g49
(g50
g51
NtRp897
(dp898
g54
(dp899
g62
I4
ssg63
g893
sg56
(lp900
S'session_id_udi0312=127.0.0.1-fcd6a577-d448-4882-b7bc-f353da84ba3b; session_id_admin=127.0.0.1-784f21fc-559b-4436-993f-35f35c035db4'
p901
asbasbasbag49
(g65
g51
NtRp902
(dp903
g54
(dp904
sg63
g588
sg56
(lp905
g49
(g70
g51
NtRp906
(dp907
g54
(dp908
g74
g75
ssg63
g902
sg56
(lp909
S'http_host'
p910
asbag49
(g70
g51
NtRp911
(dp912
g54
(dp913
g81
g82
ssg63
g902
sg56
(lp914
S':'
asbag49
(g70
g51
NtRp915
(dp916
g54
(dp917
sg63
g902
sg56
(lp918
g49
(g50
g51
NtRp919
(dp920
g54
(dp921
g62
I4
ssg63
g915
sg56
(lp922
S'127.0.0.1:8000'
p923
asbasbasbag49
(g65
g51
NtRp924
(dp925
g54
(dp926
sg63
g588
sg56
(lp927
g49
(g70
g51
NtRp928
(dp929
g54
(dp930
g74
g75
ssg63
g924
sg56
(lp931
S'http_user_agent'
p932
asbag49
(g70
g51
NtRp933
(dp934
g54
(dp935
g81
g82
ssg63
g924
sg56
(lp936
S':'
asbag49
(g70
g51
NtRp937
(dp938
g54
(dp939
sg63
g924
sg56
(lp940
g49
(g50
g51
NtRp941
(dp942
g54
(dp943
g62
I4
ssg63
g937
sg56
(lp944
S'Mozilla/5.0 (Macintosh; Intel Mac OS X 10_7_3) AppleWebKit/535.11 (KHTML, like Gecko) Chrome/17.0.963.78 Safari/535.11'
p945
asbasbasbag49
(g65
g51
NtRp946
(dp947
g54
(dp948
sg63
g588
sg56
(lp949
g49
(g70
g51
NtRp950
(dp951
g54
(dp952
g74
g75
ssg63
g946
sg56
(lp953
S'is_jython'
p954
asbag49
(g70
g51
NtRp955
(dp956
g54
(dp957
g81
g82
ssg63
g946
sg56
(lp958
S':'
asbag49
(g70
g51
NtRp959
(dp960
g54
(dp961
sg63
g946
sg56
(lp962
g49
(g50
g51
NtRp963
(dp964
g54
(dp965
g62
I4
ssg63
g959
sg56
(lp966
g92
asbasbasbag49
(g65
g51
NtRp967
(dp968
g54
(dp969
sg63
g588
sg56
(lp970
g49
(g70
g51
NtRp971
(dp972
g54
(dp973
g74
g75
ssg63
g967
sg56
(lp974
S'is_pypy'
p975
asbag49
(g70
g51
NtRp976
(dp977
g54
(dp978
g81
g82
ssg63
g967
sg56
(lp979
S':'
asbag49
(g70
g51
NtRp980
(dp981
g54
(dp982
sg63
g967
sg56
(lp983
g49
(g50
g51
NtRp984
(dp985
g54
(dp986
g62
I4
ssg63
g980
sg56
(lp987
g92
asbasbasbag49
(g65
g51
NtRp988
(dp989
g54
(dp990
sg63
g588
sg56
(lp991
g49
(g70
g51
NtRp992
(dp993
g54
(dp994
g74
g75
ssg63
g988
sg56
(lp995
S'path_info'
p996
asbag49
(g70
g51
NtRp997
(dp998
g54
(dp999
g81
g82
ssg63
g988
sg56
(lp1000
S':'
asbag49
(g70
g51
NtRp1001
(dp1002
g54
(dp1003
sg63
g988
sg56
(lp1004
g49
(g50
g51
NtRp1005
(dp1006
g54
(dp1007
g62
I4
ssg63
g1001
sg56
(lp1008
S'/test'
p1009
asbasbasbag49
(g65
g51
NtRp1010
(dp1011
g54
(dp1012
sg63
g588
sg56
(lp1013
g49
(g70
g51
NtRp1014
(dp1015
g54
(dp1016
g74
g75
ssg63
g1010
sg56
(lp1017
S'query_string'
p1018
asbag49
(g70
g51
NtRp1019
(dp1020
g54
(dp1021
g81
g82
ssg63
g1010
sg56
(lp1022
S':'
asbag49
(g70
g51
NtRp1023
(dp1024
g54
(dp1025
sg63
g1010
sg56
(lp1026
g49
(g50
g51
NtRp1027
(dp1028
g54
(dp1029
g62
I4
ssg63
g1023
sg56
(lp1030
S'url=http://rikkisnyder.com/blog/text/13463932/water'
p1031
asbasbasbag49
(g65
g51
NtRp1032
(dp1033
g54
(dp1034
sg63
g588
sg56
(lp1035
g49
(g70
g51
NtRp1036
(dp1037
g54
(dp1038
g74
g75
ssg63
g1032
sg56
(lp1039
S'remote_addr'
p1040
asbag49
(g70
g51
NtRp1041
(dp1042
g54
(dp1043
g81
g82
ssg63
g1032
sg56
(lp1044
S':'
asbag49
(g70
g51
NtRp1045
(dp1046
g54
(dp1047
sg63
g1032
sg56
(lp1048
g49
(g50
g51
NtRp1049
(dp1050
g54
(dp1051
g62
I4
ssg63
g1045
sg56
(lp1052
g182
asbasbasbag49
(g65
g51
NtRp1053
(dp1054
g54
(dp1055
sg63
g588
sg56
(lp1056
g49
(g70
g51
NtRp1057
(dp1058
g54
(dp1059
g74
g75
ssg63
g1053
sg56
(lp1060
S'remote_port'
p1061
asbag49
(g70
g51
NtRp1062
(dp1063
g54
(dp1064
g81
g82
ssg63
g1053
sg56
(lp1065
S':'
asbag49
(g70
g51
NtRp1066
(dp1067
g54
(dp1068
sg63
g1053
sg56
(lp1069
g49
(g50
g51
NtRp1070
(dp1071
g54
(dp1072
g62
I4
ssg63
g1066
sg56
(lp1073
S'62593'
p1074
asbasbasbag49
(g65
g51
NtRp1075
(dp1076
g54
(dp1077
sg63
g588
sg56
(lp1078
g49
(g70
g51
NtRp1079
(dp1080
g54
(dp1081
g74
g75
ssg63
g1075
sg56
(lp1082
S'request_method'
p1083
asbag49
(g70
g51
NtRp1084
(dp1085
g54
(dp1086
g81
g82
ssg63
g1075
sg56
(lp1087
S':'
asbag49
(g70
g51
NtRp1088
(dp1089
g54
(dp1090
sg63
g1075
sg56
(lp1091
g49
(g50
g51
NtRp1092
(dp1093
g54
(dp1094
g62
I4
ssg63
g1088
sg56
(lp1095
S'GET'
p1096
asbasbasbag49
(g65
g51
NtRp1097
(dp1098
g54
(dp1099
sg63
g588
sg56
(lp1100
g49
(g70
g51
NtRp1101
(dp1102
g54
(dp1103
g74
g75
ssg63
g1097
sg56
(lp1104
S'request_uri'
p1105
asbag49
(g70
g51
NtRp1106
(dp1107
g54
(dp1108
g81
g82
ssg63
g1097
sg56
(lp1109
S':'
asbag49
(g70
g51
NtRp1110
(dp1111
g54
(dp1112
sg63
g1097
sg56
(lp1113
g49
(g50
g51
NtRp1114
(dp1115
g54
(dp1116
g62
I4
ssg63
g1110
sg56
(lp1117
S'/udi0312/default/test?url=http://rikkisnyder.com/blog/text/13463932/water'
p1118
asbasbasbag49
(g65
g51
NtRp1119
(dp1120
g54
(dp1121
sg63
g588
sg56
(lp1122
g49
(g70
g51
NtRp1123
(dp1124
g54
(dp1125
g74
g75
ssg63
g1119
sg56
(lp1126
S'script_name'
p1127
asbag49
(g70
g51
NtRp1128
(dp1129
g54
(dp1130
g81
g82
ssg63
g1119
sg56
(lp1131
S':'
asbag49
(g70
g51
NtRp1132
(dp1133
g54
(dp1134
sg63
g1119
sg56
(lp1135
g49
(g50
g51
NtRp1136
(dp1137
g54
(dp1138
g62
I4
ssg63
g1132
sg56
(lp1139
S''
asbasbasbag49
(g65
g51
NtRp1140
(dp1141
g54
(dp1142
sg63
g588
sg56
(lp1143
g49
(g70
g51
NtRp1144
(dp1145
g54
(dp1146
g74
g75
ssg63
g1140
sg56
(lp1147
S'server_name'
p1148
asbag49
(g70
g51
NtRp1149
(dp1150
g54
(dp1151
g81
g82
ssg63
g1140
sg56
(lp1152
S':'
asbag49
(g70
g51
NtRp1153
(dp1154
g54
(dp1155
sg63
g1140
sg56
(lp1156
g49
(g50
g51
NtRp1157
(dp1158
g54
(dp1159
g62
I4
ssg63
g1153
sg56
(lp1160
S'Udi-Milos-MacBook-Pro.local'
p1161
asbasbasbag49
(g65
g51
NtRp1162
(dp1163
g54
(dp1164
sg63
g588
sg56
(lp1165
g49
(g70
g51
NtRp1166
(dp1167
g54
(dp1168
g74
g75
ssg63
g1162
sg56
(lp1169
S'server_port'
p1170
asbag49
(g70
g51
NtRp1171
(dp1172
g54
(dp1173
g81
g82
ssg63
g1162
sg56
(lp1174
S':'
asbag49
(g70
g51
NtRp1175
(dp1176
g54
(dp1177
sg63
g1162
sg56
(lp1178
g49
(g50
g51
NtRp1179
(dp1180
g54
(dp1181
g62
I4
ssg63
g1175
sg56
(lp1182
S'8000'
p1183
asbasbasbag49
(g65
g51
NtRp1184
(dp1185
g54
(dp1186
sg63
g588
sg56
(lp1187
g49
(g70
g51
NtRp1188
(dp1189
g54
(dp1190
g74
g75
ssg63
g1184
sg56
(lp1191
S'server_protocol'
p1192
asbag49
(g70
g51
NtRp1193
(dp1194
g54
(dp1195
g81
g82
ssg63
g1184
sg56
(lp1196
S':'
asbag49
(g70
g51
NtRp1197
(dp1198
g54
(dp1199
sg63
g1184
sg56
(lp1200
g49
(g50
g51
NtRp1201
(dp1202
g54
(dp1203
g62
I4
ssg63
g1197
sg56
(lp1204
S'HTTP/1.1'
p1205
asbasbasbag49
(g65
g51
NtRp1206
(dp1207
g54
(dp1208
sg63
g588
sg56
(lp1209
g49
(g70
g51
NtRp1210
(dp1211
g54
(dp1212
g74
g75
ssg63
g1206
sg56
(lp1213
S'server_software'
p1214
asbag49
(g70
g51
NtRp1215
(dp1216
g54
(dp1217
g81
g82
ssg63
g1206
sg56
(lp1218
S':'
asbag49
(g70
g51
NtRp1219
(dp1220
g54
(dp1221
sg63
g1206
sg56
(lp1222
g49
(g50
g51
NtRp1223
(dp1224
g54
(dp1225
g62
I4
ssg63
g1219
sg56
(lp1226
S'Rocket 1.2.4'
p1227
asbasbasbag49
(g65
g51
NtRp1228
(dp1229
g54
(dp1230
sg63
g588
sg56
(lp1231
g49
(g70
g51
NtRp1232
(dp1233
g54
(dp1234
g74
g75
ssg63
g1228
sg56
(lp1235
S'web2py_crontype'
p1236
asbag49
(g70
g51
NtRp1237
(dp1238
g54
(dp1239
g81
g82
ssg63
g1228
sg56
(lp1240
S':'
asbag49
(g70
g51
NtRp1241
(dp1242
g54
(dp1243
sg63
g1228
sg56
(lp1244
g49
(g50
g51
NtRp1245
(dp1246
g54
(dp1247
g62
I4
ssg63
g1241
sg56
(lp1248
S'hard'
p1249
asbasbasbag49
(g65
g51
NtRp1250
(dp1251
g54
(dp1252
sg63
g588
sg56
(lp1253
g49
(g70
g51
NtRp1254
(dp1255
g54
(dp1256
g74
g75
ssg63
g1250
sg56
(lp1257
S'web2py_original_uri'
p1258
asbag49
(g70
g51
NtRp1259
(dp1260
g54
(dp1261
g81
g82
ssg63
g1250
sg56
(lp1262
S':'
asbag49
(g70
g51
NtRp1263
(dp1264
g54
(dp1265
sg63
g1250
sg56
(lp1266
g49
(g50
g51
NtRp1267
(dp1268
g54
(dp1269
g62
I4
ssg63
g1263
sg56
(lp1270
S'/test?url=http://rikkisnyder.com/blog/text/13463932/water'
p1271
asbasbasbag49
(g65
g51
NtRp1272
(dp1273
g54
(dp1274
sg63
g588
sg56
(lp1275
g49
(g70
g51
NtRp1276
(dp1277
g54
(dp1278
g74
g75
ssg63
g1272
sg56
(lp1279
S'web2py_path'
p1280
asbag49
(g70
g51
NtRp1281
(dp1282
g54
(dp1283
g81
g82
ssg63
g1272
sg56
(lp1284
S':'
asbag49
(g70
g51
NtRp1285
(dp1286
g54
(dp1287
sg63
g1272
sg56
(lp1288
g49
(g50
g51
NtRp1289
(dp1290
g54
(dp1291
g62
I4
ssg63
g1285
sg56
(lp1292
g635
asbasbasbag49
(g65
g51
NtRp1293
(dp1294
g54
(dp1295
sg63
g588
sg56
(lp1296
g49
(g70
g51
NtRp1297
(dp1298
g54
(dp1299
g74
g75
ssg63
g1293
sg56
(lp1300
S'web2py_version'
p1301
asbag49
(g70
g51
NtRp1302
(dp1303
g54
(dp1304
g81
g82
ssg63
g1293
sg56
(lp1305
S':'
asbag49
(g70
g51
NtRp1306
(dp1307
g54
(dp1308
sg63
g1293
sg56
(lp1309
g49
(g50
g51
NtRp1310
(dp1311
g54
(dp1312
g62
I4
ssg63
g1306
sg56
(lp1313
g49
(g58
g51
NtRp1314
(dp1315
g54
(dp1316
g62
I3
ssg63
Nsg56
(lp1317
g49
(g65
g51
NtRp1318
(dp1319
g54
(dp1320
sg63
g1314
sg56
(lp1321
g49
(g70
g51
NtRp1322
(dp1323
g54
(dp1324
sg63
g1318
sg56
(lp1325
g49
(g50
g51
NtRp1326
(dp1327
g54
(dp1328
g62
I3
ssg63
g1322
sg56
(lp1329
S'1'
asbasbasbag49
(g65
g51
NtRp1330
(dp1331
g54
(dp1332
sg63
g1314
sg56
(lp1333
g49
(g70
g51
NtRp1334
(dp1335
g54
(dp1336
sg63
g1330
sg56
(lp1337
g49
(g50
g51
NtRp1338
(dp1339
g54
(dp1340
g62
I3
ssg63
g1334
sg56
(lp1341
S'99'
p1342
asbasbasbag49
(g65
g51
NtRp1343
(dp1344
g54
(dp1345
sg63
g1314
sg56
(lp1346
g49
(g70
g51
NtRp1347
(dp1348
g54
(dp1349
sg63
g1343
sg56
(lp1350
g49
(g50
g51
NtRp1351
(dp1352
g54
(dp1353
g62
I3
ssg63
g1347
sg56
(lp1354
S'7'
asbasbasbag49
(g65
g51
NtRp1355
(dp1356
g54
(dp1357
sg63
g1314
sg56
(lp1358
g49
(g70
g51
NtRp1359
(dp1360
g54
(dp1361
sg63
g1355
sg56
(lp1362
g49
(g50
g51
NtRp1363
(dp1364
g54
(dp1365
g62
I3
ssg63
g1359
sg56
(lp1366
S'datetime.datetime(2012, 3, 4, 22, 12, 8)'
p1367
asbasbasbag49
(g65
g51
NtRp1368
(dp1369
g54
(dp1370
sg63
g1314
sg56
(lp1371
g49
(g70
g51
NtRp1372
(dp1373
g54
(dp1374
sg63
g1368
sg56
(lp1375
g49
(g50
g51
NtRp1376
(dp1377
g54
(dp1378
g62
I3
ssg63
g1372
sg56
(lp1379
S'stable'
p1380
asbasbasbasbasbasbasbag49
(g65
g51
NtRp1381
(dp1382
g54
(dp1383
sg63
g588
sg56
(lp1384
g49
(g70
g51
NtRp1385
(dp1386
g54
(dp1387
g74
g75
ssg63
g1381
sg56
(lp1388
S'wsgi_errors'
p1389
asbag49
(g70
g51
NtRp1390
(dp1391
g54
(dp1392
g81
g82
ssg63
g1381
sg56
(lp1393
S':'
asbag49
(g70
g51
NtRp1394
(dp1395
g54
(dp1396
sg63
g1381
sg56
(lp1397
g49
(g50
g51
NtRp1398
(dp1399
g54
(dp1400
g62
I4
ssg63
g1394
sg56
(lp1401
S"<open file '<stderr>', mode 'w' at 0x4220b0>"
p1402
asbasbasbag49
(g65
g51
NtRp1403
(dp1404
g54
(dp1405
sg63
g588
sg56
(lp1406
g49
(g70
g51
NtRp1407
(dp1408
g54
(dp1409
g74
g75
ssg63
g1403
sg56
(lp1410
S'wsgi_file_wrapper'
p1411
asbag49
(g70
g51
NtRp1412
(dp1413
g54
(dp1414
g81
g82
ssg63
g1403
sg56
(lp1415
S':'
asbag49
(g70
g51
NtRp1416
(dp1417
g54
(dp1418
sg63
g1403
sg56
(lp1419
g49
(g50
g51
NtRp1420
(dp1421
g54
(dp1422
g62
I4
ssg63
g1416
sg56
(lp1423
S'<class wsgiref.util.FileWrapper at 0x24746c0>'
p1424
asbasbasbag49
(g65
g51
NtRp1425
(dp1426
g54
(dp1427
sg63
g588
sg56
(lp1428
g49
(g70
g51
NtRp1429
(dp1430
g54
(dp1431
g74
g75
ssg63
g1425
sg56
(lp1432
S'wsgi_input'
p1433
asbag49
(g70
g51
NtRp1434
(dp1435
g54
(dp1436
g81
g82
ssg63
g1425
sg56
(lp1437
S':'
asbag49
(g70
g51
NtRp1438
(dp1439
g54
(dp1440
sg63
g1425
sg56
(lp1441
g49
(g50
g51
NtRp1442
(dp1443
g54
(dp1444
g62
I4
ssg63
g1438
sg56
(lp1445
S'<socket._fileobject object at 0x8e448f0>'
p1446
asbasbasbag49
(g65
g51
NtRp1447
(dp1448
g54
(dp1449
sg63
g588
sg56
(lp1450
g49
(g70
g51
NtRp1451
(dp1452
g54
(dp1453
g74
g75
ssg63
g1447
sg56
(lp1454
S'wsgi_multiprocess'
p1455
asbag49
(g70
g51
NtRp1456
(dp1457
g54
(dp1458
g81
g82
ssg63
g1447
sg56
(lp1459
S':'
asbag49
(g70
g51
NtRp1460
(dp1461
g54
(dp1462
sg63
g1447
sg56
(lp1463
g49
(g50
g51
NtRp1464
(dp1465
g54
(dp1466
g62
I4
ssg63
g1460
sg56
(lp1467
g92
asbasbasbag49
(g65
g51
NtRp1468
(dp1469
g54
(dp1470
sg63
g588
sg56
(lp1471
g49
(g70
g51
NtRp1472
(dp1473
g54
(dp1474
g74
g75
ssg63
g1468
sg56
(lp1475
S'wsgi_multithread'
p1476
asbag49
(g70
g51
NtRp1477
(dp1478
g54
(dp1479
g81
g82
ssg63
g1468
sg56
(lp1480
S':'
asbag49
(g70
g51
NtRp1481
(dp1482
g54
(dp1483
sg63
g1468
sg56
(lp1484
g49
(g50
g51
NtRp1485
(dp1486
g54
(dp1487
g62
I4
ssg63
g1481
sg56
(lp1488
S'True'
p1489
asbasbasbag49
(g65
g51
NtRp1490
(dp1491
g54
(dp1492
sg63
g588
sg56
(lp1493
g49
(g70
g51
NtRp1494
(dp1495
g54
(dp1496
g74
g75
ssg63
g1490
sg56
(lp1497
S'wsgi_run_once'
p1498
asbag49
(g70
g51
NtRp1499
(dp1500
g54
(dp1501
g81
g82
ssg63
g1490
sg56
(lp1502
S':'
asbag49
(g70
g51
NtRp1503
(dp1504
g54
(dp1505
sg63
g1490
sg56
(lp1506
g49
(g50
g51
NtRp1507
(dp1508
g54
(dp1509
g62
I4
ssg63
g1503
sg56
(lp1510
g92
asbasbasbag49
(g65
g51
NtRp1511
(dp1512
g54
(dp1513
sg63
g588
sg56
(lp1514
g49
(g70
g51
NtRp1515
(dp1516
g54
(dp1517
g74
g75
ssg63
g1511
sg56
(lp1518
S'wsgi_url_scheme'
p1519
asbag49
(g70
g51
NtRp1520
(dp1521
g54
(dp1522
g81
g82
ssg63
g1511
sg56
(lp1523
S':'
asbag49
(g70
g51
NtRp1524
(dp1525
g54
(dp1526
sg63
g1511
sg56
(lp1527
g49
(g50
g51
NtRp1528
(dp1529
g54
(dp1530
g62
I4
ssg63
g1524
sg56
(lp1531
S'http'
p1532
asbasbasbag49
(g65
g51
NtRp1533
(dp1534
g54
(dp1535
sg63
g588
sg56
(lp1536
g49
(g70
g51
NtRp1537
(dp1538
g54
(dp1539
g74
g75
ssg63
g1533
sg56
(lp1540
S'wsgi_version'
p1541
asbag49
(g70
g51
NtRp1542
(dp1543
g54
(dp1544
g81
g82
ssg63
g1533
sg56
(lp1545
S':'
asbag49
(g70
g51
NtRp1546
(dp1547
g54
(dp1548
sg63
g1533
sg56
(lp1549
g49
(g50
g51
NtRp1550
(dp1551
g54
(dp1552
g62
I4
ssg63
g1546
sg56
(lp1553
g49
(g58
g51
NtRp1554
(dp1555
g54
(dp1556
g62
I3
ssg63
Nsg56
(lp1557
g49
(g65
g51
NtRp1558
(dp1559
g54
(dp1560
sg63
g1554
sg56
(lp1561
g49
(g70
g51
NtRp1562
(dp1563
g54
(dp1564
sg63
g1558
sg56
(lp1565
g49
(g50
g51
NtRp1566
(dp1567
g54
(dp1568
g62
I3
ssg63
g1562
sg56
(lp1569
S'1'
asbasbasbag49
(g65
g51
NtRp1570
(dp1571
g54
(dp1572
sg63
g1554
sg56
(lp1573
g49
(g70
g51
NtRp1574
(dp1575
g54
(dp1576
sg63
g1570
sg56
(lp1577
g49
(g50
g51
NtRp1578
(dp1579
g54
(dp1580
g62
I3
ssg63
g1574
sg56
(lp1581
S'0'
asbasbasbasbasbasbasbasbasbasbasbag49
(g65
g51
NtRp1582
(dp1583
g54
(dp1584
sg63
g59
sg56
(lp1585
g49
(g70
g51
NtRp1586
(dp1587
g54
(dp1588
g74
g75
ssg63
g1582
sg56
(lp1589
S'extension'
p1590
asbag49
(g70
g51
NtRp1591
(dp1592
g54
(dp1593
g81
g82
ssg63
g1582
sg56
(lp1594
S':'
asbag49
(g70
g51
NtRp1595
(dp1596
g54
(dp1597
sg63
g1582
sg56
(lp1598
g49
(g50
g51
NtRp1599
(dp1600
g54
(dp1601
g62
I5
ssg63
g1595
sg56
(lp1602
S'html'
p1603
asbasbasbag49
(g65
g51
NtRp1604
(dp1605
g54
(dp1606
sg63
g59
sg56
(lp1607
g49
(g70
g51
NtRp1608
(dp1609
g54
(dp1610
g74
g75
ssg63
g1604
sg56
(lp1611
S'folder'
p1612
asbag49
(g70
g51
NtRp1613
(dp1614
g54
(dp1615
g81
g82
ssg63
g1604
sg56
(lp1616
S':'
asbag49
(g70
g51
NtRp1617
(dp1618
g54
(dp1619
sg63
g1604
sg56
(lp1620
g49
(g50
g51
NtRp1621
(dp1622
g54
(dp1623
g62
I5
ssg63
g1617
sg56
(lp1624
S'/Users/udimilo/Documents/web2py/applications/udi0312/'
p1625
asbasbasbag49
(g65
g51
NtRp1626
(dp1627
g54
(dp1628
sg63
g59
sg56
(lp1629
g49
(g70
g51
NtRp1630
(dp1631
g54
(dp1632
g74
g75
ssg63
g1626
sg56
(lp1633
S'function'
p1634
asbag49
(g70
g51
NtRp1635
(dp1636
g54
(dp1637
g81
g82
ssg63
g1626
sg56
(lp1638
S':'
asbag49
(g70
g51
NtRp1639
(dp1640
g54
(dp1641
sg63
g1626
sg56
(lp1642
g49
(g50
g51
NtRp1643
(dp1644
g54
(dp1645
g62
I5
ssg63
g1639
sg56
(lp1646
S'test'
p1647
asbasbasbag49
(g65
g51
NtRp1648
(dp1649
g54
(dp1650
sg63
g59
sg56
(lp1651
g49
(g70
g51
NtRp1652
(dp1653
g54
(dp1654
g74
g75
ssg63
g1648
sg56
(lp1655
S'get_vars'
p1656
asbag49
(g70
g51
NtRp1657
(dp1658
g54
(dp1659
g81
g82
ssg63
g1648
sg56
(lp1660
S':'
asbag49
(g70
g51
NtRp1661
(dp1662
g54
(dp1663
sg63
g1648
sg56
(lp1664
g49
(g50
g51
NtRp1665
(dp1666
g54
(dp1667
g62
I5
ssg63
g1661
sg56
(lp1668
g49
(g58
g51
NtRp1669
(dp1670
g54
(dp1671
g62
I4
ssg63
Nsg56
(lp1672
g49
(g65
g51
NtRp1673
(dp1674
g54
(dp1675
sg63
g1669
sg56
(lp1676
g49
(g70
g51
NtRp1677
(dp1678
g54
(dp1679
g74
g75
ssg63
g1673
sg56
(lp1680
S'url'
p1681
asbag49
(g70
g51
NtRp1682
(dp1683
g54
(dp1684
g81
g82
ssg63
g1673
sg56
(lp1685
S':'
asbag49
(g70
g51
NtRp1686
(dp1687
g54
(dp1688
sg63
g1673
sg56
(lp1689
g49
(g50
g51
NtRp1690
(dp1691
g54
(dp1692
g62
I4
ssg63
g1686
sg56
(lp1693
S'http://rikkisnyder.com/blog/text/13463932/water'
p1694
asbasbasbasbasbasbasbag49
(g65
g51
NtRp1695
(dp1696
g54
(dp1697
sg63
g59
sg56
(lp1698
g49
(g70
g51
NtRp1699
(dp1700
g54
(dp1701
g74
g75
ssg63
g1695
sg56
(lp1702
S'global_settings'
p1703
asbag49
(g70
g51
NtRp1704
(dp1705
g54
(dp1706
g81
g82
ssg63
g1695
sg56
(lp1707
S':'
asbag49
(g70
g51
NtRp1708
(dp1709
g54
(dp1710
sg63
g1695
sg56
(lp1711
g49
(g50
g51
NtRp1712
(dp1713
g54
(dp1714
g62
I5
ssg63
g1708
sg56
(lp1715
g49
(g58
g51
NtRp1716
(dp1717
g54
(dp1718
g62
I4
ssg63
Nsg56
(lp1719
g49
(g65
g51
NtRp1720
(dp1721
g54
(dp1722
sg63
g1716
sg56
(lp1723
g49
(g70
g51
NtRp1724
(dp1725
g54
(dp1726
g74
g75
ssg63
g1720
sg56
(lp1727
g600
asbag49
(g70
g51
NtRp1728
(dp1729
g54
(dp1730
g81
g82
ssg63
g1720
sg56
(lp1731
S':'
asbag49
(g70
g51
NtRp1732
(dp1733
g54
(dp1734
sg63
g1720
sg56
(lp1735
g49
(g50
g51
NtRp1736
(dp1737
g54
(dp1738
g62
I4
ssg63
g1732
sg56
(lp1739
S"set(['/Users/udimilo/Documents/web2py/applications/udi0312/', '/Users/udimilo/Documents/web2py/applications/admin/'])"
p1740
asbasbasbag49
(g65
g51
NtRp1741
(dp1742
g54
(dp1743
sg63
g1716
sg56
(lp1744
g49
(g70
g51
NtRp1745
(dp1746
g54
(dp1747
g74
g75
ssg63
g1741
sg56
(lp1748
g622
asbag49
(g70
g51
NtRp1749
(dp1750
g54
(dp1751
g81
g82
ssg63
g1741
sg56
(lp1752
S':'
asbag49
(g70
g51
NtRp1753
(dp1754
g54
(dp1755
sg63
g1741
sg56
(lp1756
g49
(g50
g51
NtRp1757
(dp1758
g54
(dp1759
g62
I4
ssg63
g1753
sg56
(lp1760
g635
asbasbasbag49
(g65
g51
NtRp1761
(dp1762
g54
(dp1763
sg63
g1716
sg56
(lp1764
g49
(g70
g51
NtRp1765
(dp1766
g54
(dp1767
g74
g75
ssg63
g1761
sg56
(lp1768
g644
asbag49
(g70
g51
NtRp1769
(dp1770
g54
(dp1771
g81
g82
ssg63
g1761
sg56
(lp1772
S':'
asbag49
(g70
g51
NtRp1773
(dp1774
g54
(dp1775
sg63
g1761
sg56
(lp1776
g49
(g50
g51
NtRp1777
(dp1778
g54
(dp1779
g62
I4
ssg63
g1773
sg56
(lp1780
g49
(g58
g51
NtRp1781
(dp1782
g54
(dp1783
g62
I3
ssg63
Nsg56
(lp1784
sbasbasbasbag49
(g65
g51
NtRp1785
(dp1786
g54
(dp1787
sg63
g1716
sg56
(lp1788
g49
(g70
g51
NtRp1789
(dp1790
g54
(dp1791
g74
g75
ssg63
g1785
sg56
(lp1792
g669
asbag49
(g70
g51
NtRp1793
(dp1794
g54
(dp1795
g81
g82
ssg63
g1785
sg56
(lp1796
S':'
asbag49
(g70
g51
NtRp1797
(dp1798
g54
(dp1799
sg63
g1785
sg56
(lp1800
g49
(g50
g51
NtRp1801
(dp1802
g54
(dp1803
g62
I4
ssg63
g1797
sg56
(lp1804
S"<Values at 0x25301c0: {'verbose': False, 'ip': '127.0.0.1', 'shutdown_timeout': 5, 'taskbar': False, 'nocron': False, 'pid_filename': 'httpserver.pid', 'maxthreads': None, 'softcron': False, 'server_name': 'Udi-Milos-MacBook-Pro.local', 'bpython': False, 'nogui': False, 'port': 8000, 'extcron': False, 'debuglevel': 30, 'test': None, 'folder': '/Users/udimilo/Documents/web2py', 'config': '', 'import_models': False, 'winservice': '', 'shell': None, 'run': '', 'log_filename': 'httpserver.log', 'args': [''], 'socket_timeout': 5, 'ssl_ca_certificate': None, 'scheduler': None, 'profiler_filename': None, 'ssl_private_key': '', 'password': '<ask>', 'request_queue_size': 5, 'ssl_certificate': '', 'cronjob': False, 'numthreads': None, 'quiet': False, 'interfaces': None, 'minthreads': None, 'timeout': 10, 'plain': False, 'nobanner': False}>"
p1805
asbasbasbag49
(g65
g51
NtRp1806
(dp1807
g54
(dp1808
sg63
g1716
sg56
(lp1809
g49
(g70
g51
NtRp1810
(dp1811
g54
(dp1812
g74
g75
ssg63
g1806
sg56
(lp1813
g691
asbag49
(g70
g51
NtRp1814
(dp1815
g54
(dp1816
g81
g82
ssg63
g1806
sg56
(lp1817
S':'
asbag49
(g70
g51
NtRp1818
(dp1819
g54
(dp1820
sg63
g1806
sg56
(lp1821
g49
(g50
g51
NtRp1822
(dp1823
g54
(dp1824
g62
I4
ssg63
g1818
sg56
(lp1825
S'set([])'
p1826
asbasbasbag49
(g65
g51
NtRp1827
(dp1828
g54
(dp1829
sg63
g1716
sg56
(lp1830
g49
(g70
g51
NtRp1831
(dp1832
g54
(dp1833
g74
g75
ssg63
g1827
sg56
(lp1834
g713
asbag49
(g70
g51
NtRp1835
(dp1836
g54
(dp1837
g81
g82
ssg63
g1827
sg56
(lp1838
S':'
asbag49
(g70
g51
NtRp1839
(dp1840
g54
(dp1841
sg63
g1827
sg56
(lp1842
g49
(g50
g51
NtRp1843
(dp1844
g54
(dp1845
g62
I4
ssg63
g1839
sg56
(lp1846
g92
asbasbasbag49
(g65
g51
NtRp1847
(dp1848
g54
(dp1849
sg63
g1716
sg56
(lp1850
g49
(g70
g51
NtRp1851
(dp1852
g54
(dp1853
g74
g75
ssg63
g1847
sg56
(lp1854
g734
asbag49
(g70
g51
NtRp1855
(dp1856
g54
(dp1857
g81
g82
ssg63
g1847
sg56
(lp1858
S':'
asbag49
(g70
g51
NtRp1859
(dp1860
g54
(dp1861
sg63
g1847
sg56
(lp1862
g49
(g50
g51
NtRp1863
(dp1864
g54
(dp1865
g62
I4
ssg63
g1859
sg56
(lp1866
g747
asbasbasbag49
(g65
g51
NtRp1867
(dp1868
g54
(dp1869
sg63
g1716
sg56
(lp1870
g49
(g70
g51
NtRp1871
(dp1872
g54
(dp1873
g74
g75
ssg63
g1867
sg56
(lp1874
g954
asbag49
(g70
g51
NtRp1875
(dp1876
g54
(dp1877
g81
g82
ssg63
g1867
sg56
(lp1878
S':'
asbag49
(g70
g51
NtRp1879
(dp1880
g54
(dp1881
sg63
g1867
sg56
(lp1882
g49
(g50
g51
NtRp1883
(dp1884
g54
(dp1885
g62
I4
ssg63
g1879
sg56
(lp1886
g92
asbasbasbag49
(g65
g51
NtRp1887
(dp1888
g54
(dp1889
sg63
g1716
sg56
(lp1890
g49
(g70
g51
NtRp1891
(dp1892
g54
(dp1893
g74
g75
ssg63
g1887
sg56
(lp1894
g975
asbag49
(g70
g51
NtRp1895
(dp1896
g54
(dp1897
g81
g82
ssg63
g1887
sg56
(lp1898
S':'
asbag49
(g70
g51
NtRp1899
(dp1900
g54
(dp1901
sg63
g1887
sg56
(lp1902
g49
(g50
g51
NtRp1903
(dp1904
g54
(dp1905
g62
I4
ssg63
g1899
sg56
(lp1906
g92
asbasbasbag49
(g65
g51
NtRp1907
(dp1908
g54
(dp1909
sg63
g1716
sg56
(lp1910
g49
(g70
g51
NtRp1911
(dp1912
g54
(dp1913
g74
g75
ssg63
g1907
sg56
(lp1914
g1236
asbag49
(g70
g51
NtRp1915
(dp1916
g54
(dp1917
g81
g82
ssg63
g1907
sg56
(lp1918
S':'
asbag49
(g70
g51
NtRp1919
(dp1920
g54
(dp1921
sg63
g1907
sg56
(lp1922
g49
(g50
g51
NtRp1923
(dp1924
g54
(dp1925
g62
I4
ssg63
g1919
sg56
(lp1926
g1249
asbasbasbag49
(g65
g51
NtRp1927
(dp1928
g54
(dp1929
sg63
g1716
sg56
(lp1930
g49
(g70
g51
NtRp1931
(dp1932
g54
(dp1933
g74
g75
ssg63
g1927
sg56
(lp1934
g1301
asbag49
(g70
g51
NtRp1935
(dp1936
g54
(dp1937
g81
g82
ssg63
g1927
sg56
(lp1938
S':'
asbag49
(g70
g51
NtRp1939
(dp1940
g54
(dp1941
sg63
g1927
sg56
(lp1942
g49
(g50
g51
NtRp1943
(dp1944
g54
(dp1945
g62
I4
ssg63
g1939
sg56
(lp1946
g49
(g58
g51
NtRp1947
(dp1948
g54
(dp1949
g62
I3
ssg63
Nsg56
(lp1950
g49
(g65
g51
NtRp1951
(dp1952
g54
(dp1953
sg63
g1947
sg56
(lp1954
g49
(g70
g51
NtRp1955
(dp1956
g54
(dp1957
sg63
g1951
sg56
(lp1958
g49
(g50
g51
NtRp1959
(dp1960
g54
(dp1961
g62
I3
ssg63
g1955
sg56
(lp1962
S'1'
asbasbasbag49
(g65
g51
NtRp1963
(dp1964
g54
(dp1965
sg63
g1947
sg56
(lp1966
g49
(g70
g51
NtRp1967
(dp1968
g54
(dp1969
sg63
g1963
sg56
(lp1970
g49
(g50
g51
NtRp1971
(dp1972
g54
(dp1973
g62
I3
ssg63
g1967
sg56
(lp1974
S'99'
p1975
asbasbasbag49
(g65
g51
NtRp1976
(dp1977
g54
(dp1978
sg63
g1947
sg56
(lp1979
g49
(g70
g51
NtRp1980
(dp1981
g54
(dp1982
sg63
g1976
sg56
(lp1983
g49
(g50
g51
NtRp1984
(dp1985
g54
(dp1986
g62
I3
ssg63
g1980
sg56
(lp1987
S'7'
asbasbasbag49
(g65
g51
NtRp1988
(dp1989
g54
(dp1990
sg63
g1947
sg56
(lp1991
g49
(g70
g51
NtRp1992
(dp1993
g54
(dp1994
sg63
g1988
sg56
(lp1995
g49
(g50
g51
NtRp1996
(dp1997
g54
(dp1998
g62
I3
ssg63
g1992
sg56
(lp1999
S'datetime.datetime(2012, 3, 4, 22, 12, 8)'
p2000
asbasbasbag49
(g65
g51
NtRp2001
(dp2002
g54
(dp2003
sg63
g1947
sg56
(lp2004
g49
(g70
g51
NtRp2005
(dp2006
g54
(dp2007
sg63
g2001
sg56
(lp2008
g49
(g50
g51
NtRp2009
(dp2010
g54
(dp2011
g62
I3
ssg63
g2005
sg56
(lp2012
g1380
asbasbasbasbasbasbasbasbasbasbasbag49
(g65
g51
NtRp2013
(dp2014
g54
(dp2015
sg63
g59
sg56
(lp2016
g49
(g70
g51
NtRp2017
(dp2018
g54
(dp2019
g74
g75
ssg63
g2013
sg56
(lp2020
S'is_https'
p2021
asbag49
(g70
g51
NtRp2022
(dp2023
g54
(dp2024
g81
g82
ssg63
g2013
sg56
(lp2025
S':'
asbag49
(g70
g51
NtRp2026
(dp2027
g54
(dp2028
sg63
g2013
sg56
(lp2029
g49
(g50
g51
NtRp2030
(dp2031
g54
(dp2032
g62
I5
ssg63
g2026
sg56
(lp2033
g92
asbasbasbag49
(g65
g51
NtRp2034
(dp2035
g54
(dp2036
sg63
g59
sg56
(lp2037
g49
(g70
g51
NtRp2038
(dp2039
g54
(dp2040
g74
g75
ssg63
g2034
sg56
(lp2041
S'is_local'
p2042
asbag49
(g70
g51
NtRp2043
(dp2044
g54
(dp2045
g81
g82
ssg63
g2034
sg56
(lp2046
S':'
asbag49
(g70
g51
NtRp2047
(dp2048
g54
(dp2049
sg63
g2034
sg56
(lp2050
g49
(g50
g51
NtRp2051
(dp2052
g54
(dp2053
g62
I5
ssg63
g2047
sg56
(lp2054
g1489
asbasbasbag49
(g65
g51
NtRp2055
(dp2056
g54
(dp2057
sg63
g59
sg56
(lp2058
g49
(g70
g51
NtRp2059
(dp2060
g54
(dp2061
g74
g75
ssg63
g2055
sg56
(lp2062
S'is_restful'
p2063
asbag49
(g70
g51
NtRp2064
(dp2065
g54
(dp2066
g81
g82
ssg63
g2055
sg56
(lp2067
S':'
asbag49
(g70
g51
NtRp2068
(dp2069
g54
(dp2070
sg63
g2055
sg56
(lp2071
g49
(g50
g51
NtRp2072
(dp2073
g54
(dp2074
g62
I5
ssg63
g2068
sg56
(lp2075
g92
asbasbasbag49
(g65
g51
NtRp2076
(dp2077
g54
(dp2078
sg63
g59
sg56
(lp2079
g49
(g70
g51
NtRp2080
(dp2081
g54
(dp2082
g74
g75
ssg63
g2076
sg56
(lp2083
S'now'
p2084
asbag49
(g70
g51
NtRp2085
(dp2086
g54
(dp2087
g81
g82
ssg63
g2076
sg56
(lp2088
S':'
asbag49
(g70
g51
NtRp2089
(dp2090
g54
(dp2091
sg63
g2076
sg56
(lp2092
g49
(g50
g51
NtRp2093
(dp2094
g54
(dp2095
g62
I5
ssg63
g2089
sg56
(lp2096
S'datetime.datetime(2012, 3, 11, 14, 46, 38, 139472)'
p2097
asbasbasbag49
(g65
g51
NtRp2098
(dp2099
g54
(dp2100
sg63
g59
sg56
(lp2101
g49
(g70
g51
NtRp2102
(dp2103
g54
(dp2104
g74
g75
ssg63
g2098
sg56
(lp2105
S'post_vars'
p2106
asbag49
(g70
g51
NtRp2107
(dp2108
g54
(dp2109
g81
g82
ssg63
g2098
sg56
(lp2110
S':'
asbag49
(g70
g51
NtRp2111
(dp2112
g54
(dp2113
sg63
g2098
sg56
(lp2114
g49
(g50
g51
NtRp2115
(dp2116
g54
(dp2117
g62
I5
ssg63
g2111
sg56
(lp2118
g49
(g58
g51
NtRp2119
(dp2120
g54
(dp2121
g62
I4
ssg63
Nsg56
(lp2122
sbasbasbasbag49
(g65
g51
NtRp2123
(dp2124
g54
(dp2125
sg63
g59
sg56
(lp2126
g49
(g70
g51
NtRp2127
(dp2128
g54
(dp2129
g74
g75
ssg63
g2123
sg56
(lp2130
S'url'
p2131
asbag49
(g70
g51
NtRp2132
(dp2133
g54
(dp2134
g81
g82
ssg63
g2123
sg56
(lp2135
S':'
asbag49
(g70
g51
NtRp2136
(dp2137
g54
(dp2138
sg63
g2123
sg56
(lp2139
g49
(g50
g51
NtRp2140
(dp2141
g54
(dp2142
g62
I5
ssg63
g2136
sg56
(lp2143
S'/test'
p2144
asbasbasbag49
(g65
g51
NtRp2145
(dp2146
g54
(dp2147
sg63
g59
sg56
(lp2148
g49
(g70
g51
NtRp2149
(dp2150
g54
(dp2151
g74
g75
ssg63
g2145
sg56
(lp2152
S'utcnow'
p2153
asbag49
(g70
g51
NtRp2154
(dp2155
g54
(dp2156
g81
g82
ssg63
g2145
sg56
(lp2157
S':'
asbag49
(g70
g51
NtRp2158
(dp2159
g54
(dp2160
sg63
g2145
sg56
(lp2161
g49
(g50
g51
NtRp2162
(dp2163
g54
(dp2164
g62
I5
ssg63
g2158
sg56
(lp2165
S'datetime.datetime(2012, 3, 11, 13, 46, 38, 139490)'
p2166
asbasbasbag49
(g65
g51
NtRp2167
(dp2168
g54
(dp2169
sg63
g59
sg56
(lp2170
g49
(g70
g51
NtRp2171
(dp2172
g54
(dp2173
g74
g75
ssg63
g2167
sg56
(lp2174
S'uuid'
p2175
asbag49
(g70
g51
NtRp2176
(dp2177
g54
(dp2178
g81
g82
ssg63
g2167
sg56
(lp2179
S':'
asbag49
(g70
g51
NtRp2180
(dp2181
g54
(dp2182
sg63
g2167
sg56
(lp2183
g49
(g50
g51
NtRp2184
(dp2185
g54
(dp2186
g62
I5
ssg63
g2180
sg56
(lp2187
S'udi0312/127.0.0.1.2012-03-11.14-46-38.89d37521-fda0-4e9f-86ef-cfed883be5b6'
p2188
asbasbasbag49
(g65
g51
NtRp2189
(dp2190
g54
(dp2191
sg63
g59
sg56
(lp2192
g49
(g70
g51
NtRp2193
(dp2194
g54
(dp2195
g74
g75
ssg63
g2189
sg56
(lp2196
S'vars'
p2197
asbag49
(g70
g51
NtRp2198
(dp2199
g54
(dp2200
g81
g82
ssg63
g2189
sg56
(lp2201
S':'
asbag49
(g70
g51
NtRp2202
(dp2203
g54
(dp2204
sg63
g2189
sg56
(lp2205
g49
(g50
g51
NtRp2206
(dp2207
g54
(dp2208
g62
I5
ssg63
g2202
sg56
(lp2209
g49
(g58
g51
NtRp2210
(dp2211
g54
(dp2212
g62
I4
ssg63
Nsg56
(lp2213
g49
(g65
g51
NtRp2214
(dp2215
g54
(dp2216
sg63
g2210
sg56
(lp2217
g49
(g70
g51
NtRp2218
(dp2219
g54
(dp2220
g74
g75
ssg63
g2214
sg56
(lp2221
g1681
asbag49
(g70
g51
NtRp2222
(dp2223
g54
(dp2224
g81
g82
ssg63
g2214
sg56
(lp2225
S':'
asbag49
(g70
g51
NtRp2226
(dp2227
g54
(dp2228
sg63
g2214
sg56
(lp2229
g49
(g50
g51
NtRp2230
(dp2231
g54
(dp2232
g62
I4
ssg63
g2226
sg56
(lp2233
g1694
asbasbasbasbasbasbasbag49
(g65
g51
NtRp2234
(dp2235
g54
(dp2236
sg63
g59
sg56
(lp2237
g49
(g70
g51
NtRp2238
(dp2239
g54
(dp2240
g74
g75
ssg63
g2234
sg56
(lp2241
S'wsgi'
p2242
asbag49
(g70
g51
NtRp2243
(dp2244
g54
(dp2245
g81
g82
ssg63
g2234
sg56
(lp2246
S':'
asbag49
(g70
g51
NtRp2247
(dp2248
g54
(dp2249
sg63
g2234
sg56
(lp2250
g49
(g50
g51
NtRp2251
(dp2252
g54
(dp2253
g62
I5
ssg63
g2247
sg56
(lp2254
g49
(g58
g51
NtRp2255
(dp2256
g54
(dp2257
g62
I4
ssg63
Nsg56
(lp2258
g49
(g65
g51
NtRp2259
(dp2260
g54
(dp2261
sg63
g2255
sg56
(lp2262
g49
(g70
g51
NtRp2263
(dp2264
g54
(dp2265
g74
g75
ssg63
g2259
sg56
(lp2266
S'environ'
p2267
asbag49
(g70
g51
NtRp2268
(dp2269
g54
(dp2270
g81
g82
ssg63
g2259
sg56
(lp2271
S':'
asbag49
(g70
g51
NtRp2272
(dp2273
g54
(dp2274
sg63
g2259
sg56
(lp2275
g49
(g50
g51
NtRp2276
(dp2277
g54
(dp2278
g62
I4
ssg63
g2272
sg56
(lp2279
g49
(g58
g51
NtRp2280
(dp2281
g54
(dp2282
g62
I3
ssg63
Nsg56
(lp2283
g49
(g65
g51
NtRp2284
(dp2285
g54
(dp2286
sg63
g2280
sg56
(lp2287
g49
(g70
g51
NtRp2288
(dp2289
g54
(dp2290
g74
g75
ssg63
g2284
sg56
(lp2291
S'HTTP_ACCEPT'
p2292
asbag49
(g70
g51
NtRp2293
(dp2294
g54
(dp2295
g81
g82
ssg63
g2284
sg56
(lp2296
S':'
asbag49
(g70
g51
NtRp2297
(dp2298
g54
(dp2299
sg63
g2284
sg56
(lp2300
g49
(g50
g51
NtRp2301
(dp2302
g54
(dp2303
g62
I3
ssg63
g2297
sg56
(lp2304
g769
asbasbasbag49
(g65
g51
NtRp2305
(dp2306
g54
(dp2307
sg63
g2280
sg56
(lp2308
g49
(g70
g51
NtRp2309
(dp2310
g54
(dp2311
g74
g75
ssg63
g2305
sg56
(lp2312
S'HTTP_ACCEPT_CHARSET'
p2313
asbag49
(g70
g51
NtRp2314
(dp2315
g54
(dp2316
g81
g82
ssg63
g2305
sg56
(lp2317
S':'
asbag49
(g70
g51
NtRp2318
(dp2319
g54
(dp2320
sg63
g2305
sg56
(lp2321
g49
(g50
g51
NtRp2322
(dp2323
g54
(dp2324
g62
I3
ssg63
g2318
sg56
(lp2325
g791
asbasbasbag49
(g65
g51
NtRp2326
(dp2327
g54
(dp2328
sg63
g2280
sg56
(lp2329
g49
(g70
g51
NtRp2330
(dp2331
g54
(dp2332
g74
g75
ssg63
g2326
sg56
(lp2333
S'HTTP_ACCEPT_ENCODING'
p2334
asbag49
(g70
g51
NtRp2335
(dp2336
g54
(dp2337
g81
g82
ssg63
g2326
sg56
(lp2338
S':'
asbag49
(g70
g51
NtRp2339
(dp2340
g54
(dp2341
sg63
g2326
sg56
(lp2342
g49
(g50
g51
NtRp2343
(dp2344
g54
(dp2345
g62
I3
ssg63
g2339
sg56
(lp2346
g813
asbasbasbag49
(g65
g51
NtRp2347
(dp2348
g54
(dp2349
sg63
g2280
sg56
(lp2350
g49
(g70
g51
NtRp2351
(dp2352
g54
(dp2353
g74
g75
ssg63
g2347
sg56
(lp2354
S'HTTP_ACCEPT_LANGUAGE'
p2355
asbag49
(g70
g51
NtRp2356
(dp2357
g54
(dp2358
g81
g82
ssg63
g2347
sg56
(lp2359
S':'
asbag49
(g70
g51
NtRp2360
(dp2361
g54
(dp2362
sg63
g2347
sg56
(lp2363
g49
(g50
g51
NtRp2364
(dp2365
g54
(dp2366
g62
I3
ssg63
g2360
sg56
(lp2367
g835
asbasbasbag49
(g65
g51
NtRp2368
(dp2369
g54
(dp2370
sg63
g2280
sg56
(lp2371
g49
(g70
g51
NtRp2372
(dp2373
g54
(dp2374
g74
g75
ssg63
g2368
sg56
(lp2375
S'HTTP_CACHE_CONTROL'
p2376
asbag49
(g70
g51
NtRp2377
(dp2378
g54
(dp2379
g81
g82
ssg63
g2368
sg56
(lp2380
S':'
asbag49
(g70
g51
NtRp2381
(dp2382
g54
(dp2383
sg63
g2368
sg56
(lp2384
g49
(g50
g51
NtRp2385
(dp2386
g54
(dp2387
g62
I3
ssg63
g2381
sg56
(lp2388
g857
asbasbasbag49
(g65
g51
NtRp2389
(dp2390
g54
(dp2391
sg63
g2280
sg56
(lp2392
g49
(g70
g51
NtRp2393
(dp2394
g54
(dp2395
g74
g75
ssg63
g2389
sg56
(lp2396
S'HTTP_CONNECTION'
p2397
asbag49
(g70
g51
NtRp2398
(dp2399
g54
(dp2400
g81
g82
ssg63
g2389
sg56
(lp2401
S':'
asbag49
(g70
g51
NtRp2402
(dp2403
g54
(dp2404
sg63
g2389
sg56
(lp2405
g49
(g50
g51
NtRp2406
(dp2407
g54
(dp2408
g62
I3
ssg63
g2402
sg56
(lp2409
g879
asbasbasbag49
(g65
g51
NtRp2410
(dp2411
g54
(dp2412
sg63
g2280
sg56
(lp2413
g49
(g70
g51
NtRp2414
(dp2415
g54
(dp2416
g74
g75
ssg63
g2410
sg56
(lp2417
S'HTTP_COOKIE'
p2418
asbag49
(g70
g51
NtRp2419
(dp2420
g54
(dp2421
g81
g82
ssg63
g2410
sg56
(lp2422
S':'
asbag49
(g70
g51
NtRp2423
(dp2424
g54
(dp2425
sg63
g2410
sg56
(lp2426
g49
(g50
g51
NtRp2427
(dp2428
g54
(dp2429
g62
I3
ssg63
g2423
sg56
(lp2430
g901
asbasbasbag49
(g65
g51
NtRp2431
(dp2432
g54
(dp2433
sg63
g2280
sg56
(lp2434
g49
(g70
g51
NtRp2435
(dp2436
g54
(dp2437
g74
g75
ssg63
g2431
sg56
(lp2438
S'HTTP_HOST'
p2439
asbag49
(g70
g51
NtRp2440
(dp2441
g54
(dp2442
g81
g82
ssg63
g2431
sg56
(lp2443
S':'
asbag49
(g70
g51
NtRp2444
(dp2445
g54
(dp2446
sg63
g2431
sg56
(lp2447
g49
(g50
g51
NtRp2448
(dp2449
g54
(dp2450
g62
I3
ssg63
g2444
sg56
(lp2451
g923
asbasbasbag49
(g65
g51
NtRp2452
(dp2453
g54
(dp2454
sg63
g2280
sg56
(lp2455
g49
(g70
g51
NtRp2456
(dp2457
g54
(dp2458
g74
g75
ssg63
g2452
sg56
(lp2459
S'HTTP_USER_AGENT'
p2460
asbag49
(g70
g51
NtRp2461
(dp2462
g54
(dp2463
g81
g82
ssg63
g2452
sg56
(lp2464
S':'
asbag49
(g70
g51
NtRp2465
(dp2466
g54
(dp2467
sg63
g2452
sg56
(lp2468
g49
(g50
g51
NtRp2469
(dp2470
g54
(dp2471
g62
I3
ssg63
g2465
sg56
(lp2472
g945
asbasbasbag49
(g65
g51
NtRp2473
(dp2474
g54
(dp2475
sg63
g2280
sg56
(lp2476
g49
(g70
g51
NtRp2477
(dp2478
g54
(dp2479
g74
g75
ssg63
g2473
sg56
(lp2480
S'PATH_INFO'
p2481
asbag49
(g70
g51
NtRp2482
(dp2483
g54
(dp2484
g81
g82
ssg63
g2473
sg56
(lp2485
S':'
asbag49
(g70
g51
NtRp2486
(dp2487
g54
(dp2488
sg63
g2473
sg56
(lp2489
g49
(g50
g51
NtRp2490
(dp2491
g54
(dp2492
g62
I3
ssg63
g2486
sg56
(lp2493
g1009
asbasbasbag49
(g65
g51
NtRp2494
(dp2495
g54
(dp2496
sg63
g2280
sg56
(lp2497
g49
(g70
g51
NtRp2498
(dp2499
g54
(dp2500
g74
g75
ssg63
g2494
sg56
(lp2501
S'QUERY_STRING'
p2502
asbag49
(g70
g51
NtRp2503
(dp2504
g54
(dp2505
g81
g82
ssg63
g2494
sg56
(lp2506
S':'
asbag49
(g70
g51
NtRp2507
(dp2508
g54
(dp2509
sg63
g2494
sg56
(lp2510
g49
(g50
g51
NtRp2511
(dp2512
g54
(dp2513
g62
I3
ssg63
g2507
sg56
(lp2514
g1031
asbasbasbag49
(g65
g51
NtRp2515
(dp2516
g54
(dp2517
sg63
g2280
sg56
(lp2518
g49
(g70
g51
NtRp2519
(dp2520
g54
(dp2521
g74
g75
ssg63
g2515
sg56
(lp2522
S'REMOTE_ADDR'
p2523
asbag49
(g70
g51
NtRp2524
(dp2525
g54
(dp2526
g81
g82
ssg63
g2515
sg56
(lp2527
S':'
asbag49
(g70
g51
NtRp2528
(dp2529
g54
(dp2530
sg63
g2515
sg56
(lp2531
g49
(g50
g51
NtRp2532
(dp2533
g54
(dp2534
g62
I3
ssg63
g2528
sg56
(lp2535
g182
asbasbasbag49
(g65
g51
NtRp2536
(dp2537
g54
(dp2538
sg63
g2280
sg56
(lp2539
g49
(g70
g51
NtRp2540
(dp2541
g54
(dp2542
g74
g75
ssg63
g2536
sg56
(lp2543
S'REMOTE_PORT'
p2544
asbag49
(g70
g51
NtRp2545
(dp2546
g54
(dp2547
g81
g82
ssg63
g2536
sg56
(lp2548
S':'
asbag49
(g70
g51
NtRp2549
(dp2550
g54
(dp2551
sg63
g2536
sg56
(lp2552
g49
(g50
g51
NtRp2553
(dp2554
g54
(dp2555
g62
I3
ssg63
g2549
sg56
(lp2556
g1074
asbasbasbag49
(g65
g51
NtRp2557
(dp2558
g54
(dp2559
sg63
g2280
sg56
(lp2560
g49
(g70
g51
NtRp2561
(dp2562
g54
(dp2563
g74
g75
ssg63
g2557
sg56
(lp2564
S'REQUEST_METHOD'
p2565
asbag49
(g70
g51
NtRp2566
(dp2567
g54
(dp2568
g81
g82
ssg63
g2557
sg56
(lp2569
S':'
asbag49
(g70
g51
NtRp2570
(dp2571
g54
(dp2572
sg63
g2557
sg56
(lp2573
g49
(g50
g51
NtRp2574
(dp2575
g54
(dp2576
g62
I3
ssg63
g2570
sg56
(lp2577
g1096
asbasbasbag49
(g65
g51
NtRp2578
(dp2579
g54
(dp2580
sg63
g2280
sg56
(lp2581
g49
(g70
g51
NtRp2582
(dp2583
g54
(dp2584
g74
g75
ssg63
g2578
sg56
(lp2585
S'REQUEST_URI'
p2586
asbag49
(g70
g51
NtRp2587
(dp2588
g54
(dp2589
g81
g82
ssg63
g2578
sg56
(lp2590
S':'
asbag49
(g70
g51
NtRp2591
(dp2592
g54
(dp2593
sg63
g2578
sg56
(lp2594
g49
(g50
g51
NtRp2595
(dp2596
g54
(dp2597
g62
I3
ssg63
g2591
sg56
(lp2598
g1118
asbasbasbag49
(g65
g51
NtRp2599
(dp2600
g54
(dp2601
sg63
g2280
sg56
(lp2602
g49
(g70
g51
NtRp2603
(dp2604
g54
(dp2605
g74
g75
ssg63
g2599
sg56
(lp2606
S'SCRIPT_NAME'
p2607
asbag49
(g70
g51
NtRp2608
(dp2609
g54
(dp2610
g81
g82
ssg63
g2599
sg56
(lp2611
S':'
asbag49
(g70
g51
NtRp2612
(dp2613
g54
(dp2614
sg63
g2599
sg56
(lp2615
g49
(g50
g51
NtRp2616
(dp2617
g54
(dp2618
g62
I3
ssg63
g2612
sg56
(lp2619
S''
asbasbasbag49
(g65
g51
NtRp2620
(dp2621
g54
(dp2622
sg63
g2280
sg56
(lp2623
g49
(g70
g51
NtRp2624
(dp2625
g54
(dp2626
g74
g75
ssg63
g2620
sg56
(lp2627
S'SERVER_NAME'
p2628
asbag49
(g70
g51
NtRp2629
(dp2630
g54
(dp2631
g81
g82
ssg63
g2620
sg56
(lp2632
S':'
asbag49
(g70
g51
NtRp2633
(dp2634
g54
(dp2635
sg63
g2620
sg56
(lp2636
g49
(g50
g51
NtRp2637
(dp2638
g54
(dp2639
g62
I3
ssg63
g2633
sg56
(lp2640
g1161
asbasbasbag49
(g65
g51
NtRp2641
(dp2642
g54
(dp2643
sg63
g2280
sg56
(lp2644
g49
(g70
g51
NtRp2645
(dp2646
g54
(dp2647
g74
g75
ssg63
g2641
sg56
(lp2648
S'SERVER_PORT'
p2649
asbag49
(g70
g51
NtRp2650
(dp2651
g54
(dp2652
g81
g82
ssg63
g2641
sg56
(lp2653
S':'
asbag49
(g70
g51
NtRp2654
(dp2655
g54
(dp2656
sg63
g2641
sg56
(lp2657
g49
(g50
g51
NtRp2658
(dp2659
g54
(dp2660
g62
I3
ssg63
g2654
sg56
(lp2661
g1183
asbasbasbag49
(g65
g51
NtRp2662
(dp2663
g54
(dp2664
sg63
g2280
sg56
(lp2665
g49
(g70
g51
NtRp2666
(dp2667
g54
(dp2668
g74
g75
ssg63
g2662
sg56
(lp2669
S'SERVER_PROTOCOL'
p2670
asbag49
(g70
g51
NtRp2671
(dp2672
g54
(dp2673
g81
g82
ssg63
g2662
sg56
(lp2674
S':'
asbag49
(g70
g51
NtRp2675
(dp2676
g54
(dp2677
sg63
g2662
sg56
(lp2678
g49
(g50
g51
NtRp2679
(dp2680
g54
(dp2681
g62
I3
ssg63
g2675
sg56
(lp2682
g1205
asbasbasbag49
(g65
g51
NtRp2683
(dp2684
g54
(dp2685
sg63
g2280
sg56
(lp2686
g49
(g70
g51
NtRp2687
(dp2688
g54
(dp2689
g74
g75
ssg63
g2683
sg56
(lp2690
S'SERVER_SOFTWARE'
p2691
asbag49
(g70
g51
NtRp2692
(dp2693
g54
(dp2694
g81
g82
ssg63
g2683
sg56
(lp2695
S':'
asbag49
(g70
g51
NtRp2696
(dp2697
g54
(dp2698
sg63
g2683
sg56
(lp2699
g49
(g50
g51
NtRp2700
(dp2701
g54
(dp2702
g62
I3
ssg63
g2696
sg56
(lp2703
g1227
asbasbasbag49
(g65
g51
NtRp2704
(dp2705
g54
(dp2706
sg63
g2280
sg56
(lp2707
g49
(g70
g51
NtRp2708
(dp2709
g54
(dp2710
g74
g75
ssg63
g2704
sg56
(lp2711
S'WEB2PY_ORIGINAL_URI'
p2712
asbag49
(g70
g51
NtRp2713
(dp2714
g54
(dp2715
g81
g82
ssg63
g2704
sg56
(lp2716
S':'
asbag49
(g70
g51
NtRp2717
(dp2718
g54
(dp2719
sg63
g2704
sg56
(lp2720
g49
(g50
g51
NtRp2721
(dp2722
g54
(dp2723
g62
I3
ssg63
g2717
sg56
(lp2724
g1271
asbasbasbag49
(g65
g51
NtRp2725
(dp2726
g54
(dp2727
sg63
g2280
sg56
(lp2728
g49
(g70
g51
NtRp2729
(dp2730
g54
(dp2731
g74
g75
ssg63
g2725
sg56
(lp2732
S'wsgi.errors'
p2733
asbag49
(g70
g51
NtRp2734
(dp2735
g54
(dp2736
g81
g82
ssg63
g2725
sg56
(lp2737
S':'
asbag49
(g70
g51
NtRp2738
(dp2739
g54
(dp2740
sg63
g2725
sg56
(lp2741
g49
(g50
g51
NtRp2742
(dp2743
g54
(dp2744
g62
I3
ssg63
g2738
sg56
(lp2745
S"<open file '<stderr>', mode 'w' at 0x4220b0>"
p2746
asbasbasbag49
(g65
g51
NtRp2747
(dp2748
g54
(dp2749
sg63
g2280
sg56
(lp2750
g49
(g70
g51
NtRp2751
(dp2752
g54
(dp2753
g74
g75
ssg63
g2747
sg56
(lp2754
S'wsgi.file_wrapper'
p2755
asbag49
(g70
g51
NtRp2756
(dp2757
g54
(dp2758
g81
g82
ssg63
g2747
sg56
(lp2759
S':'
asbag49
(g70
g51
NtRp2760
(dp2761
g54
(dp2762
sg63
g2747
sg56
(lp2763
g49
(g50
g51
NtRp2764
(dp2765
g54
(dp2766
g62
I3
ssg63
g2760
sg56
(lp2767
S'<class wsgiref.util.FileWrapper at 0x24746c0>'
p2768
asbasbasbag49
(g65
g51
NtRp2769
(dp2770
g54
(dp2771
sg63
g2280
sg56
(lp2772
g49
(g70
g51
NtRp2773
(dp2774
g54
(dp2775
g74
g75
ssg63
g2769
sg56
(lp2776
S'wsgi.input'
p2777
asbag49
(g70
g51
NtRp2778
(dp2779
g54
(dp2780
g81
g82
ssg63
g2769
sg56
(lp2781
S':'
asbag49
(g70
g51
NtRp2782
(dp2783
g54
(dp2784
sg63
g2769
sg56
(lp2785
g49
(g50
g51
NtRp2786
(dp2787
g54
(dp2788
g62
I3
ssg63
g2782
sg56
(lp2789
S'<cStringIO.StringO object at 0x8ce9e60>'
p2790
asbasbasbag49
(g65
g51
NtRp2791
(dp2792
g54
(dp2793
sg63
g2280
sg56
(lp2794
g49
(g70
g51
NtRp2795
(dp2796
g54
(dp2797
g74
g75
ssg63
g2791
sg56
(lp2798
S'wsgi.multiprocess'
p2799
asbag49
(g70
g51
NtRp2800
(dp2801
g54
(dp2802
g81
g82
ssg63
g2791
sg56
(lp2803
S':'
asbag49
(g70
g51
NtRp2804
(dp2805
g54
(dp2806
sg63
g2791
sg56
(lp2807
g49
(g50
g51
NtRp2808
(dp2809
g54
(dp2810
g62
I3
ssg63
g2804
sg56
(lp2811
g92
asbasbasbag49
(g65
g51
NtRp2812
(dp2813
g54
(dp2814
sg63
g2280
sg56
(lp2815
g49
(g70
g51
NtRp2816
(dp2817
g54
(dp2818
g74
g75
ssg63
g2812
sg56
(lp2819
S'wsgi.multithread'
p2820
asbag49
(g70
g51
NtRp2821
(dp2822
g54
(dp2823
g81
g82
ssg63
g2812
sg56
(lp2824
S':'
asbag49
(g70
g51
NtRp2825
(dp2826
g54
(dp2827
sg63
g2812
sg56
(lp2828
g49
(g50
g51
NtRp2829
(dp2830
g54
(dp2831
g62
I3
ssg63
g2825
sg56
(lp2832
g1489
asbasbasbag49
(g65
g51
NtRp2833
(dp2834
g54
(dp2835
sg63
g2280
sg56
(lp2836
g49
(g70
g51
NtRp2837
(dp2838
g54
(dp2839
g74
g75
ssg63
g2833
sg56
(lp2840
S'wsgi.run_once'
p2841
asbag49
(g70
g51
NtRp2842
(dp2843
g54
(dp2844
g81
g82
ssg63
g2833
sg56
(lp2845
S':'
asbag49
(g70
g51
NtRp2846
(dp2847
g54
(dp2848
sg63
g2833
sg56
(lp2849
g49
(g50
g51
NtRp2850
(dp2851
g54
(dp2852
g62
I3
ssg63
g2846
sg56
(lp2853
g92
asbasbasbag49
(g65
g51
NtRp2854
(dp2855
g54
(dp2856
sg63
g2280
sg56
(lp2857
g49
(g70
g51
NtRp2858
(dp2859
g54
(dp2860
g74
g75
ssg63
g2854
sg56
(lp2861
S'wsgi.url_scheme'
p2862
asbag49
(g70
g51
NtRp2863
(dp2864
g54
(dp2865
g81
g82
ssg63
g2854
sg56
(lp2866
S':'
asbag49
(g70
g51
NtRp2867
(dp2868
g54
(dp2869
sg63
g2854
sg56
(lp2870
g49
(g50
g51
NtRp2871
(dp2872
g54
(dp2873
g62
I3
ssg63
g2867
sg56
(lp2874
g1532
asbasbasbag49
(g65
g51
NtRp2875
(dp2876
g54
(dp2877
sg63
g2280
sg56
(lp2878
g49
(g70
g51
NtRp2879
(dp2880
g54
(dp2881
g74
g75
ssg63
g2875
sg56
(lp2882
S'wsgi.version'
p2883
asbag49
(g70
g51
NtRp2884
(dp2885
g54
(dp2886
g81
g82
ssg63
g2875
sg56
(lp2887
S':'
asbag49
(g70
g51
NtRp2888
(dp2889
g54
(dp2890
sg63
g2875
sg56
(lp2891
g49
(g50
g51
NtRp2892
(dp2893
g54
(dp2894
g62
I3
ssg63
g2888
sg56
(lp2895
S'1'
asbasbasbasbasbasbasbasbasbasbasbasbasbsS'frames'
p2896
(lp2897
(dp2898
S'file'
p2899
S'/users/udimilo/Documents/web2py/gluon/restricted.py'
p2900
sS'dump'
p2901
(dp2902
S'environment'
p2903
S"{'A': <class 'gluon.html.A'>, 'Auth': <class 'gluon.tools.Auth'>, 'B': <class 'gluon.html.B'>, 'BEAUTIFY': <class 'gluon.html.BEAUTIFY'>, 'BODY': <class 'gluon.html.BODY'>, 'BR': <class 'gluon.html.BR'>, 'BUTTON': <class 'gluon.html.BUTTON'>, 'CAT': <class 'gluon.html.CAT'>, 'CENTER': <class 'gluon.html.CENTER'>, 'CLEANUP': <class 'gluon.validators.CLEANUP'>, ...}"
p2904
sS'ccode'
p2905
S'<code object <module> at 0xa6ab9f8, file "/Users...cations/udi0312/controllers/default.py", line 11>'
p2906
ssS'lnum'
p2907
I205
sS'lines'
p2908
(dp2909
I200
S'    try:'
p2910
sI201
S'        if type(code) == types.CodeType:'
p2911
sI202
S'            ccode = code'
p2912
sI203
S'        else:'
p2913
sI204
S'            ccode = compile2(code,layer)'
p2914
sI205
S'        exec ccode in environment'
p2915
sI206
S'    except HTTP:'
p2916
sI207
S'        raise'
p2917
sI208
S'    except RestrictedError:'
p2918
sI209
S'        # do not encapsulate (obfuscate) the original RestrictedError'
p2919
ssS'call'
p2920
S"(code='# -*- coding: utf-8 -*-\\n# this file is released ...m=crud())\\n\\nresponse._vars=response._caller(test)\\n', environment={'A': <class 'gluon.html.A'>, 'Auth': <class 'gluon.tools.Auth'>, 'B': <class 'gluon.html.B'>, 'BEAUTIFY': <class 'gluon.html.BEAUTIFY'>, 'BODY': <class 'gluon.html.BODY'>, 'BR': <class 'gluon.html.BR'>, 'BUTTON': <class 'gluon.html.BUTTON'>, 'CAT': <class 'gluon.html.CAT'>, 'CENTER': <class 'gluon.html.CENTER'>, 'CLEANUP': <class 'gluon.validators.CLEANUP'>, ...}, layer='/Users/udimilo/Documents/web2py/applications/udi0312/controllers/default.py')"
p2921
sS'func'
p2922
S'restricted'
p2923
sa(dp2924
g2899
S'/Users/udimilo/Documents/web2py/applications/udi0312/controllers/default.py'
p2925
sg2901
(dp2926
sg2907
I88
sg2908
(dp2927
I77
S'    http://..../[app]/default/data/update/[table]/[id]'
p2928
sI78
S'    http://..../[app]/default/data/delete/[table]/[id]'
p2929
sI79
S'    http://..../[app]/default/data/select/[table]'
p2930
sI80
S'    http://..../[app]/default/data/search/[table]'
p2931
sI81
S'    but URLs must be signed, i.e. linked with'
p2932
sI82
S"      A('table',_href=URL('data/tables',user_signature=True))"
p2933
sI83
S'    or with the signed load operator'
p2934
sI84
S"      LOAD('default','data.load',args='tables',ajax=True,user_signature=True)"
p2935
sI85
S'    """'
p2936
sI86
S'    return dict(form=crud())'
p2937
ssg2920
S'()'
p2938
sg2922
S'<module>'
p2939
sa(dp2940
g2899
S'/users/udimilo/Documents/web2py/gluon/globals.py'
p2941
sg2901
(dp2942
S'self'
p2943
S'undefined'
p2944
sS'f'
S'<function test at 0xa6da830>'
p2945
ssg2907
I173
sg2908
(dp2946
I168
S'        self.menu = []             # used by the default view layout'
p2947
sI169
S'        self.files = []            # used by web2py_ajax.html'
p2948
sI170
S'        self.generic_patterns = [] # patterns to allow generic views'
p2949
sI171
S"        self.delimiters = ('{{','}}')"
p2950
sI172
S'        self._vars = None'
p2951
sI173
S'        self._caller = lambda f: f()'
p2952
sI174
S'        self._view_environment = None'
p2953
sI175
S'        self._custom_commit = None'
p2954
sI176
S'        self._custom_rollback = None'
p2955
sI177
S''
ssg2920
S'(f=<function test at 0xa6da830>)'
p2956
sg2922
S'<lambda>'
p2957
sa(dp2958
g2899
S'/Users/udimilo/Documents/web2py/applications/udi0312/controllers/default.py'
p2959
sg2901
(dp2960
S'content'
p2961
g2944
ssg2907
I33
sg2908
(dp2962
I32
S"    json = read.content('http://techcrunch.com/2012/03/08/savingstar-series-c/')"
p2963
sI33
S'    return content.text'
p2964
sI34
S"    return json['content']"
p2965
sI35
S''
sI36
S'def user():'
p2966
sI37
S'    """'
p2967
sI28
S'    return board.id'
p2968
sI29
S''
sI30
S'def test():'
p2969
sI31
S'    read = Readability()'
p2970
ssg2920
S'()'
p2971
sg2922
S'test'
p2972
sasS'pyver'
p2973
S'Python 2.5.4: /Library/Frameworks/Python.framework/Versions/2.5/Resources/Python.app/Contents/MacOS/Python'
p2974
sS'session'
p2975
g49
(g50
g51
NtRp2976
(dp2977
g54
(dp2978
sg56
(lp2979
g49
(g58
g51
NtRp2980
(dp2981
g54
(dp2982
g62
I5
ssg63
Nsg56
(lp2983
g49
(g65
g51
NtRp2984
(dp2985
g54
(dp2986
sg63
g2980
sg56
(lp2987
g49
(g70
g51
NtRp2988
(dp2989
g54
(dp2990
g74
g75
ssg63
g2984
sg56
(lp2991
S'auth'
p2992
asbag49
(g70
g51
NtRp2993
(dp2994
g54
(dp2995
g81
g82
ssg63
g2984
sg56
(lp2996
S':'
asbag49
(g70
g51
NtRp2997
(dp2998
g54
(dp2999
sg63
g2984
sg56
(lp3000
g49
(g50
g51
NtRp3001
(dp3002
g54
(dp3003
g62
I5
ssg63
g2997
sg56
(lp3004
g49
(g58
g51
NtRp3005
(dp3006
g54
(dp3007
g62
I4
ssg63
Nsg56
(lp3008
g49
(g65
g51
NtRp3009
(dp3010
g54
(dp3011
sg63
g3005
sg56
(lp3012
g49
(g70
g51
NtRp3013
(dp3014
g54
(dp3015
g74
g75
ssg63
g3009
sg56
(lp3016
S'expiration'
p3017
asbag49
(g70
g51
NtRp3018
(dp3019
g54
(dp3020
g81
g82
ssg63
g3009
sg56
(lp3021
S':'
asbag49
(g70
g51
NtRp3022
(dp3023
g54
(dp3024
sg63
g3009
sg56
(lp3025
g49
(g50
g51
NtRp3026
(dp3027
g54
(dp3028
g62
I4
ssg63
g3022
sg56
(lp3029
S'2592000'
p3030
asbasbasbag49
(g65
g51
NtRp3031
(dp3032
g54
(dp3033
sg63
g3005
sg56
(lp3034
g49
(g70
g51
NtRp3035
(dp3036
g54
(dp3037
g74
g75
ssg63
g3031
sg56
(lp3038
S'hmac_key'
p3039
asbag49
(g70
g51
NtRp3040
(dp3041
g54
(dp3042
g81
g82
ssg63
g3031
sg56
(lp3043
S':'
asbag49
(g70
g51
NtRp3044
(dp3045
g54
(dp3046
sg63
g3031
sg56
(lp3047
g49
(g50
g51
NtRp3048
(dp3049
g54
(dp3050
g62
I4
ssg63
g3044
sg56
(lp3051
S'e95fb5e0-f68d-430e-a660-5148e97bc5df'
p3052
asbasbasbag49
(g65
g51
NtRp3053
(dp3054
g54
(dp3055
sg63
g3005
sg56
(lp3056
g49
(g70
g51
NtRp3057
(dp3058
g54
(dp3059
g74
g75
ssg63
g3053
sg56
(lp3060
S'last_visit'
p3061
asbag49
(g70
g51
NtRp3062
(dp3063
g54
(dp3064
g81
g82
ssg63
g3053
sg56
(lp3065
S':'
asbag49
(g70
g51
NtRp3066
(dp3067
g54
(dp3068
sg63
g3053
sg56
(lp3069
g49
(g50
g51
NtRp3070
(dp3071
g54
(dp3072
g62
I4
ssg63
g3066
sg56
(lp3073
S'datetime.datetime(2012, 3, 8, 21, 10, 48, 287338)'
p3074
asbasbasbag49
(g65
g51
NtRp3075
(dp3076
g54
(dp3077
sg63
g3005
sg56
(lp3078
g49
(g70
g51
NtRp3079
(dp3080
g54
(dp3081
g74
g75
ssg63
g3075
sg56
(lp3082
S'remember'
p3083
asbag49
(g70
g51
NtRp3084
(dp3085
g54
(dp3086
g81
g82
ssg63
g3075
sg56
(lp3087
S':'
asbag49
(g70
g51
NtRp3088
(dp3089
g54
(dp3090
sg63
g3075
sg56
(lp3091
g49
(g50
g51
NtRp3092
(dp3093
g54
(dp3094
g62
I4
ssg63
g3088
sg56
(lp3095
g1489
asbasbasbag49
(g65
g51
NtRp3096
(dp3097
g54
(dp3098
sg63
g3005
sg56
(lp3099
g49
(g70
g51
NtRp3100
(dp3101
g54
(dp3102
g74
g75
ssg63
g3096
sg56
(lp3103
S'user'
p3104
asbag49
(g70
g51
NtRp3105
(dp3106
g54
(dp3107
g81
g82
ssg63
g3096
sg56
(lp3108
S':'
asbag49
(g70
g51
NtRp3109
(dp3110
g54
(dp3111
sg63
g3096
sg56
(lp3112
g49
(g50
g51
NtRp3113
(dp3114
g54
(dp3115
g62
I4
ssg63
g3109
sg56
(lp3116
g49
(g58
g51
NtRp3117
(dp3118
g54
(dp3119
g62
I3
ssg63
Nsg56
(lp3120
g49
(g65
g51
NtRp3121
(dp3122
g54
(dp3123
sg63
g3117
sg56
(lp3124
g49
(g70
g51
NtRp3125
(dp3126
g54
(dp3127
g74
g75
ssg63
g3121
sg56
(lp3128
S'email'
p3129
asbag49
(g70
g51
NtRp3130
(dp3131
g54
(dp3132
g81
g82
ssg63
g3121
sg56
(lp3133
S':'
asbag49
(g70
g51
NtRp3134
(dp3135
g54
(dp3136
sg63
g3121
sg56
(lp3137
g49
(g50
g51
NtRp3138
(dp3139
g54
(dp3140
g62
I3
ssg63
g3134
sg56
(lp3141
S'udimilo@gmail.com'
p3142
asbasbasbag49
(g65
g51
NtRp3143
(dp3144
g54
(dp3145
sg63
g3117
sg56
(lp3146
g49
(g70
g51
NtRp3147
(dp3148
g54
(dp3149
g74
g75
ssg63
g3143
sg56
(lp3150
S'first_name'
p3151
asbag49
(g70
g51
NtRp3152
(dp3153
g54
(dp3154
g81
g82
ssg63
g3143
sg56
(lp3155
S':'
asbag49
(g70
g51
NtRp3156
(dp3157
g54
(dp3158
sg63
g3143
sg56
(lp3159
g49
(g50
g51
NtRp3160
(dp3161
g54
(dp3162
g62
I3
ssg63
g3156
sg56
(lp3163
S'Udi'
p3164
asbasbasbag49
(g65
g51
NtRp3165
(dp3166
g54
(dp3167
sg63
g3117
sg56
(lp3168
g49
(g70
g51
NtRp3169
(dp3170
g54
(dp3171
g74
g75
ssg63
g3165
sg56
(lp3172
S'id'
p3173
asbag49
(g70
g51
NtRp3174
(dp3175
g54
(dp3176
g81
g82
ssg63
g3165
sg56
(lp3177
S':'
asbag49
(g70
g51
NtRp3178
(dp3179
g54
(dp3180
sg63
g3165
sg56
(lp3181
g49
(g50
g51
NtRp3182
(dp3183
g54
(dp3184
g62
I3
ssg63
g3178
sg56
(lp3185
S'1'
asbasbasbag49
(g65
g51
NtRp3186
(dp3187
g54
(dp3188
sg63
g3117
sg56
(lp3189
g49
(g70
g51
NtRp3190
(dp3191
g54
(dp3192
g74
g75
ssg63
g3186
sg56
(lp3193
S'last_name'
p3194
asbag49
(g70
g51
NtRp3195
(dp3196
g54
(dp3197
g81
g82
ssg63
g3186
sg56
(lp3198
S':'
asbag49
(g70
g51
NtRp3199
(dp3200
g54
(dp3201
sg63
g3186
sg56
(lp3202
g49
(g50
g51
NtRp3203
(dp3204
g54
(dp3205
g62
I3
ssg63
g3199
sg56
(lp3206
S'Milo'
p3207
asbasbasbag49
(g65
g51
NtRp3208
(dp3209
g54
(dp3210
sg63
g3117
sg56
(lp3211
g49
(g70
g51
NtRp3212
(dp3213
g54
(dp3214
g74
g75
ssg63
g3208
sg56
(lp3215
S'password'
p3216
asbag49
(g70
g51
NtRp3217
(dp3218
g54
(dp3219
g81
g82
ssg63
g3208
sg56
(lp3220
S':'
asbag49
(g70
g51
NtRp3221
(dp3222
g54
(dp3223
sg63
g3208
sg56
(lp3224
g49
(g50
g51
NtRp3225
(dp3226
g54
(dp3227
g62
I3
ssg63
g3221
sg56
(lp3228
S'7a6e3c6a68ceed66634484a3f64a3468'
p3229
asbasbasbag49
(g65
g51
NtRp3230
(dp3231
g54
(dp3232
sg63
g3117
sg56
(lp3233
g49
(g70
g51
NtRp3234
(dp3235
g54
(dp3236
g74
g75
ssg63
g3230
sg56
(lp3237
S'registration_id'
p3238
asbag49
(g70
g51
NtRp3239
(dp3240
g54
(dp3241
g81
g82
ssg63
g3230
sg56
(lp3242
S':'
asbag49
(g70
g51
NtRp3243
(dp3244
g54
(dp3245
sg63
g3230
sg56
(lp3246
g49
(g50
g51
NtRp3247
(dp3248
g54
(dp3249
g62
I3
ssg63
g3243
sg56
(lp3250
S''
asbasbasbag49
(g65
g51
NtRp3251
(dp3252
g54
(dp3253
sg63
g3117
sg56
(lp3254
g49
(g70
g51
NtRp3255
(dp3256
g54
(dp3257
g74
g75
ssg63
g3251
sg56
(lp3258
S'registration_key'
p3259
asbag49
(g70
g51
NtRp3260
(dp3261
g54
(dp3262
g81
g82
ssg63
g3251
sg56
(lp3263
S':'
asbag49
(g70
g51
NtRp3264
(dp3265
g54
(dp3266
sg63
g3251
sg56
(lp3267
g49
(g50
g51
NtRp3268
(dp3269
g54
(dp3270
g62
I3
ssg63
g3264
sg56
(lp3271
S''
asbasbasbag49
(g65
g51
NtRp3272
(dp3273
g54
(dp3274
sg63
g3117
sg56
(lp3275
g49
(g70
g51
NtRp3276
(dp3277
g54
(dp3278
g74
g75
ssg63
g3272
sg56
(lp3279
S'reset_password_key'
p3280
asbag49
(g70
g51
NtRp3281
(dp3282
g54
(dp3283
g81
g82
ssg63
g3272
sg56
(lp3284
S':'
asbag49
(g70
g51
NtRp3285
(dp3286
g54
(dp3287
sg63
g3272
sg56
(lp3288
g49
(g50
g51
NtRp3289
(dp3290
g54
(dp3291
g62
I3
ssg63
g3285
sg56
(lp3292
S''
asbasbasbasbasbasbasbag49
(g65
g51
NtRp3293
(dp3294
g54
(dp3295
sg63
g3005
sg56
(lp3296
g49
(g70
g51
NtRp3297
(dp3298
g54
(dp3299
g74
g75
ssg63
g3293
sg56
(lp3300
S'user_groups'
p3301
asbag49
(g70
g51
NtRp3302
(dp3303
g54
(dp3304
g81
g82
ssg63
g3293
sg56
(lp3305
S':'
asbag49
(g70
g51
NtRp3306
(dp3307
g54
(dp3308
sg63
g3293
sg56
(lp3309
g49
(g50
g51
NtRp3310
(dp3311
g54
(dp3312
g62
I4
ssg63
g3306
sg56
(lp3313
g49
(g58
g51
NtRp3314
(dp3315
g54
(dp3316
g62
I3
ssg63
Nsg56
(lp3317
g49
(g65
g51
NtRp3318
(dp3319
g54
(dp3320
sg63
g3314
sg56
(lp3321
g49
(g70
g51
NtRp3322
(dp3323
g54
(dp3324
g74
g75
ssg63
g3318
sg56
(lp3325
S'1'
asbag49
(g70
g51
NtRp3326
(dp3327
g54
(dp3328
g81
g82
ssg63
g3318
sg56
(lp3329
S':'
asbag49
(g70
g51
NtRp3330
(dp3331
g54
(dp3332
sg63
g3318
sg56
(lp3333
g49
(g50
g51
NtRp3334
(dp3335
g54
(dp3336
g62
I3
ssg63
g3330
sg56
(lp3337
S'user_1'
p3338
asbasbasbasbasbasbasbasbasbasbasbag49
(g65
g51
NtRp3339
(dp3340
g54
(dp3341
sg63
g2980
sg56
(lp3342
g49
(g70
g51
NtRp3343
(dp3344
g54
(dp3345
g74
g75
ssg63
g3339
sg56
(lp3346
S'last_query'
p3347
asbag49
(g70
g51
NtRp3348
(dp3349
g54
(dp3350
g81
g82
ssg63
g3339
sg56
(lp3351
S':'
asbag49
(g70
g51
NtRp3352
(dp3353
g54
(dp3354
sg63
g3339
sg56
(lp3355
g49
(g50
g51
NtRp3356
(dp3357
g54
(dp3358
g62
I5
ssg63
g3352
sg56
(lp3359
S'db.board.id>0'
p3360
asbasbasbasbasbsS'etype'
p3361
S"<type 'exceptions.NameError'>"
p3362
sS'date'
p3363
S'Sun Mar 11 14:46:39 2012'
p3364
sS'response'
p3365
g49
(g50
g51
NtRp3366
(dp3367
g54
(dp3368
sg56
(lp3369
g49
(g58
g51
NtRp3370
(dp3371
g54
(dp3372
g62
I5
ssg63
Nsg56
(lp3373
g49
(g65
g51
NtRp3374
(dp3375
g54
(dp3376
sg63
g3370
sg56
(lp3377
g49
(g70
g51
NtRp3378
(dp3379
g54
(dp3380
g74
g75
ssg63
g3374
sg56
(lp3381
g147
asbag49
(g70
g51
NtRp3382
(dp3383
g54
(dp3384
g81
g82
ssg63
g3374
sg56
(lp3385
S':'
asbag49
(g70
g51
NtRp3386
(dp3387
g54
(dp3388
sg63
g3374
sg56
(lp3389
g49
(g50
g51
NtRp3390
(dp3391
g54
(dp3392
g62
I5
ssg63
g3386
sg56
(lp3393
S'<cStringIO.StringO object at 0x8ce9fc0>'
p3394
asbasbasbag49
(g65
g51
NtRp3395
(dp3396
g54
(dp3397
sg63
g3370
sg56
(lp3398
g49
(g70
g51
NtRp3399
(dp3400
g54
(dp3401
g74
g75
ssg63
g3395
sg56
(lp3402
g213
asbag49
(g70
g51
NtRp3403
(dp3404
g54
(dp3405
g81
g82
ssg63
g3395
sg56
(lp3406
S':'
asbag49
(g70
g51
NtRp3407
(dp3408
g54
(dp3409
sg63
g3395
sg56
(lp3410
g49
(g50
g51
NtRp3411
(dp3412
g54
(dp3413
g62
I5
ssg63
g3407
sg56
(lp3414
g49
(g58
g51
NtRp3415
(dp3416
g54
(dp3417
g62
I4
ssg63
Nsg56
(lp3418
g49
(g65
g51
NtRp3419
(dp3420
g54
(dp3421
sg63
g3415
sg56
(lp3422
g49
(g70
g51
NtRp3423
(dp3424
g54
(dp3425
g74
g75
ssg63
g3419
sg56
(lp3426
S'session_id_udi0312'
p3427
asbag49
(g70
g51
NtRp3428
(dp3429
g54
(dp3430
g81
g82
ssg63
g3419
sg56
(lp3431
S':'
asbag49
(g70
g51
NtRp3432
(dp3433
g54
(dp3434
sg63
g3419
sg56
(lp3435
g49
(g50
g51
NtRp3436
(dp3437
g54
(dp3438
g62
I4
ssg63
g3432
sg56
(lp3439
g49
(g58
g51
NtRp3440
(dp3441
g54
(dp3442
g62
I3
ssg63
Nsg56
(lp3443
g49
(g65
g51
NtRp3444
(dp3445
g54
(dp3446
sg63
g3440
sg56
(lp3447
g49
(g70
g51
NtRp3448
(dp3449
g54
(dp3450
g74
g75
ssg63
g3444
sg56
(lp3451
g263
asbag49
(g70
g51
NtRp3452
(dp3453
g54
(dp3454
g81
g82
ssg63
g3444
sg56
(lp3455
S':'
asbag49
(g70
g51
NtRp3456
(dp3457
g54
(dp3458
sg63
g3444
sg56
(lp3459
g49
(g50
g51
NtRp3460
(dp3461
g54
(dp3462
g62
I3
ssg63
g3456
sg56
(lp3463
S''
asbasbasbag49
(g65
g51
NtRp3464
(dp3465
g54
(dp3466
sg63
g3440
sg56
(lp3467
g49
(g70
g51
NtRp3468
(dp3469
g54
(dp3470
g74
g75
ssg63
g3464
sg56
(lp3471
g284
asbag49
(g70
g51
NtRp3472
(dp3473
g54
(dp3474
g81
g82
ssg63
g3464
sg56
(lp3475
S':'
asbag49
(g70
g51
NtRp3476
(dp3477
g54
(dp3478
sg63
g3464
sg56
(lp3479
g49
(g50
g51
NtRp3480
(dp3481
g54
(dp3482
g62
I3
ssg63
g3476
sg56
(lp3483
S''
asbasbasbag49
(g65
g51
NtRp3484
(dp3485
g54
(dp3486
sg63
g3440
sg56
(lp3487
g49
(g70
g51
NtRp3488
(dp3489
g54
(dp3490
g74
g75
ssg63
g3484
sg56
(lp3491
g305
asbag49
(g70
g51
NtRp3492
(dp3493
g54
(dp3494
g81
g82
ssg63
g3484
sg56
(lp3495
S':'
asbag49
(g70
g51
NtRp3496
(dp3497
g54
(dp3498
sg63
g3484
sg56
(lp3499
g49
(g50
g51
NtRp3500
(dp3501
g54
(dp3502
g62
I3
ssg63
g3496
sg56
(lp3503
S'2592000'
p3504
asbasbasbag49
(g65
g51
NtRp3505
(dp3506
g54
(dp3507
sg63
g3440
sg56
(lp3508
g49
(g70
g51
NtRp3509
(dp3510
g54
(dp3511
g74
g75
ssg63
g3505
sg56
(lp3512
g326
asbag49
(g70
g51
NtRp3513
(dp3514
g54
(dp3515
g81
g82
ssg63
g3505
sg56
(lp3516
S':'
asbag49
(g70
g51
NtRp3517
(dp3518
g54
(dp3519
sg63
g3505
sg56
(lp3520
g49
(g50
g51
NtRp3521
(dp3522
g54
(dp3523
g62
I3
ssg63
g3517
sg56
(lp3524
S''
asbasbasbag49
(g65
g51
NtRp3525
(dp3526
g54
(dp3527
sg63
g3440
sg56
(lp3528
g49
(g70
g51
NtRp3529
(dp3530
g54
(dp3531
g74
g75
ssg63
g3525
sg56
(lp3532
g347
asbag49
(g70
g51
NtRp3533
(dp3534
g54
(dp3535
g81
g82
ssg63
g3525
sg56
(lp3536
S':'
asbag49
(g70
g51
NtRp3537
(dp3538
g54
(dp3539
sg63
g3525
sg56
(lp3540
g49
(g50
g51
NtRp3541
(dp3542
g54
(dp3543
g62
I3
ssg63
g3537
sg56
(lp3544
S'/'
asbasbasbag49
(g65
g51
NtRp3545
(dp3546
g54
(dp3547
sg63
g3440
sg56
(lp3548
g49
(g70
g51
NtRp3549
(dp3550
g54
(dp3551
g74
g75
ssg63
g3545
sg56
(lp3552
g368
asbag49
(g70
g51
NtRp3553
(dp3554
g54
(dp3555
g81
g82
ssg63
g3545
sg56
(lp3556
S':'
asbag49
(g70
g51
NtRp3557
(dp3558
g54
(dp3559
sg63
g3545
sg56
(lp3560
g49
(g50
g51
NtRp3561
(dp3562
g54
(dp3563
g62
I3
ssg63
g3557
sg56
(lp3564
S''
asbasbasbag49
(g65
g51
NtRp3565
(dp3566
g54
(dp3567
sg63
g3440
sg56
(lp3568
g49
(g70
g51
NtRp3569
(dp3570
g54
(dp3571
g74
g75
ssg63
g3565
sg56
(lp3572
g389
asbag49
(g70
g51
NtRp3573
(dp3574
g54
(dp3575
g81
g82
ssg63
g3565
sg56
(lp3576
S':'
asbag49
(g70
g51
NtRp3577
(dp3578
g54
(dp3579
sg63
g3565
sg56
(lp3580
g49
(g50
g51
NtRp3581
(dp3582
g54
(dp3583
g62
I3
ssg63
g3577
sg56
(lp3584
S''
asbasbasbasbasbasbasbasbasbasbasbag49
(g65
g51
NtRp3585
(dp3586
g54
(dp3587
sg63
g3370
sg56
(lp3588
g49
(g70
g51
NtRp3589
(dp3590
g54
(dp3591
g74
g75
ssg63
g3585
sg56
(lp3592
S'delimiters'
p3593
asbag49
(g70
g51
NtRp3594
(dp3595
g54
(dp3596
g81
g82
ssg63
g3585
sg56
(lp3597
S':'
asbag49
(g70
g51
NtRp3598
(dp3599
g54
(dp3600
sg63
g3585
sg56
(lp3601
g49
(g50
g51
NtRp3602
(dp3603
g54
(dp3604
g62
I5
ssg63
g3598
sg56
(lp3605
g49
(g58
g51
NtRp3606
(dp3607
g54
(dp3608
g62
I4
ssg63
Nsg56
(lp3609
g49
(g65
g51
NtRp3610
(dp3611
g54
(dp3612
sg63
g3606
sg56
(lp3613
g49
(g70
g51
NtRp3614
(dp3615
g54
(dp3616
sg63
g3610
sg56
(lp3617
g49
(g50
g51
NtRp3618
(dp3619
g54
(dp3620
g62
I4
ssg63
g3614
sg56
(lp3621
S'{{'
p3622
asbasbasbag49
(g65
g51
NtRp3623
(dp3624
g54
(dp3625
sg63
g3606
sg56
(lp3626
g49
(g70
g51
NtRp3627
(dp3628
g54
(dp3629
sg63
g3623
sg56
(lp3630
g49
(g50
g51
NtRp3631
(dp3632
g54
(dp3633
g62
I4
ssg63
g3627
sg56
(lp3634
S'}}'
p3635
asbasbasbasbasbasbasbag49
(g65
g51
NtRp3636
(dp3637
g54
(dp3638
sg63
g3370
sg56
(lp3639
g49
(g70
g51
NtRp3640
(dp3641
g54
(dp3642
g74
g75
ssg63
g3636
sg56
(lp3643
S'files'
p3644
asbag49
(g70
g51
NtRp3645
(dp3646
g54
(dp3647
g81
g82
ssg63
g3636
sg56
(lp3648
S':'
asbag49
(g70
g51
NtRp3649
(dp3650
g54
(dp3651
sg63
g3636
sg56
(lp3652
g49
(g50
g51
NtRp3653
(dp3654
g54
(dp3655
g62
I5
ssg63
g3649
sg56
(lp3656
g49
(g58
g51
NtRp3657
(dp3658
g54
(dp3659
g62
I4
ssg63
Nsg56
(lp3660
sbasbasbasbag49
(g65
g51
NtRp3661
(dp3662
g54
(dp3663
sg63
g3370
sg56
(lp3664
g49
(g70
g51
NtRp3665
(dp3666
g54
(dp3667
g74
g75
ssg63
g3661
sg56
(lp3668
S'flash'
p3669
asbag49
(g70
g51
NtRp3670
(dp3671
g54
(dp3672
g81
g82
ssg63
g3661
sg56
(lp3673
S':'
asbag49
(g70
g51
NtRp3674
(dp3675
g54
(dp3676
sg63
g3661
sg56
(lp3677
g49
(g50
g51
NtRp3678
(dp3679
g54
(dp3680
g62
I5
ssg63
g3674
sg56
(lp3681
S''
asbasbasbag49
(g65
g51
NtRp3682
(dp3683
g54
(dp3684
sg63
g3370
sg56
(lp3685
g49
(g70
g51
NtRp3686
(dp3687
g54
(dp3688
g74
g75
ssg63
g3682
sg56
(lp3689
S'generic_patterns'
p3690
asbag49
(g70
g51
NtRp3691
(dp3692
g54
(dp3693
g81
g82
ssg63
g3682
sg56
(lp3694
S':'
asbag49
(g70
g51
NtRp3695
(dp3696
g54
(dp3697
sg63
g3682
sg56
(lp3698
g49
(g50
g51
NtRp3699
(dp3700
g54
(dp3701
g62
I5
ssg63
g3695
sg56
(lp3702
g49
(g58
g51
NtRp3703
(dp3704
g54
(dp3705
g62
I4
ssg63
Nsg56
(lp3706
g49
(g65
g51
NtRp3707
(dp3708
g54
(dp3709
sg63
g3703
sg56
(lp3710
g49
(g70
g51
NtRp3711
(dp3712
g54
(dp3713
sg63
g3707
sg56
(lp3714
g49
(g50
g51
NtRp3715
(dp3716
g54
(dp3717
g62
I4
ssg63
g3711
sg56
(lp3718
S'*'
asbasbasbasbasbasbasbag49
(g65
g51
NtRp3719
(dp3720
g54
(dp3721
sg63
g3370
sg56
(lp3722
g49
(g70
g51
NtRp3723
(dp3724
g54
(dp3725
g74
g75
ssg63
g3719
sg56
(lp3726
S'headers'
p3727
asbag49
(g70
g51
NtRp3728
(dp3729
g54
(dp3730
g81
g82
ssg63
g3719
sg56
(lp3731
S':'
asbag49
(g70
g51
NtRp3732
(dp3733
g54
(dp3734
sg63
g3719
sg56
(lp3735
g49
(g50
g51
NtRp3736
(dp3737
g54
(dp3738
g62
I5
ssg63
g3732
sg56
(lp3739
g49
(g58
g51
NtRp3740
(dp3741
g54
(dp3742
g62
I4
ssg63
Nsg56
(lp3743
g49
(g65
g51
NtRp3744
(dp3745
g54
(dp3746
sg63
g3740
sg56
(lp3747
g49
(g70
g51
NtRp3748
(dp3749
g54
(dp3750
g74
g75
ssg63
g3744
sg56
(lp3751
S'Cache-Control'
p3752
asbag49
(g70
g51
NtRp3753
(dp3754
g54
(dp3755
g81
g82
ssg63
g3744
sg56
(lp3756
S':'
asbag49
(g70
g51
NtRp3757
(dp3758
g54
(dp3759
sg63
g3744
sg56
(lp3760
g49
(g50
g51
NtRp3761
(dp3762
g54
(dp3763
g62
I4
ssg63
g3757
sg56
(lp3764
S'no-store, no-cache, must-revalidate, post-check=0, pre-check=0'
p3765
asbasbasbag49
(g65
g51
NtRp3766
(dp3767
g54
(dp3768
sg63
g3740
sg56
(lp3769
g49
(g70
g51
NtRp3770
(dp3771
g54
(dp3772
g74
g75
ssg63
g3766
sg56
(lp3773
S'Content-Type'
p3774
asbag49
(g70
g51
NtRp3775
(dp3776
g54
(dp3777
g81
g82
ssg63
g3766
sg56
(lp3778
S':'
asbag49
(g70
g51
NtRp3779
(dp3780
g54
(dp3781
sg63
g3766
sg56
(lp3782
g49
(g50
g51
NtRp3783
(dp3784
g54
(dp3785
g62
I4
ssg63
g3779
sg56
(lp3786
S'text/html; charset=utf-8'
p3787
asbasbasbag49
(g65
g51
NtRp3788
(dp3789
g54
(dp3790
sg63
g3740
sg56
(lp3791
g49
(g70
g51
NtRp3792
(dp3793
g54
(dp3794
g74
g75
ssg63
g3788
sg56
(lp3795
S'Expires'
p3796
asbag49
(g70
g51
NtRp3797
(dp3798
g54
(dp3799
g81
g82
ssg63
g3788
sg56
(lp3800
S':'
asbag49
(g70
g51
NtRp3801
(dp3802
g54
(dp3803
sg63
g3788
sg56
(lp3804
g49
(g50
g51
NtRp3805
(dp3806
g54
(dp3807
g62
I4
ssg63
g3801
sg56
(lp3808
S'Sun, 11 Mar 2012 13:46:38 GMT'
p3809
asbasbasbag49
(g65
g51
NtRp3810
(dp3811
g54
(dp3812
sg63
g3740
sg56
(lp3813
g49
(g70
g51
NtRp3814
(dp3815
g54
(dp3816
g74
g75
ssg63
g3810
sg56
(lp3817
S'Pragma'
p3818
asbag49
(g70
g51
NtRp3819
(dp3820
g54
(dp3821
g81
g82
ssg63
g3810
sg56
(lp3822
S':'
asbag49
(g70
g51
NtRp3823
(dp3824
g54
(dp3825
sg63
g3810
sg56
(lp3826
g49
(g50
g51
NtRp3827
(dp3828
g54
(dp3829
g62
I4
ssg63
g3823
sg56
(lp3830
S'no-cache'
p3831
asbasbasbag49
(g65
g51
NtRp3832
(dp3833
g54
(dp3834
sg63
g3740
sg56
(lp3835
g49
(g70
g51
NtRp3836
(dp3837
g54
(dp3838
g74
g75
ssg63
g3832
sg56
(lp3839
S'X-Powered-By'
p3840
asbag49
(g70
g51
NtRp3841
(dp3842
g54
(dp3843
g81
g82
ssg63
g3832
sg56
(lp3844
S':'
asbag49
(g70
g51
NtRp3845
(dp3846
g54
(dp3847
sg63
g3832
sg56
(lp3848
g49
(g50
g51
NtRp3849
(dp3850
g54
(dp3851
g62
I4
ssg63
g3845
sg56
(lp3852
S'web2py'
p3853
asbasbasbasbasbasbasbag49
(g65
g51
NtRp3854
(dp3855
g54
(dp3856
sg63
g3370
sg56
(lp3857
g49
(g70
g51
NtRp3858
(dp3859
g54
(dp3860
g74
g75
ssg63
g3854
sg56
(lp3861
S'menu'
p3862
asbag49
(g70
g51
NtRp3863
(dp3864
g54
(dp3865
g81
g82
ssg63
g3854
sg56
(lp3866
S':'
asbag49
(g70
g51
NtRp3867
(dp3868
g54
(dp3869
sg63
g3854
sg56
(lp3870
g49
(g50
g51
NtRp3871
(dp3872
g54
(dp3873
g62
I5
ssg63
g3867
sg56
(lp3874
g49
(g58
g51
NtRp3875
(dp3876
g54
(dp3877
g62
I4
ssg63
Nsg56
(lp3878
g49
(g65
g51
NtRp3879
(dp3880
g54
(dp3881
sg63
g3875
sg56
(lp3882
g49
(g70
g51
NtRp3883
(dp3884
g54
(dp3885
sg63
g3879
sg56
(lp3886
g49
(g50
g51
NtRp3887
(dp3888
g54
(dp3889
g62
I4
ssg63
g3883
sg56
(lp3890
g49
(g58
g51
NtRp3891
(dp3892
g54
(dp3893
g62
I3
ssg63
Nsg56
(lp3894
g49
(g65
g51
NtRp3895
(dp3896
g54
(dp3897
sg63
g3891
sg56
(lp3898
g49
(g70
g51
NtRp3899
(dp3900
g54
(dp3901
sg63
g3895
sg56
(lp3902
g49
(g50
g51
NtRp3903
(dp3904
g54
(dp3905
g62
I3
ssg63
g3899
sg56
(lp3906
cgluon.languages
lazyT_unpickle
p3907
(S's\x04\x00\x00\x00Home'
tRp3908
asbasbasbag49
(g65
g51
NtRp3909
(dp3910
g54
(dp3911
sg63
g3891
sg56
(lp3912
g49
(g70
g51
NtRp3913
(dp3914
g54
(dp3915
sg63
g3909
sg56
(lp3916
g49
(g50
g51
NtRp3917
(dp3918
g54
(dp3919
g62
I3
ssg63
g3913
sg56
(lp3920
g92
asbasbasbag49
(g65
g51
NtRp3921
(dp3922
g54
(dp3923
sg63
g3891
sg56
(lp3924
g49
(g70
g51
NtRp3925
(dp3926
g54
(dp3927
sg63
g3921
sg56
(lp3928
g49
(g50
g51
NtRp3929
(dp3930
g54
(dp3931
g62
I3
ssg63
g3925
sg56
(lp3932
S'/'
asbasbasbag49
(g65
g51
NtRp3933
(dp3934
g54
(dp3935
sg63
g3891
sg56
(lp3936
g49
(g70
g51
NtRp3937
(dp3938
g54
(dp3939
sg63
g3933
sg56
(lp3940
g49
(g50
g51
NtRp3941
(dp3942
g54
(dp3943
g62
I3
ssg63
g3937
sg56
(lp3944
g49
(g58
g51
NtRp3945
(dp3946
g54
(dp3947
g62
I2
ssg63
Nsg56
(lp3948
sbasbasbasbasbasbasbasbag49
(g65
g51
NtRp3949
(dp3950
g54
(dp3951
sg63
g3875
sg56
(lp3952
g49
(g70
g51
NtRp3953
(dp3954
g54
(dp3955
sg63
g3949
sg56
(lp3956
g49
(g50
g51
NtRp3957
(dp3958
g54
(dp3959
g62
I4
ssg63
g3953
sg56
(lp3960
g49
(g58
g51
NtRp3961
(dp3962
g54
(dp3963
g62
I3
ssg63
Nsg56
(lp3964
g49
(g65
g51
NtRp3965
(dp3966
g54
(dp3967
sg63
g3961
sg56
(lp3968
g49
(g70
g51
NtRp3969
(dp3970
g54
(dp3971
sg63
g3965
sg56
(lp3972
g49
(g50
g51
NtRp3973
(dp3974
g54
(dp3975
g62
I3
ssg63
g3969
sg56
(lp3976
g49
(cgluon.html
SPAN
p3977
g51
NtRp3978
(dp3979
g54
(dp3980
g74
S'color:yellow'
p3981
ssg63
Nsg56
(lp3982
g3853
asbasbasbasbag49
(g65
g51
NtRp3983
(dp3984
g54
(dp3985
sg63
g3961
sg56
(lp3986
g49
(g70
g51
NtRp3987
(dp3988
g54
(dp3989
sg63
g3983
sg56
(lp3990
g49
(g50
g51
NtRp3991
(dp3992
g54
(dp3993
g62
I3
ssg63
g3987
sg56
(lp3994
g92
asbasbasbag49
(g65
g51
NtRp3995
(dp3996
g54
(dp3997
sg63
g3961
sg56
(lp3998
g49
(g70
g51
NtRp3999
(dp4000
g54
(dp4001
sg63
g3995
sg56
(lp4002
g49
(g50
g51
NtRp4003
(dp4004
g54
(dp4005
g62
I3
ssg63
g3999
sg56
(lp4006
S'None'
p4007
asbasbasbag49
(g65
g51
NtRp4008
(dp4009
g54
(dp4010
sg63
g3961
sg56
(lp4011
g49
(g70
g51
NtRp4012
(dp4013
g54
(dp4014
sg63
g4008
sg56
(lp4015
g49
(g50
g51
NtRp4016
(dp4017
g54
(dp4018
g62
I3
ssg63
g4012
sg56
(lp4019
g49
(g58
g51
NtRp4020
(dp4021
g54
(dp4022
g62
I2
ssg63
Nsg56
(lp4023
g49
(g65
g51
NtRp4024
(dp4025
g54
(dp4026
sg63
g4020
sg56
(lp4027
g49
(g70
g51
NtRp4028
(dp4029
g54
(dp4030
sg63
g4024
sg56
(lp4031
g49
(g50
g51
NtRp4032
(dp4033
g54
(dp4034
g62
I2
ssg63
g4028
sg56
(lp4035
g49
(g58
g51
NtRp4036
(dp4037
g54
(dp4038
g62
I1
ssg63
Nsg56
(lp4039
g49
(g65
g51
NtRp4040
(dp4041
g54
(dp4042
sg63
g4036
sg56
(lp4043
g49
(g70
g51
NtRp4044
(dp4045
g54
(dp4046
sg63
g4040
sg56
(lp4047
g49
(g50
g51
NtRp4048
(dp4049
g54
(dp4050
g62
I1
ssg63
g4044
sg56
(lp4051
g3907
(S's\x08\x00\x00\x00My Sites'
tRp4052
asbasbasbag49
(g65
g51
NtRp4053
(dp4054
g54
(dp4055
sg63
g4036
sg56
(lp4056
g49
(g70
g51
NtRp4057
(dp4058
g54
(dp4059
sg63
g4053
sg56
(lp4060
g49
(g50
g51
NtRp4061
(dp4062
g54
(dp4063
g62
I1
ssg63
g4057
sg56
(lp4064
I00
asbasbasbag49
(g65
g51
NtRp4065
(dp4066
g54
(dp4067
sg63
g4036
sg56
(lp4068
g49
(g70
g51
NtRp4069
(dp4070
g54
(dp4071
sg63
g4065
sg56
(lp4072
g49
(g50
g51
NtRp4073
(dp4074
g54
(dp4075
g62
I1
ssg63
g4069
sg56
(lp4076
S'/admin/site'
p4077
asbasbasbasbasbasbasbag49
(g65
g51
NtRp4078
(dp4079
g54
(dp4080
sg63
g4020
sg56
(lp4081
g49
(g70
g51
NtRp4082
(dp4083
g54
(dp4084
sg63
g4078
sg56
(lp4085
g49
(g50
g51
NtRp4086
(dp4087
g54
(dp4088
g62
I2
ssg63
g4082
sg56
(lp4089
g49
(g58
g51
NtRp4090
(dp4091
g54
(dp4092
g62
I1
ssg63
Nsg56
(lp4093
g49
(g65
g51
NtRp4094
(dp4095
g54
(dp4096
sg63
g4090
sg56
(lp4097
g49
(g70
g51
NtRp4098
(dp4099
g54
(dp4100
sg63
g4094
sg56
(lp4101
g49
(g50
g51
NtRp4102
(dp4103
g54
(dp4104
g62
I1
ssg63
g4098
sg56
(lp4105
g3907
(S's\x08\x00\x00\x00This App'
tRp4106
asbasbasbag49
(g65
g51
NtRp4107
(dp4108
g54
(dp4109
sg63
g4090
sg56
(lp4110
g49
(g70
g51
NtRp4111
(dp4112
g54
(dp4113
sg63
g4107
sg56
(lp4114
g49
(g50
g51
NtRp4115
(dp4116
g54
(dp4117
g62
I1
ssg63
g4111
sg56
(lp4118
I00
asbasbasbag49
(g65
g51
NtRp4119
(dp4120
g54
(dp4121
sg63
g4090
sg56
(lp4122
g49
(g70
g51
NtRp4123
(dp4124
g54
(dp4125
sg63
g4119
sg56
(lp4126
g49
(g50
g51
NtRp4127
(dp4128
g54
(dp4129
g62
I1
ssg63
g4123
sg56
(lp4130
S'/admin/design/udi0312'
p4131
asbasbasbag49
(g65
g51
NtRp4132
(dp4133
g54
(dp4134
sg63
g4090
sg56
(lp4135
g49
(g70
g51
NtRp4136
(dp4137
g54
(dp4138
sg63
g4132
sg56
(lp4139
g49
(g50
g51
NtRp4140
(dp4141
g54
(dp4142
g62
I1
ssg63
g4136
sg56
(lp4143
(lp4144
(g3907
(S's\n\x00\x00\x00Controller'
tRp4145
I00
S'/admin/edit/udi0312/controllers/default.py'
tp4146
a(g3907
(S's\x04\x00\x00\x00View'
tRp4147
I00
S'/admin/edit/udi0312/views/default/test.html'
tp4148
a(g3907
(S's\x06\x00\x00\x00Layout'
tRp4149
I00
S'/admin/edit/udi0312/views/layout.html'
tp4150
a(g3907
(S's\n\x00\x00\x00Stylesheet'
tRp4151
I00
S'/admin/edit/udi0312/static/css/web2py.css'
tp4152
a(g3907
(S's\x08\x00\x00\x00DB Model'
tRp4153
I00
S'/admin/edit/udi0312/models/db.py'
tp4154
a(g3907
(S's\n\x00\x00\x00Menu Model'
tRp4155
I00
S'/admin/edit/udi0312/models/menu.py'
tp4156
a(g3907
(S's\x08\x00\x00\x00Database'
tRp4157
I00
S'/appadmin'
tp4158
a(g3907
(S's\x06\x00\x00\x00Errors'
tRp4159
I00
S'/admin/errors/udi0312'
tp4160
a(g3907
(S's\x05\x00\x00\x00About'
tRp4161
I00
S'/admin/about/udi0312'
tp4162
aasbasbasbasbasbasbasbag49
(g65
g51
NtRp4163
(dp4164
g54
(dp4165
sg63
g4020
sg56
(lp4166
g49
(g70
g51
NtRp4167
(dp4168
g54
(dp4169
sg63
g4163
sg56
(lp4170
g49
(g50
g51
NtRp4171
(dp4172
g54
(dp4173
g62
I2
ssg63
g4167
sg56
(lp4174
g49
(g58
g51
NtRp4175
(dp4176
g54
(dp4177
g62
I1
ssg63
Nsg56
(lp4178
g49
(g65
g51
NtRp4179
(dp4180
g54
(dp4181
sg63
g4175
sg56
(lp4182
g49
(g70
g51
NtRp4183
(dp4184
g54
(dp4185
sg63
g4179
sg56
(lp4186
g49
(g50
g51
NtRp4187
(dp4188
g54
(dp4189
g62
I1
ssg63
g4183
sg56
(lp4190
S'web2py.com'
p4191
asbasbasbag49
(g65
g51
NtRp4192
(dp4193
g54
(dp4194
sg63
g4175
sg56
(lp4195
g49
(g70
g51
NtRp4196
(dp4197
g54
(dp4198
sg63
g4192
sg56
(lp4199
g49
(g50
g51
NtRp4200
(dp4201
g54
(dp4202
g62
I1
ssg63
g4196
sg56
(lp4203
I00
asbasbasbag49
(g65
g51
NtRp4204
(dp4205
g54
(dp4206
sg63
g4175
sg56
(lp4207
g49
(g70
g51
NtRp4208
(dp4209
g54
(dp4210
sg63
g4204
sg56
(lp4211
g49
(g50
g51
NtRp4212
(dp4213
g54
(dp4214
g62
I1
ssg63
g4208
sg56
(lp4215
S'http://www.web2py.com'
p4216
asbasbasbag49
(g65
g51
NtRp4217
(dp4218
g54
(dp4219
sg63
g4175
sg56
(lp4220
g49
(g70
g51
NtRp4221
(dp4222
g54
(dp4223
sg63
g4217
sg56
(lp4224
g49
(g50
g51
NtRp4225
(dp4226
g54
(dp4227
g62
I1
ssg63
g4221
sg56
(lp4228
(lp4229
(g3907
(S's\x08\x00\x00\x00Download'
tRp4230
I00
S'http://www.web2py.com/examples/default/download'
p4231
tp4232
a(g3907
(S's\x07\x00\x00\x00Support'
tRp4233
I00
S'http://www.web2py.com/examples/default/support'
p4234
tp4235
a(g3907
(S's\x04\x00\x00\x00Demo'
tRp4236
I00
S'http://web2py.com/demo_admin'
p4237
tp4238
a(g3907
(S's\x0e\x00\x00\x00Quick Examples'
tRp4239
I00
S'http://web2py.com/examples/default/examples'
p4240
tp4241
a(g3907
(S's\x03\x00\x00\x00FAQ'
tRp4242
I00
S'http://web2py.com/AlterEgo'
p4243
tp4244
a(g3907
(S's\x06\x00\x00\x00Videos'
tRp4245
I00
S'http://www.web2py.com/examples/default/videos/'
p4246
tp4247
a(g3907
(S's\x11\x00\x00\x00Free Applications'
tRp4248
I00
S'http://web2py.com/appliances'
p4249
tp4250
a(g3907
(S's\x07\x00\x00\x00Plugins'
tRp4251
I00
S'http://web2py.com/plugins'
p4252
tp4253
a(g3907
(S's\x07\x00\x00\x00Layouts'
tRp4254
I00
S'http://web2py.com/layouts'
p4255
tp4256
a(g3907
(S's\x07\x00\x00\x00Recipes'
tRp4257
I00
S'http://web2pyslices.com/'
p4258
tp4259
a(g3907
(S's\x08\x00\x00\x00Semantic'
tRp4260
I00
S'http://web2py.com/semantic'
p4261
tp4262
aasbasbasbasbasbasbasbag49
(g65
g51
NtRp4263
(dp4264
g54
(dp4265
sg63
g4020
sg56
(lp4266
g49
(g70
g51
NtRp4267
(dp4268
g54
(dp4269
sg63
g4263
sg56
(lp4270
g49
(g50
g51
NtRp4271
(dp4272
g54
(dp4273
g62
I2
ssg63
g4267
sg56
(lp4274
g49
(g58
g51
NtRp4275
(dp4276
g54
(dp4277
g62
I1
ssg63
Nsg56
(lp4278
g49
(g65
g51
NtRp4279
(dp4280
g54
(dp4281
sg63
g4275
sg56
(lp4282
g49
(g70
g51
NtRp4283
(dp4284
g54
(dp4285
sg63
g4279
sg56
(lp4286
g49
(g50
g51
NtRp4287
(dp4288
g54
(dp4289
g62
I1
ssg63
g4283
sg56
(lp4290
g3907
(S's\r\x00\x00\x00Documentation'
tRp4291
asbasbasbag49
(g65
g51
NtRp4292
(dp4293
g54
(dp4294
sg63
g4275
sg56
(lp4295
g49
(g70
g51
NtRp4296
(dp4297
g54
(dp4298
sg63
g4292
sg56
(lp4299
g49
(g50
g51
NtRp4300
(dp4301
g54
(dp4302
g62
I1
ssg63
g4296
sg56
(lp4303
I00
asbasbasbag49
(g65
g51
NtRp4304
(dp4305
g54
(dp4306
sg63
g4275
sg56
(lp4307
g49
(g70
g51
NtRp4308
(dp4309
g54
(dp4310
sg63
g4304
sg56
(lp4311
g49
(g50
g51
NtRp4312
(dp4313
g54
(dp4314
g62
I1
ssg63
g4308
sg56
(lp4315
S'http://www.web2py.com/book'
p4316
asbasbasbag49
(g65
g51
NtRp4317
(dp4318
g54
(dp4319
sg63
g4275
sg56
(lp4320
g49
(g70
g51
NtRp4321
(dp4322
g54
(dp4323
sg63
g4317
sg56
(lp4324
g49
(g50
g51
NtRp4325
(dp4326
g54
(dp4327
g62
I1
ssg63
g4321
sg56
(lp4328
(lp4329
(g3907
(S's\x07\x00\x00\x00Preface'
tRp4330
I00
S'http://www.web2py.com/book/default/chapter/00'
p4331
tp4332
a(g3907
(S's\x0c\x00\x00\x00Introduction'
tRp4333
I00
S'http://www.web2py.com/book/default/chapter/01'
p4334
tp4335
a(g3907
(S's\x06\x00\x00\x00Python'
tRp4336
I00
S'http://www.web2py.com/book/default/chapter/02'
p4337
tp4338
a(g3907
(S's\x08\x00\x00\x00Overview'
tRp4339
I00
S'http://www.web2py.com/book/default/chapter/03'
p4340
tp4341
a(g3907
(S's\x08\x00\x00\x00The Core'
tRp4342
I00
S'http://www.web2py.com/book/default/chapter/04'
p4343
tp4344
a(g3907
(S's\t\x00\x00\x00The Views'
tRp4345
I00
S'http://www.web2py.com/book/default/chapter/05'
p4346
tp4347
a(g3907
(S's\x08\x00\x00\x00Database'
tRp4348
I00
S'http://www.web2py.com/book/default/chapter/06'
p4349
tp4350
a(g3907
(S's\x14\x00\x00\x00Forms and Validators'
tRp4351
I00
S'http://www.web2py.com/book/default/chapter/07'
p4352
tp4353
a(g3907
(S's\r\x00\x00\x00Email and SMS'
tRp4354
I00
S'http://www.web2py.com/book/default/chapter/08'
p4355
tp4356
a(g3907
(S's\x0e\x00\x00\x00Access Control'
tRp4357
I00
S'http://www.web2py.com/book/default/chapter/09'
p4358
tp4359
a(g3907
(S's\x08\x00\x00\x00Services'
tRp4360
I00
S'http://www.web2py.com/book/default/chapter/10'
p4361
tp4362
a(g3907
(S's\x0c\x00\x00\x00Ajax Recipes'
tRp4363
I00
S'http://www.web2py.com/book/default/chapter/11'
p4364
tp4365
a(g3907
(S's\x16\x00\x00\x00Components and Plugins'
tRp4366
I00
S'http://www.web2py.com/book/default/chapter/12'
p4367
tp4368
a(g3907
(S's\x12\x00\x00\x00Deployment Recipes'
tRp4369
I00
S'http://www.web2py.com/book/default/chapter/13'
p4370
tp4371
a(g3907
(S's\r\x00\x00\x00Other Recipes'
tRp4372
I00
S'http://www.web2py.com/book/default/chapter/14'
p4373
tp4374
a(g3907
(S's\r\x00\x00\x00Buy this book'
tRp4375
I00
S'http://stores.lulu.com/web2py'
p4376
tp4377
aasbasbasbasbasbasbasbag49
(g65
g51
NtRp4378
(dp4379
g54
(dp4380
sg63
g4020
sg56
(lp4381
g49
(g70
g51
NtRp4382
(dp4383
g54
(dp4384
sg63
g4378
sg56
(lp4385
g49
(g50
g51
NtRp4386
(dp4387
g54
(dp4388
g62
I2
ssg63
g4382
sg56
(lp4389
g49
(g58
g51
NtRp4390
(dp4391
g54
(dp4392
g62
I1
ssg63
Nsg56
(lp4393
g49
(g65
g51
NtRp4394
(dp4395
g54
(dp4396
sg63
g4390
sg56
(lp4397
g49
(g70
g51
NtRp4398
(dp4399
g54
(dp4400
sg63
g4394
sg56
(lp4401
g49
(g50
g51
NtRp4402
(dp4403
g54
(dp4404
g62
I1
ssg63
g4398
sg56
(lp4405
g3907
(S's\t\x00\x00\x00Community'
tRp4406
asbasbasbag49
(g65
g51
NtRp4407
(dp4408
g54
(dp4409
sg63
g4390
sg56
(lp4410
g49
(g70
g51
NtRp4411
(dp4412
g54
(dp4413
sg63
g4407
sg56
(lp4414
g49
(g50
g51
NtRp4415
(dp4416
g54
(dp4417
g62
I1
ssg63
g4411
sg56
(lp4418
I00
asbasbasbag49
(g65
g51
NtRp4419
(dp4420
g54
(dp4421
sg63
g4390
sg56
(lp4422
g49
(g70
g51
NtRp4423
(dp4424
g54
(dp4425
sg63
g4419
sg56
(lp4426
g49
(g50
g51
NtRp4427
(dp4428
g54
(dp4429
g62
I1
ssg63
g4423
sg56
(lp4430
Nasbasbasbag49
(g65
g51
NtRp4431
(dp4432
g54
(dp4433
sg63
g4390
sg56
(lp4434
g49
(g70
g51
NtRp4435
(dp4436
g54
(dp4437
sg63
g4431
sg56
(lp4438
g49
(g50
g51
NtRp4439
(dp4440
g54
(dp4441
g62
I1
ssg63
g4435
sg56
(lp4442
(lp4443
(g3907
(S's\x06\x00\x00\x00Groups'
tRp4444
I00
S'http://www.web2py.com/examples/default/usergroups'
p4445
tp4446
a(g3907
(S's\x07\x00\x00\x00Twitter'
tRp4447
I00
S'http://twitter.com/web2py'
p4448
tp4449
a(g3907
(S's\t\x00\x00\x00Live Chat'
tRp4450
I00
S'http://webchat.freenode.net/?channels=web2py'
p4451
tp4452
aasbasbasbasbasbasbasbag49
(g65
g51
NtRp4453
(dp4454
g54
(dp4455
sg63
g4020
sg56
(lp4456
g49
(g70
g51
NtRp4457
(dp4458
g54
(dp4459
sg63
g4453
sg56
(lp4460
g49
(g50
g51
NtRp4461
(dp4462
g54
(dp4463
g62
I2
ssg63
g4457
sg56
(lp4464
g49
(g58
g51
NtRp4465
(dp4466
g54
(dp4467
g62
I1
ssg63
Nsg56
(lp4468
g49
(g65
g51
NtRp4469
(dp4470
g54
(dp4471
sg63
g4465
sg56
(lp4472
g49
(g70
g51
NtRp4473
(dp4474
g54
(dp4475
sg63
g4469
sg56
(lp4476
g49
(g50
g51
NtRp4477
(dp4478
g54
(dp4479
g62
I1
ssg63
g4473
sg56
(lp4480
g3907
(S's\x07\x00\x00\x00Plugins'
tRp4481
asbasbasbag49
(g65
g51
NtRp4482
(dp4483
g54
(dp4484
sg63
g4465
sg56
(lp4485
g49
(g70
g51
NtRp4486
(dp4487
g54
(dp4488
sg63
g4482
sg56
(lp4489
g49
(g50
g51
NtRp4490
(dp4491
g54
(dp4492
g62
I1
ssg63
g4486
sg56
(lp4493
I00
asbasbasbag49
(g65
g51
NtRp4494
(dp4495
g54
(dp4496
sg63
g4465
sg56
(lp4497
g49
(g70
g51
NtRp4498
(dp4499
g54
(dp4500
sg63
g4494
sg56
(lp4501
g49
(g50
g51
NtRp4502
(dp4503
g54
(dp4504
g62
I1
ssg63
g4498
sg56
(lp4505
Nasbasbasbag49
(g65
g51
NtRp4506
(dp4507
g54
(dp4508
sg63
g4465
sg56
(lp4509
g49
(g70
g51
NtRp4510
(dp4511
g54
(dp4512
sg63
g4506
sg56
(lp4513
g49
(g50
g51
NtRp4514
(dp4515
g54
(dp4516
g62
I1
ssg63
g4510
sg56
(lp4517
(lp4518
(S'plugin_wiki'
p4519
I00
S'http://web2py.com/examples/default/download'
p4520
tp4521
a(g3907
(S's\r\x00\x00\x00Other Plugins'
tRp4522
I00
g4252
tp4523
a(g3907
(S's\x0e\x00\x00\x00Layout Plugins'
tRp4524
I00
g4255
tp4525
aasbasbasbasbasbasbasbasbasbasbasbasbasbasbasbasbasbasbasbag49
(g65
g51
NtRp4526
(dp4527
g54
(dp4528
sg63
g3370
sg56
(lp4529
g49
(g70
g51
NtRp4530
(dp4531
g54
(dp4532
g74
g75
ssg63
g4526
sg56
(lp4533
S'meta'
p4534
asbag49
(g70
g51
NtRp4535
(dp4536
g54
(dp4537
g81
g82
ssg63
g4526
sg56
(lp4538
S':'
asbag49
(g70
g51
NtRp4539
(dp4540
g54
(dp4541
sg63
g4526
sg56
(lp4542
g49
(g50
g51
NtRp4543
(dp4544
g54
(dp4545
g62
I5
ssg63
g4539
sg56
(lp4546
g49
(g58
g51
NtRp4547
(dp4548
g54
(dp4549
g62
I4
ssg63
Nsg56
(lp4550
g49
(g65
g51
NtRp4551
(dp4552
g54
(dp4553
sg63
g4547
sg56
(lp4554
g49
(g70
g51
NtRp4555
(dp4556
g54
(dp4557
g74
g75
ssg63
g4551
sg56
(lp4558
S'author'
p4559
asbag49
(g70
g51
NtRp4560
(dp4561
g54
(dp4562
g81
g82
ssg63
g4551
sg56
(lp4563
S':'
asbag49
(g70
g51
NtRp4564
(dp4565
g54
(dp4566
sg63
g4551
sg56
(lp4567
g49
(g50
g51
NtRp4568
(dp4569
g54
(dp4570
g62
I4
ssg63
g4564
sg56
(lp4571
S'Your Name <you@example.com>'
p4572
asbasbasbag49
(g65
g51
NtRp4573
(dp4574
g54
(dp4575
sg63
g4547
sg56
(lp4576
g49
(g70
g51
NtRp4577
(dp4578
g54
(dp4579
g74
g75
ssg63
g4573
sg56
(lp4580
S'copyright'
p4581
asbag49
(g70
g51
NtRp4582
(dp4583
g54
(dp4584
g81
g82
ssg63
g4573
sg56
(lp4585
S':'
asbag49
(g70
g51
NtRp4586
(dp4587
g54
(dp4588
sg63
g4573
sg56
(lp4589
g49
(g50
g51
NtRp4590
(dp4591
g54
(dp4592
g62
I4
ssg63
g4586
sg56
(lp4593
S'Copyright 2011'
p4594
asbasbasbag49
(g65
g51
NtRp4595
(dp4596
g54
(dp4597
sg63
g4547
sg56
(lp4598
g49
(g70
g51
NtRp4599
(dp4600
g54
(dp4601
g74
g75
ssg63
g4595
sg56
(lp4602
S'description'
p4603
asbag49
(g70
g51
NtRp4604
(dp4605
g54
(dp4606
g81
g82
ssg63
g4595
sg56
(lp4607
S':'
asbag49
(g70
g51
NtRp4608
(dp4609
g54
(dp4610
sg63
g4595
sg56
(lp4611
g49
(g50
g51
NtRp4612
(dp4613
g54
(dp4614
g62
I4
ssg63
g4608
sg56
(lp4615
S'a cool new app'
p4616
asbasbasbag49
(g65
g51
NtRp4617
(dp4618
g54
(dp4619
sg63
g4547
sg56
(lp4620
g49
(g70
g51
NtRp4621
(dp4622
g54
(dp4623
g74
g75
ssg63
g4617
sg56
(lp4624
S'generator'
p4625
asbag49
(g70
g51
NtRp4626
(dp4627
g54
(dp4628
g81
g82
ssg63
g4617
sg56
(lp4629
S':'
asbag49
(g70
g51
NtRp4630
(dp4631
g54
(dp4632
sg63
g4617
sg56
(lp4633
g49
(g50
g51
NtRp4634
(dp4635
g54
(dp4636
g62
I4
ssg63
g4630
sg56
(lp4637
S'Web2py Web Framework'
p4638
asbasbasbag49
(g65
g51
NtRp4639
(dp4640
g54
(dp4641
sg63
g4547
sg56
(lp4642
g49
(g70
g51
NtRp4643
(dp4644
g54
(dp4645
g74
g75
ssg63
g4639
sg56
(lp4646
S'keywords'
p4647
asbag49
(g70
g51
NtRp4648
(dp4649
g54
(dp4650
g81
g82
ssg63
g4639
sg56
(lp4651
S':'
asbag49
(g70
g51
NtRp4652
(dp4653
g54
(dp4654
sg63
g4639
sg56
(lp4655
g49
(g50
g51
NtRp4656
(dp4657
g54
(dp4658
g62
I4
ssg63
g4652
sg56
(lp4659
S'web2py, python, framework'
p4660
asbasbasbasbasbasbasbag49
(g65
g51
NtRp4661
(dp4662
g54
(dp4663
sg63
g3370
sg56
(lp4664
g49
(g70
g51
NtRp4665
(dp4666
g54
(dp4667
g74
g75
ssg63
g4661
sg56
(lp4668
S'postprocessing'
p4669
asbag49
(g70
g51
NtRp4670
(dp4671
g54
(dp4672
g81
g82
ssg63
g4661
sg56
(lp4673
S':'
asbag49
(g70
g51
NtRp4674
(dp4675
g54
(dp4676
sg63
g4661
sg56
(lp4677
g49
(g50
g51
NtRp4678
(dp4679
g54
(dp4680
g62
I5
ssg63
g4674
sg56
(lp4681
g49
(g58
g51
NtRp4682
(dp4683
g54
(dp4684
g62
I4
ssg63
Nsg56
(lp4685
sbasbasbasbag49
(g65
g51
NtRp4686
(dp4687
g54
(dp4688
sg63
g3370
sg56
(lp4689
g49
(g70
g51
NtRp4690
(dp4691
g54
(dp4692
g74
g75
ssg63
g4686
sg56
(lp4693
S'session_file'
p4694
asbag49
(g70
g51
NtRp4695
(dp4696
g54
(dp4697
g81
g82
ssg63
g4686
sg56
(lp4698
S':'
asbag49
(g70
g51
NtRp4699
(dp4700
g54
(dp4701
sg63
g4686
sg56
(lp4702
g49
(g50
g51
NtRp4703
(dp4704
g54
(dp4705
g62
I5
ssg63
g4699
sg56
(lp4706
S"<open file '/Users/udimilo/Documents/web2py/applications/udi0312/sessions/127.0.0.1-fcd6a577-d448-4882-b7bc-f353da84ba3b', mode 'rb+' at 0x8e3e608>"
p4707
asbasbasbag49
(g65
g51
NtRp4708
(dp4709
g54
(dp4710
sg63
g3370
sg56
(lp4711
g49
(g70
g51
NtRp4712
(dp4713
g54
(dp4714
g74
g75
ssg63
g4708
sg56
(lp4715
S'session_filename'
p4716
asbag49
(g70
g51
NtRp4717
(dp4718
g54
(dp4719
g81
g82
ssg63
g4708
sg56
(lp4720
S':'
asbag49
(g70
g51
NtRp4721
(dp4722
g54
(dp4723
sg63
g4708
sg56
(lp4724
g49
(g50
g51
NtRp4725
(dp4726
g54
(dp4727
g62
I5
ssg63
g4721
sg56
(lp4728
S'/Users/udimilo/Documents/web2py/applications/udi0312/sessions/127.0.0.1-fcd6a577-d448-4882-b7bc-f353da84ba3b'
p4729
asbasbasbag49
(g65
g51
NtRp4730
(dp4731
g54
(dp4732
sg63
g3370
sg56
(lp4733
g49
(g70
g51
NtRp4734
(dp4735
g54
(dp4736
g74
g75
ssg63
g4730
sg56
(lp4737
S'session_id'
p4738
asbag49
(g70
g51
NtRp4739
(dp4740
g54
(dp4741
g81
g82
ssg63
g4730
sg56
(lp4742
S':'
asbag49
(g70
g51
NtRp4743
(dp4744
g54
(dp4745
sg63
g4730
sg56
(lp4746
g49
(g50
g51
NtRp4747
(dp4748
g54
(dp4749
g62
I5
ssg63
g4743
sg56
(lp4750
S'127.0.0.1-fcd6a577-d448-4882-b7bc-f353da84ba3b'
p4751
asbasbasbag49
(g65
g51
NtRp4752
(dp4753
g54
(dp4754
sg63
g3370
sg56
(lp4755
g49
(g70
g51
NtRp4756
(dp4757
g54
(dp4758
g74
g75
ssg63
g4752
sg56
(lp4759
S'session_id_name'
p4760
asbag49
(g70
g51
NtRp4761
(dp4762
g54
(dp4763
g81
g82
ssg63
g4752
sg56
(lp4764
S':'
asbag49
(g70
g51
NtRp4765
(dp4766
g54
(dp4767
sg63
g4752
sg56
(lp4768
g49
(g50
g51
NtRp4769
(dp4770
g54
(dp4771
g62
I5
ssg63
g4765
sg56
(lp4772
g3427
asbasbasbag49
(g65
g51
NtRp4773
(dp4774
g54
(dp4775
sg63
g3370
sg56
(lp4776
g49
(g70
g51
NtRp4777
(dp4778
g54
(dp4779
g74
g75
ssg63
g4773
sg56
(lp4780
S'session_locked'
p4781
asbag49
(g70
g51
NtRp4782
(dp4783
g54
(dp4784
g81
g82
ssg63
g4773
sg56
(lp4785
S':'
asbag49
(g70
g51
NtRp4786
(dp4787
g54
(dp4788
sg63
g4773
sg56
(lp4789
g49
(g50
g51
NtRp4790
(dp4791
g54
(dp4792
g62
I5
ssg63
g4786
sg56
(lp4793
g1489
asbasbasbag49
(g65
g51
NtRp4794
(dp4795
g54
(dp4796
sg63
g3370
sg56
(lp4797
g49
(g70
g51
NtRp4798
(dp4799
g54
(dp4800
g74
g75
ssg63
g4794
sg56
(lp4801
S'session_new'
p4802
asbag49
(g70
g51
NtRp4803
(dp4804
g54
(dp4805
g81
g82
ssg63
g4794
sg56
(lp4806
S':'
asbag49
(g70
g51
NtRp4807
(dp4808
g54
(dp4809
sg63
g4794
sg56
(lp4810
g49
(g50
g51
NtRp4811
(dp4812
g54
(dp4813
g62
I5
ssg63
g4807
sg56
(lp4814
g92
asbasbasbag49
(g65
g51
NtRp4815
(dp4816
g54
(dp4817
sg63
g3370
sg56
(lp4818
g49
(g70
g51
NtRp4819
(dp4820
g54
(dp4821
g74
g75
ssg63
g4815
sg56
(lp4822
S'status'
p4823
asbag49
(g70
g51
NtRp4824
(dp4825
g54
(dp4826
g81
g82
ssg63
g4815
sg56
(lp4827
S':'
asbag49
(g70
g51
NtRp4828
(dp4829
g54
(dp4830
sg63
g4815
sg56
(lp4831
g49
(g50
g51
NtRp4832
(dp4833
g54
(dp4834
g62
I5
ssg63
g4828
sg56
(lp4835
S'200'
p4836
asbasbasbag49
(g65
g51
NtRp4837
(dp4838
g54
(dp4839
sg63
g3370
sg56
(lp4840
g49
(g70
g51
NtRp4841
(dp4842
g54
(dp4843
g74
g75
ssg63
g4837
sg56
(lp4844
S'subtitle'
p4845
asbag49
(g70
g51
NtRp4846
(dp4847
g54
(dp4848
g81
g82
ssg63
g4837
sg56
(lp4849
S':'
asbag49
(g70
g51
NtRp4850
(dp4851
g54
(dp4852
sg63
g4837
sg56
(lp4853
g49
(g50
g51
NtRp4854
(dp4855
g54
(dp4856
g62
I5
ssg63
g4850
sg56
(lp4857
g3907
(S's\r\x00\x00\x00customize me!'
tRp4858
asbasbasbag49
(g65
g51
NtRp4859
(dp4860
g54
(dp4861
sg63
g3370
sg56
(lp4862
g49
(g70
g51
NtRp4863
(dp4864
g54
(dp4865
g74
g75
ssg63
g4859
sg56
(lp4866
S'title'
p4867
asbag49
(g70
g51
NtRp4868
(dp4869
g54
(dp4870
g81
g82
ssg63
g4859
sg56
(lp4871
S':'
asbag49
(g70
g51
NtRp4872
(dp4873
g54
(dp4874
sg63
g4859
sg56
(lp4875
g49
(g50
g51
NtRp4876
(dp4877
g54
(dp4878
g62
I5
ssg63
g4872
sg56
(lp4879
S'Udi0312'
p4880
asbasbasbag49
(g65
g51
NtRp4881
(dp4882
g54
(dp4883
sg63
g3370
sg56
(lp4884
g49
(g70
g51
NtRp4885
(dp4886
g54
(dp4887
g74
g75
ssg63
g4881
sg56
(lp4888
g2175
asbag49
(g70
g51
NtRp4889
(dp4890
g54
(dp4891
g81
g82
ssg63
g4881
sg56
(lp4892
S':'
asbag49
(g70
g51
NtRp4893
(dp4894
g54
(dp4895
sg63
g4881
sg56
(lp4896
g49
(g50
g51
NtRp4897
(dp4898
g54
(dp4899
g62
I5
ssg63
g4893
sg56
(lp4900
g2188
asbasbasbag49
(g65
g51
NtRp4901
(dp4902
g54
(dp4903
sg63
g3370
sg56
(lp4904
g49
(g70
g51
NtRp4905
(dp4906
g54
(dp4907
g74
g75
ssg63
g4901
sg56
(lp4908
S'view'
p4909
asbag49
(g70
g51
NtRp4910
(dp4911
g54
(dp4912
g81
g82
ssg63
g4901
sg56
(lp4913
S':'
asbag49
(g70
g51
NtRp4914
(dp4915
g54
(dp4916
sg63
g4901
sg56
(lp4917
g49
(g50
g51
NtRp4918
(dp4919
g54
(dp4920
g62
I5
ssg63
g4914
sg56
(lp4921
S'default/test.html'
p4922
asbasbasbasbasbsS'locals'
p4923
(dp4924
S'read'
p4925
S'<applications.udi0312.modules.readability.Readability object at 0x8cfadf0>'
p4926
sS'json'
p4927
S'{u\'author\': None, u\'content\': u\'<div score="8.75"><div class="body-copy">\\n\\t\\...p>\\n     \\t\\t\\t\\t\\t</div>\\n     \\t\\t\\t\\t\\t</div>\', u\'date_published\': u\'2012-03-08 00:00:00\', u\'domain\': u\'techcrunch.com\', u\'excerpt\': u\'Digital couponing startup SavingStar has been ...pital Partners, First Round Capital, and&hellip;\', u\'next_page_id\': None, u\'rendered_pages\': 1, u\'short_url\': u\'http://rdd.me/nzq9bewp\', u\'title\': u\'With Over 1.5M Users, SavingStar Grabs $9M To Become The Groupon Of Groceries\', u\'total_pages\': 0, ...}'
p4928
sssS'traceback'
p4929
S'Traceback (most recent call last):\n  File "/users/udimilo/Documents/web2py/gluon/restricted.py", line 205, in restricted\n    exec ccode in environment\n  File "/Users/udimilo/Documents/web2py/applications/udi0312/controllers/default.py", line 88, in <module>\n  File "/users/udimilo/Documents/web2py/gluon/globals.py", line 173, in <lambda>\n    self._caller = lambda f: f()\n  File "/Users/udimilo/Documents/web2py/applications/udi0312/controllers/default.py", line 33, in test\n    return content.text\nNameError: global name \'content\' is not defined\n'
p4930
s.