(dp1
S'output'
p2
S"<type 'exceptions.ImportError'> No module named linkedindwwwwwwww"
p3
sS'layer'
p4
S'/Users/udimilo/Documents/web2py/applications/udi0312/models/db.py'
p5
sS'code'
p6
S"# -*- coding: utf-8 -*-\n\n#########################################################################\n## This scaffolding model makes your app work on Google App Engine too\n## File is released under public domain and you can use without limitations\n#########################################################################\n\n## if SSL/HTTPS is properly configured and you want all HTTP requests to\n## be redirected to HTTPS, uncomment the line below:\n# request.requires_https()\n\nif not request.env.web2py_runtime_gae:\n    ## if NOT running on Google App Engine use SQLite or other DB\n    db = DAL('sqlite://storage.sqlite')\nelse:\n    ## connect to Google BigTable (optional 'google:datastore://namespace')\n    db = DAL('google:datastore')\n    ## store sessions and tickets there\n    session.connect(request, response, db = db)\n    ## or store session in Memcache, Redis, etc.\n    ## from gluon.contrib.memdb import MEMDB\n    ## from google.appengine.api.memcache import Client\n    ## session.connect(request, response, db = MEMDB(Client()))\n\n## by default give a view/generic.extension to all actions from localhost\n## none otherwise. a pattern can be 'controller/function.extension'\nresponse.generic_patterns = ['*'] if request.is_local else []\n## (optional) optimize handling of static files\n# response.optimize_css = 'concat,minify,inline'\n# response.optimize_js = 'concat,minify,inline'\n\n#########################################################################\n## Here is sample code if you need for\n## - email capabilities\n## - authentication (registration, login, logout, ... )\n## - authorization (role based authorization)\n## - services (xml, csv, json, xmlrpc, jsonrpc, amf, rss)\n## - old style crud actions\n## (more options discussed in gluon/tools.py)\n#########################################################################\n\nfrom gluon.tools import Auth, Crud, Service, PluginManager, prettydate\nauth = Auth(db, hmac_key=Auth.get_or_create_key())\ncrud, service, plugins = Crud(db), Service(), PluginManager()\n\n## create all tables needed by auth if not custom tables\nauth.define_tables()\n\n## configure email\nmail=auth.settings.mailer\nmail.settings.server = 'logging' or 'smtp.gmail.com:587'\nmail.settings.sender = 'you@gmail.com'\nmail.settings.login = 'username:password'\n\n## configure auth policy\nauth.settings.registration_requires_verification = False\nauth.settings.registration_requires_approval = False\nauth.settings.reset_password_requires_verification = True\n\n## if you need to use OpenID, Facebook, MySpace, Twitter, Linkedin, etc.\n## register with janrain.com, write your domain:api_key in private/janrain.key\n##from gluon.contrib.login_methods.rpx_account import use_janrain\n##use_janrain(auth,filename='private/janrain.key')\n\n## LinkedIn\nimport linkedin\n \napi = linkedin.LinkedIn('key','secret','return_url', gae=False)\nfrom gluon.contrib.login_methods.linkedin_account import LinkedInAccount\nauth.settings.login_form=LinkedInAccount(\n    request,\n    'wFNJekVpDCJtRPFX812pQsJee-gt0zO4X5XmG6wcfSOSlLocxodAXNMbl0_hw3Vl',\n    'daJDa6_8UcnGMw1yuq9TjoO_PMKukXMo8vEMo7Qv5J-G3SPgrAV0FqFCd0TNjQyG',\n    'http://127.0.0.1:8000')\n\n#########################################################################\n## Define your tables below (or better in another model file) for example\n##\n## >>> db.define_table('mytable',Field('myfield','string'))\n##\n## Fields can be 'string','text','password','integer','double','boolean'\n##       'date','time','datetime','blob','upload', 'reference TABLENAME'\n## There is an implicit 'id integer autoincrement' field\n## Consult manual for more options, validators, etc.\n##\n## More API examples for controllers:\n##\n## >>> db.mytable.insert(myfield='value')\n## >>> rows=db(db.mytable.myfield=='value').select(db.mytable.ALL)\n## >>> for row in rows: print row.id, row.myfield\n#########################################################################\n    \ndb.define_table('category',\n    Field('name'),\n    Field('created_on', 'datetime', default=request.now),\n    format = '%(name)s')\n    \ndb.define_table('board',\n    Field('name'),\n    Field('user', db.auth_user),\n    Field('category', db.category),\n    Field('created_on', 'datetime', default=request.now),\n    format = '%(name)s')\n\ndb.define_table('article',\n    Field('url'),\n    Field('readability_url'),\n    Field('title'),\n    Field('content', 'text'),\n    Field('domain'),\n    Field('author'),\n    Field('excerpt', 'text'),\n    Field('word_count'),\n    Field('total_pages'),\n    Field('date_published'),\n    Field('next_page_id'),\n    Field('rendered_pages'),\n    Field('height'),\n    Field('created_on', 'datetime', default=request.now),\n    format = '%(title)s')\n\ndb.define_table('pin',\n    Field('board', db.board),\n    Field('article', db.article),\n    Field('original_pin', 'reference pin'),\n    Field('created_on', 'datetime', default=request.now),)\n\ndb.define_table('star',\n    Field('article', db.article),\n    Field('user', db.auth_user),\n    Field('created_on', 'datetime', default=request.now),)\n    \ndb.define_table('user_user',\n    Field('follower', db.auth_user),\n    Field('followee', db.auth_user),\n    Field('created_on', 'datetime', default=request.now),)\n    \ndb.define_table('user_board',\n    Field('follower', db.auth_user),\n    Field('board', db.board),\n    Field('created_on', 'datetime', default=request.now),)\n\ndb.define_table('rss_feeds',\n    Field('url'),\n    Field('created_on', 'datetime', default=request.now),)\n"
p7
sS'snapshot'
p8
(dp9
S'exception'
p10
(dp11
S'__hash__'
p12
S"<method-wrapper '__hash__' of exceptions.ImportError object at 0x9d9d350>"
p13
sS'__setattr__'
p14
S"<method-wrapper '__setattr__' of exceptions.ImportError object at 0x9d9d350>"
p15
sS'__reduce_ex__'
p16
S'<built-in method __reduce_ex__ of exceptions.ImportError object at 0x9d9d350>'
p17
sS'__getslice__'
p18
S"<method-wrapper '__getslice__' of exceptions.ImportError object at 0x9d9d350>"
p19
sS'__getitem__'
p20
S"<method-wrapper '__getitem__' of exceptions.ImportError object at 0x9d9d350>"
p21
sS'__setstate__'
p22
S'<built-in method __setstate__ of exceptions.ImportError object at 0x9d9d350>'
p23
sS'__reduce__'
p24
S'<built-in method __reduce__ of exceptions.ImportError object at 0x9d9d350>'
p25
sS'__str__'
p26
S"<method-wrapper '__str__' of exceptions.ImportError object at 0x9d9d350>"
p27
sS'args'
p28
S"('No module named linkedindwwwwwwww',)"
p29
sS'__getattribute__'
p30
S"<method-wrapper '__getattribute__' of exceptions.ImportError object at 0x9d9d350>"
p31
sS'__class__'
p32
S"<type 'exceptions.ImportError'>"
p33
sS'__delattr__'
p34
S"<method-wrapper '__delattr__' of exceptions.ImportError object at 0x9d9d350>"
p35
sS'__repr__'
p36
S"<method-wrapper '__repr__' of exceptions.ImportError object at 0x9d9d350>"
p37
sS'__dict__'
p38
S'{}'
p39
sS'__doc__'
p40
S'"Import can\'t find module, or can\'t find name in module."'
p41
sS'__init__'
p42
S"<method-wrapper '__init__' of exceptions.ImportError object at 0x9d9d350>"
p43
sS'__new__'
p44
S'<built-in method __new__ of type object at 0x100cc0>'
p45
ssS'evalue'
p46
S'No module named linkedindwwwwwwww'
p47
sS'request'
p48
ccopy_reg
_reconstructor
p49
(cgluon.html
BEAUTIFY
p50
c__builtin__
object
p51
NtRp52
(dp53
S'attributes'
p54
(dp55
sS'components'
p56
(lp57
g49
(cgluon.html
TABLE
p58
g51
NtRp59
(dp60
g54
(dp61
S'level'
p62
I5
ssS'parent'
p63
Nsg56
(lp64
g49
(cgluon.html
TR
p65
g51
NtRp66
(dp67
g54
(dp68
sg63
g59
sg56
(lp69
g49
(cgluon.html
TD
p70
g51
NtRp71
(dp72
g54
(dp73
S'_style'
p74
S'font-weight:bold;vertical-align:top'
p75
ssg63
g66
sg56
(lp76
S'ajax'
p77
asbag49
(g70
g51
NtRp78
(dp79
g54
(dp80
S'_valign'
p81
S'top'
p82
ssg63
g66
sg56
(lp83
S':'
asbag49
(g70
g51
NtRp84
(dp85
g54
(dp86
sg63
g66
sg56
(lp87
g49
(g50
g51
NtRp88
(dp89
g54
(dp90
g62
I5
ssg63
g84
sg56
(lp91
S'False'
p92
asbasbasbag49
(g65
g51
NtRp93
(dp94
g54
(dp95
sg63
g59
sg56
(lp96
g49
(g70
g51
NtRp97
(dp98
g54
(dp99
g74
g75
ssg63
g93
sg56
(lp100
S'application'
p101
asbag49
(g70
g51
NtRp102
(dp103
g54
(dp104
g81
g82
ssg63
g93
sg56
(lp105
S':'
asbag49
(g70
g51
NtRp106
(dp107
g54
(dp108
sg63
g93
sg56
(lp109
g49
(g50
g51
NtRp110
(dp111
g54
(dp112
g62
I5
ssg63
g106
sg56
(lp113
S'udi0312'
p114
asbasbasbag49
(g65
g51
NtRp115
(dp116
g54
(dp117
sg63
g59
sg56
(lp118
g49
(g70
g51
NtRp119
(dp120
g54
(dp121
g74
g75
ssg63
g115
sg56
(lp122
g28
asbag49
(g70
g51
NtRp123
(dp124
g54
(dp125
g81
g82
ssg63
g115
sg56
(lp126
S':'
asbag49
(g70
g51
NtRp127
(dp128
g54
(dp129
sg63
g115
sg56
(lp130
g49
(g50
g51
NtRp131
(dp132
g54
(dp133
g62
I5
ssg63
g127
sg56
(lp134
g49
(g58
g51
NtRp135
(dp136
g54
(dp137
g62
I4
ssg63
Nsg56
(lp138
sbasbasbasbag49
(g65
g51
NtRp139
(dp140
g54
(dp141
sg63
g59
sg56
(lp142
g49
(g70
g51
NtRp143
(dp144
g54
(dp145
g74
g75
ssg63
g139
sg56
(lp146
S'body'
p147
asbag49
(g70
g51
NtRp148
(dp149
g54
(dp150
g81
g82
ssg63
g139
sg56
(lp151
S':'
asbag49
(g70
g51
NtRp152
(dp153
g54
(dp154
sg63
g139
sg56
(lp155
g49
(g50
g51
NtRp156
(dp157
g54
(dp158
g62
I5
ssg63
g152
sg56
(lp159
S'<cStringIO.StringO object at 0x6fd4ca0>'
p160
asbasbasbag49
(g65
g51
NtRp161
(dp162
g54
(dp163
sg63
g59
sg56
(lp164
g49
(g70
g51
NtRp165
(dp166
g54
(dp167
g74
g75
ssg63
g161
sg56
(lp168
S'client'
p169
asbag49
(g70
g51
NtRp170
(dp171
g54
(dp172
g81
g82
ssg63
g161
sg56
(lp173
S':'
asbag49
(g70
g51
NtRp174
(dp175
g54
(dp176
sg63
g161
sg56
(lp177
g49
(g50
g51
NtRp178
(dp179
g54
(dp180
g62
I5
ssg63
g174
sg56
(lp181
S'127.0.0.1'
p182
asbasbasbag49
(g65
g51
NtRp183
(dp184
g54
(dp185
sg63
g59
sg56
(lp186
g49
(g70
g51
NtRp187
(dp188
g54
(dp189
g74
g75
ssg63
g183
sg56
(lp190
S'controller'
p191
asbag49
(g70
g51
NtRp192
(dp193
g54
(dp194
g81
g82
ssg63
g183
sg56
(lp195
S':'
asbag49
(g70
g51
NtRp196
(dp197
g54
(dp198
sg63
g183
sg56
(lp199
g49
(g50
g51
NtRp200
(dp201
g54
(dp202
g62
I5
ssg63
g196
sg56
(lp203
S'default'
p204
asbasbasbag49
(g65
g51
NtRp205
(dp206
g54
(dp207
sg63
g59
sg56
(lp208
g49
(g70
g51
NtRp209
(dp210
g54
(dp211
g74
g75
ssg63
g205
sg56
(lp212
S'cookies'
p213
asbag49
(g70
g51
NtRp214
(dp215
g54
(dp216
g81
g82
ssg63
g205
sg56
(lp217
S':'
asbag49
(g70
g51
NtRp218
(dp219
g54
(dp220
sg63
g205
sg56
(lp221
g49
(g50
g51
NtRp222
(dp223
g54
(dp224
g62
I5
ssg63
g218
sg56
(lp225
g49
(g58
g51
NtRp226
(dp227
g54
(dp228
g62
I4
ssg63
Nsg56
(lp229
g49
(g65
g51
NtRp230
(dp231
g54
(dp232
sg63
g226
sg56
(lp233
g49
(g70
g51
NtRp234
(dp235
g54
(dp236
g74
g75
ssg63
g230
sg56
(lp237
S'session_id_admin'
p238
asbag49
(g70
g51
NtRp239
(dp240
g54
(dp241
g81
g82
ssg63
g230
sg56
(lp242
S':'
asbag49
(g70
g51
NtRp243
(dp244
g54
(dp245
sg63
g230
sg56
(lp246
g49
(g50
g51
NtRp247
(dp248
g54
(dp249
g62
I4
ssg63
g243
sg56
(lp250
g49
(g58
g51
NtRp251
(dp252
g54
(dp253
g62
I3
ssg63
Nsg56
(lp254
g49
(g65
g51
NtRp255
(dp256
g54
(dp257
sg63
g251
sg56
(lp258
g49
(g70
g51
NtRp259
(dp260
g54
(dp261
g74
g75
ssg63
g255
sg56
(lp262
S'comment'
p263
asbag49
(g70
g51
NtRp264
(dp265
g54
(dp266
g81
g82
ssg63
g255
sg56
(lp267
S':'
asbag49
(g70
g51
NtRp268
(dp269
g54
(dp270
sg63
g255
sg56
(lp271
g49
(g50
g51
NtRp272
(dp273
g54
(dp274
g62
I3
ssg63
g268
sg56
(lp275
S''
asbasbasbag49
(g65
g51
NtRp276
(dp277
g54
(dp278
sg63
g251
sg56
(lp279
g49
(g70
g51
NtRp280
(dp281
g54
(dp282
g74
g75
ssg63
g276
sg56
(lp283
S'domain'
p284
asbag49
(g70
g51
NtRp285
(dp286
g54
(dp287
g81
g82
ssg63
g276
sg56
(lp288
S':'
asbag49
(g70
g51
NtRp289
(dp290
g54
(dp291
sg63
g276
sg56
(lp292
g49
(g50
g51
NtRp293
(dp294
g54
(dp295
g62
I3
ssg63
g289
sg56
(lp296
S''
asbasbasbag49
(g65
g51
NtRp297
(dp298
g54
(dp299
sg63
g251
sg56
(lp300
g49
(g70
g51
NtRp301
(dp302
g54
(dp303
g74
g75
ssg63
g297
sg56
(lp304
S'expires'
p305
asbag49
(g70
g51
NtRp306
(dp307
g54
(dp308
g81
g82
ssg63
g297
sg56
(lp309
S':'
asbag49
(g70
g51
NtRp310
(dp311
g54
(dp312
sg63
g297
sg56
(lp313
g49
(g50
g51
NtRp314
(dp315
g54
(dp316
g62
I3
ssg63
g310
sg56
(lp317
S''
asbasbasbag49
(g65
g51
NtRp318
(dp319
g54
(dp320
sg63
g251
sg56
(lp321
g49
(g70
g51
NtRp322
(dp323
g54
(dp324
g74
g75
ssg63
g318
sg56
(lp325
S'max-age'
p326
asbag49
(g70
g51
NtRp327
(dp328
g54
(dp329
g81
g82
ssg63
g318
sg56
(lp330
S':'
asbag49
(g70
g51
NtRp331
(dp332
g54
(dp333
sg63
g318
sg56
(lp334
g49
(g50
g51
NtRp335
(dp336
g54
(dp337
g62
I3
ssg63
g331
sg56
(lp338
S''
asbasbasbag49
(g65
g51
NtRp339
(dp340
g54
(dp341
sg63
g251
sg56
(lp342
g49
(g70
g51
NtRp343
(dp344
g54
(dp345
g74
g75
ssg63
g339
sg56
(lp346
S'path'
p347
asbag49
(g70
g51
NtRp348
(dp349
g54
(dp350
g81
g82
ssg63
g339
sg56
(lp351
S':'
asbag49
(g70
g51
NtRp352
(dp353
g54
(dp354
sg63
g339
sg56
(lp355
g49
(g50
g51
NtRp356
(dp357
g54
(dp358
g62
I3
ssg63
g352
sg56
(lp359
S''
asbasbasbag49
(g65
g51
NtRp360
(dp361
g54
(dp362
sg63
g251
sg56
(lp363
g49
(g70
g51
NtRp364
(dp365
g54
(dp366
g74
g75
ssg63
g360
sg56
(lp367
S'secure'
p368
asbag49
(g70
g51
NtRp369
(dp370
g54
(dp371
g81
g82
ssg63
g360
sg56
(lp372
S':'
asbag49
(g70
g51
NtRp373
(dp374
g54
(dp375
sg63
g360
sg56
(lp376
g49
(g50
g51
NtRp377
(dp378
g54
(dp379
g62
I3
ssg63
g373
sg56
(lp380
S''
asbasbasbag49
(g65
g51
NtRp381
(dp382
g54
(dp383
sg63
g251
sg56
(lp384
g49
(g70
g51
NtRp385
(dp386
g54
(dp387
g74
g75
ssg63
g381
sg56
(lp388
S'version'
p389
asbag49
(g70
g51
NtRp390
(dp391
g54
(dp392
g81
g82
ssg63
g381
sg56
(lp393
S':'
asbag49
(g70
g51
NtRp394
(dp395
g54
(dp396
sg63
g381
sg56
(lp397
g49
(g50
g51
NtRp398
(dp399
g54
(dp400
g62
I3
ssg63
g394
sg56
(lp401
S''
asbasbasbasbasbasbasbag49
(g65
g51
NtRp402
(dp403
g54
(dp404
sg63
g226
sg56
(lp405
g49
(g70
g51
NtRp406
(dp407
g54
(dp408
g74
g75
ssg63
g402
sg56
(lp409
S'session_id_udi0312'
p410
asbag49
(g70
g51
NtRp411
(dp412
g54
(dp413
g81
g82
ssg63
g402
sg56
(lp414
S':'
asbag49
(g70
g51
NtRp415
(dp416
g54
(dp417
sg63
g402
sg56
(lp418
g49
(g50
g51
NtRp419
(dp420
g54
(dp421
g62
I4
ssg63
g415
sg56
(lp422
g49
(g58
g51
NtRp423
(dp424
g54
(dp425
g62
I3
ssg63
Nsg56
(lp426
g49
(g65
g51
NtRp427
(dp428
g54
(dp429
sg63
g423
sg56
(lp430
g49
(g70
g51
NtRp431
(dp432
g54
(dp433
g74
g75
ssg63
g427
sg56
(lp434
g263
asbag49
(g70
g51
NtRp435
(dp436
g54
(dp437
g81
g82
ssg63
g427
sg56
(lp438
S':'
asbag49
(g70
g51
NtRp439
(dp440
g54
(dp441
sg63
g427
sg56
(lp442
g49
(g50
g51
NtRp443
(dp444
g54
(dp445
g62
I3
ssg63
g439
sg56
(lp446
S''
asbasbasbag49
(g65
g51
NtRp447
(dp448
g54
(dp449
sg63
g423
sg56
(lp450
g49
(g70
g51
NtRp451
(dp452
g54
(dp453
g74
g75
ssg63
g447
sg56
(lp454
g284
asbag49
(g70
g51
NtRp455
(dp456
g54
(dp457
g81
g82
ssg63
g447
sg56
(lp458
S':'
asbag49
(g70
g51
NtRp459
(dp460
g54
(dp461
sg63
g447
sg56
(lp462
g49
(g50
g51
NtRp463
(dp464
g54
(dp465
g62
I3
ssg63
g459
sg56
(lp466
S''
asbasbasbag49
(g65
g51
NtRp467
(dp468
g54
(dp469
sg63
g423
sg56
(lp470
g49
(g70
g51
NtRp471
(dp472
g54
(dp473
g74
g75
ssg63
g467
sg56
(lp474
g305
asbag49
(g70
g51
NtRp475
(dp476
g54
(dp477
g81
g82
ssg63
g467
sg56
(lp478
S':'
asbag49
(g70
g51
NtRp479
(dp480
g54
(dp481
sg63
g467
sg56
(lp482
g49
(g50
g51
NtRp483
(dp484
g54
(dp485
g62
I3
ssg63
g479
sg56
(lp486
S''
asbasbasbag49
(g65
g51
NtRp487
(dp488
g54
(dp489
sg63
g423
sg56
(lp490
g49
(g70
g51
NtRp491
(dp492
g54
(dp493
g74
g75
ssg63
g487
sg56
(lp494
g326
asbag49
(g70
g51
NtRp495
(dp496
g54
(dp497
g81
g82
ssg63
g487
sg56
(lp498
S':'
asbag49
(g70
g51
NtRp499
(dp500
g54
(dp501
sg63
g487
sg56
(lp502
g49
(g50
g51
NtRp503
(dp504
g54
(dp505
g62
I3
ssg63
g499
sg56
(lp506
S''
asbasbasbag49
(g65
g51
NtRp507
(dp508
g54
(dp509
sg63
g423
sg56
(lp510
g49
(g70
g51
NtRp511
(dp512
g54
(dp513
g74
g75
ssg63
g507
sg56
(lp514
g347
asbag49
(g70
g51
NtRp515
(dp516
g54
(dp517
g81
g82
ssg63
g507
sg56
(lp518
S':'
asbag49
(g70
g51
NtRp519
(dp520
g54
(dp521
sg63
g507
sg56
(lp522
g49
(g50
g51
NtRp523
(dp524
g54
(dp525
g62
I3
ssg63
g519
sg56
(lp526
S''
asbasbasbag49
(g65
g51
NtRp527
(dp528
g54
(dp529
sg63
g423
sg56
(lp530
g49
(g70
g51
NtRp531
(dp532
g54
(dp533
g74
g75
ssg63
g527
sg56
(lp534
g368
asbag49
(g70
g51
NtRp535
(dp536
g54
(dp537
g81
g82
ssg63
g527
sg56
(lp538
S':'
asbag49
(g70
g51
NtRp539
(dp540
g54
(dp541
sg63
g527
sg56
(lp542
g49
(g50
g51
NtRp543
(dp544
g54
(dp545
g62
I3
ssg63
g539
sg56
(lp546
S''
asbasbasbag49
(g65
g51
NtRp547
(dp548
g54
(dp549
sg63
g423
sg56
(lp550
g49
(g70
g51
NtRp551
(dp552
g54
(dp553
g74
g75
ssg63
g547
sg56
(lp554
g389
asbag49
(g70
g51
NtRp555
(dp556
g54
(dp557
g81
g82
ssg63
g547
sg56
(lp558
S':'
asbag49
(g70
g51
NtRp559
(dp560
g54
(dp561
sg63
g547
sg56
(lp562
g49
(g50
g51
NtRp563
(dp564
g54
(dp565
g62
I3
ssg63
g559
sg56
(lp566
S''
asbasbasbasbasbasbasbasbasbasbasbag49
(g65
g51
NtRp567
(dp568
g54
(dp569
sg63
g59
sg56
(lp570
g49
(g70
g51
NtRp571
(dp572
g54
(dp573
g74
g75
ssg63
g567
sg56
(lp574
S'env'
p575
asbag49
(g70
g51
NtRp576
(dp577
g54
(dp578
g81
g82
ssg63
g567
sg56
(lp579
S':'
asbag49
(g70
g51
NtRp580
(dp581
g54
(dp582
sg63
g567
sg56
(lp583
g49
(g50
g51
NtRp584
(dp585
g54
(dp586
g62
I5
ssg63
g580
sg56
(lp587
g49
(g58
g51
NtRp588
(dp589
g54
(dp590
g62
I4
ssg63
Nsg56
(lp591
g49
(g65
g51
NtRp592
(dp593
g54
(dp594
sg63
g588
sg56
(lp595
g49
(g70
g51
NtRp596
(dp597
g54
(dp598
g74
g75
ssg63
g592
sg56
(lp599
S'app_folders'
p600
asbag49
(g70
g51
NtRp601
(dp602
g54
(dp603
g81
g82
ssg63
g592
sg56
(lp604
S':'
asbag49
(g70
g51
NtRp605
(dp606
g54
(dp607
sg63
g592
sg56
(lp608
g49
(g50
g51
NtRp609
(dp610
g54
(dp611
g62
I4
ssg63
g605
sg56
(lp612
S"set(['/Users/udimilo/Documents/web2py/applications/udi0312/'])"
p613
asbasbasbag49
(g65
g51
NtRp614
(dp615
g54
(dp616
sg63
g588
sg56
(lp617
g49
(g70
g51
NtRp618
(dp619
g54
(dp620
g74
g75
ssg63
g614
sg56
(lp621
S'applications_parent'
p622
asbag49
(g70
g51
NtRp623
(dp624
g54
(dp625
g81
g82
ssg63
g614
sg56
(lp626
S':'
asbag49
(g70
g51
NtRp627
(dp628
g54
(dp629
sg63
g614
sg56
(lp630
g49
(g50
g51
NtRp631
(dp632
g54
(dp633
g62
I4
ssg63
g627
sg56
(lp634
S'/Users/udimilo/Documents/web2py'
p635
asbasbasbag49
(g65
g51
NtRp636
(dp637
g54
(dp638
sg63
g588
sg56
(lp639
g49
(g70
g51
NtRp640
(dp641
g54
(dp642
g74
g75
ssg63
g636
sg56
(lp643
S'cmd_args'
p644
asbag49
(g70
g51
NtRp645
(dp646
g54
(dp647
g81
g82
ssg63
g636
sg56
(lp648
S':'
asbag49
(g70
g51
NtRp649
(dp650
g54
(dp651
sg63
g636
sg56
(lp652
g49
(g50
g51
NtRp653
(dp654
g54
(dp655
g62
I4
ssg63
g649
sg56
(lp656
g49
(g58
g51
NtRp657
(dp658
g54
(dp659
g62
I3
ssg63
Nsg56
(lp660
sbasbasbasbag49
(g65
g51
NtRp661
(dp662
g54
(dp663
sg63
g588
sg56
(lp664
g49
(g70
g51
NtRp665
(dp666
g54
(dp667
g74
g75
ssg63
g661
sg56
(lp668
S'cmd_options'
p669
asbag49
(g70
g51
NtRp670
(dp671
g54
(dp672
g81
g82
ssg63
g661
sg56
(lp673
S':'
asbag49
(g70
g51
NtRp674
(dp675
g54
(dp676
sg63
g661
sg56
(lp677
g49
(g50
g51
NtRp678
(dp679
g54
(dp680
g62
I4
ssg63
g674
sg56
(lp681
S"<Values at 0x22190a8: {'verbose': False, 'ip': '127.0.0.1', 'shutdown_timeout': 5, 'taskbar': False, 'nocron': False, 'pid_filename': 'httpserver.pid', 'maxthreads': None, 'softcron': False, 'server_name': 'Udi-Milos-MacBook-Pro.local', 'bpython': False, 'nogui': False, 'port': 8000, 'extcron': False, 'debuglevel': 30, 'test': None, 'folder': '/Users/udimilo/Documents/web2py', 'config': '', 'import_models': False, 'winservice': '', 'shell': None, 'run': '', 'log_filename': 'httpserver.log', 'args': [''], 'socket_timeout': 5, 'ssl_ca_certificate': None, 'scheduler': None, 'profiler_filename': None, 'ssl_private_key': '', 'password': '<ask>', 'request_queue_size': 5, 'ssl_certificate': '', 'cronjob': False, 'numthreads': None, 'quiet': False, 'interfaces': None, 'minthreads': None, 'timeout': 10, 'plain': False, 'nobanner': False}>"
p682
asbasbasbag49
(g65
g51
NtRp683
(dp684
g54
(dp685
sg63
g588
sg56
(lp686
g49
(g70
g51
NtRp687
(dp688
g54
(dp689
g74
g75
ssg63
g683
sg56
(lp690
S'db_sessions'
p691
asbag49
(g70
g51
NtRp692
(dp693
g54
(dp694
g81
g82
ssg63
g683
sg56
(lp695
S':'
asbag49
(g70
g51
NtRp696
(dp697
g54
(dp698
sg63
g683
sg56
(lp699
g49
(g50
g51
NtRp700
(dp701
g54
(dp702
g62
I4
ssg63
g696
sg56
(lp703
S'set([])'
p704
asbasbasbag49
(g65
g51
NtRp705
(dp706
g54
(dp707
sg63
g588
sg56
(lp708
g49
(g70
g51
NtRp709
(dp710
g54
(dp711
g74
g75
ssg63
g705
sg56
(lp712
S'debugging'
p713
asbag49
(g70
g51
NtRp714
(dp715
g54
(dp716
g81
g82
ssg63
g705
sg56
(lp717
S':'
asbag49
(g70
g51
NtRp718
(dp719
g54
(dp720
sg63
g705
sg56
(lp721
g49
(g50
g51
NtRp722
(dp723
g54
(dp724
g62
I4
ssg63
g718
sg56
(lp725
g92
asbasbasbag49
(g65
g51
NtRp726
(dp727
g54
(dp728
sg63
g588
sg56
(lp729
g49
(g70
g51
NtRp730
(dp731
g54
(dp732
g74
g75
ssg63
g726
sg56
(lp733
S'gluon_parent'
p734
asbag49
(g70
g51
NtRp735
(dp736
g54
(dp737
g81
g82
ssg63
g726
sg56
(lp738
S':'
asbag49
(g70
g51
NtRp739
(dp740
g54
(dp741
sg63
g726
sg56
(lp742
g49
(g50
g51
NtRp743
(dp744
g54
(dp745
g62
I4
ssg63
g739
sg56
(lp746
S'/Users/udimilo/Documents/web2py'
p747
asbasbasbag49
(g65
g51
NtRp748
(dp749
g54
(dp750
sg63
g588
sg56
(lp751
g49
(g70
g51
NtRp752
(dp753
g54
(dp754
g74
g75
ssg63
g748
sg56
(lp755
S'http_accept'
p756
asbag49
(g70
g51
NtRp757
(dp758
g54
(dp759
g81
g82
ssg63
g748
sg56
(lp760
S':'
asbag49
(g70
g51
NtRp761
(dp762
g54
(dp763
sg63
g748
sg56
(lp764
g49
(g50
g51
NtRp765
(dp766
g54
(dp767
g62
I4
ssg63
g761
sg56
(lp768
S'text/html,application/xhtml+xml,application/xml;q=0.9,*/*;q=0.8'
p769
asbasbasbag49
(g65
g51
NtRp770
(dp771
g54
(dp772
sg63
g588
sg56
(lp773
g49
(g70
g51
NtRp774
(dp775
g54
(dp776
g74
g75
ssg63
g770
sg56
(lp777
S'http_accept_charset'
p778
asbag49
(g70
g51
NtRp779
(dp780
g54
(dp781
g81
g82
ssg63
g770
sg56
(lp782
S':'
asbag49
(g70
g51
NtRp783
(dp784
g54
(dp785
sg63
g770
sg56
(lp786
g49
(g50
g51
NtRp787
(dp788
g54
(dp789
g62
I4
ssg63
g783
sg56
(lp790
S'ISO-8859-1,utf-8;q=0.7,*;q=0.3'
p791
asbasbasbag49
(g65
g51
NtRp792
(dp793
g54
(dp794
sg63
g588
sg56
(lp795
g49
(g70
g51
NtRp796
(dp797
g54
(dp798
g74
g75
ssg63
g792
sg56
(lp799
S'http_accept_encoding'
p800
asbag49
(g70
g51
NtRp801
(dp802
g54
(dp803
g81
g82
ssg63
g792
sg56
(lp804
S':'
asbag49
(g70
g51
NtRp805
(dp806
g54
(dp807
sg63
g792
sg56
(lp808
g49
(g50
g51
NtRp809
(dp810
g54
(dp811
g62
I4
ssg63
g805
sg56
(lp812
S'gzip,deflate,sdch'
p813
asbasbasbag49
(g65
g51
NtRp814
(dp815
g54
(dp816
sg63
g588
sg56
(lp817
g49
(g70
g51
NtRp818
(dp819
g54
(dp820
g74
g75
ssg63
g814
sg56
(lp821
S'http_accept_language'
p822
asbag49
(g70
g51
NtRp823
(dp824
g54
(dp825
g81
g82
ssg63
g814
sg56
(lp826
S':'
asbag49
(g70
g51
NtRp827
(dp828
g54
(dp829
sg63
g814
sg56
(lp830
g49
(g50
g51
NtRp831
(dp832
g54
(dp833
g62
I4
ssg63
g827
sg56
(lp834
S'en-US,en;q=0.8'
p835
asbasbasbag49
(g65
g51
NtRp836
(dp837
g54
(dp838
sg63
g588
sg56
(lp839
g49
(g70
g51
NtRp840
(dp841
g54
(dp842
g74
g75
ssg63
g836
sg56
(lp843
S'http_connection'
p844
asbag49
(g70
g51
NtRp845
(dp846
g54
(dp847
g81
g82
ssg63
g836
sg56
(lp848
S':'
asbag49
(g70
g51
NtRp849
(dp850
g54
(dp851
sg63
g836
sg56
(lp852
g49
(g50
g51
NtRp853
(dp854
g54
(dp855
g62
I4
ssg63
g849
sg56
(lp856
S'keep-alive'
p857
asbasbasbag49
(g65
g51
NtRp858
(dp859
g54
(dp860
sg63
g588
sg56
(lp861
g49
(g70
g51
NtRp862
(dp863
g54
(dp864
g74
g75
ssg63
g858
sg56
(lp865
S'http_cookie'
p866
asbag49
(g70
g51
NtRp867
(dp868
g54
(dp869
g81
g82
ssg63
g858
sg56
(lp870
S':'
asbag49
(g70
g51
NtRp871
(dp872
g54
(dp873
sg63
g858
sg56
(lp874
g49
(g50
g51
NtRp875
(dp876
g54
(dp877
g62
I4
ssg63
g871
sg56
(lp878
S'session_id_udi0312=127.0.0.1-fcd6a577-d448-4882-b7bc-f353da84ba3b; session_id_admin=127.0.0.1-b5d2d893-9021-4d7d-9960-d4141664a5bc'
p879
asbasbasbag49
(g65
g51
NtRp880
(dp881
g54
(dp882
sg63
g588
sg56
(lp883
g49
(g70
g51
NtRp884
(dp885
g54
(dp886
g74
g75
ssg63
g880
sg56
(lp887
S'http_host'
p888
asbag49
(g70
g51
NtRp889
(dp890
g54
(dp891
g81
g82
ssg63
g880
sg56
(lp892
S':'
asbag49
(g70
g51
NtRp893
(dp894
g54
(dp895
sg63
g880
sg56
(lp896
g49
(g50
g51
NtRp897
(dp898
g54
(dp899
g62
I4
ssg63
g893
sg56
(lp900
S'127.0.0.1:8000'
p901
asbasbasbag49
(g65
g51
NtRp902
(dp903
g54
(dp904
sg63
g588
sg56
(lp905
g49
(g70
g51
NtRp906
(dp907
g54
(dp908
g74
g75
ssg63
g902
sg56
(lp909
S'http_user_agent'
p910
asbag49
(g70
g51
NtRp911
(dp912
g54
(dp913
g81
g82
ssg63
g902
sg56
(lp914
S':'
asbag49
(g70
g51
NtRp915
(dp916
g54
(dp917
sg63
g902
sg56
(lp918
g49
(g50
g51
NtRp919
(dp920
g54
(dp921
g62
I4
ssg63
g915
sg56
(lp922
S'Mozilla/5.0 (Macintosh; Intel Mac OS X 10_7_3) AppleWebKit/535.11 (KHTML, like Gecko) Chrome/17.0.963.79 Safari/535.11'
p923
asbasbasbag49
(g65
g51
NtRp924
(dp925
g54
(dp926
sg63
g588
sg56
(lp927
g49
(g70
g51
NtRp928
(dp929
g54
(dp930
g74
g75
ssg63
g924
sg56
(lp931
S'is_jython'
p932
asbag49
(g70
g51
NtRp933
(dp934
g54
(dp935
g81
g82
ssg63
g924
sg56
(lp936
S':'
asbag49
(g70
g51
NtRp937
(dp938
g54
(dp939
sg63
g924
sg56
(lp940
g49
(g50
g51
NtRp941
(dp942
g54
(dp943
g62
I4
ssg63
g937
sg56
(lp944
g92
asbasbasbag49
(g65
g51
NtRp945
(dp946
g54
(dp947
sg63
g588
sg56
(lp948
g49
(g70
g51
NtRp949
(dp950
g54
(dp951
g74
g75
ssg63
g945
sg56
(lp952
S'is_pypy'
p953
asbag49
(g70
g51
NtRp954
(dp955
g54
(dp956
g81
g82
ssg63
g945
sg56
(lp957
S':'
asbag49
(g70
g51
NtRp958
(dp959
g54
(dp960
sg63
g945
sg56
(lp961
g49
(g50
g51
NtRp962
(dp963
g54
(dp964
g62
I4
ssg63
g958
sg56
(lp965
g92
asbasbasbag49
(g65
g51
NtRp966
(dp967
g54
(dp968
sg63
g588
sg56
(lp969
g49
(g70
g51
NtRp970
(dp971
g54
(dp972
g74
g75
ssg63
g966
sg56
(lp973
S'path_info'
p974
asbag49
(g70
g51
NtRp975
(dp976
g54
(dp977
g81
g82
ssg63
g966
sg56
(lp978
S':'
asbag49
(g70
g51
NtRp979
(dp980
g54
(dp981
sg63
g966
sg56
(lp982
g49
(g50
g51
NtRp983
(dp984
g54
(dp985
g62
I4
ssg63
g979
sg56
(lp986
S'/'
asbasbasbag49
(g65
g51
NtRp987
(dp988
g54
(dp989
sg63
g588
sg56
(lp990
g49
(g70
g51
NtRp991
(dp992
g54
(dp993
g74
g75
ssg63
g987
sg56
(lp994
S'query_string'
p995
asbag49
(g70
g51
NtRp996
(dp997
g54
(dp998
g81
g82
ssg63
g987
sg56
(lp999
S':'
asbag49
(g70
g51
NtRp1000
(dp1001
g54
(dp1002
sg63
g987
sg56
(lp1003
g49
(g50
g51
NtRp1004
(dp1005
g54
(dp1006
g62
I4
ssg63
g1000
sg56
(lp1007
S''
asbasbasbag49
(g65
g51
NtRp1008
(dp1009
g54
(dp1010
sg63
g588
sg56
(lp1011
g49
(g70
g51
NtRp1012
(dp1013
g54
(dp1014
g74
g75
ssg63
g1008
sg56
(lp1015
S'remote_addr'
p1016
asbag49
(g70
g51
NtRp1017
(dp1018
g54
(dp1019
g81
g82
ssg63
g1008
sg56
(lp1020
S':'
asbag49
(g70
g51
NtRp1021
(dp1022
g54
(dp1023
sg63
g1008
sg56
(lp1024
g49
(g50
g51
NtRp1025
(dp1026
g54
(dp1027
g62
I4
ssg63
g1021
sg56
(lp1028
g182
asbasbasbag49
(g65
g51
NtRp1029
(dp1030
g54
(dp1031
sg63
g588
sg56
(lp1032
g49
(g70
g51
NtRp1033
(dp1034
g54
(dp1035
g74
g75
ssg63
g1029
sg56
(lp1036
S'remote_port'
p1037
asbag49
(g70
g51
NtRp1038
(dp1039
g54
(dp1040
g81
g82
ssg63
g1029
sg56
(lp1041
S':'
asbag49
(g70
g51
NtRp1042
(dp1043
g54
(dp1044
sg63
g1029
sg56
(lp1045
g49
(g50
g51
NtRp1046
(dp1047
g54
(dp1048
g62
I4
ssg63
g1042
sg56
(lp1049
S'59444'
p1050
asbasbasbag49
(g65
g51
NtRp1051
(dp1052
g54
(dp1053
sg63
g588
sg56
(lp1054
g49
(g70
g51
NtRp1055
(dp1056
g54
(dp1057
g74
g75
ssg63
g1051
sg56
(lp1058
S'request_method'
p1059
asbag49
(g70
g51
NtRp1060
(dp1061
g54
(dp1062
g81
g82
ssg63
g1051
sg56
(lp1063
S':'
asbag49
(g70
g51
NtRp1064
(dp1065
g54
(dp1066
sg63
g1051
sg56
(lp1067
g49
(g50
g51
NtRp1068
(dp1069
g54
(dp1070
g62
I4
ssg63
g1064
sg56
(lp1071
S'GET'
p1072
asbasbasbag49
(g65
g51
NtRp1073
(dp1074
g54
(dp1075
sg63
g588
sg56
(lp1076
g49
(g70
g51
NtRp1077
(dp1078
g54
(dp1079
g74
g75
ssg63
g1073
sg56
(lp1080
S'request_uri'
p1081
asbag49
(g70
g51
NtRp1082
(dp1083
g54
(dp1084
g81
g82
ssg63
g1073
sg56
(lp1085
S':'
asbag49
(g70
g51
NtRp1086
(dp1087
g54
(dp1088
sg63
g1073
sg56
(lp1089
g49
(g50
g51
NtRp1090
(dp1091
g54
(dp1092
g62
I4
ssg63
g1086
sg56
(lp1093
S'/udi0312/default/index'
p1094
asbasbasbag49
(g65
g51
NtRp1095
(dp1096
g54
(dp1097
sg63
g588
sg56
(lp1098
g49
(g70
g51
NtRp1099
(dp1100
g54
(dp1101
g74
g75
ssg63
g1095
sg56
(lp1102
S'script_name'
p1103
asbag49
(g70
g51
NtRp1104
(dp1105
g54
(dp1106
g81
g82
ssg63
g1095
sg56
(lp1107
S':'
asbag49
(g70
g51
NtRp1108
(dp1109
g54
(dp1110
sg63
g1095
sg56
(lp1111
g49
(g50
g51
NtRp1112
(dp1113
g54
(dp1114
g62
I4
ssg63
g1108
sg56
(lp1115
S''
asbasbasbag49
(g65
g51
NtRp1116
(dp1117
g54
(dp1118
sg63
g588
sg56
(lp1119
g49
(g70
g51
NtRp1120
(dp1121
g54
(dp1122
g74
g75
ssg63
g1116
sg56
(lp1123
S'server_name'
p1124
asbag49
(g70
g51
NtRp1125
(dp1126
g54
(dp1127
g81
g82
ssg63
g1116
sg56
(lp1128
S':'
asbag49
(g70
g51
NtRp1129
(dp1130
g54
(dp1131
sg63
g1116
sg56
(lp1132
g49
(g50
g51
NtRp1133
(dp1134
g54
(dp1135
g62
I4
ssg63
g1129
sg56
(lp1136
S'Udi-Milos-MacBook-Pro.local'
p1137
asbasbasbag49
(g65
g51
NtRp1138
(dp1139
g54
(dp1140
sg63
g588
sg56
(lp1141
g49
(g70
g51
NtRp1142
(dp1143
g54
(dp1144
g74
g75
ssg63
g1138
sg56
(lp1145
S'server_port'
p1146
asbag49
(g70
g51
NtRp1147
(dp1148
g54
(dp1149
g81
g82
ssg63
g1138
sg56
(lp1150
S':'
asbag49
(g70
g51
NtRp1151
(dp1152
g54
(dp1153
sg63
g1138
sg56
(lp1154
g49
(g50
g51
NtRp1155
(dp1156
g54
(dp1157
g62
I4
ssg63
g1151
sg56
(lp1158
S'8000'
p1159
asbasbasbag49
(g65
g51
NtRp1160
(dp1161
g54
(dp1162
sg63
g588
sg56
(lp1163
g49
(g70
g51
NtRp1164
(dp1165
g54
(dp1166
g74
g75
ssg63
g1160
sg56
(lp1167
S'server_protocol'
p1168
asbag49
(g70
g51
NtRp1169
(dp1170
g54
(dp1171
g81
g82
ssg63
g1160
sg56
(lp1172
S':'
asbag49
(g70
g51
NtRp1173
(dp1174
g54
(dp1175
sg63
g1160
sg56
(lp1176
g49
(g50
g51
NtRp1177
(dp1178
g54
(dp1179
g62
I4
ssg63
g1173
sg56
(lp1180
S'HTTP/1.1'
p1181
asbasbasbag49
(g65
g51
NtRp1182
(dp1183
g54
(dp1184
sg63
g588
sg56
(lp1185
g49
(g70
g51
NtRp1186
(dp1187
g54
(dp1188
g74
g75
ssg63
g1182
sg56
(lp1189
S'server_software'
p1190
asbag49
(g70
g51
NtRp1191
(dp1192
g54
(dp1193
g81
g82
ssg63
g1182
sg56
(lp1194
S':'
asbag49
(g70
g51
NtRp1195
(dp1196
g54
(dp1197
sg63
g1182
sg56
(lp1198
g49
(g50
g51
NtRp1199
(dp1200
g54
(dp1201
g62
I4
ssg63
g1195
sg56
(lp1202
S'Rocket 1.2.4'
p1203
asbasbasbag49
(g65
g51
NtRp1204
(dp1205
g54
(dp1206
sg63
g588
sg56
(lp1207
g49
(g70
g51
NtRp1208
(dp1209
g54
(dp1210
g74
g75
ssg63
g1204
sg56
(lp1211
S'web2py_crontype'
p1212
asbag49
(g70
g51
NtRp1213
(dp1214
g54
(dp1215
g81
g82
ssg63
g1204
sg56
(lp1216
S':'
asbag49
(g70
g51
NtRp1217
(dp1218
g54
(dp1219
sg63
g1204
sg56
(lp1220
g49
(g50
g51
NtRp1221
(dp1222
g54
(dp1223
g62
I4
ssg63
g1217
sg56
(lp1224
S'hard'
p1225
asbasbasbag49
(g65
g51
NtRp1226
(dp1227
g54
(dp1228
sg63
g588
sg56
(lp1229
g49
(g70
g51
NtRp1230
(dp1231
g54
(dp1232
g74
g75
ssg63
g1226
sg56
(lp1233
S'web2py_original_uri'
p1234
asbag49
(g70
g51
NtRp1235
(dp1236
g54
(dp1237
g81
g82
ssg63
g1226
sg56
(lp1238
S':'
asbag49
(g70
g51
NtRp1239
(dp1240
g54
(dp1241
sg63
g1226
sg56
(lp1242
g49
(g50
g51
NtRp1243
(dp1244
g54
(dp1245
g62
I4
ssg63
g1239
sg56
(lp1246
S'/'
asbasbasbag49
(g65
g51
NtRp1247
(dp1248
g54
(dp1249
sg63
g588
sg56
(lp1250
g49
(g70
g51
NtRp1251
(dp1252
g54
(dp1253
g74
g75
ssg63
g1247
sg56
(lp1254
S'web2py_path'
p1255
asbag49
(g70
g51
NtRp1256
(dp1257
g54
(dp1258
g81
g82
ssg63
g1247
sg56
(lp1259
S':'
asbag49
(g70
g51
NtRp1260
(dp1261
g54
(dp1262
sg63
g1247
sg56
(lp1263
g49
(g50
g51
NtRp1264
(dp1265
g54
(dp1266
g62
I4
ssg63
g1260
sg56
(lp1267
g635
asbasbasbag49
(g65
g51
NtRp1268
(dp1269
g54
(dp1270
sg63
g588
sg56
(lp1271
g49
(g70
g51
NtRp1272
(dp1273
g54
(dp1274
g74
g75
ssg63
g1268
sg56
(lp1275
S'web2py_version'
p1276
asbag49
(g70
g51
NtRp1277
(dp1278
g54
(dp1279
g81
g82
ssg63
g1268
sg56
(lp1280
S':'
asbag49
(g70
g51
NtRp1281
(dp1282
g54
(dp1283
sg63
g1268
sg56
(lp1284
g49
(g50
g51
NtRp1285
(dp1286
g54
(dp1287
g62
I4
ssg63
g1281
sg56
(lp1288
g49
(g58
g51
NtRp1289
(dp1290
g54
(dp1291
g62
I3
ssg63
Nsg56
(lp1292
g49
(g65
g51
NtRp1293
(dp1294
g54
(dp1295
sg63
g1289
sg56
(lp1296
g49
(g70
g51
NtRp1297
(dp1298
g54
(dp1299
sg63
g1293
sg56
(lp1300
g49
(g50
g51
NtRp1301
(dp1302
g54
(dp1303
g62
I3
ssg63
g1297
sg56
(lp1304
S'1'
asbasbasbag49
(g65
g51
NtRp1305
(dp1306
g54
(dp1307
sg63
g1289
sg56
(lp1308
g49
(g70
g51
NtRp1309
(dp1310
g54
(dp1311
sg63
g1305
sg56
(lp1312
g49
(g50
g51
NtRp1313
(dp1314
g54
(dp1315
g62
I3
ssg63
g1309
sg56
(lp1316
S'99'
p1317
asbasbasbag49
(g65
g51
NtRp1318
(dp1319
g54
(dp1320
sg63
g1289
sg56
(lp1321
g49
(g70
g51
NtRp1322
(dp1323
g54
(dp1324
sg63
g1318
sg56
(lp1325
g49
(g50
g51
NtRp1326
(dp1327
g54
(dp1328
g62
I3
ssg63
g1322
sg56
(lp1329
S'7'
asbasbasbag49
(g65
g51
NtRp1330
(dp1331
g54
(dp1332
sg63
g1289
sg56
(lp1333
g49
(g70
g51
NtRp1334
(dp1335
g54
(dp1336
sg63
g1330
sg56
(lp1337
g49
(g50
g51
NtRp1338
(dp1339
g54
(dp1340
g62
I3
ssg63
g1334
sg56
(lp1341
S'datetime.datetime(2012, 3, 4, 22, 12, 8)'
p1342
asbasbasbag49
(g65
g51
NtRp1343
(dp1344
g54
(dp1345
sg63
g1289
sg56
(lp1346
g49
(g70
g51
NtRp1347
(dp1348
g54
(dp1349
sg63
g1343
sg56
(lp1350
g49
(g50
g51
NtRp1351
(dp1352
g54
(dp1353
g62
I3
ssg63
g1347
sg56
(lp1354
S'stable'
p1355
asbasbasbasbasbasbasbag49
(g65
g51
NtRp1356
(dp1357
g54
(dp1358
sg63
g588
sg56
(lp1359
g49
(g70
g51
NtRp1360
(dp1361
g54
(dp1362
g74
g75
ssg63
g1356
sg56
(lp1363
S'wsgi_errors'
p1364
asbag49
(g70
g51
NtRp1365
(dp1366
g54
(dp1367
g81
g82
ssg63
g1356
sg56
(lp1368
S':'
asbag49
(g70
g51
NtRp1369
(dp1370
g54
(dp1371
sg63
g1356
sg56
(lp1372
g49
(g50
g51
NtRp1373
(dp1374
g54
(dp1375
g62
I4
ssg63
g1369
sg56
(lp1376
S"<open file '<stderr>', mode 'w' at 0x4220b0>"
p1377
asbasbasbag49
(g65
g51
NtRp1378
(dp1379
g54
(dp1380
sg63
g588
sg56
(lp1381
g49
(g70
g51
NtRp1382
(dp1383
g54
(dp1384
g74
g75
ssg63
g1378
sg56
(lp1385
S'wsgi_file_wrapper'
p1386
asbag49
(g70
g51
NtRp1387
(dp1388
g54
(dp1389
g81
g82
ssg63
g1378
sg56
(lp1390
S':'
asbag49
(g70
g51
NtRp1391
(dp1392
g54
(dp1393
sg63
g1378
sg56
(lp1394
g49
(g50
g51
NtRp1395
(dp1396
g54
(dp1397
g62
I4
ssg63
g1391
sg56
(lp1398
S'<class wsgiref.util.FileWrapper at 0x215e6c0>'
p1399
asbasbasbag49
(g65
g51
NtRp1400
(dp1401
g54
(dp1402
sg63
g588
sg56
(lp1403
g49
(g70
g51
NtRp1404
(dp1405
g54
(dp1406
g74
g75
ssg63
g1400
sg56
(lp1407
S'wsgi_input'
p1408
asbag49
(g70
g51
NtRp1409
(dp1410
g54
(dp1411
g81
g82
ssg63
g1400
sg56
(lp1412
S':'
asbag49
(g70
g51
NtRp1413
(dp1414
g54
(dp1415
sg63
g1400
sg56
(lp1416
g49
(g50
g51
NtRp1417
(dp1418
g54
(dp1419
g62
I4
ssg63
g1413
sg56
(lp1420
S'<socket._fileobject object at 0x6fd9af0>'
p1421
asbasbasbag49
(g65
g51
NtRp1422
(dp1423
g54
(dp1424
sg63
g588
sg56
(lp1425
g49
(g70
g51
NtRp1426
(dp1427
g54
(dp1428
g74
g75
ssg63
g1422
sg56
(lp1429
S'wsgi_multiprocess'
p1430
asbag49
(g70
g51
NtRp1431
(dp1432
g54
(dp1433
g81
g82
ssg63
g1422
sg56
(lp1434
S':'
asbag49
(g70
g51
NtRp1435
(dp1436
g54
(dp1437
sg63
g1422
sg56
(lp1438
g49
(g50
g51
NtRp1439
(dp1440
g54
(dp1441
g62
I4
ssg63
g1435
sg56
(lp1442
g92
asbasbasbag49
(g65
g51
NtRp1443
(dp1444
g54
(dp1445
sg63
g588
sg56
(lp1446
g49
(g70
g51
NtRp1447
(dp1448
g54
(dp1449
g74
g75
ssg63
g1443
sg56
(lp1450
S'wsgi_multithread'
p1451
asbag49
(g70
g51
NtRp1452
(dp1453
g54
(dp1454
g81
g82
ssg63
g1443
sg56
(lp1455
S':'
asbag49
(g70
g51
NtRp1456
(dp1457
g54
(dp1458
sg63
g1443
sg56
(lp1459
g49
(g50
g51
NtRp1460
(dp1461
g54
(dp1462
g62
I4
ssg63
g1456
sg56
(lp1463
S'True'
p1464
asbasbasbag49
(g65
g51
NtRp1465
(dp1466
g54
(dp1467
sg63
g588
sg56
(lp1468
g49
(g70
g51
NtRp1469
(dp1470
g54
(dp1471
g74
g75
ssg63
g1465
sg56
(lp1472
S'wsgi_run_once'
p1473
asbag49
(g70
g51
NtRp1474
(dp1475
g54
(dp1476
g81
g82
ssg63
g1465
sg56
(lp1477
S':'
asbag49
(g70
g51
NtRp1478
(dp1479
g54
(dp1480
sg63
g1465
sg56
(lp1481
g49
(g50
g51
NtRp1482
(dp1483
g54
(dp1484
g62
I4
ssg63
g1478
sg56
(lp1485
g92
asbasbasbag49
(g65
g51
NtRp1486
(dp1487
g54
(dp1488
sg63
g588
sg56
(lp1489
g49
(g70
g51
NtRp1490
(dp1491
g54
(dp1492
g74
g75
ssg63
g1486
sg56
(lp1493
S'wsgi_url_scheme'
p1494
asbag49
(g70
g51
NtRp1495
(dp1496
g54
(dp1497
g81
g82
ssg63
g1486
sg56
(lp1498
S':'
asbag49
(g70
g51
NtRp1499
(dp1500
g54
(dp1501
sg63
g1486
sg56
(lp1502
g49
(g50
g51
NtRp1503
(dp1504
g54
(dp1505
g62
I4
ssg63
g1499
sg56
(lp1506
S'http'
p1507
asbasbasbag49
(g65
g51
NtRp1508
(dp1509
g54
(dp1510
sg63
g588
sg56
(lp1511
g49
(g70
g51
NtRp1512
(dp1513
g54
(dp1514
g74
g75
ssg63
g1508
sg56
(lp1515
S'wsgi_version'
p1516
asbag49
(g70
g51
NtRp1517
(dp1518
g54
(dp1519
g81
g82
ssg63
g1508
sg56
(lp1520
S':'
asbag49
(g70
g51
NtRp1521
(dp1522
g54
(dp1523
sg63
g1508
sg56
(lp1524
g49
(g50
g51
NtRp1525
(dp1526
g54
(dp1527
g62
I4
ssg63
g1521
sg56
(lp1528
g49
(g58
g51
NtRp1529
(dp1530
g54
(dp1531
g62
I3
ssg63
Nsg56
(lp1532
g49
(g65
g51
NtRp1533
(dp1534
g54
(dp1535
sg63
g1529
sg56
(lp1536
g49
(g70
g51
NtRp1537
(dp1538
g54
(dp1539
sg63
g1533
sg56
(lp1540
g49
(g50
g51
NtRp1541
(dp1542
g54
(dp1543
g62
I3
ssg63
g1537
sg56
(lp1544
S'1'
asbasbasbag49
(g65
g51
NtRp1545
(dp1546
g54
(dp1547
sg63
g1529
sg56
(lp1548
g49
(g70
g51
NtRp1549
(dp1550
g54
(dp1551
sg63
g1545
sg56
(lp1552
g49
(g50
g51
NtRp1553
(dp1554
g54
(dp1555
g62
I3
ssg63
g1549
sg56
(lp1556
S'0'
asbasbasbasbasbasbasbasbasbasbasbag49
(g65
g51
NtRp1557
(dp1558
g54
(dp1559
sg63
g59
sg56
(lp1560
g49
(g70
g51
NtRp1561
(dp1562
g54
(dp1563
g74
g75
ssg63
g1557
sg56
(lp1564
S'extension'
p1565
asbag49
(g70
g51
NtRp1566
(dp1567
g54
(dp1568
g81
g82
ssg63
g1557
sg56
(lp1569
S':'
asbag49
(g70
g51
NtRp1570
(dp1571
g54
(dp1572
sg63
g1557
sg56
(lp1573
g49
(g50
g51
NtRp1574
(dp1575
g54
(dp1576
g62
I5
ssg63
g1570
sg56
(lp1577
S'html'
p1578
asbasbasbag49
(g65
g51
NtRp1579
(dp1580
g54
(dp1581
sg63
g59
sg56
(lp1582
g49
(g70
g51
NtRp1583
(dp1584
g54
(dp1585
g74
g75
ssg63
g1579
sg56
(lp1586
S'folder'
p1587
asbag49
(g70
g51
NtRp1588
(dp1589
g54
(dp1590
g81
g82
ssg63
g1579
sg56
(lp1591
S':'
asbag49
(g70
g51
NtRp1592
(dp1593
g54
(dp1594
sg63
g1579
sg56
(lp1595
g49
(g50
g51
NtRp1596
(dp1597
g54
(dp1598
g62
I5
ssg63
g1592
sg56
(lp1599
S'/Users/udimilo/Documents/web2py/applications/udi0312/'
p1600
asbasbasbag49
(g65
g51
NtRp1601
(dp1602
g54
(dp1603
sg63
g59
sg56
(lp1604
g49
(g70
g51
NtRp1605
(dp1606
g54
(dp1607
g74
g75
ssg63
g1601
sg56
(lp1608
S'function'
p1609
asbag49
(g70
g51
NtRp1610
(dp1611
g54
(dp1612
g81
g82
ssg63
g1601
sg56
(lp1613
S':'
asbag49
(g70
g51
NtRp1614
(dp1615
g54
(dp1616
sg63
g1601
sg56
(lp1617
g49
(g50
g51
NtRp1618
(dp1619
g54
(dp1620
g62
I5
ssg63
g1614
sg56
(lp1621
S'index'
p1622
asbasbasbag49
(g65
g51
NtRp1623
(dp1624
g54
(dp1625
sg63
g59
sg56
(lp1626
g49
(g70
g51
NtRp1627
(dp1628
g54
(dp1629
g74
g75
ssg63
g1623
sg56
(lp1630
S'get_vars'
p1631
asbag49
(g70
g51
NtRp1632
(dp1633
g54
(dp1634
g81
g82
ssg63
g1623
sg56
(lp1635
S':'
asbag49
(g70
g51
NtRp1636
(dp1637
g54
(dp1638
sg63
g1623
sg56
(lp1639
g49
(g50
g51
NtRp1640
(dp1641
g54
(dp1642
g62
I5
ssg63
g1636
sg56
(lp1643
g49
(g58
g51
NtRp1644
(dp1645
g54
(dp1646
g62
I4
ssg63
Nsg56
(lp1647
sbasbasbasbag49
(g65
g51
NtRp1648
(dp1649
g54
(dp1650
sg63
g59
sg56
(lp1651
g49
(g70
g51
NtRp1652
(dp1653
g54
(dp1654
g74
g75
ssg63
g1648
sg56
(lp1655
S'global_settings'
p1656
asbag49
(g70
g51
NtRp1657
(dp1658
g54
(dp1659
g81
g82
ssg63
g1648
sg56
(lp1660
S':'
asbag49
(g70
g51
NtRp1661
(dp1662
g54
(dp1663
sg63
g1648
sg56
(lp1664
g49
(g50
g51
NtRp1665
(dp1666
g54
(dp1667
g62
I5
ssg63
g1661
sg56
(lp1668
g49
(g58
g51
NtRp1669
(dp1670
g54
(dp1671
g62
I4
ssg63
Nsg56
(lp1672
g49
(g65
g51
NtRp1673
(dp1674
g54
(dp1675
sg63
g1669
sg56
(lp1676
g49
(g70
g51
NtRp1677
(dp1678
g54
(dp1679
g74
g75
ssg63
g1673
sg56
(lp1680
g600
asbag49
(g70
g51
NtRp1681
(dp1682
g54
(dp1683
g81
g82
ssg63
g1673
sg56
(lp1684
S':'
asbag49
(g70
g51
NtRp1685
(dp1686
g54
(dp1687
sg63
g1673
sg56
(lp1688
g49
(g50
g51
NtRp1689
(dp1690
g54
(dp1691
g62
I4
ssg63
g1685
sg56
(lp1692
S"set(['/Users/udimilo/Documents/web2py/applications/udi0312/'])"
p1693
asbasbasbag49
(g65
g51
NtRp1694
(dp1695
g54
(dp1696
sg63
g1669
sg56
(lp1697
g49
(g70
g51
NtRp1698
(dp1699
g54
(dp1700
g74
g75
ssg63
g1694
sg56
(lp1701
g622
asbag49
(g70
g51
NtRp1702
(dp1703
g54
(dp1704
g81
g82
ssg63
g1694
sg56
(lp1705
S':'
asbag49
(g70
g51
NtRp1706
(dp1707
g54
(dp1708
sg63
g1694
sg56
(lp1709
g49
(g50
g51
NtRp1710
(dp1711
g54
(dp1712
g62
I4
ssg63
g1706
sg56
(lp1713
g635
asbasbasbag49
(g65
g51
NtRp1714
(dp1715
g54
(dp1716
sg63
g1669
sg56
(lp1717
g49
(g70
g51
NtRp1718
(dp1719
g54
(dp1720
g74
g75
ssg63
g1714
sg56
(lp1721
g644
asbag49
(g70
g51
NtRp1722
(dp1723
g54
(dp1724
g81
g82
ssg63
g1714
sg56
(lp1725
S':'
asbag49
(g70
g51
NtRp1726
(dp1727
g54
(dp1728
sg63
g1714
sg56
(lp1729
g49
(g50
g51
NtRp1730
(dp1731
g54
(dp1732
g62
I4
ssg63
g1726
sg56
(lp1733
g49
(g58
g51
NtRp1734
(dp1735
g54
(dp1736
g62
I3
ssg63
Nsg56
(lp1737
sbasbasbasbag49
(g65
g51
NtRp1738
(dp1739
g54
(dp1740
sg63
g1669
sg56
(lp1741
g49
(g70
g51
NtRp1742
(dp1743
g54
(dp1744
g74
g75
ssg63
g1738
sg56
(lp1745
g669
asbag49
(g70
g51
NtRp1746
(dp1747
g54
(dp1748
g81
g82
ssg63
g1738
sg56
(lp1749
S':'
asbag49
(g70
g51
NtRp1750
(dp1751
g54
(dp1752
sg63
g1738
sg56
(lp1753
g49
(g50
g51
NtRp1754
(dp1755
g54
(dp1756
g62
I4
ssg63
g1750
sg56
(lp1757
S"<Values at 0x22190a8: {'verbose': False, 'ip': '127.0.0.1', 'shutdown_timeout': 5, 'taskbar': False, 'nocron': False, 'pid_filename': 'httpserver.pid', 'maxthreads': None, 'softcron': False, 'server_name': 'Udi-Milos-MacBook-Pro.local', 'bpython': False, 'nogui': False, 'port': 8000, 'extcron': False, 'debuglevel': 30, 'test': None, 'folder': '/Users/udimilo/Documents/web2py', 'config': '', 'import_models': False, 'winservice': '', 'shell': None, 'run': '', 'log_filename': 'httpserver.log', 'args': [''], 'socket_timeout': 5, 'ssl_ca_certificate': None, 'scheduler': None, 'profiler_filename': None, 'ssl_private_key': '', 'password': '<ask>', 'request_queue_size': 5, 'ssl_certificate': '', 'cronjob': False, 'numthreads': None, 'quiet': False, 'interfaces': None, 'minthreads': None, 'timeout': 10, 'plain': False, 'nobanner': False}>"
p1758
asbasbasbag49
(g65
g51
NtRp1759
(dp1760
g54
(dp1761
sg63
g1669
sg56
(lp1762
g49
(g70
g51
NtRp1763
(dp1764
g54
(dp1765
g74
g75
ssg63
g1759
sg56
(lp1766
g691
asbag49
(g70
g51
NtRp1767
(dp1768
g54
(dp1769
g81
g82
ssg63
g1759
sg56
(lp1770
S':'
asbag49
(g70
g51
NtRp1771
(dp1772
g54
(dp1773
sg63
g1759
sg56
(lp1774
g49
(g50
g51
NtRp1775
(dp1776
g54
(dp1777
g62
I4
ssg63
g1771
sg56
(lp1778
S'set([])'
p1779
asbasbasbag49
(g65
g51
NtRp1780
(dp1781
g54
(dp1782
sg63
g1669
sg56
(lp1783
g49
(g70
g51
NtRp1784
(dp1785
g54
(dp1786
g74
g75
ssg63
g1780
sg56
(lp1787
g713
asbag49
(g70
g51
NtRp1788
(dp1789
g54
(dp1790
g81
g82
ssg63
g1780
sg56
(lp1791
S':'
asbag49
(g70
g51
NtRp1792
(dp1793
g54
(dp1794
sg63
g1780
sg56
(lp1795
g49
(g50
g51
NtRp1796
(dp1797
g54
(dp1798
g62
I4
ssg63
g1792
sg56
(lp1799
g92
asbasbasbag49
(g65
g51
NtRp1800
(dp1801
g54
(dp1802
sg63
g1669
sg56
(lp1803
g49
(g70
g51
NtRp1804
(dp1805
g54
(dp1806
g74
g75
ssg63
g1800
sg56
(lp1807
g734
asbag49
(g70
g51
NtRp1808
(dp1809
g54
(dp1810
g81
g82
ssg63
g1800
sg56
(lp1811
S':'
asbag49
(g70
g51
NtRp1812
(dp1813
g54
(dp1814
sg63
g1800
sg56
(lp1815
g49
(g50
g51
NtRp1816
(dp1817
g54
(dp1818
g62
I4
ssg63
g1812
sg56
(lp1819
g747
asbasbasbag49
(g65
g51
NtRp1820
(dp1821
g54
(dp1822
sg63
g1669
sg56
(lp1823
g49
(g70
g51
NtRp1824
(dp1825
g54
(dp1826
g74
g75
ssg63
g1820
sg56
(lp1827
g932
asbag49
(g70
g51
NtRp1828
(dp1829
g54
(dp1830
g81
g82
ssg63
g1820
sg56
(lp1831
S':'
asbag49
(g70
g51
NtRp1832
(dp1833
g54
(dp1834
sg63
g1820
sg56
(lp1835
g49
(g50
g51
NtRp1836
(dp1837
g54
(dp1838
g62
I4
ssg63
g1832
sg56
(lp1839
g92
asbasbasbag49
(g65
g51
NtRp1840
(dp1841
g54
(dp1842
sg63
g1669
sg56
(lp1843
g49
(g70
g51
NtRp1844
(dp1845
g54
(dp1846
g74
g75
ssg63
g1840
sg56
(lp1847
g953
asbag49
(g70
g51
NtRp1848
(dp1849
g54
(dp1850
g81
g82
ssg63
g1840
sg56
(lp1851
S':'
asbag49
(g70
g51
NtRp1852
(dp1853
g54
(dp1854
sg63
g1840
sg56
(lp1855
g49
(g50
g51
NtRp1856
(dp1857
g54
(dp1858
g62
I4
ssg63
g1852
sg56
(lp1859
g92
asbasbasbag49
(g65
g51
NtRp1860
(dp1861
g54
(dp1862
sg63
g1669
sg56
(lp1863
g49
(g70
g51
NtRp1864
(dp1865
g54
(dp1866
g74
g75
ssg63
g1860
sg56
(lp1867
g1212
asbag49
(g70
g51
NtRp1868
(dp1869
g54
(dp1870
g81
g82
ssg63
g1860
sg56
(lp1871
S':'
asbag49
(g70
g51
NtRp1872
(dp1873
g54
(dp1874
sg63
g1860
sg56
(lp1875
g49
(g50
g51
NtRp1876
(dp1877
g54
(dp1878
g62
I4
ssg63
g1872
sg56
(lp1879
g1225
asbasbasbag49
(g65
g51
NtRp1880
(dp1881
g54
(dp1882
sg63
g1669
sg56
(lp1883
g49
(g70
g51
NtRp1884
(dp1885
g54
(dp1886
g74
g75
ssg63
g1880
sg56
(lp1887
g1276
asbag49
(g70
g51
NtRp1888
(dp1889
g54
(dp1890
g81
g82
ssg63
g1880
sg56
(lp1891
S':'
asbag49
(g70
g51
NtRp1892
(dp1893
g54
(dp1894
sg63
g1880
sg56
(lp1895
g49
(g50
g51
NtRp1896
(dp1897
g54
(dp1898
g62
I4
ssg63
g1892
sg56
(lp1899
g49
(g58
g51
NtRp1900
(dp1901
g54
(dp1902
g62
I3
ssg63
Nsg56
(lp1903
g49
(g65
g51
NtRp1904
(dp1905
g54
(dp1906
sg63
g1900
sg56
(lp1907
g49
(g70
g51
NtRp1908
(dp1909
g54
(dp1910
sg63
g1904
sg56
(lp1911
g49
(g50
g51
NtRp1912
(dp1913
g54
(dp1914
g62
I3
ssg63
g1908
sg56
(lp1915
S'1'
asbasbasbag49
(g65
g51
NtRp1916
(dp1917
g54
(dp1918
sg63
g1900
sg56
(lp1919
g49
(g70
g51
NtRp1920
(dp1921
g54
(dp1922
sg63
g1916
sg56
(lp1923
g49
(g50
g51
NtRp1924
(dp1925
g54
(dp1926
g62
I3
ssg63
g1920
sg56
(lp1927
S'99'
p1928
asbasbasbag49
(g65
g51
NtRp1929
(dp1930
g54
(dp1931
sg63
g1900
sg56
(lp1932
g49
(g70
g51
NtRp1933
(dp1934
g54
(dp1935
sg63
g1929
sg56
(lp1936
g49
(g50
g51
NtRp1937
(dp1938
g54
(dp1939
g62
I3
ssg63
g1933
sg56
(lp1940
S'7'
asbasbasbag49
(g65
g51
NtRp1941
(dp1942
g54
(dp1943
sg63
g1900
sg56
(lp1944
g49
(g70
g51
NtRp1945
(dp1946
g54
(dp1947
sg63
g1941
sg56
(lp1948
g49
(g50
g51
NtRp1949
(dp1950
g54
(dp1951
g62
I3
ssg63
g1945
sg56
(lp1952
S'datetime.datetime(2012, 3, 4, 22, 12, 8)'
p1953
asbasbasbag49
(g65
g51
NtRp1954
(dp1955
g54
(dp1956
sg63
g1900
sg56
(lp1957
g49
(g70
g51
NtRp1958
(dp1959
g54
(dp1960
sg63
g1954
sg56
(lp1961
g49
(g50
g51
NtRp1962
(dp1963
g54
(dp1964
g62
I3
ssg63
g1958
sg56
(lp1965
g1355
asbasbasbasbasbasbasbasbasbasbasbag49
(g65
g51
NtRp1966
(dp1967
g54
(dp1968
sg63
g59
sg56
(lp1969
g49
(g70
g51
NtRp1970
(dp1971
g54
(dp1972
g74
g75
ssg63
g1966
sg56
(lp1973
S'is_https'
p1974
asbag49
(g70
g51
NtRp1975
(dp1976
g54
(dp1977
g81
g82
ssg63
g1966
sg56
(lp1978
S':'
asbag49
(g70
g51
NtRp1979
(dp1980
g54
(dp1981
sg63
g1966
sg56
(lp1982
g49
(g50
g51
NtRp1983
(dp1984
g54
(dp1985
g62
I5
ssg63
g1979
sg56
(lp1986
g92
asbasbasbag49
(g65
g51
NtRp1987
(dp1988
g54
(dp1989
sg63
g59
sg56
(lp1990
g49
(g70
g51
NtRp1991
(dp1992
g54
(dp1993
g74
g75
ssg63
g1987
sg56
(lp1994
S'is_local'
p1995
asbag49
(g70
g51
NtRp1996
(dp1997
g54
(dp1998
g81
g82
ssg63
g1987
sg56
(lp1999
S':'
asbag49
(g70
g51
NtRp2000
(dp2001
g54
(dp2002
sg63
g1987
sg56
(lp2003
g49
(g50
g51
NtRp2004
(dp2005
g54
(dp2006
g62
I5
ssg63
g2000
sg56
(lp2007
g1464
asbasbasbag49
(g65
g51
NtRp2008
(dp2009
g54
(dp2010
sg63
g59
sg56
(lp2011
g49
(g70
g51
NtRp2012
(dp2013
g54
(dp2014
g74
g75
ssg63
g2008
sg56
(lp2015
S'is_restful'
p2016
asbag49
(g70
g51
NtRp2017
(dp2018
g54
(dp2019
g81
g82
ssg63
g2008
sg56
(lp2020
S':'
asbag49
(g70
g51
NtRp2021
(dp2022
g54
(dp2023
sg63
g2008
sg56
(lp2024
g49
(g50
g51
NtRp2025
(dp2026
g54
(dp2027
g62
I5
ssg63
g2021
sg56
(lp2028
g92
asbasbasbag49
(g65
g51
NtRp2029
(dp2030
g54
(dp2031
sg63
g59
sg56
(lp2032
g49
(g70
g51
NtRp2033
(dp2034
g54
(dp2035
g74
g75
ssg63
g2029
sg56
(lp2036
S'now'
p2037
asbag49
(g70
g51
NtRp2038
(dp2039
g54
(dp2040
g81
g82
ssg63
g2029
sg56
(lp2041
S':'
asbag49
(g70
g51
NtRp2042
(dp2043
g54
(dp2044
sg63
g2029
sg56
(lp2045
g49
(g50
g51
NtRp2046
(dp2047
g54
(dp2048
g62
I5
ssg63
g2042
sg56
(lp2049
S'datetime.datetime(2012, 3, 21, 12, 1, 56, 874248)'
p2050
asbasbasbag49
(g65
g51
NtRp2051
(dp2052
g54
(dp2053
sg63
g59
sg56
(lp2054
g49
(g70
g51
NtRp2055
(dp2056
g54
(dp2057
g74
g75
ssg63
g2051
sg56
(lp2058
S'post_vars'
p2059
asbag49
(g70
g51
NtRp2060
(dp2061
g54
(dp2062
g81
g82
ssg63
g2051
sg56
(lp2063
S':'
asbag49
(g70
g51
NtRp2064
(dp2065
g54
(dp2066
sg63
g2051
sg56
(lp2067
g49
(g50
g51
NtRp2068
(dp2069
g54
(dp2070
g62
I5
ssg63
g2064
sg56
(lp2071
g49
(g58
g51
NtRp2072
(dp2073
g54
(dp2074
g62
I4
ssg63
Nsg56
(lp2075
sbasbasbasbag49
(g65
g51
NtRp2076
(dp2077
g54
(dp2078
sg63
g59
sg56
(lp2079
g49
(g70
g51
NtRp2080
(dp2081
g54
(dp2082
g74
g75
ssg63
g2076
sg56
(lp2083
S'url'
p2084
asbag49
(g70
g51
NtRp2085
(dp2086
g54
(dp2087
g81
g82
ssg63
g2076
sg56
(lp2088
S':'
asbag49
(g70
g51
NtRp2089
(dp2090
g54
(dp2091
sg63
g2076
sg56
(lp2092
g49
(g50
g51
NtRp2093
(dp2094
g54
(dp2095
g62
I5
ssg63
g2089
sg56
(lp2096
S'/'
asbasbasbag49
(g65
g51
NtRp2097
(dp2098
g54
(dp2099
sg63
g59
sg56
(lp2100
g49
(g70
g51
NtRp2101
(dp2102
g54
(dp2103
g74
g75
ssg63
g2097
sg56
(lp2104
S'utcnow'
p2105
asbag49
(g70
g51
NtRp2106
(dp2107
g54
(dp2108
g81
g82
ssg63
g2097
sg56
(lp2109
S':'
asbag49
(g70
g51
NtRp2110
(dp2111
g54
(dp2112
sg63
g2097
sg56
(lp2113
g49
(g50
g51
NtRp2114
(dp2115
g54
(dp2116
g62
I5
ssg63
g2110
sg56
(lp2117
S'datetime.datetime(2012, 3, 21, 16, 1, 56, 874261)'
p2118
asbasbasbag49
(g65
g51
NtRp2119
(dp2120
g54
(dp2121
sg63
g59
sg56
(lp2122
g49
(g70
g51
NtRp2123
(dp2124
g54
(dp2125
g74
g75
ssg63
g2119
sg56
(lp2126
S'uuid'
p2127
asbag49
(g70
g51
NtRp2128
(dp2129
g54
(dp2130
g81
g82
ssg63
g2119
sg56
(lp2131
S':'
asbag49
(g70
g51
NtRp2132
(dp2133
g54
(dp2134
sg63
g2119
sg56
(lp2135
g49
(g50
g51
NtRp2136
(dp2137
g54
(dp2138
g62
I5
ssg63
g2132
sg56
(lp2139
S'udi0312/127.0.0.1.2012-03-21.12-01-56.ab1a785d-d501-4d30-aac8-f7493b25c385'
p2140
asbasbasbag49
(g65
g51
NtRp2141
(dp2142
g54
(dp2143
sg63
g59
sg56
(lp2144
g49
(g70
g51
NtRp2145
(dp2146
g54
(dp2147
g74
g75
ssg63
g2141
sg56
(lp2148
S'vars'
p2149
asbag49
(g70
g51
NtRp2150
(dp2151
g54
(dp2152
g81
g82
ssg63
g2141
sg56
(lp2153
S':'
asbag49
(g70
g51
NtRp2154
(dp2155
g54
(dp2156
sg63
g2141
sg56
(lp2157
g49
(g50
g51
NtRp2158
(dp2159
g54
(dp2160
g62
I5
ssg63
g2154
sg56
(lp2161
g49
(g58
g51
NtRp2162
(dp2163
g54
(dp2164
g62
I4
ssg63
Nsg56
(lp2165
sbasbasbasbag49
(g65
g51
NtRp2166
(dp2167
g54
(dp2168
sg63
g59
sg56
(lp2169
g49
(g70
g51
NtRp2170
(dp2171
g54
(dp2172
g74
g75
ssg63
g2166
sg56
(lp2173
S'wsgi'
p2174
asbag49
(g70
g51
NtRp2175
(dp2176
g54
(dp2177
g81
g82
ssg63
g2166
sg56
(lp2178
S':'
asbag49
(g70
g51
NtRp2179
(dp2180
g54
(dp2181
sg63
g2166
sg56
(lp2182
g49
(g50
g51
NtRp2183
(dp2184
g54
(dp2185
g62
I5
ssg63
g2179
sg56
(lp2186
g49
(g58
g51
NtRp2187
(dp2188
g54
(dp2189
g62
I4
ssg63
Nsg56
(lp2190
g49
(g65
g51
NtRp2191
(dp2192
g54
(dp2193
sg63
g2187
sg56
(lp2194
g49
(g70
g51
NtRp2195
(dp2196
g54
(dp2197
g74
g75
ssg63
g2191
sg56
(lp2198
S'environ'
p2199
asbag49
(g70
g51
NtRp2200
(dp2201
g54
(dp2202
g81
g82
ssg63
g2191
sg56
(lp2203
S':'
asbag49
(g70
g51
NtRp2204
(dp2205
g54
(dp2206
sg63
g2191
sg56
(lp2207
g49
(g50
g51
NtRp2208
(dp2209
g54
(dp2210
g62
I4
ssg63
g2204
sg56
(lp2211
g49
(g58
g51
NtRp2212
(dp2213
g54
(dp2214
g62
I3
ssg63
Nsg56
(lp2215
g49
(g65
g51
NtRp2216
(dp2217
g54
(dp2218
sg63
g2212
sg56
(lp2219
g49
(g70
g51
NtRp2220
(dp2221
g54
(dp2222
g74
g75
ssg63
g2216
sg56
(lp2223
S'HTTP_ACCEPT'
p2224
asbag49
(g70
g51
NtRp2225
(dp2226
g54
(dp2227
g81
g82
ssg63
g2216
sg56
(lp2228
S':'
asbag49
(g70
g51
NtRp2229
(dp2230
g54
(dp2231
sg63
g2216
sg56
(lp2232
g49
(g50
g51
NtRp2233
(dp2234
g54
(dp2235
g62
I3
ssg63
g2229
sg56
(lp2236
g769
asbasbasbag49
(g65
g51
NtRp2237
(dp2238
g54
(dp2239
sg63
g2212
sg56
(lp2240
g49
(g70
g51
NtRp2241
(dp2242
g54
(dp2243
g74
g75
ssg63
g2237
sg56
(lp2244
S'HTTP_ACCEPT_CHARSET'
p2245
asbag49
(g70
g51
NtRp2246
(dp2247
g54
(dp2248
g81
g82
ssg63
g2237
sg56
(lp2249
S':'
asbag49
(g70
g51
NtRp2250
(dp2251
g54
(dp2252
sg63
g2237
sg56
(lp2253
g49
(g50
g51
NtRp2254
(dp2255
g54
(dp2256
g62
I3
ssg63
g2250
sg56
(lp2257
g791
asbasbasbag49
(g65
g51
NtRp2258
(dp2259
g54
(dp2260
sg63
g2212
sg56
(lp2261
g49
(g70
g51
NtRp2262
(dp2263
g54
(dp2264
g74
g75
ssg63
g2258
sg56
(lp2265
S'HTTP_ACCEPT_ENCODING'
p2266
asbag49
(g70
g51
NtRp2267
(dp2268
g54
(dp2269
g81
g82
ssg63
g2258
sg56
(lp2270
S':'
asbag49
(g70
g51
NtRp2271
(dp2272
g54
(dp2273
sg63
g2258
sg56
(lp2274
g49
(g50
g51
NtRp2275
(dp2276
g54
(dp2277
g62
I3
ssg63
g2271
sg56
(lp2278
g813
asbasbasbag49
(g65
g51
NtRp2279
(dp2280
g54
(dp2281
sg63
g2212
sg56
(lp2282
g49
(g70
g51
NtRp2283
(dp2284
g54
(dp2285
g74
g75
ssg63
g2279
sg56
(lp2286
S'HTTP_ACCEPT_LANGUAGE'
p2287
asbag49
(g70
g51
NtRp2288
(dp2289
g54
(dp2290
g81
g82
ssg63
g2279
sg56
(lp2291
S':'
asbag49
(g70
g51
NtRp2292
(dp2293
g54
(dp2294
sg63
g2279
sg56
(lp2295
g49
(g50
g51
NtRp2296
(dp2297
g54
(dp2298
g62
I3
ssg63
g2292
sg56
(lp2299
g835
asbasbasbag49
(g65
g51
NtRp2300
(dp2301
g54
(dp2302
sg63
g2212
sg56
(lp2303
g49
(g70
g51
NtRp2304
(dp2305
g54
(dp2306
g74
g75
ssg63
g2300
sg56
(lp2307
S'HTTP_CONNECTION'
p2308
asbag49
(g70
g51
NtRp2309
(dp2310
g54
(dp2311
g81
g82
ssg63
g2300
sg56
(lp2312
S':'
asbag49
(g70
g51
NtRp2313
(dp2314
g54
(dp2315
sg63
g2300
sg56
(lp2316
g49
(g50
g51
NtRp2317
(dp2318
g54
(dp2319
g62
I3
ssg63
g2313
sg56
(lp2320
g857
asbasbasbag49
(g65
g51
NtRp2321
(dp2322
g54
(dp2323
sg63
g2212
sg56
(lp2324
g49
(g70
g51
NtRp2325
(dp2326
g54
(dp2327
g74
g75
ssg63
g2321
sg56
(lp2328
S'HTTP_COOKIE'
p2329
asbag49
(g70
g51
NtRp2330
(dp2331
g54
(dp2332
g81
g82
ssg63
g2321
sg56
(lp2333
S':'
asbag49
(g70
g51
NtRp2334
(dp2335
g54
(dp2336
sg63
g2321
sg56
(lp2337
g49
(g50
g51
NtRp2338
(dp2339
g54
(dp2340
g62
I3
ssg63
g2334
sg56
(lp2341
g879
asbasbasbag49
(g65
g51
NtRp2342
(dp2343
g54
(dp2344
sg63
g2212
sg56
(lp2345
g49
(g70
g51
NtRp2346
(dp2347
g54
(dp2348
g74
g75
ssg63
g2342
sg56
(lp2349
S'HTTP_HOST'
p2350
asbag49
(g70
g51
NtRp2351
(dp2352
g54
(dp2353
g81
g82
ssg63
g2342
sg56
(lp2354
S':'
asbag49
(g70
g51
NtRp2355
(dp2356
g54
(dp2357
sg63
g2342
sg56
(lp2358
g49
(g50
g51
NtRp2359
(dp2360
g54
(dp2361
g62
I3
ssg63
g2355
sg56
(lp2362
g901
asbasbasbag49
(g65
g51
NtRp2363
(dp2364
g54
(dp2365
sg63
g2212
sg56
(lp2366
g49
(g70
g51
NtRp2367
(dp2368
g54
(dp2369
g74
g75
ssg63
g2363
sg56
(lp2370
S'HTTP_USER_AGENT'
p2371
asbag49
(g70
g51
NtRp2372
(dp2373
g54
(dp2374
g81
g82
ssg63
g2363
sg56
(lp2375
S':'
asbag49
(g70
g51
NtRp2376
(dp2377
g54
(dp2378
sg63
g2363
sg56
(lp2379
g49
(g50
g51
NtRp2380
(dp2381
g54
(dp2382
g62
I3
ssg63
g2376
sg56
(lp2383
g923
asbasbasbag49
(g65
g51
NtRp2384
(dp2385
g54
(dp2386
sg63
g2212
sg56
(lp2387
g49
(g70
g51
NtRp2388
(dp2389
g54
(dp2390
g74
g75
ssg63
g2384
sg56
(lp2391
S'PATH_INFO'
p2392
asbag49
(g70
g51
NtRp2393
(dp2394
g54
(dp2395
g81
g82
ssg63
g2384
sg56
(lp2396
S':'
asbag49
(g70
g51
NtRp2397
(dp2398
g54
(dp2399
sg63
g2384
sg56
(lp2400
g49
(g50
g51
NtRp2401
(dp2402
g54
(dp2403
g62
I3
ssg63
g2397
sg56
(lp2404
S'/'
asbasbasbag49
(g65
g51
NtRp2405
(dp2406
g54
(dp2407
sg63
g2212
sg56
(lp2408
g49
(g70
g51
NtRp2409
(dp2410
g54
(dp2411
g74
g75
ssg63
g2405
sg56
(lp2412
S'QUERY_STRING'
p2413
asbag49
(g70
g51
NtRp2414
(dp2415
g54
(dp2416
g81
g82
ssg63
g2405
sg56
(lp2417
S':'
asbag49
(g70
g51
NtRp2418
(dp2419
g54
(dp2420
sg63
g2405
sg56
(lp2421
g49
(g50
g51
NtRp2422
(dp2423
g54
(dp2424
g62
I3
ssg63
g2418
sg56
(lp2425
S''
asbasbasbag49
(g65
g51
NtRp2426
(dp2427
g54
(dp2428
sg63
g2212
sg56
(lp2429
g49
(g70
g51
NtRp2430
(dp2431
g54
(dp2432
g74
g75
ssg63
g2426
sg56
(lp2433
S'REMOTE_ADDR'
p2434
asbag49
(g70
g51
NtRp2435
(dp2436
g54
(dp2437
g81
g82
ssg63
g2426
sg56
(lp2438
S':'
asbag49
(g70
g51
NtRp2439
(dp2440
g54
(dp2441
sg63
g2426
sg56
(lp2442
g49
(g50
g51
NtRp2443
(dp2444
g54
(dp2445
g62
I3
ssg63
g2439
sg56
(lp2446
g182
asbasbasbag49
(g65
g51
NtRp2447
(dp2448
g54
(dp2449
sg63
g2212
sg56
(lp2450
g49
(g70
g51
NtRp2451
(dp2452
g54
(dp2453
g74
g75
ssg63
g2447
sg56
(lp2454
S'REMOTE_PORT'
p2455
asbag49
(g70
g51
NtRp2456
(dp2457
g54
(dp2458
g81
g82
ssg63
g2447
sg56
(lp2459
S':'
asbag49
(g70
g51
NtRp2460
(dp2461
g54
(dp2462
sg63
g2447
sg56
(lp2463
g49
(g50
g51
NtRp2464
(dp2465
g54
(dp2466
g62
I3
ssg63
g2460
sg56
(lp2467
g1050
asbasbasbag49
(g65
g51
NtRp2468
(dp2469
g54
(dp2470
sg63
g2212
sg56
(lp2471
g49
(g70
g51
NtRp2472
(dp2473
g54
(dp2474
g74
g75
ssg63
g2468
sg56
(lp2475
S'REQUEST_METHOD'
p2476
asbag49
(g70
g51
NtRp2477
(dp2478
g54
(dp2479
g81
g82
ssg63
g2468
sg56
(lp2480
S':'
asbag49
(g70
g51
NtRp2481
(dp2482
g54
(dp2483
sg63
g2468
sg56
(lp2484
g49
(g50
g51
NtRp2485
(dp2486
g54
(dp2487
g62
I3
ssg63
g2481
sg56
(lp2488
g1072
asbasbasbag49
(g65
g51
NtRp2489
(dp2490
g54
(dp2491
sg63
g2212
sg56
(lp2492
g49
(g70
g51
NtRp2493
(dp2494
g54
(dp2495
g74
g75
ssg63
g2489
sg56
(lp2496
S'REQUEST_URI'
p2497
asbag49
(g70
g51
NtRp2498
(dp2499
g54
(dp2500
g81
g82
ssg63
g2489
sg56
(lp2501
S':'
asbag49
(g70
g51
NtRp2502
(dp2503
g54
(dp2504
sg63
g2489
sg56
(lp2505
g49
(g50
g51
NtRp2506
(dp2507
g54
(dp2508
g62
I3
ssg63
g2502
sg56
(lp2509
g1094
asbasbasbag49
(g65
g51
NtRp2510
(dp2511
g54
(dp2512
sg63
g2212
sg56
(lp2513
g49
(g70
g51
NtRp2514
(dp2515
g54
(dp2516
g74
g75
ssg63
g2510
sg56
(lp2517
S'SCRIPT_NAME'
p2518
asbag49
(g70
g51
NtRp2519
(dp2520
g54
(dp2521
g81
g82
ssg63
g2510
sg56
(lp2522
S':'
asbag49
(g70
g51
NtRp2523
(dp2524
g54
(dp2525
sg63
g2510
sg56
(lp2526
g49
(g50
g51
NtRp2527
(dp2528
g54
(dp2529
g62
I3
ssg63
g2523
sg56
(lp2530
S''
asbasbasbag49
(g65
g51
NtRp2531
(dp2532
g54
(dp2533
sg63
g2212
sg56
(lp2534
g49
(g70
g51
NtRp2535
(dp2536
g54
(dp2537
g74
g75
ssg63
g2531
sg56
(lp2538
S'SERVER_NAME'
p2539
asbag49
(g70
g51
NtRp2540
(dp2541
g54
(dp2542
g81
g82
ssg63
g2531
sg56
(lp2543
S':'
asbag49
(g70
g51
NtRp2544
(dp2545
g54
(dp2546
sg63
g2531
sg56
(lp2547
g49
(g50
g51
NtRp2548
(dp2549
g54
(dp2550
g62
I3
ssg63
g2544
sg56
(lp2551
g1137
asbasbasbag49
(g65
g51
NtRp2552
(dp2553
g54
(dp2554
sg63
g2212
sg56
(lp2555
g49
(g70
g51
NtRp2556
(dp2557
g54
(dp2558
g74
g75
ssg63
g2552
sg56
(lp2559
S'SERVER_PORT'
p2560
asbag49
(g70
g51
NtRp2561
(dp2562
g54
(dp2563
g81
g82
ssg63
g2552
sg56
(lp2564
S':'
asbag49
(g70
g51
NtRp2565
(dp2566
g54
(dp2567
sg63
g2552
sg56
(lp2568
g49
(g50
g51
NtRp2569
(dp2570
g54
(dp2571
g62
I3
ssg63
g2565
sg56
(lp2572
g1159
asbasbasbag49
(g65
g51
NtRp2573
(dp2574
g54
(dp2575
sg63
g2212
sg56
(lp2576
g49
(g70
g51
NtRp2577
(dp2578
g54
(dp2579
g74
g75
ssg63
g2573
sg56
(lp2580
S'SERVER_PROTOCOL'
p2581
asbag49
(g70
g51
NtRp2582
(dp2583
g54
(dp2584
g81
g82
ssg63
g2573
sg56
(lp2585
S':'
asbag49
(g70
g51
NtRp2586
(dp2587
g54
(dp2588
sg63
g2573
sg56
(lp2589
g49
(g50
g51
NtRp2590
(dp2591
g54
(dp2592
g62
I3
ssg63
g2586
sg56
(lp2593
g1181
asbasbasbag49
(g65
g51
NtRp2594
(dp2595
g54
(dp2596
sg63
g2212
sg56
(lp2597
g49
(g70
g51
NtRp2598
(dp2599
g54
(dp2600
g74
g75
ssg63
g2594
sg56
(lp2601
S'SERVER_SOFTWARE'
p2602
asbag49
(g70
g51
NtRp2603
(dp2604
g54
(dp2605
g81
g82
ssg63
g2594
sg56
(lp2606
S':'
asbag49
(g70
g51
NtRp2607
(dp2608
g54
(dp2609
sg63
g2594
sg56
(lp2610
g49
(g50
g51
NtRp2611
(dp2612
g54
(dp2613
g62
I3
ssg63
g2607
sg56
(lp2614
g1203
asbasbasbag49
(g65
g51
NtRp2615
(dp2616
g54
(dp2617
sg63
g2212
sg56
(lp2618
g49
(g70
g51
NtRp2619
(dp2620
g54
(dp2621
g74
g75
ssg63
g2615
sg56
(lp2622
S'WEB2PY_ORIGINAL_URI'
p2623
asbag49
(g70
g51
NtRp2624
(dp2625
g54
(dp2626
g81
g82
ssg63
g2615
sg56
(lp2627
S':'
asbag49
(g70
g51
NtRp2628
(dp2629
g54
(dp2630
sg63
g2615
sg56
(lp2631
g49
(g50
g51
NtRp2632
(dp2633
g54
(dp2634
g62
I3
ssg63
g2628
sg56
(lp2635
S'/'
asbasbasbag49
(g65
g51
NtRp2636
(dp2637
g54
(dp2638
sg63
g2212
sg56
(lp2639
g49
(g70
g51
NtRp2640
(dp2641
g54
(dp2642
g74
g75
ssg63
g2636
sg56
(lp2643
S'wsgi.errors'
p2644
asbag49
(g70
g51
NtRp2645
(dp2646
g54
(dp2647
g81
g82
ssg63
g2636
sg56
(lp2648
S':'
asbag49
(g70
g51
NtRp2649
(dp2650
g54
(dp2651
sg63
g2636
sg56
(lp2652
g49
(g50
g51
NtRp2653
(dp2654
g54
(dp2655
g62
I3
ssg63
g2649
sg56
(lp2656
S"<open file '<stderr>', mode 'w' at 0x4220b0>"
p2657
asbasbasbag49
(g65
g51
NtRp2658
(dp2659
g54
(dp2660
sg63
g2212
sg56
(lp2661
g49
(g70
g51
NtRp2662
(dp2663
g54
(dp2664
g74
g75
ssg63
g2658
sg56
(lp2665
S'wsgi.file_wrapper'
p2666
asbag49
(g70
g51
NtRp2667
(dp2668
g54
(dp2669
g81
g82
ssg63
g2658
sg56
(lp2670
S':'
asbag49
(g70
g51
NtRp2671
(dp2672
g54
(dp2673
sg63
g2658
sg56
(lp2674
g49
(g50
g51
NtRp2675
(dp2676
g54
(dp2677
g62
I3
ssg63
g2671
sg56
(lp2678
S'<class wsgiref.util.FileWrapper at 0x215e6c0>'
p2679
asbasbasbag49
(g65
g51
NtRp2680
(dp2681
g54
(dp2682
sg63
g2212
sg56
(lp2683
g49
(g70
g51
NtRp2684
(dp2685
g54
(dp2686
g74
g75
ssg63
g2680
sg56
(lp2687
S'wsgi.input'
p2688
asbag49
(g70
g51
NtRp2689
(dp2690
g54
(dp2691
g81
g82
ssg63
g2680
sg56
(lp2692
S':'
asbag49
(g70
g51
NtRp2693
(dp2694
g54
(dp2695
sg63
g2680
sg56
(lp2696
g49
(g50
g51
NtRp2697
(dp2698
g54
(dp2699
g62
I3
ssg63
g2693
sg56
(lp2700
S'<cStringIO.StringO object at 0x6fd4ca0>'
p2701
asbasbasbag49
(g65
g51
NtRp2702
(dp2703
g54
(dp2704
sg63
g2212
sg56
(lp2705
g49
(g70
g51
NtRp2706
(dp2707
g54
(dp2708
g74
g75
ssg63
g2702
sg56
(lp2709
S'wsgi.multiprocess'
p2710
asbag49
(g70
g51
NtRp2711
(dp2712
g54
(dp2713
g81
g82
ssg63
g2702
sg56
(lp2714
S':'
asbag49
(g70
g51
NtRp2715
(dp2716
g54
(dp2717
sg63
g2702
sg56
(lp2718
g49
(g50
g51
NtRp2719
(dp2720
g54
(dp2721
g62
I3
ssg63
g2715
sg56
(lp2722
g92
asbasbasbag49
(g65
g51
NtRp2723
(dp2724
g54
(dp2725
sg63
g2212
sg56
(lp2726
g49
(g70
g51
NtRp2727
(dp2728
g54
(dp2729
g74
g75
ssg63
g2723
sg56
(lp2730
S'wsgi.multithread'
p2731
asbag49
(g70
g51
NtRp2732
(dp2733
g54
(dp2734
g81
g82
ssg63
g2723
sg56
(lp2735
S':'
asbag49
(g70
g51
NtRp2736
(dp2737
g54
(dp2738
sg63
g2723
sg56
(lp2739
g49
(g50
g51
NtRp2740
(dp2741
g54
(dp2742
g62
I3
ssg63
g2736
sg56
(lp2743
g1464
asbasbasbag49
(g65
g51
NtRp2744
(dp2745
g54
(dp2746
sg63
g2212
sg56
(lp2747
g49
(g70
g51
NtRp2748
(dp2749
g54
(dp2750
g74
g75
ssg63
g2744
sg56
(lp2751
S'wsgi.run_once'
p2752
asbag49
(g70
g51
NtRp2753
(dp2754
g54
(dp2755
g81
g82
ssg63
g2744
sg56
(lp2756
S':'
asbag49
(g70
g51
NtRp2757
(dp2758
g54
(dp2759
sg63
g2744
sg56
(lp2760
g49
(g50
g51
NtRp2761
(dp2762
g54
(dp2763
g62
I3
ssg63
g2757
sg56
(lp2764
g92
asbasbasbag49
(g65
g51
NtRp2765
(dp2766
g54
(dp2767
sg63
g2212
sg56
(lp2768
g49
(g70
g51
NtRp2769
(dp2770
g54
(dp2771
g74
g75
ssg63
g2765
sg56
(lp2772
S'wsgi.url_scheme'
p2773
asbag49
(g70
g51
NtRp2774
(dp2775
g54
(dp2776
g81
g82
ssg63
g2765
sg56
(lp2777
S':'
asbag49
(g70
g51
NtRp2778
(dp2779
g54
(dp2780
sg63
g2765
sg56
(lp2781
g49
(g50
g51
NtRp2782
(dp2783
g54
(dp2784
g62
I3
ssg63
g2778
sg56
(lp2785
g1507
asbasbasbag49
(g65
g51
NtRp2786
(dp2787
g54
(dp2788
sg63
g2212
sg56
(lp2789
g49
(g70
g51
NtRp2790
(dp2791
g54
(dp2792
g74
g75
ssg63
g2786
sg56
(lp2793
S'wsgi.version'
p2794
asbag49
(g70
g51
NtRp2795
(dp2796
g54
(dp2797
g81
g82
ssg63
g2786
sg56
(lp2798
S':'
asbag49
(g70
g51
NtRp2799
(dp2800
g54
(dp2801
sg63
g2786
sg56
(lp2802
g49
(g50
g51
NtRp2803
(dp2804
g54
(dp2805
g62
I3
ssg63
g2799
sg56
(lp2806
S'1'
asbasbasbasbasbasbasbasbasbasbasbasbasbsS'frames'
p2807
(lp2808
(dp2809
S'file'
p2810
S'/users/udimilo/Documents/web2py/gluon/restricted.py'
p2811
sS'dump'
p2812
(dp2813
S'environment'
p2814
S"{'A': <class 'gluon.html.A'>, 'Auth': <class 'gluon.tools.Auth'>, 'B': <class 'gluon.html.B'>, 'BEAUTIFY': <class 'gluon.html.BEAUTIFY'>, 'BODY': <class 'gluon.html.BODY'>, 'BR': <class 'gluon.html.BR'>, 'BUTTON': <class 'gluon.html.BUTTON'>, 'CAT': <class 'gluon.html.CAT'>, 'CENTER': <class 'gluon.html.CENTER'>, 'CLEANUP': <class 'gluon.validators.CLEANUP'>, ...}"
p2815
sS'ccode'
p2816
S'<code object <module> at 0x21ea0f8, file "/Users...b2py/applications/udi0312/models/db.py", line 12>'
p2817
ssS'lnum'
p2818
I205
sS'lines'
p2819
(dp2820
I200
S'    try:'
p2821
sI201
S'        if type(code) == types.CodeType:'
p2822
sI202
S'            ccode = code'
p2823
sI203
S'        else:'
p2824
sI204
S'            ccode = compile2(code,layer)'
p2825
sI205
S'        exec ccode in environment'
p2826
sI206
S'    except HTTP:'
p2827
sI207
S'        raise'
p2828
sI208
S'    except RestrictedError:'
p2829
sI209
S'        # do not encapsulate (obfuscate) the original RestrictedError'
p2830
ssS'call'
p2831
S'(code="# -*- coding: utf-8 -*-\\n\\n#######################...\'created_on\', \'datetime\', default=request.now),)\\n", environment={\'A\': <class \'gluon.html.A\'>, \'Auth\': <class \'gluon.tools.Auth\'>, \'B\': <class \'gluon.html.B\'>, \'BEAUTIFY\': <class \'gluon.html.BEAUTIFY\'>, \'BODY\': <class \'gluon.html.BODY\'>, \'BR\': <class \'gluon.html.BR\'>, \'BUTTON\': <class \'gluon.html.BUTTON\'>, \'CAT\': <class \'gluon.html.CAT\'>, \'CENTER\': <class \'gluon.html.CENTER\'>, \'CLEANUP\': <class \'gluon.validators.CLEANUP\'>, ...}, layer=\'/Users/udimilo/Documents/web2py/applications/udi0312/models/db.py\')'
p2832
sS'func'
p2833
S'restricted'
p2834
sa(dp2835
g2810
S'/Users/udimilo/Documents/web2py/applications/udi0312/models/db.py'
p2836
sg2812
(dp2837
S'LinkedInAccount'
p2838
S'undefined'
p2839
sS'gluon'
p2840
g2839
ssg2818
I69
sg2819
(dp2841
I64
S''
sI65
S'## LinkedIn'
p2842
sI66
S'import linkedin'
p2843
sI67
S''
sI68
S"api = linkedin.LinkedIn('key','secret','return_url', gae=False)"
p2844
sI69
S'from gluon.contrib.login_methods.linkedin_account import LinkedInAccount'
p2845
sI70
S'auth.settings.login_form=LinkedInAccount('
p2846
sI71
S'    request,'
p2847
sI72
S"    'wFNJekVpDCJtRPFX812pQsJee-gt0zO4X5XmG6wcfSOSlLocxodAXNMbl0_hw3Vl',"
p2848
sI73
S"    'daJDa6_8UcnGMw1yuq9TjoO_PMKukXMo8vEMo7Qv5J-G3SPgrAV0FqFCd0TNjQyG',"
p2849
ssg2831
S'()'
p2850
sg2833
S'<module>'
p2851
sa(dp2852
g2810
S'/users/udimilo/Documents/web2py/gluon/custom_import.py'
p2853
sg2812
(dp2854
S'fromlist'
p2855
S"('LinkedInAccount',)"
p2856
sS'level'
p2857
S'-1'
p2858
ssg2818
I293
sg2819
(dp2859
I288
S'                            .__call__(modules_prefix+"."+name,'
p2860
sI289
S'                                    globals, locals, fromlist, level)'
p2861
sI290
S'                except ImportError:'
p2862
sI291
S'                    pass'
p2863
sI292
S'        return super(_Web2pyImporter, self).__call__(name, globals, locals,'
p2864
sI293
S'                                                    fromlist, level)'
p2865
sI294
S'        #except Exception, e:'
p2866
sI295
S"        #    raise e  # Don't hide something that went wrong"
p2867
sI296
S'        #finally:'
p2868
sI297
S'        self.end()'
p2869
ssg2831
S"(self=<gluon.custom_import._Web2pyImporter object at 0x210cd70>, name='gluon.contrib.login_methods.linkedin_account', globals={'A': <class 'gluon.html.A'>, 'Auth': <class 'gluon.tools.Auth'>, 'B': <class 'gluon.html.B'>, 'BEAUTIFY': <class 'gluon.html.BEAUTIFY'>, 'BODY': <class 'gluon.html.BODY'>, 'BR': <class 'gluon.html.BR'>, 'BUTTON': <class 'gluon.html.BUTTON'>, 'CAT': <class 'gluon.html.CAT'>, 'CENTER': <class 'gluon.html.CENTER'>, 'CLEANUP': <class 'gluon.validators.CLEANUP'>, ...}, locals={'A': <class 'gluon.html.A'>, 'Auth': <class 'gluon.tools.Auth'>, 'B': <class 'gluon.html.B'>, 'BEAUTIFY': <class 'gluon.html.BEAUTIFY'>, 'BODY': <class 'gluon.html.BODY'>, 'BR': <class 'gluon.html.BR'>, 'BUTTON': <class 'gluon.html.BUTTON'>, 'CAT': <class 'gluon.html.CAT'>, 'CENTER': <class 'gluon.html.CENTER'>, 'CLEANUP': <class 'gluon.validators.CLEANUP'>, ...}, fromlist=('LinkedInAccount',), level=-1)"
p2870
sg2833
S'__call__'
p2871
sa(dp2872
g2810
S'/users/udimilo/Documents/web2py/gluon/custom_import.py'
p2873
sg2812
(dp2874
S'level'
p2875
S'-1'
p2876
ssg2818
I78
sg2819
(dp2877
I73
S'        """'
p2878
sI74
S'        return _STANDARD_PYTHON_IMPORTER(name,'
p2879
sI75
S'                                         globals,'
p2880
sI76
S'                                         locals,'
p2881
sI77
S'                                         fromlist,'
p2882
sI78
S'                                         level)'
p2883
sI79
S''
sI80
S'    def end(self):'
p2884
sI81
S'        """'
p2885
sI82
S'        Needed for clean up.'
p2886
ssg2831
S"(self=<gluon.custom_import._Web2pyImporter object at 0x210cd70>, name='gluon.contrib.login_methods.linkedin_account', globals={'A': <class 'gluon.html.A'>, 'Auth': <class 'gluon.tools.Auth'>, 'B': <class 'gluon.html.B'>, 'BEAUTIFY': <class 'gluon.html.BEAUTIFY'>, 'BODY': <class 'gluon.html.BODY'>, 'BR': <class 'gluon.html.BR'>, 'BUTTON': <class 'gluon.html.BUTTON'>, 'CAT': <class 'gluon.html.CAT'>, 'CENTER': <class 'gluon.html.CENTER'>, 'CLEANUP': <class 'gluon.validators.CLEANUP'>, ...}, locals={'A': <class 'gluon.html.A'>, 'Auth': <class 'gluon.tools.Auth'>, 'B': <class 'gluon.html.B'>, 'BEAUTIFY': <class 'gluon.html.BEAUTIFY'>, 'BODY': <class 'gluon.html.BODY'>, 'BR': <class 'gluon.html.BR'>, 'BUTTON': <class 'gluon.html.BUTTON'>, 'CAT': <class 'gluon.html.CAT'>, 'CENTER': <class 'gluon.html.CENTER'>, 'CLEANUP': <class 'gluon.validators.CLEANUP'>, ...}, fromlist=('LinkedInAccount',), level=-1)"
p2887
sg2833
g2871
sa(dp2888
g2810
S'/users/udimilo/Documents/web2py/gluon/contrib/login_methods/linkedin_account.py'
p2889
sg2812
(dp2890
S'linkedindwwwwwwww'
p2891
g2839
ssg2818
I14
sg2819
(dp2892
I9
S''
sI10
S'Thanks to Hans Donner <hans.donner@pobox.com> for GaeGoogleAccount.'
p2893
sI11
S'"""'
p2894
sI12
S''
sI13
S'from gluon.http import HTTP'
p2895
sI14
S'import linkedindwwwwwwww'
p2896
sI15
S'try:'
p2897
sI16
S'    import linkedin'
p2898
sI17
S'except ImportError:'
p2899
sI18
S'    raise HTTP(400,"linkedin module not found")'
p2900
ssg2831
S'()'
p2901
sg2833
g2851
sa(dp2902
g2810
S'/users/udimilo/Documents/web2py/gluon/custom_import.py'
p2903
sg2812
(dp2904
S'fromlist'
p2905
S'[]'
p2906
sS'level'
p2907
S'-1'
p2908
ssg2818
I293
sg2819
(dp2909
I288
S'                            .__call__(modules_prefix+"."+name,'
p2910
sI289
S'                                    globals, locals, fromlist, level)'
p2911
sI290
S'                except ImportError:'
p2912
sI291
S'                    pass'
p2913
sI292
S'        return super(_Web2pyImporter, self).__call__(name, globals, locals,'
p2914
sI293
S'                                                    fromlist, level)'
p2915
sI294
S'        #except Exception, e:'
p2916
sI295
S"        #    raise e  # Don't hide something that went wrong"
p2917
sI296
S'        #finally:'
p2918
sI297
S'        self.end()'
p2919
ssg2831
S"(self=<gluon.custom_import._Web2pyImporter object at 0x210cd70>, name='linkedindwwwwwwww', globals={'HTTP': None, '__builtins__': {'ArithmeticError': <type 'exceptions.ArithmeticError'>, 'AssertionError': <type 'exceptions.AssertionError'>, 'AttributeError': <type 'exceptions.AttributeError'>, 'BaseException': <type 'exceptions.BaseException'>, 'DeprecationWarning': <type 'exceptions.DeprecationWarning'>, 'EOFError': <type 'exceptions.EOFError'>, 'Ellipsis': Ellipsis, 'EnvironmentError': <type 'exceptions.EnvironmentError'>, 'Exception': <type 'exceptions.Exception'>, 'False': False, ...}, '__doc__': None, '__file__': None, '__name__': None}, locals={'HTTP': None, '__builtins__': {'ArithmeticError': <type 'exceptions.ArithmeticError'>, 'AssertionError': <type 'exceptions.AssertionError'>, 'AttributeError': <type 'exceptions.AttributeError'>, 'BaseException': <type 'exceptions.BaseException'>, 'DeprecationWarning': <type 'exceptions.DeprecationWarning'>, 'EOFError': <type 'exceptions.EOFError'>, 'Ellipsis': Ellipsis, 'EnvironmentError': <type 'exceptions.EnvironmentError'>, 'Exception': <type 'exceptions.Exception'>, 'False': False, ...}, '__doc__': None, '__file__': None, '__name__': None}, fromlist=[], level=-1)"
p2920
sg2833
g2871
sa(dp2921
g2810
S'/users/udimilo/Documents/web2py/gluon/custom_import.py'
p2922
sg2812
(dp2923
S'level'
p2924
S'-1'
p2925
ssg2818
I78
sg2819
(dp2926
I73
S'        """'
p2927
sI74
S'        return _STANDARD_PYTHON_IMPORTER(name,'
p2928
sI75
S'                                         globals,'
p2929
sI76
S'                                         locals,'
p2930
sI77
S'                                         fromlist,'
p2931
sI78
S'                                         level)'
p2932
sI79
S''
sI80
S'    def end(self):'
p2933
sI81
S'        """'
p2934
sI82
S'        Needed for clean up.'
p2935
ssg2831
S"(self=<gluon.custom_import._Web2pyImporter object at 0x210cd70>, name='linkedindwwwwwwww', globals={'HTTP': None, '__builtins__': {'ArithmeticError': <type 'exceptions.ArithmeticError'>, 'AssertionError': <type 'exceptions.AssertionError'>, 'AttributeError': <type 'exceptions.AttributeError'>, 'BaseException': <type 'exceptions.BaseException'>, 'DeprecationWarning': <type 'exceptions.DeprecationWarning'>, 'EOFError': <type 'exceptions.EOFError'>, 'Ellipsis': Ellipsis, 'EnvironmentError': <type 'exceptions.EnvironmentError'>, 'Exception': <type 'exceptions.Exception'>, 'False': False, ...}, '__doc__': None, '__file__': None, '__name__': None}, locals={'HTTP': None, '__builtins__': {'ArithmeticError': <type 'exceptions.ArithmeticError'>, 'AssertionError': <type 'exceptions.AssertionError'>, 'AttributeError': <type 'exceptions.AttributeError'>, 'BaseException': <type 'exceptions.BaseException'>, 'DeprecationWarning': <type 'exceptions.DeprecationWarning'>, 'EOFError': <type 'exceptions.EOFError'>, 'Ellipsis': Ellipsis, 'EnvironmentError': <type 'exceptions.EnvironmentError'>, 'Exception': <type 'exceptions.Exception'>, 'False': False, ...}, '__doc__': None, '__file__': None, '__name__': None}, fromlist=[], level=-1)"
p2936
sg2833
g2871
sasS'pyver'
p2937
S'Python 2.5.4: /Library/Frameworks/Python.framework/Versions/2.5/Resources/Python.app/Contents/MacOS/Python'
p2938
sS'session'
p2939
g49
(g50
g51
NtRp2940
(dp2941
g54
(dp2942
sg56
(lp2943
g49
(g58
g51
NtRp2944
(dp2945
g54
(dp2946
g62
I5
ssg63
Nsg56
(lp2947
g49
(g65
g51
NtRp2948
(dp2949
g54
(dp2950
sg63
g2944
sg56
(lp2951
g49
(g70
g51
NtRp2952
(dp2953
g54
(dp2954
g74
g75
ssg63
g2948
sg56
(lp2955
S'auth'
p2956
asbag49
(g70
g51
NtRp2957
(dp2958
g54
(dp2959
g81
g82
ssg63
g2948
sg56
(lp2960
S':'
asbag49
(g70
g51
NtRp2961
(dp2962
g54
(dp2963
sg63
g2948
sg56
(lp2964
g49
(g50
g51
NtRp2965
(dp2966
g54
(dp2967
g62
I5
ssg63
g2961
sg56
(lp2968
g49
(g58
g51
NtRp2969
(dp2970
g54
(dp2971
g62
I4
ssg63
Nsg56
(lp2972
g49
(g65
g51
NtRp2973
(dp2974
g54
(dp2975
sg63
g2969
sg56
(lp2976
g49
(g70
g51
NtRp2977
(dp2978
g54
(dp2979
g74
g75
ssg63
g2973
sg56
(lp2980
S'expiration'
p2981
asbag49
(g70
g51
NtRp2982
(dp2983
g54
(dp2984
g81
g82
ssg63
g2973
sg56
(lp2985
S':'
asbag49
(g70
g51
NtRp2986
(dp2987
g54
(dp2988
sg63
g2973
sg56
(lp2989
g49
(g50
g51
NtRp2990
(dp2991
g54
(dp2992
g62
I4
ssg63
g2986
sg56
(lp2993
S'2592000'
p2994
asbasbasbag49
(g65
g51
NtRp2995
(dp2996
g54
(dp2997
sg63
g2969
sg56
(lp2998
g49
(g70
g51
NtRp2999
(dp3000
g54
(dp3001
g74
g75
ssg63
g2995
sg56
(lp3002
S'hmac_key'
p3003
asbag49
(g70
g51
NtRp3004
(dp3005
g54
(dp3006
g81
g82
ssg63
g2995
sg56
(lp3007
S':'
asbag49
(g70
g51
NtRp3008
(dp3009
g54
(dp3010
sg63
g2995
sg56
(lp3011
g49
(g50
g51
NtRp3012
(dp3013
g54
(dp3014
g62
I4
ssg63
g3008
sg56
(lp3015
S'f181a846-a979-48a5-b7fb-4fe8c0459836'
p3016
asbasbasbag49
(g65
g51
NtRp3017
(dp3018
g54
(dp3019
sg63
g2969
sg56
(lp3020
g49
(g70
g51
NtRp3021
(dp3022
g54
(dp3023
g74
g75
ssg63
g3017
sg56
(lp3024
S'last_visit'
p3025
asbag49
(g70
g51
NtRp3026
(dp3027
g54
(dp3028
g81
g82
ssg63
g3017
sg56
(lp3029
S':'
asbag49
(g70
g51
NtRp3030
(dp3031
g54
(dp3032
sg63
g3017
sg56
(lp3033
g49
(g50
g51
NtRp3034
(dp3035
g54
(dp3036
g62
I4
ssg63
g3030
sg56
(lp3037
S'datetime.datetime(2012, 3, 19, 18, 54, 18, 447051)'
p3038
asbasbasbag49
(g65
g51
NtRp3039
(dp3040
g54
(dp3041
sg63
g2969
sg56
(lp3042
g49
(g70
g51
NtRp3043
(dp3044
g54
(dp3045
g74
g75
ssg63
g3039
sg56
(lp3046
S'remember'
p3047
asbag49
(g70
g51
NtRp3048
(dp3049
g54
(dp3050
g81
g82
ssg63
g3039
sg56
(lp3051
S':'
asbag49
(g70
g51
NtRp3052
(dp3053
g54
(dp3054
sg63
g3039
sg56
(lp3055
g49
(g50
g51
NtRp3056
(dp3057
g54
(dp3058
g62
I4
ssg63
g3052
sg56
(lp3059
g1464
asbasbasbag49
(g65
g51
NtRp3060
(dp3061
g54
(dp3062
sg63
g2969
sg56
(lp3063
g49
(g70
g51
NtRp3064
(dp3065
g54
(dp3066
g74
g75
ssg63
g3060
sg56
(lp3067
S'user'
p3068
asbag49
(g70
g51
NtRp3069
(dp3070
g54
(dp3071
g81
g82
ssg63
g3060
sg56
(lp3072
S':'
asbag49
(g70
g51
NtRp3073
(dp3074
g54
(dp3075
sg63
g3060
sg56
(lp3076
g49
(g50
g51
NtRp3077
(dp3078
g54
(dp3079
g62
I4
ssg63
g3073
sg56
(lp3080
g49
(g58
g51
NtRp3081
(dp3082
g54
(dp3083
g62
I3
ssg63
Nsg56
(lp3084
g49
(g65
g51
NtRp3085
(dp3086
g54
(dp3087
sg63
g3081
sg56
(lp3088
g49
(g70
g51
NtRp3089
(dp3090
g54
(dp3091
g74
g75
ssg63
g3085
sg56
(lp3092
S'email'
p3093
asbag49
(g70
g51
NtRp3094
(dp3095
g54
(dp3096
g81
g82
ssg63
g3085
sg56
(lp3097
S':'
asbag49
(g70
g51
NtRp3098
(dp3099
g54
(dp3100
sg63
g3085
sg56
(lp3101
g49
(g50
g51
NtRp3102
(dp3103
g54
(dp3104
g62
I3
ssg63
g3098
sg56
(lp3105
S'udimilo@gmail.com'
p3106
asbasbasbag49
(g65
g51
NtRp3107
(dp3108
g54
(dp3109
sg63
g3081
sg56
(lp3110
g49
(g70
g51
NtRp3111
(dp3112
g54
(dp3113
g74
g75
ssg63
g3107
sg56
(lp3114
S'first_name'
p3115
asbag49
(g70
g51
NtRp3116
(dp3117
g54
(dp3118
g81
g82
ssg63
g3107
sg56
(lp3119
S':'
asbag49
(g70
g51
NtRp3120
(dp3121
g54
(dp3122
sg63
g3107
sg56
(lp3123
g49
(g50
g51
NtRp3124
(dp3125
g54
(dp3126
g62
I3
ssg63
g3120
sg56
(lp3127
S'Udi'
p3128
asbasbasbag49
(g65
g51
NtRp3129
(dp3130
g54
(dp3131
sg63
g3081
sg56
(lp3132
g49
(g70
g51
NtRp3133
(dp3134
g54
(dp3135
g74
g75
ssg63
g3129
sg56
(lp3136
S'id'
p3137
asbag49
(g70
g51
NtRp3138
(dp3139
g54
(dp3140
g81
g82
ssg63
g3129
sg56
(lp3141
S':'
asbag49
(g70
g51
NtRp3142
(dp3143
g54
(dp3144
sg63
g3129
sg56
(lp3145
g49
(g50
g51
NtRp3146
(dp3147
g54
(dp3148
g62
I3
ssg63
g3142
sg56
(lp3149
S'1'
asbasbasbag49
(g65
g51
NtRp3150
(dp3151
g54
(dp3152
sg63
g3081
sg56
(lp3153
g49
(g70
g51
NtRp3154
(dp3155
g54
(dp3156
g74
g75
ssg63
g3150
sg56
(lp3157
S'last_name'
p3158
asbag49
(g70
g51
NtRp3159
(dp3160
g54
(dp3161
g81
g82
ssg63
g3150
sg56
(lp3162
S':'
asbag49
(g70
g51
NtRp3163
(dp3164
g54
(dp3165
sg63
g3150
sg56
(lp3166
g49
(g50
g51
NtRp3167
(dp3168
g54
(dp3169
g62
I3
ssg63
g3163
sg56
(lp3170
S'Milo'
p3171
asbasbasbag49
(g65
g51
NtRp3172
(dp3173
g54
(dp3174
sg63
g3081
sg56
(lp3175
g49
(g70
g51
NtRp3176
(dp3177
g54
(dp3178
g74
g75
ssg63
g3172
sg56
(lp3179
S'password'
p3180
asbag49
(g70
g51
NtRp3181
(dp3182
g54
(dp3183
g81
g82
ssg63
g3172
sg56
(lp3184
S':'
asbag49
(g70
g51
NtRp3185
(dp3186
g54
(dp3187
sg63
g3172
sg56
(lp3188
g49
(g50
g51
NtRp3189
(dp3190
g54
(dp3191
g62
I3
ssg63
g3185
sg56
(lp3192
S'7a6e3c6a68ceed66634484a3f64a3468'
p3193
asbasbasbag49
(g65
g51
NtRp3194
(dp3195
g54
(dp3196
sg63
g3081
sg56
(lp3197
g49
(g70
g51
NtRp3198
(dp3199
g54
(dp3200
g74
g75
ssg63
g3194
sg56
(lp3201
S'registration_id'
p3202
asbag49
(g70
g51
NtRp3203
(dp3204
g54
(dp3205
g81
g82
ssg63
g3194
sg56
(lp3206
S':'
asbag49
(g70
g51
NtRp3207
(dp3208
g54
(dp3209
sg63
g3194
sg56
(lp3210
g49
(g50
g51
NtRp3211
(dp3212
g54
(dp3213
g62
I3
ssg63
g3207
sg56
(lp3214
S''
asbasbasbag49
(g65
g51
NtRp3215
(dp3216
g54
(dp3217
sg63
g3081
sg56
(lp3218
g49
(g70
g51
NtRp3219
(dp3220
g54
(dp3221
g74
g75
ssg63
g3215
sg56
(lp3222
S'registration_key'
p3223
asbag49
(g70
g51
NtRp3224
(dp3225
g54
(dp3226
g81
g82
ssg63
g3215
sg56
(lp3227
S':'
asbag49
(g70
g51
NtRp3228
(dp3229
g54
(dp3230
sg63
g3215
sg56
(lp3231
g49
(g50
g51
NtRp3232
(dp3233
g54
(dp3234
g62
I3
ssg63
g3228
sg56
(lp3235
S''
asbasbasbag49
(g65
g51
NtRp3236
(dp3237
g54
(dp3238
sg63
g3081
sg56
(lp3239
g49
(g70
g51
NtRp3240
(dp3241
g54
(dp3242
g74
g75
ssg63
g3236
sg56
(lp3243
S'reset_password_key'
p3244
asbag49
(g70
g51
NtRp3245
(dp3246
g54
(dp3247
g81
g82
ssg63
g3236
sg56
(lp3248
S':'
asbag49
(g70
g51
NtRp3249
(dp3250
g54
(dp3251
sg63
g3236
sg56
(lp3252
g49
(g50
g51
NtRp3253
(dp3254
g54
(dp3255
g62
I3
ssg63
g3249
sg56
(lp3256
S''
asbasbasbasbasbasbasbag49
(g65
g51
NtRp3257
(dp3258
g54
(dp3259
sg63
g2969
sg56
(lp3260
g49
(g70
g51
NtRp3261
(dp3262
g54
(dp3263
g74
g75
ssg63
g3257
sg56
(lp3264
S'user_groups'
p3265
asbag49
(g70
g51
NtRp3266
(dp3267
g54
(dp3268
g81
g82
ssg63
g3257
sg56
(lp3269
S':'
asbag49
(g70
g51
NtRp3270
(dp3271
g54
(dp3272
sg63
g3257
sg56
(lp3273
g49
(g50
g51
NtRp3274
(dp3275
g54
(dp3276
g62
I4
ssg63
g3270
sg56
(lp3277
g49
(g58
g51
NtRp3278
(dp3279
g54
(dp3280
g62
I3
ssg63
Nsg56
(lp3281
g49
(g65
g51
NtRp3282
(dp3283
g54
(dp3284
sg63
g3278
sg56
(lp3285
g49
(g70
g51
NtRp3286
(dp3287
g54
(dp3288
g74
g75
ssg63
g3282
sg56
(lp3289
S'1'
asbag49
(g70
g51
NtRp3290
(dp3291
g54
(dp3292
g81
g82
ssg63
g3282
sg56
(lp3293
S':'
asbag49
(g70
g51
NtRp3294
(dp3295
g54
(dp3296
sg63
g3282
sg56
(lp3297
g49
(g50
g51
NtRp3298
(dp3299
g54
(dp3300
g62
I3
ssg63
g3294
sg56
(lp3301
S'user_1'
p3302
asbasbasbasbasbasbasbasbasbasbasbag49
(g65
g51
NtRp3303
(dp3304
g54
(dp3305
sg63
g2944
sg56
(lp3306
g49
(g70
g51
NtRp3307
(dp3308
g54
(dp3309
g74
g75
ssg63
g3303
sg56
(lp3310
S'last_query'
p3311
asbag49
(g70
g51
NtRp3312
(dp3313
g54
(dp3314
g81
g82
ssg63
g3303
sg56
(lp3315
S':'
asbag49
(g70
g51
NtRp3316
(dp3317
g54
(dp3318
sg63
g3303
sg56
(lp3319
g49
(g50
g51
NtRp3320
(dp3321
g54
(dp3322
g62
I5
ssg63
g3316
sg56
(lp3323
S'db.pin.id>0'
p3324
asbasbasbasbasbsS'etype'
p3325
S"<type 'exceptions.ImportError'>"
p3326
sS'date'
p3327
S'Wed Mar 21 12:01:57 2012'
p3328
sS'response'
p3329
g49
(g50
g51
NtRp3330
(dp3331
g54
(dp3332
sg56
(lp3333
g49
(g58
g51
NtRp3334
(dp3335
g54
(dp3336
g62
I5
ssg63
Nsg56
(lp3337
g49
(g65
g51
NtRp3338
(dp3339
g54
(dp3340
sg63
g3334
sg56
(lp3341
g49
(g70
g51
NtRp3342
(dp3343
g54
(dp3344
g74
g75
ssg63
g3338
sg56
(lp3345
g147
asbag49
(g70
g51
NtRp3346
(dp3347
g54
(dp3348
g81
g82
ssg63
g3338
sg56
(lp3349
S':'
asbag49
(g70
g51
NtRp3350
(dp3351
g54
(dp3352
sg63
g3338
sg56
(lp3353
g49
(g50
g51
NtRp3354
(dp3355
g54
(dp3356
g62
I5
ssg63
g3350
sg56
(lp3357
S'<cStringIO.StringO object at 0x6fd4be0>'
p3358
asbasbasbag49
(g65
g51
NtRp3359
(dp3360
g54
(dp3361
sg63
g3334
sg56
(lp3362
g49
(g70
g51
NtRp3363
(dp3364
g54
(dp3365
g74
g75
ssg63
g3359
sg56
(lp3366
g213
asbag49
(g70
g51
NtRp3367
(dp3368
g54
(dp3369
g81
g82
ssg63
g3359
sg56
(lp3370
S':'
asbag49
(g70
g51
NtRp3371
(dp3372
g54
(dp3373
sg63
g3359
sg56
(lp3374
g49
(g50
g51
NtRp3375
(dp3376
g54
(dp3377
g62
I5
ssg63
g3371
sg56
(lp3378
g49
(g58
g51
NtRp3379
(dp3380
g54
(dp3381
g62
I4
ssg63
Nsg56
(lp3382
g49
(g65
g51
NtRp3383
(dp3384
g54
(dp3385
sg63
g3379
sg56
(lp3386
g49
(g70
g51
NtRp3387
(dp3388
g54
(dp3389
g74
g75
ssg63
g3383
sg56
(lp3390
S'session_id_udi0312'
p3391
asbag49
(g70
g51
NtRp3392
(dp3393
g54
(dp3394
g81
g82
ssg63
g3383
sg56
(lp3395
S':'
asbag49
(g70
g51
NtRp3396
(dp3397
g54
(dp3398
sg63
g3383
sg56
(lp3399
g49
(g50
g51
NtRp3400
(dp3401
g54
(dp3402
g62
I4
ssg63
g3396
sg56
(lp3403
g49
(g58
g51
NtRp3404
(dp3405
g54
(dp3406
g62
I3
ssg63
Nsg56
(lp3407
g49
(g65
g51
NtRp3408
(dp3409
g54
(dp3410
sg63
g3404
sg56
(lp3411
g49
(g70
g51
NtRp3412
(dp3413
g54
(dp3414
g74
g75
ssg63
g3408
sg56
(lp3415
g263
asbag49
(g70
g51
NtRp3416
(dp3417
g54
(dp3418
g81
g82
ssg63
g3408
sg56
(lp3419
S':'
asbag49
(g70
g51
NtRp3420
(dp3421
g54
(dp3422
sg63
g3408
sg56
(lp3423
g49
(g50
g51
NtRp3424
(dp3425
g54
(dp3426
g62
I3
ssg63
g3420
sg56
(lp3427
S''
asbasbasbag49
(g65
g51
NtRp3428
(dp3429
g54
(dp3430
sg63
g3404
sg56
(lp3431
g49
(g70
g51
NtRp3432
(dp3433
g54
(dp3434
g74
g75
ssg63
g3428
sg56
(lp3435
g284
asbag49
(g70
g51
NtRp3436
(dp3437
g54
(dp3438
g81
g82
ssg63
g3428
sg56
(lp3439
S':'
asbag49
(g70
g51
NtRp3440
(dp3441
g54
(dp3442
sg63
g3428
sg56
(lp3443
g49
(g50
g51
NtRp3444
(dp3445
g54
(dp3446
g62
I3
ssg63
g3440
sg56
(lp3447
S''
asbasbasbag49
(g65
g51
NtRp3448
(dp3449
g54
(dp3450
sg63
g3404
sg56
(lp3451
g49
(g70
g51
NtRp3452
(dp3453
g54
(dp3454
g74
g75
ssg63
g3448
sg56
(lp3455
g305
asbag49
(g70
g51
NtRp3456
(dp3457
g54
(dp3458
g81
g82
ssg63
g3448
sg56
(lp3459
S':'
asbag49
(g70
g51
NtRp3460
(dp3461
g54
(dp3462
sg63
g3448
sg56
(lp3463
g49
(g50
g51
NtRp3464
(dp3465
g54
(dp3466
g62
I3
ssg63
g3460
sg56
(lp3467
S'2592000'
p3468
asbasbasbag49
(g65
g51
NtRp3469
(dp3470
g54
(dp3471
sg63
g3404
sg56
(lp3472
g49
(g70
g51
NtRp3473
(dp3474
g54
(dp3475
g74
g75
ssg63
g3469
sg56
(lp3476
g326
asbag49
(g70
g51
NtRp3477
(dp3478
g54
(dp3479
g81
g82
ssg63
g3469
sg56
(lp3480
S':'
asbag49
(g70
g51
NtRp3481
(dp3482
g54
(dp3483
sg63
g3469
sg56
(lp3484
g49
(g50
g51
NtRp3485
(dp3486
g54
(dp3487
g62
I3
ssg63
g3481
sg56
(lp3488
S''
asbasbasbag49
(g65
g51
NtRp3489
(dp3490
g54
(dp3491
sg63
g3404
sg56
(lp3492
g49
(g70
g51
NtRp3493
(dp3494
g54
(dp3495
g74
g75
ssg63
g3489
sg56
(lp3496
g347
asbag49
(g70
g51
NtRp3497
(dp3498
g54
(dp3499
g81
g82
ssg63
g3489
sg56
(lp3500
S':'
asbag49
(g70
g51
NtRp3501
(dp3502
g54
(dp3503
sg63
g3489
sg56
(lp3504
g49
(g50
g51
NtRp3505
(dp3506
g54
(dp3507
g62
I3
ssg63
g3501
sg56
(lp3508
S'/'
asbasbasbag49
(g65
g51
NtRp3509
(dp3510
g54
(dp3511
sg63
g3404
sg56
(lp3512
g49
(g70
g51
NtRp3513
(dp3514
g54
(dp3515
g74
g75
ssg63
g3509
sg56
(lp3516
g368
asbag49
(g70
g51
NtRp3517
(dp3518
g54
(dp3519
g81
g82
ssg63
g3509
sg56
(lp3520
S':'
asbag49
(g70
g51
NtRp3521
(dp3522
g54
(dp3523
sg63
g3509
sg56
(lp3524
g49
(g50
g51
NtRp3525
(dp3526
g54
(dp3527
g62
I3
ssg63
g3521
sg56
(lp3528
S''
asbasbasbag49
(g65
g51
NtRp3529
(dp3530
g54
(dp3531
sg63
g3404
sg56
(lp3532
g49
(g70
g51
NtRp3533
(dp3534
g54
(dp3535
g74
g75
ssg63
g3529
sg56
(lp3536
g389
asbag49
(g70
g51
NtRp3537
(dp3538
g54
(dp3539
g81
g82
ssg63
g3529
sg56
(lp3540
S':'
asbag49
(g70
g51
NtRp3541
(dp3542
g54
(dp3543
sg63
g3529
sg56
(lp3544
g49
(g50
g51
NtRp3545
(dp3546
g54
(dp3547
g62
I3
ssg63
g3541
sg56
(lp3548
S''
asbasbasbasbasbasbasbasbasbasbasbag49
(g65
g51
NtRp3549
(dp3550
g54
(dp3551
sg63
g3334
sg56
(lp3552
g49
(g70
g51
NtRp3553
(dp3554
g54
(dp3555
g74
g75
ssg63
g3549
sg56
(lp3556
S'delimiters'
p3557
asbag49
(g70
g51
NtRp3558
(dp3559
g54
(dp3560
g81
g82
ssg63
g3549
sg56
(lp3561
S':'
asbag49
(g70
g51
NtRp3562
(dp3563
g54
(dp3564
sg63
g3549
sg56
(lp3565
g49
(g50
g51
NtRp3566
(dp3567
g54
(dp3568
g62
I5
ssg63
g3562
sg56
(lp3569
g49
(g58
g51
NtRp3570
(dp3571
g54
(dp3572
g62
I4
ssg63
Nsg56
(lp3573
g49
(g65
g51
NtRp3574
(dp3575
g54
(dp3576
sg63
g3570
sg56
(lp3577
g49
(g70
g51
NtRp3578
(dp3579
g54
(dp3580
sg63
g3574
sg56
(lp3581
g49
(g50
g51
NtRp3582
(dp3583
g54
(dp3584
g62
I4
ssg63
g3578
sg56
(lp3585
S'{{'
p3586
asbasbasbag49
(g65
g51
NtRp3587
(dp3588
g54
(dp3589
sg63
g3570
sg56
(lp3590
g49
(g70
g51
NtRp3591
(dp3592
g54
(dp3593
sg63
g3587
sg56
(lp3594
g49
(g50
g51
NtRp3595
(dp3596
g54
(dp3597
g62
I4
ssg63
g3591
sg56
(lp3598
S'}}'
p3599
asbasbasbasbasbasbasbag49
(g65
g51
NtRp3600
(dp3601
g54
(dp3602
sg63
g3334
sg56
(lp3603
g49
(g70
g51
NtRp3604
(dp3605
g54
(dp3606
g74
g75
ssg63
g3600
sg56
(lp3607
S'files'
p3608
asbag49
(g70
g51
NtRp3609
(dp3610
g54
(dp3611
g81
g82
ssg63
g3600
sg56
(lp3612
S':'
asbag49
(g70
g51
NtRp3613
(dp3614
g54
(dp3615
sg63
g3600
sg56
(lp3616
g49
(g50
g51
NtRp3617
(dp3618
g54
(dp3619
g62
I5
ssg63
g3613
sg56
(lp3620
g49
(g58
g51
NtRp3621
(dp3622
g54
(dp3623
g62
I4
ssg63
Nsg56
(lp3624
sbasbasbasbag49
(g65
g51
NtRp3625
(dp3626
g54
(dp3627
sg63
g3334
sg56
(lp3628
g49
(g70
g51
NtRp3629
(dp3630
g54
(dp3631
g74
g75
ssg63
g3625
sg56
(lp3632
S'flash'
p3633
asbag49
(g70
g51
NtRp3634
(dp3635
g54
(dp3636
g81
g82
ssg63
g3625
sg56
(lp3637
S':'
asbag49
(g70
g51
NtRp3638
(dp3639
g54
(dp3640
sg63
g3625
sg56
(lp3641
g49
(g50
g51
NtRp3642
(dp3643
g54
(dp3644
g62
I5
ssg63
g3638
sg56
(lp3645
S''
asbasbasbag49
(g65
g51
NtRp3646
(dp3647
g54
(dp3648
sg63
g3334
sg56
(lp3649
g49
(g70
g51
NtRp3650
(dp3651
g54
(dp3652
g74
g75
ssg63
g3646
sg56
(lp3653
S'generic_patterns'
p3654
asbag49
(g70
g51
NtRp3655
(dp3656
g54
(dp3657
g81
g82
ssg63
g3646
sg56
(lp3658
S':'
asbag49
(g70
g51
NtRp3659
(dp3660
g54
(dp3661
sg63
g3646
sg56
(lp3662
g49
(g50
g51
NtRp3663
(dp3664
g54
(dp3665
g62
I5
ssg63
g3659
sg56
(lp3666
g49
(g58
g51
NtRp3667
(dp3668
g54
(dp3669
g62
I4
ssg63
Nsg56
(lp3670
g49
(g65
g51
NtRp3671
(dp3672
g54
(dp3673
sg63
g3667
sg56
(lp3674
g49
(g70
g51
NtRp3675
(dp3676
g54
(dp3677
sg63
g3671
sg56
(lp3678
g49
(g50
g51
NtRp3679
(dp3680
g54
(dp3681
g62
I4
ssg63
g3675
sg56
(lp3682
S'*'
asbasbasbasbasbasbasbag49
(g65
g51
NtRp3683
(dp3684
g54
(dp3685
sg63
g3334
sg56
(lp3686
g49
(g70
g51
NtRp3687
(dp3688
g54
(dp3689
g74
g75
ssg63
g3683
sg56
(lp3690
S'headers'
p3691
asbag49
(g70
g51
NtRp3692
(dp3693
g54
(dp3694
g81
g82
ssg63
g3683
sg56
(lp3695
S':'
asbag49
(g70
g51
NtRp3696
(dp3697
g54
(dp3698
sg63
g3683
sg56
(lp3699
g49
(g50
g51
NtRp3700
(dp3701
g54
(dp3702
g62
I5
ssg63
g3696
sg56
(lp3703
g49
(g58
g51
NtRp3704
(dp3705
g54
(dp3706
g62
I4
ssg63
Nsg56
(lp3707
g49
(g65
g51
NtRp3708
(dp3709
g54
(dp3710
sg63
g3704
sg56
(lp3711
g49
(g70
g51
NtRp3712
(dp3713
g54
(dp3714
g74
g75
ssg63
g3708
sg56
(lp3715
S'Cache-Control'
p3716
asbag49
(g70
g51
NtRp3717
(dp3718
g54
(dp3719
g81
g82
ssg63
g3708
sg56
(lp3720
S':'
asbag49
(g70
g51
NtRp3721
(dp3722
g54
(dp3723
sg63
g3708
sg56
(lp3724
g49
(g50
g51
NtRp3725
(dp3726
g54
(dp3727
g62
I4
ssg63
g3721
sg56
(lp3728
S'no-store, no-cache, must-revalidate, post-check=0, pre-check=0'
p3729
asbasbasbag49
(g65
g51
NtRp3730
(dp3731
g54
(dp3732
sg63
g3704
sg56
(lp3733
g49
(g70
g51
NtRp3734
(dp3735
g54
(dp3736
g74
g75
ssg63
g3730
sg56
(lp3737
S'Content-Type'
p3738
asbag49
(g70
g51
NtRp3739
(dp3740
g54
(dp3741
g81
g82
ssg63
g3730
sg56
(lp3742
S':'
asbag49
(g70
g51
NtRp3743
(dp3744
g54
(dp3745
sg63
g3730
sg56
(lp3746
g49
(g50
g51
NtRp3747
(dp3748
g54
(dp3749
g62
I4
ssg63
g3743
sg56
(lp3750
S'text/html; charset=utf-8'
p3751
asbasbasbag49
(g65
g51
NtRp3752
(dp3753
g54
(dp3754
sg63
g3704
sg56
(lp3755
g49
(g70
g51
NtRp3756
(dp3757
g54
(dp3758
g74
g75
ssg63
g3752
sg56
(lp3759
S'Expires'
p3760
asbag49
(g70
g51
NtRp3761
(dp3762
g54
(dp3763
g81
g82
ssg63
g3752
sg56
(lp3764
S':'
asbag49
(g70
g51
NtRp3765
(dp3766
g54
(dp3767
sg63
g3752
sg56
(lp3768
g49
(g50
g51
NtRp3769
(dp3770
g54
(dp3771
g62
I4
ssg63
g3765
sg56
(lp3772
S'Wed, 21 Mar 2012 16:01:56 GMT'
p3773
asbasbasbag49
(g65
g51
NtRp3774
(dp3775
g54
(dp3776
sg63
g3704
sg56
(lp3777
g49
(g70
g51
NtRp3778
(dp3779
g54
(dp3780
g74
g75
ssg63
g3774
sg56
(lp3781
S'Pragma'
p3782
asbag49
(g70
g51
NtRp3783
(dp3784
g54
(dp3785
g81
g82
ssg63
g3774
sg56
(lp3786
S':'
asbag49
(g70
g51
NtRp3787
(dp3788
g54
(dp3789
sg63
g3774
sg56
(lp3790
g49
(g50
g51
NtRp3791
(dp3792
g54
(dp3793
g62
I4
ssg63
g3787
sg56
(lp3794
S'no-cache'
p3795
asbasbasbag49
(g65
g51
NtRp3796
(dp3797
g54
(dp3798
sg63
g3704
sg56
(lp3799
g49
(g70
g51
NtRp3800
(dp3801
g54
(dp3802
g74
g75
ssg63
g3796
sg56
(lp3803
S'X-Powered-By'
p3804
asbag49
(g70
g51
NtRp3805
(dp3806
g54
(dp3807
g81
g82
ssg63
g3796
sg56
(lp3808
S':'
asbag49
(g70
g51
NtRp3809
(dp3810
g54
(dp3811
sg63
g3796
sg56
(lp3812
g49
(g50
g51
NtRp3813
(dp3814
g54
(dp3815
g62
I4
ssg63
g3809
sg56
(lp3816
S'web2py'
p3817
asbasbasbasbasbasbasbag49
(g65
g51
NtRp3818
(dp3819
g54
(dp3820
sg63
g3334
sg56
(lp3821
g49
(g70
g51
NtRp3822
(dp3823
g54
(dp3824
g74
g75
ssg63
g3818
sg56
(lp3825
S'menu'
p3826
asbag49
(g70
g51
NtRp3827
(dp3828
g54
(dp3829
g81
g82
ssg63
g3818
sg56
(lp3830
S':'
asbag49
(g70
g51
NtRp3831
(dp3832
g54
(dp3833
sg63
g3818
sg56
(lp3834
g49
(g50
g51
NtRp3835
(dp3836
g54
(dp3837
g62
I5
ssg63
g3831
sg56
(lp3838
g49
(g58
g51
NtRp3839
(dp3840
g54
(dp3841
g62
I4
ssg63
Nsg56
(lp3842
sbasbasbasbag49
(g65
g51
NtRp3843
(dp3844
g54
(dp3845
sg63
g3334
sg56
(lp3846
g49
(g70
g51
NtRp3847
(dp3848
g54
(dp3849
g74
g75
ssg63
g3843
sg56
(lp3850
S'meta'
p3851
asbag49
(g70
g51
NtRp3852
(dp3853
g54
(dp3854
g81
g82
ssg63
g3843
sg56
(lp3855
S':'
asbag49
(g70
g51
NtRp3856
(dp3857
g54
(dp3858
sg63
g3843
sg56
(lp3859
g49
(g50
g51
NtRp3860
(dp3861
g54
(dp3862
g62
I5
ssg63
g3856
sg56
(lp3863
g49
(g58
g51
NtRp3864
(dp3865
g54
(dp3866
g62
I4
ssg63
Nsg56
(lp3867
sbasbasbasbag49
(g65
g51
NtRp3868
(dp3869
g54
(dp3870
sg63
g3334
sg56
(lp3871
g49
(g70
g51
NtRp3872
(dp3873
g54
(dp3874
g74
g75
ssg63
g3868
sg56
(lp3875
S'postprocessing'
p3876
asbag49
(g70
g51
NtRp3877
(dp3878
g54
(dp3879
g81
g82
ssg63
g3868
sg56
(lp3880
S':'
asbag49
(g70
g51
NtRp3881
(dp3882
g54
(dp3883
sg63
g3868
sg56
(lp3884
g49
(g50
g51
NtRp3885
(dp3886
g54
(dp3887
g62
I5
ssg63
g3881
sg56
(lp3888
g49
(g58
g51
NtRp3889
(dp3890
g54
(dp3891
g62
I4
ssg63
Nsg56
(lp3892
sbasbasbasbag49
(g65
g51
NtRp3893
(dp3894
g54
(dp3895
sg63
g3334
sg56
(lp3896
g49
(g70
g51
NtRp3897
(dp3898
g54
(dp3899
g74
g75
ssg63
g3893
sg56
(lp3900
S'session_file'
p3901
asbag49
(g70
g51
NtRp3902
(dp3903
g54
(dp3904
g81
g82
ssg63
g3893
sg56
(lp3905
S':'
asbag49
(g70
g51
NtRp3906
(dp3907
g54
(dp3908
sg63
g3893
sg56
(lp3909
g49
(g50
g51
NtRp3910
(dp3911
g54
(dp3912
g62
I5
ssg63
g3906
sg56
(lp3913
S"<open file '/Users/udimilo/Documents/web2py/applications/udi0312/sessions/127.0.0.1-fcd6a577-d448-4882-b7bc-f353da84ba3b', mode 'rb+' at 0x21ee6e0>"
p3914
asbasbasbag49
(g65
g51
NtRp3915
(dp3916
g54
(dp3917
sg63
g3334
sg56
(lp3918
g49
(g70
g51
NtRp3919
(dp3920
g54
(dp3921
g74
g75
ssg63
g3915
sg56
(lp3922
S'session_filename'
p3923
asbag49
(g70
g51
NtRp3924
(dp3925
g54
(dp3926
g81
g82
ssg63
g3915
sg56
(lp3927
S':'
asbag49
(g70
g51
NtRp3928
(dp3929
g54
(dp3930
sg63
g3915
sg56
(lp3931
g49
(g50
g51
NtRp3932
(dp3933
g54
(dp3934
g62
I5
ssg63
g3928
sg56
(lp3935
S'/Users/udimilo/Documents/web2py/applications/udi0312/sessions/127.0.0.1-fcd6a577-d448-4882-b7bc-f353da84ba3b'
p3936
asbasbasbag49
(g65
g51
NtRp3937
(dp3938
g54
(dp3939
sg63
g3334
sg56
(lp3940
g49
(g70
g51
NtRp3941
(dp3942
g54
(dp3943
g74
g75
ssg63
g3937
sg56
(lp3944
S'session_id'
p3945
asbag49
(g70
g51
NtRp3946
(dp3947
g54
(dp3948
g81
g82
ssg63
g3937
sg56
(lp3949
S':'
asbag49
(g70
g51
NtRp3950
(dp3951
g54
(dp3952
sg63
g3937
sg56
(lp3953
g49
(g50
g51
NtRp3954
(dp3955
g54
(dp3956
g62
I5
ssg63
g3950
sg56
(lp3957
S'127.0.0.1-fcd6a577-d448-4882-b7bc-f353da84ba3b'
p3958
asbasbasbag49
(g65
g51
NtRp3959
(dp3960
g54
(dp3961
sg63
g3334
sg56
(lp3962
g49
(g70
g51
NtRp3963
(dp3964
g54
(dp3965
g74
g75
ssg63
g3959
sg56
(lp3966
S'session_id_name'
p3967
asbag49
(g70
g51
NtRp3968
(dp3969
g54
(dp3970
g81
g82
ssg63
g3959
sg56
(lp3971
S':'
asbag49
(g70
g51
NtRp3972
(dp3973
g54
(dp3974
sg63
g3959
sg56
(lp3975
g49
(g50
g51
NtRp3976
(dp3977
g54
(dp3978
g62
I5
ssg63
g3972
sg56
(lp3979
g3391
asbasbasbag49
(g65
g51
NtRp3980
(dp3981
g54
(dp3982
sg63
g3334
sg56
(lp3983
g49
(g70
g51
NtRp3984
(dp3985
g54
(dp3986
g74
g75
ssg63
g3980
sg56
(lp3987
S'session_locked'
p3988
asbag49
(g70
g51
NtRp3989
(dp3990
g54
(dp3991
g81
g82
ssg63
g3980
sg56
(lp3992
S':'
asbag49
(g70
g51
NtRp3993
(dp3994
g54
(dp3995
sg63
g3980
sg56
(lp3996
g49
(g50
g51
NtRp3997
(dp3998
g54
(dp3999
g62
I5
ssg63
g3993
sg56
(lp4000
g1464
asbasbasbag49
(g65
g51
NtRp4001
(dp4002
g54
(dp4003
sg63
g3334
sg56
(lp4004
g49
(g70
g51
NtRp4005
(dp4006
g54
(dp4007
g74
g75
ssg63
g4001
sg56
(lp4008
S'session_new'
p4009
asbag49
(g70
g51
NtRp4010
(dp4011
g54
(dp4012
g81
g82
ssg63
g4001
sg56
(lp4013
S':'
asbag49
(g70
g51
NtRp4014
(dp4015
g54
(dp4016
sg63
g4001
sg56
(lp4017
g49
(g50
g51
NtRp4018
(dp4019
g54
(dp4020
g62
I5
ssg63
g4014
sg56
(lp4021
g92
asbasbasbag49
(g65
g51
NtRp4022
(dp4023
g54
(dp4024
sg63
g3334
sg56
(lp4025
g49
(g70
g51
NtRp4026
(dp4027
g54
(dp4028
g74
g75
ssg63
g4022
sg56
(lp4029
S'status'
p4030
asbag49
(g70
g51
NtRp4031
(dp4032
g54
(dp4033
g81
g82
ssg63
g4022
sg56
(lp4034
S':'
asbag49
(g70
g51
NtRp4035
(dp4036
g54
(dp4037
sg63
g4022
sg56
(lp4038
g49
(g50
g51
NtRp4039
(dp4040
g54
(dp4041
g62
I5
ssg63
g4035
sg56
(lp4042
S'200'
p4043
asbasbasbag49
(g65
g51
NtRp4044
(dp4045
g54
(dp4046
sg63
g3334
sg56
(lp4047
g49
(g70
g51
NtRp4048
(dp4049
g54
(dp4050
g74
g75
ssg63
g4044
sg56
(lp4051
g2127
asbag49
(g70
g51
NtRp4052
(dp4053
g54
(dp4054
g81
g82
ssg63
g4044
sg56
(lp4055
S':'
asbag49
(g70
g51
NtRp4056
(dp4057
g54
(dp4058
sg63
g4044
sg56
(lp4059
g49
(g50
g51
NtRp4060
(dp4061
g54
(dp4062
g62
I5
ssg63
g4056
sg56
(lp4063
g2140
asbasbasbag49
(g65
g51
NtRp4064
(dp4065
g54
(dp4066
sg63
g3334
sg56
(lp4067
g49
(g70
g51
NtRp4068
(dp4069
g54
(dp4070
g74
g75
ssg63
g4064
sg56
(lp4071
S'view'
p4072
asbag49
(g70
g51
NtRp4073
(dp4074
g54
(dp4075
g81
g82
ssg63
g4064
sg56
(lp4076
S':'
asbag49
(g70
g51
NtRp4077
(dp4078
g54
(dp4079
sg63
g4064
sg56
(lp4080
g49
(g50
g51
NtRp4081
(dp4082
g54
(dp4083
g62
I5
ssg63
g4077
sg56
(lp4084
S'default/index.html'
p4085
asbasbasbasbasbsS'locals'
p4086
(dp4087
S'fromlist'
p4088
S'[]'
p4089
sS'name'
p4090
S"'linkedindwwwwwwww'"
p4091
sg62
S'-1'
p4092
sS'self'
p4093
S'<gluon.custom_import._Web2pyImporter object at 0x210cd70>'
p4094
sS'globals'
p4095
S"{'HTTP': None, '__builtins__': {'ArithmeticError': <type 'exceptions.ArithmeticError'>, 'AssertionError': <type 'exceptions.AssertionError'>, 'AttributeError': <type 'exceptions.AttributeError'>, 'BaseException': <type 'exceptions.BaseException'>, 'DeprecationWarning': <type 'exceptions.DeprecationWarning'>, 'EOFError': <type 'exceptions.EOFError'>, 'Ellipsis': Ellipsis, 'EnvironmentError': <type 'exceptions.EnvironmentError'>, 'Exception': <type 'exceptions.Exception'>, 'False': False, ...}, '__doc__': None, '__file__': None, '__name__': None}"
p4096
sg4086
S"{'HTTP': None, '__builtins__': {'ArithmeticError': <type 'exceptions.ArithmeticError'>, 'AssertionError': <type 'exceptions.AssertionError'>, 'AttributeError': <type 'exceptions.AttributeError'>, 'BaseException': <type 'exceptions.BaseException'>, 'DeprecationWarning': <type 'exceptions.DeprecationWarning'>, 'EOFError': <type 'exceptions.EOFError'>, 'Ellipsis': Ellipsis, 'EnvironmentError': <type 'exceptions.EnvironmentError'>, 'Exception': <type 'exceptions.Exception'>, 'False': False, ...}, '__doc__': None, '__file__': None, '__name__': None}"
p4097
sssS'traceback'
p4098
S'Traceback (most recent call last):\n  File "/users/udimilo/Documents/web2py/gluon/restricted.py", line 205, in restricted\n    exec ccode in environment\n  File "/Users/udimilo/Documents/web2py/applications/udi0312/models/db.py", line 69, in <module>\n    from gluon.contrib.login_methods.linkedin_account import LinkedInAccount\n  File "/users/udimilo/Documents/web2py/gluon/custom_import.py", line 293, in __call__\n    fromlist, level)\n  File "/users/udimilo/Documents/web2py/gluon/custom_import.py", line 78, in __call__\n    level)\n  File "/users/udimilo/Documents/web2py/gluon/contrib/login_methods/linkedin_account.py", line 14, in <module>\n    import linkedindwwwwwwww\n  File "/users/udimilo/Documents/web2py/gluon/custom_import.py", line 293, in __call__\n    fromlist, level)\n  File "/users/udimilo/Documents/web2py/gluon/custom_import.py", line 78, in __call__\n    level)\nImportError: No module named linkedindwwwwwwww\n'
p4099
s.