(dp1
S'output'
p2
S"<type 'exceptions.NameError'> name 'boards' is not defined"
p3
sS'layer'
p4
S'/Users/udimilo/Documents/web2py/applications/udi0312/views/boards/index.html'
p5
sS'code'
p6
S'response.write(\'<html lan="en">\\n<head>\\n    <title>inFormation - Curate The Web</title>\\n    <script type="text/javascript" src="http://ajax.googleapis.com/ajax/libs/jquery/1.7.1/jquery.min.js"></script>\\n    <script type="text/javascript" src="/udi0312/static/js/jquery.wookmark.js"></script>\\n    <script type="text/javascript" src="http://easydate.parshap.com/files/jquery.easydate-0.2.4.min.js"></script>\\n    <script type="text/javascript" src="/udi0312/static/js/web2py.js"></script>\\n    <script type="text/javascript" src="http://jacklmoore.com/colorbox/colorbox/jquery.colorbox.js"></script>   \\n    <link href=\\\'http://fonts.googleapis.com/css?family=PT+Sans\\\' rel=\\\'stylesheet\\\' type=\\\'text/css\\\'>\\n    <link href=\\\'/udi0312/static/css/site.css\\\' rel=\\\'stylesheet\\\' type=\\\'text/css\\\'>\\n</head>\\n<body>\\n    <div id="header">\\n        <div id="search">\\n            <input type="text" id="query" size="27" value="Search">\\n            <a id="query_button" href="#" class="lg"><img src="http://passets-cdn.pinterest.com/images/search.gif" alt=""></a>\\n        </div>\\n        <img id="ajax_loader" src="/udi0312/static/images/ajax_loader.gif" />\\n        <a id="logo" href="/">\\n            <img src="http://press.linkedin.com/sites/all/themes/presslinkedin/images/LinkedIn_IN_Icon_25px.png"/>\\n            <span>formation</span>\\n        </a>\\n        <ul id="navigation">\\n            <li>\', escape=False)\nresponse.write(\'auth\' in globals() and auth.navbar(separators=(\' \',\' | \',\'\')))\nresponse.write(\'</li>\\n        </ul>\\n    </div>\\n    <div id="msg">\\n        <span></span>\\n    </div>\\n    <!-- hidden colorbox elements -->\\n    <div style="display:none;">\\n        <div id="showItem">\\n            <div id="showItemContent" class="clearfix"></div>\\n        </div>\\n        \', escape=False)\nif auth.user:\n    response.write(\'\\n        <div id="repin">\\n            <form onsubmit="ajax_with_msg(\\\'\', escape=False)\n    response.write(URL(\'add_repin\'))\n    response.write(\'\\\', [\\\'id\\\',\\\'repin_board\\\']);return false;">\\n                <h1>Repin</h1>\\n                <div class="pin">\\n                    <h2 class="title"></h2> \\n                    <select name="repin_board">\\n                    \', escape=False)\n    for board in boards:\n        response.write(\'\\n                        <option value="\', escape=False)\n        response.write(board.id)\n        response.write(\'">\', escape=False)\n        response.write(board.name)\n        response.write(\'</option>\\n                    \', escape=False)\n        pass\n    response.write(\'               \\n                    </select>\\n                    <input type="hidden" name="id"/>\\n                    <input type="submit" />\\n                </div>\\n            </form>\\n        </div>\\n        \', escape=False)\n    pass\nresponse.write(\'\\n    </div>\\n\', escape=False)\nresponse.write(\'\\n\', escape=False)\nresponse.write(\'\\n<h1>This is the boards/index.html template</h1>\\n\', escape=False)\nresponse.write(BEAUTIFY(response._vars))\nresponse.write(\'\\n\', escape=False)\nresponse.write(\'\\n\', escape=False)\nresponse.write(\'\\n    <script type="text/javascript" src="/udi0312/static/js/site.js"></script>\\n</body>\\n</html>\\n\', escape=False)'
p7
sS'snapshot'
p8
(dp9
S'exception'
p10
(dp11
S'__hash__'
p12
S"<method-wrapper '__hash__' of exceptions.NameError object at 0xabcbc38>"
p13
sS'__setattr__'
p14
S"<method-wrapper '__setattr__' of exceptions.NameError object at 0xabcbc38>"
p15
sS'__reduce_ex__'
p16
S'<built-in method __reduce_ex__ of exceptions.NameError object at 0xabcbc38>'
p17
sS'__getslice__'
p18
S"<method-wrapper '__getslice__' of exceptions.NameError object at 0xabcbc38>"
p19
sS'__getitem__'
p20
S"<method-wrapper '__getitem__' of exceptions.NameError object at 0xabcbc38>"
p21
sS'__setstate__'
p22
S'<built-in method __setstate__ of exceptions.NameError object at 0xabcbc38>'
p23
sS'__reduce__'
p24
S'<built-in method __reduce__ of exceptions.NameError object at 0xabcbc38>'
p25
sS'__str__'
p26
S"<method-wrapper '__str__' of exceptions.NameError object at 0xabcbc38>"
p27
sS'args'
p28
S'("name \'boards\' is not defined",)'
p29
sS'__getattribute__'
p30
S"<method-wrapper '__getattribute__' of exceptions.NameError object at 0xabcbc38>"
p31
sS'__class__'
p32
S"<type 'exceptions.NameError'>"
p33
sS'__delattr__'
p34
S"<method-wrapper '__delattr__' of exceptions.NameError object at 0xabcbc38>"
p35
sS'__repr__'
p36
S"<method-wrapper '__repr__' of exceptions.NameError object at 0xabcbc38>"
p37
sS'__dict__'
p38
S'{}'
p39
sS'__doc__'
p40
S"'Name not found globally.'"
p41
sS'__init__'
p42
S"<method-wrapper '__init__' of exceptions.NameError object at 0xabcbc38>"
p43
sS'__new__'
p44
S'<built-in method __new__ of type object at 0x100640>'
p45
ssS'evalue'
p46
S"name 'boards' is not defined"
p47
sS'request'
p48
ccopy_reg
_reconstructor
p49
(cgluon.html
BEAUTIFY
p50
c__builtin__
object
p51
NtRp52
(dp53
S'attributes'
p54
(dp55
sS'components'
p56
(lp57
g49
(cgluon.html
TABLE
p58
g51
NtRp59
(dp60
g54
(dp61
S'level'
p62
I5
ssS'parent'
p63
Nsg56
(lp64
g49
(cgluon.html
TR
p65
g51
NtRp66
(dp67
g54
(dp68
sg63
g59
sg56
(lp69
g49
(cgluon.html
TD
p70
g51
NtRp71
(dp72
g54
(dp73
S'_style'
p74
S'font-weight:bold;vertical-align:top'
p75
ssg63
g66
sg56
(lp76
S'ajax'
p77
asbag49
(g70
g51
NtRp78
(dp79
g54
(dp80
S'_valign'
p81
S'top'
p82
ssg63
g66
sg56
(lp83
S':'
asbag49
(g70
g51
NtRp84
(dp85
g54
(dp86
sg63
g66
sg56
(lp87
g49
(g50
g51
NtRp88
(dp89
g54
(dp90
g62
I5
ssg63
g84
sg56
(lp91
S'False'
p92
asbasbasbag49
(g65
g51
NtRp93
(dp94
g54
(dp95
sg63
g59
sg56
(lp96
g49
(g70
g51
NtRp97
(dp98
g54
(dp99
g74
g75
ssg63
g93
sg56
(lp100
S'application'
p101
asbag49
(g70
g51
NtRp102
(dp103
g54
(dp104
g81
g82
ssg63
g93
sg56
(lp105
S':'
asbag49
(g70
g51
NtRp106
(dp107
g54
(dp108
sg63
g93
sg56
(lp109
g49
(g50
g51
NtRp110
(dp111
g54
(dp112
g62
I5
ssg63
g106
sg56
(lp113
S'udi0312'
p114
asbasbasbag49
(g65
g51
NtRp115
(dp116
g54
(dp117
sg63
g59
sg56
(lp118
g49
(g70
g51
NtRp119
(dp120
g54
(dp121
g74
g75
ssg63
g115
sg56
(lp122
g28
asbag49
(g70
g51
NtRp123
(dp124
g54
(dp125
g81
g82
ssg63
g115
sg56
(lp126
S':'
asbag49
(g70
g51
NtRp127
(dp128
g54
(dp129
sg63
g115
sg56
(lp130
g49
(g50
g51
NtRp131
(dp132
g54
(dp133
g62
I5
ssg63
g127
sg56
(lp134
g49
(g58
g51
NtRp135
(dp136
g54
(dp137
g62
I4
ssg63
Nsg56
(lp138
sbasbasbasbag49
(g65
g51
NtRp139
(dp140
g54
(dp141
sg63
g59
sg56
(lp142
g49
(g70
g51
NtRp143
(dp144
g54
(dp145
g74
g75
ssg63
g139
sg56
(lp146
S'body'
p147
asbag49
(g70
g51
NtRp148
(dp149
g54
(dp150
g81
g82
ssg63
g139
sg56
(lp151
S':'
asbag49
(g70
g51
NtRp152
(dp153
g54
(dp154
sg63
g139
sg56
(lp155
g49
(g50
g51
NtRp156
(dp157
g54
(dp158
g62
I5
ssg63
g152
sg56
(lp159
S'<cStringIO.StringO object at 0xa1e6fc0>'
p160
asbasbasbag49
(g65
g51
NtRp161
(dp162
g54
(dp163
sg63
g59
sg56
(lp164
g49
(g70
g51
NtRp165
(dp166
g54
(dp167
g74
g75
ssg63
g161
sg56
(lp168
S'client'
p169
asbag49
(g70
g51
NtRp170
(dp171
g54
(dp172
g81
g82
ssg63
g161
sg56
(lp173
S':'
asbag49
(g70
g51
NtRp174
(dp175
g54
(dp176
sg63
g161
sg56
(lp177
g49
(g50
g51
NtRp178
(dp179
g54
(dp180
g62
I5
ssg63
g174
sg56
(lp181
S'127.0.0.1'
p182
asbasbasbag49
(g65
g51
NtRp183
(dp184
g54
(dp185
sg63
g59
sg56
(lp186
g49
(g70
g51
NtRp187
(dp188
g54
(dp189
g74
g75
ssg63
g183
sg56
(lp190
S'controller'
p191
asbag49
(g70
g51
NtRp192
(dp193
g54
(dp194
g81
g82
ssg63
g183
sg56
(lp195
S':'
asbag49
(g70
g51
NtRp196
(dp197
g54
(dp198
sg63
g183
sg56
(lp199
g49
(g50
g51
NtRp200
(dp201
g54
(dp202
g62
I5
ssg63
g196
sg56
(lp203
S'boards'
p204
asbasbasbag49
(g65
g51
NtRp205
(dp206
g54
(dp207
sg63
g59
sg56
(lp208
g49
(g70
g51
NtRp209
(dp210
g54
(dp211
g74
g75
ssg63
g205
sg56
(lp212
S'cookies'
p213
asbag49
(g70
g51
NtRp214
(dp215
g54
(dp216
g81
g82
ssg63
g205
sg56
(lp217
S':'
asbag49
(g70
g51
NtRp218
(dp219
g54
(dp220
sg63
g205
sg56
(lp221
g49
(g50
g51
NtRp222
(dp223
g54
(dp224
g62
I5
ssg63
g218
sg56
(lp225
g49
(g58
g51
NtRp226
(dp227
g54
(dp228
g62
I4
ssg63
Nsg56
(lp229
g49
(g65
g51
NtRp230
(dp231
g54
(dp232
sg63
g226
sg56
(lp233
g49
(g70
g51
NtRp234
(dp235
g54
(dp236
g74
g75
ssg63
g230
sg56
(lp237
S'session_id_admin'
p238
asbag49
(g70
g51
NtRp239
(dp240
g54
(dp241
g81
g82
ssg63
g230
sg56
(lp242
S':'
asbag49
(g70
g51
NtRp243
(dp244
g54
(dp245
sg63
g230
sg56
(lp246
g49
(g50
g51
NtRp247
(dp248
g54
(dp249
g62
I4
ssg63
g243
sg56
(lp250
g49
(g58
g51
NtRp251
(dp252
g54
(dp253
g62
I3
ssg63
Nsg56
(lp254
g49
(g65
g51
NtRp255
(dp256
g54
(dp257
sg63
g251
sg56
(lp258
g49
(g70
g51
NtRp259
(dp260
g54
(dp261
g74
g75
ssg63
g255
sg56
(lp262
S'comment'
p263
asbag49
(g70
g51
NtRp264
(dp265
g54
(dp266
g81
g82
ssg63
g255
sg56
(lp267
S':'
asbag49
(g70
g51
NtRp268
(dp269
g54
(dp270
sg63
g255
sg56
(lp271
g49
(g50
g51
NtRp272
(dp273
g54
(dp274
g62
I3
ssg63
g268
sg56
(lp275
S''
asbasbasbag49
(g65
g51
NtRp276
(dp277
g54
(dp278
sg63
g251
sg56
(lp279
g49
(g70
g51
NtRp280
(dp281
g54
(dp282
g74
g75
ssg63
g276
sg56
(lp283
S'domain'
p284
asbag49
(g70
g51
NtRp285
(dp286
g54
(dp287
g81
g82
ssg63
g276
sg56
(lp288
S':'
asbag49
(g70
g51
NtRp289
(dp290
g54
(dp291
sg63
g276
sg56
(lp292
g49
(g50
g51
NtRp293
(dp294
g54
(dp295
g62
I3
ssg63
g289
sg56
(lp296
S''
asbasbasbag49
(g65
g51
NtRp297
(dp298
g54
(dp299
sg63
g251
sg56
(lp300
g49
(g70
g51
NtRp301
(dp302
g54
(dp303
g74
g75
ssg63
g297
sg56
(lp304
S'expires'
p305
asbag49
(g70
g51
NtRp306
(dp307
g54
(dp308
g81
g82
ssg63
g297
sg56
(lp309
S':'
asbag49
(g70
g51
NtRp310
(dp311
g54
(dp312
sg63
g297
sg56
(lp313
g49
(g50
g51
NtRp314
(dp315
g54
(dp316
g62
I3
ssg63
g310
sg56
(lp317
S''
asbasbasbag49
(g65
g51
NtRp318
(dp319
g54
(dp320
sg63
g251
sg56
(lp321
g49
(g70
g51
NtRp322
(dp323
g54
(dp324
g74
g75
ssg63
g318
sg56
(lp325
S'max-age'
p326
asbag49
(g70
g51
NtRp327
(dp328
g54
(dp329
g81
g82
ssg63
g318
sg56
(lp330
S':'
asbag49
(g70
g51
NtRp331
(dp332
g54
(dp333
sg63
g318
sg56
(lp334
g49
(g50
g51
NtRp335
(dp336
g54
(dp337
g62
I3
ssg63
g331
sg56
(lp338
S''
asbasbasbag49
(g65
g51
NtRp339
(dp340
g54
(dp341
sg63
g251
sg56
(lp342
g49
(g70
g51
NtRp343
(dp344
g54
(dp345
g74
g75
ssg63
g339
sg56
(lp346
S'path'
p347
asbag49
(g70
g51
NtRp348
(dp349
g54
(dp350
g81
g82
ssg63
g339
sg56
(lp351
S':'
asbag49
(g70
g51
NtRp352
(dp353
g54
(dp354
sg63
g339
sg56
(lp355
g49
(g50
g51
NtRp356
(dp357
g54
(dp358
g62
I3
ssg63
g352
sg56
(lp359
S''
asbasbasbag49
(g65
g51
NtRp360
(dp361
g54
(dp362
sg63
g251
sg56
(lp363
g49
(g70
g51
NtRp364
(dp365
g54
(dp366
g74
g75
ssg63
g360
sg56
(lp367
S'secure'
p368
asbag49
(g70
g51
NtRp369
(dp370
g54
(dp371
g81
g82
ssg63
g360
sg56
(lp372
S':'
asbag49
(g70
g51
NtRp373
(dp374
g54
(dp375
sg63
g360
sg56
(lp376
g49
(g50
g51
NtRp377
(dp378
g54
(dp379
g62
I3
ssg63
g373
sg56
(lp380
S''
asbasbasbag49
(g65
g51
NtRp381
(dp382
g54
(dp383
sg63
g251
sg56
(lp384
g49
(g70
g51
NtRp385
(dp386
g54
(dp387
g74
g75
ssg63
g381
sg56
(lp388
S'version'
p389
asbag49
(g70
g51
NtRp390
(dp391
g54
(dp392
g81
g82
ssg63
g381
sg56
(lp393
S':'
asbag49
(g70
g51
NtRp394
(dp395
g54
(dp396
sg63
g381
sg56
(lp397
g49
(g50
g51
NtRp398
(dp399
g54
(dp400
g62
I3
ssg63
g394
sg56
(lp401
S''
asbasbasbasbasbasbasbag49
(g65
g51
NtRp402
(dp403
g54
(dp404
sg63
g226
sg56
(lp405
g49
(g70
g51
NtRp406
(dp407
g54
(dp408
g74
g75
ssg63
g402
sg56
(lp409
S'session_id_udi0312'
p410
asbag49
(g70
g51
NtRp411
(dp412
g54
(dp413
g81
g82
ssg63
g402
sg56
(lp414
S':'
asbag49
(g70
g51
NtRp415
(dp416
g54
(dp417
sg63
g402
sg56
(lp418
g49
(g50
g51
NtRp419
(dp420
g54
(dp421
g62
I4
ssg63
g415
sg56
(lp422
g49
(g58
g51
NtRp423
(dp424
g54
(dp425
g62
I3
ssg63
Nsg56
(lp426
g49
(g65
g51
NtRp427
(dp428
g54
(dp429
sg63
g423
sg56
(lp430
g49
(g70
g51
NtRp431
(dp432
g54
(dp433
g74
g75
ssg63
g427
sg56
(lp434
g263
asbag49
(g70
g51
NtRp435
(dp436
g54
(dp437
g81
g82
ssg63
g427
sg56
(lp438
S':'
asbag49
(g70
g51
NtRp439
(dp440
g54
(dp441
sg63
g427
sg56
(lp442
g49
(g50
g51
NtRp443
(dp444
g54
(dp445
g62
I3
ssg63
g439
sg56
(lp446
S''
asbasbasbag49
(g65
g51
NtRp447
(dp448
g54
(dp449
sg63
g423
sg56
(lp450
g49
(g70
g51
NtRp451
(dp452
g54
(dp453
g74
g75
ssg63
g447
sg56
(lp454
g284
asbag49
(g70
g51
NtRp455
(dp456
g54
(dp457
g81
g82
ssg63
g447
sg56
(lp458
S':'
asbag49
(g70
g51
NtRp459
(dp460
g54
(dp461
sg63
g447
sg56
(lp462
g49
(g50
g51
NtRp463
(dp464
g54
(dp465
g62
I3
ssg63
g459
sg56
(lp466
S''
asbasbasbag49
(g65
g51
NtRp467
(dp468
g54
(dp469
sg63
g423
sg56
(lp470
g49
(g70
g51
NtRp471
(dp472
g54
(dp473
g74
g75
ssg63
g467
sg56
(lp474
g305
asbag49
(g70
g51
NtRp475
(dp476
g54
(dp477
g81
g82
ssg63
g467
sg56
(lp478
S':'
asbag49
(g70
g51
NtRp479
(dp480
g54
(dp481
sg63
g467
sg56
(lp482
g49
(g50
g51
NtRp483
(dp484
g54
(dp485
g62
I3
ssg63
g479
sg56
(lp486
S''
asbasbasbag49
(g65
g51
NtRp487
(dp488
g54
(dp489
sg63
g423
sg56
(lp490
g49
(g70
g51
NtRp491
(dp492
g54
(dp493
g74
g75
ssg63
g487
sg56
(lp494
g326
asbag49
(g70
g51
NtRp495
(dp496
g54
(dp497
g81
g82
ssg63
g487
sg56
(lp498
S':'
asbag49
(g70
g51
NtRp499
(dp500
g54
(dp501
sg63
g487
sg56
(lp502
g49
(g50
g51
NtRp503
(dp504
g54
(dp505
g62
I3
ssg63
g499
sg56
(lp506
S''
asbasbasbag49
(g65
g51
NtRp507
(dp508
g54
(dp509
sg63
g423
sg56
(lp510
g49
(g70
g51
NtRp511
(dp512
g54
(dp513
g74
g75
ssg63
g507
sg56
(lp514
g347
asbag49
(g70
g51
NtRp515
(dp516
g54
(dp517
g81
g82
ssg63
g507
sg56
(lp518
S':'
asbag49
(g70
g51
NtRp519
(dp520
g54
(dp521
sg63
g507
sg56
(lp522
g49
(g50
g51
NtRp523
(dp524
g54
(dp525
g62
I3
ssg63
g519
sg56
(lp526
S''
asbasbasbag49
(g65
g51
NtRp527
(dp528
g54
(dp529
sg63
g423
sg56
(lp530
g49
(g70
g51
NtRp531
(dp532
g54
(dp533
g74
g75
ssg63
g527
sg56
(lp534
g368
asbag49
(g70
g51
NtRp535
(dp536
g54
(dp537
g81
g82
ssg63
g527
sg56
(lp538
S':'
asbag49
(g70
g51
NtRp539
(dp540
g54
(dp541
sg63
g527
sg56
(lp542
g49
(g50
g51
NtRp543
(dp544
g54
(dp545
g62
I3
ssg63
g539
sg56
(lp546
S''
asbasbasbag49
(g65
g51
NtRp547
(dp548
g54
(dp549
sg63
g423
sg56
(lp550
g49
(g70
g51
NtRp551
(dp552
g54
(dp553
g74
g75
ssg63
g547
sg56
(lp554
g389
asbag49
(g70
g51
NtRp555
(dp556
g54
(dp557
g81
g82
ssg63
g547
sg56
(lp558
S':'
asbag49
(g70
g51
NtRp559
(dp560
g54
(dp561
sg63
g547
sg56
(lp562
g49
(g50
g51
NtRp563
(dp564
g54
(dp565
g62
I3
ssg63
g559
sg56
(lp566
S''
asbasbasbasbasbasbasbasbasbasbasbag49
(g65
g51
NtRp567
(dp568
g54
(dp569
sg63
g59
sg56
(lp570
g49
(g70
g51
NtRp571
(dp572
g54
(dp573
g74
g75
ssg63
g567
sg56
(lp574
S'env'
p575
asbag49
(g70
g51
NtRp576
(dp577
g54
(dp578
g81
g82
ssg63
g567
sg56
(lp579
S':'
asbag49
(g70
g51
NtRp580
(dp581
g54
(dp582
sg63
g567
sg56
(lp583
g49
(g50
g51
NtRp584
(dp585
g54
(dp586
g62
I5
ssg63
g580
sg56
(lp587
g49
(g58
g51
NtRp588
(dp589
g54
(dp590
g62
I4
ssg63
Nsg56
(lp591
g49
(g65
g51
NtRp592
(dp593
g54
(dp594
sg63
g588
sg56
(lp595
g49
(g70
g51
NtRp596
(dp597
g54
(dp598
g74
g75
ssg63
g592
sg56
(lp599
S'app_folders'
p600
asbag49
(g70
g51
NtRp601
(dp602
g54
(dp603
g81
g82
ssg63
g592
sg56
(lp604
S':'
asbag49
(g70
g51
NtRp605
(dp606
g54
(dp607
sg63
g592
sg56
(lp608
g49
(g50
g51
NtRp609
(dp610
g54
(dp611
g62
I4
ssg63
g605
sg56
(lp612
S"set(['/Users/udimilo/Documents/web2py/applications/udi0312/', '/Users/udimilo/Documents/web2py/applications/admin/'])"
p613
asbasbasbag49
(g65
g51
NtRp614
(dp615
g54
(dp616
sg63
g588
sg56
(lp617
g49
(g70
g51
NtRp618
(dp619
g54
(dp620
g74
g75
ssg63
g614
sg56
(lp621
S'applications_parent'
p622
asbag49
(g70
g51
NtRp623
(dp624
g54
(dp625
g81
g82
ssg63
g614
sg56
(lp626
S':'
asbag49
(g70
g51
NtRp627
(dp628
g54
(dp629
sg63
g614
sg56
(lp630
g49
(g50
g51
NtRp631
(dp632
g54
(dp633
g62
I4
ssg63
g627
sg56
(lp634
S'/Users/udimilo/Documents/web2py'
p635
asbasbasbag49
(g65
g51
NtRp636
(dp637
g54
(dp638
sg63
g588
sg56
(lp639
g49
(g70
g51
NtRp640
(dp641
g54
(dp642
g74
g75
ssg63
g636
sg56
(lp643
S'cmd_args'
p644
asbag49
(g70
g51
NtRp645
(dp646
g54
(dp647
g81
g82
ssg63
g636
sg56
(lp648
S':'
asbag49
(g70
g51
NtRp649
(dp650
g54
(dp651
sg63
g636
sg56
(lp652
g49
(g50
g51
NtRp653
(dp654
g54
(dp655
g62
I4
ssg63
g649
sg56
(lp656
g49
(g58
g51
NtRp657
(dp658
g54
(dp659
g62
I3
ssg63
Nsg56
(lp660
sbasbasbasbag49
(g65
g51
NtRp661
(dp662
g54
(dp663
sg63
g588
sg56
(lp664
g49
(g70
g51
NtRp665
(dp666
g54
(dp667
g74
g75
ssg63
g661
sg56
(lp668
S'cmd_options'
p669
asbag49
(g70
g51
NtRp670
(dp671
g54
(dp672
g81
g82
ssg63
g661
sg56
(lp673
S':'
asbag49
(g70
g51
NtRp674
(dp675
g54
(dp676
sg63
g661
sg56
(lp677
g49
(g50
g51
NtRp678
(dp679
g54
(dp680
g62
I4
ssg63
g674
sg56
(lp681
S"<Values at 0x23196e8: {'verbose': False, 'ip': '127.0.0.1', 'shutdown_timeout': 5, 'taskbar': False, 'nocron': False, 'pid_filename': 'httpserver.pid', 'maxthreads': None, 'softcron': False, 'server_name': 'Udi-Milos-MacBook-Pro.local', 'bpython': False, 'nogui': False, 'port': 8000, 'extcron': False, 'debuglevel': 30, 'test': None, 'folder': '/Users/udimilo/Documents/web2py', 'config': '', 'import_models': False, 'winservice': '', 'shell': None, 'run': '', 'log_filename': 'httpserver.log', 'args': [''], 'socket_timeout': 5, 'ssl_ca_certificate': None, 'scheduler': None, 'profiler_filename': None, 'ssl_private_key': '', 'password': '<ask>', 'request_queue_size': 5, 'ssl_certificate': '', 'cronjob': False, 'numthreads': None, 'quiet': False, 'interfaces': None, 'minthreads': None, 'timeout': 10, 'plain': False, 'nobanner': False}>"
p682
asbasbasbag49
(g65
g51
NtRp683
(dp684
g54
(dp685
sg63
g588
sg56
(lp686
g49
(g70
g51
NtRp687
(dp688
g54
(dp689
g74
g75
ssg63
g683
sg56
(lp690
S'db_sessions'
p691
asbag49
(g70
g51
NtRp692
(dp693
g54
(dp694
g81
g82
ssg63
g683
sg56
(lp695
S':'
asbag49
(g70
g51
NtRp696
(dp697
g54
(dp698
sg63
g683
sg56
(lp699
g49
(g50
g51
NtRp700
(dp701
g54
(dp702
g62
I4
ssg63
g696
sg56
(lp703
S'set([])'
p704
asbasbasbag49
(g65
g51
NtRp705
(dp706
g54
(dp707
sg63
g588
sg56
(lp708
g49
(g70
g51
NtRp709
(dp710
g54
(dp711
g74
g75
ssg63
g705
sg56
(lp712
S'debugging'
p713
asbag49
(g70
g51
NtRp714
(dp715
g54
(dp716
g81
g82
ssg63
g705
sg56
(lp717
S':'
asbag49
(g70
g51
NtRp718
(dp719
g54
(dp720
sg63
g705
sg56
(lp721
g49
(g50
g51
NtRp722
(dp723
g54
(dp724
g62
I4
ssg63
g718
sg56
(lp725
g92
asbasbasbag49
(g65
g51
NtRp726
(dp727
g54
(dp728
sg63
g588
sg56
(lp729
g49
(g70
g51
NtRp730
(dp731
g54
(dp732
g74
g75
ssg63
g726
sg56
(lp733
S'gluon_parent'
p734
asbag49
(g70
g51
NtRp735
(dp736
g54
(dp737
g81
g82
ssg63
g726
sg56
(lp738
S':'
asbag49
(g70
g51
NtRp739
(dp740
g54
(dp741
sg63
g726
sg56
(lp742
g49
(g50
g51
NtRp743
(dp744
g54
(dp745
g62
I4
ssg63
g739
sg56
(lp746
S'/Users/udimilo/Documents/web2py'
p747
asbasbasbag49
(g65
g51
NtRp748
(dp749
g54
(dp750
sg63
g588
sg56
(lp751
g49
(g70
g51
NtRp752
(dp753
g54
(dp754
g74
g75
ssg63
g748
sg56
(lp755
S'http_accept'
p756
asbag49
(g70
g51
NtRp757
(dp758
g54
(dp759
g81
g82
ssg63
g748
sg56
(lp760
S':'
asbag49
(g70
g51
NtRp761
(dp762
g54
(dp763
sg63
g748
sg56
(lp764
g49
(g50
g51
NtRp765
(dp766
g54
(dp767
g62
I4
ssg63
g761
sg56
(lp768
S'text/html,application/xhtml+xml,application/xml;q=0.9,*/*;q=0.8'
p769
asbasbasbag49
(g65
g51
NtRp770
(dp771
g54
(dp772
sg63
g588
sg56
(lp773
g49
(g70
g51
NtRp774
(dp775
g54
(dp776
g74
g75
ssg63
g770
sg56
(lp777
S'http_accept_charset'
p778
asbag49
(g70
g51
NtRp779
(dp780
g54
(dp781
g81
g82
ssg63
g770
sg56
(lp782
S':'
asbag49
(g70
g51
NtRp783
(dp784
g54
(dp785
sg63
g770
sg56
(lp786
g49
(g50
g51
NtRp787
(dp788
g54
(dp789
g62
I4
ssg63
g783
sg56
(lp790
S'ISO-8859-1,utf-8;q=0.7,*;q=0.3'
p791
asbasbasbag49
(g65
g51
NtRp792
(dp793
g54
(dp794
sg63
g588
sg56
(lp795
g49
(g70
g51
NtRp796
(dp797
g54
(dp798
g74
g75
ssg63
g792
sg56
(lp799
S'http_accept_encoding'
p800
asbag49
(g70
g51
NtRp801
(dp802
g54
(dp803
g81
g82
ssg63
g792
sg56
(lp804
S':'
asbag49
(g70
g51
NtRp805
(dp806
g54
(dp807
sg63
g792
sg56
(lp808
g49
(g50
g51
NtRp809
(dp810
g54
(dp811
g62
I4
ssg63
g805
sg56
(lp812
S'gzip,deflate,sdch'
p813
asbasbasbag49
(g65
g51
NtRp814
(dp815
g54
(dp816
sg63
g588
sg56
(lp817
g49
(g70
g51
NtRp818
(dp819
g54
(dp820
g74
g75
ssg63
g814
sg56
(lp821
S'http_accept_language'
p822
asbag49
(g70
g51
NtRp823
(dp824
g54
(dp825
g81
g82
ssg63
g814
sg56
(lp826
S':'
asbag49
(g70
g51
NtRp827
(dp828
g54
(dp829
sg63
g814
sg56
(lp830
g49
(g50
g51
NtRp831
(dp832
g54
(dp833
g62
I4
ssg63
g827
sg56
(lp834
S'en-US,en;q=0.8'
p835
asbasbasbag49
(g65
g51
NtRp836
(dp837
g54
(dp838
sg63
g588
sg56
(lp839
g49
(g70
g51
NtRp840
(dp841
g54
(dp842
g74
g75
ssg63
g836
sg56
(lp843
S'http_connection'
p844
asbag49
(g70
g51
NtRp845
(dp846
g54
(dp847
g81
g82
ssg63
g836
sg56
(lp848
S':'
asbag49
(g70
g51
NtRp849
(dp850
g54
(dp851
sg63
g836
sg56
(lp852
g49
(g50
g51
NtRp853
(dp854
g54
(dp855
g62
I4
ssg63
g849
sg56
(lp856
S'keep-alive'
p857
asbasbasbag49
(g65
g51
NtRp858
(dp859
g54
(dp860
sg63
g588
sg56
(lp861
g49
(g70
g51
NtRp862
(dp863
g54
(dp864
g74
g75
ssg63
g858
sg56
(lp865
S'http_cookie'
p866
asbag49
(g70
g51
NtRp867
(dp868
g54
(dp869
g81
g82
ssg63
g858
sg56
(lp870
S':'
asbag49
(g70
g51
NtRp871
(dp872
g54
(dp873
sg63
g858
sg56
(lp874
g49
(g50
g51
NtRp875
(dp876
g54
(dp877
g62
I4
ssg63
g871
sg56
(lp878
S'session_id_admin=127.0.0.1-7d9ebda9-b7be-4a8a-aac8-4500b111b0fa; session_id_udi0312=127.0.0.1-fcd6a577-d448-4882-b7bc-f353da84ba3b'
p879
asbasbasbag49
(g65
g51
NtRp880
(dp881
g54
(dp882
sg63
g588
sg56
(lp883
g49
(g70
g51
NtRp884
(dp885
g54
(dp886
g74
g75
ssg63
g880
sg56
(lp887
S'http_host'
p888
asbag49
(g70
g51
NtRp889
(dp890
g54
(dp891
g81
g82
ssg63
g880
sg56
(lp892
S':'
asbag49
(g70
g51
NtRp893
(dp894
g54
(dp895
sg63
g880
sg56
(lp896
g49
(g50
g51
NtRp897
(dp898
g54
(dp899
g62
I4
ssg63
g893
sg56
(lp900
S'127.0.0.1:8000'
p901
asbasbasbag49
(g65
g51
NtRp902
(dp903
g54
(dp904
sg63
g588
sg56
(lp905
g49
(g70
g51
NtRp906
(dp907
g54
(dp908
g74
g75
ssg63
g902
sg56
(lp909
S'http_user_agent'
p910
asbag49
(g70
g51
NtRp911
(dp912
g54
(dp913
g81
g82
ssg63
g902
sg56
(lp914
S':'
asbag49
(g70
g51
NtRp915
(dp916
g54
(dp917
sg63
g902
sg56
(lp918
g49
(g50
g51
NtRp919
(dp920
g54
(dp921
g62
I4
ssg63
g915
sg56
(lp922
S'Mozilla/5.0 (Macintosh; Intel Mac OS X 10_7_3) AppleWebKit/535.11 (KHTML, like Gecko) Chrome/17.0.963.79 Safari/535.11'
p923
asbasbasbag49
(g65
g51
NtRp924
(dp925
g54
(dp926
sg63
g588
sg56
(lp927
g49
(g70
g51
NtRp928
(dp929
g54
(dp930
g74
g75
ssg63
g924
sg56
(lp931
S'is_jython'
p932
asbag49
(g70
g51
NtRp933
(dp934
g54
(dp935
g81
g82
ssg63
g924
sg56
(lp936
S':'
asbag49
(g70
g51
NtRp937
(dp938
g54
(dp939
sg63
g924
sg56
(lp940
g49
(g50
g51
NtRp941
(dp942
g54
(dp943
g62
I4
ssg63
g937
sg56
(lp944
g92
asbasbasbag49
(g65
g51
NtRp945
(dp946
g54
(dp947
sg63
g588
sg56
(lp948
g49
(g70
g51
NtRp949
(dp950
g54
(dp951
g74
g75
ssg63
g945
sg56
(lp952
S'is_pypy'
p953
asbag49
(g70
g51
NtRp954
(dp955
g54
(dp956
g81
g82
ssg63
g945
sg56
(lp957
S':'
asbag49
(g70
g51
NtRp958
(dp959
g54
(dp960
sg63
g945
sg56
(lp961
g49
(g50
g51
NtRp962
(dp963
g54
(dp964
g62
I4
ssg63
g958
sg56
(lp965
g92
asbasbasbag49
(g65
g51
NtRp966
(dp967
g54
(dp968
sg63
g588
sg56
(lp969
g49
(g70
g51
NtRp970
(dp971
g54
(dp972
g74
g75
ssg63
g966
sg56
(lp973
S'path_info'
p974
asbag49
(g70
g51
NtRp975
(dp976
g54
(dp977
g81
g82
ssg63
g966
sg56
(lp978
S':'
asbag49
(g70
g51
NtRp979
(dp980
g54
(dp981
sg63
g966
sg56
(lp982
g49
(g50
g51
NtRp983
(dp984
g54
(dp985
g62
I4
ssg63
g979
sg56
(lp986
S'/boards'
p987
asbasbasbag49
(g65
g51
NtRp988
(dp989
g54
(dp990
sg63
g588
sg56
(lp991
g49
(g70
g51
NtRp992
(dp993
g54
(dp994
g74
g75
ssg63
g988
sg56
(lp995
S'query_string'
p996
asbag49
(g70
g51
NtRp997
(dp998
g54
(dp999
g81
g82
ssg63
g988
sg56
(lp1000
S':'
asbag49
(g70
g51
NtRp1001
(dp1002
g54
(dp1003
sg63
g988
sg56
(lp1004
g49
(g50
g51
NtRp1005
(dp1006
g54
(dp1007
g62
I4
ssg63
g1001
sg56
(lp1008
S''
asbasbasbag49
(g65
g51
NtRp1009
(dp1010
g54
(dp1011
sg63
g588
sg56
(lp1012
g49
(g70
g51
NtRp1013
(dp1014
g54
(dp1015
g74
g75
ssg63
g1009
sg56
(lp1016
S'remote_addr'
p1017
asbag49
(g70
g51
NtRp1018
(dp1019
g54
(dp1020
g81
g82
ssg63
g1009
sg56
(lp1021
S':'
asbag49
(g70
g51
NtRp1022
(dp1023
g54
(dp1024
sg63
g1009
sg56
(lp1025
g49
(g50
g51
NtRp1026
(dp1027
g54
(dp1028
g62
I4
ssg63
g1022
sg56
(lp1029
g182
asbasbasbag49
(g65
g51
NtRp1030
(dp1031
g54
(dp1032
sg63
g588
sg56
(lp1033
g49
(g70
g51
NtRp1034
(dp1035
g54
(dp1036
g74
g75
ssg63
g1030
sg56
(lp1037
S'remote_port'
p1038
asbag49
(g70
g51
NtRp1039
(dp1040
g54
(dp1041
g81
g82
ssg63
g1030
sg56
(lp1042
S':'
asbag49
(g70
g51
NtRp1043
(dp1044
g54
(dp1045
sg63
g1030
sg56
(lp1046
g49
(g50
g51
NtRp1047
(dp1048
g54
(dp1049
g62
I4
ssg63
g1043
sg56
(lp1050
S'59499'
p1051
asbasbasbag49
(g65
g51
NtRp1052
(dp1053
g54
(dp1054
sg63
g588
sg56
(lp1055
g49
(g70
g51
NtRp1056
(dp1057
g54
(dp1058
g74
g75
ssg63
g1052
sg56
(lp1059
S'request_method'
p1060
asbag49
(g70
g51
NtRp1061
(dp1062
g54
(dp1063
g81
g82
ssg63
g1052
sg56
(lp1064
S':'
asbag49
(g70
g51
NtRp1065
(dp1066
g54
(dp1067
sg63
g1052
sg56
(lp1068
g49
(g50
g51
NtRp1069
(dp1070
g54
(dp1071
g62
I4
ssg63
g1065
sg56
(lp1072
S'GET'
p1073
asbasbasbag49
(g65
g51
NtRp1074
(dp1075
g54
(dp1076
sg63
g588
sg56
(lp1077
g49
(g70
g51
NtRp1078
(dp1079
g54
(dp1080
g74
g75
ssg63
g1074
sg56
(lp1081
S'request_uri'
p1082
asbag49
(g70
g51
NtRp1083
(dp1084
g54
(dp1085
g81
g82
ssg63
g1074
sg56
(lp1086
S':'
asbag49
(g70
g51
NtRp1087
(dp1088
g54
(dp1089
sg63
g1074
sg56
(lp1090
g49
(g50
g51
NtRp1091
(dp1092
g54
(dp1093
g62
I4
ssg63
g1087
sg56
(lp1094
S'/udi0312/boards/index'
p1095
asbasbasbag49
(g65
g51
NtRp1096
(dp1097
g54
(dp1098
sg63
g588
sg56
(lp1099
g49
(g70
g51
NtRp1100
(dp1101
g54
(dp1102
g74
g75
ssg63
g1096
sg56
(lp1103
S'script_name'
p1104
asbag49
(g70
g51
NtRp1105
(dp1106
g54
(dp1107
g81
g82
ssg63
g1096
sg56
(lp1108
S':'
asbag49
(g70
g51
NtRp1109
(dp1110
g54
(dp1111
sg63
g1096
sg56
(lp1112
g49
(g50
g51
NtRp1113
(dp1114
g54
(dp1115
g62
I4
ssg63
g1109
sg56
(lp1116
S''
asbasbasbag49
(g65
g51
NtRp1117
(dp1118
g54
(dp1119
sg63
g588
sg56
(lp1120
g49
(g70
g51
NtRp1121
(dp1122
g54
(dp1123
g74
g75
ssg63
g1117
sg56
(lp1124
S'server_name'
p1125
asbag49
(g70
g51
NtRp1126
(dp1127
g54
(dp1128
g81
g82
ssg63
g1117
sg56
(lp1129
S':'
asbag49
(g70
g51
NtRp1130
(dp1131
g54
(dp1132
sg63
g1117
sg56
(lp1133
g49
(g50
g51
NtRp1134
(dp1135
g54
(dp1136
g62
I4
ssg63
g1130
sg56
(lp1137
S'Udi-Milos-MacBook-Pro.local'
p1138
asbasbasbag49
(g65
g51
NtRp1139
(dp1140
g54
(dp1141
sg63
g588
sg56
(lp1142
g49
(g70
g51
NtRp1143
(dp1144
g54
(dp1145
g74
g75
ssg63
g1139
sg56
(lp1146
S'server_port'
p1147
asbag49
(g70
g51
NtRp1148
(dp1149
g54
(dp1150
g81
g82
ssg63
g1139
sg56
(lp1151
S':'
asbag49
(g70
g51
NtRp1152
(dp1153
g54
(dp1154
sg63
g1139
sg56
(lp1155
g49
(g50
g51
NtRp1156
(dp1157
g54
(dp1158
g62
I4
ssg63
g1152
sg56
(lp1159
S'8000'
p1160
asbasbasbag49
(g65
g51
NtRp1161
(dp1162
g54
(dp1163
sg63
g588
sg56
(lp1164
g49
(g70
g51
NtRp1165
(dp1166
g54
(dp1167
g74
g75
ssg63
g1161
sg56
(lp1168
S'server_protocol'
p1169
asbag49
(g70
g51
NtRp1170
(dp1171
g54
(dp1172
g81
g82
ssg63
g1161
sg56
(lp1173
S':'
asbag49
(g70
g51
NtRp1174
(dp1175
g54
(dp1176
sg63
g1161
sg56
(lp1177
g49
(g50
g51
NtRp1178
(dp1179
g54
(dp1180
g62
I4
ssg63
g1174
sg56
(lp1181
S'HTTP/1.1'
p1182
asbasbasbag49
(g65
g51
NtRp1183
(dp1184
g54
(dp1185
sg63
g588
sg56
(lp1186
g49
(g70
g51
NtRp1187
(dp1188
g54
(dp1189
g74
g75
ssg63
g1183
sg56
(lp1190
S'server_software'
p1191
asbag49
(g70
g51
NtRp1192
(dp1193
g54
(dp1194
g81
g82
ssg63
g1183
sg56
(lp1195
S':'
asbag49
(g70
g51
NtRp1196
(dp1197
g54
(dp1198
sg63
g1183
sg56
(lp1199
g49
(g50
g51
NtRp1200
(dp1201
g54
(dp1202
g62
I4
ssg63
g1196
sg56
(lp1203
S'Rocket 1.2.4'
p1204
asbasbasbag49
(g65
g51
NtRp1205
(dp1206
g54
(dp1207
sg63
g588
sg56
(lp1208
g49
(g70
g51
NtRp1209
(dp1210
g54
(dp1211
g74
g75
ssg63
g1205
sg56
(lp1212
S'web2py_crontype'
p1213
asbag49
(g70
g51
NtRp1214
(dp1215
g54
(dp1216
g81
g82
ssg63
g1205
sg56
(lp1217
S':'
asbag49
(g70
g51
NtRp1218
(dp1219
g54
(dp1220
sg63
g1205
sg56
(lp1221
g49
(g50
g51
NtRp1222
(dp1223
g54
(dp1224
g62
I4
ssg63
g1218
sg56
(lp1225
S'hard'
p1226
asbasbasbag49
(g65
g51
NtRp1227
(dp1228
g54
(dp1229
sg63
g588
sg56
(lp1230
g49
(g70
g51
NtRp1231
(dp1232
g54
(dp1233
g74
g75
ssg63
g1227
sg56
(lp1234
S'web2py_original_uri'
p1235
asbag49
(g70
g51
NtRp1236
(dp1237
g54
(dp1238
g81
g82
ssg63
g1227
sg56
(lp1239
S':'
asbag49
(g70
g51
NtRp1240
(dp1241
g54
(dp1242
sg63
g1227
sg56
(lp1243
g49
(g50
g51
NtRp1244
(dp1245
g54
(dp1246
g62
I4
ssg63
g1240
sg56
(lp1247
g987
asbasbasbag49
(g65
g51
NtRp1248
(dp1249
g54
(dp1250
sg63
g588
sg56
(lp1251
g49
(g70
g51
NtRp1252
(dp1253
g54
(dp1254
g74
g75
ssg63
g1248
sg56
(lp1255
S'web2py_path'
p1256
asbag49
(g70
g51
NtRp1257
(dp1258
g54
(dp1259
g81
g82
ssg63
g1248
sg56
(lp1260
S':'
asbag49
(g70
g51
NtRp1261
(dp1262
g54
(dp1263
sg63
g1248
sg56
(lp1264
g49
(g50
g51
NtRp1265
(dp1266
g54
(dp1267
g62
I4
ssg63
g1261
sg56
(lp1268
g635
asbasbasbag49
(g65
g51
NtRp1269
(dp1270
g54
(dp1271
sg63
g588
sg56
(lp1272
g49
(g70
g51
NtRp1273
(dp1274
g54
(dp1275
g74
g75
ssg63
g1269
sg56
(lp1276
S'web2py_version'
p1277
asbag49
(g70
g51
NtRp1278
(dp1279
g54
(dp1280
g81
g82
ssg63
g1269
sg56
(lp1281
S':'
asbag49
(g70
g51
NtRp1282
(dp1283
g54
(dp1284
sg63
g1269
sg56
(lp1285
g49
(g50
g51
NtRp1286
(dp1287
g54
(dp1288
g62
I4
ssg63
g1282
sg56
(lp1289
g49
(g58
g51
NtRp1290
(dp1291
g54
(dp1292
g62
I3
ssg63
Nsg56
(lp1293
g49
(g65
g51
NtRp1294
(dp1295
g54
(dp1296
sg63
g1290
sg56
(lp1297
g49
(g70
g51
NtRp1298
(dp1299
g54
(dp1300
sg63
g1294
sg56
(lp1301
g49
(g50
g51
NtRp1302
(dp1303
g54
(dp1304
g62
I3
ssg63
g1298
sg56
(lp1305
S'1'
asbasbasbag49
(g65
g51
NtRp1306
(dp1307
g54
(dp1308
sg63
g1290
sg56
(lp1309
g49
(g70
g51
NtRp1310
(dp1311
g54
(dp1312
sg63
g1306
sg56
(lp1313
g49
(g50
g51
NtRp1314
(dp1315
g54
(dp1316
g62
I3
ssg63
g1310
sg56
(lp1317
S'99'
p1318
asbasbasbag49
(g65
g51
NtRp1319
(dp1320
g54
(dp1321
sg63
g1290
sg56
(lp1322
g49
(g70
g51
NtRp1323
(dp1324
g54
(dp1325
sg63
g1319
sg56
(lp1326
g49
(g50
g51
NtRp1327
(dp1328
g54
(dp1329
g62
I3
ssg63
g1323
sg56
(lp1330
S'7'
asbasbasbag49
(g65
g51
NtRp1331
(dp1332
g54
(dp1333
sg63
g1290
sg56
(lp1334
g49
(g70
g51
NtRp1335
(dp1336
g54
(dp1337
sg63
g1331
sg56
(lp1338
g49
(g50
g51
NtRp1339
(dp1340
g54
(dp1341
g62
I3
ssg63
g1335
sg56
(lp1342
S'datetime.datetime(2012, 3, 4, 22, 12, 8)'
p1343
asbasbasbag49
(g65
g51
NtRp1344
(dp1345
g54
(dp1346
sg63
g1290
sg56
(lp1347
g49
(g70
g51
NtRp1348
(dp1349
g54
(dp1350
sg63
g1344
sg56
(lp1351
g49
(g50
g51
NtRp1352
(dp1353
g54
(dp1354
g62
I3
ssg63
g1348
sg56
(lp1355
S'stable'
p1356
asbasbasbasbasbasbasbag49
(g65
g51
NtRp1357
(dp1358
g54
(dp1359
sg63
g588
sg56
(lp1360
g49
(g70
g51
NtRp1361
(dp1362
g54
(dp1363
g74
g75
ssg63
g1357
sg56
(lp1364
S'wsgi_errors'
p1365
asbag49
(g70
g51
NtRp1366
(dp1367
g54
(dp1368
g81
g82
ssg63
g1357
sg56
(lp1369
S':'
asbag49
(g70
g51
NtRp1370
(dp1371
g54
(dp1372
sg63
g1357
sg56
(lp1373
g49
(g50
g51
NtRp1374
(dp1375
g54
(dp1376
g62
I4
ssg63
g1370
sg56
(lp1377
S"<open file '<stderr>', mode 'w' at 0x4220b0>"
p1378
asbasbasbag49
(g65
g51
NtRp1379
(dp1380
g54
(dp1381
sg63
g588
sg56
(lp1382
g49
(g70
g51
NtRp1383
(dp1384
g54
(dp1385
g74
g75
ssg63
g1379
sg56
(lp1386
S'wsgi_file_wrapper'
p1387
asbag49
(g70
g51
NtRp1388
(dp1389
g54
(dp1390
g81
g82
ssg63
g1379
sg56
(lp1391
S':'
asbag49
(g70
g51
NtRp1392
(dp1393
g54
(dp1394
sg63
g1379
sg56
(lp1395
g49
(g50
g51
NtRp1396
(dp1397
g54
(dp1398
g62
I4
ssg63
g1392
sg56
(lp1399
S'<class wsgiref.util.FileWrapper at 0x225e6c0>'
p1400
asbasbasbag49
(g65
g51
NtRp1401
(dp1402
g54
(dp1403
sg63
g588
sg56
(lp1404
g49
(g70
g51
NtRp1405
(dp1406
g54
(dp1407
g74
g75
ssg63
g1401
sg56
(lp1408
S'wsgi_input'
p1409
asbag49
(g70
g51
NtRp1410
(dp1411
g54
(dp1412
g81
g82
ssg63
g1401
sg56
(lp1413
S':'
asbag49
(g70
g51
NtRp1414
(dp1415
g54
(dp1416
sg63
g1401
sg56
(lp1417
g49
(g50
g51
NtRp1418
(dp1419
g54
(dp1420
g62
I4
ssg63
g1414
sg56
(lp1421
S'<socket._fileobject object at 0xa8f05b0>'
p1422
asbasbasbag49
(g65
g51
NtRp1423
(dp1424
g54
(dp1425
sg63
g588
sg56
(lp1426
g49
(g70
g51
NtRp1427
(dp1428
g54
(dp1429
g74
g75
ssg63
g1423
sg56
(lp1430
S'wsgi_multiprocess'
p1431
asbag49
(g70
g51
NtRp1432
(dp1433
g54
(dp1434
g81
g82
ssg63
g1423
sg56
(lp1435
S':'
asbag49
(g70
g51
NtRp1436
(dp1437
g54
(dp1438
sg63
g1423
sg56
(lp1439
g49
(g50
g51
NtRp1440
(dp1441
g54
(dp1442
g62
I4
ssg63
g1436
sg56
(lp1443
g92
asbasbasbag49
(g65
g51
NtRp1444
(dp1445
g54
(dp1446
sg63
g588
sg56
(lp1447
g49
(g70
g51
NtRp1448
(dp1449
g54
(dp1450
g74
g75
ssg63
g1444
sg56
(lp1451
S'wsgi_multithread'
p1452
asbag49
(g70
g51
NtRp1453
(dp1454
g54
(dp1455
g81
g82
ssg63
g1444
sg56
(lp1456
S':'
asbag49
(g70
g51
NtRp1457
(dp1458
g54
(dp1459
sg63
g1444
sg56
(lp1460
g49
(g50
g51
NtRp1461
(dp1462
g54
(dp1463
g62
I4
ssg63
g1457
sg56
(lp1464
S'True'
p1465
asbasbasbag49
(g65
g51
NtRp1466
(dp1467
g54
(dp1468
sg63
g588
sg56
(lp1469
g49
(g70
g51
NtRp1470
(dp1471
g54
(dp1472
g74
g75
ssg63
g1466
sg56
(lp1473
S'wsgi_run_once'
p1474
asbag49
(g70
g51
NtRp1475
(dp1476
g54
(dp1477
g81
g82
ssg63
g1466
sg56
(lp1478
S':'
asbag49
(g70
g51
NtRp1479
(dp1480
g54
(dp1481
sg63
g1466
sg56
(lp1482
g49
(g50
g51
NtRp1483
(dp1484
g54
(dp1485
g62
I4
ssg63
g1479
sg56
(lp1486
g92
asbasbasbag49
(g65
g51
NtRp1487
(dp1488
g54
(dp1489
sg63
g588
sg56
(lp1490
g49
(g70
g51
NtRp1491
(dp1492
g54
(dp1493
g74
g75
ssg63
g1487
sg56
(lp1494
S'wsgi_url_scheme'
p1495
asbag49
(g70
g51
NtRp1496
(dp1497
g54
(dp1498
g81
g82
ssg63
g1487
sg56
(lp1499
S':'
asbag49
(g70
g51
NtRp1500
(dp1501
g54
(dp1502
sg63
g1487
sg56
(lp1503
g49
(g50
g51
NtRp1504
(dp1505
g54
(dp1506
g62
I4
ssg63
g1500
sg56
(lp1507
S'http'
p1508
asbasbasbag49
(g65
g51
NtRp1509
(dp1510
g54
(dp1511
sg63
g588
sg56
(lp1512
g49
(g70
g51
NtRp1513
(dp1514
g54
(dp1515
g74
g75
ssg63
g1509
sg56
(lp1516
S'wsgi_version'
p1517
asbag49
(g70
g51
NtRp1518
(dp1519
g54
(dp1520
g81
g82
ssg63
g1509
sg56
(lp1521
S':'
asbag49
(g70
g51
NtRp1522
(dp1523
g54
(dp1524
sg63
g1509
sg56
(lp1525
g49
(g50
g51
NtRp1526
(dp1527
g54
(dp1528
g62
I4
ssg63
g1522
sg56
(lp1529
g49
(g58
g51
NtRp1530
(dp1531
g54
(dp1532
g62
I3
ssg63
Nsg56
(lp1533
g49
(g65
g51
NtRp1534
(dp1535
g54
(dp1536
sg63
g1530
sg56
(lp1537
g49
(g70
g51
NtRp1538
(dp1539
g54
(dp1540
sg63
g1534
sg56
(lp1541
g49
(g50
g51
NtRp1542
(dp1543
g54
(dp1544
g62
I3
ssg63
g1538
sg56
(lp1545
S'1'
asbasbasbag49
(g65
g51
NtRp1546
(dp1547
g54
(dp1548
sg63
g1530
sg56
(lp1549
g49
(g70
g51
NtRp1550
(dp1551
g54
(dp1552
sg63
g1546
sg56
(lp1553
g49
(g50
g51
NtRp1554
(dp1555
g54
(dp1556
g62
I3
ssg63
g1550
sg56
(lp1557
S'0'
asbasbasbasbasbasbasbasbasbasbasbag49
(g65
g51
NtRp1558
(dp1559
g54
(dp1560
sg63
g59
sg56
(lp1561
g49
(g70
g51
NtRp1562
(dp1563
g54
(dp1564
g74
g75
ssg63
g1558
sg56
(lp1565
S'extension'
p1566
asbag49
(g70
g51
NtRp1567
(dp1568
g54
(dp1569
g81
g82
ssg63
g1558
sg56
(lp1570
S':'
asbag49
(g70
g51
NtRp1571
(dp1572
g54
(dp1573
sg63
g1558
sg56
(lp1574
g49
(g50
g51
NtRp1575
(dp1576
g54
(dp1577
g62
I5
ssg63
g1571
sg56
(lp1578
S'html'
p1579
asbasbasbag49
(g65
g51
NtRp1580
(dp1581
g54
(dp1582
sg63
g59
sg56
(lp1583
g49
(g70
g51
NtRp1584
(dp1585
g54
(dp1586
g74
g75
ssg63
g1580
sg56
(lp1587
S'folder'
p1588
asbag49
(g70
g51
NtRp1589
(dp1590
g54
(dp1591
g81
g82
ssg63
g1580
sg56
(lp1592
S':'
asbag49
(g70
g51
NtRp1593
(dp1594
g54
(dp1595
sg63
g1580
sg56
(lp1596
g49
(g50
g51
NtRp1597
(dp1598
g54
(dp1599
g62
I5
ssg63
g1593
sg56
(lp1600
S'/Users/udimilo/Documents/web2py/applications/udi0312/'
p1601
asbasbasbag49
(g65
g51
NtRp1602
(dp1603
g54
(dp1604
sg63
g59
sg56
(lp1605
g49
(g70
g51
NtRp1606
(dp1607
g54
(dp1608
g74
g75
ssg63
g1602
sg56
(lp1609
S'function'
p1610
asbag49
(g70
g51
NtRp1611
(dp1612
g54
(dp1613
g81
g82
ssg63
g1602
sg56
(lp1614
S':'
asbag49
(g70
g51
NtRp1615
(dp1616
g54
(dp1617
sg63
g1602
sg56
(lp1618
g49
(g50
g51
NtRp1619
(dp1620
g54
(dp1621
g62
I5
ssg63
g1615
sg56
(lp1622
S'index'
p1623
asbasbasbag49
(g65
g51
NtRp1624
(dp1625
g54
(dp1626
sg63
g59
sg56
(lp1627
g49
(g70
g51
NtRp1628
(dp1629
g54
(dp1630
g74
g75
ssg63
g1624
sg56
(lp1631
S'get_vars'
p1632
asbag49
(g70
g51
NtRp1633
(dp1634
g54
(dp1635
g81
g82
ssg63
g1624
sg56
(lp1636
S':'
asbag49
(g70
g51
NtRp1637
(dp1638
g54
(dp1639
sg63
g1624
sg56
(lp1640
g49
(g50
g51
NtRp1641
(dp1642
g54
(dp1643
g62
I5
ssg63
g1637
sg56
(lp1644
g49
(g58
g51
NtRp1645
(dp1646
g54
(dp1647
g62
I4
ssg63
Nsg56
(lp1648
sbasbasbasbag49
(g65
g51
NtRp1649
(dp1650
g54
(dp1651
sg63
g59
sg56
(lp1652
g49
(g70
g51
NtRp1653
(dp1654
g54
(dp1655
g74
g75
ssg63
g1649
sg56
(lp1656
S'global_settings'
p1657
asbag49
(g70
g51
NtRp1658
(dp1659
g54
(dp1660
g81
g82
ssg63
g1649
sg56
(lp1661
S':'
asbag49
(g70
g51
NtRp1662
(dp1663
g54
(dp1664
sg63
g1649
sg56
(lp1665
g49
(g50
g51
NtRp1666
(dp1667
g54
(dp1668
g62
I5
ssg63
g1662
sg56
(lp1669
g49
(g58
g51
NtRp1670
(dp1671
g54
(dp1672
g62
I4
ssg63
Nsg56
(lp1673
g49
(g65
g51
NtRp1674
(dp1675
g54
(dp1676
sg63
g1670
sg56
(lp1677
g49
(g70
g51
NtRp1678
(dp1679
g54
(dp1680
g74
g75
ssg63
g1674
sg56
(lp1681
g600
asbag49
(g70
g51
NtRp1682
(dp1683
g54
(dp1684
g81
g82
ssg63
g1674
sg56
(lp1685
S':'
asbag49
(g70
g51
NtRp1686
(dp1687
g54
(dp1688
sg63
g1674
sg56
(lp1689
g49
(g50
g51
NtRp1690
(dp1691
g54
(dp1692
g62
I4
ssg63
g1686
sg56
(lp1693
S"set(['/Users/udimilo/Documents/web2py/applications/udi0312/', '/Users/udimilo/Documents/web2py/applications/admin/'])"
p1694
asbasbasbag49
(g65
g51
NtRp1695
(dp1696
g54
(dp1697
sg63
g1670
sg56
(lp1698
g49
(g70
g51
NtRp1699
(dp1700
g54
(dp1701
g74
g75
ssg63
g1695
sg56
(lp1702
g622
asbag49
(g70
g51
NtRp1703
(dp1704
g54
(dp1705
g81
g82
ssg63
g1695
sg56
(lp1706
S':'
asbag49
(g70
g51
NtRp1707
(dp1708
g54
(dp1709
sg63
g1695
sg56
(lp1710
g49
(g50
g51
NtRp1711
(dp1712
g54
(dp1713
g62
I4
ssg63
g1707
sg56
(lp1714
g635
asbasbasbag49
(g65
g51
NtRp1715
(dp1716
g54
(dp1717
sg63
g1670
sg56
(lp1718
g49
(g70
g51
NtRp1719
(dp1720
g54
(dp1721
g74
g75
ssg63
g1715
sg56
(lp1722
g644
asbag49
(g70
g51
NtRp1723
(dp1724
g54
(dp1725
g81
g82
ssg63
g1715
sg56
(lp1726
S':'
asbag49
(g70
g51
NtRp1727
(dp1728
g54
(dp1729
sg63
g1715
sg56
(lp1730
g49
(g50
g51
NtRp1731
(dp1732
g54
(dp1733
g62
I4
ssg63
g1727
sg56
(lp1734
g49
(g58
g51
NtRp1735
(dp1736
g54
(dp1737
g62
I3
ssg63
Nsg56
(lp1738
sbasbasbasbag49
(g65
g51
NtRp1739
(dp1740
g54
(dp1741
sg63
g1670
sg56
(lp1742
g49
(g70
g51
NtRp1743
(dp1744
g54
(dp1745
g74
g75
ssg63
g1739
sg56
(lp1746
g669
asbag49
(g70
g51
NtRp1747
(dp1748
g54
(dp1749
g81
g82
ssg63
g1739
sg56
(lp1750
S':'
asbag49
(g70
g51
NtRp1751
(dp1752
g54
(dp1753
sg63
g1739
sg56
(lp1754
g49
(g50
g51
NtRp1755
(dp1756
g54
(dp1757
g62
I4
ssg63
g1751
sg56
(lp1758
S"<Values at 0x23196e8: {'verbose': False, 'ip': '127.0.0.1', 'shutdown_timeout': 5, 'taskbar': False, 'nocron': False, 'pid_filename': 'httpserver.pid', 'maxthreads': None, 'softcron': False, 'server_name': 'Udi-Milos-MacBook-Pro.local', 'bpython': False, 'nogui': False, 'port': 8000, 'extcron': False, 'debuglevel': 30, 'test': None, 'folder': '/Users/udimilo/Documents/web2py', 'config': '', 'import_models': False, 'winservice': '', 'shell': None, 'run': '', 'log_filename': 'httpserver.log', 'args': [''], 'socket_timeout': 5, 'ssl_ca_certificate': None, 'scheduler': None, 'profiler_filename': None, 'ssl_private_key': '', 'password': '<ask>', 'request_queue_size': 5, 'ssl_certificate': '', 'cronjob': False, 'numthreads': None, 'quiet': False, 'interfaces': None, 'minthreads': None, 'timeout': 10, 'plain': False, 'nobanner': False}>"
p1759
asbasbasbag49
(g65
g51
NtRp1760
(dp1761
g54
(dp1762
sg63
g1670
sg56
(lp1763
g49
(g70
g51
NtRp1764
(dp1765
g54
(dp1766
g74
g75
ssg63
g1760
sg56
(lp1767
g691
asbag49
(g70
g51
NtRp1768
(dp1769
g54
(dp1770
g81
g82
ssg63
g1760
sg56
(lp1771
S':'
asbag49
(g70
g51
NtRp1772
(dp1773
g54
(dp1774
sg63
g1760
sg56
(lp1775
g49
(g50
g51
NtRp1776
(dp1777
g54
(dp1778
g62
I4
ssg63
g1772
sg56
(lp1779
S'set([])'
p1780
asbasbasbag49
(g65
g51
NtRp1781
(dp1782
g54
(dp1783
sg63
g1670
sg56
(lp1784
g49
(g70
g51
NtRp1785
(dp1786
g54
(dp1787
g74
g75
ssg63
g1781
sg56
(lp1788
g713
asbag49
(g70
g51
NtRp1789
(dp1790
g54
(dp1791
g81
g82
ssg63
g1781
sg56
(lp1792
S':'
asbag49
(g70
g51
NtRp1793
(dp1794
g54
(dp1795
sg63
g1781
sg56
(lp1796
g49
(g50
g51
NtRp1797
(dp1798
g54
(dp1799
g62
I4
ssg63
g1793
sg56
(lp1800
g92
asbasbasbag49
(g65
g51
NtRp1801
(dp1802
g54
(dp1803
sg63
g1670
sg56
(lp1804
g49
(g70
g51
NtRp1805
(dp1806
g54
(dp1807
g74
g75
ssg63
g1801
sg56
(lp1808
g734
asbag49
(g70
g51
NtRp1809
(dp1810
g54
(dp1811
g81
g82
ssg63
g1801
sg56
(lp1812
S':'
asbag49
(g70
g51
NtRp1813
(dp1814
g54
(dp1815
sg63
g1801
sg56
(lp1816
g49
(g50
g51
NtRp1817
(dp1818
g54
(dp1819
g62
I4
ssg63
g1813
sg56
(lp1820
g747
asbasbasbag49
(g65
g51
NtRp1821
(dp1822
g54
(dp1823
sg63
g1670
sg56
(lp1824
g49
(g70
g51
NtRp1825
(dp1826
g54
(dp1827
g74
g75
ssg63
g1821
sg56
(lp1828
g932
asbag49
(g70
g51
NtRp1829
(dp1830
g54
(dp1831
g81
g82
ssg63
g1821
sg56
(lp1832
S':'
asbag49
(g70
g51
NtRp1833
(dp1834
g54
(dp1835
sg63
g1821
sg56
(lp1836
g49
(g50
g51
NtRp1837
(dp1838
g54
(dp1839
g62
I4
ssg63
g1833
sg56
(lp1840
g92
asbasbasbag49
(g65
g51
NtRp1841
(dp1842
g54
(dp1843
sg63
g1670
sg56
(lp1844
g49
(g70
g51
NtRp1845
(dp1846
g54
(dp1847
g74
g75
ssg63
g1841
sg56
(lp1848
g953
asbag49
(g70
g51
NtRp1849
(dp1850
g54
(dp1851
g81
g82
ssg63
g1841
sg56
(lp1852
S':'
asbag49
(g70
g51
NtRp1853
(dp1854
g54
(dp1855
sg63
g1841
sg56
(lp1856
g49
(g50
g51
NtRp1857
(dp1858
g54
(dp1859
g62
I4
ssg63
g1853
sg56
(lp1860
g92
asbasbasbag49
(g65
g51
NtRp1861
(dp1862
g54
(dp1863
sg63
g1670
sg56
(lp1864
g49
(g70
g51
NtRp1865
(dp1866
g54
(dp1867
g74
g75
ssg63
g1861
sg56
(lp1868
g1213
asbag49
(g70
g51
NtRp1869
(dp1870
g54
(dp1871
g81
g82
ssg63
g1861
sg56
(lp1872
S':'
asbag49
(g70
g51
NtRp1873
(dp1874
g54
(dp1875
sg63
g1861
sg56
(lp1876
g49
(g50
g51
NtRp1877
(dp1878
g54
(dp1879
g62
I4
ssg63
g1873
sg56
(lp1880
g1226
asbasbasbag49
(g65
g51
NtRp1881
(dp1882
g54
(dp1883
sg63
g1670
sg56
(lp1884
g49
(g70
g51
NtRp1885
(dp1886
g54
(dp1887
g74
g75
ssg63
g1881
sg56
(lp1888
g1277
asbag49
(g70
g51
NtRp1889
(dp1890
g54
(dp1891
g81
g82
ssg63
g1881
sg56
(lp1892
S':'
asbag49
(g70
g51
NtRp1893
(dp1894
g54
(dp1895
sg63
g1881
sg56
(lp1896
g49
(g50
g51
NtRp1897
(dp1898
g54
(dp1899
g62
I4
ssg63
g1893
sg56
(lp1900
g49
(g58
g51
NtRp1901
(dp1902
g54
(dp1903
g62
I3
ssg63
Nsg56
(lp1904
g49
(g65
g51
NtRp1905
(dp1906
g54
(dp1907
sg63
g1901
sg56
(lp1908
g49
(g70
g51
NtRp1909
(dp1910
g54
(dp1911
sg63
g1905
sg56
(lp1912
g49
(g50
g51
NtRp1913
(dp1914
g54
(dp1915
g62
I3
ssg63
g1909
sg56
(lp1916
S'1'
asbasbasbag49
(g65
g51
NtRp1917
(dp1918
g54
(dp1919
sg63
g1901
sg56
(lp1920
g49
(g70
g51
NtRp1921
(dp1922
g54
(dp1923
sg63
g1917
sg56
(lp1924
g49
(g50
g51
NtRp1925
(dp1926
g54
(dp1927
g62
I3
ssg63
g1921
sg56
(lp1928
S'99'
p1929
asbasbasbag49
(g65
g51
NtRp1930
(dp1931
g54
(dp1932
sg63
g1901
sg56
(lp1933
g49
(g70
g51
NtRp1934
(dp1935
g54
(dp1936
sg63
g1930
sg56
(lp1937
g49
(g50
g51
NtRp1938
(dp1939
g54
(dp1940
g62
I3
ssg63
g1934
sg56
(lp1941
S'7'
asbasbasbag49
(g65
g51
NtRp1942
(dp1943
g54
(dp1944
sg63
g1901
sg56
(lp1945
g49
(g70
g51
NtRp1946
(dp1947
g54
(dp1948
sg63
g1942
sg56
(lp1949
g49
(g50
g51
NtRp1950
(dp1951
g54
(dp1952
g62
I3
ssg63
g1946
sg56
(lp1953
S'datetime.datetime(2012, 3, 4, 22, 12, 8)'
p1954
asbasbasbag49
(g65
g51
NtRp1955
(dp1956
g54
(dp1957
sg63
g1901
sg56
(lp1958
g49
(g70
g51
NtRp1959
(dp1960
g54
(dp1961
sg63
g1955
sg56
(lp1962
g49
(g50
g51
NtRp1963
(dp1964
g54
(dp1965
g62
I3
ssg63
g1959
sg56
(lp1966
g1356
asbasbasbasbasbasbasbasbasbasbasbag49
(g65
g51
NtRp1967
(dp1968
g54
(dp1969
sg63
g59
sg56
(lp1970
g49
(g70
g51
NtRp1971
(dp1972
g54
(dp1973
g74
g75
ssg63
g1967
sg56
(lp1974
S'is_https'
p1975
asbag49
(g70
g51
NtRp1976
(dp1977
g54
(dp1978
g81
g82
ssg63
g1967
sg56
(lp1979
S':'
asbag49
(g70
g51
NtRp1980
(dp1981
g54
(dp1982
sg63
g1967
sg56
(lp1983
g49
(g50
g51
NtRp1984
(dp1985
g54
(dp1986
g62
I5
ssg63
g1980
sg56
(lp1987
g92
asbasbasbag49
(g65
g51
NtRp1988
(dp1989
g54
(dp1990
sg63
g59
sg56
(lp1991
g49
(g70
g51
NtRp1992
(dp1993
g54
(dp1994
g74
g75
ssg63
g1988
sg56
(lp1995
S'is_local'
p1996
asbag49
(g70
g51
NtRp1997
(dp1998
g54
(dp1999
g81
g82
ssg63
g1988
sg56
(lp2000
S':'
asbag49
(g70
g51
NtRp2001
(dp2002
g54
(dp2003
sg63
g1988
sg56
(lp2004
g49
(g50
g51
NtRp2005
(dp2006
g54
(dp2007
g62
I5
ssg63
g2001
sg56
(lp2008
g1465
asbasbasbag49
(g65
g51
NtRp2009
(dp2010
g54
(dp2011
sg63
g59
sg56
(lp2012
g49
(g70
g51
NtRp2013
(dp2014
g54
(dp2015
g74
g75
ssg63
g2009
sg56
(lp2016
S'is_restful'
p2017
asbag49
(g70
g51
NtRp2018
(dp2019
g54
(dp2020
g81
g82
ssg63
g2009
sg56
(lp2021
S':'
asbag49
(g70
g51
NtRp2022
(dp2023
g54
(dp2024
sg63
g2009
sg56
(lp2025
g49
(g50
g51
NtRp2026
(dp2027
g54
(dp2028
g62
I5
ssg63
g2022
sg56
(lp2029
g92
asbasbasbag49
(g65
g51
NtRp2030
(dp2031
g54
(dp2032
sg63
g59
sg56
(lp2033
g49
(g70
g51
NtRp2034
(dp2035
g54
(dp2036
g74
g75
ssg63
g2030
sg56
(lp2037
S'now'
p2038
asbag49
(g70
g51
NtRp2039
(dp2040
g54
(dp2041
g81
g82
ssg63
g2030
sg56
(lp2042
S':'
asbag49
(g70
g51
NtRp2043
(dp2044
g54
(dp2045
sg63
g2030
sg56
(lp2046
g49
(g50
g51
NtRp2047
(dp2048
g54
(dp2049
g62
I5
ssg63
g2043
sg56
(lp2050
S'datetime.datetime(2012, 3, 19, 18, 40, 41, 416069)'
p2051
asbasbasbag49
(g65
g51
NtRp2052
(dp2053
g54
(dp2054
sg63
g59
sg56
(lp2055
g49
(g70
g51
NtRp2056
(dp2057
g54
(dp2058
g74
g75
ssg63
g2052
sg56
(lp2059
S'post_vars'
p2060
asbag49
(g70
g51
NtRp2061
(dp2062
g54
(dp2063
g81
g82
ssg63
g2052
sg56
(lp2064
S':'
asbag49
(g70
g51
NtRp2065
(dp2066
g54
(dp2067
sg63
g2052
sg56
(lp2068
g49
(g50
g51
NtRp2069
(dp2070
g54
(dp2071
g62
I5
ssg63
g2065
sg56
(lp2072
g49
(g58
g51
NtRp2073
(dp2074
g54
(dp2075
g62
I4
ssg63
Nsg56
(lp2076
sbasbasbasbag49
(g65
g51
NtRp2077
(dp2078
g54
(dp2079
sg63
g59
sg56
(lp2080
g49
(g70
g51
NtRp2081
(dp2082
g54
(dp2083
g74
g75
ssg63
g2077
sg56
(lp2084
S'url'
p2085
asbag49
(g70
g51
NtRp2086
(dp2087
g54
(dp2088
g81
g82
ssg63
g2077
sg56
(lp2089
S':'
asbag49
(g70
g51
NtRp2090
(dp2091
g54
(dp2092
sg63
g2077
sg56
(lp2093
g49
(g50
g51
NtRp2094
(dp2095
g54
(dp2096
g62
I5
ssg63
g2090
sg56
(lp2097
S'/boards'
p2098
asbasbasbag49
(g65
g51
NtRp2099
(dp2100
g54
(dp2101
sg63
g59
sg56
(lp2102
g49
(g70
g51
NtRp2103
(dp2104
g54
(dp2105
g74
g75
ssg63
g2099
sg56
(lp2106
S'utcnow'
p2107
asbag49
(g70
g51
NtRp2108
(dp2109
g54
(dp2110
g81
g82
ssg63
g2099
sg56
(lp2111
S':'
asbag49
(g70
g51
NtRp2112
(dp2113
g54
(dp2114
sg63
g2099
sg56
(lp2115
g49
(g50
g51
NtRp2116
(dp2117
g54
(dp2118
g62
I5
ssg63
g2112
sg56
(lp2119
S'datetime.datetime(2012, 3, 19, 22, 40, 41, 416082)'
p2120
asbasbasbag49
(g65
g51
NtRp2121
(dp2122
g54
(dp2123
sg63
g59
sg56
(lp2124
g49
(g70
g51
NtRp2125
(dp2126
g54
(dp2127
g74
g75
ssg63
g2121
sg56
(lp2128
S'uuid'
p2129
asbag49
(g70
g51
NtRp2130
(dp2131
g54
(dp2132
g81
g82
ssg63
g2121
sg56
(lp2133
S':'
asbag49
(g70
g51
NtRp2134
(dp2135
g54
(dp2136
sg63
g2121
sg56
(lp2137
g49
(g50
g51
NtRp2138
(dp2139
g54
(dp2140
g62
I5
ssg63
g2134
sg56
(lp2141
S'udi0312/127.0.0.1.2012-03-19.18-40-41.4e200000-37b7-4379-8874-1aa1ec1ed9b9'
p2142
asbasbasbag49
(g65
g51
NtRp2143
(dp2144
g54
(dp2145
sg63
g59
sg56
(lp2146
g49
(g70
g51
NtRp2147
(dp2148
g54
(dp2149
g74
g75
ssg63
g2143
sg56
(lp2150
S'vars'
p2151
asbag49
(g70
g51
NtRp2152
(dp2153
g54
(dp2154
g81
g82
ssg63
g2143
sg56
(lp2155
S':'
asbag49
(g70
g51
NtRp2156
(dp2157
g54
(dp2158
sg63
g2143
sg56
(lp2159
g49
(g50
g51
NtRp2160
(dp2161
g54
(dp2162
g62
I5
ssg63
g2156
sg56
(lp2163
g49
(g58
g51
NtRp2164
(dp2165
g54
(dp2166
g62
I4
ssg63
Nsg56
(lp2167
sbasbasbasbag49
(g65
g51
NtRp2168
(dp2169
g54
(dp2170
sg63
g59
sg56
(lp2171
g49
(g70
g51
NtRp2172
(dp2173
g54
(dp2174
g74
g75
ssg63
g2168
sg56
(lp2175
S'wsgi'
p2176
asbag49
(g70
g51
NtRp2177
(dp2178
g54
(dp2179
g81
g82
ssg63
g2168
sg56
(lp2180
S':'
asbag49
(g70
g51
NtRp2181
(dp2182
g54
(dp2183
sg63
g2168
sg56
(lp2184
g49
(g50
g51
NtRp2185
(dp2186
g54
(dp2187
g62
I5
ssg63
g2181
sg56
(lp2188
g49
(g58
g51
NtRp2189
(dp2190
g54
(dp2191
g62
I4
ssg63
Nsg56
(lp2192
g49
(g65
g51
NtRp2193
(dp2194
g54
(dp2195
sg63
g2189
sg56
(lp2196
g49
(g70
g51
NtRp2197
(dp2198
g54
(dp2199
g74
g75
ssg63
g2193
sg56
(lp2200
S'environ'
p2201
asbag49
(g70
g51
NtRp2202
(dp2203
g54
(dp2204
g81
g82
ssg63
g2193
sg56
(lp2205
S':'
asbag49
(g70
g51
NtRp2206
(dp2207
g54
(dp2208
sg63
g2193
sg56
(lp2209
g49
(g50
g51
NtRp2210
(dp2211
g54
(dp2212
g62
I4
ssg63
g2206
sg56
(lp2213
g49
(g58
g51
NtRp2214
(dp2215
g54
(dp2216
g62
I3
ssg63
Nsg56
(lp2217
g49
(g65
g51
NtRp2218
(dp2219
g54
(dp2220
sg63
g2214
sg56
(lp2221
g49
(g70
g51
NtRp2222
(dp2223
g54
(dp2224
g74
g75
ssg63
g2218
sg56
(lp2225
S'HTTP_ACCEPT'
p2226
asbag49
(g70
g51
NtRp2227
(dp2228
g54
(dp2229
g81
g82
ssg63
g2218
sg56
(lp2230
S':'
asbag49
(g70
g51
NtRp2231
(dp2232
g54
(dp2233
sg63
g2218
sg56
(lp2234
g49
(g50
g51
NtRp2235
(dp2236
g54
(dp2237
g62
I3
ssg63
g2231
sg56
(lp2238
g769
asbasbasbag49
(g65
g51
NtRp2239
(dp2240
g54
(dp2241
sg63
g2214
sg56
(lp2242
g49
(g70
g51
NtRp2243
(dp2244
g54
(dp2245
g74
g75
ssg63
g2239
sg56
(lp2246
S'HTTP_ACCEPT_CHARSET'
p2247
asbag49
(g70
g51
NtRp2248
(dp2249
g54
(dp2250
g81
g82
ssg63
g2239
sg56
(lp2251
S':'
asbag49
(g70
g51
NtRp2252
(dp2253
g54
(dp2254
sg63
g2239
sg56
(lp2255
g49
(g50
g51
NtRp2256
(dp2257
g54
(dp2258
g62
I3
ssg63
g2252
sg56
(lp2259
g791
asbasbasbag49
(g65
g51
NtRp2260
(dp2261
g54
(dp2262
sg63
g2214
sg56
(lp2263
g49
(g70
g51
NtRp2264
(dp2265
g54
(dp2266
g74
g75
ssg63
g2260
sg56
(lp2267
S'HTTP_ACCEPT_ENCODING'
p2268
asbag49
(g70
g51
NtRp2269
(dp2270
g54
(dp2271
g81
g82
ssg63
g2260
sg56
(lp2272
S':'
asbag49
(g70
g51
NtRp2273
(dp2274
g54
(dp2275
sg63
g2260
sg56
(lp2276
g49
(g50
g51
NtRp2277
(dp2278
g54
(dp2279
g62
I3
ssg63
g2273
sg56
(lp2280
g813
asbasbasbag49
(g65
g51
NtRp2281
(dp2282
g54
(dp2283
sg63
g2214
sg56
(lp2284
g49
(g70
g51
NtRp2285
(dp2286
g54
(dp2287
g74
g75
ssg63
g2281
sg56
(lp2288
S'HTTP_ACCEPT_LANGUAGE'
p2289
asbag49
(g70
g51
NtRp2290
(dp2291
g54
(dp2292
g81
g82
ssg63
g2281
sg56
(lp2293
S':'
asbag49
(g70
g51
NtRp2294
(dp2295
g54
(dp2296
sg63
g2281
sg56
(lp2297
g49
(g50
g51
NtRp2298
(dp2299
g54
(dp2300
g62
I3
ssg63
g2294
sg56
(lp2301
g835
asbasbasbag49
(g65
g51
NtRp2302
(dp2303
g54
(dp2304
sg63
g2214
sg56
(lp2305
g49
(g70
g51
NtRp2306
(dp2307
g54
(dp2308
g74
g75
ssg63
g2302
sg56
(lp2309
S'HTTP_CONNECTION'
p2310
asbag49
(g70
g51
NtRp2311
(dp2312
g54
(dp2313
g81
g82
ssg63
g2302
sg56
(lp2314
S':'
asbag49
(g70
g51
NtRp2315
(dp2316
g54
(dp2317
sg63
g2302
sg56
(lp2318
g49
(g50
g51
NtRp2319
(dp2320
g54
(dp2321
g62
I3
ssg63
g2315
sg56
(lp2322
g857
asbasbasbag49
(g65
g51
NtRp2323
(dp2324
g54
(dp2325
sg63
g2214
sg56
(lp2326
g49
(g70
g51
NtRp2327
(dp2328
g54
(dp2329
g74
g75
ssg63
g2323
sg56
(lp2330
S'HTTP_COOKIE'
p2331
asbag49
(g70
g51
NtRp2332
(dp2333
g54
(dp2334
g81
g82
ssg63
g2323
sg56
(lp2335
S':'
asbag49
(g70
g51
NtRp2336
(dp2337
g54
(dp2338
sg63
g2323
sg56
(lp2339
g49
(g50
g51
NtRp2340
(dp2341
g54
(dp2342
g62
I3
ssg63
g2336
sg56
(lp2343
g879
asbasbasbag49
(g65
g51
NtRp2344
(dp2345
g54
(dp2346
sg63
g2214
sg56
(lp2347
g49
(g70
g51
NtRp2348
(dp2349
g54
(dp2350
g74
g75
ssg63
g2344
sg56
(lp2351
S'HTTP_HOST'
p2352
asbag49
(g70
g51
NtRp2353
(dp2354
g54
(dp2355
g81
g82
ssg63
g2344
sg56
(lp2356
S':'
asbag49
(g70
g51
NtRp2357
(dp2358
g54
(dp2359
sg63
g2344
sg56
(lp2360
g49
(g50
g51
NtRp2361
(dp2362
g54
(dp2363
g62
I3
ssg63
g2357
sg56
(lp2364
g901
asbasbasbag49
(g65
g51
NtRp2365
(dp2366
g54
(dp2367
sg63
g2214
sg56
(lp2368
g49
(g70
g51
NtRp2369
(dp2370
g54
(dp2371
g74
g75
ssg63
g2365
sg56
(lp2372
S'HTTP_USER_AGENT'
p2373
asbag49
(g70
g51
NtRp2374
(dp2375
g54
(dp2376
g81
g82
ssg63
g2365
sg56
(lp2377
S':'
asbag49
(g70
g51
NtRp2378
(dp2379
g54
(dp2380
sg63
g2365
sg56
(lp2381
g49
(g50
g51
NtRp2382
(dp2383
g54
(dp2384
g62
I3
ssg63
g2378
sg56
(lp2385
g923
asbasbasbag49
(g65
g51
NtRp2386
(dp2387
g54
(dp2388
sg63
g2214
sg56
(lp2389
g49
(g70
g51
NtRp2390
(dp2391
g54
(dp2392
g74
g75
ssg63
g2386
sg56
(lp2393
S'PATH_INFO'
p2394
asbag49
(g70
g51
NtRp2395
(dp2396
g54
(dp2397
g81
g82
ssg63
g2386
sg56
(lp2398
S':'
asbag49
(g70
g51
NtRp2399
(dp2400
g54
(dp2401
sg63
g2386
sg56
(lp2402
g49
(g50
g51
NtRp2403
(dp2404
g54
(dp2405
g62
I3
ssg63
g2399
sg56
(lp2406
g987
asbasbasbag49
(g65
g51
NtRp2407
(dp2408
g54
(dp2409
sg63
g2214
sg56
(lp2410
g49
(g70
g51
NtRp2411
(dp2412
g54
(dp2413
g74
g75
ssg63
g2407
sg56
(lp2414
S'QUERY_STRING'
p2415
asbag49
(g70
g51
NtRp2416
(dp2417
g54
(dp2418
g81
g82
ssg63
g2407
sg56
(lp2419
S':'
asbag49
(g70
g51
NtRp2420
(dp2421
g54
(dp2422
sg63
g2407
sg56
(lp2423
g49
(g50
g51
NtRp2424
(dp2425
g54
(dp2426
g62
I3
ssg63
g2420
sg56
(lp2427
S''
asbasbasbag49
(g65
g51
NtRp2428
(dp2429
g54
(dp2430
sg63
g2214
sg56
(lp2431
g49
(g70
g51
NtRp2432
(dp2433
g54
(dp2434
g74
g75
ssg63
g2428
sg56
(lp2435
S'REMOTE_ADDR'
p2436
asbag49
(g70
g51
NtRp2437
(dp2438
g54
(dp2439
g81
g82
ssg63
g2428
sg56
(lp2440
S':'
asbag49
(g70
g51
NtRp2441
(dp2442
g54
(dp2443
sg63
g2428
sg56
(lp2444
g49
(g50
g51
NtRp2445
(dp2446
g54
(dp2447
g62
I3
ssg63
g2441
sg56
(lp2448
g182
asbasbasbag49
(g65
g51
NtRp2449
(dp2450
g54
(dp2451
sg63
g2214
sg56
(lp2452
g49
(g70
g51
NtRp2453
(dp2454
g54
(dp2455
g74
g75
ssg63
g2449
sg56
(lp2456
S'REMOTE_PORT'
p2457
asbag49
(g70
g51
NtRp2458
(dp2459
g54
(dp2460
g81
g82
ssg63
g2449
sg56
(lp2461
S':'
asbag49
(g70
g51
NtRp2462
(dp2463
g54
(dp2464
sg63
g2449
sg56
(lp2465
g49
(g50
g51
NtRp2466
(dp2467
g54
(dp2468
g62
I3
ssg63
g2462
sg56
(lp2469
g1051
asbasbasbag49
(g65
g51
NtRp2470
(dp2471
g54
(dp2472
sg63
g2214
sg56
(lp2473
g49
(g70
g51
NtRp2474
(dp2475
g54
(dp2476
g74
g75
ssg63
g2470
sg56
(lp2477
S'REQUEST_METHOD'
p2478
asbag49
(g70
g51
NtRp2479
(dp2480
g54
(dp2481
g81
g82
ssg63
g2470
sg56
(lp2482
S':'
asbag49
(g70
g51
NtRp2483
(dp2484
g54
(dp2485
sg63
g2470
sg56
(lp2486
g49
(g50
g51
NtRp2487
(dp2488
g54
(dp2489
g62
I3
ssg63
g2483
sg56
(lp2490
g1073
asbasbasbag49
(g65
g51
NtRp2491
(dp2492
g54
(dp2493
sg63
g2214
sg56
(lp2494
g49
(g70
g51
NtRp2495
(dp2496
g54
(dp2497
g74
g75
ssg63
g2491
sg56
(lp2498
S'REQUEST_URI'
p2499
asbag49
(g70
g51
NtRp2500
(dp2501
g54
(dp2502
g81
g82
ssg63
g2491
sg56
(lp2503
S':'
asbag49
(g70
g51
NtRp2504
(dp2505
g54
(dp2506
sg63
g2491
sg56
(lp2507
g49
(g50
g51
NtRp2508
(dp2509
g54
(dp2510
g62
I3
ssg63
g2504
sg56
(lp2511
g1095
asbasbasbag49
(g65
g51
NtRp2512
(dp2513
g54
(dp2514
sg63
g2214
sg56
(lp2515
g49
(g70
g51
NtRp2516
(dp2517
g54
(dp2518
g74
g75
ssg63
g2512
sg56
(lp2519
S'SCRIPT_NAME'
p2520
asbag49
(g70
g51
NtRp2521
(dp2522
g54
(dp2523
g81
g82
ssg63
g2512
sg56
(lp2524
S':'
asbag49
(g70
g51
NtRp2525
(dp2526
g54
(dp2527
sg63
g2512
sg56
(lp2528
g49
(g50
g51
NtRp2529
(dp2530
g54
(dp2531
g62
I3
ssg63
g2525
sg56
(lp2532
S''
asbasbasbag49
(g65
g51
NtRp2533
(dp2534
g54
(dp2535
sg63
g2214
sg56
(lp2536
g49
(g70
g51
NtRp2537
(dp2538
g54
(dp2539
g74
g75
ssg63
g2533
sg56
(lp2540
S'SERVER_NAME'
p2541
asbag49
(g70
g51
NtRp2542
(dp2543
g54
(dp2544
g81
g82
ssg63
g2533
sg56
(lp2545
S':'
asbag49
(g70
g51
NtRp2546
(dp2547
g54
(dp2548
sg63
g2533
sg56
(lp2549
g49
(g50
g51
NtRp2550
(dp2551
g54
(dp2552
g62
I3
ssg63
g2546
sg56
(lp2553
g1138
asbasbasbag49
(g65
g51
NtRp2554
(dp2555
g54
(dp2556
sg63
g2214
sg56
(lp2557
g49
(g70
g51
NtRp2558
(dp2559
g54
(dp2560
g74
g75
ssg63
g2554
sg56
(lp2561
S'SERVER_PORT'
p2562
asbag49
(g70
g51
NtRp2563
(dp2564
g54
(dp2565
g81
g82
ssg63
g2554
sg56
(lp2566
S':'
asbag49
(g70
g51
NtRp2567
(dp2568
g54
(dp2569
sg63
g2554
sg56
(lp2570
g49
(g50
g51
NtRp2571
(dp2572
g54
(dp2573
g62
I3
ssg63
g2567
sg56
(lp2574
g1160
asbasbasbag49
(g65
g51
NtRp2575
(dp2576
g54
(dp2577
sg63
g2214
sg56
(lp2578
g49
(g70
g51
NtRp2579
(dp2580
g54
(dp2581
g74
g75
ssg63
g2575
sg56
(lp2582
S'SERVER_PROTOCOL'
p2583
asbag49
(g70
g51
NtRp2584
(dp2585
g54
(dp2586
g81
g82
ssg63
g2575
sg56
(lp2587
S':'
asbag49
(g70
g51
NtRp2588
(dp2589
g54
(dp2590
sg63
g2575
sg56
(lp2591
g49
(g50
g51
NtRp2592
(dp2593
g54
(dp2594
g62
I3
ssg63
g2588
sg56
(lp2595
g1182
asbasbasbag49
(g65
g51
NtRp2596
(dp2597
g54
(dp2598
sg63
g2214
sg56
(lp2599
g49
(g70
g51
NtRp2600
(dp2601
g54
(dp2602
g74
g75
ssg63
g2596
sg56
(lp2603
S'SERVER_SOFTWARE'
p2604
asbag49
(g70
g51
NtRp2605
(dp2606
g54
(dp2607
g81
g82
ssg63
g2596
sg56
(lp2608
S':'
asbag49
(g70
g51
NtRp2609
(dp2610
g54
(dp2611
sg63
g2596
sg56
(lp2612
g49
(g50
g51
NtRp2613
(dp2614
g54
(dp2615
g62
I3
ssg63
g2609
sg56
(lp2616
g1204
asbasbasbag49
(g65
g51
NtRp2617
(dp2618
g54
(dp2619
sg63
g2214
sg56
(lp2620
g49
(g70
g51
NtRp2621
(dp2622
g54
(dp2623
g74
g75
ssg63
g2617
sg56
(lp2624
S'WEB2PY_ORIGINAL_URI'
p2625
asbag49
(g70
g51
NtRp2626
(dp2627
g54
(dp2628
g81
g82
ssg63
g2617
sg56
(lp2629
S':'
asbag49
(g70
g51
NtRp2630
(dp2631
g54
(dp2632
sg63
g2617
sg56
(lp2633
g49
(g50
g51
NtRp2634
(dp2635
g54
(dp2636
g62
I3
ssg63
g2630
sg56
(lp2637
g987
asbasbasbag49
(g65
g51
NtRp2638
(dp2639
g54
(dp2640
sg63
g2214
sg56
(lp2641
g49
(g70
g51
NtRp2642
(dp2643
g54
(dp2644
g74
g75
ssg63
g2638
sg56
(lp2645
S'wsgi.errors'
p2646
asbag49
(g70
g51
NtRp2647
(dp2648
g54
(dp2649
g81
g82
ssg63
g2638
sg56
(lp2650
S':'
asbag49
(g70
g51
NtRp2651
(dp2652
g54
(dp2653
sg63
g2638
sg56
(lp2654
g49
(g50
g51
NtRp2655
(dp2656
g54
(dp2657
g62
I3
ssg63
g2651
sg56
(lp2658
S"<open file '<stderr>', mode 'w' at 0x4220b0>"
p2659
asbasbasbag49
(g65
g51
NtRp2660
(dp2661
g54
(dp2662
sg63
g2214
sg56
(lp2663
g49
(g70
g51
NtRp2664
(dp2665
g54
(dp2666
g74
g75
ssg63
g2660
sg56
(lp2667
S'wsgi.file_wrapper'
p2668
asbag49
(g70
g51
NtRp2669
(dp2670
g54
(dp2671
g81
g82
ssg63
g2660
sg56
(lp2672
S':'
asbag49
(g70
g51
NtRp2673
(dp2674
g54
(dp2675
sg63
g2660
sg56
(lp2676
g49
(g50
g51
NtRp2677
(dp2678
g54
(dp2679
g62
I3
ssg63
g2673
sg56
(lp2680
S'<class wsgiref.util.FileWrapper at 0x225e6c0>'
p2681
asbasbasbag49
(g65
g51
NtRp2682
(dp2683
g54
(dp2684
sg63
g2214
sg56
(lp2685
g49
(g70
g51
NtRp2686
(dp2687
g54
(dp2688
g74
g75
ssg63
g2682
sg56
(lp2689
S'wsgi.input'
p2690
asbag49
(g70
g51
NtRp2691
(dp2692
g54
(dp2693
g81
g82
ssg63
g2682
sg56
(lp2694
S':'
asbag49
(g70
g51
NtRp2695
(dp2696
g54
(dp2697
sg63
g2682
sg56
(lp2698
g49
(g50
g51
NtRp2699
(dp2700
g54
(dp2701
g62
I3
ssg63
g2695
sg56
(lp2702
S'<cStringIO.StringO object at 0xa1e6fc0>'
p2703
asbasbasbag49
(g65
g51
NtRp2704
(dp2705
g54
(dp2706
sg63
g2214
sg56
(lp2707
g49
(g70
g51
NtRp2708
(dp2709
g54
(dp2710
g74
g75
ssg63
g2704
sg56
(lp2711
S'wsgi.multiprocess'
p2712
asbag49
(g70
g51
NtRp2713
(dp2714
g54
(dp2715
g81
g82
ssg63
g2704
sg56
(lp2716
S':'
asbag49
(g70
g51
NtRp2717
(dp2718
g54
(dp2719
sg63
g2704
sg56
(lp2720
g49
(g50
g51
NtRp2721
(dp2722
g54
(dp2723
g62
I3
ssg63
g2717
sg56
(lp2724
g92
asbasbasbag49
(g65
g51
NtRp2725
(dp2726
g54
(dp2727
sg63
g2214
sg56
(lp2728
g49
(g70
g51
NtRp2729
(dp2730
g54
(dp2731
g74
g75
ssg63
g2725
sg56
(lp2732
S'wsgi.multithread'
p2733
asbag49
(g70
g51
NtRp2734
(dp2735
g54
(dp2736
g81
g82
ssg63
g2725
sg56
(lp2737
S':'
asbag49
(g70
g51
NtRp2738
(dp2739
g54
(dp2740
sg63
g2725
sg56
(lp2741
g49
(g50
g51
NtRp2742
(dp2743
g54
(dp2744
g62
I3
ssg63
g2738
sg56
(lp2745
g1465
asbasbasbag49
(g65
g51
NtRp2746
(dp2747
g54
(dp2748
sg63
g2214
sg56
(lp2749
g49
(g70
g51
NtRp2750
(dp2751
g54
(dp2752
g74
g75
ssg63
g2746
sg56
(lp2753
S'wsgi.run_once'
p2754
asbag49
(g70
g51
NtRp2755
(dp2756
g54
(dp2757
g81
g82
ssg63
g2746
sg56
(lp2758
S':'
asbag49
(g70
g51
NtRp2759
(dp2760
g54
(dp2761
sg63
g2746
sg56
(lp2762
g49
(g50
g51
NtRp2763
(dp2764
g54
(dp2765
g62
I3
ssg63
g2759
sg56
(lp2766
g92
asbasbasbag49
(g65
g51
NtRp2767
(dp2768
g54
(dp2769
sg63
g2214
sg56
(lp2770
g49
(g70
g51
NtRp2771
(dp2772
g54
(dp2773
g74
g75
ssg63
g2767
sg56
(lp2774
S'wsgi.url_scheme'
p2775
asbag49
(g70
g51
NtRp2776
(dp2777
g54
(dp2778
g81
g82
ssg63
g2767
sg56
(lp2779
S':'
asbag49
(g70
g51
NtRp2780
(dp2781
g54
(dp2782
sg63
g2767
sg56
(lp2783
g49
(g50
g51
NtRp2784
(dp2785
g54
(dp2786
g62
I3
ssg63
g2780
sg56
(lp2787
g1508
asbasbasbag49
(g65
g51
NtRp2788
(dp2789
g54
(dp2790
sg63
g2214
sg56
(lp2791
g49
(g70
g51
NtRp2792
(dp2793
g54
(dp2794
g74
g75
ssg63
g2788
sg56
(lp2795
S'wsgi.version'
p2796
asbag49
(g70
g51
NtRp2797
(dp2798
g54
(dp2799
g81
g82
ssg63
g2788
sg56
(lp2800
S':'
asbag49
(g70
g51
NtRp2801
(dp2802
g54
(dp2803
sg63
g2788
sg56
(lp2804
g49
(g50
g51
NtRp2805
(dp2806
g54
(dp2807
g62
I3
ssg63
g2801
sg56
(lp2808
S'1'
asbasbasbasbasbasbasbasbasbasbasbasbasbsS'frames'
p2809
(lp2810
(dp2811
S'file'
p2812
S'/users/udimilo/Documents/web2py/gluon/restricted.py'
p2813
sS'dump'
p2814
(dp2815
S'environment'
p2816
S"{'A': <class 'gluon.html.A'>, 'Auth': <class 'gluon.tools.Auth'>, 'B': <class 'gluon.html.B'>, 'BEAUTIFY': <class 'gluon.html.BEAUTIFY'>, 'BODY': <class 'gluon.html.BODY'>, 'BR': <class 'gluon.html.BR'>, 'BUTTON': <class 'gluon.html.BUTTON'>, 'CAT': <class 'gluon.html.CAT'>, 'CENTER': <class 'gluon.html.CENTER'>, 'CLEANUP': <class 'gluon.validators.CLEANUP'>, ...}"
p2817
sS'ccode'
p2818
S'<code object <module> at 0xaa3acc8, file "/Users...cations/udi0312/views/boards/index.html", line 1>'
p2819
ssS'lnum'
p2820
I205
sS'lines'
p2821
(dp2822
I200
S'    try:'
p2823
sI201
S'        if type(code) == types.CodeType:'
p2824
sI202
S'            ccode = code'
p2825
sI203
S'        else:'
p2826
sI204
S'            ccode = compile2(code,layer)'
p2827
sI205
S'        exec ccode in environment'
p2828
sI206
S'    except HTTP:'
p2829
sI207
S'        raise'
p2830
sI208
S'    except RestrictedError:'
p2831
sI209
S'        # do not encapsulate (obfuscate) the original RestrictedError'
p2832
ssS'call'
p2833
S'(code=\'response.write(\\\'<html lan="en">\\\\n<head>\\\\n    <ti...js"></script>\\\\n</body>\\\\n</html>\\\\n\\\', escape=False)\', environment={\'A\': <class \'gluon.html.A\'>, \'Auth\': <class \'gluon.tools.Auth\'>, \'B\': <class \'gluon.html.B\'>, \'BEAUTIFY\': <class \'gluon.html.BEAUTIFY\'>, \'BODY\': <class \'gluon.html.BODY\'>, \'BR\': <class \'gluon.html.BR\'>, \'BUTTON\': <class \'gluon.html.BUTTON\'>, \'CAT\': <class \'gluon.html.CAT\'>, \'CENTER\': <class \'gluon.html.CENTER\'>, \'CLEANUP\': <class \'gluon.validators.CLEANUP\'>, ...}, layer=\'/Users/udimilo/Documents/web2py/applications/udi0312/views/boards/index.html\')'
p2834
sS'func'
p2835
S'restricted'
p2836
sa(dp2837
g2812
S'/Users/udimilo/Documents/web2py/applications/udi0312/views/boards/index.html'
p2838
sg2814
(dp2839
sg2820
I8
sg2821
(dp2840
I1
S'response.write(\'<html lan="en">\\n<head>\\n    <title>inFormation - Curate The Web</title>\\n    <script type="text/javascript" src="http://ajax.googleapis.com/ajax/libs/jquery/1.7.1/jquery.min.js"></script>\\n    <script type="text/javascript" src="/udi0312/static/js/jquery.wookmark.js"></script>\\n    <script type="text/javascript" src="http://easydate.parshap.com/files/jquery.easydate-0.2.4.min.js"></script>\\n    <script type="text/javascript" src="/udi0312/static/js/web2py.js"></script>\\n    <script type="text/javascript" src="http://jacklmoore.com/colorbox/colorbox/jquery.colorbox.js"></script>   \\n    <link href=\\\'http://fonts.googleapis.com/css?family=PT+Sans\\\' rel=\\\'stylesheet\\\' type=\\\'text/css\\\'>\\n    <link href=\\\'/udi0312/static/css/site.css\\\' rel=\\\'stylesheet\\\' type=\\\'text/css\\\'>\\n</head>\\n<body>\\n    <div id="header">\\n        <div id="search">\\n            <input type="text" id="query" size="27" value="Search">\\n            <a id="query_button" href="#" class="lg"><img src="http://passets-cdn.pinterest.com/images/search.gif" alt=""></a>\\n        </div>\\n        <img id="ajax_loader" src="/udi0312/static/images/ajax_loader.gif" />\\n        <a id="logo" href="/">\\n            <img src="http://press.linkedin.com/sites/all/themes/presslinkedin/images/LinkedIn_IN_Icon_25px.png"/>\\n            <span>formation</span>\\n        </a>\\n        <ul id="navigation">\\n            <li>\', escape=False)'
p2841
sI2
S"response.write('auth' in globals() and auth.navbar(separators=(' ',' | ','')))"
p2842
sI3
S'response.write(\'</li>\\n        </ul>\\n    </div>\\n    <div id="msg">\\n        <span></span>\\n    </div>\\n    <!-- hidden colorbox elements -->\\n    <div style="display:none;">\\n        <div id="showItem">\\n            <div id="showItemContent" class="clearfix"></div>\\n        </div>\\n        \', escape=False)'
p2843
sI4
S'if auth.user:'
p2844
sI5
S'    response.write(\'\\n        <div id="repin">\\n            <form onsubmit="ajax_with_msg(\\\'\', escape=False)'
p2845
sI6
S"    response.write(URL('add_repin'))"
p2846
sI7
S'    response.write(\'\\\', [\\\'id\\\',\\\'repin_board\\\']);return false;">\\n                <h1>Repin</h1>\\n                <div class="pin">\\n                    <h2 class="title"></h2> \\n                    <select name="repin_board">\\n                    \', escape=False)'
p2847
sI8
S'    for board in boards:'
p2848
sI9
S'        response.write(\'\\n                        <option value="\', escape=False)'
p2849
sI10
S'        response.write(board.id)'
p2850
sI11
S'        response.write(\'">\', escape=False)'
p2851
sI12
S'        response.write(board.name)'
p2852
sI13
S"        response.write('</option>\\n                    ', escape=False)"
p2853
sI14
S'        pass'
p2854
sI15
S'    response.write(\'               \\n                    </select>\\n                    <input type="hidden" name="id"/>\\n                    <input type="submit" />\\n                </div>\\n            </form>\\n        </div>\\n        \', escape=False)'
p2855
sI16
S'    pass'
p2856
sI17
S"response.write('\\n    </div>\\n', escape=False)"
p2857
sI18
S"response.write('\\n', escape=False)"
p2858
ssg2833
S'()'
p2859
sg2835
S'<module>'
p2860
sasS'pyver'
p2861
S'Python 2.5.4: /Library/Frameworks/Python.framework/Versions/2.5/Resources/Python.app/Contents/MacOS/Python'
p2862
sS'session'
p2863
g49
(g50
g51
NtRp2864
(dp2865
g54
(dp2866
sg56
(lp2867
g49
(g58
g51
NtRp2868
(dp2869
g54
(dp2870
g62
I5
ssg63
Nsg56
(lp2871
g49
(g65
g51
NtRp2872
(dp2873
g54
(dp2874
sg63
g2868
sg56
(lp2875
g49
(g70
g51
NtRp2876
(dp2877
g54
(dp2878
g74
g75
ssg63
g2872
sg56
(lp2879
S'auth'
p2880
asbag49
(g70
g51
NtRp2881
(dp2882
g54
(dp2883
g81
g82
ssg63
g2872
sg56
(lp2884
S':'
asbag49
(g70
g51
NtRp2885
(dp2886
g54
(dp2887
sg63
g2872
sg56
(lp2888
g49
(g50
g51
NtRp2889
(dp2890
g54
(dp2891
g62
I5
ssg63
g2885
sg56
(lp2892
g49
(g58
g51
NtRp2893
(dp2894
g54
(dp2895
g62
I4
ssg63
Nsg56
(lp2896
g49
(g65
g51
NtRp2897
(dp2898
g54
(dp2899
sg63
g2893
sg56
(lp2900
g49
(g70
g51
NtRp2901
(dp2902
g54
(dp2903
g74
g75
ssg63
g2897
sg56
(lp2904
S'expiration'
p2905
asbag49
(g70
g51
NtRp2906
(dp2907
g54
(dp2908
g81
g82
ssg63
g2897
sg56
(lp2909
S':'
asbag49
(g70
g51
NtRp2910
(dp2911
g54
(dp2912
sg63
g2897
sg56
(lp2913
g49
(g50
g51
NtRp2914
(dp2915
g54
(dp2916
g62
I4
ssg63
g2910
sg56
(lp2917
S'2592000'
p2918
asbasbasbag49
(g65
g51
NtRp2919
(dp2920
g54
(dp2921
sg63
g2893
sg56
(lp2922
g49
(g70
g51
NtRp2923
(dp2924
g54
(dp2925
g74
g75
ssg63
g2919
sg56
(lp2926
S'hmac_key'
p2927
asbag49
(g70
g51
NtRp2928
(dp2929
g54
(dp2930
g81
g82
ssg63
g2919
sg56
(lp2931
S':'
asbag49
(g70
g51
NtRp2932
(dp2933
g54
(dp2934
sg63
g2919
sg56
(lp2935
g49
(g50
g51
NtRp2936
(dp2937
g54
(dp2938
g62
I4
ssg63
g2932
sg56
(lp2939
S'b46a2fd5-4669-45fc-9619-b910632a260b'
p2940
asbasbasbag49
(g65
g51
NtRp2941
(dp2942
g54
(dp2943
sg63
g2893
sg56
(lp2944
g49
(g70
g51
NtRp2945
(dp2946
g54
(dp2947
g74
g75
ssg63
g2941
sg56
(lp2948
S'last_visit'
p2949
asbag49
(g70
g51
NtRp2950
(dp2951
g54
(dp2952
g81
g82
ssg63
g2941
sg56
(lp2953
S':'
asbag49
(g70
g51
NtRp2954
(dp2955
g54
(dp2956
sg63
g2941
sg56
(lp2957
g49
(g50
g51
NtRp2958
(dp2959
g54
(dp2960
g62
I4
ssg63
g2954
sg56
(lp2961
S'datetime.datetime(2012, 3, 19, 18, 38, 22, 175199)'
p2962
asbasbasbag49
(g65
g51
NtRp2963
(dp2964
g54
(dp2965
sg63
g2893
sg56
(lp2966
g49
(g70
g51
NtRp2967
(dp2968
g54
(dp2969
g74
g75
ssg63
g2963
sg56
(lp2970
S'remember'
p2971
asbag49
(g70
g51
NtRp2972
(dp2973
g54
(dp2974
g81
g82
ssg63
g2963
sg56
(lp2975
S':'
asbag49
(g70
g51
NtRp2976
(dp2977
g54
(dp2978
sg63
g2963
sg56
(lp2979
g49
(g50
g51
NtRp2980
(dp2981
g54
(dp2982
g62
I4
ssg63
g2976
sg56
(lp2983
g1465
asbasbasbag49
(g65
g51
NtRp2984
(dp2985
g54
(dp2986
sg63
g2893
sg56
(lp2987
g49
(g70
g51
NtRp2988
(dp2989
g54
(dp2990
g74
g75
ssg63
g2984
sg56
(lp2991
S'user'
p2992
asbag49
(g70
g51
NtRp2993
(dp2994
g54
(dp2995
g81
g82
ssg63
g2984
sg56
(lp2996
S':'
asbag49
(g70
g51
NtRp2997
(dp2998
g54
(dp2999
sg63
g2984
sg56
(lp3000
g49
(g50
g51
NtRp3001
(dp3002
g54
(dp3003
g62
I4
ssg63
g2997
sg56
(lp3004
g49
(g58
g51
NtRp3005
(dp3006
g54
(dp3007
g62
I3
ssg63
Nsg56
(lp3008
g49
(g65
g51
NtRp3009
(dp3010
g54
(dp3011
sg63
g3005
sg56
(lp3012
g49
(g70
g51
NtRp3013
(dp3014
g54
(dp3015
g74
g75
ssg63
g3009
sg56
(lp3016
S'email'
p3017
asbag49
(g70
g51
NtRp3018
(dp3019
g54
(dp3020
g81
g82
ssg63
g3009
sg56
(lp3021
S':'
asbag49
(g70
g51
NtRp3022
(dp3023
g54
(dp3024
sg63
g3009
sg56
(lp3025
g49
(g50
g51
NtRp3026
(dp3027
g54
(dp3028
g62
I3
ssg63
g3022
sg56
(lp3029
S'udimilo@gmail.com'
p3030
asbasbasbag49
(g65
g51
NtRp3031
(dp3032
g54
(dp3033
sg63
g3005
sg56
(lp3034
g49
(g70
g51
NtRp3035
(dp3036
g54
(dp3037
g74
g75
ssg63
g3031
sg56
(lp3038
S'first_name'
p3039
asbag49
(g70
g51
NtRp3040
(dp3041
g54
(dp3042
g81
g82
ssg63
g3031
sg56
(lp3043
S':'
asbag49
(g70
g51
NtRp3044
(dp3045
g54
(dp3046
sg63
g3031
sg56
(lp3047
g49
(g50
g51
NtRp3048
(dp3049
g54
(dp3050
g62
I3
ssg63
g3044
sg56
(lp3051
S'Udi'
p3052
asbasbasbag49
(g65
g51
NtRp3053
(dp3054
g54
(dp3055
sg63
g3005
sg56
(lp3056
g49
(g70
g51
NtRp3057
(dp3058
g54
(dp3059
g74
g75
ssg63
g3053
sg56
(lp3060
S'id'
p3061
asbag49
(g70
g51
NtRp3062
(dp3063
g54
(dp3064
g81
g82
ssg63
g3053
sg56
(lp3065
S':'
asbag49
(g70
g51
NtRp3066
(dp3067
g54
(dp3068
sg63
g3053
sg56
(lp3069
g49
(g50
g51
NtRp3070
(dp3071
g54
(dp3072
g62
I3
ssg63
g3066
sg56
(lp3073
S'1'
asbasbasbag49
(g65
g51
NtRp3074
(dp3075
g54
(dp3076
sg63
g3005
sg56
(lp3077
g49
(g70
g51
NtRp3078
(dp3079
g54
(dp3080
g74
g75
ssg63
g3074
sg56
(lp3081
S'last_name'
p3082
asbag49
(g70
g51
NtRp3083
(dp3084
g54
(dp3085
g81
g82
ssg63
g3074
sg56
(lp3086
S':'
asbag49
(g70
g51
NtRp3087
(dp3088
g54
(dp3089
sg63
g3074
sg56
(lp3090
g49
(g50
g51
NtRp3091
(dp3092
g54
(dp3093
g62
I3
ssg63
g3087
sg56
(lp3094
S'Milo'
p3095
asbasbasbag49
(g65
g51
NtRp3096
(dp3097
g54
(dp3098
sg63
g3005
sg56
(lp3099
g49
(g70
g51
NtRp3100
(dp3101
g54
(dp3102
g74
g75
ssg63
g3096
sg56
(lp3103
S'password'
p3104
asbag49
(g70
g51
NtRp3105
(dp3106
g54
(dp3107
g81
g82
ssg63
g3096
sg56
(lp3108
S':'
asbag49
(g70
g51
NtRp3109
(dp3110
g54
(dp3111
sg63
g3096
sg56
(lp3112
g49
(g50
g51
NtRp3113
(dp3114
g54
(dp3115
g62
I3
ssg63
g3109
sg56
(lp3116
S'7a6e3c6a68ceed66634484a3f64a3468'
p3117
asbasbasbag49
(g65
g51
NtRp3118
(dp3119
g54
(dp3120
sg63
g3005
sg56
(lp3121
g49
(g70
g51
NtRp3122
(dp3123
g54
(dp3124
g74
g75
ssg63
g3118
sg56
(lp3125
S'registration_id'
p3126
asbag49
(g70
g51
NtRp3127
(dp3128
g54
(dp3129
g81
g82
ssg63
g3118
sg56
(lp3130
S':'
asbag49
(g70
g51
NtRp3131
(dp3132
g54
(dp3133
sg63
g3118
sg56
(lp3134
g49
(g50
g51
NtRp3135
(dp3136
g54
(dp3137
g62
I3
ssg63
g3131
sg56
(lp3138
S''
asbasbasbag49
(g65
g51
NtRp3139
(dp3140
g54
(dp3141
sg63
g3005
sg56
(lp3142
g49
(g70
g51
NtRp3143
(dp3144
g54
(dp3145
g74
g75
ssg63
g3139
sg56
(lp3146
S'registration_key'
p3147
asbag49
(g70
g51
NtRp3148
(dp3149
g54
(dp3150
g81
g82
ssg63
g3139
sg56
(lp3151
S':'
asbag49
(g70
g51
NtRp3152
(dp3153
g54
(dp3154
sg63
g3139
sg56
(lp3155
g49
(g50
g51
NtRp3156
(dp3157
g54
(dp3158
g62
I3
ssg63
g3152
sg56
(lp3159
S''
asbasbasbag49
(g65
g51
NtRp3160
(dp3161
g54
(dp3162
sg63
g3005
sg56
(lp3163
g49
(g70
g51
NtRp3164
(dp3165
g54
(dp3166
g74
g75
ssg63
g3160
sg56
(lp3167
S'reset_password_key'
p3168
asbag49
(g70
g51
NtRp3169
(dp3170
g54
(dp3171
g81
g82
ssg63
g3160
sg56
(lp3172
S':'
asbag49
(g70
g51
NtRp3173
(dp3174
g54
(dp3175
sg63
g3160
sg56
(lp3176
g49
(g50
g51
NtRp3177
(dp3178
g54
(dp3179
g62
I3
ssg63
g3173
sg56
(lp3180
S''
asbasbasbasbasbasbasbag49
(g65
g51
NtRp3181
(dp3182
g54
(dp3183
sg63
g2893
sg56
(lp3184
g49
(g70
g51
NtRp3185
(dp3186
g54
(dp3187
g74
g75
ssg63
g3181
sg56
(lp3188
S'user_groups'
p3189
asbag49
(g70
g51
NtRp3190
(dp3191
g54
(dp3192
g81
g82
ssg63
g3181
sg56
(lp3193
S':'
asbag49
(g70
g51
NtRp3194
(dp3195
g54
(dp3196
sg63
g3181
sg56
(lp3197
g49
(g50
g51
NtRp3198
(dp3199
g54
(dp3200
g62
I4
ssg63
g3194
sg56
(lp3201
g49
(g58
g51
NtRp3202
(dp3203
g54
(dp3204
g62
I3
ssg63
Nsg56
(lp3205
g49
(g65
g51
NtRp3206
(dp3207
g54
(dp3208
sg63
g3202
sg56
(lp3209
g49
(g70
g51
NtRp3210
(dp3211
g54
(dp3212
g74
g75
ssg63
g3206
sg56
(lp3213
S'1'
asbag49
(g70
g51
NtRp3214
(dp3215
g54
(dp3216
g81
g82
ssg63
g3206
sg56
(lp3217
S':'
asbag49
(g70
g51
NtRp3218
(dp3219
g54
(dp3220
sg63
g3206
sg56
(lp3221
g49
(g50
g51
NtRp3222
(dp3223
g54
(dp3224
g62
I3
ssg63
g3218
sg56
(lp3225
S'user_1'
p3226
asbasbasbasbasbasbasbasbasbasbasbag49
(g65
g51
NtRp3227
(dp3228
g54
(dp3229
sg63
g2868
sg56
(lp3230
g49
(g70
g51
NtRp3231
(dp3232
g54
(dp3233
g74
g75
ssg63
g3227
sg56
(lp3234
S'last_query'
p3235
asbag49
(g70
g51
NtRp3236
(dp3237
g54
(dp3238
g81
g82
ssg63
g3227
sg56
(lp3239
S':'
asbag49
(g70
g51
NtRp3240
(dp3241
g54
(dp3242
sg63
g3227
sg56
(lp3243
g49
(g50
g51
NtRp3244
(dp3245
g54
(dp3246
g62
I5
ssg63
g3240
sg56
(lp3247
S'db.pin.id>0'
p3248
asbasbasbasbasbsS'etype'
p3249
S"<type 'exceptions.NameError'>"
p3250
sS'date'
p3251
S'Mon Mar 19 18:40:41 2012'
p3252
sS'response'
p3253
g49
(g50
g51
NtRp3254
(dp3255
g54
(dp3256
sg56
(lp3257
g49
(g58
g51
NtRp3258
(dp3259
g54
(dp3260
g62
I5
ssg63
Nsg56
(lp3261
g49
(g65
g51
NtRp3262
(dp3263
g54
(dp3264
sg63
g3258
sg56
(lp3265
g49
(g70
g51
NtRp3266
(dp3267
g54
(dp3268
g74
g75
ssg63
g3262
sg56
(lp3269
g147
asbag49
(g70
g51
NtRp3270
(dp3271
g54
(dp3272
g81
g82
ssg63
g3262
sg56
(lp3273
S':'
asbag49
(g70
g51
NtRp3274
(dp3275
g54
(dp3276
sg63
g3262
sg56
(lp3277
g49
(g50
g51
NtRp3278
(dp3279
g54
(dp3280
g62
I5
ssg63
g3274
sg56
(lp3281
S'<cStringIO.StringO object at 0xaae2d60>'
p3282
asbasbasbag49
(g65
g51
NtRp3283
(dp3284
g54
(dp3285
sg63
g3258
sg56
(lp3286
g49
(g70
g51
NtRp3287
(dp3288
g54
(dp3289
g74
g75
ssg63
g3283
sg56
(lp3290
g213
asbag49
(g70
g51
NtRp3291
(dp3292
g54
(dp3293
g81
g82
ssg63
g3283
sg56
(lp3294
S':'
asbag49
(g70
g51
NtRp3295
(dp3296
g54
(dp3297
sg63
g3283
sg56
(lp3298
g49
(g50
g51
NtRp3299
(dp3300
g54
(dp3301
g62
I5
ssg63
g3295
sg56
(lp3302
g49
(g58
g51
NtRp3303
(dp3304
g54
(dp3305
g62
I4
ssg63
Nsg56
(lp3306
g49
(g65
g51
NtRp3307
(dp3308
g54
(dp3309
sg63
g3303
sg56
(lp3310
g49
(g70
g51
NtRp3311
(dp3312
g54
(dp3313
g74
g75
ssg63
g3307
sg56
(lp3314
S'session_id_udi0312'
p3315
asbag49
(g70
g51
NtRp3316
(dp3317
g54
(dp3318
g81
g82
ssg63
g3307
sg56
(lp3319
S':'
asbag49
(g70
g51
NtRp3320
(dp3321
g54
(dp3322
sg63
g3307
sg56
(lp3323
g49
(g50
g51
NtRp3324
(dp3325
g54
(dp3326
g62
I4
ssg63
g3320
sg56
(lp3327
g49
(g58
g51
NtRp3328
(dp3329
g54
(dp3330
g62
I3
ssg63
Nsg56
(lp3331
g49
(g65
g51
NtRp3332
(dp3333
g54
(dp3334
sg63
g3328
sg56
(lp3335
g49
(g70
g51
NtRp3336
(dp3337
g54
(dp3338
g74
g75
ssg63
g3332
sg56
(lp3339
g263
asbag49
(g70
g51
NtRp3340
(dp3341
g54
(dp3342
g81
g82
ssg63
g3332
sg56
(lp3343
S':'
asbag49
(g70
g51
NtRp3344
(dp3345
g54
(dp3346
sg63
g3332
sg56
(lp3347
g49
(g50
g51
NtRp3348
(dp3349
g54
(dp3350
g62
I3
ssg63
g3344
sg56
(lp3351
S''
asbasbasbag49
(g65
g51
NtRp3352
(dp3353
g54
(dp3354
sg63
g3328
sg56
(lp3355
g49
(g70
g51
NtRp3356
(dp3357
g54
(dp3358
g74
g75
ssg63
g3352
sg56
(lp3359
g284
asbag49
(g70
g51
NtRp3360
(dp3361
g54
(dp3362
g81
g82
ssg63
g3352
sg56
(lp3363
S':'
asbag49
(g70
g51
NtRp3364
(dp3365
g54
(dp3366
sg63
g3352
sg56
(lp3367
g49
(g50
g51
NtRp3368
(dp3369
g54
(dp3370
g62
I3
ssg63
g3364
sg56
(lp3371
S''
asbasbasbag49
(g65
g51
NtRp3372
(dp3373
g54
(dp3374
sg63
g3328
sg56
(lp3375
g49
(g70
g51
NtRp3376
(dp3377
g54
(dp3378
g74
g75
ssg63
g3372
sg56
(lp3379
g305
asbag49
(g70
g51
NtRp3380
(dp3381
g54
(dp3382
g81
g82
ssg63
g3372
sg56
(lp3383
S':'
asbag49
(g70
g51
NtRp3384
(dp3385
g54
(dp3386
sg63
g3372
sg56
(lp3387
g49
(g50
g51
NtRp3388
(dp3389
g54
(dp3390
g62
I3
ssg63
g3384
sg56
(lp3391
S'2592000'
p3392
asbasbasbag49
(g65
g51
NtRp3393
(dp3394
g54
(dp3395
sg63
g3328
sg56
(lp3396
g49
(g70
g51
NtRp3397
(dp3398
g54
(dp3399
g74
g75
ssg63
g3393
sg56
(lp3400
g326
asbag49
(g70
g51
NtRp3401
(dp3402
g54
(dp3403
g81
g82
ssg63
g3393
sg56
(lp3404
S':'
asbag49
(g70
g51
NtRp3405
(dp3406
g54
(dp3407
sg63
g3393
sg56
(lp3408
g49
(g50
g51
NtRp3409
(dp3410
g54
(dp3411
g62
I3
ssg63
g3405
sg56
(lp3412
S''
asbasbasbag49
(g65
g51
NtRp3413
(dp3414
g54
(dp3415
sg63
g3328
sg56
(lp3416
g49
(g70
g51
NtRp3417
(dp3418
g54
(dp3419
g74
g75
ssg63
g3413
sg56
(lp3420
g347
asbag49
(g70
g51
NtRp3421
(dp3422
g54
(dp3423
g81
g82
ssg63
g3413
sg56
(lp3424
S':'
asbag49
(g70
g51
NtRp3425
(dp3426
g54
(dp3427
sg63
g3413
sg56
(lp3428
g49
(g50
g51
NtRp3429
(dp3430
g54
(dp3431
g62
I3
ssg63
g3425
sg56
(lp3432
S'/'
asbasbasbag49
(g65
g51
NtRp3433
(dp3434
g54
(dp3435
sg63
g3328
sg56
(lp3436
g49
(g70
g51
NtRp3437
(dp3438
g54
(dp3439
g74
g75
ssg63
g3433
sg56
(lp3440
g368
asbag49
(g70
g51
NtRp3441
(dp3442
g54
(dp3443
g81
g82
ssg63
g3433
sg56
(lp3444
S':'
asbag49
(g70
g51
NtRp3445
(dp3446
g54
(dp3447
sg63
g3433
sg56
(lp3448
g49
(g50
g51
NtRp3449
(dp3450
g54
(dp3451
g62
I3
ssg63
g3445
sg56
(lp3452
S''
asbasbasbag49
(g65
g51
NtRp3453
(dp3454
g54
(dp3455
sg63
g3328
sg56
(lp3456
g49
(g70
g51
NtRp3457
(dp3458
g54
(dp3459
g74
g75
ssg63
g3453
sg56
(lp3460
g389
asbag49
(g70
g51
NtRp3461
(dp3462
g54
(dp3463
g81
g82
ssg63
g3453
sg56
(lp3464
S':'
asbag49
(g70
g51
NtRp3465
(dp3466
g54
(dp3467
sg63
g3453
sg56
(lp3468
g49
(g50
g51
NtRp3469
(dp3470
g54
(dp3471
g62
I3
ssg63
g3465
sg56
(lp3472
S''
asbasbasbasbasbasbasbasbasbasbasbag49
(g65
g51
NtRp3473
(dp3474
g54
(dp3475
sg63
g3258
sg56
(lp3476
g49
(g70
g51
NtRp3477
(dp3478
g54
(dp3479
g74
g75
ssg63
g3473
sg56
(lp3480
S'delimiters'
p3481
asbag49
(g70
g51
NtRp3482
(dp3483
g54
(dp3484
g81
g82
ssg63
g3473
sg56
(lp3485
S':'
asbag49
(g70
g51
NtRp3486
(dp3487
g54
(dp3488
sg63
g3473
sg56
(lp3489
g49
(g50
g51
NtRp3490
(dp3491
g54
(dp3492
g62
I5
ssg63
g3486
sg56
(lp3493
g49
(g58
g51
NtRp3494
(dp3495
g54
(dp3496
g62
I4
ssg63
Nsg56
(lp3497
g49
(g65
g51
NtRp3498
(dp3499
g54
(dp3500
sg63
g3494
sg56
(lp3501
g49
(g70
g51
NtRp3502
(dp3503
g54
(dp3504
sg63
g3498
sg56
(lp3505
g49
(g50
g51
NtRp3506
(dp3507
g54
(dp3508
g62
I4
ssg63
g3502
sg56
(lp3509
S'{{'
p3510
asbasbasbag49
(g65
g51
NtRp3511
(dp3512
g54
(dp3513
sg63
g3494
sg56
(lp3514
g49
(g70
g51
NtRp3515
(dp3516
g54
(dp3517
sg63
g3511
sg56
(lp3518
g49
(g50
g51
NtRp3519
(dp3520
g54
(dp3521
g62
I4
ssg63
g3515
sg56
(lp3522
S'}}'
p3523
asbasbasbasbasbasbasbag49
(g65
g51
NtRp3524
(dp3525
g54
(dp3526
sg63
g3258
sg56
(lp3527
g49
(g70
g51
NtRp3528
(dp3529
g54
(dp3530
g74
g75
ssg63
g3524
sg56
(lp3531
S'files'
p3532
asbag49
(g70
g51
NtRp3533
(dp3534
g54
(dp3535
g81
g82
ssg63
g3524
sg56
(lp3536
S':'
asbag49
(g70
g51
NtRp3537
(dp3538
g54
(dp3539
sg63
g3524
sg56
(lp3540
g49
(g50
g51
NtRp3541
(dp3542
g54
(dp3543
g62
I5
ssg63
g3537
sg56
(lp3544
g49
(g58
g51
NtRp3545
(dp3546
g54
(dp3547
g62
I4
ssg63
Nsg56
(lp3548
sbasbasbasbag49
(g65
g51
NtRp3549
(dp3550
g54
(dp3551
sg63
g3258
sg56
(lp3552
g49
(g70
g51
NtRp3553
(dp3554
g54
(dp3555
g74
g75
ssg63
g3549
sg56
(lp3556
S'flash'
p3557
asbag49
(g70
g51
NtRp3558
(dp3559
g54
(dp3560
g81
g82
ssg63
g3549
sg56
(lp3561
S':'
asbag49
(g70
g51
NtRp3562
(dp3563
g54
(dp3564
sg63
g3549
sg56
(lp3565
g49
(g50
g51
NtRp3566
(dp3567
g54
(dp3568
g62
I5
ssg63
g3562
sg56
(lp3569
S''
asbasbasbag49
(g65
g51
NtRp3570
(dp3571
g54
(dp3572
sg63
g3258
sg56
(lp3573
g49
(g70
g51
NtRp3574
(dp3575
g54
(dp3576
g74
g75
ssg63
g3570
sg56
(lp3577
S'generic_patterns'
p3578
asbag49
(g70
g51
NtRp3579
(dp3580
g54
(dp3581
g81
g82
ssg63
g3570
sg56
(lp3582
S':'
asbag49
(g70
g51
NtRp3583
(dp3584
g54
(dp3585
sg63
g3570
sg56
(lp3586
g49
(g50
g51
NtRp3587
(dp3588
g54
(dp3589
g62
I5
ssg63
g3583
sg56
(lp3590
g49
(g58
g51
NtRp3591
(dp3592
g54
(dp3593
g62
I4
ssg63
Nsg56
(lp3594
g49
(g65
g51
NtRp3595
(dp3596
g54
(dp3597
sg63
g3591
sg56
(lp3598
g49
(g70
g51
NtRp3599
(dp3600
g54
(dp3601
sg63
g3595
sg56
(lp3602
g49
(g50
g51
NtRp3603
(dp3604
g54
(dp3605
g62
I4
ssg63
g3599
sg56
(lp3606
S'*'
asbasbasbasbasbasbasbag49
(g65
g51
NtRp3607
(dp3608
g54
(dp3609
sg63
g3258
sg56
(lp3610
g49
(g70
g51
NtRp3611
(dp3612
g54
(dp3613
g74
g75
ssg63
g3607
sg56
(lp3614
S'headers'
p3615
asbag49
(g70
g51
NtRp3616
(dp3617
g54
(dp3618
g81
g82
ssg63
g3607
sg56
(lp3619
S':'
asbag49
(g70
g51
NtRp3620
(dp3621
g54
(dp3622
sg63
g3607
sg56
(lp3623
g49
(g50
g51
NtRp3624
(dp3625
g54
(dp3626
g62
I5
ssg63
g3620
sg56
(lp3627
g49
(g58
g51
NtRp3628
(dp3629
g54
(dp3630
g62
I4
ssg63
Nsg56
(lp3631
g49
(g65
g51
NtRp3632
(dp3633
g54
(dp3634
sg63
g3628
sg56
(lp3635
g49
(g70
g51
NtRp3636
(dp3637
g54
(dp3638
g74
g75
ssg63
g3632
sg56
(lp3639
S'Cache-Control'
p3640
asbag49
(g70
g51
NtRp3641
(dp3642
g54
(dp3643
g81
g82
ssg63
g3632
sg56
(lp3644
S':'
asbag49
(g70
g51
NtRp3645
(dp3646
g54
(dp3647
sg63
g3632
sg56
(lp3648
g49
(g50
g51
NtRp3649
(dp3650
g54
(dp3651
g62
I4
ssg63
g3645
sg56
(lp3652
S'no-store, no-cache, must-revalidate, post-check=0, pre-check=0'
p3653
asbasbasbag49
(g65
g51
NtRp3654
(dp3655
g54
(dp3656
sg63
g3628
sg56
(lp3657
g49
(g70
g51
NtRp3658
(dp3659
g54
(dp3660
g74
g75
ssg63
g3654
sg56
(lp3661
S'Content-Type'
p3662
asbag49
(g70
g51
NtRp3663
(dp3664
g54
(dp3665
g81
g82
ssg63
g3654
sg56
(lp3666
S':'
asbag49
(g70
g51
NtRp3667
(dp3668
g54
(dp3669
sg63
g3654
sg56
(lp3670
g49
(g50
g51
NtRp3671
(dp3672
g54
(dp3673
g62
I4
ssg63
g3667
sg56
(lp3674
S'text/html; charset=utf-8'
p3675
asbasbasbag49
(g65
g51
NtRp3676
(dp3677
g54
(dp3678
sg63
g3628
sg56
(lp3679
g49
(g70
g51
NtRp3680
(dp3681
g54
(dp3682
g74
g75
ssg63
g3676
sg56
(lp3683
S'Expires'
p3684
asbag49
(g70
g51
NtRp3685
(dp3686
g54
(dp3687
g81
g82
ssg63
g3676
sg56
(lp3688
S':'
asbag49
(g70
g51
NtRp3689
(dp3690
g54
(dp3691
sg63
g3676
sg56
(lp3692
g49
(g50
g51
NtRp3693
(dp3694
g54
(dp3695
g62
I4
ssg63
g3689
sg56
(lp3696
S'Mon, 19 Mar 2012 22:40:41 GMT'
p3697
asbasbasbag49
(g65
g51
NtRp3698
(dp3699
g54
(dp3700
sg63
g3628
sg56
(lp3701
g49
(g70
g51
NtRp3702
(dp3703
g54
(dp3704
g74
g75
ssg63
g3698
sg56
(lp3705
S'Pragma'
p3706
asbag49
(g70
g51
NtRp3707
(dp3708
g54
(dp3709
g81
g82
ssg63
g3698
sg56
(lp3710
S':'
asbag49
(g70
g51
NtRp3711
(dp3712
g54
(dp3713
sg63
g3698
sg56
(lp3714
g49
(g50
g51
NtRp3715
(dp3716
g54
(dp3717
g62
I4
ssg63
g3711
sg56
(lp3718
S'no-cache'
p3719
asbasbasbag49
(g65
g51
NtRp3720
(dp3721
g54
(dp3722
sg63
g3628
sg56
(lp3723
g49
(g70
g51
NtRp3724
(dp3725
g54
(dp3726
g74
g75
ssg63
g3720
sg56
(lp3727
S'X-Powered-By'
p3728
asbag49
(g70
g51
NtRp3729
(dp3730
g54
(dp3731
g81
g82
ssg63
g3720
sg56
(lp3732
S':'
asbag49
(g70
g51
NtRp3733
(dp3734
g54
(dp3735
sg63
g3720
sg56
(lp3736
g49
(g50
g51
NtRp3737
(dp3738
g54
(dp3739
g62
I4
ssg63
g3733
sg56
(lp3740
S'web2py'
p3741
asbasbasbasbasbasbasbag49
(g65
g51
NtRp3742
(dp3743
g54
(dp3744
sg63
g3258
sg56
(lp3745
g49
(g70
g51
NtRp3746
(dp3747
g54
(dp3748
g74
g75
ssg63
g3742
sg56
(lp3749
S'menu'
p3750
asbag49
(g70
g51
NtRp3751
(dp3752
g54
(dp3753
g81
g82
ssg63
g3742
sg56
(lp3754
S':'
asbag49
(g70
g51
NtRp3755
(dp3756
g54
(dp3757
sg63
g3742
sg56
(lp3758
g49
(g50
g51
NtRp3759
(dp3760
g54
(dp3761
g62
I5
ssg63
g3755
sg56
(lp3762
g49
(g58
g51
NtRp3763
(dp3764
g54
(dp3765
g62
I4
ssg63
Nsg56
(lp3766
g49
(g65
g51
NtRp3767
(dp3768
g54
(dp3769
sg63
g3763
sg56
(lp3770
g49
(g70
g51
NtRp3771
(dp3772
g54
(dp3773
sg63
g3767
sg56
(lp3774
g49
(g50
g51
NtRp3775
(dp3776
g54
(dp3777
g62
I4
ssg63
g3771
sg56
(lp3778
g49
(g58
g51
NtRp3779
(dp3780
g54
(dp3781
g62
I3
ssg63
Nsg56
(lp3782
g49
(g65
g51
NtRp3783
(dp3784
g54
(dp3785
sg63
g3779
sg56
(lp3786
g49
(g70
g51
NtRp3787
(dp3788
g54
(dp3789
sg63
g3783
sg56
(lp3790
g49
(g50
g51
NtRp3791
(dp3792
g54
(dp3793
g62
I3
ssg63
g3787
sg56
(lp3794
cgluon.languages
lazyT_unpickle
p3795
(S's\x04\x00\x00\x00Home'
tRp3796
asbasbasbag49
(g65
g51
NtRp3797
(dp3798
g54
(dp3799
sg63
g3779
sg56
(lp3800
g49
(g70
g51
NtRp3801
(dp3802
g54
(dp3803
sg63
g3797
sg56
(lp3804
g49
(g50
g51
NtRp3805
(dp3806
g54
(dp3807
g62
I3
ssg63
g3801
sg56
(lp3808
g92
asbasbasbag49
(g65
g51
NtRp3809
(dp3810
g54
(dp3811
sg63
g3779
sg56
(lp3812
g49
(g70
g51
NtRp3813
(dp3814
g54
(dp3815
sg63
g3809
sg56
(lp3816
g49
(g50
g51
NtRp3817
(dp3818
g54
(dp3819
g62
I3
ssg63
g3813
sg56
(lp3820
S'/'
asbasbasbag49
(g65
g51
NtRp3821
(dp3822
g54
(dp3823
sg63
g3779
sg56
(lp3824
g49
(g70
g51
NtRp3825
(dp3826
g54
(dp3827
sg63
g3821
sg56
(lp3828
g49
(g50
g51
NtRp3829
(dp3830
g54
(dp3831
g62
I3
ssg63
g3825
sg56
(lp3832
g49
(g58
g51
NtRp3833
(dp3834
g54
(dp3835
g62
I2
ssg63
Nsg56
(lp3836
sbasbasbasbasbasbasbasbag49
(g65
g51
NtRp3837
(dp3838
g54
(dp3839
sg63
g3763
sg56
(lp3840
g49
(g70
g51
NtRp3841
(dp3842
g54
(dp3843
sg63
g3837
sg56
(lp3844
g49
(g50
g51
NtRp3845
(dp3846
g54
(dp3847
g62
I4
ssg63
g3841
sg56
(lp3848
g49
(g58
g51
NtRp3849
(dp3850
g54
(dp3851
g62
I3
ssg63
Nsg56
(lp3852
g49
(g65
g51
NtRp3853
(dp3854
g54
(dp3855
sg63
g3849
sg56
(lp3856
g49
(g70
g51
NtRp3857
(dp3858
g54
(dp3859
sg63
g3853
sg56
(lp3860
g49
(g50
g51
NtRp3861
(dp3862
g54
(dp3863
g62
I3
ssg63
g3857
sg56
(lp3864
g49
(cgluon.html
SPAN
p3865
g51
NtRp3866
(dp3867
g54
(dp3868
g74
S'color:yellow'
p3869
ssg63
Nsg56
(lp3870
g3741
asbasbasbasbag49
(g65
g51
NtRp3871
(dp3872
g54
(dp3873
sg63
g3849
sg56
(lp3874
g49
(g70
g51
NtRp3875
(dp3876
g54
(dp3877
sg63
g3871
sg56
(lp3878
g49
(g50
g51
NtRp3879
(dp3880
g54
(dp3881
g62
I3
ssg63
g3875
sg56
(lp3882
g92
asbasbasbag49
(g65
g51
NtRp3883
(dp3884
g54
(dp3885
sg63
g3849
sg56
(lp3886
g49
(g70
g51
NtRp3887
(dp3888
g54
(dp3889
sg63
g3883
sg56
(lp3890
g49
(g50
g51
NtRp3891
(dp3892
g54
(dp3893
g62
I3
ssg63
g3887
sg56
(lp3894
S'None'
p3895
asbasbasbag49
(g65
g51
NtRp3896
(dp3897
g54
(dp3898
sg63
g3849
sg56
(lp3899
g49
(g70
g51
NtRp3900
(dp3901
g54
(dp3902
sg63
g3896
sg56
(lp3903
g49
(g50
g51
NtRp3904
(dp3905
g54
(dp3906
g62
I3
ssg63
g3900
sg56
(lp3907
g49
(g58
g51
NtRp3908
(dp3909
g54
(dp3910
g62
I2
ssg63
Nsg56
(lp3911
g49
(g65
g51
NtRp3912
(dp3913
g54
(dp3914
sg63
g3908
sg56
(lp3915
g49
(g70
g51
NtRp3916
(dp3917
g54
(dp3918
sg63
g3912
sg56
(lp3919
g49
(g50
g51
NtRp3920
(dp3921
g54
(dp3922
g62
I2
ssg63
g3916
sg56
(lp3923
g49
(g58
g51
NtRp3924
(dp3925
g54
(dp3926
g62
I1
ssg63
Nsg56
(lp3927
g49
(g65
g51
NtRp3928
(dp3929
g54
(dp3930
sg63
g3924
sg56
(lp3931
g49
(g70
g51
NtRp3932
(dp3933
g54
(dp3934
sg63
g3928
sg56
(lp3935
g49
(g50
g51
NtRp3936
(dp3937
g54
(dp3938
g62
I1
ssg63
g3932
sg56
(lp3939
g3795
(S's\x08\x00\x00\x00My Sites'
tRp3940
asbasbasbag49
(g65
g51
NtRp3941
(dp3942
g54
(dp3943
sg63
g3924
sg56
(lp3944
g49
(g70
g51
NtRp3945
(dp3946
g54
(dp3947
sg63
g3941
sg56
(lp3948
g49
(g50
g51
NtRp3949
(dp3950
g54
(dp3951
g62
I1
ssg63
g3945
sg56
(lp3952
I00
asbasbasbag49
(g65
g51
NtRp3953
(dp3954
g54
(dp3955
sg63
g3924
sg56
(lp3956
g49
(g70
g51
NtRp3957
(dp3958
g54
(dp3959
sg63
g3953
sg56
(lp3960
g49
(g50
g51
NtRp3961
(dp3962
g54
(dp3963
g62
I1
ssg63
g3957
sg56
(lp3964
S'/admin/site'
p3965
asbasbasbasbasbasbasbag49
(g65
g51
NtRp3966
(dp3967
g54
(dp3968
sg63
g3908
sg56
(lp3969
g49
(g70
g51
NtRp3970
(dp3971
g54
(dp3972
sg63
g3966
sg56
(lp3973
g49
(g50
g51
NtRp3974
(dp3975
g54
(dp3976
g62
I2
ssg63
g3970
sg56
(lp3977
g49
(g58
g51
NtRp3978
(dp3979
g54
(dp3980
g62
I1
ssg63
Nsg56
(lp3981
g49
(g65
g51
NtRp3982
(dp3983
g54
(dp3984
sg63
g3978
sg56
(lp3985
g49
(g70
g51
NtRp3986
(dp3987
g54
(dp3988
sg63
g3982
sg56
(lp3989
g49
(g50
g51
NtRp3990
(dp3991
g54
(dp3992
g62
I1
ssg63
g3986
sg56
(lp3993
g3795
(S's\x08\x00\x00\x00This App'
tRp3994
asbasbasbag49
(g65
g51
NtRp3995
(dp3996
g54
(dp3997
sg63
g3978
sg56
(lp3998
g49
(g70
g51
NtRp3999
(dp4000
g54
(dp4001
sg63
g3995
sg56
(lp4002
g49
(g50
g51
NtRp4003
(dp4004
g54
(dp4005
g62
I1
ssg63
g3999
sg56
(lp4006
I00
asbasbasbag49
(g65
g51
NtRp4007
(dp4008
g54
(dp4009
sg63
g3978
sg56
(lp4010
g49
(g70
g51
NtRp4011
(dp4012
g54
(dp4013
sg63
g4007
sg56
(lp4014
g49
(g50
g51
NtRp4015
(dp4016
g54
(dp4017
g62
I1
ssg63
g4011
sg56
(lp4018
S'/admin/design/udi0312'
p4019
asbasbasbag49
(g65
g51
NtRp4020
(dp4021
g54
(dp4022
sg63
g3978
sg56
(lp4023
g49
(g70
g51
NtRp4024
(dp4025
g54
(dp4026
sg63
g4020
sg56
(lp4027
g49
(g50
g51
NtRp4028
(dp4029
g54
(dp4030
g62
I1
ssg63
g4024
sg56
(lp4031
(lp4032
(g3795
(S's\n\x00\x00\x00Controller'
tRp4033
I00
S'/admin/edit/udi0312/controllers/boards.py'
tp4034
a(g3795
(S's\x04\x00\x00\x00View'
tRp4035
I00
S'/admin/edit/udi0312/views/boards/index.html'
tp4036
a(g3795
(S's\x06\x00\x00\x00Layout'
tRp4037
I00
S'/admin/edit/udi0312/views/layout.html'
tp4038
a(g3795
(S's\n\x00\x00\x00Stylesheet'
tRp4039
I00
S'/admin/edit/udi0312/static/css/web2py.css'
tp4040
a(g3795
(S's\x08\x00\x00\x00DB Model'
tRp4041
I00
S'/admin/edit/udi0312/models/db.py'
tp4042
a(g3795
(S's\n\x00\x00\x00Menu Model'
tRp4043
I00
S'/admin/edit/udi0312/models/menu.py'
tp4044
a(g3795
(S's\x08\x00\x00\x00Database'
tRp4045
I00
S'/appadmin'
tp4046
a(g3795
(S's\x06\x00\x00\x00Errors'
tRp4047
I00
S'/admin/errors/udi0312'
tp4048
a(g3795
(S's\x05\x00\x00\x00About'
tRp4049
I00
S'/admin/about/udi0312'
tp4050
aasbasbasbasbasbasbasbag49
(g65
g51
NtRp4051
(dp4052
g54
(dp4053
sg63
g3908
sg56
(lp4054
g49
(g70
g51
NtRp4055
(dp4056
g54
(dp4057
sg63
g4051
sg56
(lp4058
g49
(g50
g51
NtRp4059
(dp4060
g54
(dp4061
g62
I2
ssg63
g4055
sg56
(lp4062
g49
(g58
g51
NtRp4063
(dp4064
g54
(dp4065
g62
I1
ssg63
Nsg56
(lp4066
g49
(g65
g51
NtRp4067
(dp4068
g54
(dp4069
sg63
g4063
sg56
(lp4070
g49
(g70
g51
NtRp4071
(dp4072
g54
(dp4073
sg63
g4067
sg56
(lp4074
g49
(g50
g51
NtRp4075
(dp4076
g54
(dp4077
g62
I1
ssg63
g4071
sg56
(lp4078
S'web2py.com'
p4079
asbasbasbag49
(g65
g51
NtRp4080
(dp4081
g54
(dp4082
sg63
g4063
sg56
(lp4083
g49
(g70
g51
NtRp4084
(dp4085
g54
(dp4086
sg63
g4080
sg56
(lp4087
g49
(g50
g51
NtRp4088
(dp4089
g54
(dp4090
g62
I1
ssg63
g4084
sg56
(lp4091
I00
asbasbasbag49
(g65
g51
NtRp4092
(dp4093
g54
(dp4094
sg63
g4063
sg56
(lp4095
g49
(g70
g51
NtRp4096
(dp4097
g54
(dp4098
sg63
g4092
sg56
(lp4099
g49
(g50
g51
NtRp4100
(dp4101
g54
(dp4102
g62
I1
ssg63
g4096
sg56
(lp4103
S'http://www.web2py.com'
p4104
asbasbasbag49
(g65
g51
NtRp4105
(dp4106
g54
(dp4107
sg63
g4063
sg56
(lp4108
g49
(g70
g51
NtRp4109
(dp4110
g54
(dp4111
sg63
g4105
sg56
(lp4112
g49
(g50
g51
NtRp4113
(dp4114
g54
(dp4115
g62
I1
ssg63
g4109
sg56
(lp4116
(lp4117
(g3795
(S's\x08\x00\x00\x00Download'
tRp4118
I00
S'http://www.web2py.com/examples/default/download'
p4119
tp4120
a(g3795
(S's\x07\x00\x00\x00Support'
tRp4121
I00
S'http://www.web2py.com/examples/default/support'
p4122
tp4123
a(g3795
(S's\x04\x00\x00\x00Demo'
tRp4124
I00
S'http://web2py.com/demo_admin'
p4125
tp4126
a(g3795
(S's\x0e\x00\x00\x00Quick Examples'
tRp4127
I00
S'http://web2py.com/examples/default/examples'
p4128
tp4129
a(g3795
(S's\x03\x00\x00\x00FAQ'
tRp4130
I00
S'http://web2py.com/AlterEgo'
p4131
tp4132
a(g3795
(S's\x06\x00\x00\x00Videos'
tRp4133
I00
S'http://www.web2py.com/examples/default/videos/'
p4134
tp4135
a(g3795
(S's\x11\x00\x00\x00Free Applications'
tRp4136
I00
S'http://web2py.com/appliances'
p4137
tp4138
a(g3795
(S's\x07\x00\x00\x00Plugins'
tRp4139
I00
S'http://web2py.com/plugins'
p4140
tp4141
a(g3795
(S's\x07\x00\x00\x00Layouts'
tRp4142
I00
S'http://web2py.com/layouts'
p4143
tp4144
a(g3795
(S's\x07\x00\x00\x00Recipes'
tRp4145
I00
S'http://web2pyslices.com/'
p4146
tp4147
a(g3795
(S's\x08\x00\x00\x00Semantic'
tRp4148
I00
S'http://web2py.com/semantic'
p4149
tp4150
aasbasbasbasbasbasbasbag49
(g65
g51
NtRp4151
(dp4152
g54
(dp4153
sg63
g3908
sg56
(lp4154
g49
(g70
g51
NtRp4155
(dp4156
g54
(dp4157
sg63
g4151
sg56
(lp4158
g49
(g50
g51
NtRp4159
(dp4160
g54
(dp4161
g62
I2
ssg63
g4155
sg56
(lp4162
g49
(g58
g51
NtRp4163
(dp4164
g54
(dp4165
g62
I1
ssg63
Nsg56
(lp4166
g49
(g65
g51
NtRp4167
(dp4168
g54
(dp4169
sg63
g4163
sg56
(lp4170
g49
(g70
g51
NtRp4171
(dp4172
g54
(dp4173
sg63
g4167
sg56
(lp4174
g49
(g50
g51
NtRp4175
(dp4176
g54
(dp4177
g62
I1
ssg63
g4171
sg56
(lp4178
g3795
(S's\r\x00\x00\x00Documentation'
tRp4179
asbasbasbag49
(g65
g51
NtRp4180
(dp4181
g54
(dp4182
sg63
g4163
sg56
(lp4183
g49
(g70
g51
NtRp4184
(dp4185
g54
(dp4186
sg63
g4180
sg56
(lp4187
g49
(g50
g51
NtRp4188
(dp4189
g54
(dp4190
g62
I1
ssg63
g4184
sg56
(lp4191
I00
asbasbasbag49
(g65
g51
NtRp4192
(dp4193
g54
(dp4194
sg63
g4163
sg56
(lp4195
g49
(g70
g51
NtRp4196
(dp4197
g54
(dp4198
sg63
g4192
sg56
(lp4199
g49
(g50
g51
NtRp4200
(dp4201
g54
(dp4202
g62
I1
ssg63
g4196
sg56
(lp4203
S'http://www.web2py.com/book'
p4204
asbasbasbag49
(g65
g51
NtRp4205
(dp4206
g54
(dp4207
sg63
g4163
sg56
(lp4208
g49
(g70
g51
NtRp4209
(dp4210
g54
(dp4211
sg63
g4205
sg56
(lp4212
g49
(g50
g51
NtRp4213
(dp4214
g54
(dp4215
g62
I1
ssg63
g4209
sg56
(lp4216
(lp4217
(g3795
(S's\x07\x00\x00\x00Preface'
tRp4218
I00
S'http://www.web2py.com/book/default/chapter/00'
p4219
tp4220
a(g3795
(S's\x0c\x00\x00\x00Introduction'
tRp4221
I00
S'http://www.web2py.com/book/default/chapter/01'
p4222
tp4223
a(g3795
(S's\x06\x00\x00\x00Python'
tRp4224
I00
S'http://www.web2py.com/book/default/chapter/02'
p4225
tp4226
a(g3795
(S's\x08\x00\x00\x00Overview'
tRp4227
I00
S'http://www.web2py.com/book/default/chapter/03'
p4228
tp4229
a(g3795
(S's\x08\x00\x00\x00The Core'
tRp4230
I00
S'http://www.web2py.com/book/default/chapter/04'
p4231
tp4232
a(g3795
(S's\t\x00\x00\x00The Views'
tRp4233
I00
S'http://www.web2py.com/book/default/chapter/05'
p4234
tp4235
a(g3795
(S's\x08\x00\x00\x00Database'
tRp4236
I00
S'http://www.web2py.com/book/default/chapter/06'
p4237
tp4238
a(g3795
(S's\x14\x00\x00\x00Forms and Validators'
tRp4239
I00
S'http://www.web2py.com/book/default/chapter/07'
p4240
tp4241
a(g3795
(S's\r\x00\x00\x00Email and SMS'
tRp4242
I00
S'http://www.web2py.com/book/default/chapter/08'
p4243
tp4244
a(g3795
(S's\x0e\x00\x00\x00Access Control'
tRp4245
I00
S'http://www.web2py.com/book/default/chapter/09'
p4246
tp4247
a(g3795
(S's\x08\x00\x00\x00Services'
tRp4248
I00
S'http://www.web2py.com/book/default/chapter/10'
p4249
tp4250
a(g3795
(S's\x0c\x00\x00\x00Ajax Recipes'
tRp4251
I00
S'http://www.web2py.com/book/default/chapter/11'
p4252
tp4253
a(g3795
(S's\x16\x00\x00\x00Components and Plugins'
tRp4254
I00
S'http://www.web2py.com/book/default/chapter/12'
p4255
tp4256
a(g3795
(S's\x12\x00\x00\x00Deployment Recipes'
tRp4257
I00
S'http://www.web2py.com/book/default/chapter/13'
p4258
tp4259
a(g3795
(S's\r\x00\x00\x00Other Recipes'
tRp4260
I00
S'http://www.web2py.com/book/default/chapter/14'
p4261
tp4262
a(g3795
(S's\r\x00\x00\x00Buy this book'
tRp4263
I00
S'http://stores.lulu.com/web2py'
p4264
tp4265
aasbasbasbasbasbasbasbag49
(g65
g51
NtRp4266
(dp4267
g54
(dp4268
sg63
g3908
sg56
(lp4269
g49
(g70
g51
NtRp4270
(dp4271
g54
(dp4272
sg63
g4266
sg56
(lp4273
g49
(g50
g51
NtRp4274
(dp4275
g54
(dp4276
g62
I2
ssg63
g4270
sg56
(lp4277
g49
(g58
g51
NtRp4278
(dp4279
g54
(dp4280
g62
I1
ssg63
Nsg56
(lp4281
g49
(g65
g51
NtRp4282
(dp4283
g54
(dp4284
sg63
g4278
sg56
(lp4285
g49
(g70
g51
NtRp4286
(dp4287
g54
(dp4288
sg63
g4282
sg56
(lp4289
g49
(g50
g51
NtRp4290
(dp4291
g54
(dp4292
g62
I1
ssg63
g4286
sg56
(lp4293
g3795
(S's\t\x00\x00\x00Community'
tRp4294
asbasbasbag49
(g65
g51
NtRp4295
(dp4296
g54
(dp4297
sg63
g4278
sg56
(lp4298
g49
(g70
g51
NtRp4299
(dp4300
g54
(dp4301
sg63
g4295
sg56
(lp4302
g49
(g50
g51
NtRp4303
(dp4304
g54
(dp4305
g62
I1
ssg63
g4299
sg56
(lp4306
I00
asbasbasbag49
(g65
g51
NtRp4307
(dp4308
g54
(dp4309
sg63
g4278
sg56
(lp4310
g49
(g70
g51
NtRp4311
(dp4312
g54
(dp4313
sg63
g4307
sg56
(lp4314
g49
(g50
g51
NtRp4315
(dp4316
g54
(dp4317
g62
I1
ssg63
g4311
sg56
(lp4318
Nasbasbasbag49
(g65
g51
NtRp4319
(dp4320
g54
(dp4321
sg63
g4278
sg56
(lp4322
g49
(g70
g51
NtRp4323
(dp4324
g54
(dp4325
sg63
g4319
sg56
(lp4326
g49
(g50
g51
NtRp4327
(dp4328
g54
(dp4329
g62
I1
ssg63
g4323
sg56
(lp4330
(lp4331
(g3795
(S's\x06\x00\x00\x00Groups'
tRp4332
I00
S'http://www.web2py.com/examples/default/usergroups'
p4333
tp4334
a(g3795
(S's\x07\x00\x00\x00Twitter'
tRp4335
I00
S'http://twitter.com/web2py'
p4336
tp4337
a(g3795
(S's\t\x00\x00\x00Live Chat'
tRp4338
I00
S'http://webchat.freenode.net/?channels=web2py'
p4339
tp4340
aasbasbasbasbasbasbasbag49
(g65
g51
NtRp4341
(dp4342
g54
(dp4343
sg63
g3908
sg56
(lp4344
g49
(g70
g51
NtRp4345
(dp4346
g54
(dp4347
sg63
g4341
sg56
(lp4348
g49
(g50
g51
NtRp4349
(dp4350
g54
(dp4351
g62
I2
ssg63
g4345
sg56
(lp4352
g49
(g58
g51
NtRp4353
(dp4354
g54
(dp4355
g62
I1
ssg63
Nsg56
(lp4356
g49
(g65
g51
NtRp4357
(dp4358
g54
(dp4359
sg63
g4353
sg56
(lp4360
g49
(g70
g51
NtRp4361
(dp4362
g54
(dp4363
sg63
g4357
sg56
(lp4364
g49
(g50
g51
NtRp4365
(dp4366
g54
(dp4367
g62
I1
ssg63
g4361
sg56
(lp4368
g3795
(S's\x07\x00\x00\x00Plugins'
tRp4369
asbasbasbag49
(g65
g51
NtRp4370
(dp4371
g54
(dp4372
sg63
g4353
sg56
(lp4373
g49
(g70
g51
NtRp4374
(dp4375
g54
(dp4376
sg63
g4370
sg56
(lp4377
g49
(g50
g51
NtRp4378
(dp4379
g54
(dp4380
g62
I1
ssg63
g4374
sg56
(lp4381
I00
asbasbasbag49
(g65
g51
NtRp4382
(dp4383
g54
(dp4384
sg63
g4353
sg56
(lp4385
g49
(g70
g51
NtRp4386
(dp4387
g54
(dp4388
sg63
g4382
sg56
(lp4389
g49
(g50
g51
NtRp4390
(dp4391
g54
(dp4392
g62
I1
ssg63
g4386
sg56
(lp4393
Nasbasbasbag49
(g65
g51
NtRp4394
(dp4395
g54
(dp4396
sg63
g4353
sg56
(lp4397
g49
(g70
g51
NtRp4398
(dp4399
g54
(dp4400
sg63
g4394
sg56
(lp4401
g49
(g50
g51
NtRp4402
(dp4403
g54
(dp4404
g62
I1
ssg63
g4398
sg56
(lp4405
(lp4406
(S'plugin_wiki'
p4407
I00
S'http://web2py.com/examples/default/download'
p4408
tp4409
a(g3795
(S's\r\x00\x00\x00Other Plugins'
tRp4410
I00
g4140
tp4411
a(g3795
(S's\x0e\x00\x00\x00Layout Plugins'
tRp4412
I00
g4143
tp4413
aasbasbasbasbasbasbasbasbasbasbasbasbasbasbasbasbasbasbasbag49
(g65
g51
NtRp4414
(dp4415
g54
(dp4416
sg63
g3258
sg56
(lp4417
g49
(g70
g51
NtRp4418
(dp4419
g54
(dp4420
g74
g75
ssg63
g4414
sg56
(lp4421
S'meta'
p4422
asbag49
(g70
g51
NtRp4423
(dp4424
g54
(dp4425
g81
g82
ssg63
g4414
sg56
(lp4426
S':'
asbag49
(g70
g51
NtRp4427
(dp4428
g54
(dp4429
sg63
g4414
sg56
(lp4430
g49
(g50
g51
NtRp4431
(dp4432
g54
(dp4433
g62
I5
ssg63
g4427
sg56
(lp4434
g49
(g58
g51
NtRp4435
(dp4436
g54
(dp4437
g62
I4
ssg63
Nsg56
(lp4438
g49
(g65
g51
NtRp4439
(dp4440
g54
(dp4441
sg63
g4435
sg56
(lp4442
g49
(g70
g51
NtRp4443
(dp4444
g54
(dp4445
g74
g75
ssg63
g4439
sg56
(lp4446
S'author'
p4447
asbag49
(g70
g51
NtRp4448
(dp4449
g54
(dp4450
g81
g82
ssg63
g4439
sg56
(lp4451
S':'
asbag49
(g70
g51
NtRp4452
(dp4453
g54
(dp4454
sg63
g4439
sg56
(lp4455
g49
(g50
g51
NtRp4456
(dp4457
g54
(dp4458
g62
I4
ssg63
g4452
sg56
(lp4459
S'Your Name <you@example.com>'
p4460
asbasbasbag49
(g65
g51
NtRp4461
(dp4462
g54
(dp4463
sg63
g4435
sg56
(lp4464
g49
(g70
g51
NtRp4465
(dp4466
g54
(dp4467
g74
g75
ssg63
g4461
sg56
(lp4468
S'copyright'
p4469
asbag49
(g70
g51
NtRp4470
(dp4471
g54
(dp4472
g81
g82
ssg63
g4461
sg56
(lp4473
S':'
asbag49
(g70
g51
NtRp4474
(dp4475
g54
(dp4476
sg63
g4461
sg56
(lp4477
g49
(g50
g51
NtRp4478
(dp4479
g54
(dp4480
g62
I4
ssg63
g4474
sg56
(lp4481
S'Copyright 2011'
p4482
asbasbasbag49
(g65
g51
NtRp4483
(dp4484
g54
(dp4485
sg63
g4435
sg56
(lp4486
g49
(g70
g51
NtRp4487
(dp4488
g54
(dp4489
g74
g75
ssg63
g4483
sg56
(lp4490
S'description'
p4491
asbag49
(g70
g51
NtRp4492
(dp4493
g54
(dp4494
g81
g82
ssg63
g4483
sg56
(lp4495
S':'
asbag49
(g70
g51
NtRp4496
(dp4497
g54
(dp4498
sg63
g4483
sg56
(lp4499
g49
(g50
g51
NtRp4500
(dp4501
g54
(dp4502
g62
I4
ssg63
g4496
sg56
(lp4503
S'a cool new app'
p4504
asbasbasbag49
(g65
g51
NtRp4505
(dp4506
g54
(dp4507
sg63
g4435
sg56
(lp4508
g49
(g70
g51
NtRp4509
(dp4510
g54
(dp4511
g74
g75
ssg63
g4505
sg56
(lp4512
S'generator'
p4513
asbag49
(g70
g51
NtRp4514
(dp4515
g54
(dp4516
g81
g82
ssg63
g4505
sg56
(lp4517
S':'
asbag49
(g70
g51
NtRp4518
(dp4519
g54
(dp4520
sg63
g4505
sg56
(lp4521
g49
(g50
g51
NtRp4522
(dp4523
g54
(dp4524
g62
I4
ssg63
g4518
sg56
(lp4525
S'Web2py Web Framework'
p4526
asbasbasbag49
(g65
g51
NtRp4527
(dp4528
g54
(dp4529
sg63
g4435
sg56
(lp4530
g49
(g70
g51
NtRp4531
(dp4532
g54
(dp4533
g74
g75
ssg63
g4527
sg56
(lp4534
S'keywords'
p4535
asbag49
(g70
g51
NtRp4536
(dp4537
g54
(dp4538
g81
g82
ssg63
g4527
sg56
(lp4539
S':'
asbag49
(g70
g51
NtRp4540
(dp4541
g54
(dp4542
sg63
g4527
sg56
(lp4543
g49
(g50
g51
NtRp4544
(dp4545
g54
(dp4546
g62
I4
ssg63
g4540
sg56
(lp4547
S'web2py, python, framework'
p4548
asbasbasbasbasbasbasbag49
(g65
g51
NtRp4549
(dp4550
g54
(dp4551
sg63
g3258
sg56
(lp4552
g49
(g70
g51
NtRp4553
(dp4554
g54
(dp4555
g74
g75
ssg63
g4549
sg56
(lp4556
S'postprocessing'
p4557
asbag49
(g70
g51
NtRp4558
(dp4559
g54
(dp4560
g81
g82
ssg63
g4549
sg56
(lp4561
S':'
asbag49
(g70
g51
NtRp4562
(dp4563
g54
(dp4564
sg63
g4549
sg56
(lp4565
g49
(g50
g51
NtRp4566
(dp4567
g54
(dp4568
g62
I5
ssg63
g4562
sg56
(lp4569
g49
(g58
g51
NtRp4570
(dp4571
g54
(dp4572
g62
I4
ssg63
Nsg56
(lp4573
sbasbasbasbag49
(g65
g51
NtRp4574
(dp4575
g54
(dp4576
sg63
g3258
sg56
(lp4577
g49
(g70
g51
NtRp4578
(dp4579
g54
(dp4580
g74
g75
ssg63
g4574
sg56
(lp4581
S'session_file'
p4582
asbag49
(g70
g51
NtRp4583
(dp4584
g54
(dp4585
g81
g82
ssg63
g4574
sg56
(lp4586
S':'
asbag49
(g70
g51
NtRp4587
(dp4588
g54
(dp4589
sg63
g4574
sg56
(lp4590
g49
(g50
g51
NtRp4591
(dp4592
g54
(dp4593
g62
I5
ssg63
g4587
sg56
(lp4594
S"<open file '/Users/udimilo/Documents/web2py/applications/udi0312/sessions/127.0.0.1-fcd6a577-d448-4882-b7bc-f353da84ba3b', mode 'rb+' at 0xaa3a530>"
p4595
asbasbasbag49
(g65
g51
NtRp4596
(dp4597
g54
(dp4598
sg63
g3258
sg56
(lp4599
g49
(g70
g51
NtRp4600
(dp4601
g54
(dp4602
g74
g75
ssg63
g4596
sg56
(lp4603
S'session_filename'
p4604
asbag49
(g70
g51
NtRp4605
(dp4606
g54
(dp4607
g81
g82
ssg63
g4596
sg56
(lp4608
S':'
asbag49
(g70
g51
NtRp4609
(dp4610
g54
(dp4611
sg63
g4596
sg56
(lp4612
g49
(g50
g51
NtRp4613
(dp4614
g54
(dp4615
g62
I5
ssg63
g4609
sg56
(lp4616
S'/Users/udimilo/Documents/web2py/applications/udi0312/sessions/127.0.0.1-fcd6a577-d448-4882-b7bc-f353da84ba3b'
p4617
asbasbasbag49
(g65
g51
NtRp4618
(dp4619
g54
(dp4620
sg63
g3258
sg56
(lp4621
g49
(g70
g51
NtRp4622
(dp4623
g54
(dp4624
g74
g75
ssg63
g4618
sg56
(lp4625
S'session_id'
p4626
asbag49
(g70
g51
NtRp4627
(dp4628
g54
(dp4629
g81
g82
ssg63
g4618
sg56
(lp4630
S':'
asbag49
(g70
g51
NtRp4631
(dp4632
g54
(dp4633
sg63
g4618
sg56
(lp4634
g49
(g50
g51
NtRp4635
(dp4636
g54
(dp4637
g62
I5
ssg63
g4631
sg56
(lp4638
S'127.0.0.1-fcd6a577-d448-4882-b7bc-f353da84ba3b'
p4639
asbasbasbag49
(g65
g51
NtRp4640
(dp4641
g54
(dp4642
sg63
g3258
sg56
(lp4643
g49
(g70
g51
NtRp4644
(dp4645
g54
(dp4646
g74
g75
ssg63
g4640
sg56
(lp4647
S'session_id_name'
p4648
asbag49
(g70
g51
NtRp4649
(dp4650
g54
(dp4651
g81
g82
ssg63
g4640
sg56
(lp4652
S':'
asbag49
(g70
g51
NtRp4653
(dp4654
g54
(dp4655
sg63
g4640
sg56
(lp4656
g49
(g50
g51
NtRp4657
(dp4658
g54
(dp4659
g62
I5
ssg63
g4653
sg56
(lp4660
g3315
asbasbasbag49
(g65
g51
NtRp4661
(dp4662
g54
(dp4663
sg63
g3258
sg56
(lp4664
g49
(g70
g51
NtRp4665
(dp4666
g54
(dp4667
g74
g75
ssg63
g4661
sg56
(lp4668
S'session_locked'
p4669
asbag49
(g70
g51
NtRp4670
(dp4671
g54
(dp4672
g81
g82
ssg63
g4661
sg56
(lp4673
S':'
asbag49
(g70
g51
NtRp4674
(dp4675
g54
(dp4676
sg63
g4661
sg56
(lp4677
g49
(g50
g51
NtRp4678
(dp4679
g54
(dp4680
g62
I5
ssg63
g4674
sg56
(lp4681
g1465
asbasbasbag49
(g65
g51
NtRp4682
(dp4683
g54
(dp4684
sg63
g3258
sg56
(lp4685
g49
(g70
g51
NtRp4686
(dp4687
g54
(dp4688
g74
g75
ssg63
g4682
sg56
(lp4689
S'session_new'
p4690
asbag49
(g70
g51
NtRp4691
(dp4692
g54
(dp4693
g81
g82
ssg63
g4682
sg56
(lp4694
S':'
asbag49
(g70
g51
NtRp4695
(dp4696
g54
(dp4697
sg63
g4682
sg56
(lp4698
g49
(g50
g51
NtRp4699
(dp4700
g54
(dp4701
g62
I5
ssg63
g4695
sg56
(lp4702
g92
asbasbasbag49
(g65
g51
NtRp4703
(dp4704
g54
(dp4705
sg63
g3258
sg56
(lp4706
g49
(g70
g51
NtRp4707
(dp4708
g54
(dp4709
g74
g75
ssg63
g4703
sg56
(lp4710
S'status'
p4711
asbag49
(g70
g51
NtRp4712
(dp4713
g54
(dp4714
g81
g82
ssg63
g4703
sg56
(lp4715
S':'
asbag49
(g70
g51
NtRp4716
(dp4717
g54
(dp4718
sg63
g4703
sg56
(lp4719
g49
(g50
g51
NtRp4720
(dp4721
g54
(dp4722
g62
I5
ssg63
g4716
sg56
(lp4723
S'200'
p4724
asbasbasbag49
(g65
g51
NtRp4725
(dp4726
g54
(dp4727
sg63
g3258
sg56
(lp4728
g49
(g70
g51
NtRp4729
(dp4730
g54
(dp4731
g74
g75
ssg63
g4725
sg56
(lp4732
S'subtitle'
p4733
asbag49
(g70
g51
NtRp4734
(dp4735
g54
(dp4736
g81
g82
ssg63
g4725
sg56
(lp4737
S':'
asbag49
(g70
g51
NtRp4738
(dp4739
g54
(dp4740
sg63
g4725
sg56
(lp4741
g49
(g50
g51
NtRp4742
(dp4743
g54
(dp4744
g62
I5
ssg63
g4738
sg56
(lp4745
g3795
(S's\r\x00\x00\x00customize me!'
tRp4746
asbasbasbag49
(g65
g51
NtRp4747
(dp4748
g54
(dp4749
sg63
g3258
sg56
(lp4750
g49
(g70
g51
NtRp4751
(dp4752
g54
(dp4753
g74
g75
ssg63
g4747
sg56
(lp4754
S'title'
p4755
asbag49
(g70
g51
NtRp4756
(dp4757
g54
(dp4758
g81
g82
ssg63
g4747
sg56
(lp4759
S':'
asbag49
(g70
g51
NtRp4760
(dp4761
g54
(dp4762
sg63
g4747
sg56
(lp4763
g49
(g50
g51
NtRp4764
(dp4765
g54
(dp4766
g62
I5
ssg63
g4760
sg56
(lp4767
S'Udi0312'
p4768
asbasbasbag49
(g65
g51
NtRp4769
(dp4770
g54
(dp4771
sg63
g3258
sg56
(lp4772
g49
(g70
g51
NtRp4773
(dp4774
g54
(dp4775
g74
g75
ssg63
g4769
sg56
(lp4776
g2129
asbag49
(g70
g51
NtRp4777
(dp4778
g54
(dp4779
g81
g82
ssg63
g4769
sg56
(lp4780
S':'
asbag49
(g70
g51
NtRp4781
(dp4782
g54
(dp4783
sg63
g4769
sg56
(lp4784
g49
(g50
g51
NtRp4785
(dp4786
g54
(dp4787
g62
I5
ssg63
g4781
sg56
(lp4788
g2142
asbasbasbag49
(g65
g51
NtRp4789
(dp4790
g54
(dp4791
sg63
g3258
sg56
(lp4792
g49
(g70
g51
NtRp4793
(dp4794
g54
(dp4795
g74
g75
ssg63
g4789
sg56
(lp4796
S'view'
p4797
asbag49
(g70
g51
NtRp4798
(dp4799
g54
(dp4800
g81
g82
ssg63
g4789
sg56
(lp4801
S':'
asbag49
(g70
g51
NtRp4802
(dp4803
g54
(dp4804
sg63
g4789
sg56
(lp4805
g49
(g50
g51
NtRp4806
(dp4807
g54
(dp4808
g62
I5
ssg63
g4802
sg56
(lp4809
S'boards/index.html'
p4810
asbasbasbasbasbsS'locals'
p4811
(dp4812
S'Service'
p4813
S"<class 'gluon.tools.Service'>"
p4814
sS'OBJECT'
p4815
S"<class 'gluon.html.OBJECT'>"
p4816
sS'SQLDB'
p4817
S"<class 'gluon.dal.DAL'>"
p4818
sg2863
S"<Storage {'_formkey[article/109]': 'a78de322-c34...reate]': '5faaaae9-a081-4526-abd6-4c234d5fd04e'}>"
p4819
sS'LINK'
p4820
S"<class 'gluon.html.LINK'>"
p4821
sS'BR'
p4822
S"<class 'gluon.html.BR'>"
p4823
sS'local_import'
p4824
S'<function <lambda> at 0x8e983f0>'
p4825
sS'OPTGROUP'
p4826
S"<class 'gluon.html.OPTGROUP'>"
p4827
sS'PRE'
p4828
S"<class 'gluon.html.PRE'>"
p4829
sS'IS_INT_IN_RANGE'
p4830
S"<class 'gluon.validators.IS_INT_IN_RANGE'>"
p4831
sS'IS_LOWER'
p4832
S"<class 'gluon.validators.IS_LOWER'>"
p4833
sS'IS_STRONG'
p4834
S"<class 'gluon.validators.IS_STRONG'>"
p4835
sS'cache'
p4836
S'<gluon.cache.Cache object at 0xab14410>'
p4837
sS'IS_IN_DB'
p4838
S"<class 'gluon.validators.IS_IN_DB'>"
p4839
sS'TAG'
p4840
S'<gluon.html.__TAG__ object at 0x12308b0>'
p4841
sS'SQLField'
p4842
S"<class 'gluon.dal.Field'>"
p4843
sS'mail'
p4844
S'<gluon.tools.Mail object at 0xa1e6b90>'
p4845
sS'BODY'
p4846
S"<class 'gluon.html.BODY'>"
p4847
sS'IS_DATE_IN_RANGE'
p4848
S"<class 'gluon.validators.IS_DATE_IN_RANGE'>"
p4849
sS'TH'
p4850
S"<class 'gluon.html.TH'>"
p4851
sS'URL'
p4852
S'<function URL at 0x1241bf0>'
p4853
sS'__file__'
p4854
S"'/Users/udimilo/Documents/web2py/applications/udi0312/views/boards/index.html'"
p4855
sS'db'
p4856
S"<DAL {'auth_event': <Table {'origin': <gluon.dal...n_key': <gluon.dal.Field object at 0xa2f3150>}>}>"
p4857
sS'auth'
p4858
S'<gluon.tools.Auth object at 0xaae3d70>'
p4859
sS'P'
S"<class 'gluon.html.P'>"
p4860
sS'TFOOT'
p4861
S"<class 'gluon.html.TFOOT'>"
p4862
sS'XHTML'
p4863
S"<class 'gluon.html.XHTML'>"
p4864
sS'ON'
p4865
g1465
sS'OL'
p4866
S"<class 'gluon.html.OL'>"
p4867
sS'TEXTAREA'
p4868
S"<class 'gluon.html.TEXTAREA'>"
p4869
sS'MENU'
p4870
S"<class 'gluon.html.MENU'>"
p4871
sS'LOAD'
p4872
S'<function LOAD at 0x21ebfb0>'
p4873
sS'CODE'
p4874
S"<class 'gluon.html.CODE'>"
p4875
sS'HTTP'
p4876
S"<class 'gluon.http.HTTP'>"
p4877
sS'HR'
p4878
S"<class 'gluon.html.HR'>"
p4879
sS'IS_DATETIME'
p4880
S"<class 'gluon.validators.IS_DATETIME'>"
p4881
sS'HEAD'
p4882
S"<class 'gluon.html.HEAD'>"
p4883
sS'LABEL'
p4884
S"<class 'gluon.html.LABEL'>"
p4885
sS'CLEANUP'
p4886
S"<class 'gluon.validators.CLEANUP'>"
p4887
sS'plugins'
p4888
S'<gluon.tools.PluginManager object at 0x9fb9bf0>'
p4889
sS'SELECT'
p4890
S"<class 'gluon.html.SELECT'>"
p4891
sS'CENTER'
p4892
S"<class 'gluon.html.CENTER'>"
p4893
sS'prettydate'
p4894
S'<function prettydate at 0x9be89b0>'
p4895
sS'Crud'
p4896
S"<class 'gluon.tools.Crud'>"
p4897
sS'Auth'
p4898
S"<class 'gluon.tools.Auth'>"
p4899
sS'__builtins__'
p4900
S"{'ArithmeticError': <type 'exceptions.ArithmeticError'>, 'AssertionError': <type 'exceptions.AssertionError'>, 'AttributeError': <type 'exceptions.AttributeError'>, 'BaseException': <type 'exceptions.BaseException'>, 'DeprecationWarning': <type 'exceptions.DeprecationWarning'>, 'EOFError': <type 'exceptions.EOFError'>, 'Ellipsis': Ellipsis, 'EnvironmentError': <type 'exceptions.EnvironmentError'>, 'Exception': <type 'exceptions.Exception'>, 'False': False, ...}"
p4901
sS'HTML'
p4902
S"<class 'gluon.html.HTML'>"
p4903
sS'SQLFORM'
p4904
S"<class 'gluon.sqlhtml.SQLFORM'>"
p4905
sS'EM'
p4906
S"<class 'gluon.html.EM'>"
p4907
sS'redirect'
p4908
S'<function redirect at 0x654330>'
p4909
sS'FIELDSET'
p4910
S"<class 'gluon.html.FIELDSET'>"
p4911
sS'IS_EQUAL_TO'
p4912
S"<class 'gluon.validators.IS_EQUAL_TO'>"
p4913
sS'embed64'
p4914
S'<function embed64 at 0x1244730>'
p4915
sS'IS_LIST_OF'
p4916
S"<class 'gluon.validators.IS_LIST_OF'>"
p4917
sS'__name__'
p4918
S"'__restricted__'"
p4919
sS'EMBED'
p4920
S"<class 'gluon.html.EMBED'>"
p4921
sS'_'
S'<function _ at 0x9f3ec30>'
p4922
sS'FORM'
p4923
S"<class 'gluon.html.FORM'>"
p4924
sS'H2'
p4925
S"<class 'gluon.html.H2'>"
p4926
sS'H3'
p4927
S"<class 'gluon.html.H3'>"
p4928
sS'BUTTON'
p4929
S"<class 'gluon.html.BUTTON'>"
p4930
sS'H1'
p4931
S"<class 'gluon.html.H1'>"
p4932
sS'H6'
p4933
S"<class 'gluon.html.H6'>"
p4934
sS'H4'
p4935
S"<class 'gluon.html.H4'>"
p4936
sS'H5'
p4937
S"<class 'gluon.html.H5'>"
p4938
sS'UL'
p4939
S"<class 'gluon.html.UL'>"
p4940
sS'IS_UPPER'
p4941
S"<class 'gluon.validators.IS_UPPER'>"
p4942
sS'xmlescape'
p4943
S'<function xmlescape at 0x1241b70>'
p4944
sS'IS_TIME'
p4945
S"<class 'gluon.validators.IS_TIME'>"
p4946
sS'OPTION'
p4947
S"<class 'gluon.html.OPTION'>"
p4948
sS'TITLE'
p4949
S"<class 'gluon.html.TITLE'>"
p4950
sS'CRYPT'
p4951
S"<class 'gluon.validators.CRYPT'>"
p4952
sS'IS_EMPTY_OR'
p4953
S"<class 'gluon.validators.IS_EMPTY_OR'>"
p4954
sS'MARKMIN'
p4955
S"<class 'gluon.html.MARKMIN'>"
p4956
sS'INPUT'
p4957
S"<class 'gluon.html.INPUT'>"
p4958
sS'message'
p4959
S"'hello from boards.py'"
p4960
sS'COL'
p4961
S"<class 'gluon.html.COL'>"
p4962
sS'service'
p4963
S'<gluon.tools.Service object at 0xa2f3670>'
p4964
sS'SCRIPT'
p4965
S"<class 'gluon.html.SCRIPT'>"
p4966
sS'TABLE'
p4967
S"<class 'gluon.html.TABLE'>"
p4968
sS'IS_IPV4'
p4969
S"<class 'gluon.validators.IS_IPV4'>"
p4970
sS'IS_LENGTH'
p4971
S"<class 'gluon.validators.IS_LENGTH'>"
p4972
sS'XML'
p4973
S"<class 'gluon.html.XML'>"
p4974
sS'B'
S"<class 'gluon.html.B'>"
p4975
sS'IMG'
p4976
S"<class 'gluon.html.IMG'>"
p4977
sS'SQLTABLE'
p4978
S"<class 'gluon.sqlhtml.SQLTABLE'>"
p4979
sS'IS_MATCH'
p4980
S"<class 'gluon.validators.IS_MATCH'>"
p4981
sS'IS_ALPHANUMERIC'
p4982
S"<class 'gluon.validators.IS_ALPHANUMERIC'>"
p4983
sS'SPAN'
p4984
S"<class 'gluon.html.SPAN'>"
p4985
sS'IS_SLUG'
p4986
S"<class 'gluon.validators.IS_SLUG'>"
p4987
sS'BEAUTIFY'
p4988
S"<class 'gluon.html.BEAUTIFY'>"
p4989
sS'META'
p4990
S"<class 'gluon.html.META'>"
p4991
sS'IS_DATE'
p4992
S"<class 'gluon.validators.IS_DATE'>"
p4993
sS'IS_EMAIL'
p4994
S"<class 'gluon.validators.IS_EMAIL'>"
p4995
sS'IS_NOT_EMPTY'
p4996
S"<class 'gluon.validators.IS_NOT_EMPTY'>"
p4997
sg48
S"<Storage {'body': <cStringIO.StringO object at 0..._vars': <Storage {}>, 'post_vars': <Storage {}>}>"
p4998
sS'TBODY'
p4999
S"<class 'gluon.html.TBODY'>"
p5000
sS'CAT'
p5001
S"<class 'gluon.html.CAT'>"
p5002
sS'Field'
p5003
S"<class 'gluon.dal.Field'>"
p5004
sS'DIV'
p5005
S"<class 'gluon.html.DIV'>"
p5006
sS'LEGEND'
p5007
S"<class 'gluon.html.LEGEND'>"
p5008
sS'COLGROUP'
p5009
S"<class 'gluon.html.COLGROUP'>"
p5010
sS'DAL'
p5011
S"<class 'gluon.dal.DAL'>"
p5012
sS'TT'
p5013
S"<class 'gluon.html.TT'>"
p5014
sS'TR'
p5015
S"<class 'gluon.html.TR'>"
p5016
sS'LI'
p5017
S"<class 'gluon.html.LI'>"
p5018
sS'IFRAME'
p5019
S"<class 'gluon.html.IFRAME'>"
p5020
sS'TD'
p5021
S"<class 'gluon.html.TD'>"
p5022
sS'PluginManager'
p5023
S"<class 'gluon.tools.PluginManager'>"
p5024
sS'IS_URL'
p5025
S"<class 'gluon.validators.IS_URL'>"
p5026
sS'A'
S"<class 'gluon.html.A'>"
p5027
sS'STYLE'
p5028
S"<class 'gluon.html.STYLE'>"
p5029
sS'IS_DATETIME_IN_RANGE'
p5030
S"<class 'gluon.validators.IS_DATETIME_IN_RANGE'>"
p5031
sS'IS_IMAGE'
p5032
S"<class 'gluon.validators.IS_IMAGE'>"
p5033
sS'I'
S"<class 'gluon.html.I'>"
p5034
sS'crud'
p5035
S'<gluon.tools.Crud object at 0xa2f3910>'
p5036
sS'IS_NOT_IN_DB'
p5037
S"<class 'gluon.validators.IS_NOT_IN_DB'>"
p5038
sg3253
S"<Storage {'body': <cStringIO.StringO object at 0...bda> at 0xa8f03b0>, 'view': 'boards/index.html'}>"
p5039
sS'THEAD'
p5040
S"<class 'gluon.html.THEAD'>"
p5041
sS'IS_NULL_OR'
p5042
S"<class 'gluon.validators.IS_EMPTY_OR'>"
p5043
sS'IS_FLOAT_IN_RANGE'
p5044
S"<class 'gluon.validators.IS_FLOAT_IN_RANGE'>"
p5045
sS'IS_EXPR'
p5046
S"<class 'gluon.validators.IS_EXPR'>"
p5047
sS'T'
S'<gluon.languages.translator object at 0x9edb590>'
p5048
sS'IS_IN_SET'
p5049
S"<class 'gluon.validators.IS_IN_SET'>"
p5050
sS'IS_UPLOAD_FILENAME'
p5051
S"<class 'gluon.validators.IS_UPLOAD_FILENAME'>"
p5052
sS'IS_DECIMAL_IN_RANGE'
p5053
S"<class 'gluon.validators.IS_DECIMAL_IN_RANGE'>"
p5054
sssS'traceback'
p5055
S'Traceback (most recent call last):\n  File "/users/udimilo/Documents/web2py/gluon/restricted.py", line 205, in restricted\n    exec ccode in environment\n  File "/Users/udimilo/Documents/web2py/applications/udi0312/views/boards/index.html", line 8, in <module>\nNameError: name \'boards\' is not defined\n'
p5056
s.