(dp1
S'output'
p2
S"<type 'exceptions.KeyError'> 'page'"
p3
sS'layer'
p4
S'/Users/udimilo/Documents/web2py/applications/udi0312/models/db.py'
p5
sS'code'
p6
S"# -*- coding: utf-8 -*-\n\n#########################################################################\n## This scaffolding model makes your app work on Google App Engine too\n## File is released under public domain and you can use without limitations\n#########################################################################\n\n## if SSL/HTTPS is properly configured and you want all HTTP requests to\n## be redirected to HTTPS, uncomment the line below:\n# request.requires_https()\n\nif not request.env.web2py_runtime_gae:\n    ## if NOT running on Google App Engine use SQLite or other DB\n    db = DAL('sqlite://storage.sqlite')\nelse:\n    ## connect to Google BigTable (optional 'google:datastore://namespace')\n    db = DAL('google:datastore')\n    ## store sessions and tickets there\n    session.connect(request, response, db = db)\n    ## or store session in Memcache, Redis, etc.\n    ## from gluon.contrib.memdb import MEMDB\n    ## from google.appengine.api.memcache import Client\n    ## session.connect(request, response, db = MEMDB(Client()))\n\n## by default give a view/generic.extension to all actions from localhost\n## none otherwise. a pattern can be 'controller/function.extension'\nresponse.generic_patterns = ['*'] if request.is_local else []\n## (optional) optimize handling of static files\n# response.optimize_css = 'concat,minify,inline'\n# response.optimize_js = 'concat,minify,inline'\n\n#########################################################################\n## Here is sample code if you need for\n## - email capabilities\n## - authentication (registration, login, logout, ... )\n## - authorization (role based authorization)\n## - services (xml, csv, json, xmlrpc, jsonrpc, amf, rss)\n## - old style crud actions\n## (more options discussed in gluon/tools.py)\n#########################################################################\n\nfrom gluon.tools import Auth, Crud, Service, PluginManager, prettydate\nauth = Auth(db, hmac_key=Auth.get_or_create_key())\ncrud, service, plugins = Crud(db), Service(), PluginManager()\n\n## create all tables needed by auth if not custom tables\nauth.define_tables()\n\n## configure email\nmail=auth.settings.mailer\nmail.settings.server = 'logging' or 'smtp.gmail.com:587'\nmail.settings.sender = 'you@gmail.com'\nmail.settings.login = 'username:password'\n\n## configure auth policy\nauth.settings.registration_requires_verification = False\nauth.settings.registration_requires_approval = False\nauth.settings.reset_password_requires_verification = True\n\n## if you need to use OpenID, Facebook, MySpace, Twitter, Linkedin, etc.\n## register with janrain.com, write your domain:api_key in private/janrain.key\n##from gluon.contrib.login_methods.rpx_account import use_janrain\n##use_janrain(auth,filename='private/janrain.key')\n\n## LinkedIn\n## from gluon.contrib.login_methods.linkedin_account import LinkedInAccount\n## auth.settings.login_form=LinkedInAccount(\n##    request,\n##    'wFNJekVpDCJtRPFX812pQsJee-gt0zO4X5XmG6wcfSOSlLocxodAXNMbl0_hw3Vl',\n##    'daJDa6_8UcnGMw1yuq9TjoO_PMKukXMo8vEMo7Qv5J-G3SPgrAV0FqFCd0TNjQyG',\n##    'http://127.0.0.1:8000')\n\n#########################################################################\n## Define your tables below (or better in another model file) for example\n##\n## >>> db.define_table('mytable',Field('myfield','string'))\n##\n## Fields can be 'string','text','password','integer','double','boolean'\n##       'date','time','datetime','blob','upload', 'reference TABLENAME'\n## There is an implicit 'id integer autoincrement' field\n## Consult manual for more options, validators, etc.\n##\n## More API examples for controllers:\n##\n## >>> db.mytable.insert(myfield='value')\n## >>> rows=db(db.mytable.myfield=='value').select(db.mytable.ALL)\n## >>> for row in rows: print row.id, row.myfield\n#########################################################################\n\ndb.define_table('category',\n    Field('name'),\n    format = '%(name)s')\n    \ndb.define_table('board',\n    Field('user_id', db.auth_user),\n    Field('name'),\n    Field('category_id', db.category),\n    format = '%(name)s')\n\ndb.define_table('pin',\n    Field('board_id', db.board),\n    Field('page_id', db.page))\n\ndb.define_table('page',\n    Field('user_id', db.auth_user),\n    Field('url'),\n    Field('title'),\n    Field('blob', 'text'),\n    Field('iconURL'),\n    Field('imgURL'),\n    Field('source'),\n    Field('height'),\n    format = '%(title)s')\n"
p7
sS'snapshot'
p8
(dp9
sS'traceback'
p10
S'Traceback (most recent call last):\n  File "/users/udimilo/Documents/web2py/gluon/restricted.py", line 205, in restricted\n    exec ccode in environment\n  File "/Users/udimilo/Documents/web2py/applications/udi0312/models/db.py", line 102, in <module>\n    Field(\'page_id\', db.page))\n  File "/users/udimilo/Documents/web2py/gluon/dal.py", line 6343, in __getattr__\n    return self[key]\n  File "/users/udimilo/Documents/web2py/gluon/dal.py", line 6337, in __getitem__\n    return dict.__getitem__(self, str(key))\nKeyError: \'page\'\n'
p11
s.