(dp1
S'output'
p2
S"<type 'exceptions.AttributeError'> 'module' object has no attribute 'LinkedIn'"
p3
sS'layer'
p4
S'/Users/udimilo/Documents/web2py/applications/udi0312/models/db.py'
p5
sS'code'
p6
S"# -*- coding: utf-8 -*-\n\n#########################################################################\n## This scaffolding model makes your app work on Google App Engine too\n## File is released under public domain and you can use without limitations\n#########################################################################\n\n## if SSL/HTTPS is properly configured and you want all HTTP requests to\n## be redirected to HTTPS, uncomment the line below:\n# request.requires_https()\n\nif not request.env.web2py_runtime_gae:\n    ## if NOT running on Google App Engine use SQLite or other DB\n    db = DAL('sqlite://storage.sqlite')\nelse:\n    ## connect to Google BigTable (optional 'google:datastore://namespace')\n    db = DAL('google:datastore')\n    ## store sessions and tickets there\n    session.connect(request, response, db = db)\n    ## or store session in Memcache, Redis, etc.\n    ## from gluon.contrib.memdb import MEMDB\n    ## from google.appengine.api.memcache import Client\n    ## session.connect(request, response, db = MEMDB(Client()))\n\n## by default give a view/generic.extension to all actions from localhost\n## none otherwise. a pattern can be 'controller/function.extension'\nresponse.generic_patterns = ['*'] if request.is_local else []\n## (optional) optimize handling of static files\n# response.optimize_css = 'concat,minify,inline'\n# response.optimize_js = 'concat,minify,inline'\n\n#########################################################################\n## Here is sample code if you need for\n## - email capabilities\n## - authentication (registration, login, logout, ... )\n## - authorization (role based authorization)\n## - services (xml, csv, json, xmlrpc, jsonrpc, amf, rss)\n## - old style crud actions\n## (more options discussed in gluon/tools.py)\n#########################################################################\n\nfrom gluon.tools import Auth, Crud, Service, PluginManager, prettydate\nauth = Auth(db, hmac_key=Auth.get_or_create_key())\ncrud, service, plugins = Crud(db), Service(), PluginManager()\n\n## create all tables needed by auth if not custom tables\nauth.define_tables()\n\n## configure email\nmail=auth.settings.mailer\nmail.settings.server = 'logging' or 'smtp.gmail.com:587'\nmail.settings.sender = 'you@gmail.com'\nmail.settings.login = 'username:password'\n\n## configure auth policy\nauth.settings.registration_requires_verification = False\nauth.settings.registration_requires_approval = False\nauth.settings.reset_password_requires_verification = True\n\n## if you need to use OpenID, Facebook, MySpace, Twitter, Linkedin, etc.\n## register with janrain.com, write your domain:api_key in private/janrain.key\n##from gluon.contrib.login_methods.rpx_account import use_janrain\n##use_janrain(auth,filename='private/janrain.key')\n\n## LinkedIn\nimport linkedin\nfrom gluon.contrib.login_methods.linkedin_account import LinkedInAccount\nauth.settings.login_form=LinkedInAccount(\n    request,\n    'wFNJekVpDCJtRPFX812pQsJee-gt0zO4X5XmG6wcfSOSlLocxodAXNMbl0_hw3Vl',\n    'daJDa6_8UcnGMw1yuq9TjoO_PMKukXMo8vEMo7Qv5J-G3SPgrAV0FqFCd0TNjQyG',\n    'http://127.0.0.1:8000')\n\n#########################################################################\n## Define your tables below (or better in another model file) for example\n##\n## >>> db.define_table('mytable',Field('myfield','string'))\n##\n## Fields can be 'string','text','password','integer','double','boolean'\n##       'date','time','datetime','blob','upload', 'reference TABLENAME'\n## There is an implicit 'id integer autoincrement' field\n## Consult manual for more options, validators, etc.\n##\n## More API examples for controllers:\n##\n## >>> db.mytable.insert(myfield='value')\n## >>> rows=db(db.mytable.myfield=='value').select(db.mytable.ALL)\n## >>> for row in rows: print row.id, row.myfield\n#########################################################################\n    \ndb.define_table('category',\n    Field('name'),\n    Field('created_on', 'datetime', default=request.now),\n    format = '%(name)s')\n    \ndb.define_table('board',\n    Field('name'),\n    Field('user', db.auth_user),\n    Field('category', db.category),\n    Field('created_on', 'datetime', default=request.now),\n    format = '%(name)s')\n\ndb.define_table('article',\n    Field('url'),\n    Field('readability_url'),\n    Field('title'),\n    Field('content', 'text'),\n    Field('domain'),\n    Field('author'),\n    Field('excerpt', 'text'),\n    Field('word_count'),\n    Field('total_pages'),\n    Field('date_published'),\n    Field('next_page_id'),\n    Field('rendered_pages'),\n    Field('height'),\n    Field('created_on', 'datetime', default=request.now),\n    format = '%(title)s')\n\ndb.define_table('pin',\n    Field('board', db.board),\n    Field('article', db.article),\n    Field('original_pin', 'reference pin'),\n    Field('created_on', 'datetime', default=request.now),)\n\ndb.define_table('star',\n    Field('article', db.article),\n    Field('user', db.auth_user),\n    Field('created_on', 'datetime', default=request.now),)\n    \ndb.define_table('user_user',\n    Field('follower', db.auth_user),\n    Field('followee', db.auth_user),\n    Field('created_on', 'datetime', default=request.now),)\n    \ndb.define_table('user_board',\n    Field('follower', db.auth_user),\n    Field('board', db.board),\n    Field('created_on', 'datetime', default=request.now),)\n\ndb.define_table('rss_feeds',\n    Field('url'),\n    Field('created_on', 'datetime', default=request.now),)\n"
p7
sS'snapshot'
p8
(dp9
S'exception'
p10
(dp11
S'__hash__'
p12
S"<method-wrapper '__hash__' of exceptions.AttributeError object at 0xa0729e0>"
p13
sS'__setattr__'
p14
S"<method-wrapper '__setattr__' of exceptions.AttributeError object at 0xa0729e0>"
p15
sS'__reduce_ex__'
p16
S'<built-in method __reduce_ex__ of exceptions.AttributeError object at 0xa0729e0>'
p17
sS'__getslice__'
p18
S"<method-wrapper '__getslice__' of exceptions.AttributeError object at 0xa0729e0>"
p19
sS'__getitem__'
p20
S"<method-wrapper '__getitem__' of exceptions.AttributeError object at 0xa0729e0>"
p21
sS'__setstate__'
p22
S'<built-in method __setstate__ of exceptions.AttributeError object at 0xa0729e0>'
p23
sS'__reduce__'
p24
S'<built-in method __reduce__ of exceptions.AttributeError object at 0xa0729e0>'
p25
sS'__str__'
p26
S"<method-wrapper '__str__' of exceptions.AttributeError object at 0xa0729e0>"
p27
sS'args'
p28
S'("\'module\' object has no attribute \'LinkedIn\'",)'
p29
sS'__getattribute__'
p30
S"<method-wrapper '__getattribute__' of exceptions.AttributeError object at 0xa0729e0>"
p31
sS'__class__'
p32
S"<type 'exceptions.AttributeError'>"
p33
sS'__delattr__'
p34
S"<method-wrapper '__delattr__' of exceptions.AttributeError object at 0xa0729e0>"
p35
sS'__repr__'
p36
S"<method-wrapper '__repr__' of exceptions.AttributeError object at 0xa0729e0>"
p37
sS'__dict__'
p38
S'{}'
p39
sS'__doc__'
p40
S"'Attribute not found.'"
p41
sS'__init__'
p42
S"<method-wrapper '__init__' of exceptions.AttributeError object at 0xa0729e0>"
p43
sS'__new__'
p44
S'<built-in method __new__ of type object at 0x1004a0>'
p45
ssS'evalue'
p46
S"'module' object has no attribute 'LinkedIn'"
p47
sS'request'
p48
ccopy_reg
_reconstructor
p49
(cgluon.html
BEAUTIFY
p50
c__builtin__
object
p51
NtRp52
(dp53
S'attributes'
p54
(dp55
sS'components'
p56
(lp57
g49
(cgluon.html
TABLE
p58
g51
NtRp59
(dp60
g54
(dp61
S'level'
p62
I5
ssS'parent'
p63
Nsg56
(lp64
g49
(cgluon.html
TR
p65
g51
NtRp66
(dp67
g54
(dp68
sg63
g59
sg56
(lp69
g49
(cgluon.html
TD
p70
g51
NtRp71
(dp72
g54
(dp73
S'_style'
p74
S'font-weight:bold;vertical-align:top'
p75
ssg63
g66
sg56
(lp76
S'ajax'
p77
asbag49
(g70
g51
NtRp78
(dp79
g54
(dp80
S'_valign'
p81
S'top'
p82
ssg63
g66
sg56
(lp83
S':'
asbag49
(g70
g51
NtRp84
(dp85
g54
(dp86
sg63
g66
sg56
(lp87
g49
(g50
g51
NtRp88
(dp89
g54
(dp90
g62
I5
ssg63
g84
sg56
(lp91
S'False'
p92
asbasbasbag49
(g65
g51
NtRp93
(dp94
g54
(dp95
sg63
g59
sg56
(lp96
g49
(g70
g51
NtRp97
(dp98
g54
(dp99
g74
g75
ssg63
g93
sg56
(lp100
S'application'
p101
asbag49
(g70
g51
NtRp102
(dp103
g54
(dp104
g81
g82
ssg63
g93
sg56
(lp105
S':'
asbag49
(g70
g51
NtRp106
(dp107
g54
(dp108
sg63
g93
sg56
(lp109
g49
(g50
g51
NtRp110
(dp111
g54
(dp112
g62
I5
ssg63
g106
sg56
(lp113
S'udi0312'
p114
asbasbasbag49
(g65
g51
NtRp115
(dp116
g54
(dp117
sg63
g59
sg56
(lp118
g49
(g70
g51
NtRp119
(dp120
g54
(dp121
g74
g75
ssg63
g115
sg56
(lp122
g28
asbag49
(g70
g51
NtRp123
(dp124
g54
(dp125
g81
g82
ssg63
g115
sg56
(lp126
S':'
asbag49
(g70
g51
NtRp127
(dp128
g54
(dp129
sg63
g115
sg56
(lp130
g49
(g50
g51
NtRp131
(dp132
g54
(dp133
g62
I5
ssg63
g127
sg56
(lp134
g49
(g58
g51
NtRp135
(dp136
g54
(dp137
g62
I4
ssg63
Nsg56
(lp138
sbasbasbasbag49
(g65
g51
NtRp139
(dp140
g54
(dp141
sg63
g59
sg56
(lp142
g49
(g70
g51
NtRp143
(dp144
g54
(dp145
g74
g75
ssg63
g139
sg56
(lp146
S'body'
p147
asbag49
(g70
g51
NtRp148
(dp149
g54
(dp150
g81
g82
ssg63
g139
sg56
(lp151
S':'
asbag49
(g70
g51
NtRp152
(dp153
g54
(dp154
sg63
g139
sg56
(lp155
g49
(g50
g51
NtRp156
(dp157
g54
(dp158
g62
I5
ssg63
g152
sg56
(lp159
S'<cStringIO.StringO object at 0x9fc93c0>'
p160
asbasbasbag49
(g65
g51
NtRp161
(dp162
g54
(dp163
sg63
g59
sg56
(lp164
g49
(g70
g51
NtRp165
(dp166
g54
(dp167
g74
g75
ssg63
g161
sg56
(lp168
S'client'
p169
asbag49
(g70
g51
NtRp170
(dp171
g54
(dp172
g81
g82
ssg63
g161
sg56
(lp173
S':'
asbag49
(g70
g51
NtRp174
(dp175
g54
(dp176
sg63
g161
sg56
(lp177
g49
(g50
g51
NtRp178
(dp179
g54
(dp180
g62
I5
ssg63
g174
sg56
(lp181
S'127.0.0.1'
p182
asbasbasbag49
(g65
g51
NtRp183
(dp184
g54
(dp185
sg63
g59
sg56
(lp186
g49
(g70
g51
NtRp187
(dp188
g54
(dp189
g74
g75
ssg63
g183
sg56
(lp190
S'controller'
p191
asbag49
(g70
g51
NtRp192
(dp193
g54
(dp194
g81
g82
ssg63
g183
sg56
(lp195
S':'
asbag49
(g70
g51
NtRp196
(dp197
g54
(dp198
sg63
g183
sg56
(lp199
g49
(g50
g51
NtRp200
(dp201
g54
(dp202
g62
I5
ssg63
g196
sg56
(lp203
S'default'
p204
asbasbasbag49
(g65
g51
NtRp205
(dp206
g54
(dp207
sg63
g59
sg56
(lp208
g49
(g70
g51
NtRp209
(dp210
g54
(dp211
g74
g75
ssg63
g205
sg56
(lp212
S'cookies'
p213
asbag49
(g70
g51
NtRp214
(dp215
g54
(dp216
g81
g82
ssg63
g205
sg56
(lp217
S':'
asbag49
(g70
g51
NtRp218
(dp219
g54
(dp220
sg63
g205
sg56
(lp221
g49
(g50
g51
NtRp222
(dp223
g54
(dp224
g62
I5
ssg63
g218
sg56
(lp225
g49
(g58
g51
NtRp226
(dp227
g54
(dp228
g62
I4
ssg63
Nsg56
(lp229
g49
(g65
g51
NtRp230
(dp231
g54
(dp232
sg63
g226
sg56
(lp233
g49
(g70
g51
NtRp234
(dp235
g54
(dp236
g74
g75
ssg63
g230
sg56
(lp237
S'session_id_admin'
p238
asbag49
(g70
g51
NtRp239
(dp240
g54
(dp241
g81
g82
ssg63
g230
sg56
(lp242
S':'
asbag49
(g70
g51
NtRp243
(dp244
g54
(dp245
sg63
g230
sg56
(lp246
g49
(g50
g51
NtRp247
(dp248
g54
(dp249
g62
I4
ssg63
g243
sg56
(lp250
g49
(g58
g51
NtRp251
(dp252
g54
(dp253
g62
I3
ssg63
Nsg56
(lp254
g49
(g65
g51
NtRp255
(dp256
g54
(dp257
sg63
g251
sg56
(lp258
g49
(g70
g51
NtRp259
(dp260
g54
(dp261
g74
g75
ssg63
g255
sg56
(lp262
S'comment'
p263
asbag49
(g70
g51
NtRp264
(dp265
g54
(dp266
g81
g82
ssg63
g255
sg56
(lp267
S':'
asbag49
(g70
g51
NtRp268
(dp269
g54
(dp270
sg63
g255
sg56
(lp271
g49
(g50
g51
NtRp272
(dp273
g54
(dp274
g62
I3
ssg63
g268
sg56
(lp275
S''
asbasbasbag49
(g65
g51
NtRp276
(dp277
g54
(dp278
sg63
g251
sg56
(lp279
g49
(g70
g51
NtRp280
(dp281
g54
(dp282
g74
g75
ssg63
g276
sg56
(lp283
S'domain'
p284
asbag49
(g70
g51
NtRp285
(dp286
g54
(dp287
g81
g82
ssg63
g276
sg56
(lp288
S':'
asbag49
(g70
g51
NtRp289
(dp290
g54
(dp291
sg63
g276
sg56
(lp292
g49
(g50
g51
NtRp293
(dp294
g54
(dp295
g62
I3
ssg63
g289
sg56
(lp296
S''
asbasbasbag49
(g65
g51
NtRp297
(dp298
g54
(dp299
sg63
g251
sg56
(lp300
g49
(g70
g51
NtRp301
(dp302
g54
(dp303
g74
g75
ssg63
g297
sg56
(lp304
S'expires'
p305
asbag49
(g70
g51
NtRp306
(dp307
g54
(dp308
g81
g82
ssg63
g297
sg56
(lp309
S':'
asbag49
(g70
g51
NtRp310
(dp311
g54
(dp312
sg63
g297
sg56
(lp313
g49
(g50
g51
NtRp314
(dp315
g54
(dp316
g62
I3
ssg63
g310
sg56
(lp317
S''
asbasbasbag49
(g65
g51
NtRp318
(dp319
g54
(dp320
sg63
g251
sg56
(lp321
g49
(g70
g51
NtRp322
(dp323
g54
(dp324
g74
g75
ssg63
g318
sg56
(lp325
S'max-age'
p326
asbag49
(g70
g51
NtRp327
(dp328
g54
(dp329
g81
g82
ssg63
g318
sg56
(lp330
S':'
asbag49
(g70
g51
NtRp331
(dp332
g54
(dp333
sg63
g318
sg56
(lp334
g49
(g50
g51
NtRp335
(dp336
g54
(dp337
g62
I3
ssg63
g331
sg56
(lp338
S''
asbasbasbag49
(g65
g51
NtRp339
(dp340
g54
(dp341
sg63
g251
sg56
(lp342
g49
(g70
g51
NtRp343
(dp344
g54
(dp345
g74
g75
ssg63
g339
sg56
(lp346
S'path'
p347
asbag49
(g70
g51
NtRp348
(dp349
g54
(dp350
g81
g82
ssg63
g339
sg56
(lp351
S':'
asbag49
(g70
g51
NtRp352
(dp353
g54
(dp354
sg63
g339
sg56
(lp355
g49
(g50
g51
NtRp356
(dp357
g54
(dp358
g62
I3
ssg63
g352
sg56
(lp359
S''
asbasbasbag49
(g65
g51
NtRp360
(dp361
g54
(dp362
sg63
g251
sg56
(lp363
g49
(g70
g51
NtRp364
(dp365
g54
(dp366
g74
g75
ssg63
g360
sg56
(lp367
S'secure'
p368
asbag49
(g70
g51
NtRp369
(dp370
g54
(dp371
g81
g82
ssg63
g360
sg56
(lp372
S':'
asbag49
(g70
g51
NtRp373
(dp374
g54
(dp375
sg63
g360
sg56
(lp376
g49
(g50
g51
NtRp377
(dp378
g54
(dp379
g62
I3
ssg63
g373
sg56
(lp380
S''
asbasbasbag49
(g65
g51
NtRp381
(dp382
g54
(dp383
sg63
g251
sg56
(lp384
g49
(g70
g51
NtRp385
(dp386
g54
(dp387
g74
g75
ssg63
g381
sg56
(lp388
S'version'
p389
asbag49
(g70
g51
NtRp390
(dp391
g54
(dp392
g81
g82
ssg63
g381
sg56
(lp393
S':'
asbag49
(g70
g51
NtRp394
(dp395
g54
(dp396
sg63
g381
sg56
(lp397
g49
(g50
g51
NtRp398
(dp399
g54
(dp400
g62
I3
ssg63
g394
sg56
(lp401
S''
asbasbasbasbasbasbasbag49
(g65
g51
NtRp402
(dp403
g54
(dp404
sg63
g226
sg56
(lp405
g49
(g70
g51
NtRp406
(dp407
g54
(dp408
g74
g75
ssg63
g402
sg56
(lp409
S'session_id_udi0312'
p410
asbag49
(g70
g51
NtRp411
(dp412
g54
(dp413
g81
g82
ssg63
g402
sg56
(lp414
S':'
asbag49
(g70
g51
NtRp415
(dp416
g54
(dp417
sg63
g402
sg56
(lp418
g49
(g50
g51
NtRp419
(dp420
g54
(dp421
g62
I4
ssg63
g415
sg56
(lp422
g49
(g58
g51
NtRp423
(dp424
g54
(dp425
g62
I3
ssg63
Nsg56
(lp426
g49
(g65
g51
NtRp427
(dp428
g54
(dp429
sg63
g423
sg56
(lp430
g49
(g70
g51
NtRp431
(dp432
g54
(dp433
g74
g75
ssg63
g427
sg56
(lp434
g263
asbag49
(g70
g51
NtRp435
(dp436
g54
(dp437
g81
g82
ssg63
g427
sg56
(lp438
S':'
asbag49
(g70
g51
NtRp439
(dp440
g54
(dp441
sg63
g427
sg56
(lp442
g49
(g50
g51
NtRp443
(dp444
g54
(dp445
g62
I3
ssg63
g439
sg56
(lp446
S''
asbasbasbag49
(g65
g51
NtRp447
(dp448
g54
(dp449
sg63
g423
sg56
(lp450
g49
(g70
g51
NtRp451
(dp452
g54
(dp453
g74
g75
ssg63
g447
sg56
(lp454
g284
asbag49
(g70
g51
NtRp455
(dp456
g54
(dp457
g81
g82
ssg63
g447
sg56
(lp458
S':'
asbag49
(g70
g51
NtRp459
(dp460
g54
(dp461
sg63
g447
sg56
(lp462
g49
(g50
g51
NtRp463
(dp464
g54
(dp465
g62
I3
ssg63
g459
sg56
(lp466
S''
asbasbasbag49
(g65
g51
NtRp467
(dp468
g54
(dp469
sg63
g423
sg56
(lp470
g49
(g70
g51
NtRp471
(dp472
g54
(dp473
g74
g75
ssg63
g467
sg56
(lp474
g305
asbag49
(g70
g51
NtRp475
(dp476
g54
(dp477
g81
g82
ssg63
g467
sg56
(lp478
S':'
asbag49
(g70
g51
NtRp479
(dp480
g54
(dp481
sg63
g467
sg56
(lp482
g49
(g50
g51
NtRp483
(dp484
g54
(dp485
g62
I3
ssg63
g479
sg56
(lp486
S''
asbasbasbag49
(g65
g51
NtRp487
(dp488
g54
(dp489
sg63
g423
sg56
(lp490
g49
(g70
g51
NtRp491
(dp492
g54
(dp493
g74
g75
ssg63
g487
sg56
(lp494
g326
asbag49
(g70
g51
NtRp495
(dp496
g54
(dp497
g81
g82
ssg63
g487
sg56
(lp498
S':'
asbag49
(g70
g51
NtRp499
(dp500
g54
(dp501
sg63
g487
sg56
(lp502
g49
(g50
g51
NtRp503
(dp504
g54
(dp505
g62
I3
ssg63
g499
sg56
(lp506
S''
asbasbasbag49
(g65
g51
NtRp507
(dp508
g54
(dp509
sg63
g423
sg56
(lp510
g49
(g70
g51
NtRp511
(dp512
g54
(dp513
g74
g75
ssg63
g507
sg56
(lp514
g347
asbag49
(g70
g51
NtRp515
(dp516
g54
(dp517
g81
g82
ssg63
g507
sg56
(lp518
S':'
asbag49
(g70
g51
NtRp519
(dp520
g54
(dp521
sg63
g507
sg56
(lp522
g49
(g50
g51
NtRp523
(dp524
g54
(dp525
g62
I3
ssg63
g519
sg56
(lp526
S''
asbasbasbag49
(g65
g51
NtRp527
(dp528
g54
(dp529
sg63
g423
sg56
(lp530
g49
(g70
g51
NtRp531
(dp532
g54
(dp533
g74
g75
ssg63
g527
sg56
(lp534
g368
asbag49
(g70
g51
NtRp535
(dp536
g54
(dp537
g81
g82
ssg63
g527
sg56
(lp538
S':'
asbag49
(g70
g51
NtRp539
(dp540
g54
(dp541
sg63
g527
sg56
(lp542
g49
(g50
g51
NtRp543
(dp544
g54
(dp545
g62
I3
ssg63
g539
sg56
(lp546
S''
asbasbasbag49
(g65
g51
NtRp547
(dp548
g54
(dp549
sg63
g423
sg56
(lp550
g49
(g70
g51
NtRp551
(dp552
g54
(dp553
g74
g75
ssg63
g547
sg56
(lp554
g389
asbag49
(g70
g51
NtRp555
(dp556
g54
(dp557
g81
g82
ssg63
g547
sg56
(lp558
S':'
asbag49
(g70
g51
NtRp559
(dp560
g54
(dp561
sg63
g547
sg56
(lp562
g49
(g50
g51
NtRp563
(dp564
g54
(dp565
g62
I3
ssg63
g559
sg56
(lp566
S''
asbasbasbasbasbasbasbasbasbasbasbag49
(g65
g51
NtRp567
(dp568
g54
(dp569
sg63
g59
sg56
(lp570
g49
(g70
g51
NtRp571
(dp572
g54
(dp573
g74
g75
ssg63
g567
sg56
(lp574
S'env'
p575
asbag49
(g70
g51
NtRp576
(dp577
g54
(dp578
g81
g82
ssg63
g567
sg56
(lp579
S':'
asbag49
(g70
g51
NtRp580
(dp581
g54
(dp582
sg63
g567
sg56
(lp583
g49
(g50
g51
NtRp584
(dp585
g54
(dp586
g62
I5
ssg63
g580
sg56
(lp587
g49
(g58
g51
NtRp588
(dp589
g54
(dp590
g62
I4
ssg63
Nsg56
(lp591
g49
(g65
g51
NtRp592
(dp593
g54
(dp594
sg63
g588
sg56
(lp595
g49
(g70
g51
NtRp596
(dp597
g54
(dp598
g74
g75
ssg63
g592
sg56
(lp599
S'app_folders'
p600
asbag49
(g70
g51
NtRp601
(dp602
g54
(dp603
g81
g82
ssg63
g592
sg56
(lp604
S':'
asbag49
(g70
g51
NtRp605
(dp606
g54
(dp607
sg63
g592
sg56
(lp608
g49
(g50
g51
NtRp609
(dp610
g54
(dp611
g62
I4
ssg63
g605
sg56
(lp612
S"set(['/Users/udimilo/Documents/web2py/applications/udi0312/', '/Users/udimilo/Documents/web2py/applications/admin/'])"
p613
asbasbasbag49
(g65
g51
NtRp614
(dp615
g54
(dp616
sg63
g588
sg56
(lp617
g49
(g70
g51
NtRp618
(dp619
g54
(dp620
g74
g75
ssg63
g614
sg56
(lp621
S'applications_parent'
p622
asbag49
(g70
g51
NtRp623
(dp624
g54
(dp625
g81
g82
ssg63
g614
sg56
(lp626
S':'
asbag49
(g70
g51
NtRp627
(dp628
g54
(dp629
sg63
g614
sg56
(lp630
g49
(g50
g51
NtRp631
(dp632
g54
(dp633
g62
I4
ssg63
g627
sg56
(lp634
S'/Users/udimilo/Documents/web2py'
p635
asbasbasbag49
(g65
g51
NtRp636
(dp637
g54
(dp638
sg63
g588
sg56
(lp639
g49
(g70
g51
NtRp640
(dp641
g54
(dp642
g74
g75
ssg63
g636
sg56
(lp643
S'cmd_args'
p644
asbag49
(g70
g51
NtRp645
(dp646
g54
(dp647
g81
g82
ssg63
g636
sg56
(lp648
S':'
asbag49
(g70
g51
NtRp649
(dp650
g54
(dp651
sg63
g636
sg56
(lp652
g49
(g50
g51
NtRp653
(dp654
g54
(dp655
g62
I4
ssg63
g649
sg56
(lp656
g49
(g58
g51
NtRp657
(dp658
g54
(dp659
g62
I3
ssg63
Nsg56
(lp660
sbasbasbasbag49
(g65
g51
NtRp661
(dp662
g54
(dp663
sg63
g588
sg56
(lp664
g49
(g70
g51
NtRp665
(dp666
g54
(dp667
g74
g75
ssg63
g661
sg56
(lp668
S'cmd_options'
p669
asbag49
(g70
g51
NtRp670
(dp671
g54
(dp672
g81
g82
ssg63
g661
sg56
(lp673
S':'
asbag49
(g70
g51
NtRp674
(dp675
g54
(dp676
sg63
g661
sg56
(lp677
g49
(g50
g51
NtRp678
(dp679
g54
(dp680
g62
I4
ssg63
g674
sg56
(lp681
S"<Values at 0x25380a8: {'verbose': False, 'ip': '127.0.0.1', 'shutdown_timeout': 5, 'taskbar': False, 'nocron': False, 'pid_filename': 'httpserver.pid', 'maxthreads': None, 'softcron': False, 'server_name': 'Udi-Milos-MacBook-Pro.local', 'bpython': False, 'nogui': False, 'port': 8000, 'extcron': False, 'debuglevel': 30, 'test': None, 'folder': '/Users/udimilo/Documents/web2py', 'config': '', 'import_models': False, 'winservice': '', 'shell': None, 'run': '', 'log_filename': 'httpserver.log', 'args': [''], 'socket_timeout': 5, 'ssl_ca_certificate': None, 'scheduler': None, 'profiler_filename': None, 'ssl_private_key': '', 'password': '<ask>', 'request_queue_size': 5, 'ssl_certificate': '', 'cronjob': False, 'numthreads': None, 'quiet': False, 'interfaces': None, 'minthreads': None, 'timeout': 10, 'plain': False, 'nobanner': False}>"
p682
asbasbasbag49
(g65
g51
NtRp683
(dp684
g54
(dp685
sg63
g588
sg56
(lp686
g49
(g70
g51
NtRp687
(dp688
g54
(dp689
g74
g75
ssg63
g683
sg56
(lp690
S'db_sessions'
p691
asbag49
(g70
g51
NtRp692
(dp693
g54
(dp694
g81
g82
ssg63
g683
sg56
(lp695
S':'
asbag49
(g70
g51
NtRp696
(dp697
g54
(dp698
sg63
g683
sg56
(lp699
g49
(g50
g51
NtRp700
(dp701
g54
(dp702
g62
I4
ssg63
g696
sg56
(lp703
S'set([])'
p704
asbasbasbag49
(g65
g51
NtRp705
(dp706
g54
(dp707
sg63
g588
sg56
(lp708
g49
(g70
g51
NtRp709
(dp710
g54
(dp711
g74
g75
ssg63
g705
sg56
(lp712
S'debugging'
p713
asbag49
(g70
g51
NtRp714
(dp715
g54
(dp716
g81
g82
ssg63
g705
sg56
(lp717
S':'
asbag49
(g70
g51
NtRp718
(dp719
g54
(dp720
sg63
g705
sg56
(lp721
g49
(g50
g51
NtRp722
(dp723
g54
(dp724
g62
I4
ssg63
g718
sg56
(lp725
g92
asbasbasbag49
(g65
g51
NtRp726
(dp727
g54
(dp728
sg63
g588
sg56
(lp729
g49
(g70
g51
NtRp730
(dp731
g54
(dp732
g74
g75
ssg63
g726
sg56
(lp733
S'gluon_parent'
p734
asbag49
(g70
g51
NtRp735
(dp736
g54
(dp737
g81
g82
ssg63
g726
sg56
(lp738
S':'
asbag49
(g70
g51
NtRp739
(dp740
g54
(dp741
sg63
g726
sg56
(lp742
g49
(g50
g51
NtRp743
(dp744
g54
(dp745
g62
I4
ssg63
g739
sg56
(lp746
S'/Users/udimilo/Documents/web2py'
p747
asbasbasbag49
(g65
g51
NtRp748
(dp749
g54
(dp750
sg63
g588
sg56
(lp751
g49
(g70
g51
NtRp752
(dp753
g54
(dp754
g74
g75
ssg63
g748
sg56
(lp755
S'http_accept'
p756
asbag49
(g70
g51
NtRp757
(dp758
g54
(dp759
g81
g82
ssg63
g748
sg56
(lp760
S':'
asbag49
(g70
g51
NtRp761
(dp762
g54
(dp763
sg63
g748
sg56
(lp764
g49
(g50
g51
NtRp765
(dp766
g54
(dp767
g62
I4
ssg63
g761
sg56
(lp768
S'text/html,application/xhtml+xml,application/xml;q=0.9,*/*;q=0.8'
p769
asbasbasbag49
(g65
g51
NtRp770
(dp771
g54
(dp772
sg63
g588
sg56
(lp773
g49
(g70
g51
NtRp774
(dp775
g54
(dp776
g74
g75
ssg63
g770
sg56
(lp777
S'http_accept_charset'
p778
asbag49
(g70
g51
NtRp779
(dp780
g54
(dp781
g81
g82
ssg63
g770
sg56
(lp782
S':'
asbag49
(g70
g51
NtRp783
(dp784
g54
(dp785
sg63
g770
sg56
(lp786
g49
(g50
g51
NtRp787
(dp788
g54
(dp789
g62
I4
ssg63
g783
sg56
(lp790
S'ISO-8859-1,utf-8;q=0.7,*;q=0.3'
p791
asbasbasbag49
(g65
g51
NtRp792
(dp793
g54
(dp794
sg63
g588
sg56
(lp795
g49
(g70
g51
NtRp796
(dp797
g54
(dp798
g74
g75
ssg63
g792
sg56
(lp799
S'http_accept_encoding'
p800
asbag49
(g70
g51
NtRp801
(dp802
g54
(dp803
g81
g82
ssg63
g792
sg56
(lp804
S':'
asbag49
(g70
g51
NtRp805
(dp806
g54
(dp807
sg63
g792
sg56
(lp808
g49
(g50
g51
NtRp809
(dp810
g54
(dp811
g62
I4
ssg63
g805
sg56
(lp812
S'gzip,deflate,sdch'
p813
asbasbasbag49
(g65
g51
NtRp814
(dp815
g54
(dp816
sg63
g588
sg56
(lp817
g49
(g70
g51
NtRp818
(dp819
g54
(dp820
g74
g75
ssg63
g814
sg56
(lp821
S'http_accept_language'
p822
asbag49
(g70
g51
NtRp823
(dp824
g54
(dp825
g81
g82
ssg63
g814
sg56
(lp826
S':'
asbag49
(g70
g51
NtRp827
(dp828
g54
(dp829
sg63
g814
sg56
(lp830
g49
(g50
g51
NtRp831
(dp832
g54
(dp833
g62
I4
ssg63
g827
sg56
(lp834
S'en-US,en;q=0.8'
p835
asbasbasbag49
(g65
g51
NtRp836
(dp837
g54
(dp838
sg63
g588
sg56
(lp839
g49
(g70
g51
NtRp840
(dp841
g54
(dp842
g74
g75
ssg63
g836
sg56
(lp843
S'http_cache_control'
p844
asbag49
(g70
g51
NtRp845
(dp846
g54
(dp847
g81
g82
ssg63
g836
sg56
(lp848
S':'
asbag49
(g70
g51
NtRp849
(dp850
g54
(dp851
sg63
g836
sg56
(lp852
g49
(g50
g51
NtRp853
(dp854
g54
(dp855
g62
I4
ssg63
g849
sg56
(lp856
S'max-age=0'
p857
asbasbasbag49
(g65
g51
NtRp858
(dp859
g54
(dp860
sg63
g588
sg56
(lp861
g49
(g70
g51
NtRp862
(dp863
g54
(dp864
g74
g75
ssg63
g858
sg56
(lp865
S'http_connection'
p866
asbag49
(g70
g51
NtRp867
(dp868
g54
(dp869
g81
g82
ssg63
g858
sg56
(lp870
S':'
asbag49
(g70
g51
NtRp871
(dp872
g54
(dp873
sg63
g858
sg56
(lp874
g49
(g50
g51
NtRp875
(dp876
g54
(dp877
g62
I4
ssg63
g871
sg56
(lp878
S'keep-alive'
p879
asbasbasbag49
(g65
g51
NtRp880
(dp881
g54
(dp882
sg63
g588
sg56
(lp883
g49
(g70
g51
NtRp884
(dp885
g54
(dp886
g74
g75
ssg63
g880
sg56
(lp887
S'http_cookie'
p888
asbag49
(g70
g51
NtRp889
(dp890
g54
(dp891
g81
g82
ssg63
g880
sg56
(lp892
S':'
asbag49
(g70
g51
NtRp893
(dp894
g54
(dp895
sg63
g880
sg56
(lp896
g49
(g50
g51
NtRp897
(dp898
g54
(dp899
g62
I4
ssg63
g893
sg56
(lp900
S'session_id_udi0312=127.0.0.1-fcd6a577-d448-4882-b7bc-f353da84ba3b; session_id_admin=127.0.0.1-b5d2d893-9021-4d7d-9960-d4141664a5bc'
p901
asbasbasbag49
(g65
g51
NtRp902
(dp903
g54
(dp904
sg63
g588
sg56
(lp905
g49
(g70
g51
NtRp906
(dp907
g54
(dp908
g74
g75
ssg63
g902
sg56
(lp909
S'http_host'
p910
asbag49
(g70
g51
NtRp911
(dp912
g54
(dp913
g81
g82
ssg63
g902
sg56
(lp914
S':'
asbag49
(g70
g51
NtRp915
(dp916
g54
(dp917
sg63
g902
sg56
(lp918
g49
(g50
g51
NtRp919
(dp920
g54
(dp921
g62
I4
ssg63
g915
sg56
(lp922
S'127.0.0.1:8000'
p923
asbasbasbag49
(g65
g51
NtRp924
(dp925
g54
(dp926
sg63
g588
sg56
(lp927
g49
(g70
g51
NtRp928
(dp929
g54
(dp930
g74
g75
ssg63
g924
sg56
(lp931
S'http_referer'
p932
asbag49
(g70
g51
NtRp933
(dp934
g54
(dp935
g81
g82
ssg63
g924
sg56
(lp936
S':'
asbag49
(g70
g51
NtRp937
(dp938
g54
(dp939
sg63
g924
sg56
(lp940
g49
(g50
g51
NtRp941
(dp942
g54
(dp943
g62
I4
ssg63
g937
sg56
(lp944
S'http://127.0.0.1:8000/admin/site'
p945
asbasbasbag49
(g65
g51
NtRp946
(dp947
g54
(dp948
sg63
g588
sg56
(lp949
g49
(g70
g51
NtRp950
(dp951
g54
(dp952
g74
g75
ssg63
g946
sg56
(lp953
S'http_user_agent'
p954
asbag49
(g70
g51
NtRp955
(dp956
g54
(dp957
g81
g82
ssg63
g946
sg56
(lp958
S':'
asbag49
(g70
g51
NtRp959
(dp960
g54
(dp961
sg63
g946
sg56
(lp962
g49
(g50
g51
NtRp963
(dp964
g54
(dp965
g62
I4
ssg63
g959
sg56
(lp966
S'Mozilla/5.0 (Macintosh; Intel Mac OS X 10_7_3) AppleWebKit/535.11 (KHTML, like Gecko) Chrome/17.0.963.79 Safari/535.11'
p967
asbasbasbag49
(g65
g51
NtRp968
(dp969
g54
(dp970
sg63
g588
sg56
(lp971
g49
(g70
g51
NtRp972
(dp973
g54
(dp974
g74
g75
ssg63
g968
sg56
(lp975
S'is_jython'
p976
asbag49
(g70
g51
NtRp977
(dp978
g54
(dp979
g81
g82
ssg63
g968
sg56
(lp980
S':'
asbag49
(g70
g51
NtRp981
(dp982
g54
(dp983
sg63
g968
sg56
(lp984
g49
(g50
g51
NtRp985
(dp986
g54
(dp987
g62
I4
ssg63
g981
sg56
(lp988
g92
asbasbasbag49
(g65
g51
NtRp989
(dp990
g54
(dp991
sg63
g588
sg56
(lp992
g49
(g70
g51
NtRp993
(dp994
g54
(dp995
g74
g75
ssg63
g989
sg56
(lp996
S'is_pypy'
p997
asbag49
(g70
g51
NtRp998
(dp999
g54
(dp1000
g81
g82
ssg63
g989
sg56
(lp1001
S':'
asbag49
(g70
g51
NtRp1002
(dp1003
g54
(dp1004
sg63
g989
sg56
(lp1005
g49
(g50
g51
NtRp1006
(dp1007
g54
(dp1008
g62
I4
ssg63
g1002
sg56
(lp1009
g92
asbasbasbag49
(g65
g51
NtRp1010
(dp1011
g54
(dp1012
sg63
g588
sg56
(lp1013
g49
(g70
g51
NtRp1014
(dp1015
g54
(dp1016
g74
g75
ssg63
g1010
sg56
(lp1017
S'path_info'
p1018
asbag49
(g70
g51
NtRp1019
(dp1020
g54
(dp1021
g81
g82
ssg63
g1010
sg56
(lp1022
S':'
asbag49
(g70
g51
NtRp1023
(dp1024
g54
(dp1025
sg63
g1010
sg56
(lp1026
g49
(g50
g51
NtRp1027
(dp1028
g54
(dp1029
g62
I4
ssg63
g1023
sg56
(lp1030
S'/'
asbasbasbag49
(g65
g51
NtRp1031
(dp1032
g54
(dp1033
sg63
g588
sg56
(lp1034
g49
(g70
g51
NtRp1035
(dp1036
g54
(dp1037
g74
g75
ssg63
g1031
sg56
(lp1038
S'query_string'
p1039
asbag49
(g70
g51
NtRp1040
(dp1041
g54
(dp1042
g81
g82
ssg63
g1031
sg56
(lp1043
S':'
asbag49
(g70
g51
NtRp1044
(dp1045
g54
(dp1046
sg63
g1031
sg56
(lp1047
g49
(g50
g51
NtRp1048
(dp1049
g54
(dp1050
g62
I4
ssg63
g1044
sg56
(lp1051
S''
asbasbasbag49
(g65
g51
NtRp1052
(dp1053
g54
(dp1054
sg63
g588
sg56
(lp1055
g49
(g70
g51
NtRp1056
(dp1057
g54
(dp1058
g74
g75
ssg63
g1052
sg56
(lp1059
S'remote_addr'
p1060
asbag49
(g70
g51
NtRp1061
(dp1062
g54
(dp1063
g81
g82
ssg63
g1052
sg56
(lp1064
S':'
asbag49
(g70
g51
NtRp1065
(dp1066
g54
(dp1067
sg63
g1052
sg56
(lp1068
g49
(g50
g51
NtRp1069
(dp1070
g54
(dp1071
g62
I4
ssg63
g1065
sg56
(lp1072
g182
asbasbasbag49
(g65
g51
NtRp1073
(dp1074
g54
(dp1075
sg63
g588
sg56
(lp1076
g49
(g70
g51
NtRp1077
(dp1078
g54
(dp1079
g74
g75
ssg63
g1073
sg56
(lp1080
S'remote_port'
p1081
asbag49
(g70
g51
NtRp1082
(dp1083
g54
(dp1084
g81
g82
ssg63
g1073
sg56
(lp1085
S':'
asbag49
(g70
g51
NtRp1086
(dp1087
g54
(dp1088
sg63
g1073
sg56
(lp1089
g49
(g50
g51
NtRp1090
(dp1091
g54
(dp1092
g62
I4
ssg63
g1086
sg56
(lp1093
S'59264'
p1094
asbasbasbag49
(g65
g51
NtRp1095
(dp1096
g54
(dp1097
sg63
g588
sg56
(lp1098
g49
(g70
g51
NtRp1099
(dp1100
g54
(dp1101
g74
g75
ssg63
g1095
sg56
(lp1102
S'request_method'
p1103
asbag49
(g70
g51
NtRp1104
(dp1105
g54
(dp1106
g81
g82
ssg63
g1095
sg56
(lp1107
S':'
asbag49
(g70
g51
NtRp1108
(dp1109
g54
(dp1110
sg63
g1095
sg56
(lp1111
g49
(g50
g51
NtRp1112
(dp1113
g54
(dp1114
g62
I4
ssg63
g1108
sg56
(lp1115
S'GET'
p1116
asbasbasbag49
(g65
g51
NtRp1117
(dp1118
g54
(dp1119
sg63
g588
sg56
(lp1120
g49
(g70
g51
NtRp1121
(dp1122
g54
(dp1123
g74
g75
ssg63
g1117
sg56
(lp1124
S'request_uri'
p1125
asbag49
(g70
g51
NtRp1126
(dp1127
g54
(dp1128
g81
g82
ssg63
g1117
sg56
(lp1129
S':'
asbag49
(g70
g51
NtRp1130
(dp1131
g54
(dp1132
sg63
g1117
sg56
(lp1133
g49
(g50
g51
NtRp1134
(dp1135
g54
(dp1136
g62
I4
ssg63
g1130
sg56
(lp1137
S'/udi0312/default/index'
p1138
asbasbasbag49
(g65
g51
NtRp1139
(dp1140
g54
(dp1141
sg63
g588
sg56
(lp1142
g49
(g70
g51
NtRp1143
(dp1144
g54
(dp1145
g74
g75
ssg63
g1139
sg56
(lp1146
S'script_name'
p1147
asbag49
(g70
g51
NtRp1148
(dp1149
g54
(dp1150
g81
g82
ssg63
g1139
sg56
(lp1151
S':'
asbag49
(g70
g51
NtRp1152
(dp1153
g54
(dp1154
sg63
g1139
sg56
(lp1155
g49
(g50
g51
NtRp1156
(dp1157
g54
(dp1158
g62
I4
ssg63
g1152
sg56
(lp1159
S''
asbasbasbag49
(g65
g51
NtRp1160
(dp1161
g54
(dp1162
sg63
g588
sg56
(lp1163
g49
(g70
g51
NtRp1164
(dp1165
g54
(dp1166
g74
g75
ssg63
g1160
sg56
(lp1167
S'server_name'
p1168
asbag49
(g70
g51
NtRp1169
(dp1170
g54
(dp1171
g81
g82
ssg63
g1160
sg56
(lp1172
S':'
asbag49
(g70
g51
NtRp1173
(dp1174
g54
(dp1175
sg63
g1160
sg56
(lp1176
g49
(g50
g51
NtRp1177
(dp1178
g54
(dp1179
g62
I4
ssg63
g1173
sg56
(lp1180
S'Udi-Milos-MacBook-Pro.local'
p1181
asbasbasbag49
(g65
g51
NtRp1182
(dp1183
g54
(dp1184
sg63
g588
sg56
(lp1185
g49
(g70
g51
NtRp1186
(dp1187
g54
(dp1188
g74
g75
ssg63
g1182
sg56
(lp1189
S'server_port'
p1190
asbag49
(g70
g51
NtRp1191
(dp1192
g54
(dp1193
g81
g82
ssg63
g1182
sg56
(lp1194
S':'
asbag49
(g70
g51
NtRp1195
(dp1196
g54
(dp1197
sg63
g1182
sg56
(lp1198
g49
(g50
g51
NtRp1199
(dp1200
g54
(dp1201
g62
I4
ssg63
g1195
sg56
(lp1202
S'8000'
p1203
asbasbasbag49
(g65
g51
NtRp1204
(dp1205
g54
(dp1206
sg63
g588
sg56
(lp1207
g49
(g70
g51
NtRp1208
(dp1209
g54
(dp1210
g74
g75
ssg63
g1204
sg56
(lp1211
S'server_protocol'
p1212
asbag49
(g70
g51
NtRp1213
(dp1214
g54
(dp1215
g81
g82
ssg63
g1204
sg56
(lp1216
S':'
asbag49
(g70
g51
NtRp1217
(dp1218
g54
(dp1219
sg63
g1204
sg56
(lp1220
g49
(g50
g51
NtRp1221
(dp1222
g54
(dp1223
g62
I4
ssg63
g1217
sg56
(lp1224
S'HTTP/1.1'
p1225
asbasbasbag49
(g65
g51
NtRp1226
(dp1227
g54
(dp1228
sg63
g588
sg56
(lp1229
g49
(g70
g51
NtRp1230
(dp1231
g54
(dp1232
g74
g75
ssg63
g1226
sg56
(lp1233
S'server_software'
p1234
asbag49
(g70
g51
NtRp1235
(dp1236
g54
(dp1237
g81
g82
ssg63
g1226
sg56
(lp1238
S':'
asbag49
(g70
g51
NtRp1239
(dp1240
g54
(dp1241
sg63
g1226
sg56
(lp1242
g49
(g50
g51
NtRp1243
(dp1244
g54
(dp1245
g62
I4
ssg63
g1239
sg56
(lp1246
S'Rocket 1.2.4'
p1247
asbasbasbag49
(g65
g51
NtRp1248
(dp1249
g54
(dp1250
sg63
g588
sg56
(lp1251
g49
(g70
g51
NtRp1252
(dp1253
g54
(dp1254
g74
g75
ssg63
g1248
sg56
(lp1255
S'web2py_crontype'
p1256
asbag49
(g70
g51
NtRp1257
(dp1258
g54
(dp1259
g81
g82
ssg63
g1248
sg56
(lp1260
S':'
asbag49
(g70
g51
NtRp1261
(dp1262
g54
(dp1263
sg63
g1248
sg56
(lp1264
g49
(g50
g51
NtRp1265
(dp1266
g54
(dp1267
g62
I4
ssg63
g1261
sg56
(lp1268
S'hard'
p1269
asbasbasbag49
(g65
g51
NtRp1270
(dp1271
g54
(dp1272
sg63
g588
sg56
(lp1273
g49
(g70
g51
NtRp1274
(dp1275
g54
(dp1276
g74
g75
ssg63
g1270
sg56
(lp1277
S'web2py_original_uri'
p1278
asbag49
(g70
g51
NtRp1279
(dp1280
g54
(dp1281
g81
g82
ssg63
g1270
sg56
(lp1282
S':'
asbag49
(g70
g51
NtRp1283
(dp1284
g54
(dp1285
sg63
g1270
sg56
(lp1286
g49
(g50
g51
NtRp1287
(dp1288
g54
(dp1289
g62
I4
ssg63
g1283
sg56
(lp1290
S'/'
asbasbasbag49
(g65
g51
NtRp1291
(dp1292
g54
(dp1293
sg63
g588
sg56
(lp1294
g49
(g70
g51
NtRp1295
(dp1296
g54
(dp1297
g74
g75
ssg63
g1291
sg56
(lp1298
S'web2py_path'
p1299
asbag49
(g70
g51
NtRp1300
(dp1301
g54
(dp1302
g81
g82
ssg63
g1291
sg56
(lp1303
S':'
asbag49
(g70
g51
NtRp1304
(dp1305
g54
(dp1306
sg63
g1291
sg56
(lp1307
g49
(g50
g51
NtRp1308
(dp1309
g54
(dp1310
g62
I4
ssg63
g1304
sg56
(lp1311
g635
asbasbasbag49
(g65
g51
NtRp1312
(dp1313
g54
(dp1314
sg63
g588
sg56
(lp1315
g49
(g70
g51
NtRp1316
(dp1317
g54
(dp1318
g74
g75
ssg63
g1312
sg56
(lp1319
S'web2py_version'
p1320
asbag49
(g70
g51
NtRp1321
(dp1322
g54
(dp1323
g81
g82
ssg63
g1312
sg56
(lp1324
S':'
asbag49
(g70
g51
NtRp1325
(dp1326
g54
(dp1327
sg63
g1312
sg56
(lp1328
g49
(g50
g51
NtRp1329
(dp1330
g54
(dp1331
g62
I4
ssg63
g1325
sg56
(lp1332
g49
(g58
g51
NtRp1333
(dp1334
g54
(dp1335
g62
I3
ssg63
Nsg56
(lp1336
g49
(g65
g51
NtRp1337
(dp1338
g54
(dp1339
sg63
g1333
sg56
(lp1340
g49
(g70
g51
NtRp1341
(dp1342
g54
(dp1343
sg63
g1337
sg56
(lp1344
g49
(g50
g51
NtRp1345
(dp1346
g54
(dp1347
g62
I3
ssg63
g1341
sg56
(lp1348
S'1'
asbasbasbag49
(g65
g51
NtRp1349
(dp1350
g54
(dp1351
sg63
g1333
sg56
(lp1352
g49
(g70
g51
NtRp1353
(dp1354
g54
(dp1355
sg63
g1349
sg56
(lp1356
g49
(g50
g51
NtRp1357
(dp1358
g54
(dp1359
g62
I3
ssg63
g1353
sg56
(lp1360
S'99'
p1361
asbasbasbag49
(g65
g51
NtRp1362
(dp1363
g54
(dp1364
sg63
g1333
sg56
(lp1365
g49
(g70
g51
NtRp1366
(dp1367
g54
(dp1368
sg63
g1362
sg56
(lp1369
g49
(g50
g51
NtRp1370
(dp1371
g54
(dp1372
g62
I3
ssg63
g1366
sg56
(lp1373
S'7'
asbasbasbag49
(g65
g51
NtRp1374
(dp1375
g54
(dp1376
sg63
g1333
sg56
(lp1377
g49
(g70
g51
NtRp1378
(dp1379
g54
(dp1380
sg63
g1374
sg56
(lp1381
g49
(g50
g51
NtRp1382
(dp1383
g54
(dp1384
g62
I3
ssg63
g1378
sg56
(lp1385
S'datetime.datetime(2012, 3, 4, 22, 12, 8)'
p1386
asbasbasbag49
(g65
g51
NtRp1387
(dp1388
g54
(dp1389
sg63
g1333
sg56
(lp1390
g49
(g70
g51
NtRp1391
(dp1392
g54
(dp1393
sg63
g1387
sg56
(lp1394
g49
(g50
g51
NtRp1395
(dp1396
g54
(dp1397
g62
I3
ssg63
g1391
sg56
(lp1398
S'stable'
p1399
asbasbasbasbasbasbasbag49
(g65
g51
NtRp1400
(dp1401
g54
(dp1402
sg63
g588
sg56
(lp1403
g49
(g70
g51
NtRp1404
(dp1405
g54
(dp1406
g74
g75
ssg63
g1400
sg56
(lp1407
S'wsgi_errors'
p1408
asbag49
(g70
g51
NtRp1409
(dp1410
g54
(dp1411
g81
g82
ssg63
g1400
sg56
(lp1412
S':'
asbag49
(g70
g51
NtRp1413
(dp1414
g54
(dp1415
sg63
g1400
sg56
(lp1416
g49
(g50
g51
NtRp1417
(dp1418
g54
(dp1419
g62
I4
ssg63
g1413
sg56
(lp1420
S"<open file '<stderr>', mode 'w' at 0x4220b0>"
p1421
asbasbasbag49
(g65
g51
NtRp1422
(dp1423
g54
(dp1424
sg63
g588
sg56
(lp1425
g49
(g70
g51
NtRp1426
(dp1427
g54
(dp1428
g74
g75
ssg63
g1422
sg56
(lp1429
S'wsgi_file_wrapper'
p1430
asbag49
(g70
g51
NtRp1431
(dp1432
g54
(dp1433
g81
g82
ssg63
g1422
sg56
(lp1434
S':'
asbag49
(g70
g51
NtRp1435
(dp1436
g54
(dp1437
sg63
g1422
sg56
(lp1438
g49
(g50
g51
NtRp1439
(dp1440
g54
(dp1441
g62
I4
ssg63
g1435
sg56
(lp1442
S'<class wsgiref.util.FileWrapper at 0x235e6c0>'
p1443
asbasbasbag49
(g65
g51
NtRp1444
(dp1445
g54
(dp1446
sg63
g588
sg56
(lp1447
g49
(g70
g51
NtRp1448
(dp1449
g54
(dp1450
g74
g75
ssg63
g1444
sg56
(lp1451
S'wsgi_input'
p1452
asbag49
(g70
g51
NtRp1453
(dp1454
g54
(dp1455
g81
g82
ssg63
g1444
sg56
(lp1456
S':'
asbag49
(g70
g51
NtRp1457
(dp1458
g54
(dp1459
sg63
g1444
sg56
(lp1460
g49
(g50
g51
NtRp1461
(dp1462
g54
(dp1463
g62
I4
ssg63
g1457
sg56
(lp1464
S'<socket._fileobject object at 0x9e77af0>'
p1465
asbasbasbag49
(g65
g51
NtRp1466
(dp1467
g54
(dp1468
sg63
g588
sg56
(lp1469
g49
(g70
g51
NtRp1470
(dp1471
g54
(dp1472
g74
g75
ssg63
g1466
sg56
(lp1473
S'wsgi_multiprocess'
p1474
asbag49
(g70
g51
NtRp1475
(dp1476
g54
(dp1477
g81
g82
ssg63
g1466
sg56
(lp1478
S':'
asbag49
(g70
g51
NtRp1479
(dp1480
g54
(dp1481
sg63
g1466
sg56
(lp1482
g49
(g50
g51
NtRp1483
(dp1484
g54
(dp1485
g62
I4
ssg63
g1479
sg56
(lp1486
g92
asbasbasbag49
(g65
g51
NtRp1487
(dp1488
g54
(dp1489
sg63
g588
sg56
(lp1490
g49
(g70
g51
NtRp1491
(dp1492
g54
(dp1493
g74
g75
ssg63
g1487
sg56
(lp1494
S'wsgi_multithread'
p1495
asbag49
(g70
g51
NtRp1496
(dp1497
g54
(dp1498
g81
g82
ssg63
g1487
sg56
(lp1499
S':'
asbag49
(g70
g51
NtRp1500
(dp1501
g54
(dp1502
sg63
g1487
sg56
(lp1503
g49
(g50
g51
NtRp1504
(dp1505
g54
(dp1506
g62
I4
ssg63
g1500
sg56
(lp1507
S'True'
p1508
asbasbasbag49
(g65
g51
NtRp1509
(dp1510
g54
(dp1511
sg63
g588
sg56
(lp1512
g49
(g70
g51
NtRp1513
(dp1514
g54
(dp1515
g74
g75
ssg63
g1509
sg56
(lp1516
S'wsgi_run_once'
p1517
asbag49
(g70
g51
NtRp1518
(dp1519
g54
(dp1520
g81
g82
ssg63
g1509
sg56
(lp1521
S':'
asbag49
(g70
g51
NtRp1522
(dp1523
g54
(dp1524
sg63
g1509
sg56
(lp1525
g49
(g50
g51
NtRp1526
(dp1527
g54
(dp1528
g62
I4
ssg63
g1522
sg56
(lp1529
g92
asbasbasbag49
(g65
g51
NtRp1530
(dp1531
g54
(dp1532
sg63
g588
sg56
(lp1533
g49
(g70
g51
NtRp1534
(dp1535
g54
(dp1536
g74
g75
ssg63
g1530
sg56
(lp1537
S'wsgi_url_scheme'
p1538
asbag49
(g70
g51
NtRp1539
(dp1540
g54
(dp1541
g81
g82
ssg63
g1530
sg56
(lp1542
S':'
asbag49
(g70
g51
NtRp1543
(dp1544
g54
(dp1545
sg63
g1530
sg56
(lp1546
g49
(g50
g51
NtRp1547
(dp1548
g54
(dp1549
g62
I4
ssg63
g1543
sg56
(lp1550
S'http'
p1551
asbasbasbag49
(g65
g51
NtRp1552
(dp1553
g54
(dp1554
sg63
g588
sg56
(lp1555
g49
(g70
g51
NtRp1556
(dp1557
g54
(dp1558
g74
g75
ssg63
g1552
sg56
(lp1559
S'wsgi_version'
p1560
asbag49
(g70
g51
NtRp1561
(dp1562
g54
(dp1563
g81
g82
ssg63
g1552
sg56
(lp1564
S':'
asbag49
(g70
g51
NtRp1565
(dp1566
g54
(dp1567
sg63
g1552
sg56
(lp1568
g49
(g50
g51
NtRp1569
(dp1570
g54
(dp1571
g62
I4
ssg63
g1565
sg56
(lp1572
g49
(g58
g51
NtRp1573
(dp1574
g54
(dp1575
g62
I3
ssg63
Nsg56
(lp1576
g49
(g65
g51
NtRp1577
(dp1578
g54
(dp1579
sg63
g1573
sg56
(lp1580
g49
(g70
g51
NtRp1581
(dp1582
g54
(dp1583
sg63
g1577
sg56
(lp1584
g49
(g50
g51
NtRp1585
(dp1586
g54
(dp1587
g62
I3
ssg63
g1581
sg56
(lp1588
S'1'
asbasbasbag49
(g65
g51
NtRp1589
(dp1590
g54
(dp1591
sg63
g1573
sg56
(lp1592
g49
(g70
g51
NtRp1593
(dp1594
g54
(dp1595
sg63
g1589
sg56
(lp1596
g49
(g50
g51
NtRp1597
(dp1598
g54
(dp1599
g62
I3
ssg63
g1593
sg56
(lp1600
S'0'
asbasbasbasbasbasbasbasbasbasbasbag49
(g65
g51
NtRp1601
(dp1602
g54
(dp1603
sg63
g59
sg56
(lp1604
g49
(g70
g51
NtRp1605
(dp1606
g54
(dp1607
g74
g75
ssg63
g1601
sg56
(lp1608
S'extension'
p1609
asbag49
(g70
g51
NtRp1610
(dp1611
g54
(dp1612
g81
g82
ssg63
g1601
sg56
(lp1613
S':'
asbag49
(g70
g51
NtRp1614
(dp1615
g54
(dp1616
sg63
g1601
sg56
(lp1617
g49
(g50
g51
NtRp1618
(dp1619
g54
(dp1620
g62
I5
ssg63
g1614
sg56
(lp1621
S'html'
p1622
asbasbasbag49
(g65
g51
NtRp1623
(dp1624
g54
(dp1625
sg63
g59
sg56
(lp1626
g49
(g70
g51
NtRp1627
(dp1628
g54
(dp1629
g74
g75
ssg63
g1623
sg56
(lp1630
S'folder'
p1631
asbag49
(g70
g51
NtRp1632
(dp1633
g54
(dp1634
g81
g82
ssg63
g1623
sg56
(lp1635
S':'
asbag49
(g70
g51
NtRp1636
(dp1637
g54
(dp1638
sg63
g1623
sg56
(lp1639
g49
(g50
g51
NtRp1640
(dp1641
g54
(dp1642
g62
I5
ssg63
g1636
sg56
(lp1643
S'/Users/udimilo/Documents/web2py/applications/udi0312/'
p1644
asbasbasbag49
(g65
g51
NtRp1645
(dp1646
g54
(dp1647
sg63
g59
sg56
(lp1648
g49
(g70
g51
NtRp1649
(dp1650
g54
(dp1651
g74
g75
ssg63
g1645
sg56
(lp1652
S'function'
p1653
asbag49
(g70
g51
NtRp1654
(dp1655
g54
(dp1656
g81
g82
ssg63
g1645
sg56
(lp1657
S':'
asbag49
(g70
g51
NtRp1658
(dp1659
g54
(dp1660
sg63
g1645
sg56
(lp1661
g49
(g50
g51
NtRp1662
(dp1663
g54
(dp1664
g62
I5
ssg63
g1658
sg56
(lp1665
S'index'
p1666
asbasbasbag49
(g65
g51
NtRp1667
(dp1668
g54
(dp1669
sg63
g59
sg56
(lp1670
g49
(g70
g51
NtRp1671
(dp1672
g54
(dp1673
g74
g75
ssg63
g1667
sg56
(lp1674
S'get_vars'
p1675
asbag49
(g70
g51
NtRp1676
(dp1677
g54
(dp1678
g81
g82
ssg63
g1667
sg56
(lp1679
S':'
asbag49
(g70
g51
NtRp1680
(dp1681
g54
(dp1682
sg63
g1667
sg56
(lp1683
g49
(g50
g51
NtRp1684
(dp1685
g54
(dp1686
g62
I5
ssg63
g1680
sg56
(lp1687
g49
(g58
g51
NtRp1688
(dp1689
g54
(dp1690
g62
I4
ssg63
Nsg56
(lp1691
sbasbasbasbag49
(g65
g51
NtRp1692
(dp1693
g54
(dp1694
sg63
g59
sg56
(lp1695
g49
(g70
g51
NtRp1696
(dp1697
g54
(dp1698
g74
g75
ssg63
g1692
sg56
(lp1699
S'global_settings'
p1700
asbag49
(g70
g51
NtRp1701
(dp1702
g54
(dp1703
g81
g82
ssg63
g1692
sg56
(lp1704
S':'
asbag49
(g70
g51
NtRp1705
(dp1706
g54
(dp1707
sg63
g1692
sg56
(lp1708
g49
(g50
g51
NtRp1709
(dp1710
g54
(dp1711
g62
I5
ssg63
g1705
sg56
(lp1712
g49
(g58
g51
NtRp1713
(dp1714
g54
(dp1715
g62
I4
ssg63
Nsg56
(lp1716
g49
(g65
g51
NtRp1717
(dp1718
g54
(dp1719
sg63
g1713
sg56
(lp1720
g49
(g70
g51
NtRp1721
(dp1722
g54
(dp1723
g74
g75
ssg63
g1717
sg56
(lp1724
g600
asbag49
(g70
g51
NtRp1725
(dp1726
g54
(dp1727
g81
g82
ssg63
g1717
sg56
(lp1728
S':'
asbag49
(g70
g51
NtRp1729
(dp1730
g54
(dp1731
sg63
g1717
sg56
(lp1732
g49
(g50
g51
NtRp1733
(dp1734
g54
(dp1735
g62
I4
ssg63
g1729
sg56
(lp1736
S"set(['/Users/udimilo/Documents/web2py/applications/udi0312/', '/Users/udimilo/Documents/web2py/applications/admin/'])"
p1737
asbasbasbag49
(g65
g51
NtRp1738
(dp1739
g54
(dp1740
sg63
g1713
sg56
(lp1741
g49
(g70
g51
NtRp1742
(dp1743
g54
(dp1744
g74
g75
ssg63
g1738
sg56
(lp1745
g622
asbag49
(g70
g51
NtRp1746
(dp1747
g54
(dp1748
g81
g82
ssg63
g1738
sg56
(lp1749
S':'
asbag49
(g70
g51
NtRp1750
(dp1751
g54
(dp1752
sg63
g1738
sg56
(lp1753
g49
(g50
g51
NtRp1754
(dp1755
g54
(dp1756
g62
I4
ssg63
g1750
sg56
(lp1757
g635
asbasbasbag49
(g65
g51
NtRp1758
(dp1759
g54
(dp1760
sg63
g1713
sg56
(lp1761
g49
(g70
g51
NtRp1762
(dp1763
g54
(dp1764
g74
g75
ssg63
g1758
sg56
(lp1765
g644
asbag49
(g70
g51
NtRp1766
(dp1767
g54
(dp1768
g81
g82
ssg63
g1758
sg56
(lp1769
S':'
asbag49
(g70
g51
NtRp1770
(dp1771
g54
(dp1772
sg63
g1758
sg56
(lp1773
g49
(g50
g51
NtRp1774
(dp1775
g54
(dp1776
g62
I4
ssg63
g1770
sg56
(lp1777
g49
(g58
g51
NtRp1778
(dp1779
g54
(dp1780
g62
I3
ssg63
Nsg56
(lp1781
sbasbasbasbag49
(g65
g51
NtRp1782
(dp1783
g54
(dp1784
sg63
g1713
sg56
(lp1785
g49
(g70
g51
NtRp1786
(dp1787
g54
(dp1788
g74
g75
ssg63
g1782
sg56
(lp1789
g669
asbag49
(g70
g51
NtRp1790
(dp1791
g54
(dp1792
g81
g82
ssg63
g1782
sg56
(lp1793
S':'
asbag49
(g70
g51
NtRp1794
(dp1795
g54
(dp1796
sg63
g1782
sg56
(lp1797
g49
(g50
g51
NtRp1798
(dp1799
g54
(dp1800
g62
I4
ssg63
g1794
sg56
(lp1801
S"<Values at 0x25380a8: {'verbose': False, 'ip': '127.0.0.1', 'shutdown_timeout': 5, 'taskbar': False, 'nocron': False, 'pid_filename': 'httpserver.pid', 'maxthreads': None, 'softcron': False, 'server_name': 'Udi-Milos-MacBook-Pro.local', 'bpython': False, 'nogui': False, 'port': 8000, 'extcron': False, 'debuglevel': 30, 'test': None, 'folder': '/Users/udimilo/Documents/web2py', 'config': '', 'import_models': False, 'winservice': '', 'shell': None, 'run': '', 'log_filename': 'httpserver.log', 'args': [''], 'socket_timeout': 5, 'ssl_ca_certificate': None, 'scheduler': None, 'profiler_filename': None, 'ssl_private_key': '', 'password': '<ask>', 'request_queue_size': 5, 'ssl_certificate': '', 'cronjob': False, 'numthreads': None, 'quiet': False, 'interfaces': None, 'minthreads': None, 'timeout': 10, 'plain': False, 'nobanner': False}>"
p1802
asbasbasbag49
(g65
g51
NtRp1803
(dp1804
g54
(dp1805
sg63
g1713
sg56
(lp1806
g49
(g70
g51
NtRp1807
(dp1808
g54
(dp1809
g74
g75
ssg63
g1803
sg56
(lp1810
g691
asbag49
(g70
g51
NtRp1811
(dp1812
g54
(dp1813
g81
g82
ssg63
g1803
sg56
(lp1814
S':'
asbag49
(g70
g51
NtRp1815
(dp1816
g54
(dp1817
sg63
g1803
sg56
(lp1818
g49
(g50
g51
NtRp1819
(dp1820
g54
(dp1821
g62
I4
ssg63
g1815
sg56
(lp1822
S'set([])'
p1823
asbasbasbag49
(g65
g51
NtRp1824
(dp1825
g54
(dp1826
sg63
g1713
sg56
(lp1827
g49
(g70
g51
NtRp1828
(dp1829
g54
(dp1830
g74
g75
ssg63
g1824
sg56
(lp1831
g713
asbag49
(g70
g51
NtRp1832
(dp1833
g54
(dp1834
g81
g82
ssg63
g1824
sg56
(lp1835
S':'
asbag49
(g70
g51
NtRp1836
(dp1837
g54
(dp1838
sg63
g1824
sg56
(lp1839
g49
(g50
g51
NtRp1840
(dp1841
g54
(dp1842
g62
I4
ssg63
g1836
sg56
(lp1843
g92
asbasbasbag49
(g65
g51
NtRp1844
(dp1845
g54
(dp1846
sg63
g1713
sg56
(lp1847
g49
(g70
g51
NtRp1848
(dp1849
g54
(dp1850
g74
g75
ssg63
g1844
sg56
(lp1851
g734
asbag49
(g70
g51
NtRp1852
(dp1853
g54
(dp1854
g81
g82
ssg63
g1844
sg56
(lp1855
S':'
asbag49
(g70
g51
NtRp1856
(dp1857
g54
(dp1858
sg63
g1844
sg56
(lp1859
g49
(g50
g51
NtRp1860
(dp1861
g54
(dp1862
g62
I4
ssg63
g1856
sg56
(lp1863
g747
asbasbasbag49
(g65
g51
NtRp1864
(dp1865
g54
(dp1866
sg63
g1713
sg56
(lp1867
g49
(g70
g51
NtRp1868
(dp1869
g54
(dp1870
g74
g75
ssg63
g1864
sg56
(lp1871
g976
asbag49
(g70
g51
NtRp1872
(dp1873
g54
(dp1874
g81
g82
ssg63
g1864
sg56
(lp1875
S':'
asbag49
(g70
g51
NtRp1876
(dp1877
g54
(dp1878
sg63
g1864
sg56
(lp1879
g49
(g50
g51
NtRp1880
(dp1881
g54
(dp1882
g62
I4
ssg63
g1876
sg56
(lp1883
g92
asbasbasbag49
(g65
g51
NtRp1884
(dp1885
g54
(dp1886
sg63
g1713
sg56
(lp1887
g49
(g70
g51
NtRp1888
(dp1889
g54
(dp1890
g74
g75
ssg63
g1884
sg56
(lp1891
g997
asbag49
(g70
g51
NtRp1892
(dp1893
g54
(dp1894
g81
g82
ssg63
g1884
sg56
(lp1895
S':'
asbag49
(g70
g51
NtRp1896
(dp1897
g54
(dp1898
sg63
g1884
sg56
(lp1899
g49
(g50
g51
NtRp1900
(dp1901
g54
(dp1902
g62
I4
ssg63
g1896
sg56
(lp1903
g92
asbasbasbag49
(g65
g51
NtRp1904
(dp1905
g54
(dp1906
sg63
g1713
sg56
(lp1907
g49
(g70
g51
NtRp1908
(dp1909
g54
(dp1910
g74
g75
ssg63
g1904
sg56
(lp1911
g1256
asbag49
(g70
g51
NtRp1912
(dp1913
g54
(dp1914
g81
g82
ssg63
g1904
sg56
(lp1915
S':'
asbag49
(g70
g51
NtRp1916
(dp1917
g54
(dp1918
sg63
g1904
sg56
(lp1919
g49
(g50
g51
NtRp1920
(dp1921
g54
(dp1922
g62
I4
ssg63
g1916
sg56
(lp1923
g1269
asbasbasbag49
(g65
g51
NtRp1924
(dp1925
g54
(dp1926
sg63
g1713
sg56
(lp1927
g49
(g70
g51
NtRp1928
(dp1929
g54
(dp1930
g74
g75
ssg63
g1924
sg56
(lp1931
g1320
asbag49
(g70
g51
NtRp1932
(dp1933
g54
(dp1934
g81
g82
ssg63
g1924
sg56
(lp1935
S':'
asbag49
(g70
g51
NtRp1936
(dp1937
g54
(dp1938
sg63
g1924
sg56
(lp1939
g49
(g50
g51
NtRp1940
(dp1941
g54
(dp1942
g62
I4
ssg63
g1936
sg56
(lp1943
g49
(g58
g51
NtRp1944
(dp1945
g54
(dp1946
g62
I3
ssg63
Nsg56
(lp1947
g49
(g65
g51
NtRp1948
(dp1949
g54
(dp1950
sg63
g1944
sg56
(lp1951
g49
(g70
g51
NtRp1952
(dp1953
g54
(dp1954
sg63
g1948
sg56
(lp1955
g49
(g50
g51
NtRp1956
(dp1957
g54
(dp1958
g62
I3
ssg63
g1952
sg56
(lp1959
S'1'
asbasbasbag49
(g65
g51
NtRp1960
(dp1961
g54
(dp1962
sg63
g1944
sg56
(lp1963
g49
(g70
g51
NtRp1964
(dp1965
g54
(dp1966
sg63
g1960
sg56
(lp1967
g49
(g50
g51
NtRp1968
(dp1969
g54
(dp1970
g62
I3
ssg63
g1964
sg56
(lp1971
S'99'
p1972
asbasbasbag49
(g65
g51
NtRp1973
(dp1974
g54
(dp1975
sg63
g1944
sg56
(lp1976
g49
(g70
g51
NtRp1977
(dp1978
g54
(dp1979
sg63
g1973
sg56
(lp1980
g49
(g50
g51
NtRp1981
(dp1982
g54
(dp1983
g62
I3
ssg63
g1977
sg56
(lp1984
S'7'
asbasbasbag49
(g65
g51
NtRp1985
(dp1986
g54
(dp1987
sg63
g1944
sg56
(lp1988
g49
(g70
g51
NtRp1989
(dp1990
g54
(dp1991
sg63
g1985
sg56
(lp1992
g49
(g50
g51
NtRp1993
(dp1994
g54
(dp1995
g62
I3
ssg63
g1989
sg56
(lp1996
S'datetime.datetime(2012, 3, 4, 22, 12, 8)'
p1997
asbasbasbag49
(g65
g51
NtRp1998
(dp1999
g54
(dp2000
sg63
g1944
sg56
(lp2001
g49
(g70
g51
NtRp2002
(dp2003
g54
(dp2004
sg63
g1998
sg56
(lp2005
g49
(g50
g51
NtRp2006
(dp2007
g54
(dp2008
g62
I3
ssg63
g2002
sg56
(lp2009
g1399
asbasbasbasbasbasbasbasbasbasbasbag49
(g65
g51
NtRp2010
(dp2011
g54
(dp2012
sg63
g59
sg56
(lp2013
g49
(g70
g51
NtRp2014
(dp2015
g54
(dp2016
g74
g75
ssg63
g2010
sg56
(lp2017
S'is_https'
p2018
asbag49
(g70
g51
NtRp2019
(dp2020
g54
(dp2021
g81
g82
ssg63
g2010
sg56
(lp2022
S':'
asbag49
(g70
g51
NtRp2023
(dp2024
g54
(dp2025
sg63
g2010
sg56
(lp2026
g49
(g50
g51
NtRp2027
(dp2028
g54
(dp2029
g62
I5
ssg63
g2023
sg56
(lp2030
g92
asbasbasbag49
(g65
g51
NtRp2031
(dp2032
g54
(dp2033
sg63
g59
sg56
(lp2034
g49
(g70
g51
NtRp2035
(dp2036
g54
(dp2037
g74
g75
ssg63
g2031
sg56
(lp2038
S'is_local'
p2039
asbag49
(g70
g51
NtRp2040
(dp2041
g54
(dp2042
g81
g82
ssg63
g2031
sg56
(lp2043
S':'
asbag49
(g70
g51
NtRp2044
(dp2045
g54
(dp2046
sg63
g2031
sg56
(lp2047
g49
(g50
g51
NtRp2048
(dp2049
g54
(dp2050
g62
I5
ssg63
g2044
sg56
(lp2051
g1508
asbasbasbag49
(g65
g51
NtRp2052
(dp2053
g54
(dp2054
sg63
g59
sg56
(lp2055
g49
(g70
g51
NtRp2056
(dp2057
g54
(dp2058
g74
g75
ssg63
g2052
sg56
(lp2059
S'is_restful'
p2060
asbag49
(g70
g51
NtRp2061
(dp2062
g54
(dp2063
g81
g82
ssg63
g2052
sg56
(lp2064
S':'
asbag49
(g70
g51
NtRp2065
(dp2066
g54
(dp2067
sg63
g2052
sg56
(lp2068
g49
(g50
g51
NtRp2069
(dp2070
g54
(dp2071
g62
I5
ssg63
g2065
sg56
(lp2072
g92
asbasbasbag49
(g65
g51
NtRp2073
(dp2074
g54
(dp2075
sg63
g59
sg56
(lp2076
g49
(g70
g51
NtRp2077
(dp2078
g54
(dp2079
g74
g75
ssg63
g2073
sg56
(lp2080
S'now'
p2081
asbag49
(g70
g51
NtRp2082
(dp2083
g54
(dp2084
g81
g82
ssg63
g2073
sg56
(lp2085
S':'
asbag49
(g70
g51
NtRp2086
(dp2087
g54
(dp2088
sg63
g2073
sg56
(lp2089
g49
(g50
g51
NtRp2090
(dp2091
g54
(dp2092
g62
I5
ssg63
g2086
sg56
(lp2093
S'datetime.datetime(2012, 3, 21, 11, 50, 6, 236387)'
p2094
asbasbasbag49
(g65
g51
NtRp2095
(dp2096
g54
(dp2097
sg63
g59
sg56
(lp2098
g49
(g70
g51
NtRp2099
(dp2100
g54
(dp2101
g74
g75
ssg63
g2095
sg56
(lp2102
S'post_vars'
p2103
asbag49
(g70
g51
NtRp2104
(dp2105
g54
(dp2106
g81
g82
ssg63
g2095
sg56
(lp2107
S':'
asbag49
(g70
g51
NtRp2108
(dp2109
g54
(dp2110
sg63
g2095
sg56
(lp2111
g49
(g50
g51
NtRp2112
(dp2113
g54
(dp2114
g62
I5
ssg63
g2108
sg56
(lp2115
g49
(g58
g51
NtRp2116
(dp2117
g54
(dp2118
g62
I4
ssg63
Nsg56
(lp2119
sbasbasbasbag49
(g65
g51
NtRp2120
(dp2121
g54
(dp2122
sg63
g59
sg56
(lp2123
g49
(g70
g51
NtRp2124
(dp2125
g54
(dp2126
g74
g75
ssg63
g2120
sg56
(lp2127
S'url'
p2128
asbag49
(g70
g51
NtRp2129
(dp2130
g54
(dp2131
g81
g82
ssg63
g2120
sg56
(lp2132
S':'
asbag49
(g70
g51
NtRp2133
(dp2134
g54
(dp2135
sg63
g2120
sg56
(lp2136
g49
(g50
g51
NtRp2137
(dp2138
g54
(dp2139
g62
I5
ssg63
g2133
sg56
(lp2140
S'/'
asbasbasbag49
(g65
g51
NtRp2141
(dp2142
g54
(dp2143
sg63
g59
sg56
(lp2144
g49
(g70
g51
NtRp2145
(dp2146
g54
(dp2147
g74
g75
ssg63
g2141
sg56
(lp2148
S'utcnow'
p2149
asbag49
(g70
g51
NtRp2150
(dp2151
g54
(dp2152
g81
g82
ssg63
g2141
sg56
(lp2153
S':'
asbag49
(g70
g51
NtRp2154
(dp2155
g54
(dp2156
sg63
g2141
sg56
(lp2157
g49
(g50
g51
NtRp2158
(dp2159
g54
(dp2160
g62
I5
ssg63
g2154
sg56
(lp2161
S'datetime.datetime(2012, 3, 21, 15, 50, 6, 236407)'
p2162
asbasbasbag49
(g65
g51
NtRp2163
(dp2164
g54
(dp2165
sg63
g59
sg56
(lp2166
g49
(g70
g51
NtRp2167
(dp2168
g54
(dp2169
g74
g75
ssg63
g2163
sg56
(lp2170
S'uuid'
p2171
asbag49
(g70
g51
NtRp2172
(dp2173
g54
(dp2174
g81
g82
ssg63
g2163
sg56
(lp2175
S':'
asbag49
(g70
g51
NtRp2176
(dp2177
g54
(dp2178
sg63
g2163
sg56
(lp2179
g49
(g50
g51
NtRp2180
(dp2181
g54
(dp2182
g62
I5
ssg63
g2176
sg56
(lp2183
S'udi0312/127.0.0.1.2012-03-21.11-50-06.e1c96c23-9377-45c6-8225-005940e25ef8'
p2184
asbasbasbag49
(g65
g51
NtRp2185
(dp2186
g54
(dp2187
sg63
g59
sg56
(lp2188
g49
(g70
g51
NtRp2189
(dp2190
g54
(dp2191
g74
g75
ssg63
g2185
sg56
(lp2192
S'vars'
p2193
asbag49
(g70
g51
NtRp2194
(dp2195
g54
(dp2196
g81
g82
ssg63
g2185
sg56
(lp2197
S':'
asbag49
(g70
g51
NtRp2198
(dp2199
g54
(dp2200
sg63
g2185
sg56
(lp2201
g49
(g50
g51
NtRp2202
(dp2203
g54
(dp2204
g62
I5
ssg63
g2198
sg56
(lp2205
g49
(g58
g51
NtRp2206
(dp2207
g54
(dp2208
g62
I4
ssg63
Nsg56
(lp2209
sbasbasbasbag49
(g65
g51
NtRp2210
(dp2211
g54
(dp2212
sg63
g59
sg56
(lp2213
g49
(g70
g51
NtRp2214
(dp2215
g54
(dp2216
g74
g75
ssg63
g2210
sg56
(lp2217
S'wsgi'
p2218
asbag49
(g70
g51
NtRp2219
(dp2220
g54
(dp2221
g81
g82
ssg63
g2210
sg56
(lp2222
S':'
asbag49
(g70
g51
NtRp2223
(dp2224
g54
(dp2225
sg63
g2210
sg56
(lp2226
g49
(g50
g51
NtRp2227
(dp2228
g54
(dp2229
g62
I5
ssg63
g2223
sg56
(lp2230
g49
(g58
g51
NtRp2231
(dp2232
g54
(dp2233
g62
I4
ssg63
Nsg56
(lp2234
g49
(g65
g51
NtRp2235
(dp2236
g54
(dp2237
sg63
g2231
sg56
(lp2238
g49
(g70
g51
NtRp2239
(dp2240
g54
(dp2241
g74
g75
ssg63
g2235
sg56
(lp2242
S'environ'
p2243
asbag49
(g70
g51
NtRp2244
(dp2245
g54
(dp2246
g81
g82
ssg63
g2235
sg56
(lp2247
S':'
asbag49
(g70
g51
NtRp2248
(dp2249
g54
(dp2250
sg63
g2235
sg56
(lp2251
g49
(g50
g51
NtRp2252
(dp2253
g54
(dp2254
g62
I4
ssg63
g2248
sg56
(lp2255
g49
(g58
g51
NtRp2256
(dp2257
g54
(dp2258
g62
I3
ssg63
Nsg56
(lp2259
g49
(g65
g51
NtRp2260
(dp2261
g54
(dp2262
sg63
g2256
sg56
(lp2263
g49
(g70
g51
NtRp2264
(dp2265
g54
(dp2266
g74
g75
ssg63
g2260
sg56
(lp2267
S'HTTP_ACCEPT'
p2268
asbag49
(g70
g51
NtRp2269
(dp2270
g54
(dp2271
g81
g82
ssg63
g2260
sg56
(lp2272
S':'
asbag49
(g70
g51
NtRp2273
(dp2274
g54
(dp2275
sg63
g2260
sg56
(lp2276
g49
(g50
g51
NtRp2277
(dp2278
g54
(dp2279
g62
I3
ssg63
g2273
sg56
(lp2280
g769
asbasbasbag49
(g65
g51
NtRp2281
(dp2282
g54
(dp2283
sg63
g2256
sg56
(lp2284
g49
(g70
g51
NtRp2285
(dp2286
g54
(dp2287
g74
g75
ssg63
g2281
sg56
(lp2288
S'HTTP_ACCEPT_CHARSET'
p2289
asbag49
(g70
g51
NtRp2290
(dp2291
g54
(dp2292
g81
g82
ssg63
g2281
sg56
(lp2293
S':'
asbag49
(g70
g51
NtRp2294
(dp2295
g54
(dp2296
sg63
g2281
sg56
(lp2297
g49
(g50
g51
NtRp2298
(dp2299
g54
(dp2300
g62
I3
ssg63
g2294
sg56
(lp2301
g791
asbasbasbag49
(g65
g51
NtRp2302
(dp2303
g54
(dp2304
sg63
g2256
sg56
(lp2305
g49
(g70
g51
NtRp2306
(dp2307
g54
(dp2308
g74
g75
ssg63
g2302
sg56
(lp2309
S'HTTP_ACCEPT_ENCODING'
p2310
asbag49
(g70
g51
NtRp2311
(dp2312
g54
(dp2313
g81
g82
ssg63
g2302
sg56
(lp2314
S':'
asbag49
(g70
g51
NtRp2315
(dp2316
g54
(dp2317
sg63
g2302
sg56
(lp2318
g49
(g50
g51
NtRp2319
(dp2320
g54
(dp2321
g62
I3
ssg63
g2315
sg56
(lp2322
g813
asbasbasbag49
(g65
g51
NtRp2323
(dp2324
g54
(dp2325
sg63
g2256
sg56
(lp2326
g49
(g70
g51
NtRp2327
(dp2328
g54
(dp2329
g74
g75
ssg63
g2323
sg56
(lp2330
S'HTTP_ACCEPT_LANGUAGE'
p2331
asbag49
(g70
g51
NtRp2332
(dp2333
g54
(dp2334
g81
g82
ssg63
g2323
sg56
(lp2335
S':'
asbag49
(g70
g51
NtRp2336
(dp2337
g54
(dp2338
sg63
g2323
sg56
(lp2339
g49
(g50
g51
NtRp2340
(dp2341
g54
(dp2342
g62
I3
ssg63
g2336
sg56
(lp2343
g835
asbasbasbag49
(g65
g51
NtRp2344
(dp2345
g54
(dp2346
sg63
g2256
sg56
(lp2347
g49
(g70
g51
NtRp2348
(dp2349
g54
(dp2350
g74
g75
ssg63
g2344
sg56
(lp2351
S'HTTP_CACHE_CONTROL'
p2352
asbag49
(g70
g51
NtRp2353
(dp2354
g54
(dp2355
g81
g82
ssg63
g2344
sg56
(lp2356
S':'
asbag49
(g70
g51
NtRp2357
(dp2358
g54
(dp2359
sg63
g2344
sg56
(lp2360
g49
(g50
g51
NtRp2361
(dp2362
g54
(dp2363
g62
I3
ssg63
g2357
sg56
(lp2364
g857
asbasbasbag49
(g65
g51
NtRp2365
(dp2366
g54
(dp2367
sg63
g2256
sg56
(lp2368
g49
(g70
g51
NtRp2369
(dp2370
g54
(dp2371
g74
g75
ssg63
g2365
sg56
(lp2372
S'HTTP_CONNECTION'
p2373
asbag49
(g70
g51
NtRp2374
(dp2375
g54
(dp2376
g81
g82
ssg63
g2365
sg56
(lp2377
S':'
asbag49
(g70
g51
NtRp2378
(dp2379
g54
(dp2380
sg63
g2365
sg56
(lp2381
g49
(g50
g51
NtRp2382
(dp2383
g54
(dp2384
g62
I3
ssg63
g2378
sg56
(lp2385
g879
asbasbasbag49
(g65
g51
NtRp2386
(dp2387
g54
(dp2388
sg63
g2256
sg56
(lp2389
g49
(g70
g51
NtRp2390
(dp2391
g54
(dp2392
g74
g75
ssg63
g2386
sg56
(lp2393
S'HTTP_COOKIE'
p2394
asbag49
(g70
g51
NtRp2395
(dp2396
g54
(dp2397
g81
g82
ssg63
g2386
sg56
(lp2398
S':'
asbag49
(g70
g51
NtRp2399
(dp2400
g54
(dp2401
sg63
g2386
sg56
(lp2402
g49
(g50
g51
NtRp2403
(dp2404
g54
(dp2405
g62
I3
ssg63
g2399
sg56
(lp2406
g901
asbasbasbag49
(g65
g51
NtRp2407
(dp2408
g54
(dp2409
sg63
g2256
sg56
(lp2410
g49
(g70
g51
NtRp2411
(dp2412
g54
(dp2413
g74
g75
ssg63
g2407
sg56
(lp2414
S'HTTP_HOST'
p2415
asbag49
(g70
g51
NtRp2416
(dp2417
g54
(dp2418
g81
g82
ssg63
g2407
sg56
(lp2419
S':'
asbag49
(g70
g51
NtRp2420
(dp2421
g54
(dp2422
sg63
g2407
sg56
(lp2423
g49
(g50
g51
NtRp2424
(dp2425
g54
(dp2426
g62
I3
ssg63
g2420
sg56
(lp2427
g923
asbasbasbag49
(g65
g51
NtRp2428
(dp2429
g54
(dp2430
sg63
g2256
sg56
(lp2431
g49
(g70
g51
NtRp2432
(dp2433
g54
(dp2434
g74
g75
ssg63
g2428
sg56
(lp2435
S'HTTP_REFERER'
p2436
asbag49
(g70
g51
NtRp2437
(dp2438
g54
(dp2439
g81
g82
ssg63
g2428
sg56
(lp2440
S':'
asbag49
(g70
g51
NtRp2441
(dp2442
g54
(dp2443
sg63
g2428
sg56
(lp2444
g49
(g50
g51
NtRp2445
(dp2446
g54
(dp2447
g62
I3
ssg63
g2441
sg56
(lp2448
g945
asbasbasbag49
(g65
g51
NtRp2449
(dp2450
g54
(dp2451
sg63
g2256
sg56
(lp2452
g49
(g70
g51
NtRp2453
(dp2454
g54
(dp2455
g74
g75
ssg63
g2449
sg56
(lp2456
S'HTTP_USER_AGENT'
p2457
asbag49
(g70
g51
NtRp2458
(dp2459
g54
(dp2460
g81
g82
ssg63
g2449
sg56
(lp2461
S':'
asbag49
(g70
g51
NtRp2462
(dp2463
g54
(dp2464
sg63
g2449
sg56
(lp2465
g49
(g50
g51
NtRp2466
(dp2467
g54
(dp2468
g62
I3
ssg63
g2462
sg56
(lp2469
g967
asbasbasbag49
(g65
g51
NtRp2470
(dp2471
g54
(dp2472
sg63
g2256
sg56
(lp2473
g49
(g70
g51
NtRp2474
(dp2475
g54
(dp2476
g74
g75
ssg63
g2470
sg56
(lp2477
S'PATH_INFO'
p2478
asbag49
(g70
g51
NtRp2479
(dp2480
g54
(dp2481
g81
g82
ssg63
g2470
sg56
(lp2482
S':'
asbag49
(g70
g51
NtRp2483
(dp2484
g54
(dp2485
sg63
g2470
sg56
(lp2486
g49
(g50
g51
NtRp2487
(dp2488
g54
(dp2489
g62
I3
ssg63
g2483
sg56
(lp2490
S'/'
asbasbasbag49
(g65
g51
NtRp2491
(dp2492
g54
(dp2493
sg63
g2256
sg56
(lp2494
g49
(g70
g51
NtRp2495
(dp2496
g54
(dp2497
g74
g75
ssg63
g2491
sg56
(lp2498
S'QUERY_STRING'
p2499
asbag49
(g70
g51
NtRp2500
(dp2501
g54
(dp2502
g81
g82
ssg63
g2491
sg56
(lp2503
S':'
asbag49
(g70
g51
NtRp2504
(dp2505
g54
(dp2506
sg63
g2491
sg56
(lp2507
g49
(g50
g51
NtRp2508
(dp2509
g54
(dp2510
g62
I3
ssg63
g2504
sg56
(lp2511
S''
asbasbasbag49
(g65
g51
NtRp2512
(dp2513
g54
(dp2514
sg63
g2256
sg56
(lp2515
g49
(g70
g51
NtRp2516
(dp2517
g54
(dp2518
g74
g75
ssg63
g2512
sg56
(lp2519
S'REMOTE_ADDR'
p2520
asbag49
(g70
g51
NtRp2521
(dp2522
g54
(dp2523
g81
g82
ssg63
g2512
sg56
(lp2524
S':'
asbag49
(g70
g51
NtRp2525
(dp2526
g54
(dp2527
sg63
g2512
sg56
(lp2528
g49
(g50
g51
NtRp2529
(dp2530
g54
(dp2531
g62
I3
ssg63
g2525
sg56
(lp2532
g182
asbasbasbag49
(g65
g51
NtRp2533
(dp2534
g54
(dp2535
sg63
g2256
sg56
(lp2536
g49
(g70
g51
NtRp2537
(dp2538
g54
(dp2539
g74
g75
ssg63
g2533
sg56
(lp2540
S'REMOTE_PORT'
p2541
asbag49
(g70
g51
NtRp2542
(dp2543
g54
(dp2544
g81
g82
ssg63
g2533
sg56
(lp2545
S':'
asbag49
(g70
g51
NtRp2546
(dp2547
g54
(dp2548
sg63
g2533
sg56
(lp2549
g49
(g50
g51
NtRp2550
(dp2551
g54
(dp2552
g62
I3
ssg63
g2546
sg56
(lp2553
g1094
asbasbasbag49
(g65
g51
NtRp2554
(dp2555
g54
(dp2556
sg63
g2256
sg56
(lp2557
g49
(g70
g51
NtRp2558
(dp2559
g54
(dp2560
g74
g75
ssg63
g2554
sg56
(lp2561
S'REQUEST_METHOD'
p2562
asbag49
(g70
g51
NtRp2563
(dp2564
g54
(dp2565
g81
g82
ssg63
g2554
sg56
(lp2566
S':'
asbag49
(g70
g51
NtRp2567
(dp2568
g54
(dp2569
sg63
g2554
sg56
(lp2570
g49
(g50
g51
NtRp2571
(dp2572
g54
(dp2573
g62
I3
ssg63
g2567
sg56
(lp2574
g1116
asbasbasbag49
(g65
g51
NtRp2575
(dp2576
g54
(dp2577
sg63
g2256
sg56
(lp2578
g49
(g70
g51
NtRp2579
(dp2580
g54
(dp2581
g74
g75
ssg63
g2575
sg56
(lp2582
S'REQUEST_URI'
p2583
asbag49
(g70
g51
NtRp2584
(dp2585
g54
(dp2586
g81
g82
ssg63
g2575
sg56
(lp2587
S':'
asbag49
(g70
g51
NtRp2588
(dp2589
g54
(dp2590
sg63
g2575
sg56
(lp2591
g49
(g50
g51
NtRp2592
(dp2593
g54
(dp2594
g62
I3
ssg63
g2588
sg56
(lp2595
g1138
asbasbasbag49
(g65
g51
NtRp2596
(dp2597
g54
(dp2598
sg63
g2256
sg56
(lp2599
g49
(g70
g51
NtRp2600
(dp2601
g54
(dp2602
g74
g75
ssg63
g2596
sg56
(lp2603
S'SCRIPT_NAME'
p2604
asbag49
(g70
g51
NtRp2605
(dp2606
g54
(dp2607
g81
g82
ssg63
g2596
sg56
(lp2608
S':'
asbag49
(g70
g51
NtRp2609
(dp2610
g54
(dp2611
sg63
g2596
sg56
(lp2612
g49
(g50
g51
NtRp2613
(dp2614
g54
(dp2615
g62
I3
ssg63
g2609
sg56
(lp2616
S''
asbasbasbag49
(g65
g51
NtRp2617
(dp2618
g54
(dp2619
sg63
g2256
sg56
(lp2620
g49
(g70
g51
NtRp2621
(dp2622
g54
(dp2623
g74
g75
ssg63
g2617
sg56
(lp2624
S'SERVER_NAME'
p2625
asbag49
(g70
g51
NtRp2626
(dp2627
g54
(dp2628
g81
g82
ssg63
g2617
sg56
(lp2629
S':'
asbag49
(g70
g51
NtRp2630
(dp2631
g54
(dp2632
sg63
g2617
sg56
(lp2633
g49
(g50
g51
NtRp2634
(dp2635
g54
(dp2636
g62
I3
ssg63
g2630
sg56
(lp2637
g1181
asbasbasbag49
(g65
g51
NtRp2638
(dp2639
g54
(dp2640
sg63
g2256
sg56
(lp2641
g49
(g70
g51
NtRp2642
(dp2643
g54
(dp2644
g74
g75
ssg63
g2638
sg56
(lp2645
S'SERVER_PORT'
p2646
asbag49
(g70
g51
NtRp2647
(dp2648
g54
(dp2649
g81
g82
ssg63
g2638
sg56
(lp2650
S':'
asbag49
(g70
g51
NtRp2651
(dp2652
g54
(dp2653
sg63
g2638
sg56
(lp2654
g49
(g50
g51
NtRp2655
(dp2656
g54
(dp2657
g62
I3
ssg63
g2651
sg56
(lp2658
g1203
asbasbasbag49
(g65
g51
NtRp2659
(dp2660
g54
(dp2661
sg63
g2256
sg56
(lp2662
g49
(g70
g51
NtRp2663
(dp2664
g54
(dp2665
g74
g75
ssg63
g2659
sg56
(lp2666
S'SERVER_PROTOCOL'
p2667
asbag49
(g70
g51
NtRp2668
(dp2669
g54
(dp2670
g81
g82
ssg63
g2659
sg56
(lp2671
S':'
asbag49
(g70
g51
NtRp2672
(dp2673
g54
(dp2674
sg63
g2659
sg56
(lp2675
g49
(g50
g51
NtRp2676
(dp2677
g54
(dp2678
g62
I3
ssg63
g2672
sg56
(lp2679
g1225
asbasbasbag49
(g65
g51
NtRp2680
(dp2681
g54
(dp2682
sg63
g2256
sg56
(lp2683
g49
(g70
g51
NtRp2684
(dp2685
g54
(dp2686
g74
g75
ssg63
g2680
sg56
(lp2687
S'SERVER_SOFTWARE'
p2688
asbag49
(g70
g51
NtRp2689
(dp2690
g54
(dp2691
g81
g82
ssg63
g2680
sg56
(lp2692
S':'
asbag49
(g70
g51
NtRp2693
(dp2694
g54
(dp2695
sg63
g2680
sg56
(lp2696
g49
(g50
g51
NtRp2697
(dp2698
g54
(dp2699
g62
I3
ssg63
g2693
sg56
(lp2700
g1247
asbasbasbag49
(g65
g51
NtRp2701
(dp2702
g54
(dp2703
sg63
g2256
sg56
(lp2704
g49
(g70
g51
NtRp2705
(dp2706
g54
(dp2707
g74
g75
ssg63
g2701
sg56
(lp2708
S'WEB2PY_ORIGINAL_URI'
p2709
asbag49
(g70
g51
NtRp2710
(dp2711
g54
(dp2712
g81
g82
ssg63
g2701
sg56
(lp2713
S':'
asbag49
(g70
g51
NtRp2714
(dp2715
g54
(dp2716
sg63
g2701
sg56
(lp2717
g49
(g50
g51
NtRp2718
(dp2719
g54
(dp2720
g62
I3
ssg63
g2714
sg56
(lp2721
S'/'
asbasbasbag49
(g65
g51
NtRp2722
(dp2723
g54
(dp2724
sg63
g2256
sg56
(lp2725
g49
(g70
g51
NtRp2726
(dp2727
g54
(dp2728
g74
g75
ssg63
g2722
sg56
(lp2729
S'wsgi.errors'
p2730
asbag49
(g70
g51
NtRp2731
(dp2732
g54
(dp2733
g81
g82
ssg63
g2722
sg56
(lp2734
S':'
asbag49
(g70
g51
NtRp2735
(dp2736
g54
(dp2737
sg63
g2722
sg56
(lp2738
g49
(g50
g51
NtRp2739
(dp2740
g54
(dp2741
g62
I3
ssg63
g2735
sg56
(lp2742
S"<open file '<stderr>', mode 'w' at 0x4220b0>"
p2743
asbasbasbag49
(g65
g51
NtRp2744
(dp2745
g54
(dp2746
sg63
g2256
sg56
(lp2747
g49
(g70
g51
NtRp2748
(dp2749
g54
(dp2750
g74
g75
ssg63
g2744
sg56
(lp2751
S'wsgi.file_wrapper'
p2752
asbag49
(g70
g51
NtRp2753
(dp2754
g54
(dp2755
g81
g82
ssg63
g2744
sg56
(lp2756
S':'
asbag49
(g70
g51
NtRp2757
(dp2758
g54
(dp2759
sg63
g2744
sg56
(lp2760
g49
(g50
g51
NtRp2761
(dp2762
g54
(dp2763
g62
I3
ssg63
g2757
sg56
(lp2764
S'<class wsgiref.util.FileWrapper at 0x235e6c0>'
p2765
asbasbasbag49
(g65
g51
NtRp2766
(dp2767
g54
(dp2768
sg63
g2256
sg56
(lp2769
g49
(g70
g51
NtRp2770
(dp2771
g54
(dp2772
g74
g75
ssg63
g2766
sg56
(lp2773
S'wsgi.input'
p2774
asbag49
(g70
g51
NtRp2775
(dp2776
g54
(dp2777
g81
g82
ssg63
g2766
sg56
(lp2778
S':'
asbag49
(g70
g51
NtRp2779
(dp2780
g54
(dp2781
sg63
g2766
sg56
(lp2782
g49
(g50
g51
NtRp2783
(dp2784
g54
(dp2785
g62
I3
ssg63
g2779
sg56
(lp2786
S'<cStringIO.StringO object at 0x9fc93c0>'
p2787
asbasbasbag49
(g65
g51
NtRp2788
(dp2789
g54
(dp2790
sg63
g2256
sg56
(lp2791
g49
(g70
g51
NtRp2792
(dp2793
g54
(dp2794
g74
g75
ssg63
g2788
sg56
(lp2795
S'wsgi.multiprocess'
p2796
asbag49
(g70
g51
NtRp2797
(dp2798
g54
(dp2799
g81
g82
ssg63
g2788
sg56
(lp2800
S':'
asbag49
(g70
g51
NtRp2801
(dp2802
g54
(dp2803
sg63
g2788
sg56
(lp2804
g49
(g50
g51
NtRp2805
(dp2806
g54
(dp2807
g62
I3
ssg63
g2801
sg56
(lp2808
g92
asbasbasbag49
(g65
g51
NtRp2809
(dp2810
g54
(dp2811
sg63
g2256
sg56
(lp2812
g49
(g70
g51
NtRp2813
(dp2814
g54
(dp2815
g74
g75
ssg63
g2809
sg56
(lp2816
S'wsgi.multithread'
p2817
asbag49
(g70
g51
NtRp2818
(dp2819
g54
(dp2820
g81
g82
ssg63
g2809
sg56
(lp2821
S':'
asbag49
(g70
g51
NtRp2822
(dp2823
g54
(dp2824
sg63
g2809
sg56
(lp2825
g49
(g50
g51
NtRp2826
(dp2827
g54
(dp2828
g62
I3
ssg63
g2822
sg56
(lp2829
g1508
asbasbasbag49
(g65
g51
NtRp2830
(dp2831
g54
(dp2832
sg63
g2256
sg56
(lp2833
g49
(g70
g51
NtRp2834
(dp2835
g54
(dp2836
g74
g75
ssg63
g2830
sg56
(lp2837
S'wsgi.run_once'
p2838
asbag49
(g70
g51
NtRp2839
(dp2840
g54
(dp2841
g81
g82
ssg63
g2830
sg56
(lp2842
S':'
asbag49
(g70
g51
NtRp2843
(dp2844
g54
(dp2845
sg63
g2830
sg56
(lp2846
g49
(g50
g51
NtRp2847
(dp2848
g54
(dp2849
g62
I3
ssg63
g2843
sg56
(lp2850
g92
asbasbasbag49
(g65
g51
NtRp2851
(dp2852
g54
(dp2853
sg63
g2256
sg56
(lp2854
g49
(g70
g51
NtRp2855
(dp2856
g54
(dp2857
g74
g75
ssg63
g2851
sg56
(lp2858
S'wsgi.url_scheme'
p2859
asbag49
(g70
g51
NtRp2860
(dp2861
g54
(dp2862
g81
g82
ssg63
g2851
sg56
(lp2863
S':'
asbag49
(g70
g51
NtRp2864
(dp2865
g54
(dp2866
sg63
g2851
sg56
(lp2867
g49
(g50
g51
NtRp2868
(dp2869
g54
(dp2870
g62
I3
ssg63
g2864
sg56
(lp2871
g1551
asbasbasbag49
(g65
g51
NtRp2872
(dp2873
g54
(dp2874
sg63
g2256
sg56
(lp2875
g49
(g70
g51
NtRp2876
(dp2877
g54
(dp2878
g74
g75
ssg63
g2872
sg56
(lp2879
S'wsgi.version'
p2880
asbag49
(g70
g51
NtRp2881
(dp2882
g54
(dp2883
g81
g82
ssg63
g2872
sg56
(lp2884
S':'
asbag49
(g70
g51
NtRp2885
(dp2886
g54
(dp2887
sg63
g2872
sg56
(lp2888
g49
(g50
g51
NtRp2889
(dp2890
g54
(dp2891
g62
I3
ssg63
g2885
sg56
(lp2892
S'1'
asbasbasbasbasbasbasbasbasbasbasbasbasbsS'frames'
p2893
(lp2894
(dp2895
S'file'
p2896
S'/users/udimilo/Documents/web2py/gluon/restricted.py'
p2897
sS'dump'
p2898
(dp2899
S'environment'
p2900
S"{'A': <class 'gluon.html.A'>, 'Auth': <class 'gluon.tools.Auth'>, 'B': <class 'gluon.html.B'>, 'BEAUTIFY': <class 'gluon.html.BEAUTIFY'>, 'BODY': <class 'gluon.html.BODY'>, 'BR': <class 'gluon.html.BR'>, 'BUTTON': <class 'gluon.html.BUTTON'>, 'CAT': <class 'gluon.html.CAT'>, 'CENTER': <class 'gluon.html.CENTER'>, 'CLEANUP': <class 'gluon.validators.CLEANUP'>, ...}"
p2901
sS'ccode'
p2902
S'<code object <module> at 0x9e7b4e8, file "/Users...b2py/applications/udi0312/models/db.py", line 12>'
p2903
ssS'lnum'
p2904
I205
sS'lines'
p2905
(dp2906
I200
S'    try:'
p2907
sI201
S'        if type(code) == types.CodeType:'
p2908
sI202
S'            ccode = code'
p2909
sI203
S'        else:'
p2910
sI204
S'            ccode = compile2(code,layer)'
p2911
sI205
S'        exec ccode in environment'
p2912
sI206
S'    except HTTP:'
p2913
sI207
S'        raise'
p2914
sI208
S'    except RestrictedError:'
p2915
sI209
S'        # do not encapsulate (obfuscate) the original RestrictedError'
p2916
ssS'call'
p2917
S'(code="# -*- coding: utf-8 -*-\\n\\n#######################...\'created_on\', \'datetime\', default=request.now),)\\n", environment={\'A\': <class \'gluon.html.A\'>, \'Auth\': <class \'gluon.tools.Auth\'>, \'B\': <class \'gluon.html.B\'>, \'BEAUTIFY\': <class \'gluon.html.BEAUTIFY\'>, \'BODY\': <class \'gluon.html.BODY\'>, \'BR\': <class \'gluon.html.BR\'>, \'BUTTON\': <class \'gluon.html.BUTTON\'>, \'CAT\': <class \'gluon.html.CAT\'>, \'CENTER\': <class \'gluon.html.CENTER\'>, \'CLEANUP\': <class \'gluon.validators.CLEANUP\'>, ...}, layer=\'/Users/udimilo/Documents/web2py/applications/udi0312/models/db.py\')'
p2918
sS'func'
p2919
S'restricted'
p2920
sa(dp2921
g2896
S'/Users/udimilo/Documents/web2py/applications/udi0312/models/db.py'
p2922
sg2898
(dp2923
sg2904
I72
sg2905
(dp2924
I67
S'from gluon.contrib.login_methods.linkedin_account import LinkedInAccount'
p2925
sI68
S'auth.settings.login_form=LinkedInAccount('
p2926
sI69
S'    request,'
p2927
sI70
S"    'wFNJekVpDCJtRPFX812pQsJee-gt0zO4X5XmG6wcfSOSlLocxodAXNMbl0_hw3Vl',"
p2928
sI71
S"    'daJDa6_8UcnGMw1yuq9TjoO_PMKukXMo8vEMo7Qv5J-G3SPgrAV0FqFCd0TNjQyG',"
p2929
sI72
S"    'http://127.0.0.1:8000')"
p2930
sI73
S''
sI74
S'#########################################################################'
p2931
sI75
S'## Define your tables below (or better in another model file) for example'
p2932
sI76
S'##'
p2933
ssg2917
S'()'
p2934
sg2919
S'<module>'
p2935
sa(dp2936
g2896
S'/users/udimilo/Documents/web2py/gluon/contrib/login_methods/linkedin_account.py'
p2937
sg2898
(dp2938
S'self.api'
p2939
S'undefined'
p2940
sS'builtinFalse'
p2941
g92
sS'self'
p2942
S'<gluon.contrib.login_methods.linkedin_account.LinkedInAccount object at 0x9e3c490>'
p2943
sS'linkedin.LinkedIn'
p2944
g2940
sS'secret'
p2945
S"'daJDa6_8UcnGMw1yuq9TjoO_PMKukXMo8vEMo7Qv5J-G3SPgrAV0FqFCd0TNjQyG'"
p2946
sS'key'
p2947
S"'wFNJekVpDCJtRPFX812pQsJee-gt0zO4X5XmG6wcfSOSlLocxodAXNMbl0_hw3Vl'"
p2948
sS'gae'
p2949
g2940
sS'global linkedin'
p2950
S"<module 'linkedin' from '/Library/Frameworks/Pyt...b/python2.5/site-packages/linkedin/__init__.pyc'>"
p2951
sS'return_url'
p2952
S"'http://127.0.0.1:8000'"
p2953
ssg2904
I33
sg2905
(dp2954
I32
S'        self.request = request'
p2955
sI33
S'        self.api = linkedin.LinkedIn(key,secret,return_url, gae=False)'
p2956
sI34
S'        self.token = result = self.api.request_token()'
p2957
sI35
S''
sI36
S'    def login_url(self, next="/"):'
p2958
sI37
S'        return self.api.getAuthorizeURL()'
p2959
sI28
S''
sI29
S'    """'
p2960
sI30
S''
sI31
S'    def __init__(self,request,key,secret,return_url):'
p2961
ssg2917
S"(self=<gluon.contrib.login_methods.linkedin_account.LinkedInAccount object at 0x9e3c490>, request=<Storage {'body': <cStringIO.StringO object at 0..._vars': <Storage {}>, 'post_vars': <Storage {}>}>, key='wFNJekVpDCJtRPFX812pQsJee-gt0zO4X5XmG6wcfSOSlLocxodAXNMbl0_hw3Vl', secret='daJDa6_8UcnGMw1yuq9TjoO_PMKukXMo8vEMo7Qv5J-G3SPgrAV0FqFCd0TNjQyG', return_url='http://127.0.0.1:8000')"
p2962
sg2919
g42
sasS'pyver'
p2963
S'Python 2.5.4: /Library/Frameworks/Python.framework/Versions/2.5/Resources/Python.app/Contents/MacOS/Python'
p2964
sS'session'
p2965
g49
(g50
g51
NtRp2966
(dp2967
g54
(dp2968
sg56
(lp2969
g49
(g58
g51
NtRp2970
(dp2971
g54
(dp2972
g62
I5
ssg63
Nsg56
(lp2973
g49
(g65
g51
NtRp2974
(dp2975
g54
(dp2976
sg63
g2970
sg56
(lp2977
g49
(g70
g51
NtRp2978
(dp2979
g54
(dp2980
g74
g75
ssg63
g2974
sg56
(lp2981
S'auth'
p2982
asbag49
(g70
g51
NtRp2983
(dp2984
g54
(dp2985
g81
g82
ssg63
g2974
sg56
(lp2986
S':'
asbag49
(g70
g51
NtRp2987
(dp2988
g54
(dp2989
sg63
g2974
sg56
(lp2990
g49
(g50
g51
NtRp2991
(dp2992
g54
(dp2993
g62
I5
ssg63
g2987
sg56
(lp2994
g49
(g58
g51
NtRp2995
(dp2996
g54
(dp2997
g62
I4
ssg63
Nsg56
(lp2998
g49
(g65
g51
NtRp2999
(dp3000
g54
(dp3001
sg63
g2995
sg56
(lp3002
g49
(g70
g51
NtRp3003
(dp3004
g54
(dp3005
g74
g75
ssg63
g2999
sg56
(lp3006
S'expiration'
p3007
asbag49
(g70
g51
NtRp3008
(dp3009
g54
(dp3010
g81
g82
ssg63
g2999
sg56
(lp3011
S':'
asbag49
(g70
g51
NtRp3012
(dp3013
g54
(dp3014
sg63
g2999
sg56
(lp3015
g49
(g50
g51
NtRp3016
(dp3017
g54
(dp3018
g62
I4
ssg63
g3012
sg56
(lp3019
S'2592000'
p3020
asbasbasbag49
(g65
g51
NtRp3021
(dp3022
g54
(dp3023
sg63
g2995
sg56
(lp3024
g49
(g70
g51
NtRp3025
(dp3026
g54
(dp3027
g74
g75
ssg63
g3021
sg56
(lp3028
S'hmac_key'
p3029
asbag49
(g70
g51
NtRp3030
(dp3031
g54
(dp3032
g81
g82
ssg63
g3021
sg56
(lp3033
S':'
asbag49
(g70
g51
NtRp3034
(dp3035
g54
(dp3036
sg63
g3021
sg56
(lp3037
g49
(g50
g51
NtRp3038
(dp3039
g54
(dp3040
g62
I4
ssg63
g3034
sg56
(lp3041
S'f181a846-a979-48a5-b7fb-4fe8c0459836'
p3042
asbasbasbag49
(g65
g51
NtRp3043
(dp3044
g54
(dp3045
sg63
g2995
sg56
(lp3046
g49
(g70
g51
NtRp3047
(dp3048
g54
(dp3049
g74
g75
ssg63
g3043
sg56
(lp3050
S'last_visit'
p3051
asbag49
(g70
g51
NtRp3052
(dp3053
g54
(dp3054
g81
g82
ssg63
g3043
sg56
(lp3055
S':'
asbag49
(g70
g51
NtRp3056
(dp3057
g54
(dp3058
sg63
g3043
sg56
(lp3059
g49
(g50
g51
NtRp3060
(dp3061
g54
(dp3062
g62
I4
ssg63
g3056
sg56
(lp3063
S'datetime.datetime(2012, 3, 19, 18, 54, 18, 447051)'
p3064
asbasbasbag49
(g65
g51
NtRp3065
(dp3066
g54
(dp3067
sg63
g2995
sg56
(lp3068
g49
(g70
g51
NtRp3069
(dp3070
g54
(dp3071
g74
g75
ssg63
g3065
sg56
(lp3072
S'remember'
p3073
asbag49
(g70
g51
NtRp3074
(dp3075
g54
(dp3076
g81
g82
ssg63
g3065
sg56
(lp3077
S':'
asbag49
(g70
g51
NtRp3078
(dp3079
g54
(dp3080
sg63
g3065
sg56
(lp3081
g49
(g50
g51
NtRp3082
(dp3083
g54
(dp3084
g62
I4
ssg63
g3078
sg56
(lp3085
g1508
asbasbasbag49
(g65
g51
NtRp3086
(dp3087
g54
(dp3088
sg63
g2995
sg56
(lp3089
g49
(g70
g51
NtRp3090
(dp3091
g54
(dp3092
g74
g75
ssg63
g3086
sg56
(lp3093
S'user'
p3094
asbag49
(g70
g51
NtRp3095
(dp3096
g54
(dp3097
g81
g82
ssg63
g3086
sg56
(lp3098
S':'
asbag49
(g70
g51
NtRp3099
(dp3100
g54
(dp3101
sg63
g3086
sg56
(lp3102
g49
(g50
g51
NtRp3103
(dp3104
g54
(dp3105
g62
I4
ssg63
g3099
sg56
(lp3106
g49
(g58
g51
NtRp3107
(dp3108
g54
(dp3109
g62
I3
ssg63
Nsg56
(lp3110
g49
(g65
g51
NtRp3111
(dp3112
g54
(dp3113
sg63
g3107
sg56
(lp3114
g49
(g70
g51
NtRp3115
(dp3116
g54
(dp3117
g74
g75
ssg63
g3111
sg56
(lp3118
S'email'
p3119
asbag49
(g70
g51
NtRp3120
(dp3121
g54
(dp3122
g81
g82
ssg63
g3111
sg56
(lp3123
S':'
asbag49
(g70
g51
NtRp3124
(dp3125
g54
(dp3126
sg63
g3111
sg56
(lp3127
g49
(g50
g51
NtRp3128
(dp3129
g54
(dp3130
g62
I3
ssg63
g3124
sg56
(lp3131
S'udimilo@gmail.com'
p3132
asbasbasbag49
(g65
g51
NtRp3133
(dp3134
g54
(dp3135
sg63
g3107
sg56
(lp3136
g49
(g70
g51
NtRp3137
(dp3138
g54
(dp3139
g74
g75
ssg63
g3133
sg56
(lp3140
S'first_name'
p3141
asbag49
(g70
g51
NtRp3142
(dp3143
g54
(dp3144
g81
g82
ssg63
g3133
sg56
(lp3145
S':'
asbag49
(g70
g51
NtRp3146
(dp3147
g54
(dp3148
sg63
g3133
sg56
(lp3149
g49
(g50
g51
NtRp3150
(dp3151
g54
(dp3152
g62
I3
ssg63
g3146
sg56
(lp3153
S'Udi'
p3154
asbasbasbag49
(g65
g51
NtRp3155
(dp3156
g54
(dp3157
sg63
g3107
sg56
(lp3158
g49
(g70
g51
NtRp3159
(dp3160
g54
(dp3161
g74
g75
ssg63
g3155
sg56
(lp3162
S'id'
p3163
asbag49
(g70
g51
NtRp3164
(dp3165
g54
(dp3166
g81
g82
ssg63
g3155
sg56
(lp3167
S':'
asbag49
(g70
g51
NtRp3168
(dp3169
g54
(dp3170
sg63
g3155
sg56
(lp3171
g49
(g50
g51
NtRp3172
(dp3173
g54
(dp3174
g62
I3
ssg63
g3168
sg56
(lp3175
S'1'
asbasbasbag49
(g65
g51
NtRp3176
(dp3177
g54
(dp3178
sg63
g3107
sg56
(lp3179
g49
(g70
g51
NtRp3180
(dp3181
g54
(dp3182
g74
g75
ssg63
g3176
sg56
(lp3183
S'last_name'
p3184
asbag49
(g70
g51
NtRp3185
(dp3186
g54
(dp3187
g81
g82
ssg63
g3176
sg56
(lp3188
S':'
asbag49
(g70
g51
NtRp3189
(dp3190
g54
(dp3191
sg63
g3176
sg56
(lp3192
g49
(g50
g51
NtRp3193
(dp3194
g54
(dp3195
g62
I3
ssg63
g3189
sg56
(lp3196
S'Milo'
p3197
asbasbasbag49
(g65
g51
NtRp3198
(dp3199
g54
(dp3200
sg63
g3107
sg56
(lp3201
g49
(g70
g51
NtRp3202
(dp3203
g54
(dp3204
g74
g75
ssg63
g3198
sg56
(lp3205
S'password'
p3206
asbag49
(g70
g51
NtRp3207
(dp3208
g54
(dp3209
g81
g82
ssg63
g3198
sg56
(lp3210
S':'
asbag49
(g70
g51
NtRp3211
(dp3212
g54
(dp3213
sg63
g3198
sg56
(lp3214
g49
(g50
g51
NtRp3215
(dp3216
g54
(dp3217
g62
I3
ssg63
g3211
sg56
(lp3218
S'7a6e3c6a68ceed66634484a3f64a3468'
p3219
asbasbasbag49
(g65
g51
NtRp3220
(dp3221
g54
(dp3222
sg63
g3107
sg56
(lp3223
g49
(g70
g51
NtRp3224
(dp3225
g54
(dp3226
g74
g75
ssg63
g3220
sg56
(lp3227
S'registration_id'
p3228
asbag49
(g70
g51
NtRp3229
(dp3230
g54
(dp3231
g81
g82
ssg63
g3220
sg56
(lp3232
S':'
asbag49
(g70
g51
NtRp3233
(dp3234
g54
(dp3235
sg63
g3220
sg56
(lp3236
g49
(g50
g51
NtRp3237
(dp3238
g54
(dp3239
g62
I3
ssg63
g3233
sg56
(lp3240
S''
asbasbasbag49
(g65
g51
NtRp3241
(dp3242
g54
(dp3243
sg63
g3107
sg56
(lp3244
g49
(g70
g51
NtRp3245
(dp3246
g54
(dp3247
g74
g75
ssg63
g3241
sg56
(lp3248
S'registration_key'
p3249
asbag49
(g70
g51
NtRp3250
(dp3251
g54
(dp3252
g81
g82
ssg63
g3241
sg56
(lp3253
S':'
asbag49
(g70
g51
NtRp3254
(dp3255
g54
(dp3256
sg63
g3241
sg56
(lp3257
g49
(g50
g51
NtRp3258
(dp3259
g54
(dp3260
g62
I3
ssg63
g3254
sg56
(lp3261
S''
asbasbasbag49
(g65
g51
NtRp3262
(dp3263
g54
(dp3264
sg63
g3107
sg56
(lp3265
g49
(g70
g51
NtRp3266
(dp3267
g54
(dp3268
g74
g75
ssg63
g3262
sg56
(lp3269
S'reset_password_key'
p3270
asbag49
(g70
g51
NtRp3271
(dp3272
g54
(dp3273
g81
g82
ssg63
g3262
sg56
(lp3274
S':'
asbag49
(g70
g51
NtRp3275
(dp3276
g54
(dp3277
sg63
g3262
sg56
(lp3278
g49
(g50
g51
NtRp3279
(dp3280
g54
(dp3281
g62
I3
ssg63
g3275
sg56
(lp3282
S''
asbasbasbasbasbasbasbag49
(g65
g51
NtRp3283
(dp3284
g54
(dp3285
sg63
g2995
sg56
(lp3286
g49
(g70
g51
NtRp3287
(dp3288
g54
(dp3289
g74
g75
ssg63
g3283
sg56
(lp3290
S'user_groups'
p3291
asbag49
(g70
g51
NtRp3292
(dp3293
g54
(dp3294
g81
g82
ssg63
g3283
sg56
(lp3295
S':'
asbag49
(g70
g51
NtRp3296
(dp3297
g54
(dp3298
sg63
g3283
sg56
(lp3299
g49
(g50
g51
NtRp3300
(dp3301
g54
(dp3302
g62
I4
ssg63
g3296
sg56
(lp3303
g49
(g58
g51
NtRp3304
(dp3305
g54
(dp3306
g62
I3
ssg63
Nsg56
(lp3307
g49
(g65
g51
NtRp3308
(dp3309
g54
(dp3310
sg63
g3304
sg56
(lp3311
g49
(g70
g51
NtRp3312
(dp3313
g54
(dp3314
g74
g75
ssg63
g3308
sg56
(lp3315
S'1'
asbag49
(g70
g51
NtRp3316
(dp3317
g54
(dp3318
g81
g82
ssg63
g3308
sg56
(lp3319
S':'
asbag49
(g70
g51
NtRp3320
(dp3321
g54
(dp3322
sg63
g3308
sg56
(lp3323
g49
(g50
g51
NtRp3324
(dp3325
g54
(dp3326
g62
I3
ssg63
g3320
sg56
(lp3327
S'user_1'
p3328
asbasbasbasbasbasbasbasbasbasbasbag49
(g65
g51
NtRp3329
(dp3330
g54
(dp3331
sg63
g2970
sg56
(lp3332
g49
(g70
g51
NtRp3333
(dp3334
g54
(dp3335
g74
g75
ssg63
g3329
sg56
(lp3336
S'last_query'
p3337
asbag49
(g70
g51
NtRp3338
(dp3339
g54
(dp3340
g81
g82
ssg63
g3329
sg56
(lp3341
S':'
asbag49
(g70
g51
NtRp3342
(dp3343
g54
(dp3344
sg63
g3329
sg56
(lp3345
g49
(g50
g51
NtRp3346
(dp3347
g54
(dp3348
g62
I5
ssg63
g3342
sg56
(lp3349
S'db.pin.id>0'
p3350
asbasbasbasbasbsS'etype'
p3351
S"<type 'exceptions.AttributeError'>"
p3352
sS'date'
p3353
S'Wed Mar 21 11:50:06 2012'
p3354
sS'response'
p3355
g49
(g50
g51
NtRp3356
(dp3357
g54
(dp3358
sg56
(lp3359
g49
(g58
g51
NtRp3360
(dp3361
g54
(dp3362
g62
I5
ssg63
Nsg56
(lp3363
g49
(g65
g51
NtRp3364
(dp3365
g54
(dp3366
sg63
g3360
sg56
(lp3367
g49
(g70
g51
NtRp3368
(dp3369
g54
(dp3370
g74
g75
ssg63
g3364
sg56
(lp3371
g147
asbag49
(g70
g51
NtRp3372
(dp3373
g54
(dp3374
g81
g82
ssg63
g3364
sg56
(lp3375
S':'
asbag49
(g70
g51
NtRp3376
(dp3377
g54
(dp3378
sg63
g3364
sg56
(lp3379
g49
(g50
g51
NtRp3380
(dp3381
g54
(dp3382
g62
I5
ssg63
g3376
sg56
(lp3383
S'<cStringIO.StringO object at 0x9fc9380>'
p3384
asbasbasbag49
(g65
g51
NtRp3385
(dp3386
g54
(dp3387
sg63
g3360
sg56
(lp3388
g49
(g70
g51
NtRp3389
(dp3390
g54
(dp3391
g74
g75
ssg63
g3385
sg56
(lp3392
g213
asbag49
(g70
g51
NtRp3393
(dp3394
g54
(dp3395
g81
g82
ssg63
g3385
sg56
(lp3396
S':'
asbag49
(g70
g51
NtRp3397
(dp3398
g54
(dp3399
sg63
g3385
sg56
(lp3400
g49
(g50
g51
NtRp3401
(dp3402
g54
(dp3403
g62
I5
ssg63
g3397
sg56
(lp3404
g49
(g58
g51
NtRp3405
(dp3406
g54
(dp3407
g62
I4
ssg63
Nsg56
(lp3408
g49
(g65
g51
NtRp3409
(dp3410
g54
(dp3411
sg63
g3405
sg56
(lp3412
g49
(g70
g51
NtRp3413
(dp3414
g54
(dp3415
g74
g75
ssg63
g3409
sg56
(lp3416
S'session_id_udi0312'
p3417
asbag49
(g70
g51
NtRp3418
(dp3419
g54
(dp3420
g81
g82
ssg63
g3409
sg56
(lp3421
S':'
asbag49
(g70
g51
NtRp3422
(dp3423
g54
(dp3424
sg63
g3409
sg56
(lp3425
g49
(g50
g51
NtRp3426
(dp3427
g54
(dp3428
g62
I4
ssg63
g3422
sg56
(lp3429
g49
(g58
g51
NtRp3430
(dp3431
g54
(dp3432
g62
I3
ssg63
Nsg56
(lp3433
g49
(g65
g51
NtRp3434
(dp3435
g54
(dp3436
sg63
g3430
sg56
(lp3437
g49
(g70
g51
NtRp3438
(dp3439
g54
(dp3440
g74
g75
ssg63
g3434
sg56
(lp3441
g263
asbag49
(g70
g51
NtRp3442
(dp3443
g54
(dp3444
g81
g82
ssg63
g3434
sg56
(lp3445
S':'
asbag49
(g70
g51
NtRp3446
(dp3447
g54
(dp3448
sg63
g3434
sg56
(lp3449
g49
(g50
g51
NtRp3450
(dp3451
g54
(dp3452
g62
I3
ssg63
g3446
sg56
(lp3453
S''
asbasbasbag49
(g65
g51
NtRp3454
(dp3455
g54
(dp3456
sg63
g3430
sg56
(lp3457
g49
(g70
g51
NtRp3458
(dp3459
g54
(dp3460
g74
g75
ssg63
g3454
sg56
(lp3461
g284
asbag49
(g70
g51
NtRp3462
(dp3463
g54
(dp3464
g81
g82
ssg63
g3454
sg56
(lp3465
S':'
asbag49
(g70
g51
NtRp3466
(dp3467
g54
(dp3468
sg63
g3454
sg56
(lp3469
g49
(g50
g51
NtRp3470
(dp3471
g54
(dp3472
g62
I3
ssg63
g3466
sg56
(lp3473
S''
asbasbasbag49
(g65
g51
NtRp3474
(dp3475
g54
(dp3476
sg63
g3430
sg56
(lp3477
g49
(g70
g51
NtRp3478
(dp3479
g54
(dp3480
g74
g75
ssg63
g3474
sg56
(lp3481
g305
asbag49
(g70
g51
NtRp3482
(dp3483
g54
(dp3484
g81
g82
ssg63
g3474
sg56
(lp3485
S':'
asbag49
(g70
g51
NtRp3486
(dp3487
g54
(dp3488
sg63
g3474
sg56
(lp3489
g49
(g50
g51
NtRp3490
(dp3491
g54
(dp3492
g62
I3
ssg63
g3486
sg56
(lp3493
S'2592000'
p3494
asbasbasbag49
(g65
g51
NtRp3495
(dp3496
g54
(dp3497
sg63
g3430
sg56
(lp3498
g49
(g70
g51
NtRp3499
(dp3500
g54
(dp3501
g74
g75
ssg63
g3495
sg56
(lp3502
g326
asbag49
(g70
g51
NtRp3503
(dp3504
g54
(dp3505
g81
g82
ssg63
g3495
sg56
(lp3506
S':'
asbag49
(g70
g51
NtRp3507
(dp3508
g54
(dp3509
sg63
g3495
sg56
(lp3510
g49
(g50
g51
NtRp3511
(dp3512
g54
(dp3513
g62
I3
ssg63
g3507
sg56
(lp3514
S''
asbasbasbag49
(g65
g51
NtRp3515
(dp3516
g54
(dp3517
sg63
g3430
sg56
(lp3518
g49
(g70
g51
NtRp3519
(dp3520
g54
(dp3521
g74
g75
ssg63
g3515
sg56
(lp3522
g347
asbag49
(g70
g51
NtRp3523
(dp3524
g54
(dp3525
g81
g82
ssg63
g3515
sg56
(lp3526
S':'
asbag49
(g70
g51
NtRp3527
(dp3528
g54
(dp3529
sg63
g3515
sg56
(lp3530
g49
(g50
g51
NtRp3531
(dp3532
g54
(dp3533
g62
I3
ssg63
g3527
sg56
(lp3534
S'/'
asbasbasbag49
(g65
g51
NtRp3535
(dp3536
g54
(dp3537
sg63
g3430
sg56
(lp3538
g49
(g70
g51
NtRp3539
(dp3540
g54
(dp3541
g74
g75
ssg63
g3535
sg56
(lp3542
g368
asbag49
(g70
g51
NtRp3543
(dp3544
g54
(dp3545
g81
g82
ssg63
g3535
sg56
(lp3546
S':'
asbag49
(g70
g51
NtRp3547
(dp3548
g54
(dp3549
sg63
g3535
sg56
(lp3550
g49
(g50
g51
NtRp3551
(dp3552
g54
(dp3553
g62
I3
ssg63
g3547
sg56
(lp3554
S''
asbasbasbag49
(g65
g51
NtRp3555
(dp3556
g54
(dp3557
sg63
g3430
sg56
(lp3558
g49
(g70
g51
NtRp3559
(dp3560
g54
(dp3561
g74
g75
ssg63
g3555
sg56
(lp3562
g389
asbag49
(g70
g51
NtRp3563
(dp3564
g54
(dp3565
g81
g82
ssg63
g3555
sg56
(lp3566
S':'
asbag49
(g70
g51
NtRp3567
(dp3568
g54
(dp3569
sg63
g3555
sg56
(lp3570
g49
(g50
g51
NtRp3571
(dp3572
g54
(dp3573
g62
I3
ssg63
g3567
sg56
(lp3574
S''
asbasbasbasbasbasbasbasbasbasbasbag49
(g65
g51
NtRp3575
(dp3576
g54
(dp3577
sg63
g3360
sg56
(lp3578
g49
(g70
g51
NtRp3579
(dp3580
g54
(dp3581
g74
g75
ssg63
g3575
sg56
(lp3582
S'delimiters'
p3583
asbag49
(g70
g51
NtRp3584
(dp3585
g54
(dp3586
g81
g82
ssg63
g3575
sg56
(lp3587
S':'
asbag49
(g70
g51
NtRp3588
(dp3589
g54
(dp3590
sg63
g3575
sg56
(lp3591
g49
(g50
g51
NtRp3592
(dp3593
g54
(dp3594
g62
I5
ssg63
g3588
sg56
(lp3595
g49
(g58
g51
NtRp3596
(dp3597
g54
(dp3598
g62
I4
ssg63
Nsg56
(lp3599
g49
(g65
g51
NtRp3600
(dp3601
g54
(dp3602
sg63
g3596
sg56
(lp3603
g49
(g70
g51
NtRp3604
(dp3605
g54
(dp3606
sg63
g3600
sg56
(lp3607
g49
(g50
g51
NtRp3608
(dp3609
g54
(dp3610
g62
I4
ssg63
g3604
sg56
(lp3611
S'{{'
p3612
asbasbasbag49
(g65
g51
NtRp3613
(dp3614
g54
(dp3615
sg63
g3596
sg56
(lp3616
g49
(g70
g51
NtRp3617
(dp3618
g54
(dp3619
sg63
g3613
sg56
(lp3620
g49
(g50
g51
NtRp3621
(dp3622
g54
(dp3623
g62
I4
ssg63
g3617
sg56
(lp3624
S'}}'
p3625
asbasbasbasbasbasbasbag49
(g65
g51
NtRp3626
(dp3627
g54
(dp3628
sg63
g3360
sg56
(lp3629
g49
(g70
g51
NtRp3630
(dp3631
g54
(dp3632
g74
g75
ssg63
g3626
sg56
(lp3633
S'files'
p3634
asbag49
(g70
g51
NtRp3635
(dp3636
g54
(dp3637
g81
g82
ssg63
g3626
sg56
(lp3638
S':'
asbag49
(g70
g51
NtRp3639
(dp3640
g54
(dp3641
sg63
g3626
sg56
(lp3642
g49
(g50
g51
NtRp3643
(dp3644
g54
(dp3645
g62
I5
ssg63
g3639
sg56
(lp3646
g49
(g58
g51
NtRp3647
(dp3648
g54
(dp3649
g62
I4
ssg63
Nsg56
(lp3650
sbasbasbasbag49
(g65
g51
NtRp3651
(dp3652
g54
(dp3653
sg63
g3360
sg56
(lp3654
g49
(g70
g51
NtRp3655
(dp3656
g54
(dp3657
g74
g75
ssg63
g3651
sg56
(lp3658
S'flash'
p3659
asbag49
(g70
g51
NtRp3660
(dp3661
g54
(dp3662
g81
g82
ssg63
g3651
sg56
(lp3663
S':'
asbag49
(g70
g51
NtRp3664
(dp3665
g54
(dp3666
sg63
g3651
sg56
(lp3667
g49
(g50
g51
NtRp3668
(dp3669
g54
(dp3670
g62
I5
ssg63
g3664
sg56
(lp3671
S''
asbasbasbag49
(g65
g51
NtRp3672
(dp3673
g54
(dp3674
sg63
g3360
sg56
(lp3675
g49
(g70
g51
NtRp3676
(dp3677
g54
(dp3678
g74
g75
ssg63
g3672
sg56
(lp3679
S'generic_patterns'
p3680
asbag49
(g70
g51
NtRp3681
(dp3682
g54
(dp3683
g81
g82
ssg63
g3672
sg56
(lp3684
S':'
asbag49
(g70
g51
NtRp3685
(dp3686
g54
(dp3687
sg63
g3672
sg56
(lp3688
g49
(g50
g51
NtRp3689
(dp3690
g54
(dp3691
g62
I5
ssg63
g3685
sg56
(lp3692
g49
(g58
g51
NtRp3693
(dp3694
g54
(dp3695
g62
I4
ssg63
Nsg56
(lp3696
g49
(g65
g51
NtRp3697
(dp3698
g54
(dp3699
sg63
g3693
sg56
(lp3700
g49
(g70
g51
NtRp3701
(dp3702
g54
(dp3703
sg63
g3697
sg56
(lp3704
g49
(g50
g51
NtRp3705
(dp3706
g54
(dp3707
g62
I4
ssg63
g3701
sg56
(lp3708
S'*'
asbasbasbasbasbasbasbag49
(g65
g51
NtRp3709
(dp3710
g54
(dp3711
sg63
g3360
sg56
(lp3712
g49
(g70
g51
NtRp3713
(dp3714
g54
(dp3715
g74
g75
ssg63
g3709
sg56
(lp3716
S'headers'
p3717
asbag49
(g70
g51
NtRp3718
(dp3719
g54
(dp3720
g81
g82
ssg63
g3709
sg56
(lp3721
S':'
asbag49
(g70
g51
NtRp3722
(dp3723
g54
(dp3724
sg63
g3709
sg56
(lp3725
g49
(g50
g51
NtRp3726
(dp3727
g54
(dp3728
g62
I5
ssg63
g3722
sg56
(lp3729
g49
(g58
g51
NtRp3730
(dp3731
g54
(dp3732
g62
I4
ssg63
Nsg56
(lp3733
g49
(g65
g51
NtRp3734
(dp3735
g54
(dp3736
sg63
g3730
sg56
(lp3737
g49
(g70
g51
NtRp3738
(dp3739
g54
(dp3740
g74
g75
ssg63
g3734
sg56
(lp3741
S'Cache-Control'
p3742
asbag49
(g70
g51
NtRp3743
(dp3744
g54
(dp3745
g81
g82
ssg63
g3734
sg56
(lp3746
S':'
asbag49
(g70
g51
NtRp3747
(dp3748
g54
(dp3749
sg63
g3734
sg56
(lp3750
g49
(g50
g51
NtRp3751
(dp3752
g54
(dp3753
g62
I4
ssg63
g3747
sg56
(lp3754
S'no-store, no-cache, must-revalidate, post-check=0, pre-check=0'
p3755
asbasbasbag49
(g65
g51
NtRp3756
(dp3757
g54
(dp3758
sg63
g3730
sg56
(lp3759
g49
(g70
g51
NtRp3760
(dp3761
g54
(dp3762
g74
g75
ssg63
g3756
sg56
(lp3763
S'Content-Type'
p3764
asbag49
(g70
g51
NtRp3765
(dp3766
g54
(dp3767
g81
g82
ssg63
g3756
sg56
(lp3768
S':'
asbag49
(g70
g51
NtRp3769
(dp3770
g54
(dp3771
sg63
g3756
sg56
(lp3772
g49
(g50
g51
NtRp3773
(dp3774
g54
(dp3775
g62
I4
ssg63
g3769
sg56
(lp3776
S'text/html; charset=utf-8'
p3777
asbasbasbag49
(g65
g51
NtRp3778
(dp3779
g54
(dp3780
sg63
g3730
sg56
(lp3781
g49
(g70
g51
NtRp3782
(dp3783
g54
(dp3784
g74
g75
ssg63
g3778
sg56
(lp3785
S'Expires'
p3786
asbag49
(g70
g51
NtRp3787
(dp3788
g54
(dp3789
g81
g82
ssg63
g3778
sg56
(lp3790
S':'
asbag49
(g70
g51
NtRp3791
(dp3792
g54
(dp3793
sg63
g3778
sg56
(lp3794
g49
(g50
g51
NtRp3795
(dp3796
g54
(dp3797
g62
I4
ssg63
g3791
sg56
(lp3798
S'Wed, 21 Mar 2012 15:50:06 GMT'
p3799
asbasbasbag49
(g65
g51
NtRp3800
(dp3801
g54
(dp3802
sg63
g3730
sg56
(lp3803
g49
(g70
g51
NtRp3804
(dp3805
g54
(dp3806
g74
g75
ssg63
g3800
sg56
(lp3807
S'Pragma'
p3808
asbag49
(g70
g51
NtRp3809
(dp3810
g54
(dp3811
g81
g82
ssg63
g3800
sg56
(lp3812
S':'
asbag49
(g70
g51
NtRp3813
(dp3814
g54
(dp3815
sg63
g3800
sg56
(lp3816
g49
(g50
g51
NtRp3817
(dp3818
g54
(dp3819
g62
I4
ssg63
g3813
sg56
(lp3820
S'no-cache'
p3821
asbasbasbag49
(g65
g51
NtRp3822
(dp3823
g54
(dp3824
sg63
g3730
sg56
(lp3825
g49
(g70
g51
NtRp3826
(dp3827
g54
(dp3828
g74
g75
ssg63
g3822
sg56
(lp3829
S'X-Powered-By'
p3830
asbag49
(g70
g51
NtRp3831
(dp3832
g54
(dp3833
g81
g82
ssg63
g3822
sg56
(lp3834
S':'
asbag49
(g70
g51
NtRp3835
(dp3836
g54
(dp3837
sg63
g3822
sg56
(lp3838
g49
(g50
g51
NtRp3839
(dp3840
g54
(dp3841
g62
I4
ssg63
g3835
sg56
(lp3842
S'web2py'
p3843
asbasbasbasbasbasbasbag49
(g65
g51
NtRp3844
(dp3845
g54
(dp3846
sg63
g3360
sg56
(lp3847
g49
(g70
g51
NtRp3848
(dp3849
g54
(dp3850
g74
g75
ssg63
g3844
sg56
(lp3851
S'menu'
p3852
asbag49
(g70
g51
NtRp3853
(dp3854
g54
(dp3855
g81
g82
ssg63
g3844
sg56
(lp3856
S':'
asbag49
(g70
g51
NtRp3857
(dp3858
g54
(dp3859
sg63
g3844
sg56
(lp3860
g49
(g50
g51
NtRp3861
(dp3862
g54
(dp3863
g62
I5
ssg63
g3857
sg56
(lp3864
g49
(g58
g51
NtRp3865
(dp3866
g54
(dp3867
g62
I4
ssg63
Nsg56
(lp3868
sbasbasbasbag49
(g65
g51
NtRp3869
(dp3870
g54
(dp3871
sg63
g3360
sg56
(lp3872
g49
(g70
g51
NtRp3873
(dp3874
g54
(dp3875
g74
g75
ssg63
g3869
sg56
(lp3876
S'meta'
p3877
asbag49
(g70
g51
NtRp3878
(dp3879
g54
(dp3880
g81
g82
ssg63
g3869
sg56
(lp3881
S':'
asbag49
(g70
g51
NtRp3882
(dp3883
g54
(dp3884
sg63
g3869
sg56
(lp3885
g49
(g50
g51
NtRp3886
(dp3887
g54
(dp3888
g62
I5
ssg63
g3882
sg56
(lp3889
g49
(g58
g51
NtRp3890
(dp3891
g54
(dp3892
g62
I4
ssg63
Nsg56
(lp3893
sbasbasbasbag49
(g65
g51
NtRp3894
(dp3895
g54
(dp3896
sg63
g3360
sg56
(lp3897
g49
(g70
g51
NtRp3898
(dp3899
g54
(dp3900
g74
g75
ssg63
g3894
sg56
(lp3901
S'postprocessing'
p3902
asbag49
(g70
g51
NtRp3903
(dp3904
g54
(dp3905
g81
g82
ssg63
g3894
sg56
(lp3906
S':'
asbag49
(g70
g51
NtRp3907
(dp3908
g54
(dp3909
sg63
g3894
sg56
(lp3910
g49
(g50
g51
NtRp3911
(dp3912
g54
(dp3913
g62
I5
ssg63
g3907
sg56
(lp3914
g49
(g58
g51
NtRp3915
(dp3916
g54
(dp3917
g62
I4
ssg63
Nsg56
(lp3918
sbasbasbasbag49
(g65
g51
NtRp3919
(dp3920
g54
(dp3921
sg63
g3360
sg56
(lp3922
g49
(g70
g51
NtRp3923
(dp3924
g54
(dp3925
g74
g75
ssg63
g3919
sg56
(lp3926
S'session_file'
p3927
asbag49
(g70
g51
NtRp3928
(dp3929
g54
(dp3930
g81
g82
ssg63
g3919
sg56
(lp3931
S':'
asbag49
(g70
g51
NtRp3932
(dp3933
g54
(dp3934
sg63
g3919
sg56
(lp3935
g49
(g50
g51
NtRp3936
(dp3937
g54
(dp3938
g62
I5
ssg63
g3932
sg56
(lp3939
S"<open file '/Users/udimilo/Documents/web2py/applications/udi0312/sessions/127.0.0.1-fcd6a577-d448-4882-b7bc-f353da84ba3b', mode 'rb+' at 0x9e7b530>"
p3940
asbasbasbag49
(g65
g51
NtRp3941
(dp3942
g54
(dp3943
sg63
g3360
sg56
(lp3944
g49
(g70
g51
NtRp3945
(dp3946
g54
(dp3947
g74
g75
ssg63
g3941
sg56
(lp3948
S'session_filename'
p3949
asbag49
(g70
g51
NtRp3950
(dp3951
g54
(dp3952
g81
g82
ssg63
g3941
sg56
(lp3953
S':'
asbag49
(g70
g51
NtRp3954
(dp3955
g54
(dp3956
sg63
g3941
sg56
(lp3957
g49
(g50
g51
NtRp3958
(dp3959
g54
(dp3960
g62
I5
ssg63
g3954
sg56
(lp3961
S'/Users/udimilo/Documents/web2py/applications/udi0312/sessions/127.0.0.1-fcd6a577-d448-4882-b7bc-f353da84ba3b'
p3962
asbasbasbag49
(g65
g51
NtRp3963
(dp3964
g54
(dp3965
sg63
g3360
sg56
(lp3966
g49
(g70
g51
NtRp3967
(dp3968
g54
(dp3969
g74
g75
ssg63
g3963
sg56
(lp3970
S'session_id'
p3971
asbag49
(g70
g51
NtRp3972
(dp3973
g54
(dp3974
g81
g82
ssg63
g3963
sg56
(lp3975
S':'
asbag49
(g70
g51
NtRp3976
(dp3977
g54
(dp3978
sg63
g3963
sg56
(lp3979
g49
(g50
g51
NtRp3980
(dp3981
g54
(dp3982
g62
I5
ssg63
g3976
sg56
(lp3983
S'127.0.0.1-fcd6a577-d448-4882-b7bc-f353da84ba3b'
p3984
asbasbasbag49
(g65
g51
NtRp3985
(dp3986
g54
(dp3987
sg63
g3360
sg56
(lp3988
g49
(g70
g51
NtRp3989
(dp3990
g54
(dp3991
g74
g75
ssg63
g3985
sg56
(lp3992
S'session_id_name'
p3993
asbag49
(g70
g51
NtRp3994
(dp3995
g54
(dp3996
g81
g82
ssg63
g3985
sg56
(lp3997
S':'
asbag49
(g70
g51
NtRp3998
(dp3999
g54
(dp4000
sg63
g3985
sg56
(lp4001
g49
(g50
g51
NtRp4002
(dp4003
g54
(dp4004
g62
I5
ssg63
g3998
sg56
(lp4005
g3417
asbasbasbag49
(g65
g51
NtRp4006
(dp4007
g54
(dp4008
sg63
g3360
sg56
(lp4009
g49
(g70
g51
NtRp4010
(dp4011
g54
(dp4012
g74
g75
ssg63
g4006
sg56
(lp4013
S'session_locked'
p4014
asbag49
(g70
g51
NtRp4015
(dp4016
g54
(dp4017
g81
g82
ssg63
g4006
sg56
(lp4018
S':'
asbag49
(g70
g51
NtRp4019
(dp4020
g54
(dp4021
sg63
g4006
sg56
(lp4022
g49
(g50
g51
NtRp4023
(dp4024
g54
(dp4025
g62
I5
ssg63
g4019
sg56
(lp4026
g1508
asbasbasbag49
(g65
g51
NtRp4027
(dp4028
g54
(dp4029
sg63
g3360
sg56
(lp4030
g49
(g70
g51
NtRp4031
(dp4032
g54
(dp4033
g74
g75
ssg63
g4027
sg56
(lp4034
S'session_new'
p4035
asbag49
(g70
g51
NtRp4036
(dp4037
g54
(dp4038
g81
g82
ssg63
g4027
sg56
(lp4039
S':'
asbag49
(g70
g51
NtRp4040
(dp4041
g54
(dp4042
sg63
g4027
sg56
(lp4043
g49
(g50
g51
NtRp4044
(dp4045
g54
(dp4046
g62
I5
ssg63
g4040
sg56
(lp4047
g92
asbasbasbag49
(g65
g51
NtRp4048
(dp4049
g54
(dp4050
sg63
g3360
sg56
(lp4051
g49
(g70
g51
NtRp4052
(dp4053
g54
(dp4054
g74
g75
ssg63
g4048
sg56
(lp4055
S'status'
p4056
asbag49
(g70
g51
NtRp4057
(dp4058
g54
(dp4059
g81
g82
ssg63
g4048
sg56
(lp4060
S':'
asbag49
(g70
g51
NtRp4061
(dp4062
g54
(dp4063
sg63
g4048
sg56
(lp4064
g49
(g50
g51
NtRp4065
(dp4066
g54
(dp4067
g62
I5
ssg63
g4061
sg56
(lp4068
S'200'
p4069
asbasbasbag49
(g65
g51
NtRp4070
(dp4071
g54
(dp4072
sg63
g3360
sg56
(lp4073
g49
(g70
g51
NtRp4074
(dp4075
g54
(dp4076
g74
g75
ssg63
g4070
sg56
(lp4077
g2171
asbag49
(g70
g51
NtRp4078
(dp4079
g54
(dp4080
g81
g82
ssg63
g4070
sg56
(lp4081
S':'
asbag49
(g70
g51
NtRp4082
(dp4083
g54
(dp4084
sg63
g4070
sg56
(lp4085
g49
(g50
g51
NtRp4086
(dp4087
g54
(dp4088
g62
I5
ssg63
g4082
sg56
(lp4089
g2184
asbasbasbag49
(g65
g51
NtRp4090
(dp4091
g54
(dp4092
sg63
g3360
sg56
(lp4093
g49
(g70
g51
NtRp4094
(dp4095
g54
(dp4096
g74
g75
ssg63
g4090
sg56
(lp4097
S'view'
p4098
asbag49
(g70
g51
NtRp4099
(dp4100
g54
(dp4101
g81
g82
ssg63
g4090
sg56
(lp4102
S':'
asbag49
(g70
g51
NtRp4103
(dp4104
g54
(dp4105
sg63
g4090
sg56
(lp4106
g49
(g50
g51
NtRp4107
(dp4108
g54
(dp4109
g62
I5
ssg63
g4103
sg56
(lp4110
S'default/index.html'
p4111
asbasbasbasbasbsS'locals'
p4112
(dp4113
S'secret'
p4114
S"'daJDa6_8UcnGMw1yuq9TjoO_PMKukXMo8vEMo7Qv5J-G3SPgrAV0FqFCd0TNjQyG'"
p4115
sg48
S"<Storage {'body': <cStringIO.StringO object at 0..._vars': <Storage {}>, 'post_vars': <Storage {}>}>"
p4116
sS'return_url'
p4117
S"'http://127.0.0.1:8000'"
p4118
sS'key'
p4119
S"'wFNJekVpDCJtRPFX812pQsJee-gt0zO4X5XmG6wcfSOSlLocxodAXNMbl0_hw3Vl'"
p4120
sS'self'
p4121
S'<gluon.contrib.login_methods.linkedin_account.LinkedInAccount object at 0x9e3c490>'
p4122
sssS'traceback'
p4123
S'Traceback (most recent call last):\n  File "/users/udimilo/Documents/web2py/gluon/restricted.py", line 205, in restricted\n    exec ccode in environment\n  File "/Users/udimilo/Documents/web2py/applications/udi0312/models/db.py", line 72, in <module>\n    \'http://127.0.0.1:8000\')\n  File "/users/udimilo/Documents/web2py/gluon/contrib/login_methods/linkedin_account.py", line 33, in __init__\n    self.api = linkedin.LinkedIn(key,secret,return_url, gae=False)\nAttributeError: \'module\' object has no attribute \'LinkedIn\'\n'
p4124
s.