(dp1
S'output'
p2
S"<type 'exceptions.SyntaxError'> invalid syntax (index.html, line 63)"
p3
sS'layer'
p4
S'/Users/udimilo/Documents/web2py/applications/udi0312/views/default/index.html'
p5
sS'code'
p6
S'response.write(\'<html lan="en">\\n<head>\\n    <title>inFormation - Curate The Web</title>\\n    <script type="text/javascript" src="http://ajax.googleapis.com/ajax/libs/jquery/1.7.1/jquery.min.js"></script>\\n    <script type="text/javascript" src="/udi0312/static/js/jquery.wookmark.js"></script>\\n    <script type="text/javascript" src="http://easydate.parshap.com/files/jquery.easydate-0.2.4.min.js"></script>\\n    <script type="text/javascript" src="/udi0312/static/js/web2py.js"></script>\\n    <script type="text/javascript" src="http://jacklmoore.com/colorbox/colorbox/jquery.colorbox.js"></script>   \\n    <link href=\\\'http://fonts.googleapis.com/css?family=PT+Sans\\\' rel=\\\'stylesheet\\\' type=\\\'text/css\\\'>\\n    <link href=\\\'/udi0312/static/css/site.css\\\' rel=\\\'stylesheet\\\' type=\\\'text/css\\\'>\\n</head>\\n<body>\\n    <div id="header">\\n        <div id="search">\\n            <input type="text" id="query" size="27" value="Search">\\n            <a id="query_button" href="#" class="lg"><img src="http://passets-cdn.pinterest.com/images/search.gif" alt=""></a>\\n        </div>\\n        <img id="ajax_loader" src="/udi0312/static/images/ajax_loader.gif" />\\n        <a id="logo" href="/">\\n            <img src="http://press.linkedin.com/sites/all/themes/presslinkedin/images/LinkedIn_IN_Icon_25px.png"/>\\n            <span>formation</span>\\n        </a>\\n        <ul id="navigation">\\n            <li>\', escape=False)\nresponse.write(\'auth\' in globals() and auth.navbar(separators=(\' \',\' | \',\'\')))\nresponse.write(\'</li>\\n        </ul>\\n    </div>\\n    <div id="msg">\\n        <span></span>\\n    </div>\\n    <!-- hidden colorbox elements -->\\n    <div style="display:none;">\\n        <div id="showItem">\\n            <div id="showItemContent" class="clearfix"></div>\\n        </div>\\n        \', escape=False)\nif auth.user:\n    response.write(\'\\n        <div id="repin">\\n            <form onsubmit="ajax_with_msg(\\\'\', escape=False)\n    response.write(URL(\'api\', \'add_repin\'))\n    response.write(\'\\\', [\\\'id\\\',\\\'repin_board\\\']);return false;">\\n                <h1>Repin</h1>\\n                <div class="pin">\\n                    <h2 class="title"></h2> \\n                    <select name="repin_board">\\n                    \', escape=False)\n    for board in boards:\n        response.write(\'\\n                        <option value="\', escape=False)\n        response.write(board.id)\n        response.write(\'">\', escape=False)\n        response.write(board.name)\n        response.write(\'</option>\\n                    \', escape=False)\n        pass\n    response.write(\'\\n                    </select>\\n                    <input type="hidden" name="id"/>\\n                    <input type="submit" />\\n                </div>\\n            </form>\\n        </div>\\n        \', escape=False)\n    pass\nresponse.write(\'\\n    </div>\\n\', escape=False)\nresponse.write(\'\\n\', escape=False)\nresponse.write(\'\\n\', escape=False)\nresponse.write(\'\\n\', escape=False)\nresponse.write(\'\\n<div id="addBar">\\n    <div class="picker">\\n        <a href="#">switch page and board</a>\\n    </div>\\n    <div class="add" id="addPage">\\n        <form onsubmit="ajax_with_msg(\\\'\', escape=False)\nresponse.write(URL(\'api\', \'add_article\'))\nresponse.write(\'\\\', [\\\'url\\\',\\\'board\\\']);return false;">\\n            <ul>\\n                <li><span>URL</span><input name="url" /></li>\\n                <li>\\n                    <select name="board">\\n                    \', escape=False)\nfor board in boards:\n    response.write(\'\\n                        <option value="\', escape=False)\n    response.write(board.id)\n    response.write(\'">\', escape=False)\n    response.write(board.name)\n    response.write(\'</option>\\n                    \', escape=False)\n    pass\nresponse.write(\'                                    \\n                    </select>        \\n                </li>\\n                <li><input type="submit" /></li>\\n            </ul>\\n        </form>\\n    </div>\\n    <div class="add" id="addBoard" style="display:none;">\\n        <form onsubmit="ajax_with_msg(\\\'\', escape=False)\nresponse.write(URL(\'api\', \'add_board\'))\nresponse.write(\'\\\', [\\\'name\\\',\\\'category\\\']);return false;">\\n            <ul>\\n                <li><span>Board</span><input name="name" /></li>\\n                <li>\\n                    <select name="category">\\n                    \', escape=False)\nfor cat in categories:\n    response.write(\'\\n                        <option value="\', escape=False)\n    response.write(cat.id)\n    response.write(\'">\', escape=False)\n    response.write(cat.name)\n    response.write(\'</option>\\n                    \', escape=False)\n    pass\nresponse.write(\'                \\n                    </select>        \\n                </li>\\n                <li><input type="submit" /></li>\\n            </ul>\\n        </form>\\n    </div>\\n    <div id="addBarMsg"></div>\\n</div>\\n<div id="categoriesBar" class="topMenu">\\n    <ul id="categoriesNav">\\n        <li><b>Info you follow</b></li>\\n        <li><a href="\', escape=False)\nresponse.write(URL(\'default\',\'all\'))\nresponse.write(\'">Everything</a></li>\\n        <li><a>Popular</a></li>\\n        <li><a>Recommended</a></li>\\n        <li><a href="#" id="addButton">Add +</a></li>\\n    </ul>\\n</div>\\n\', escape=False)\nresponse.write(\'\\n\', escape=False)\nresponse.write(\'\\n<div id="wrapper">\\n    <ul id="example">\\n        \', escape=False)\nfor pin in pins:\n    response.write(\'\\n            <li style="height:350px">\\n                <div class="itemWrapper">\\n                    <div class="actions">\\n                        <a href="#" class="whiteButton repinButton" id="\', escape=False)\n    response.write(pin.id)\n    response.write(\'" title="\', escape=False)\n    response.write(pin.article.title)\n    response.write(\'"><em></em><strong>Repin</strong></a>\\n                        <a href="#" class="whiteButton likeButton"><em></em><strong>Like</strong></a>\\n                        <a href="#" class="whiteButton commentButton"><em></em><strong>Comment</strong></a>\\n                    </div>\\n                    <div class="content">\\n                        \', escape=False)\n    if show_pinner:\n        response.write(\'\\n                        <div class="pinner">\\n                            <a href="\', escape=False)\n        response.write(URL(\'users\', args=[pin.board.user.id]))\n        response.write(\'">\', escape=False)\n        response.write(pin.board.user.first_name)\n        response.write(\' \', escape=False)\n        response.write(pin.board.user.last_name)\n        response.write(\'</a>\\n                            \', escape=False)\n        if pin.original_pin:\n            response.write(\'\\n                                via <a href="\', escape=False)\n            response.write(URL(\'users\', args=[pin.original_pin.board.user.id])\n            response.write(\'">\', escape=False)\n            response.write(pin.original_pin.board.user.first_name)\n            response.write(\' \', escape=False)\n            response.write(pin.original_pin.board.user.last_name)\n            response.write(\'</a>\\n                            \', escape=False)\n            pass\n        response.write(\'\\n                            onto <a href="\', escape=False)\n        response.write(URL(\'boards\', args=[pin.board.id]))\n        response.write(\'">\', escape=False)\n        response.write(pin.board.name)\n        response.write(\'</a>\\n                        </div>\\n                        \', escape=False)\n        pass\n    response.write(\'\\n                        <h1>\', escape=False)\n    response.write(pin.article.title)\n    response.write(\'</h1>\\n                        <h2 class="subTitle">\\n                            <a href="#">\\n                                <img src="http://www.google.com/s2/u/0/favicons?domain=\', escape=False)\n    response.write(pin.article.domain)\n    response.write(\'"/>\\n                                <span>\', escape=False)\n    response.write(pin.article.domain)\n    response.write(\'<span>\\n                            </a>\\n                            <label class="time easydate">\', escape=False)\n    response.write(pin.article.created_on)\n    response.write(\'</label>\\n                        </h2>\\n                        <article class="blob">\\n                            \', escape=False)\n    response.write(XML(pin.article.content, sanitize=True))\n    response.write(\'\\n                        </article>\\n                    </div>\\n                </div>\\n            </li>                        \\n        \', escape=False)\n    pass\nresponse.write(\'\\n    </ul>\\n</div>\\n\', escape=False)\nresponse.write(\'\\n\', escape=False)\nresponse.write(\'\\n    <script type="text/javascript" src="/udi0312/static/js/site.js"></script>\\n</body>\\n</html>\\n\', escape=False)'
p7
sS'snapshot'
p8
(dp9
S'exception'
p10
(dp11
S'__getslice__'
p12
S"<method-wrapper '__getslice__' of exceptions.SyntaxError object at 0x8df4ab0>"
p13
sS'text'
p14
S'\'            response.write(\\\'">\\\', escape=False)\\n\''
p15
sS'__str__'
p16
S"<method-wrapper '__str__' of exceptions.SyntaxError object at 0x8df4ab0>"
p17
sS'__reduce__'
p18
S'<built-in method __reduce__ of exceptions.SyntaxError object at 0x8df4ab0>'
p19
sS'__dict__'
p20
S'{}'
p21
sS'__init__'
p22
S"<method-wrapper '__init__' of exceptions.SyntaxError object at 0x8df4ab0>"
p23
sS'__setattr__'
p24
S"<method-wrapper '__setattr__' of exceptions.SyntaxError object at 0x8df4ab0>"
p25
sS'__reduce_ex__'
p26
S'<built-in method __reduce_ex__ of exceptions.SyntaxError object at 0x8df4ab0>'
p27
sS'__new__'
p28
S'<built-in method __new__ of type object at 0x100320>'
p29
sS'__class__'
p30
S"<type 'exceptions.SyntaxError'>"
p31
sS'filename'
p32
S"'/Users/udimilo/Documents/web2py/applications/udi0312/views/default/index.html'"
p33
sS'lineno'
p34
S'63'
p35
sS'msg'
p36
S"'invalid syntax'"
p37
sS'__doc__'
p38
S"'Invalid syntax.'"
p39
sS'__getitem__'
p40
S"<method-wrapper '__getitem__' of exceptions.SyntaxError object at 0x8df4ab0>"
p41
sS'__setstate__'
p42
S'<built-in method __setstate__ of exceptions.SyntaxError object at 0x8df4ab0>'
p43
sS'__getattribute__'
p44
S"<method-wrapper '__getattribute__' of exceptions.SyntaxError object at 0x8df4ab0>"
p45
sS'print_file_and_line'
p46
S'None'
p47
sS'args'
p48
S'(\'invalid syntax\', (\'/Users/udimilo/Documents/web2py/applications/udi0312/views/default/index.html\', 63, 20, \'            response.write(\\\'">\\\', escape=False)\\n\'))'
p49
sS'offset'
p50
S'20'
p51
sS'__delattr__'
p52
S"<method-wrapper '__delattr__' of exceptions.SyntaxError object at 0x8df4ab0>"
p53
sS'__repr__'
p54
S"<method-wrapper '__repr__' of exceptions.SyntaxError object at 0x8df4ab0>"
p55
sS'__hash__'
p56
S"<method-wrapper '__hash__' of exceptions.SyntaxError object at 0x8df4ab0>"
p57
ssS'evalue'
p58
S'invalid syntax (index.html, line 63)'
p59
sS'request'
p60
ccopy_reg
_reconstructor
p61
(cgluon.html
BEAUTIFY
p62
c__builtin__
object
p63
NtRp64
(dp65
S'attributes'
p66
(dp67
sS'components'
p68
(lp69
g61
(cgluon.html
TABLE
p70
g63
NtRp71
(dp72
g66
(dp73
S'level'
p74
I5
ssS'parent'
p75
Nsg68
(lp76
g61
(cgluon.html
TR
p77
g63
NtRp78
(dp79
g66
(dp80
sg75
g71
sg68
(lp81
g61
(cgluon.html
TD
p82
g63
NtRp83
(dp84
g66
(dp85
S'_style'
p86
S'font-weight:bold;vertical-align:top'
p87
ssg75
g78
sg68
(lp88
S'ajax'
p89
asbag61
(g82
g63
NtRp90
(dp91
g66
(dp92
S'_valign'
p93
S'top'
p94
ssg75
g78
sg68
(lp95
S':'
asbag61
(g82
g63
NtRp96
(dp97
g66
(dp98
sg75
g78
sg68
(lp99
g61
(g62
g63
NtRp100
(dp101
g66
(dp102
g74
I5
ssg75
g96
sg68
(lp103
S'False'
p104
asbasbasbag61
(g77
g63
NtRp105
(dp106
g66
(dp107
sg75
g71
sg68
(lp108
g61
(g82
g63
NtRp109
(dp110
g66
(dp111
g86
g87
ssg75
g105
sg68
(lp112
S'application'
p113
asbag61
(g82
g63
NtRp114
(dp115
g66
(dp116
g93
g94
ssg75
g105
sg68
(lp117
S':'
asbag61
(g82
g63
NtRp118
(dp119
g66
(dp120
sg75
g105
sg68
(lp121
g61
(g62
g63
NtRp122
(dp123
g66
(dp124
g74
I5
ssg75
g118
sg68
(lp125
S'udi0312'
p126
asbasbasbag61
(g77
g63
NtRp127
(dp128
g66
(dp129
sg75
g71
sg68
(lp130
g61
(g82
g63
NtRp131
(dp132
g66
(dp133
g86
g87
ssg75
g127
sg68
(lp134
g48
asbag61
(g82
g63
NtRp135
(dp136
g66
(dp137
g93
g94
ssg75
g127
sg68
(lp138
S':'
asbag61
(g82
g63
NtRp139
(dp140
g66
(dp141
sg75
g127
sg68
(lp142
g61
(g62
g63
NtRp143
(dp144
g66
(dp145
g74
I5
ssg75
g139
sg68
(lp146
g61
(g70
g63
NtRp147
(dp148
g66
(dp149
g74
I4
ssg75
Nsg68
(lp150
sbasbasbasbag61
(g77
g63
NtRp151
(dp152
g66
(dp153
sg75
g71
sg68
(lp154
g61
(g82
g63
NtRp155
(dp156
g66
(dp157
g86
g87
ssg75
g151
sg68
(lp158
S'body'
p159
asbag61
(g82
g63
NtRp160
(dp161
g66
(dp162
g93
g94
ssg75
g151
sg68
(lp163
S':'
asbag61
(g82
g63
NtRp164
(dp165
g66
(dp166
sg75
g151
sg68
(lp167
g61
(g62
g63
NtRp168
(dp169
g66
(dp170
g74
I5
ssg75
g164
sg68
(lp171
S'<cStringIO.StringO object at 0xa8a5700>'
p172
asbasbasbag61
(g77
g63
NtRp173
(dp174
g66
(dp175
sg75
g71
sg68
(lp176
g61
(g82
g63
NtRp177
(dp178
g66
(dp179
g86
g87
ssg75
g173
sg68
(lp180
S'client'
p181
asbag61
(g82
g63
NtRp182
(dp183
g66
(dp184
g93
g94
ssg75
g173
sg68
(lp185
S':'
asbag61
(g82
g63
NtRp186
(dp187
g66
(dp188
sg75
g173
sg68
(lp189
g61
(g62
g63
NtRp190
(dp191
g66
(dp192
g74
I5
ssg75
g186
sg68
(lp193
S'127.0.0.1'
p194
asbasbasbag61
(g77
g63
NtRp195
(dp196
g66
(dp197
sg75
g71
sg68
(lp198
g61
(g82
g63
NtRp199
(dp200
g66
(dp201
g86
g87
ssg75
g195
sg68
(lp202
S'controller'
p203
asbag61
(g82
g63
NtRp204
(dp205
g66
(dp206
g93
g94
ssg75
g195
sg68
(lp207
S':'
asbag61
(g82
g63
NtRp208
(dp209
g66
(dp210
sg75
g195
sg68
(lp211
g61
(g62
g63
NtRp212
(dp213
g66
(dp214
g74
I5
ssg75
g208
sg68
(lp215
S'default'
p216
asbasbasbag61
(g77
g63
NtRp217
(dp218
g66
(dp219
sg75
g71
sg68
(lp220
g61
(g82
g63
NtRp221
(dp222
g66
(dp223
g86
g87
ssg75
g217
sg68
(lp224
S'cookies'
p225
asbag61
(g82
g63
NtRp226
(dp227
g66
(dp228
g93
g94
ssg75
g217
sg68
(lp229
S':'
asbag61
(g82
g63
NtRp230
(dp231
g66
(dp232
sg75
g217
sg68
(lp233
g61
(g62
g63
NtRp234
(dp235
g66
(dp236
g74
I5
ssg75
g230
sg68
(lp237
g61
(g70
g63
NtRp238
(dp239
g66
(dp240
g74
I4
ssg75
Nsg68
(lp241
g61
(g77
g63
NtRp242
(dp243
g66
(dp244
sg75
g238
sg68
(lp245
g61
(g82
g63
NtRp246
(dp247
g66
(dp248
g86
g87
ssg75
g242
sg68
(lp249
S'session_id_admin'
p250
asbag61
(g82
g63
NtRp251
(dp252
g66
(dp253
g93
g94
ssg75
g242
sg68
(lp254
S':'
asbag61
(g82
g63
NtRp255
(dp256
g66
(dp257
sg75
g242
sg68
(lp258
g61
(g62
g63
NtRp259
(dp260
g66
(dp261
g74
I4
ssg75
g255
sg68
(lp262
g61
(g70
g63
NtRp263
(dp264
g66
(dp265
g74
I3
ssg75
Nsg68
(lp266
g61
(g77
g63
NtRp267
(dp268
g66
(dp269
sg75
g263
sg68
(lp270
g61
(g82
g63
NtRp271
(dp272
g66
(dp273
g86
g87
ssg75
g267
sg68
(lp274
S'comment'
p275
asbag61
(g82
g63
NtRp276
(dp277
g66
(dp278
g93
g94
ssg75
g267
sg68
(lp279
S':'
asbag61
(g82
g63
NtRp280
(dp281
g66
(dp282
sg75
g267
sg68
(lp283
g61
(g62
g63
NtRp284
(dp285
g66
(dp286
g74
I3
ssg75
g280
sg68
(lp287
S''
asbasbasbag61
(g77
g63
NtRp288
(dp289
g66
(dp290
sg75
g263
sg68
(lp291
g61
(g82
g63
NtRp292
(dp293
g66
(dp294
g86
g87
ssg75
g288
sg68
(lp295
S'domain'
p296
asbag61
(g82
g63
NtRp297
(dp298
g66
(dp299
g93
g94
ssg75
g288
sg68
(lp300
S':'
asbag61
(g82
g63
NtRp301
(dp302
g66
(dp303
sg75
g288
sg68
(lp304
g61
(g62
g63
NtRp305
(dp306
g66
(dp307
g74
I3
ssg75
g301
sg68
(lp308
S''
asbasbasbag61
(g77
g63
NtRp309
(dp310
g66
(dp311
sg75
g263
sg68
(lp312
g61
(g82
g63
NtRp313
(dp314
g66
(dp315
g86
g87
ssg75
g309
sg68
(lp316
S'expires'
p317
asbag61
(g82
g63
NtRp318
(dp319
g66
(dp320
g93
g94
ssg75
g309
sg68
(lp321
S':'
asbag61
(g82
g63
NtRp322
(dp323
g66
(dp324
sg75
g309
sg68
(lp325
g61
(g62
g63
NtRp326
(dp327
g66
(dp328
g74
I3
ssg75
g322
sg68
(lp329
S''
asbasbasbag61
(g77
g63
NtRp330
(dp331
g66
(dp332
sg75
g263
sg68
(lp333
g61
(g82
g63
NtRp334
(dp335
g66
(dp336
g86
g87
ssg75
g330
sg68
(lp337
S'max-age'
p338
asbag61
(g82
g63
NtRp339
(dp340
g66
(dp341
g93
g94
ssg75
g330
sg68
(lp342
S':'
asbag61
(g82
g63
NtRp343
(dp344
g66
(dp345
sg75
g330
sg68
(lp346
g61
(g62
g63
NtRp347
(dp348
g66
(dp349
g74
I3
ssg75
g343
sg68
(lp350
S''
asbasbasbag61
(g77
g63
NtRp351
(dp352
g66
(dp353
sg75
g263
sg68
(lp354
g61
(g82
g63
NtRp355
(dp356
g66
(dp357
g86
g87
ssg75
g351
sg68
(lp358
S'path'
p359
asbag61
(g82
g63
NtRp360
(dp361
g66
(dp362
g93
g94
ssg75
g351
sg68
(lp363
S':'
asbag61
(g82
g63
NtRp364
(dp365
g66
(dp366
sg75
g351
sg68
(lp367
g61
(g62
g63
NtRp368
(dp369
g66
(dp370
g74
I3
ssg75
g364
sg68
(lp371
S''
asbasbasbag61
(g77
g63
NtRp372
(dp373
g66
(dp374
sg75
g263
sg68
(lp375
g61
(g82
g63
NtRp376
(dp377
g66
(dp378
g86
g87
ssg75
g372
sg68
(lp379
S'secure'
p380
asbag61
(g82
g63
NtRp381
(dp382
g66
(dp383
g93
g94
ssg75
g372
sg68
(lp384
S':'
asbag61
(g82
g63
NtRp385
(dp386
g66
(dp387
sg75
g372
sg68
(lp388
g61
(g62
g63
NtRp389
(dp390
g66
(dp391
g74
I3
ssg75
g385
sg68
(lp392
S''
asbasbasbag61
(g77
g63
NtRp393
(dp394
g66
(dp395
sg75
g263
sg68
(lp396
g61
(g82
g63
NtRp397
(dp398
g66
(dp399
g86
g87
ssg75
g393
sg68
(lp400
S'version'
p401
asbag61
(g82
g63
NtRp402
(dp403
g66
(dp404
g93
g94
ssg75
g393
sg68
(lp405
S':'
asbag61
(g82
g63
NtRp406
(dp407
g66
(dp408
sg75
g393
sg68
(lp409
g61
(g62
g63
NtRp410
(dp411
g66
(dp412
g74
I3
ssg75
g406
sg68
(lp413
S''
asbasbasbasbasbasbasbag61
(g77
g63
NtRp414
(dp415
g66
(dp416
sg75
g238
sg68
(lp417
g61
(g82
g63
NtRp418
(dp419
g66
(dp420
g86
g87
ssg75
g414
sg68
(lp421
S'session_id_udi0312'
p422
asbag61
(g82
g63
NtRp423
(dp424
g66
(dp425
g93
g94
ssg75
g414
sg68
(lp426
S':'
asbag61
(g82
g63
NtRp427
(dp428
g66
(dp429
sg75
g414
sg68
(lp430
g61
(g62
g63
NtRp431
(dp432
g66
(dp433
g74
I4
ssg75
g427
sg68
(lp434
g61
(g70
g63
NtRp435
(dp436
g66
(dp437
g74
I3
ssg75
Nsg68
(lp438
g61
(g77
g63
NtRp439
(dp440
g66
(dp441
sg75
g435
sg68
(lp442
g61
(g82
g63
NtRp443
(dp444
g66
(dp445
g86
g87
ssg75
g439
sg68
(lp446
g275
asbag61
(g82
g63
NtRp447
(dp448
g66
(dp449
g93
g94
ssg75
g439
sg68
(lp450
S':'
asbag61
(g82
g63
NtRp451
(dp452
g66
(dp453
sg75
g439
sg68
(lp454
g61
(g62
g63
NtRp455
(dp456
g66
(dp457
g74
I3
ssg75
g451
sg68
(lp458
S''
asbasbasbag61
(g77
g63
NtRp459
(dp460
g66
(dp461
sg75
g435
sg68
(lp462
g61
(g82
g63
NtRp463
(dp464
g66
(dp465
g86
g87
ssg75
g459
sg68
(lp466
g296
asbag61
(g82
g63
NtRp467
(dp468
g66
(dp469
g93
g94
ssg75
g459
sg68
(lp470
S':'
asbag61
(g82
g63
NtRp471
(dp472
g66
(dp473
sg75
g459
sg68
(lp474
g61
(g62
g63
NtRp475
(dp476
g66
(dp477
g74
I3
ssg75
g471
sg68
(lp478
S''
asbasbasbag61
(g77
g63
NtRp479
(dp480
g66
(dp481
sg75
g435
sg68
(lp482
g61
(g82
g63
NtRp483
(dp484
g66
(dp485
g86
g87
ssg75
g479
sg68
(lp486
g317
asbag61
(g82
g63
NtRp487
(dp488
g66
(dp489
g93
g94
ssg75
g479
sg68
(lp490
S':'
asbag61
(g82
g63
NtRp491
(dp492
g66
(dp493
sg75
g479
sg68
(lp494
g61
(g62
g63
NtRp495
(dp496
g66
(dp497
g74
I3
ssg75
g491
sg68
(lp498
S''
asbasbasbag61
(g77
g63
NtRp499
(dp500
g66
(dp501
sg75
g435
sg68
(lp502
g61
(g82
g63
NtRp503
(dp504
g66
(dp505
g86
g87
ssg75
g499
sg68
(lp506
g338
asbag61
(g82
g63
NtRp507
(dp508
g66
(dp509
g93
g94
ssg75
g499
sg68
(lp510
S':'
asbag61
(g82
g63
NtRp511
(dp512
g66
(dp513
sg75
g499
sg68
(lp514
g61
(g62
g63
NtRp515
(dp516
g66
(dp517
g74
I3
ssg75
g511
sg68
(lp518
S''
asbasbasbag61
(g77
g63
NtRp519
(dp520
g66
(dp521
sg75
g435
sg68
(lp522
g61
(g82
g63
NtRp523
(dp524
g66
(dp525
g86
g87
ssg75
g519
sg68
(lp526
g359
asbag61
(g82
g63
NtRp527
(dp528
g66
(dp529
g93
g94
ssg75
g519
sg68
(lp530
S':'
asbag61
(g82
g63
NtRp531
(dp532
g66
(dp533
sg75
g519
sg68
(lp534
g61
(g62
g63
NtRp535
(dp536
g66
(dp537
g74
I3
ssg75
g531
sg68
(lp538
S''
asbasbasbag61
(g77
g63
NtRp539
(dp540
g66
(dp541
sg75
g435
sg68
(lp542
g61
(g82
g63
NtRp543
(dp544
g66
(dp545
g86
g87
ssg75
g539
sg68
(lp546
g380
asbag61
(g82
g63
NtRp547
(dp548
g66
(dp549
g93
g94
ssg75
g539
sg68
(lp550
S':'
asbag61
(g82
g63
NtRp551
(dp552
g66
(dp553
sg75
g539
sg68
(lp554
g61
(g62
g63
NtRp555
(dp556
g66
(dp557
g74
I3
ssg75
g551
sg68
(lp558
S''
asbasbasbag61
(g77
g63
NtRp559
(dp560
g66
(dp561
sg75
g435
sg68
(lp562
g61
(g82
g63
NtRp563
(dp564
g66
(dp565
g86
g87
ssg75
g559
sg68
(lp566
g401
asbag61
(g82
g63
NtRp567
(dp568
g66
(dp569
g93
g94
ssg75
g559
sg68
(lp570
S':'
asbag61
(g82
g63
NtRp571
(dp572
g66
(dp573
sg75
g559
sg68
(lp574
g61
(g62
g63
NtRp575
(dp576
g66
(dp577
g74
I3
ssg75
g571
sg68
(lp578
S''
asbasbasbasbasbasbasbasbasbasbasbag61
(g77
g63
NtRp579
(dp580
g66
(dp581
sg75
g71
sg68
(lp582
g61
(g82
g63
NtRp583
(dp584
g66
(dp585
g86
g87
ssg75
g579
sg68
(lp586
S'env'
p587
asbag61
(g82
g63
NtRp588
(dp589
g66
(dp590
g93
g94
ssg75
g579
sg68
(lp591
S':'
asbag61
(g82
g63
NtRp592
(dp593
g66
(dp594
sg75
g579
sg68
(lp595
g61
(g62
g63
NtRp596
(dp597
g66
(dp598
g74
I5
ssg75
g592
sg68
(lp599
g61
(g70
g63
NtRp600
(dp601
g66
(dp602
g74
I4
ssg75
Nsg68
(lp603
g61
(g77
g63
NtRp604
(dp605
g66
(dp606
sg75
g600
sg68
(lp607
g61
(g82
g63
NtRp608
(dp609
g66
(dp610
g86
g87
ssg75
g604
sg68
(lp611
S'app_folders'
p612
asbag61
(g82
g63
NtRp613
(dp614
g66
(dp615
g93
g94
ssg75
g604
sg68
(lp616
S':'
asbag61
(g82
g63
NtRp617
(dp618
g66
(dp619
sg75
g604
sg68
(lp620
g61
(g62
g63
NtRp621
(dp622
g66
(dp623
g74
I4
ssg75
g617
sg68
(lp624
S"set(['/Users/udimilo/Documents/web2py/applications/udi0312/', '/Users/udimilo/Documents/web2py/applications/admin/'])"
p625
asbasbasbag61
(g77
g63
NtRp626
(dp627
g66
(dp628
sg75
g600
sg68
(lp629
g61
(g82
g63
NtRp630
(dp631
g66
(dp632
g86
g87
ssg75
g626
sg68
(lp633
S'applications_parent'
p634
asbag61
(g82
g63
NtRp635
(dp636
g66
(dp637
g93
g94
ssg75
g626
sg68
(lp638
S':'
asbag61
(g82
g63
NtRp639
(dp640
g66
(dp641
sg75
g626
sg68
(lp642
g61
(g62
g63
NtRp643
(dp644
g66
(dp645
g74
I4
ssg75
g639
sg68
(lp646
S'/Users/udimilo/Documents/web2py'
p647
asbasbasbag61
(g77
g63
NtRp648
(dp649
g66
(dp650
sg75
g600
sg68
(lp651
g61
(g82
g63
NtRp652
(dp653
g66
(dp654
g86
g87
ssg75
g648
sg68
(lp655
S'cmd_args'
p656
asbag61
(g82
g63
NtRp657
(dp658
g66
(dp659
g93
g94
ssg75
g648
sg68
(lp660
S':'
asbag61
(g82
g63
NtRp661
(dp662
g66
(dp663
sg75
g648
sg68
(lp664
g61
(g62
g63
NtRp665
(dp666
g66
(dp667
g74
I4
ssg75
g661
sg68
(lp668
g61
(g70
g63
NtRp669
(dp670
g66
(dp671
g74
I3
ssg75
Nsg68
(lp672
sbasbasbasbag61
(g77
g63
NtRp673
(dp674
g66
(dp675
sg75
g600
sg68
(lp676
g61
(g82
g63
NtRp677
(dp678
g66
(dp679
g86
g87
ssg75
g673
sg68
(lp680
S'cmd_options'
p681
asbag61
(g82
g63
NtRp682
(dp683
g66
(dp684
g93
g94
ssg75
g673
sg68
(lp685
S':'
asbag61
(g82
g63
NtRp686
(dp687
g66
(dp688
sg75
g673
sg68
(lp689
g61
(g62
g63
NtRp690
(dp691
g66
(dp692
g74
I4
ssg75
g686
sg68
(lp693
S"<Values at 0x23196e8: {'verbose': False, 'ip': '127.0.0.1', 'shutdown_timeout': 5, 'taskbar': False, 'nocron': False, 'pid_filename': 'httpserver.pid', 'maxthreads': None, 'softcron': False, 'server_name': 'Udi-Milos-MacBook-Pro.local', 'bpython': False, 'nogui': False, 'port': 8000, 'extcron': False, 'debuglevel': 30, 'test': None, 'folder': '/Users/udimilo/Documents/web2py', 'config': '', 'import_models': False, 'winservice': '', 'shell': None, 'run': '', 'log_filename': 'httpserver.log', 'args': [''], 'socket_timeout': 5, 'ssl_ca_certificate': None, 'scheduler': None, 'profiler_filename': None, 'ssl_private_key': '', 'password': '<ask>', 'request_queue_size': 5, 'ssl_certificate': '', 'cronjob': False, 'numthreads': None, 'quiet': False, 'interfaces': None, 'minthreads': None, 'timeout': 10, 'plain': False, 'nobanner': False}>"
p694
asbasbasbag61
(g77
g63
NtRp695
(dp696
g66
(dp697
sg75
g600
sg68
(lp698
g61
(g82
g63
NtRp699
(dp700
g66
(dp701
g86
g87
ssg75
g695
sg68
(lp702
S'db_sessions'
p703
asbag61
(g82
g63
NtRp704
(dp705
g66
(dp706
g93
g94
ssg75
g695
sg68
(lp707
S':'
asbag61
(g82
g63
NtRp708
(dp709
g66
(dp710
sg75
g695
sg68
(lp711
g61
(g62
g63
NtRp712
(dp713
g66
(dp714
g74
I4
ssg75
g708
sg68
(lp715
S'set([])'
p716
asbasbasbag61
(g77
g63
NtRp717
(dp718
g66
(dp719
sg75
g600
sg68
(lp720
g61
(g82
g63
NtRp721
(dp722
g66
(dp723
g86
g87
ssg75
g717
sg68
(lp724
S'debugging'
p725
asbag61
(g82
g63
NtRp726
(dp727
g66
(dp728
g93
g94
ssg75
g717
sg68
(lp729
S':'
asbag61
(g82
g63
NtRp730
(dp731
g66
(dp732
sg75
g717
sg68
(lp733
g61
(g62
g63
NtRp734
(dp735
g66
(dp736
g74
I4
ssg75
g730
sg68
(lp737
g104
asbasbasbag61
(g77
g63
NtRp738
(dp739
g66
(dp740
sg75
g600
sg68
(lp741
g61
(g82
g63
NtRp742
(dp743
g66
(dp744
g86
g87
ssg75
g738
sg68
(lp745
S'gluon_parent'
p746
asbag61
(g82
g63
NtRp747
(dp748
g66
(dp749
g93
g94
ssg75
g738
sg68
(lp750
S':'
asbag61
(g82
g63
NtRp751
(dp752
g66
(dp753
sg75
g738
sg68
(lp754
g61
(g62
g63
NtRp755
(dp756
g66
(dp757
g74
I4
ssg75
g751
sg68
(lp758
S'/Users/udimilo/Documents/web2py'
p759
asbasbasbag61
(g77
g63
NtRp760
(dp761
g66
(dp762
sg75
g600
sg68
(lp763
g61
(g82
g63
NtRp764
(dp765
g66
(dp766
g86
g87
ssg75
g760
sg68
(lp767
S'http_accept'
p768
asbag61
(g82
g63
NtRp769
(dp770
g66
(dp771
g93
g94
ssg75
g760
sg68
(lp772
S':'
asbag61
(g82
g63
NtRp773
(dp774
g66
(dp775
sg75
g760
sg68
(lp776
g61
(g62
g63
NtRp777
(dp778
g66
(dp779
g74
I4
ssg75
g773
sg68
(lp780
S'text/html,application/xhtml+xml,application/xml;q=0.9,*/*;q=0.8'
p781
asbasbasbag61
(g77
g63
NtRp782
(dp783
g66
(dp784
sg75
g600
sg68
(lp785
g61
(g82
g63
NtRp786
(dp787
g66
(dp788
g86
g87
ssg75
g782
sg68
(lp789
S'http_accept_charset'
p790
asbag61
(g82
g63
NtRp791
(dp792
g66
(dp793
g93
g94
ssg75
g782
sg68
(lp794
S':'
asbag61
(g82
g63
NtRp795
(dp796
g66
(dp797
sg75
g782
sg68
(lp798
g61
(g62
g63
NtRp799
(dp800
g66
(dp801
g74
I4
ssg75
g795
sg68
(lp802
S'ISO-8859-1,utf-8;q=0.7,*;q=0.3'
p803
asbasbasbag61
(g77
g63
NtRp804
(dp805
g66
(dp806
sg75
g600
sg68
(lp807
g61
(g82
g63
NtRp808
(dp809
g66
(dp810
g86
g87
ssg75
g804
sg68
(lp811
S'http_accept_encoding'
p812
asbag61
(g82
g63
NtRp813
(dp814
g66
(dp815
g93
g94
ssg75
g804
sg68
(lp816
S':'
asbag61
(g82
g63
NtRp817
(dp818
g66
(dp819
sg75
g804
sg68
(lp820
g61
(g62
g63
NtRp821
(dp822
g66
(dp823
g74
I4
ssg75
g817
sg68
(lp824
S'gzip,deflate,sdch'
p825
asbasbasbag61
(g77
g63
NtRp826
(dp827
g66
(dp828
sg75
g600
sg68
(lp829
g61
(g82
g63
NtRp830
(dp831
g66
(dp832
g86
g87
ssg75
g826
sg68
(lp833
S'http_accept_language'
p834
asbag61
(g82
g63
NtRp835
(dp836
g66
(dp837
g93
g94
ssg75
g826
sg68
(lp838
S':'
asbag61
(g82
g63
NtRp839
(dp840
g66
(dp841
sg75
g826
sg68
(lp842
g61
(g62
g63
NtRp843
(dp844
g66
(dp845
g74
I4
ssg75
g839
sg68
(lp846
S'en-US,en;q=0.8'
p847
asbasbasbag61
(g77
g63
NtRp848
(dp849
g66
(dp850
sg75
g600
sg68
(lp851
g61
(g82
g63
NtRp852
(dp853
g66
(dp854
g86
g87
ssg75
g848
sg68
(lp855
S'http_cache_control'
p856
asbag61
(g82
g63
NtRp857
(dp858
g66
(dp859
g93
g94
ssg75
g848
sg68
(lp860
S':'
asbag61
(g82
g63
NtRp861
(dp862
g66
(dp863
sg75
g848
sg68
(lp864
g61
(g62
g63
NtRp865
(dp866
g66
(dp867
g74
I4
ssg75
g861
sg68
(lp868
S'max-age=0'
p869
asbasbasbag61
(g77
g63
NtRp870
(dp871
g66
(dp872
sg75
g600
sg68
(lp873
g61
(g82
g63
NtRp874
(dp875
g66
(dp876
g86
g87
ssg75
g870
sg68
(lp877
S'http_connection'
p878
asbag61
(g82
g63
NtRp879
(dp880
g66
(dp881
g93
g94
ssg75
g870
sg68
(lp882
S':'
asbag61
(g82
g63
NtRp883
(dp884
g66
(dp885
sg75
g870
sg68
(lp886
g61
(g62
g63
NtRp887
(dp888
g66
(dp889
g74
I4
ssg75
g883
sg68
(lp890
S'keep-alive'
p891
asbasbasbag61
(g77
g63
NtRp892
(dp893
g66
(dp894
sg75
g600
sg68
(lp895
g61
(g82
g63
NtRp896
(dp897
g66
(dp898
g86
g87
ssg75
g892
sg68
(lp899
S'http_cookie'
p900
asbag61
(g82
g63
NtRp901
(dp902
g66
(dp903
g93
g94
ssg75
g892
sg68
(lp904
S':'
asbag61
(g82
g63
NtRp905
(dp906
g66
(dp907
sg75
g892
sg68
(lp908
g61
(g62
g63
NtRp909
(dp910
g66
(dp911
g74
I4
ssg75
g905
sg68
(lp912
S'session_id_udi0312=127.0.0.1-fcd6a577-d448-4882-b7bc-f353da84ba3b; session_id_admin=127.0.0.1-7d9ebda9-b7be-4a8a-aac8-4500b111b0fa'
p913
asbasbasbag61
(g77
g63
NtRp914
(dp915
g66
(dp916
sg75
g600
sg68
(lp917
g61
(g82
g63
NtRp918
(dp919
g66
(dp920
g86
g87
ssg75
g914
sg68
(lp921
S'http_host'
p922
asbag61
(g82
g63
NtRp923
(dp924
g66
(dp925
g93
g94
ssg75
g914
sg68
(lp926
S':'
asbag61
(g82
g63
NtRp927
(dp928
g66
(dp929
sg75
g914
sg68
(lp930
g61
(g62
g63
NtRp931
(dp932
g66
(dp933
g74
I4
ssg75
g927
sg68
(lp934
S'127.0.0.1:8000'
p935
asbasbasbag61
(g77
g63
NtRp936
(dp937
g66
(dp938
sg75
g600
sg68
(lp939
g61
(g82
g63
NtRp940
(dp941
g66
(dp942
g86
g87
ssg75
g936
sg68
(lp943
S'http_referer'
p944
asbag61
(g82
g63
NtRp945
(dp946
g66
(dp947
g93
g94
ssg75
g936
sg68
(lp948
S':'
asbag61
(g82
g63
NtRp949
(dp950
g66
(dp951
sg75
g936
sg68
(lp952
g61
(g62
g63
NtRp953
(dp954
g66
(dp955
g74
I4
ssg75
g949
sg68
(lp956
S'http://127.0.0.1:8000/'
p957
asbasbasbag61
(g77
g63
NtRp958
(dp959
g66
(dp960
sg75
g600
sg68
(lp961
g61
(g82
g63
NtRp962
(dp963
g66
(dp964
g86
g87
ssg75
g958
sg68
(lp965
S'http_user_agent'
p966
asbag61
(g82
g63
NtRp967
(dp968
g66
(dp969
g93
g94
ssg75
g958
sg68
(lp970
S':'
asbag61
(g82
g63
NtRp971
(dp972
g66
(dp973
sg75
g958
sg68
(lp974
g61
(g62
g63
NtRp975
(dp976
g66
(dp977
g74
I4
ssg75
g971
sg68
(lp978
S'Mozilla/5.0 (Macintosh; Intel Mac OS X 10_7_3) AppleWebKit/535.11 (KHTML, like Gecko) Chrome/17.0.963.79 Safari/535.11'
p979
asbasbasbag61
(g77
g63
NtRp980
(dp981
g66
(dp982
sg75
g600
sg68
(lp983
g61
(g82
g63
NtRp984
(dp985
g66
(dp986
g86
g87
ssg75
g980
sg68
(lp987
S'is_jython'
p988
asbag61
(g82
g63
NtRp989
(dp990
g66
(dp991
g93
g94
ssg75
g980
sg68
(lp992
S':'
asbag61
(g82
g63
NtRp993
(dp994
g66
(dp995
sg75
g980
sg68
(lp996
g61
(g62
g63
NtRp997
(dp998
g66
(dp999
g74
I4
ssg75
g993
sg68
(lp1000
g104
asbasbasbag61
(g77
g63
NtRp1001
(dp1002
g66
(dp1003
sg75
g600
sg68
(lp1004
g61
(g82
g63
NtRp1005
(dp1006
g66
(dp1007
g86
g87
ssg75
g1001
sg68
(lp1008
S'is_pypy'
p1009
asbag61
(g82
g63
NtRp1010
(dp1011
g66
(dp1012
g93
g94
ssg75
g1001
sg68
(lp1013
S':'
asbag61
(g82
g63
NtRp1014
(dp1015
g66
(dp1016
sg75
g1001
sg68
(lp1017
g61
(g62
g63
NtRp1018
(dp1019
g66
(dp1020
g74
I4
ssg75
g1014
sg68
(lp1021
g104
asbasbasbag61
(g77
g63
NtRp1022
(dp1023
g66
(dp1024
sg75
g600
sg68
(lp1025
g61
(g82
g63
NtRp1026
(dp1027
g66
(dp1028
g86
g87
ssg75
g1022
sg68
(lp1029
S'path_info'
p1030
asbag61
(g82
g63
NtRp1031
(dp1032
g66
(dp1033
g93
g94
ssg75
g1022
sg68
(lp1034
S':'
asbag61
(g82
g63
NtRp1035
(dp1036
g66
(dp1037
sg75
g1022
sg68
(lp1038
g61
(g62
g63
NtRp1039
(dp1040
g66
(dp1041
g74
I4
ssg75
g1035
sg68
(lp1042
S'/'
asbasbasbag61
(g77
g63
NtRp1043
(dp1044
g66
(dp1045
sg75
g600
sg68
(lp1046
g61
(g82
g63
NtRp1047
(dp1048
g66
(dp1049
g86
g87
ssg75
g1043
sg68
(lp1050
S'query_string'
p1051
asbag61
(g82
g63
NtRp1052
(dp1053
g66
(dp1054
g93
g94
ssg75
g1043
sg68
(lp1055
S':'
asbag61
(g82
g63
NtRp1056
(dp1057
g66
(dp1058
sg75
g1043
sg68
(lp1059
g61
(g62
g63
NtRp1060
(dp1061
g66
(dp1062
g74
I4
ssg75
g1056
sg68
(lp1063
S''
asbasbasbag61
(g77
g63
NtRp1064
(dp1065
g66
(dp1066
sg75
g600
sg68
(lp1067
g61
(g82
g63
NtRp1068
(dp1069
g66
(dp1070
g86
g87
ssg75
g1064
sg68
(lp1071
S'remote_addr'
p1072
asbag61
(g82
g63
NtRp1073
(dp1074
g66
(dp1075
g93
g94
ssg75
g1064
sg68
(lp1076
S':'
asbag61
(g82
g63
NtRp1077
(dp1078
g66
(dp1079
sg75
g1064
sg68
(lp1080
g61
(g62
g63
NtRp1081
(dp1082
g66
(dp1083
g74
I4
ssg75
g1077
sg68
(lp1084
g194
asbasbasbag61
(g77
g63
NtRp1085
(dp1086
g66
(dp1087
sg75
g600
sg68
(lp1088
g61
(g82
g63
NtRp1089
(dp1090
g66
(dp1091
g86
g87
ssg75
g1085
sg68
(lp1092
S'remote_port'
p1093
asbag61
(g82
g63
NtRp1094
(dp1095
g66
(dp1096
g93
g94
ssg75
g1085
sg68
(lp1097
S':'
asbag61
(g82
g63
NtRp1098
(dp1099
g66
(dp1100
sg75
g1085
sg68
(lp1101
g61
(g62
g63
NtRp1102
(dp1103
g66
(dp1104
g74
I4
ssg75
g1098
sg68
(lp1105
S'61672'
p1106
asbasbasbag61
(g77
g63
NtRp1107
(dp1108
g66
(dp1109
sg75
g600
sg68
(lp1110
g61
(g82
g63
NtRp1111
(dp1112
g66
(dp1113
g86
g87
ssg75
g1107
sg68
(lp1114
S'request_method'
p1115
asbag61
(g82
g63
NtRp1116
(dp1117
g66
(dp1118
g93
g94
ssg75
g1107
sg68
(lp1119
S':'
asbag61
(g82
g63
NtRp1120
(dp1121
g66
(dp1122
sg75
g1107
sg68
(lp1123
g61
(g62
g63
NtRp1124
(dp1125
g66
(dp1126
g74
I4
ssg75
g1120
sg68
(lp1127
S'GET'
p1128
asbasbasbag61
(g77
g63
NtRp1129
(dp1130
g66
(dp1131
sg75
g600
sg68
(lp1132
g61
(g82
g63
NtRp1133
(dp1134
g66
(dp1135
g86
g87
ssg75
g1129
sg68
(lp1136
S'request_uri'
p1137
asbag61
(g82
g63
NtRp1138
(dp1139
g66
(dp1140
g93
g94
ssg75
g1129
sg68
(lp1141
S':'
asbag61
(g82
g63
NtRp1142
(dp1143
g66
(dp1144
sg75
g1129
sg68
(lp1145
g61
(g62
g63
NtRp1146
(dp1147
g66
(dp1148
g74
I4
ssg75
g1142
sg68
(lp1149
S'/udi0312/default/index'
p1150
asbasbasbag61
(g77
g63
NtRp1151
(dp1152
g66
(dp1153
sg75
g600
sg68
(lp1154
g61
(g82
g63
NtRp1155
(dp1156
g66
(dp1157
g86
g87
ssg75
g1151
sg68
(lp1158
S'script_name'
p1159
asbag61
(g82
g63
NtRp1160
(dp1161
g66
(dp1162
g93
g94
ssg75
g1151
sg68
(lp1163
S':'
asbag61
(g82
g63
NtRp1164
(dp1165
g66
(dp1166
sg75
g1151
sg68
(lp1167
g61
(g62
g63
NtRp1168
(dp1169
g66
(dp1170
g74
I4
ssg75
g1164
sg68
(lp1171
S''
asbasbasbag61
(g77
g63
NtRp1172
(dp1173
g66
(dp1174
sg75
g600
sg68
(lp1175
g61
(g82
g63
NtRp1176
(dp1177
g66
(dp1178
g86
g87
ssg75
g1172
sg68
(lp1179
S'server_name'
p1180
asbag61
(g82
g63
NtRp1181
(dp1182
g66
(dp1183
g93
g94
ssg75
g1172
sg68
(lp1184
S':'
asbag61
(g82
g63
NtRp1185
(dp1186
g66
(dp1187
sg75
g1172
sg68
(lp1188
g61
(g62
g63
NtRp1189
(dp1190
g66
(dp1191
g74
I4
ssg75
g1185
sg68
(lp1192
S'Udi-Milos-MacBook-Pro.local'
p1193
asbasbasbag61
(g77
g63
NtRp1194
(dp1195
g66
(dp1196
sg75
g600
sg68
(lp1197
g61
(g82
g63
NtRp1198
(dp1199
g66
(dp1200
g86
g87
ssg75
g1194
sg68
(lp1201
S'server_port'
p1202
asbag61
(g82
g63
NtRp1203
(dp1204
g66
(dp1205
g93
g94
ssg75
g1194
sg68
(lp1206
S':'
asbag61
(g82
g63
NtRp1207
(dp1208
g66
(dp1209
sg75
g1194
sg68
(lp1210
g61
(g62
g63
NtRp1211
(dp1212
g66
(dp1213
g74
I4
ssg75
g1207
sg68
(lp1214
S'8000'
p1215
asbasbasbag61
(g77
g63
NtRp1216
(dp1217
g66
(dp1218
sg75
g600
sg68
(lp1219
g61
(g82
g63
NtRp1220
(dp1221
g66
(dp1222
g86
g87
ssg75
g1216
sg68
(lp1223
S'server_protocol'
p1224
asbag61
(g82
g63
NtRp1225
(dp1226
g66
(dp1227
g93
g94
ssg75
g1216
sg68
(lp1228
S':'
asbag61
(g82
g63
NtRp1229
(dp1230
g66
(dp1231
sg75
g1216
sg68
(lp1232
g61
(g62
g63
NtRp1233
(dp1234
g66
(dp1235
g74
I4
ssg75
g1229
sg68
(lp1236
S'HTTP/1.1'
p1237
asbasbasbag61
(g77
g63
NtRp1238
(dp1239
g66
(dp1240
sg75
g600
sg68
(lp1241
g61
(g82
g63
NtRp1242
(dp1243
g66
(dp1244
g86
g87
ssg75
g1238
sg68
(lp1245
S'server_software'
p1246
asbag61
(g82
g63
NtRp1247
(dp1248
g66
(dp1249
g93
g94
ssg75
g1238
sg68
(lp1250
S':'
asbag61
(g82
g63
NtRp1251
(dp1252
g66
(dp1253
sg75
g1238
sg68
(lp1254
g61
(g62
g63
NtRp1255
(dp1256
g66
(dp1257
g74
I4
ssg75
g1251
sg68
(lp1258
S'Rocket 1.2.4'
p1259
asbasbasbag61
(g77
g63
NtRp1260
(dp1261
g66
(dp1262
sg75
g600
sg68
(lp1263
g61
(g82
g63
NtRp1264
(dp1265
g66
(dp1266
g86
g87
ssg75
g1260
sg68
(lp1267
S'web2py_crontype'
p1268
asbag61
(g82
g63
NtRp1269
(dp1270
g66
(dp1271
g93
g94
ssg75
g1260
sg68
(lp1272
S':'
asbag61
(g82
g63
NtRp1273
(dp1274
g66
(dp1275
sg75
g1260
sg68
(lp1276
g61
(g62
g63
NtRp1277
(dp1278
g66
(dp1279
g74
I4
ssg75
g1273
sg68
(lp1280
S'hard'
p1281
asbasbasbag61
(g77
g63
NtRp1282
(dp1283
g66
(dp1284
sg75
g600
sg68
(lp1285
g61
(g82
g63
NtRp1286
(dp1287
g66
(dp1288
g86
g87
ssg75
g1282
sg68
(lp1289
S'web2py_original_uri'
p1290
asbag61
(g82
g63
NtRp1291
(dp1292
g66
(dp1293
g93
g94
ssg75
g1282
sg68
(lp1294
S':'
asbag61
(g82
g63
NtRp1295
(dp1296
g66
(dp1297
sg75
g1282
sg68
(lp1298
g61
(g62
g63
NtRp1299
(dp1300
g66
(dp1301
g74
I4
ssg75
g1295
sg68
(lp1302
S'/'
asbasbasbag61
(g77
g63
NtRp1303
(dp1304
g66
(dp1305
sg75
g600
sg68
(lp1306
g61
(g82
g63
NtRp1307
(dp1308
g66
(dp1309
g86
g87
ssg75
g1303
sg68
(lp1310
S'web2py_path'
p1311
asbag61
(g82
g63
NtRp1312
(dp1313
g66
(dp1314
g93
g94
ssg75
g1303
sg68
(lp1315
S':'
asbag61
(g82
g63
NtRp1316
(dp1317
g66
(dp1318
sg75
g1303
sg68
(lp1319
g61
(g62
g63
NtRp1320
(dp1321
g66
(dp1322
g74
I4
ssg75
g1316
sg68
(lp1323
g647
asbasbasbag61
(g77
g63
NtRp1324
(dp1325
g66
(dp1326
sg75
g600
sg68
(lp1327
g61
(g82
g63
NtRp1328
(dp1329
g66
(dp1330
g86
g87
ssg75
g1324
sg68
(lp1331
S'web2py_version'
p1332
asbag61
(g82
g63
NtRp1333
(dp1334
g66
(dp1335
g93
g94
ssg75
g1324
sg68
(lp1336
S':'
asbag61
(g82
g63
NtRp1337
(dp1338
g66
(dp1339
sg75
g1324
sg68
(lp1340
g61
(g62
g63
NtRp1341
(dp1342
g66
(dp1343
g74
I4
ssg75
g1337
sg68
(lp1344
g61
(g70
g63
NtRp1345
(dp1346
g66
(dp1347
g74
I3
ssg75
Nsg68
(lp1348
g61
(g77
g63
NtRp1349
(dp1350
g66
(dp1351
sg75
g1345
sg68
(lp1352
g61
(g82
g63
NtRp1353
(dp1354
g66
(dp1355
sg75
g1349
sg68
(lp1356
g61
(g62
g63
NtRp1357
(dp1358
g66
(dp1359
g74
I3
ssg75
g1353
sg68
(lp1360
S'1'
asbasbasbag61
(g77
g63
NtRp1361
(dp1362
g66
(dp1363
sg75
g1345
sg68
(lp1364
g61
(g82
g63
NtRp1365
(dp1366
g66
(dp1367
sg75
g1361
sg68
(lp1368
g61
(g62
g63
NtRp1369
(dp1370
g66
(dp1371
g74
I3
ssg75
g1365
sg68
(lp1372
S'99'
p1373
asbasbasbag61
(g77
g63
NtRp1374
(dp1375
g66
(dp1376
sg75
g1345
sg68
(lp1377
g61
(g82
g63
NtRp1378
(dp1379
g66
(dp1380
sg75
g1374
sg68
(lp1381
g61
(g62
g63
NtRp1382
(dp1383
g66
(dp1384
g74
I3
ssg75
g1378
sg68
(lp1385
S'7'
asbasbasbag61
(g77
g63
NtRp1386
(dp1387
g66
(dp1388
sg75
g1345
sg68
(lp1389
g61
(g82
g63
NtRp1390
(dp1391
g66
(dp1392
sg75
g1386
sg68
(lp1393
g61
(g62
g63
NtRp1394
(dp1395
g66
(dp1396
g74
I3
ssg75
g1390
sg68
(lp1397
S'datetime.datetime(2012, 3, 4, 22, 12, 8)'
p1398
asbasbasbag61
(g77
g63
NtRp1399
(dp1400
g66
(dp1401
sg75
g1345
sg68
(lp1402
g61
(g82
g63
NtRp1403
(dp1404
g66
(dp1405
sg75
g1399
sg68
(lp1406
g61
(g62
g63
NtRp1407
(dp1408
g66
(dp1409
g74
I3
ssg75
g1403
sg68
(lp1410
S'stable'
p1411
asbasbasbasbasbasbasbag61
(g77
g63
NtRp1412
(dp1413
g66
(dp1414
sg75
g600
sg68
(lp1415
g61
(g82
g63
NtRp1416
(dp1417
g66
(dp1418
g86
g87
ssg75
g1412
sg68
(lp1419
S'wsgi_errors'
p1420
asbag61
(g82
g63
NtRp1421
(dp1422
g66
(dp1423
g93
g94
ssg75
g1412
sg68
(lp1424
S':'
asbag61
(g82
g63
NtRp1425
(dp1426
g66
(dp1427
sg75
g1412
sg68
(lp1428
g61
(g62
g63
NtRp1429
(dp1430
g66
(dp1431
g74
I4
ssg75
g1425
sg68
(lp1432
S"<open file '<stderr>', mode 'w' at 0x4220b0>"
p1433
asbasbasbag61
(g77
g63
NtRp1434
(dp1435
g66
(dp1436
sg75
g600
sg68
(lp1437
g61
(g82
g63
NtRp1438
(dp1439
g66
(dp1440
g86
g87
ssg75
g1434
sg68
(lp1441
S'wsgi_file_wrapper'
p1442
asbag61
(g82
g63
NtRp1443
(dp1444
g66
(dp1445
g93
g94
ssg75
g1434
sg68
(lp1446
S':'
asbag61
(g82
g63
NtRp1447
(dp1448
g66
(dp1449
sg75
g1434
sg68
(lp1450
g61
(g62
g63
NtRp1451
(dp1452
g66
(dp1453
g74
I4
ssg75
g1447
sg68
(lp1454
S'<class wsgiref.util.FileWrapper at 0x225e6c0>'
p1455
asbasbasbag61
(g77
g63
NtRp1456
(dp1457
g66
(dp1458
sg75
g600
sg68
(lp1459
g61
(g82
g63
NtRp1460
(dp1461
g66
(dp1462
g86
g87
ssg75
g1456
sg68
(lp1463
S'wsgi_input'
p1464
asbag61
(g82
g63
NtRp1465
(dp1466
g66
(dp1467
g93
g94
ssg75
g1456
sg68
(lp1468
S':'
asbag61
(g82
g63
NtRp1469
(dp1470
g66
(dp1471
sg75
g1456
sg68
(lp1472
g61
(g62
g63
NtRp1473
(dp1474
g66
(dp1475
g74
I4
ssg75
g1469
sg68
(lp1476
S'<socket._fileobject object at 0x8dba570>'
p1477
asbasbasbag61
(g77
g63
NtRp1478
(dp1479
g66
(dp1480
sg75
g600
sg68
(lp1481
g61
(g82
g63
NtRp1482
(dp1483
g66
(dp1484
g86
g87
ssg75
g1478
sg68
(lp1485
S'wsgi_multiprocess'
p1486
asbag61
(g82
g63
NtRp1487
(dp1488
g66
(dp1489
g93
g94
ssg75
g1478
sg68
(lp1490
S':'
asbag61
(g82
g63
NtRp1491
(dp1492
g66
(dp1493
sg75
g1478
sg68
(lp1494
g61
(g62
g63
NtRp1495
(dp1496
g66
(dp1497
g74
I4
ssg75
g1491
sg68
(lp1498
g104
asbasbasbag61
(g77
g63
NtRp1499
(dp1500
g66
(dp1501
sg75
g600
sg68
(lp1502
g61
(g82
g63
NtRp1503
(dp1504
g66
(dp1505
g86
g87
ssg75
g1499
sg68
(lp1506
S'wsgi_multithread'
p1507
asbag61
(g82
g63
NtRp1508
(dp1509
g66
(dp1510
g93
g94
ssg75
g1499
sg68
(lp1511
S':'
asbag61
(g82
g63
NtRp1512
(dp1513
g66
(dp1514
sg75
g1499
sg68
(lp1515
g61
(g62
g63
NtRp1516
(dp1517
g66
(dp1518
g74
I4
ssg75
g1512
sg68
(lp1519
S'True'
p1520
asbasbasbag61
(g77
g63
NtRp1521
(dp1522
g66
(dp1523
sg75
g600
sg68
(lp1524
g61
(g82
g63
NtRp1525
(dp1526
g66
(dp1527
g86
g87
ssg75
g1521
sg68
(lp1528
S'wsgi_run_once'
p1529
asbag61
(g82
g63
NtRp1530
(dp1531
g66
(dp1532
g93
g94
ssg75
g1521
sg68
(lp1533
S':'
asbag61
(g82
g63
NtRp1534
(dp1535
g66
(dp1536
sg75
g1521
sg68
(lp1537
g61
(g62
g63
NtRp1538
(dp1539
g66
(dp1540
g74
I4
ssg75
g1534
sg68
(lp1541
g104
asbasbasbag61
(g77
g63
NtRp1542
(dp1543
g66
(dp1544
sg75
g600
sg68
(lp1545
g61
(g82
g63
NtRp1546
(dp1547
g66
(dp1548
g86
g87
ssg75
g1542
sg68
(lp1549
S'wsgi_url_scheme'
p1550
asbag61
(g82
g63
NtRp1551
(dp1552
g66
(dp1553
g93
g94
ssg75
g1542
sg68
(lp1554
S':'
asbag61
(g82
g63
NtRp1555
(dp1556
g66
(dp1557
sg75
g1542
sg68
(lp1558
g61
(g62
g63
NtRp1559
(dp1560
g66
(dp1561
g74
I4
ssg75
g1555
sg68
(lp1562
S'http'
p1563
asbasbasbag61
(g77
g63
NtRp1564
(dp1565
g66
(dp1566
sg75
g600
sg68
(lp1567
g61
(g82
g63
NtRp1568
(dp1569
g66
(dp1570
g86
g87
ssg75
g1564
sg68
(lp1571
S'wsgi_version'
p1572
asbag61
(g82
g63
NtRp1573
(dp1574
g66
(dp1575
g93
g94
ssg75
g1564
sg68
(lp1576
S':'
asbag61
(g82
g63
NtRp1577
(dp1578
g66
(dp1579
sg75
g1564
sg68
(lp1580
g61
(g62
g63
NtRp1581
(dp1582
g66
(dp1583
g74
I4
ssg75
g1577
sg68
(lp1584
g61
(g70
g63
NtRp1585
(dp1586
g66
(dp1587
g74
I3
ssg75
Nsg68
(lp1588
g61
(g77
g63
NtRp1589
(dp1590
g66
(dp1591
sg75
g1585
sg68
(lp1592
g61
(g82
g63
NtRp1593
(dp1594
g66
(dp1595
sg75
g1589
sg68
(lp1596
g61
(g62
g63
NtRp1597
(dp1598
g66
(dp1599
g74
I3
ssg75
g1593
sg68
(lp1600
S'1'
asbasbasbag61
(g77
g63
NtRp1601
(dp1602
g66
(dp1603
sg75
g1585
sg68
(lp1604
g61
(g82
g63
NtRp1605
(dp1606
g66
(dp1607
sg75
g1601
sg68
(lp1608
g61
(g62
g63
NtRp1609
(dp1610
g66
(dp1611
g74
I3
ssg75
g1605
sg68
(lp1612
S'0'
asbasbasbasbasbasbasbasbasbasbasbag61
(g77
g63
NtRp1613
(dp1614
g66
(dp1615
sg75
g71
sg68
(lp1616
g61
(g82
g63
NtRp1617
(dp1618
g66
(dp1619
g86
g87
ssg75
g1613
sg68
(lp1620
S'extension'
p1621
asbag61
(g82
g63
NtRp1622
(dp1623
g66
(dp1624
g93
g94
ssg75
g1613
sg68
(lp1625
S':'
asbag61
(g82
g63
NtRp1626
(dp1627
g66
(dp1628
sg75
g1613
sg68
(lp1629
g61
(g62
g63
NtRp1630
(dp1631
g66
(dp1632
g74
I5
ssg75
g1626
sg68
(lp1633
S'html'
p1634
asbasbasbag61
(g77
g63
NtRp1635
(dp1636
g66
(dp1637
sg75
g71
sg68
(lp1638
g61
(g82
g63
NtRp1639
(dp1640
g66
(dp1641
g86
g87
ssg75
g1635
sg68
(lp1642
S'folder'
p1643
asbag61
(g82
g63
NtRp1644
(dp1645
g66
(dp1646
g93
g94
ssg75
g1635
sg68
(lp1647
S':'
asbag61
(g82
g63
NtRp1648
(dp1649
g66
(dp1650
sg75
g1635
sg68
(lp1651
g61
(g62
g63
NtRp1652
(dp1653
g66
(dp1654
g74
I5
ssg75
g1648
sg68
(lp1655
S'/Users/udimilo/Documents/web2py/applications/udi0312/'
p1656
asbasbasbag61
(g77
g63
NtRp1657
(dp1658
g66
(dp1659
sg75
g71
sg68
(lp1660
g61
(g82
g63
NtRp1661
(dp1662
g66
(dp1663
g86
g87
ssg75
g1657
sg68
(lp1664
S'function'
p1665
asbag61
(g82
g63
NtRp1666
(dp1667
g66
(dp1668
g93
g94
ssg75
g1657
sg68
(lp1669
S':'
asbag61
(g82
g63
NtRp1670
(dp1671
g66
(dp1672
sg75
g1657
sg68
(lp1673
g61
(g62
g63
NtRp1674
(dp1675
g66
(dp1676
g74
I5
ssg75
g1670
sg68
(lp1677
S'index'
p1678
asbasbasbag61
(g77
g63
NtRp1679
(dp1680
g66
(dp1681
sg75
g71
sg68
(lp1682
g61
(g82
g63
NtRp1683
(dp1684
g66
(dp1685
g86
g87
ssg75
g1679
sg68
(lp1686
S'get_vars'
p1687
asbag61
(g82
g63
NtRp1688
(dp1689
g66
(dp1690
g93
g94
ssg75
g1679
sg68
(lp1691
S':'
asbag61
(g82
g63
NtRp1692
(dp1693
g66
(dp1694
sg75
g1679
sg68
(lp1695
g61
(g62
g63
NtRp1696
(dp1697
g66
(dp1698
g74
I5
ssg75
g1692
sg68
(lp1699
g61
(g70
g63
NtRp1700
(dp1701
g66
(dp1702
g74
I4
ssg75
Nsg68
(lp1703
sbasbasbasbag61
(g77
g63
NtRp1704
(dp1705
g66
(dp1706
sg75
g71
sg68
(lp1707
g61
(g82
g63
NtRp1708
(dp1709
g66
(dp1710
g86
g87
ssg75
g1704
sg68
(lp1711
S'global_settings'
p1712
asbag61
(g82
g63
NtRp1713
(dp1714
g66
(dp1715
g93
g94
ssg75
g1704
sg68
(lp1716
S':'
asbag61
(g82
g63
NtRp1717
(dp1718
g66
(dp1719
sg75
g1704
sg68
(lp1720
g61
(g62
g63
NtRp1721
(dp1722
g66
(dp1723
g74
I5
ssg75
g1717
sg68
(lp1724
g61
(g70
g63
NtRp1725
(dp1726
g66
(dp1727
g74
I4
ssg75
Nsg68
(lp1728
g61
(g77
g63
NtRp1729
(dp1730
g66
(dp1731
sg75
g1725
sg68
(lp1732
g61
(g82
g63
NtRp1733
(dp1734
g66
(dp1735
g86
g87
ssg75
g1729
sg68
(lp1736
g612
asbag61
(g82
g63
NtRp1737
(dp1738
g66
(dp1739
g93
g94
ssg75
g1729
sg68
(lp1740
S':'
asbag61
(g82
g63
NtRp1741
(dp1742
g66
(dp1743
sg75
g1729
sg68
(lp1744
g61
(g62
g63
NtRp1745
(dp1746
g66
(dp1747
g74
I4
ssg75
g1741
sg68
(lp1748
S"set(['/Users/udimilo/Documents/web2py/applications/udi0312/', '/Users/udimilo/Documents/web2py/applications/admin/'])"
p1749
asbasbasbag61
(g77
g63
NtRp1750
(dp1751
g66
(dp1752
sg75
g1725
sg68
(lp1753
g61
(g82
g63
NtRp1754
(dp1755
g66
(dp1756
g86
g87
ssg75
g1750
sg68
(lp1757
g634
asbag61
(g82
g63
NtRp1758
(dp1759
g66
(dp1760
g93
g94
ssg75
g1750
sg68
(lp1761
S':'
asbag61
(g82
g63
NtRp1762
(dp1763
g66
(dp1764
sg75
g1750
sg68
(lp1765
g61
(g62
g63
NtRp1766
(dp1767
g66
(dp1768
g74
I4
ssg75
g1762
sg68
(lp1769
g647
asbasbasbag61
(g77
g63
NtRp1770
(dp1771
g66
(dp1772
sg75
g1725
sg68
(lp1773
g61
(g82
g63
NtRp1774
(dp1775
g66
(dp1776
g86
g87
ssg75
g1770
sg68
(lp1777
g656
asbag61
(g82
g63
NtRp1778
(dp1779
g66
(dp1780
g93
g94
ssg75
g1770
sg68
(lp1781
S':'
asbag61
(g82
g63
NtRp1782
(dp1783
g66
(dp1784
sg75
g1770
sg68
(lp1785
g61
(g62
g63
NtRp1786
(dp1787
g66
(dp1788
g74
I4
ssg75
g1782
sg68
(lp1789
g61
(g70
g63
NtRp1790
(dp1791
g66
(dp1792
g74
I3
ssg75
Nsg68
(lp1793
sbasbasbasbag61
(g77
g63
NtRp1794
(dp1795
g66
(dp1796
sg75
g1725
sg68
(lp1797
g61
(g82
g63
NtRp1798
(dp1799
g66
(dp1800
g86
g87
ssg75
g1794
sg68
(lp1801
g681
asbag61
(g82
g63
NtRp1802
(dp1803
g66
(dp1804
g93
g94
ssg75
g1794
sg68
(lp1805
S':'
asbag61
(g82
g63
NtRp1806
(dp1807
g66
(dp1808
sg75
g1794
sg68
(lp1809
g61
(g62
g63
NtRp1810
(dp1811
g66
(dp1812
g74
I4
ssg75
g1806
sg68
(lp1813
S"<Values at 0x23196e8: {'verbose': False, 'ip': '127.0.0.1', 'shutdown_timeout': 5, 'taskbar': False, 'nocron': False, 'pid_filename': 'httpserver.pid', 'maxthreads': None, 'softcron': False, 'server_name': 'Udi-Milos-MacBook-Pro.local', 'bpython': False, 'nogui': False, 'port': 8000, 'extcron': False, 'debuglevel': 30, 'test': None, 'folder': '/Users/udimilo/Documents/web2py', 'config': '', 'import_models': False, 'winservice': '', 'shell': None, 'run': '', 'log_filename': 'httpserver.log', 'args': [''], 'socket_timeout': 5, 'ssl_ca_certificate': None, 'scheduler': None, 'profiler_filename': None, 'ssl_private_key': '', 'password': '<ask>', 'request_queue_size': 5, 'ssl_certificate': '', 'cronjob': False, 'numthreads': None, 'quiet': False, 'interfaces': None, 'minthreads': None, 'timeout': 10, 'plain': False, 'nobanner': False}>"
p1814
asbasbasbag61
(g77
g63
NtRp1815
(dp1816
g66
(dp1817
sg75
g1725
sg68
(lp1818
g61
(g82
g63
NtRp1819
(dp1820
g66
(dp1821
g86
g87
ssg75
g1815
sg68
(lp1822
g703
asbag61
(g82
g63
NtRp1823
(dp1824
g66
(dp1825
g93
g94
ssg75
g1815
sg68
(lp1826
S':'
asbag61
(g82
g63
NtRp1827
(dp1828
g66
(dp1829
sg75
g1815
sg68
(lp1830
g61
(g62
g63
NtRp1831
(dp1832
g66
(dp1833
g74
I4
ssg75
g1827
sg68
(lp1834
S'set([])'
p1835
asbasbasbag61
(g77
g63
NtRp1836
(dp1837
g66
(dp1838
sg75
g1725
sg68
(lp1839
g61
(g82
g63
NtRp1840
(dp1841
g66
(dp1842
g86
g87
ssg75
g1836
sg68
(lp1843
g725
asbag61
(g82
g63
NtRp1844
(dp1845
g66
(dp1846
g93
g94
ssg75
g1836
sg68
(lp1847
S':'
asbag61
(g82
g63
NtRp1848
(dp1849
g66
(dp1850
sg75
g1836
sg68
(lp1851
g61
(g62
g63
NtRp1852
(dp1853
g66
(dp1854
g74
I4
ssg75
g1848
sg68
(lp1855
g104
asbasbasbag61
(g77
g63
NtRp1856
(dp1857
g66
(dp1858
sg75
g1725
sg68
(lp1859
g61
(g82
g63
NtRp1860
(dp1861
g66
(dp1862
g86
g87
ssg75
g1856
sg68
(lp1863
g746
asbag61
(g82
g63
NtRp1864
(dp1865
g66
(dp1866
g93
g94
ssg75
g1856
sg68
(lp1867
S':'
asbag61
(g82
g63
NtRp1868
(dp1869
g66
(dp1870
sg75
g1856
sg68
(lp1871
g61
(g62
g63
NtRp1872
(dp1873
g66
(dp1874
g74
I4
ssg75
g1868
sg68
(lp1875
g759
asbasbasbag61
(g77
g63
NtRp1876
(dp1877
g66
(dp1878
sg75
g1725
sg68
(lp1879
g61
(g82
g63
NtRp1880
(dp1881
g66
(dp1882
g86
g87
ssg75
g1876
sg68
(lp1883
g988
asbag61
(g82
g63
NtRp1884
(dp1885
g66
(dp1886
g93
g94
ssg75
g1876
sg68
(lp1887
S':'
asbag61
(g82
g63
NtRp1888
(dp1889
g66
(dp1890
sg75
g1876
sg68
(lp1891
g61
(g62
g63
NtRp1892
(dp1893
g66
(dp1894
g74
I4
ssg75
g1888
sg68
(lp1895
g104
asbasbasbag61
(g77
g63
NtRp1896
(dp1897
g66
(dp1898
sg75
g1725
sg68
(lp1899
g61
(g82
g63
NtRp1900
(dp1901
g66
(dp1902
g86
g87
ssg75
g1896
sg68
(lp1903
g1009
asbag61
(g82
g63
NtRp1904
(dp1905
g66
(dp1906
g93
g94
ssg75
g1896
sg68
(lp1907
S':'
asbag61
(g82
g63
NtRp1908
(dp1909
g66
(dp1910
sg75
g1896
sg68
(lp1911
g61
(g62
g63
NtRp1912
(dp1913
g66
(dp1914
g74
I4
ssg75
g1908
sg68
(lp1915
g104
asbasbasbag61
(g77
g63
NtRp1916
(dp1917
g66
(dp1918
sg75
g1725
sg68
(lp1919
g61
(g82
g63
NtRp1920
(dp1921
g66
(dp1922
g86
g87
ssg75
g1916
sg68
(lp1923
g1268
asbag61
(g82
g63
NtRp1924
(dp1925
g66
(dp1926
g93
g94
ssg75
g1916
sg68
(lp1927
S':'
asbag61
(g82
g63
NtRp1928
(dp1929
g66
(dp1930
sg75
g1916
sg68
(lp1931
g61
(g62
g63
NtRp1932
(dp1933
g66
(dp1934
g74
I4
ssg75
g1928
sg68
(lp1935
g1281
asbasbasbag61
(g77
g63
NtRp1936
(dp1937
g66
(dp1938
sg75
g1725
sg68
(lp1939
g61
(g82
g63
NtRp1940
(dp1941
g66
(dp1942
g86
g87
ssg75
g1936
sg68
(lp1943
g1332
asbag61
(g82
g63
NtRp1944
(dp1945
g66
(dp1946
g93
g94
ssg75
g1936
sg68
(lp1947
S':'
asbag61
(g82
g63
NtRp1948
(dp1949
g66
(dp1950
sg75
g1936
sg68
(lp1951
g61
(g62
g63
NtRp1952
(dp1953
g66
(dp1954
g74
I4
ssg75
g1948
sg68
(lp1955
g61
(g70
g63
NtRp1956
(dp1957
g66
(dp1958
g74
I3
ssg75
Nsg68
(lp1959
g61
(g77
g63
NtRp1960
(dp1961
g66
(dp1962
sg75
g1956
sg68
(lp1963
g61
(g82
g63
NtRp1964
(dp1965
g66
(dp1966
sg75
g1960
sg68
(lp1967
g61
(g62
g63
NtRp1968
(dp1969
g66
(dp1970
g74
I3
ssg75
g1964
sg68
(lp1971
S'1'
asbasbasbag61
(g77
g63
NtRp1972
(dp1973
g66
(dp1974
sg75
g1956
sg68
(lp1975
g61
(g82
g63
NtRp1976
(dp1977
g66
(dp1978
sg75
g1972
sg68
(lp1979
g61
(g62
g63
NtRp1980
(dp1981
g66
(dp1982
g74
I3
ssg75
g1976
sg68
(lp1983
S'99'
p1984
asbasbasbag61
(g77
g63
NtRp1985
(dp1986
g66
(dp1987
sg75
g1956
sg68
(lp1988
g61
(g82
g63
NtRp1989
(dp1990
g66
(dp1991
sg75
g1985
sg68
(lp1992
g61
(g62
g63
NtRp1993
(dp1994
g66
(dp1995
g74
I3
ssg75
g1989
sg68
(lp1996
S'7'
asbasbasbag61
(g77
g63
NtRp1997
(dp1998
g66
(dp1999
sg75
g1956
sg68
(lp2000
g61
(g82
g63
NtRp2001
(dp2002
g66
(dp2003
sg75
g1997
sg68
(lp2004
g61
(g62
g63
NtRp2005
(dp2006
g66
(dp2007
g74
I3
ssg75
g2001
sg68
(lp2008
S'datetime.datetime(2012, 3, 4, 22, 12, 8)'
p2009
asbasbasbag61
(g77
g63
NtRp2010
(dp2011
g66
(dp2012
sg75
g1956
sg68
(lp2013
g61
(g82
g63
NtRp2014
(dp2015
g66
(dp2016
sg75
g2010
sg68
(lp2017
g61
(g62
g63
NtRp2018
(dp2019
g66
(dp2020
g74
I3
ssg75
g2014
sg68
(lp2021
g1411
asbasbasbasbasbasbasbasbasbasbasbag61
(g77
g63
NtRp2022
(dp2023
g66
(dp2024
sg75
g71
sg68
(lp2025
g61
(g82
g63
NtRp2026
(dp2027
g66
(dp2028
g86
g87
ssg75
g2022
sg68
(lp2029
S'is_https'
p2030
asbag61
(g82
g63
NtRp2031
(dp2032
g66
(dp2033
g93
g94
ssg75
g2022
sg68
(lp2034
S':'
asbag61
(g82
g63
NtRp2035
(dp2036
g66
(dp2037
sg75
g2022
sg68
(lp2038
g61
(g62
g63
NtRp2039
(dp2040
g66
(dp2041
g74
I5
ssg75
g2035
sg68
(lp2042
g104
asbasbasbag61
(g77
g63
NtRp2043
(dp2044
g66
(dp2045
sg75
g71
sg68
(lp2046
g61
(g82
g63
NtRp2047
(dp2048
g66
(dp2049
g86
g87
ssg75
g2043
sg68
(lp2050
S'is_local'
p2051
asbag61
(g82
g63
NtRp2052
(dp2053
g66
(dp2054
g93
g94
ssg75
g2043
sg68
(lp2055
S':'
asbag61
(g82
g63
NtRp2056
(dp2057
g66
(dp2058
sg75
g2043
sg68
(lp2059
g61
(g62
g63
NtRp2060
(dp2061
g66
(dp2062
g74
I5
ssg75
g2056
sg68
(lp2063
g1520
asbasbasbag61
(g77
g63
NtRp2064
(dp2065
g66
(dp2066
sg75
g71
sg68
(lp2067
g61
(g82
g63
NtRp2068
(dp2069
g66
(dp2070
g86
g87
ssg75
g2064
sg68
(lp2071
S'is_restful'
p2072
asbag61
(g82
g63
NtRp2073
(dp2074
g66
(dp2075
g93
g94
ssg75
g2064
sg68
(lp2076
S':'
asbag61
(g82
g63
NtRp2077
(dp2078
g66
(dp2079
sg75
g2064
sg68
(lp2080
g61
(g62
g63
NtRp2081
(dp2082
g66
(dp2083
g74
I5
ssg75
g2077
sg68
(lp2084
g104
asbasbasbag61
(g77
g63
NtRp2085
(dp2086
g66
(dp2087
sg75
g71
sg68
(lp2088
g61
(g82
g63
NtRp2089
(dp2090
g66
(dp2091
g86
g87
ssg75
g2085
sg68
(lp2092
S'now'
p2093
asbag61
(g82
g63
NtRp2094
(dp2095
g66
(dp2096
g93
g94
ssg75
g2085
sg68
(lp2097
S':'
asbag61
(g82
g63
NtRp2098
(dp2099
g66
(dp2100
sg75
g2085
sg68
(lp2101
g61
(g62
g63
NtRp2102
(dp2103
g66
(dp2104
g74
I5
ssg75
g2098
sg68
(lp2105
S'datetime.datetime(2012, 3, 19, 20, 38, 23, 811914)'
p2106
asbasbasbag61
(g77
g63
NtRp2107
(dp2108
g66
(dp2109
sg75
g71
sg68
(lp2110
g61
(g82
g63
NtRp2111
(dp2112
g66
(dp2113
g86
g87
ssg75
g2107
sg68
(lp2114
S'post_vars'
p2115
asbag61
(g82
g63
NtRp2116
(dp2117
g66
(dp2118
g93
g94
ssg75
g2107
sg68
(lp2119
S':'
asbag61
(g82
g63
NtRp2120
(dp2121
g66
(dp2122
sg75
g2107
sg68
(lp2123
g61
(g62
g63
NtRp2124
(dp2125
g66
(dp2126
g74
I5
ssg75
g2120
sg68
(lp2127
g61
(g70
g63
NtRp2128
(dp2129
g66
(dp2130
g74
I4
ssg75
Nsg68
(lp2131
sbasbasbasbag61
(g77
g63
NtRp2132
(dp2133
g66
(dp2134
sg75
g71
sg68
(lp2135
g61
(g82
g63
NtRp2136
(dp2137
g66
(dp2138
g86
g87
ssg75
g2132
sg68
(lp2139
S'url'
p2140
asbag61
(g82
g63
NtRp2141
(dp2142
g66
(dp2143
g93
g94
ssg75
g2132
sg68
(lp2144
S':'
asbag61
(g82
g63
NtRp2145
(dp2146
g66
(dp2147
sg75
g2132
sg68
(lp2148
g61
(g62
g63
NtRp2149
(dp2150
g66
(dp2151
g74
I5
ssg75
g2145
sg68
(lp2152
S'/'
asbasbasbag61
(g77
g63
NtRp2153
(dp2154
g66
(dp2155
sg75
g71
sg68
(lp2156
g61
(g82
g63
NtRp2157
(dp2158
g66
(dp2159
g86
g87
ssg75
g2153
sg68
(lp2160
S'utcnow'
p2161
asbag61
(g82
g63
NtRp2162
(dp2163
g66
(dp2164
g93
g94
ssg75
g2153
sg68
(lp2165
S':'
asbag61
(g82
g63
NtRp2166
(dp2167
g66
(dp2168
sg75
g2153
sg68
(lp2169
g61
(g62
g63
NtRp2170
(dp2171
g66
(dp2172
g74
I5
ssg75
g2166
sg68
(lp2173
S'datetime.datetime(2012, 3, 20, 0, 38, 23, 811927)'
p2174
asbasbasbag61
(g77
g63
NtRp2175
(dp2176
g66
(dp2177
sg75
g71
sg68
(lp2178
g61
(g82
g63
NtRp2179
(dp2180
g66
(dp2181
g86
g87
ssg75
g2175
sg68
(lp2182
S'uuid'
p2183
asbag61
(g82
g63
NtRp2184
(dp2185
g66
(dp2186
g93
g94
ssg75
g2175
sg68
(lp2187
S':'
asbag61
(g82
g63
NtRp2188
(dp2189
g66
(dp2190
sg75
g2175
sg68
(lp2191
g61
(g62
g63
NtRp2192
(dp2193
g66
(dp2194
g74
I5
ssg75
g2188
sg68
(lp2195
S'udi0312/127.0.0.1.2012-03-19.20-38-23.b39d79d0-f1f4-47fe-8cac-3f599bfc18c7'
p2196
asbasbasbag61
(g77
g63
NtRp2197
(dp2198
g66
(dp2199
sg75
g71
sg68
(lp2200
g61
(g82
g63
NtRp2201
(dp2202
g66
(dp2203
g86
g87
ssg75
g2197
sg68
(lp2204
S'vars'
p2205
asbag61
(g82
g63
NtRp2206
(dp2207
g66
(dp2208
g93
g94
ssg75
g2197
sg68
(lp2209
S':'
asbag61
(g82
g63
NtRp2210
(dp2211
g66
(dp2212
sg75
g2197
sg68
(lp2213
g61
(g62
g63
NtRp2214
(dp2215
g66
(dp2216
g74
I5
ssg75
g2210
sg68
(lp2217
g61
(g70
g63
NtRp2218
(dp2219
g66
(dp2220
g74
I4
ssg75
Nsg68
(lp2221
sbasbasbasbag61
(g77
g63
NtRp2222
(dp2223
g66
(dp2224
sg75
g71
sg68
(lp2225
g61
(g82
g63
NtRp2226
(dp2227
g66
(dp2228
g86
g87
ssg75
g2222
sg68
(lp2229
S'wsgi'
p2230
asbag61
(g82
g63
NtRp2231
(dp2232
g66
(dp2233
g93
g94
ssg75
g2222
sg68
(lp2234
S':'
asbag61
(g82
g63
NtRp2235
(dp2236
g66
(dp2237
sg75
g2222
sg68
(lp2238
g61
(g62
g63
NtRp2239
(dp2240
g66
(dp2241
g74
I5
ssg75
g2235
sg68
(lp2242
g61
(g70
g63
NtRp2243
(dp2244
g66
(dp2245
g74
I4
ssg75
Nsg68
(lp2246
g61
(g77
g63
NtRp2247
(dp2248
g66
(dp2249
sg75
g2243
sg68
(lp2250
g61
(g82
g63
NtRp2251
(dp2252
g66
(dp2253
g86
g87
ssg75
g2247
sg68
(lp2254
S'environ'
p2255
asbag61
(g82
g63
NtRp2256
(dp2257
g66
(dp2258
g93
g94
ssg75
g2247
sg68
(lp2259
S':'
asbag61
(g82
g63
NtRp2260
(dp2261
g66
(dp2262
sg75
g2247
sg68
(lp2263
g61
(g62
g63
NtRp2264
(dp2265
g66
(dp2266
g74
I4
ssg75
g2260
sg68
(lp2267
g61
(g70
g63
NtRp2268
(dp2269
g66
(dp2270
g74
I3
ssg75
Nsg68
(lp2271
g61
(g77
g63
NtRp2272
(dp2273
g66
(dp2274
sg75
g2268
sg68
(lp2275
g61
(g82
g63
NtRp2276
(dp2277
g66
(dp2278
g86
g87
ssg75
g2272
sg68
(lp2279
S'HTTP_ACCEPT'
p2280
asbag61
(g82
g63
NtRp2281
(dp2282
g66
(dp2283
g93
g94
ssg75
g2272
sg68
(lp2284
S':'
asbag61
(g82
g63
NtRp2285
(dp2286
g66
(dp2287
sg75
g2272
sg68
(lp2288
g61
(g62
g63
NtRp2289
(dp2290
g66
(dp2291
g74
I3
ssg75
g2285
sg68
(lp2292
g781
asbasbasbag61
(g77
g63
NtRp2293
(dp2294
g66
(dp2295
sg75
g2268
sg68
(lp2296
g61
(g82
g63
NtRp2297
(dp2298
g66
(dp2299
g86
g87
ssg75
g2293
sg68
(lp2300
S'HTTP_ACCEPT_CHARSET'
p2301
asbag61
(g82
g63
NtRp2302
(dp2303
g66
(dp2304
g93
g94
ssg75
g2293
sg68
(lp2305
S':'
asbag61
(g82
g63
NtRp2306
(dp2307
g66
(dp2308
sg75
g2293
sg68
(lp2309
g61
(g62
g63
NtRp2310
(dp2311
g66
(dp2312
g74
I3
ssg75
g2306
sg68
(lp2313
g803
asbasbasbag61
(g77
g63
NtRp2314
(dp2315
g66
(dp2316
sg75
g2268
sg68
(lp2317
g61
(g82
g63
NtRp2318
(dp2319
g66
(dp2320
g86
g87
ssg75
g2314
sg68
(lp2321
S'HTTP_ACCEPT_ENCODING'
p2322
asbag61
(g82
g63
NtRp2323
(dp2324
g66
(dp2325
g93
g94
ssg75
g2314
sg68
(lp2326
S':'
asbag61
(g82
g63
NtRp2327
(dp2328
g66
(dp2329
sg75
g2314
sg68
(lp2330
g61
(g62
g63
NtRp2331
(dp2332
g66
(dp2333
g74
I3
ssg75
g2327
sg68
(lp2334
g825
asbasbasbag61
(g77
g63
NtRp2335
(dp2336
g66
(dp2337
sg75
g2268
sg68
(lp2338
g61
(g82
g63
NtRp2339
(dp2340
g66
(dp2341
g86
g87
ssg75
g2335
sg68
(lp2342
S'HTTP_ACCEPT_LANGUAGE'
p2343
asbag61
(g82
g63
NtRp2344
(dp2345
g66
(dp2346
g93
g94
ssg75
g2335
sg68
(lp2347
S':'
asbag61
(g82
g63
NtRp2348
(dp2349
g66
(dp2350
sg75
g2335
sg68
(lp2351
g61
(g62
g63
NtRp2352
(dp2353
g66
(dp2354
g74
I3
ssg75
g2348
sg68
(lp2355
g847
asbasbasbag61
(g77
g63
NtRp2356
(dp2357
g66
(dp2358
sg75
g2268
sg68
(lp2359
g61
(g82
g63
NtRp2360
(dp2361
g66
(dp2362
g86
g87
ssg75
g2356
sg68
(lp2363
S'HTTP_CACHE_CONTROL'
p2364
asbag61
(g82
g63
NtRp2365
(dp2366
g66
(dp2367
g93
g94
ssg75
g2356
sg68
(lp2368
S':'
asbag61
(g82
g63
NtRp2369
(dp2370
g66
(dp2371
sg75
g2356
sg68
(lp2372
g61
(g62
g63
NtRp2373
(dp2374
g66
(dp2375
g74
I3
ssg75
g2369
sg68
(lp2376
g869
asbasbasbag61
(g77
g63
NtRp2377
(dp2378
g66
(dp2379
sg75
g2268
sg68
(lp2380
g61
(g82
g63
NtRp2381
(dp2382
g66
(dp2383
g86
g87
ssg75
g2377
sg68
(lp2384
S'HTTP_CONNECTION'
p2385
asbag61
(g82
g63
NtRp2386
(dp2387
g66
(dp2388
g93
g94
ssg75
g2377
sg68
(lp2389
S':'
asbag61
(g82
g63
NtRp2390
(dp2391
g66
(dp2392
sg75
g2377
sg68
(lp2393
g61
(g62
g63
NtRp2394
(dp2395
g66
(dp2396
g74
I3
ssg75
g2390
sg68
(lp2397
g891
asbasbasbag61
(g77
g63
NtRp2398
(dp2399
g66
(dp2400
sg75
g2268
sg68
(lp2401
g61
(g82
g63
NtRp2402
(dp2403
g66
(dp2404
g86
g87
ssg75
g2398
sg68
(lp2405
S'HTTP_COOKIE'
p2406
asbag61
(g82
g63
NtRp2407
(dp2408
g66
(dp2409
g93
g94
ssg75
g2398
sg68
(lp2410
S':'
asbag61
(g82
g63
NtRp2411
(dp2412
g66
(dp2413
sg75
g2398
sg68
(lp2414
g61
(g62
g63
NtRp2415
(dp2416
g66
(dp2417
g74
I3
ssg75
g2411
sg68
(lp2418
g913
asbasbasbag61
(g77
g63
NtRp2419
(dp2420
g66
(dp2421
sg75
g2268
sg68
(lp2422
g61
(g82
g63
NtRp2423
(dp2424
g66
(dp2425
g86
g87
ssg75
g2419
sg68
(lp2426
S'HTTP_HOST'
p2427
asbag61
(g82
g63
NtRp2428
(dp2429
g66
(dp2430
g93
g94
ssg75
g2419
sg68
(lp2431
S':'
asbag61
(g82
g63
NtRp2432
(dp2433
g66
(dp2434
sg75
g2419
sg68
(lp2435
g61
(g62
g63
NtRp2436
(dp2437
g66
(dp2438
g74
I3
ssg75
g2432
sg68
(lp2439
g935
asbasbasbag61
(g77
g63
NtRp2440
(dp2441
g66
(dp2442
sg75
g2268
sg68
(lp2443
g61
(g82
g63
NtRp2444
(dp2445
g66
(dp2446
g86
g87
ssg75
g2440
sg68
(lp2447
S'HTTP_REFERER'
p2448
asbag61
(g82
g63
NtRp2449
(dp2450
g66
(dp2451
g93
g94
ssg75
g2440
sg68
(lp2452
S':'
asbag61
(g82
g63
NtRp2453
(dp2454
g66
(dp2455
sg75
g2440
sg68
(lp2456
g61
(g62
g63
NtRp2457
(dp2458
g66
(dp2459
g74
I3
ssg75
g2453
sg68
(lp2460
g957
asbasbasbag61
(g77
g63
NtRp2461
(dp2462
g66
(dp2463
sg75
g2268
sg68
(lp2464
g61
(g82
g63
NtRp2465
(dp2466
g66
(dp2467
g86
g87
ssg75
g2461
sg68
(lp2468
S'HTTP_USER_AGENT'
p2469
asbag61
(g82
g63
NtRp2470
(dp2471
g66
(dp2472
g93
g94
ssg75
g2461
sg68
(lp2473
S':'
asbag61
(g82
g63
NtRp2474
(dp2475
g66
(dp2476
sg75
g2461
sg68
(lp2477
g61
(g62
g63
NtRp2478
(dp2479
g66
(dp2480
g74
I3
ssg75
g2474
sg68
(lp2481
g979
asbasbasbag61
(g77
g63
NtRp2482
(dp2483
g66
(dp2484
sg75
g2268
sg68
(lp2485
g61
(g82
g63
NtRp2486
(dp2487
g66
(dp2488
g86
g87
ssg75
g2482
sg68
(lp2489
S'PATH_INFO'
p2490
asbag61
(g82
g63
NtRp2491
(dp2492
g66
(dp2493
g93
g94
ssg75
g2482
sg68
(lp2494
S':'
asbag61
(g82
g63
NtRp2495
(dp2496
g66
(dp2497
sg75
g2482
sg68
(lp2498
g61
(g62
g63
NtRp2499
(dp2500
g66
(dp2501
g74
I3
ssg75
g2495
sg68
(lp2502
S'/'
asbasbasbag61
(g77
g63
NtRp2503
(dp2504
g66
(dp2505
sg75
g2268
sg68
(lp2506
g61
(g82
g63
NtRp2507
(dp2508
g66
(dp2509
g86
g87
ssg75
g2503
sg68
(lp2510
S'QUERY_STRING'
p2511
asbag61
(g82
g63
NtRp2512
(dp2513
g66
(dp2514
g93
g94
ssg75
g2503
sg68
(lp2515
S':'
asbag61
(g82
g63
NtRp2516
(dp2517
g66
(dp2518
sg75
g2503
sg68
(lp2519
g61
(g62
g63
NtRp2520
(dp2521
g66
(dp2522
g74
I3
ssg75
g2516
sg68
(lp2523
S''
asbasbasbag61
(g77
g63
NtRp2524
(dp2525
g66
(dp2526
sg75
g2268
sg68
(lp2527
g61
(g82
g63
NtRp2528
(dp2529
g66
(dp2530
g86
g87
ssg75
g2524
sg68
(lp2531
S'REMOTE_ADDR'
p2532
asbag61
(g82
g63
NtRp2533
(dp2534
g66
(dp2535
g93
g94
ssg75
g2524
sg68
(lp2536
S':'
asbag61
(g82
g63
NtRp2537
(dp2538
g66
(dp2539
sg75
g2524
sg68
(lp2540
g61
(g62
g63
NtRp2541
(dp2542
g66
(dp2543
g74
I3
ssg75
g2537
sg68
(lp2544
g194
asbasbasbag61
(g77
g63
NtRp2545
(dp2546
g66
(dp2547
sg75
g2268
sg68
(lp2548
g61
(g82
g63
NtRp2549
(dp2550
g66
(dp2551
g86
g87
ssg75
g2545
sg68
(lp2552
S'REMOTE_PORT'
p2553
asbag61
(g82
g63
NtRp2554
(dp2555
g66
(dp2556
g93
g94
ssg75
g2545
sg68
(lp2557
S':'
asbag61
(g82
g63
NtRp2558
(dp2559
g66
(dp2560
sg75
g2545
sg68
(lp2561
g61
(g62
g63
NtRp2562
(dp2563
g66
(dp2564
g74
I3
ssg75
g2558
sg68
(lp2565
g1106
asbasbasbag61
(g77
g63
NtRp2566
(dp2567
g66
(dp2568
sg75
g2268
sg68
(lp2569
g61
(g82
g63
NtRp2570
(dp2571
g66
(dp2572
g86
g87
ssg75
g2566
sg68
(lp2573
S'REQUEST_METHOD'
p2574
asbag61
(g82
g63
NtRp2575
(dp2576
g66
(dp2577
g93
g94
ssg75
g2566
sg68
(lp2578
S':'
asbag61
(g82
g63
NtRp2579
(dp2580
g66
(dp2581
sg75
g2566
sg68
(lp2582
g61
(g62
g63
NtRp2583
(dp2584
g66
(dp2585
g74
I3
ssg75
g2579
sg68
(lp2586
g1128
asbasbasbag61
(g77
g63
NtRp2587
(dp2588
g66
(dp2589
sg75
g2268
sg68
(lp2590
g61
(g82
g63
NtRp2591
(dp2592
g66
(dp2593
g86
g87
ssg75
g2587
sg68
(lp2594
S'REQUEST_URI'
p2595
asbag61
(g82
g63
NtRp2596
(dp2597
g66
(dp2598
g93
g94
ssg75
g2587
sg68
(lp2599
S':'
asbag61
(g82
g63
NtRp2600
(dp2601
g66
(dp2602
sg75
g2587
sg68
(lp2603
g61
(g62
g63
NtRp2604
(dp2605
g66
(dp2606
g74
I3
ssg75
g2600
sg68
(lp2607
g1150
asbasbasbag61
(g77
g63
NtRp2608
(dp2609
g66
(dp2610
sg75
g2268
sg68
(lp2611
g61
(g82
g63
NtRp2612
(dp2613
g66
(dp2614
g86
g87
ssg75
g2608
sg68
(lp2615
S'SCRIPT_NAME'
p2616
asbag61
(g82
g63
NtRp2617
(dp2618
g66
(dp2619
g93
g94
ssg75
g2608
sg68
(lp2620
S':'
asbag61
(g82
g63
NtRp2621
(dp2622
g66
(dp2623
sg75
g2608
sg68
(lp2624
g61
(g62
g63
NtRp2625
(dp2626
g66
(dp2627
g74
I3
ssg75
g2621
sg68
(lp2628
S''
asbasbasbag61
(g77
g63
NtRp2629
(dp2630
g66
(dp2631
sg75
g2268
sg68
(lp2632
g61
(g82
g63
NtRp2633
(dp2634
g66
(dp2635
g86
g87
ssg75
g2629
sg68
(lp2636
S'SERVER_NAME'
p2637
asbag61
(g82
g63
NtRp2638
(dp2639
g66
(dp2640
g93
g94
ssg75
g2629
sg68
(lp2641
S':'
asbag61
(g82
g63
NtRp2642
(dp2643
g66
(dp2644
sg75
g2629
sg68
(lp2645
g61
(g62
g63
NtRp2646
(dp2647
g66
(dp2648
g74
I3
ssg75
g2642
sg68
(lp2649
g1193
asbasbasbag61
(g77
g63
NtRp2650
(dp2651
g66
(dp2652
sg75
g2268
sg68
(lp2653
g61
(g82
g63
NtRp2654
(dp2655
g66
(dp2656
g86
g87
ssg75
g2650
sg68
(lp2657
S'SERVER_PORT'
p2658
asbag61
(g82
g63
NtRp2659
(dp2660
g66
(dp2661
g93
g94
ssg75
g2650
sg68
(lp2662
S':'
asbag61
(g82
g63
NtRp2663
(dp2664
g66
(dp2665
sg75
g2650
sg68
(lp2666
g61
(g62
g63
NtRp2667
(dp2668
g66
(dp2669
g74
I3
ssg75
g2663
sg68
(lp2670
g1215
asbasbasbag61
(g77
g63
NtRp2671
(dp2672
g66
(dp2673
sg75
g2268
sg68
(lp2674
g61
(g82
g63
NtRp2675
(dp2676
g66
(dp2677
g86
g87
ssg75
g2671
sg68
(lp2678
S'SERVER_PROTOCOL'
p2679
asbag61
(g82
g63
NtRp2680
(dp2681
g66
(dp2682
g93
g94
ssg75
g2671
sg68
(lp2683
S':'
asbag61
(g82
g63
NtRp2684
(dp2685
g66
(dp2686
sg75
g2671
sg68
(lp2687
g61
(g62
g63
NtRp2688
(dp2689
g66
(dp2690
g74
I3
ssg75
g2684
sg68
(lp2691
g1237
asbasbasbag61
(g77
g63
NtRp2692
(dp2693
g66
(dp2694
sg75
g2268
sg68
(lp2695
g61
(g82
g63
NtRp2696
(dp2697
g66
(dp2698
g86
g87
ssg75
g2692
sg68
(lp2699
S'SERVER_SOFTWARE'
p2700
asbag61
(g82
g63
NtRp2701
(dp2702
g66
(dp2703
g93
g94
ssg75
g2692
sg68
(lp2704
S':'
asbag61
(g82
g63
NtRp2705
(dp2706
g66
(dp2707
sg75
g2692
sg68
(lp2708
g61
(g62
g63
NtRp2709
(dp2710
g66
(dp2711
g74
I3
ssg75
g2705
sg68
(lp2712
g1259
asbasbasbag61
(g77
g63
NtRp2713
(dp2714
g66
(dp2715
sg75
g2268
sg68
(lp2716
g61
(g82
g63
NtRp2717
(dp2718
g66
(dp2719
g86
g87
ssg75
g2713
sg68
(lp2720
S'WEB2PY_ORIGINAL_URI'
p2721
asbag61
(g82
g63
NtRp2722
(dp2723
g66
(dp2724
g93
g94
ssg75
g2713
sg68
(lp2725
S':'
asbag61
(g82
g63
NtRp2726
(dp2727
g66
(dp2728
sg75
g2713
sg68
(lp2729
g61
(g62
g63
NtRp2730
(dp2731
g66
(dp2732
g74
I3
ssg75
g2726
sg68
(lp2733
S'/'
asbasbasbag61
(g77
g63
NtRp2734
(dp2735
g66
(dp2736
sg75
g2268
sg68
(lp2737
g61
(g82
g63
NtRp2738
(dp2739
g66
(dp2740
g86
g87
ssg75
g2734
sg68
(lp2741
S'wsgi.errors'
p2742
asbag61
(g82
g63
NtRp2743
(dp2744
g66
(dp2745
g93
g94
ssg75
g2734
sg68
(lp2746
S':'
asbag61
(g82
g63
NtRp2747
(dp2748
g66
(dp2749
sg75
g2734
sg68
(lp2750
g61
(g62
g63
NtRp2751
(dp2752
g66
(dp2753
g74
I3
ssg75
g2747
sg68
(lp2754
S"<open file '<stderr>', mode 'w' at 0x4220b0>"
p2755
asbasbasbag61
(g77
g63
NtRp2756
(dp2757
g66
(dp2758
sg75
g2268
sg68
(lp2759
g61
(g82
g63
NtRp2760
(dp2761
g66
(dp2762
g86
g87
ssg75
g2756
sg68
(lp2763
S'wsgi.file_wrapper'
p2764
asbag61
(g82
g63
NtRp2765
(dp2766
g66
(dp2767
g93
g94
ssg75
g2756
sg68
(lp2768
S':'
asbag61
(g82
g63
NtRp2769
(dp2770
g66
(dp2771
sg75
g2756
sg68
(lp2772
g61
(g62
g63
NtRp2773
(dp2774
g66
(dp2775
g74
I3
ssg75
g2769
sg68
(lp2776
S'<class wsgiref.util.FileWrapper at 0x225e6c0>'
p2777
asbasbasbag61
(g77
g63
NtRp2778
(dp2779
g66
(dp2780
sg75
g2268
sg68
(lp2781
g61
(g82
g63
NtRp2782
(dp2783
g66
(dp2784
g86
g87
ssg75
g2778
sg68
(lp2785
S'wsgi.input'
p2786
asbag61
(g82
g63
NtRp2787
(dp2788
g66
(dp2789
g93
g94
ssg75
g2778
sg68
(lp2790
S':'
asbag61
(g82
g63
NtRp2791
(dp2792
g66
(dp2793
sg75
g2778
sg68
(lp2794
g61
(g62
g63
NtRp2795
(dp2796
g66
(dp2797
g74
I3
ssg75
g2791
sg68
(lp2798
S'<cStringIO.StringO object at 0xa8a5700>'
p2799
asbasbasbag61
(g77
g63
NtRp2800
(dp2801
g66
(dp2802
sg75
g2268
sg68
(lp2803
g61
(g82
g63
NtRp2804
(dp2805
g66
(dp2806
g86
g87
ssg75
g2800
sg68
(lp2807
S'wsgi.multiprocess'
p2808
asbag61
(g82
g63
NtRp2809
(dp2810
g66
(dp2811
g93
g94
ssg75
g2800
sg68
(lp2812
S':'
asbag61
(g82
g63
NtRp2813
(dp2814
g66
(dp2815
sg75
g2800
sg68
(lp2816
g61
(g62
g63
NtRp2817
(dp2818
g66
(dp2819
g74
I3
ssg75
g2813
sg68
(lp2820
g104
asbasbasbag61
(g77
g63
NtRp2821
(dp2822
g66
(dp2823
sg75
g2268
sg68
(lp2824
g61
(g82
g63
NtRp2825
(dp2826
g66
(dp2827
g86
g87
ssg75
g2821
sg68
(lp2828
S'wsgi.multithread'
p2829
asbag61
(g82
g63
NtRp2830
(dp2831
g66
(dp2832
g93
g94
ssg75
g2821
sg68
(lp2833
S':'
asbag61
(g82
g63
NtRp2834
(dp2835
g66
(dp2836
sg75
g2821
sg68
(lp2837
g61
(g62
g63
NtRp2838
(dp2839
g66
(dp2840
g74
I3
ssg75
g2834
sg68
(lp2841
g1520
asbasbasbag61
(g77
g63
NtRp2842
(dp2843
g66
(dp2844
sg75
g2268
sg68
(lp2845
g61
(g82
g63
NtRp2846
(dp2847
g66
(dp2848
g86
g87
ssg75
g2842
sg68
(lp2849
S'wsgi.run_once'
p2850
asbag61
(g82
g63
NtRp2851
(dp2852
g66
(dp2853
g93
g94
ssg75
g2842
sg68
(lp2854
S':'
asbag61
(g82
g63
NtRp2855
(dp2856
g66
(dp2857
sg75
g2842
sg68
(lp2858
g61
(g62
g63
NtRp2859
(dp2860
g66
(dp2861
g74
I3
ssg75
g2855
sg68
(lp2862
g104
asbasbasbag61
(g77
g63
NtRp2863
(dp2864
g66
(dp2865
sg75
g2268
sg68
(lp2866
g61
(g82
g63
NtRp2867
(dp2868
g66
(dp2869
g86
g87
ssg75
g2863
sg68
(lp2870
S'wsgi.url_scheme'
p2871
asbag61
(g82
g63
NtRp2872
(dp2873
g66
(dp2874
g93
g94
ssg75
g2863
sg68
(lp2875
S':'
asbag61
(g82
g63
NtRp2876
(dp2877
g66
(dp2878
sg75
g2863
sg68
(lp2879
g61
(g62
g63
NtRp2880
(dp2881
g66
(dp2882
g74
I3
ssg75
g2876
sg68
(lp2883
g1563
asbasbasbag61
(g77
g63
NtRp2884
(dp2885
g66
(dp2886
sg75
g2268
sg68
(lp2887
g61
(g82
g63
NtRp2888
(dp2889
g66
(dp2890
g86
g87
ssg75
g2884
sg68
(lp2891
S'wsgi.version'
p2892
asbag61
(g82
g63
NtRp2893
(dp2894
g66
(dp2895
g93
g94
ssg75
g2884
sg68
(lp2896
S':'
asbag61
(g82
g63
NtRp2897
(dp2898
g66
(dp2899
sg75
g2884
sg68
(lp2900
g61
(g62
g63
NtRp2901
(dp2902
g66
(dp2903
g74
I3
ssg75
g2897
sg68
(lp2904
S'1'
asbasbasbasbasbasbasbasbasbasbasbasbasbsS'frames'
p2905
(lp2906
(dp2907
S'file'
p2908
S'/users/udimilo/Documents/web2py/gluon/restricted.py'
p2909
sS'dump'
p2910
(dp2911
S'code'
p2912
S'\'response.write(\\\'<html lan="en">\\\\n<head>\\\\n    <ti...js"></script>\\\\n</body>\\\\n</html>\\\\n\\\', escape=False)\''
p2913
sS'layer'
p2914
S"'/Users/udimilo/Documents/web2py/applications/udi0312/views/default/index.html'"
p2915
sS'global compile2'
p2916
S'<function compile2 at 0x21e1cf0>'
p2917
sS'ccode'
p2918
S'undefined'
p2919
ssS'lnum'
p2920
I204
sS'lines'
p2921
(dp2922
I199
S"    environment['__name__'] = '__restricted__'"
p2923
sI200
S'    try:'
p2924
sI201
S'        if type(code) == types.CodeType:'
p2925
sI202
S'            ccode = code'
p2926
sI203
S'        else:'
p2927
sI204
S'            ccode = compile2(code,layer)'
p2928
sI205
S'        exec ccode in environment'
p2929
sI206
S'    except HTTP:'
p2930
sI207
S'        raise'
p2931
sI208
S'    except RestrictedError:'
p2932
ssS'call'
p2933
S'(code=\'response.write(\\\'<html lan="en">\\\\n<head>\\\\n    <ti...js"></script>\\\\n</body>\\\\n</html>\\\\n\\\', escape=False)\', environment={\'A\': <class \'gluon.html.A\'>, \'Auth\': <class \'gluon.tools.Auth\'>, \'B\': <class \'gluon.html.B\'>, \'BEAUTIFY\': <class \'gluon.html.BEAUTIFY\'>, \'BODY\': <class \'gluon.html.BODY\'>, \'BR\': <class \'gluon.html.BR\'>, \'BUTTON\': <class \'gluon.html.BUTTON\'>, \'CAT\': <class \'gluon.html.CAT\'>, \'CENTER\': <class \'gluon.html.CENTER\'>, \'CLEANUP\': <class \'gluon.validators.CLEANUP\'>, ...}, layer=\'/Users/udimilo/Documents/web2py/applications/udi0312/views/default/index.html\')'
p2934
sS'func'
p2935
S'restricted'
p2936
sa(dp2937
g2908
S'/users/udimilo/Documents/web2py/gluon/restricted.py'
p2938
sg2910
(dp2939
S'builtincompile'
p2940
S'<built-in function compile>'
p2941
sS'code'
p2942
S'\'response.write(\\\'<html lan="en">\\\\n<head>\\\\n    <ti...js"></script>\\\\n</body>\\\\n</html>\\\\n\\\', escape=False)\''
p2943
sS'code.rstrip'
p2944
S'<built-in method rstrip of str object at 0x1f79800>'
p2945
sS').replace'
p2946
g2919
sS'layer'
p2947
S"'/Users/udimilo/Documents/web2py/applications/udi0312/views/default/index.html'"
p2948
ssg2920
I189
sg2921
(dp2949
I192
S'    """'
p2950
sI193
S'    runs code in environment and returns the output. if an exception occurs'
p2951
sI184
S''
sI185
S'def compile2(code,layer):'
p2952
sI186
S'    """'
p2953
sI187
S"    The +'\\n' is necessary else compile fails when code ends in a comment."
p2954
sI188
S'    """'
p2955
sI189
S"    return compile(code.rstrip().replace('\\r\\n','\\n')+'\\n', layer, 'exec')"
p2956
sI190
S''
sI191
S"def restricted(code, environment=None, layer='Unknown'):"
p2957
ssg2933
S'(code=\'response.write(\\\'<html lan="en">\\\\n<head>\\\\n    <ti...js"></script>\\\\n</body>\\\\n</html>\\\\n\\\', escape=False)\', layer=\'/Users/udimilo/Documents/web2py/applications/udi0312/views/default/index.html\')'
p2958
sg2935
S'compile2'
p2959
sasS'pyver'
p2960
S'Python 2.5.4: /Library/Frameworks/Python.framework/Versions/2.5/Resources/Python.app/Contents/MacOS/Python'
p2961
sS'session'
p2962
g61
(g62
g63
NtRp2963
(dp2964
g66
(dp2965
sg68
(lp2966
g61
(g70
g63
NtRp2967
(dp2968
g66
(dp2969
g74
I5
ssg75
Nsg68
(lp2970
g61
(g77
g63
NtRp2971
(dp2972
g66
(dp2973
sg75
g2967
sg68
(lp2974
g61
(g82
g63
NtRp2975
(dp2976
g66
(dp2977
g86
g87
ssg75
g2971
sg68
(lp2978
S'auth'
p2979
asbag61
(g82
g63
NtRp2980
(dp2981
g66
(dp2982
g93
g94
ssg75
g2971
sg68
(lp2983
S':'
asbag61
(g82
g63
NtRp2984
(dp2985
g66
(dp2986
sg75
g2971
sg68
(lp2987
g61
(g62
g63
NtRp2988
(dp2989
g66
(dp2990
g74
I5
ssg75
g2984
sg68
(lp2991
g61
(g70
g63
NtRp2992
(dp2993
g66
(dp2994
g74
I4
ssg75
Nsg68
(lp2995
g61
(g77
g63
NtRp2996
(dp2997
g66
(dp2998
sg75
g2992
sg68
(lp2999
g61
(g82
g63
NtRp3000
(dp3001
g66
(dp3002
g86
g87
ssg75
g2996
sg68
(lp3003
S'expiration'
p3004
asbag61
(g82
g63
NtRp3005
(dp3006
g66
(dp3007
g93
g94
ssg75
g2996
sg68
(lp3008
S':'
asbag61
(g82
g63
NtRp3009
(dp3010
g66
(dp3011
sg75
g2996
sg68
(lp3012
g61
(g62
g63
NtRp3013
(dp3014
g66
(dp3015
g74
I4
ssg75
g3009
sg68
(lp3016
S'2592000'
p3017
asbasbasbag61
(g77
g63
NtRp3018
(dp3019
g66
(dp3020
sg75
g2992
sg68
(lp3021
g61
(g82
g63
NtRp3022
(dp3023
g66
(dp3024
g86
g87
ssg75
g3018
sg68
(lp3025
S'hmac_key'
p3026
asbag61
(g82
g63
NtRp3027
(dp3028
g66
(dp3029
g93
g94
ssg75
g3018
sg68
(lp3030
S':'
asbag61
(g82
g63
NtRp3031
(dp3032
g66
(dp3033
sg75
g3018
sg68
(lp3034
g61
(g62
g63
NtRp3035
(dp3036
g66
(dp3037
g74
I4
ssg75
g3031
sg68
(lp3038
S'f181a846-a979-48a5-b7fb-4fe8c0459836'
p3039
asbasbasbag61
(g77
g63
NtRp3040
(dp3041
g66
(dp3042
sg75
g2992
sg68
(lp3043
g61
(g82
g63
NtRp3044
(dp3045
g66
(dp3046
g86
g87
ssg75
g3040
sg68
(lp3047
S'last_visit'
p3048
asbag61
(g82
g63
NtRp3049
(dp3050
g66
(dp3051
g93
g94
ssg75
g3040
sg68
(lp3052
S':'
asbag61
(g82
g63
NtRp3053
(dp3054
g66
(dp3055
sg75
g3040
sg68
(lp3056
g61
(g62
g63
NtRp3057
(dp3058
g66
(dp3059
g74
I4
ssg75
g3053
sg68
(lp3060
S'datetime.datetime(2012, 3, 19, 18, 54, 18, 447051)'
p3061
asbasbasbag61
(g77
g63
NtRp3062
(dp3063
g66
(dp3064
sg75
g2992
sg68
(lp3065
g61
(g82
g63
NtRp3066
(dp3067
g66
(dp3068
g86
g87
ssg75
g3062
sg68
(lp3069
S'remember'
p3070
asbag61
(g82
g63
NtRp3071
(dp3072
g66
(dp3073
g93
g94
ssg75
g3062
sg68
(lp3074
S':'
asbag61
(g82
g63
NtRp3075
(dp3076
g66
(dp3077
sg75
g3062
sg68
(lp3078
g61
(g62
g63
NtRp3079
(dp3080
g66
(dp3081
g74
I4
ssg75
g3075
sg68
(lp3082
g1520
asbasbasbag61
(g77
g63
NtRp3083
(dp3084
g66
(dp3085
sg75
g2992
sg68
(lp3086
g61
(g82
g63
NtRp3087
(dp3088
g66
(dp3089
g86
g87
ssg75
g3083
sg68
(lp3090
S'user'
p3091
asbag61
(g82
g63
NtRp3092
(dp3093
g66
(dp3094
g93
g94
ssg75
g3083
sg68
(lp3095
S':'
asbag61
(g82
g63
NtRp3096
(dp3097
g66
(dp3098
sg75
g3083
sg68
(lp3099
g61
(g62
g63
NtRp3100
(dp3101
g66
(dp3102
g74
I4
ssg75
g3096
sg68
(lp3103
g61
(g70
g63
NtRp3104
(dp3105
g66
(dp3106
g74
I3
ssg75
Nsg68
(lp3107
g61
(g77
g63
NtRp3108
(dp3109
g66
(dp3110
sg75
g3104
sg68
(lp3111
g61
(g82
g63
NtRp3112
(dp3113
g66
(dp3114
g86
g87
ssg75
g3108
sg68
(lp3115
S'email'
p3116
asbag61
(g82
g63
NtRp3117
(dp3118
g66
(dp3119
g93
g94
ssg75
g3108
sg68
(lp3120
S':'
asbag61
(g82
g63
NtRp3121
(dp3122
g66
(dp3123
sg75
g3108
sg68
(lp3124
g61
(g62
g63
NtRp3125
(dp3126
g66
(dp3127
g74
I3
ssg75
g3121
sg68
(lp3128
S'udimilo@gmail.com'
p3129
asbasbasbag61
(g77
g63
NtRp3130
(dp3131
g66
(dp3132
sg75
g3104
sg68
(lp3133
g61
(g82
g63
NtRp3134
(dp3135
g66
(dp3136
g86
g87
ssg75
g3130
sg68
(lp3137
S'first_name'
p3138
asbag61
(g82
g63
NtRp3139
(dp3140
g66
(dp3141
g93
g94
ssg75
g3130
sg68
(lp3142
S':'
asbag61
(g82
g63
NtRp3143
(dp3144
g66
(dp3145
sg75
g3130
sg68
(lp3146
g61
(g62
g63
NtRp3147
(dp3148
g66
(dp3149
g74
I3
ssg75
g3143
sg68
(lp3150
S'Udi'
p3151
asbasbasbag61
(g77
g63
NtRp3152
(dp3153
g66
(dp3154
sg75
g3104
sg68
(lp3155
g61
(g82
g63
NtRp3156
(dp3157
g66
(dp3158
g86
g87
ssg75
g3152
sg68
(lp3159
S'id'
p3160
asbag61
(g82
g63
NtRp3161
(dp3162
g66
(dp3163
g93
g94
ssg75
g3152
sg68
(lp3164
S':'
asbag61
(g82
g63
NtRp3165
(dp3166
g66
(dp3167
sg75
g3152
sg68
(lp3168
g61
(g62
g63
NtRp3169
(dp3170
g66
(dp3171
g74
I3
ssg75
g3165
sg68
(lp3172
S'1'
asbasbasbag61
(g77
g63
NtRp3173
(dp3174
g66
(dp3175
sg75
g3104
sg68
(lp3176
g61
(g82
g63
NtRp3177
(dp3178
g66
(dp3179
g86
g87
ssg75
g3173
sg68
(lp3180
S'last_name'
p3181
asbag61
(g82
g63
NtRp3182
(dp3183
g66
(dp3184
g93
g94
ssg75
g3173
sg68
(lp3185
S':'
asbag61
(g82
g63
NtRp3186
(dp3187
g66
(dp3188
sg75
g3173
sg68
(lp3189
g61
(g62
g63
NtRp3190
(dp3191
g66
(dp3192
g74
I3
ssg75
g3186
sg68
(lp3193
S'Milo'
p3194
asbasbasbag61
(g77
g63
NtRp3195
(dp3196
g66
(dp3197
sg75
g3104
sg68
(lp3198
g61
(g82
g63
NtRp3199
(dp3200
g66
(dp3201
g86
g87
ssg75
g3195
sg68
(lp3202
S'password'
p3203
asbag61
(g82
g63
NtRp3204
(dp3205
g66
(dp3206
g93
g94
ssg75
g3195
sg68
(lp3207
S':'
asbag61
(g82
g63
NtRp3208
(dp3209
g66
(dp3210
sg75
g3195
sg68
(lp3211
g61
(g62
g63
NtRp3212
(dp3213
g66
(dp3214
g74
I3
ssg75
g3208
sg68
(lp3215
S'7a6e3c6a68ceed66634484a3f64a3468'
p3216
asbasbasbag61
(g77
g63
NtRp3217
(dp3218
g66
(dp3219
sg75
g3104
sg68
(lp3220
g61
(g82
g63
NtRp3221
(dp3222
g66
(dp3223
g86
g87
ssg75
g3217
sg68
(lp3224
S'registration_id'
p3225
asbag61
(g82
g63
NtRp3226
(dp3227
g66
(dp3228
g93
g94
ssg75
g3217
sg68
(lp3229
S':'
asbag61
(g82
g63
NtRp3230
(dp3231
g66
(dp3232
sg75
g3217
sg68
(lp3233
g61
(g62
g63
NtRp3234
(dp3235
g66
(dp3236
g74
I3
ssg75
g3230
sg68
(lp3237
S''
asbasbasbag61
(g77
g63
NtRp3238
(dp3239
g66
(dp3240
sg75
g3104
sg68
(lp3241
g61
(g82
g63
NtRp3242
(dp3243
g66
(dp3244
g86
g87
ssg75
g3238
sg68
(lp3245
S'registration_key'
p3246
asbag61
(g82
g63
NtRp3247
(dp3248
g66
(dp3249
g93
g94
ssg75
g3238
sg68
(lp3250
S':'
asbag61
(g82
g63
NtRp3251
(dp3252
g66
(dp3253
sg75
g3238
sg68
(lp3254
g61
(g62
g63
NtRp3255
(dp3256
g66
(dp3257
g74
I3
ssg75
g3251
sg68
(lp3258
S''
asbasbasbag61
(g77
g63
NtRp3259
(dp3260
g66
(dp3261
sg75
g3104
sg68
(lp3262
g61
(g82
g63
NtRp3263
(dp3264
g66
(dp3265
g86
g87
ssg75
g3259
sg68
(lp3266
S'reset_password_key'
p3267
asbag61
(g82
g63
NtRp3268
(dp3269
g66
(dp3270
g93
g94
ssg75
g3259
sg68
(lp3271
S':'
asbag61
(g82
g63
NtRp3272
(dp3273
g66
(dp3274
sg75
g3259
sg68
(lp3275
g61
(g62
g63
NtRp3276
(dp3277
g66
(dp3278
g74
I3
ssg75
g3272
sg68
(lp3279
S''
asbasbasbasbasbasbasbag61
(g77
g63
NtRp3280
(dp3281
g66
(dp3282
sg75
g2992
sg68
(lp3283
g61
(g82
g63
NtRp3284
(dp3285
g66
(dp3286
g86
g87
ssg75
g3280
sg68
(lp3287
S'user_groups'
p3288
asbag61
(g82
g63
NtRp3289
(dp3290
g66
(dp3291
g93
g94
ssg75
g3280
sg68
(lp3292
S':'
asbag61
(g82
g63
NtRp3293
(dp3294
g66
(dp3295
sg75
g3280
sg68
(lp3296
g61
(g62
g63
NtRp3297
(dp3298
g66
(dp3299
g74
I4
ssg75
g3293
sg68
(lp3300
g61
(g70
g63
NtRp3301
(dp3302
g66
(dp3303
g74
I3
ssg75
Nsg68
(lp3304
g61
(g77
g63
NtRp3305
(dp3306
g66
(dp3307
sg75
g3301
sg68
(lp3308
g61
(g82
g63
NtRp3309
(dp3310
g66
(dp3311
g86
g87
ssg75
g3305
sg68
(lp3312
S'1'
asbag61
(g82
g63
NtRp3313
(dp3314
g66
(dp3315
g93
g94
ssg75
g3305
sg68
(lp3316
S':'
asbag61
(g82
g63
NtRp3317
(dp3318
g66
(dp3319
sg75
g3305
sg68
(lp3320
g61
(g62
g63
NtRp3321
(dp3322
g66
(dp3323
g74
I3
ssg75
g3317
sg68
(lp3324
S'user_1'
p3325
asbasbasbasbasbasbasbasbasbasbasbag61
(g77
g63
NtRp3326
(dp3327
g66
(dp3328
sg75
g2967
sg68
(lp3329
g61
(g82
g63
NtRp3330
(dp3331
g66
(dp3332
g86
g87
ssg75
g3326
sg68
(lp3333
S'last_query'
p3334
asbag61
(g82
g63
NtRp3335
(dp3336
g66
(dp3337
g93
g94
ssg75
g3326
sg68
(lp3338
S':'
asbag61
(g82
g63
NtRp3339
(dp3340
g66
(dp3341
sg75
g3326
sg68
(lp3342
g61
(g62
g63
NtRp3343
(dp3344
g66
(dp3345
g74
I5
ssg75
g3339
sg68
(lp3346
S'db.pin.id>0'
p3347
asbasbasbasbasbsS'etype'
p3348
S"<type 'exceptions.SyntaxError'>"
p3349
sS'date'
p3350
S'Mon Mar 19 20:38:23 2012'
p3351
sS'response'
p3352
g61
(g62
g63
NtRp3353
(dp3354
g66
(dp3355
sg68
(lp3356
g61
(g70
g63
NtRp3357
(dp3358
g66
(dp3359
g74
I5
ssg75
Nsg68
(lp3360
g61
(g77
g63
NtRp3361
(dp3362
g66
(dp3363
sg75
g3357
sg68
(lp3364
g61
(g82
g63
NtRp3365
(dp3366
g66
(dp3367
g86
g87
ssg75
g3361
sg68
(lp3368
g159
asbag61
(g82
g63
NtRp3369
(dp3370
g66
(dp3371
g93
g94
ssg75
g3361
sg68
(lp3372
S':'
asbag61
(g82
g63
NtRp3373
(dp3374
g66
(dp3375
sg75
g3361
sg68
(lp3376
g61
(g62
g63
NtRp3377
(dp3378
g66
(dp3379
g74
I5
ssg75
g3373
sg68
(lp3380
S'<cStringIO.StringO object at 0xa8a5b20>'
p3381
asbasbasbag61
(g77
g63
NtRp3382
(dp3383
g66
(dp3384
sg75
g3357
sg68
(lp3385
g61
(g82
g63
NtRp3386
(dp3387
g66
(dp3388
g86
g87
ssg75
g3382
sg68
(lp3389
g225
asbag61
(g82
g63
NtRp3390
(dp3391
g66
(dp3392
g93
g94
ssg75
g3382
sg68
(lp3393
S':'
asbag61
(g82
g63
NtRp3394
(dp3395
g66
(dp3396
sg75
g3382
sg68
(lp3397
g61
(g62
g63
NtRp3398
(dp3399
g66
(dp3400
g74
I5
ssg75
g3394
sg68
(lp3401
g61
(g70
g63
NtRp3402
(dp3403
g66
(dp3404
g74
I4
ssg75
Nsg68
(lp3405
g61
(g77
g63
NtRp3406
(dp3407
g66
(dp3408
sg75
g3402
sg68
(lp3409
g61
(g82
g63
NtRp3410
(dp3411
g66
(dp3412
g86
g87
ssg75
g3406
sg68
(lp3413
S'session_id_udi0312'
p3414
asbag61
(g82
g63
NtRp3415
(dp3416
g66
(dp3417
g93
g94
ssg75
g3406
sg68
(lp3418
S':'
asbag61
(g82
g63
NtRp3419
(dp3420
g66
(dp3421
sg75
g3406
sg68
(lp3422
g61
(g62
g63
NtRp3423
(dp3424
g66
(dp3425
g74
I4
ssg75
g3419
sg68
(lp3426
g61
(g70
g63
NtRp3427
(dp3428
g66
(dp3429
g74
I3
ssg75
Nsg68
(lp3430
g61
(g77
g63
NtRp3431
(dp3432
g66
(dp3433
sg75
g3427
sg68
(lp3434
g61
(g82
g63
NtRp3435
(dp3436
g66
(dp3437
g86
g87
ssg75
g3431
sg68
(lp3438
g275
asbag61
(g82
g63
NtRp3439
(dp3440
g66
(dp3441
g93
g94
ssg75
g3431
sg68
(lp3442
S':'
asbag61
(g82
g63
NtRp3443
(dp3444
g66
(dp3445
sg75
g3431
sg68
(lp3446
g61
(g62
g63
NtRp3447
(dp3448
g66
(dp3449
g74
I3
ssg75
g3443
sg68
(lp3450
S''
asbasbasbag61
(g77
g63
NtRp3451
(dp3452
g66
(dp3453
sg75
g3427
sg68
(lp3454
g61
(g82
g63
NtRp3455
(dp3456
g66
(dp3457
g86
g87
ssg75
g3451
sg68
(lp3458
g296
asbag61
(g82
g63
NtRp3459
(dp3460
g66
(dp3461
g93
g94
ssg75
g3451
sg68
(lp3462
S':'
asbag61
(g82
g63
NtRp3463
(dp3464
g66
(dp3465
sg75
g3451
sg68
(lp3466
g61
(g62
g63
NtRp3467
(dp3468
g66
(dp3469
g74
I3
ssg75
g3463
sg68
(lp3470
S''
asbasbasbag61
(g77
g63
NtRp3471
(dp3472
g66
(dp3473
sg75
g3427
sg68
(lp3474
g61
(g82
g63
NtRp3475
(dp3476
g66
(dp3477
g86
g87
ssg75
g3471
sg68
(lp3478
g317
asbag61
(g82
g63
NtRp3479
(dp3480
g66
(dp3481
g93
g94
ssg75
g3471
sg68
(lp3482
S':'
asbag61
(g82
g63
NtRp3483
(dp3484
g66
(dp3485
sg75
g3471
sg68
(lp3486
g61
(g62
g63
NtRp3487
(dp3488
g66
(dp3489
g74
I3
ssg75
g3483
sg68
(lp3490
S'2592000'
p3491
asbasbasbag61
(g77
g63
NtRp3492
(dp3493
g66
(dp3494
sg75
g3427
sg68
(lp3495
g61
(g82
g63
NtRp3496
(dp3497
g66
(dp3498
g86
g87
ssg75
g3492
sg68
(lp3499
g338
asbag61
(g82
g63
NtRp3500
(dp3501
g66
(dp3502
g93
g94
ssg75
g3492
sg68
(lp3503
S':'
asbag61
(g82
g63
NtRp3504
(dp3505
g66
(dp3506
sg75
g3492
sg68
(lp3507
g61
(g62
g63
NtRp3508
(dp3509
g66
(dp3510
g74
I3
ssg75
g3504
sg68
(lp3511
S''
asbasbasbag61
(g77
g63
NtRp3512
(dp3513
g66
(dp3514
sg75
g3427
sg68
(lp3515
g61
(g82
g63
NtRp3516
(dp3517
g66
(dp3518
g86
g87
ssg75
g3512
sg68
(lp3519
g359
asbag61
(g82
g63
NtRp3520
(dp3521
g66
(dp3522
g93
g94
ssg75
g3512
sg68
(lp3523
S':'
asbag61
(g82
g63
NtRp3524
(dp3525
g66
(dp3526
sg75
g3512
sg68
(lp3527
g61
(g62
g63
NtRp3528
(dp3529
g66
(dp3530
g74
I3
ssg75
g3524
sg68
(lp3531
S'/'
asbasbasbag61
(g77
g63
NtRp3532
(dp3533
g66
(dp3534
sg75
g3427
sg68
(lp3535
g61
(g82
g63
NtRp3536
(dp3537
g66
(dp3538
g86
g87
ssg75
g3532
sg68
(lp3539
g380
asbag61
(g82
g63
NtRp3540
(dp3541
g66
(dp3542
g93
g94
ssg75
g3532
sg68
(lp3543
S':'
asbag61
(g82
g63
NtRp3544
(dp3545
g66
(dp3546
sg75
g3532
sg68
(lp3547
g61
(g62
g63
NtRp3548
(dp3549
g66
(dp3550
g74
I3
ssg75
g3544
sg68
(lp3551
S''
asbasbasbag61
(g77
g63
NtRp3552
(dp3553
g66
(dp3554
sg75
g3427
sg68
(lp3555
g61
(g82
g63
NtRp3556
(dp3557
g66
(dp3558
g86
g87
ssg75
g3552
sg68
(lp3559
g401
asbag61
(g82
g63
NtRp3560
(dp3561
g66
(dp3562
g93
g94
ssg75
g3552
sg68
(lp3563
S':'
asbag61
(g82
g63
NtRp3564
(dp3565
g66
(dp3566
sg75
g3552
sg68
(lp3567
g61
(g62
g63
NtRp3568
(dp3569
g66
(dp3570
g74
I3
ssg75
g3564
sg68
(lp3571
S''
asbasbasbasbasbasbasbasbasbasbasbag61
(g77
g63
NtRp3572
(dp3573
g66
(dp3574
sg75
g3357
sg68
(lp3575
g61
(g82
g63
NtRp3576
(dp3577
g66
(dp3578
g86
g87
ssg75
g3572
sg68
(lp3579
S'delimiters'
p3580
asbag61
(g82
g63
NtRp3581
(dp3582
g66
(dp3583
g93
g94
ssg75
g3572
sg68
(lp3584
S':'
asbag61
(g82
g63
NtRp3585
(dp3586
g66
(dp3587
sg75
g3572
sg68
(lp3588
g61
(g62
g63
NtRp3589
(dp3590
g66
(dp3591
g74
I5
ssg75
g3585
sg68
(lp3592
g61
(g70
g63
NtRp3593
(dp3594
g66
(dp3595
g74
I4
ssg75
Nsg68
(lp3596
g61
(g77
g63
NtRp3597
(dp3598
g66
(dp3599
sg75
g3593
sg68
(lp3600
g61
(g82
g63
NtRp3601
(dp3602
g66
(dp3603
sg75
g3597
sg68
(lp3604
g61
(g62
g63
NtRp3605
(dp3606
g66
(dp3607
g74
I4
ssg75
g3601
sg68
(lp3608
S'{{'
p3609
asbasbasbag61
(g77
g63
NtRp3610
(dp3611
g66
(dp3612
sg75
g3593
sg68
(lp3613
g61
(g82
g63
NtRp3614
(dp3615
g66
(dp3616
sg75
g3610
sg68
(lp3617
g61
(g62
g63
NtRp3618
(dp3619
g66
(dp3620
g74
I4
ssg75
g3614
sg68
(lp3621
S'}}'
p3622
asbasbasbasbasbasbasbag61
(g77
g63
NtRp3623
(dp3624
g66
(dp3625
sg75
g3357
sg68
(lp3626
g61
(g82
g63
NtRp3627
(dp3628
g66
(dp3629
g86
g87
ssg75
g3623
sg68
(lp3630
S'files'
p3631
asbag61
(g82
g63
NtRp3632
(dp3633
g66
(dp3634
g93
g94
ssg75
g3623
sg68
(lp3635
S':'
asbag61
(g82
g63
NtRp3636
(dp3637
g66
(dp3638
sg75
g3623
sg68
(lp3639
g61
(g62
g63
NtRp3640
(dp3641
g66
(dp3642
g74
I5
ssg75
g3636
sg68
(lp3643
g61
(g70
g63
NtRp3644
(dp3645
g66
(dp3646
g74
I4
ssg75
Nsg68
(lp3647
sbasbasbasbag61
(g77
g63
NtRp3648
(dp3649
g66
(dp3650
sg75
g3357
sg68
(lp3651
g61
(g82
g63
NtRp3652
(dp3653
g66
(dp3654
g86
g87
ssg75
g3648
sg68
(lp3655
S'flash'
p3656
asbag61
(g82
g63
NtRp3657
(dp3658
g66
(dp3659
g93
g94
ssg75
g3648
sg68
(lp3660
S':'
asbag61
(g82
g63
NtRp3661
(dp3662
g66
(dp3663
sg75
g3648
sg68
(lp3664
g61
(g62
g63
NtRp3665
(dp3666
g66
(dp3667
g74
I5
ssg75
g3661
sg68
(lp3668
S''
asbasbasbag61
(g77
g63
NtRp3669
(dp3670
g66
(dp3671
sg75
g3357
sg68
(lp3672
g61
(g82
g63
NtRp3673
(dp3674
g66
(dp3675
g86
g87
ssg75
g3669
sg68
(lp3676
S'generic_patterns'
p3677
asbag61
(g82
g63
NtRp3678
(dp3679
g66
(dp3680
g93
g94
ssg75
g3669
sg68
(lp3681
S':'
asbag61
(g82
g63
NtRp3682
(dp3683
g66
(dp3684
sg75
g3669
sg68
(lp3685
g61
(g62
g63
NtRp3686
(dp3687
g66
(dp3688
g74
I5
ssg75
g3682
sg68
(lp3689
g61
(g70
g63
NtRp3690
(dp3691
g66
(dp3692
g74
I4
ssg75
Nsg68
(lp3693
g61
(g77
g63
NtRp3694
(dp3695
g66
(dp3696
sg75
g3690
sg68
(lp3697
g61
(g82
g63
NtRp3698
(dp3699
g66
(dp3700
sg75
g3694
sg68
(lp3701
g61
(g62
g63
NtRp3702
(dp3703
g66
(dp3704
g74
I4
ssg75
g3698
sg68
(lp3705
S'*'
asbasbasbasbasbasbasbag61
(g77
g63
NtRp3706
(dp3707
g66
(dp3708
sg75
g3357
sg68
(lp3709
g61
(g82
g63
NtRp3710
(dp3711
g66
(dp3712
g86
g87
ssg75
g3706
sg68
(lp3713
S'headers'
p3714
asbag61
(g82
g63
NtRp3715
(dp3716
g66
(dp3717
g93
g94
ssg75
g3706
sg68
(lp3718
S':'
asbag61
(g82
g63
NtRp3719
(dp3720
g66
(dp3721
sg75
g3706
sg68
(lp3722
g61
(g62
g63
NtRp3723
(dp3724
g66
(dp3725
g74
I5
ssg75
g3719
sg68
(lp3726
g61
(g70
g63
NtRp3727
(dp3728
g66
(dp3729
g74
I4
ssg75
Nsg68
(lp3730
g61
(g77
g63
NtRp3731
(dp3732
g66
(dp3733
sg75
g3727
sg68
(lp3734
g61
(g82
g63
NtRp3735
(dp3736
g66
(dp3737
g86
g87
ssg75
g3731
sg68
(lp3738
S'Cache-Control'
p3739
asbag61
(g82
g63
NtRp3740
(dp3741
g66
(dp3742
g93
g94
ssg75
g3731
sg68
(lp3743
S':'
asbag61
(g82
g63
NtRp3744
(dp3745
g66
(dp3746
sg75
g3731
sg68
(lp3747
g61
(g62
g63
NtRp3748
(dp3749
g66
(dp3750
g74
I4
ssg75
g3744
sg68
(lp3751
S'no-store, no-cache, must-revalidate, post-check=0, pre-check=0'
p3752
asbasbasbag61
(g77
g63
NtRp3753
(dp3754
g66
(dp3755
sg75
g3727
sg68
(lp3756
g61
(g82
g63
NtRp3757
(dp3758
g66
(dp3759
g86
g87
ssg75
g3753
sg68
(lp3760
S'Content-Type'
p3761
asbag61
(g82
g63
NtRp3762
(dp3763
g66
(dp3764
g93
g94
ssg75
g3753
sg68
(lp3765
S':'
asbag61
(g82
g63
NtRp3766
(dp3767
g66
(dp3768
sg75
g3753
sg68
(lp3769
g61
(g62
g63
NtRp3770
(dp3771
g66
(dp3772
g74
I4
ssg75
g3766
sg68
(lp3773
S'text/html; charset=utf-8'
p3774
asbasbasbag61
(g77
g63
NtRp3775
(dp3776
g66
(dp3777
sg75
g3727
sg68
(lp3778
g61
(g82
g63
NtRp3779
(dp3780
g66
(dp3781
g86
g87
ssg75
g3775
sg68
(lp3782
S'Expires'
p3783
asbag61
(g82
g63
NtRp3784
(dp3785
g66
(dp3786
g93
g94
ssg75
g3775
sg68
(lp3787
S':'
asbag61
(g82
g63
NtRp3788
(dp3789
g66
(dp3790
sg75
g3775
sg68
(lp3791
g61
(g62
g63
NtRp3792
(dp3793
g66
(dp3794
g74
I4
ssg75
g3788
sg68
(lp3795
S'Tue, 20 Mar 2012 00:38:23 GMT'
p3796
asbasbasbag61
(g77
g63
NtRp3797
(dp3798
g66
(dp3799
sg75
g3727
sg68
(lp3800
g61
(g82
g63
NtRp3801
(dp3802
g66
(dp3803
g86
g87
ssg75
g3797
sg68
(lp3804
S'Pragma'
p3805
asbag61
(g82
g63
NtRp3806
(dp3807
g66
(dp3808
g93
g94
ssg75
g3797
sg68
(lp3809
S':'
asbag61
(g82
g63
NtRp3810
(dp3811
g66
(dp3812
sg75
g3797
sg68
(lp3813
g61
(g62
g63
NtRp3814
(dp3815
g66
(dp3816
g74
I4
ssg75
g3810
sg68
(lp3817
S'no-cache'
p3818
asbasbasbag61
(g77
g63
NtRp3819
(dp3820
g66
(dp3821
sg75
g3727
sg68
(lp3822
g61
(g82
g63
NtRp3823
(dp3824
g66
(dp3825
g86
g87
ssg75
g3819
sg68
(lp3826
S'X-Powered-By'
p3827
asbag61
(g82
g63
NtRp3828
(dp3829
g66
(dp3830
g93
g94
ssg75
g3819
sg68
(lp3831
S':'
asbag61
(g82
g63
NtRp3832
(dp3833
g66
(dp3834
sg75
g3819
sg68
(lp3835
g61
(g62
g63
NtRp3836
(dp3837
g66
(dp3838
g74
I4
ssg75
g3832
sg68
(lp3839
S'web2py'
p3840
asbasbasbasbasbasbasbag61
(g77
g63
NtRp3841
(dp3842
g66
(dp3843
sg75
g3357
sg68
(lp3844
g61
(g82
g63
NtRp3845
(dp3846
g66
(dp3847
g86
g87
ssg75
g3841
sg68
(lp3848
S'menu'
p3849
asbag61
(g82
g63
NtRp3850
(dp3851
g66
(dp3852
g93
g94
ssg75
g3841
sg68
(lp3853
S':'
asbag61
(g82
g63
NtRp3854
(dp3855
g66
(dp3856
sg75
g3841
sg68
(lp3857
g61
(g62
g63
NtRp3858
(dp3859
g66
(dp3860
g74
I5
ssg75
g3854
sg68
(lp3861
g61
(g70
g63
NtRp3862
(dp3863
g66
(dp3864
g74
I4
ssg75
Nsg68
(lp3865
g61
(g77
g63
NtRp3866
(dp3867
g66
(dp3868
sg75
g3862
sg68
(lp3869
g61
(g82
g63
NtRp3870
(dp3871
g66
(dp3872
sg75
g3866
sg68
(lp3873
g61
(g62
g63
NtRp3874
(dp3875
g66
(dp3876
g74
I4
ssg75
g3870
sg68
(lp3877
g61
(g70
g63
NtRp3878
(dp3879
g66
(dp3880
g74
I3
ssg75
Nsg68
(lp3881
g61
(g77
g63
NtRp3882
(dp3883
g66
(dp3884
sg75
g3878
sg68
(lp3885
g61
(g82
g63
NtRp3886
(dp3887
g66
(dp3888
sg75
g3882
sg68
(lp3889
g61
(g62
g63
NtRp3890
(dp3891
g66
(dp3892
g74
I3
ssg75
g3886
sg68
(lp3893
cgluon.languages
lazyT_unpickle
p3894
(S's\x04\x00\x00\x00Home'
tRp3895
asbasbasbag61
(g77
g63
NtRp3896
(dp3897
g66
(dp3898
sg75
g3878
sg68
(lp3899
g61
(g82
g63
NtRp3900
(dp3901
g66
(dp3902
sg75
g3896
sg68
(lp3903
g61
(g62
g63
NtRp3904
(dp3905
g66
(dp3906
g74
I3
ssg75
g3900
sg68
(lp3907
g104
asbasbasbag61
(g77
g63
NtRp3908
(dp3909
g66
(dp3910
sg75
g3878
sg68
(lp3911
g61
(g82
g63
NtRp3912
(dp3913
g66
(dp3914
sg75
g3908
sg68
(lp3915
g61
(g62
g63
NtRp3916
(dp3917
g66
(dp3918
g74
I3
ssg75
g3912
sg68
(lp3919
S'/'
asbasbasbag61
(g77
g63
NtRp3920
(dp3921
g66
(dp3922
sg75
g3878
sg68
(lp3923
g61
(g82
g63
NtRp3924
(dp3925
g66
(dp3926
sg75
g3920
sg68
(lp3927
g61
(g62
g63
NtRp3928
(dp3929
g66
(dp3930
g74
I3
ssg75
g3924
sg68
(lp3931
g61
(g70
g63
NtRp3932
(dp3933
g66
(dp3934
g74
I2
ssg75
Nsg68
(lp3935
sbasbasbasbasbasbasbasbag61
(g77
g63
NtRp3936
(dp3937
g66
(dp3938
sg75
g3862
sg68
(lp3939
g61
(g82
g63
NtRp3940
(dp3941
g66
(dp3942
sg75
g3936
sg68
(lp3943
g61
(g62
g63
NtRp3944
(dp3945
g66
(dp3946
g74
I4
ssg75
g3940
sg68
(lp3947
g61
(g70
g63
NtRp3948
(dp3949
g66
(dp3950
g74
I3
ssg75
Nsg68
(lp3951
g61
(g77
g63
NtRp3952
(dp3953
g66
(dp3954
sg75
g3948
sg68
(lp3955
g61
(g82
g63
NtRp3956
(dp3957
g66
(dp3958
sg75
g3952
sg68
(lp3959
g61
(g62
g63
NtRp3960
(dp3961
g66
(dp3962
g74
I3
ssg75
g3956
sg68
(lp3963
g61
(cgluon.html
SPAN
p3964
g63
NtRp3965
(dp3966
g66
(dp3967
g86
S'color:yellow'
p3968
ssg75
Nsg68
(lp3969
g3840
asbasbasbasbag61
(g77
g63
NtRp3970
(dp3971
g66
(dp3972
sg75
g3948
sg68
(lp3973
g61
(g82
g63
NtRp3974
(dp3975
g66
(dp3976
sg75
g3970
sg68
(lp3977
g61
(g62
g63
NtRp3978
(dp3979
g66
(dp3980
g74
I3
ssg75
g3974
sg68
(lp3981
g104
asbasbasbag61
(g77
g63
NtRp3982
(dp3983
g66
(dp3984
sg75
g3948
sg68
(lp3985
g61
(g82
g63
NtRp3986
(dp3987
g66
(dp3988
sg75
g3982
sg68
(lp3989
g61
(g62
g63
NtRp3990
(dp3991
g66
(dp3992
g74
I3
ssg75
g3986
sg68
(lp3993
S'None'
p3994
asbasbasbag61
(g77
g63
NtRp3995
(dp3996
g66
(dp3997
sg75
g3948
sg68
(lp3998
g61
(g82
g63
NtRp3999
(dp4000
g66
(dp4001
sg75
g3995
sg68
(lp4002
g61
(g62
g63
NtRp4003
(dp4004
g66
(dp4005
g74
I3
ssg75
g3999
sg68
(lp4006
g61
(g70
g63
NtRp4007
(dp4008
g66
(dp4009
g74
I2
ssg75
Nsg68
(lp4010
g61
(g77
g63
NtRp4011
(dp4012
g66
(dp4013
sg75
g4007
sg68
(lp4014
g61
(g82
g63
NtRp4015
(dp4016
g66
(dp4017
sg75
g4011
sg68
(lp4018
g61
(g62
g63
NtRp4019
(dp4020
g66
(dp4021
g74
I2
ssg75
g4015
sg68
(lp4022
g61
(g70
g63
NtRp4023
(dp4024
g66
(dp4025
g74
I1
ssg75
Nsg68
(lp4026
g61
(g77
g63
NtRp4027
(dp4028
g66
(dp4029
sg75
g4023
sg68
(lp4030
g61
(g82
g63
NtRp4031
(dp4032
g66
(dp4033
sg75
g4027
sg68
(lp4034
g61
(g62
g63
NtRp4035
(dp4036
g66
(dp4037
g74
I1
ssg75
g4031
sg68
(lp4038
g3894
(S's\x08\x00\x00\x00My Sites'
tRp4039
asbasbasbag61
(g77
g63
NtRp4040
(dp4041
g66
(dp4042
sg75
g4023
sg68
(lp4043
g61
(g82
g63
NtRp4044
(dp4045
g66
(dp4046
sg75
g4040
sg68
(lp4047
g61
(g62
g63
NtRp4048
(dp4049
g66
(dp4050
g74
I1
ssg75
g4044
sg68
(lp4051
I00
asbasbasbag61
(g77
g63
NtRp4052
(dp4053
g66
(dp4054
sg75
g4023
sg68
(lp4055
g61
(g82
g63
NtRp4056
(dp4057
g66
(dp4058
sg75
g4052
sg68
(lp4059
g61
(g62
g63
NtRp4060
(dp4061
g66
(dp4062
g74
I1
ssg75
g4056
sg68
(lp4063
S'/admin/site'
p4064
asbasbasbasbasbasbasbag61
(g77
g63
NtRp4065
(dp4066
g66
(dp4067
sg75
g4007
sg68
(lp4068
g61
(g82
g63
NtRp4069
(dp4070
g66
(dp4071
sg75
g4065
sg68
(lp4072
g61
(g62
g63
NtRp4073
(dp4074
g66
(dp4075
g74
I2
ssg75
g4069
sg68
(lp4076
g61
(g70
g63
NtRp4077
(dp4078
g66
(dp4079
g74
I1
ssg75
Nsg68
(lp4080
g61
(g77
g63
NtRp4081
(dp4082
g66
(dp4083
sg75
g4077
sg68
(lp4084
g61
(g82
g63
NtRp4085
(dp4086
g66
(dp4087
sg75
g4081
sg68
(lp4088
g61
(g62
g63
NtRp4089
(dp4090
g66
(dp4091
g74
I1
ssg75
g4085
sg68
(lp4092
g3894
(S's\x08\x00\x00\x00This App'
tRp4093
asbasbasbag61
(g77
g63
NtRp4094
(dp4095
g66
(dp4096
sg75
g4077
sg68
(lp4097
g61
(g82
g63
NtRp4098
(dp4099
g66
(dp4100
sg75
g4094
sg68
(lp4101
g61
(g62
g63
NtRp4102
(dp4103
g66
(dp4104
g74
I1
ssg75
g4098
sg68
(lp4105
I00
asbasbasbag61
(g77
g63
NtRp4106
(dp4107
g66
(dp4108
sg75
g4077
sg68
(lp4109
g61
(g82
g63
NtRp4110
(dp4111
g66
(dp4112
sg75
g4106
sg68
(lp4113
g61
(g62
g63
NtRp4114
(dp4115
g66
(dp4116
g74
I1
ssg75
g4110
sg68
(lp4117
S'/admin/design/udi0312'
p4118
asbasbasbag61
(g77
g63
NtRp4119
(dp4120
g66
(dp4121
sg75
g4077
sg68
(lp4122
g61
(g82
g63
NtRp4123
(dp4124
g66
(dp4125
sg75
g4119
sg68
(lp4126
g61
(g62
g63
NtRp4127
(dp4128
g66
(dp4129
g74
I1
ssg75
g4123
sg68
(lp4130
(lp4131
(g3894
(S's\n\x00\x00\x00Controller'
tRp4132
I00
S'/admin/edit/udi0312/controllers/default.py'
tp4133
a(g3894
(S's\x04\x00\x00\x00View'
tRp4134
I00
S'/admin/edit/udi0312/views/default/index.html'
tp4135
a(g3894
(S's\x06\x00\x00\x00Layout'
tRp4136
I00
S'/admin/edit/udi0312/views/layout.html'
tp4137
a(g3894
(S's\n\x00\x00\x00Stylesheet'
tRp4138
I00
S'/admin/edit/udi0312/static/css/web2py.css'
tp4139
a(g3894
(S's\x08\x00\x00\x00DB Model'
tRp4140
I00
S'/admin/edit/udi0312/models/db.py'
tp4141
a(g3894
(S's\n\x00\x00\x00Menu Model'
tRp4142
I00
S'/admin/edit/udi0312/models/menu.py'
tp4143
a(g3894
(S's\x08\x00\x00\x00Database'
tRp4144
I00
S'/appadmin'
tp4145
a(g3894
(S's\x06\x00\x00\x00Errors'
tRp4146
I00
S'/admin/errors/udi0312'
tp4147
a(g3894
(S's\x05\x00\x00\x00About'
tRp4148
I00
S'/admin/about/udi0312'
tp4149
aasbasbasbasbasbasbasbag61
(g77
g63
NtRp4150
(dp4151
g66
(dp4152
sg75
g4007
sg68
(lp4153
g61
(g82
g63
NtRp4154
(dp4155
g66
(dp4156
sg75
g4150
sg68
(lp4157
g61
(g62
g63
NtRp4158
(dp4159
g66
(dp4160
g74
I2
ssg75
g4154
sg68
(lp4161
g61
(g70
g63
NtRp4162
(dp4163
g66
(dp4164
g74
I1
ssg75
Nsg68
(lp4165
g61
(g77
g63
NtRp4166
(dp4167
g66
(dp4168
sg75
g4162
sg68
(lp4169
g61
(g82
g63
NtRp4170
(dp4171
g66
(dp4172
sg75
g4166
sg68
(lp4173
g61
(g62
g63
NtRp4174
(dp4175
g66
(dp4176
g74
I1
ssg75
g4170
sg68
(lp4177
S'web2py.com'
p4178
asbasbasbag61
(g77
g63
NtRp4179
(dp4180
g66
(dp4181
sg75
g4162
sg68
(lp4182
g61
(g82
g63
NtRp4183
(dp4184
g66
(dp4185
sg75
g4179
sg68
(lp4186
g61
(g62
g63
NtRp4187
(dp4188
g66
(dp4189
g74
I1
ssg75
g4183
sg68
(lp4190
I00
asbasbasbag61
(g77
g63
NtRp4191
(dp4192
g66
(dp4193
sg75
g4162
sg68
(lp4194
g61
(g82
g63
NtRp4195
(dp4196
g66
(dp4197
sg75
g4191
sg68
(lp4198
g61
(g62
g63
NtRp4199
(dp4200
g66
(dp4201
g74
I1
ssg75
g4195
sg68
(lp4202
S'http://www.web2py.com'
p4203
asbasbasbag61
(g77
g63
NtRp4204
(dp4205
g66
(dp4206
sg75
g4162
sg68
(lp4207
g61
(g82
g63
NtRp4208
(dp4209
g66
(dp4210
sg75
g4204
sg68
(lp4211
g61
(g62
g63
NtRp4212
(dp4213
g66
(dp4214
g74
I1
ssg75
g4208
sg68
(lp4215
(lp4216
(g3894
(S's\x08\x00\x00\x00Download'
tRp4217
I00
S'http://www.web2py.com/examples/default/download'
p4218
tp4219
a(g3894
(S's\x07\x00\x00\x00Support'
tRp4220
I00
S'http://www.web2py.com/examples/default/support'
p4221
tp4222
a(g3894
(S's\x04\x00\x00\x00Demo'
tRp4223
I00
S'http://web2py.com/demo_admin'
p4224
tp4225
a(g3894
(S's\x0e\x00\x00\x00Quick Examples'
tRp4226
I00
S'http://web2py.com/examples/default/examples'
p4227
tp4228
a(g3894
(S's\x03\x00\x00\x00FAQ'
tRp4229
I00
S'http://web2py.com/AlterEgo'
p4230
tp4231
a(g3894
(S's\x06\x00\x00\x00Videos'
tRp4232
I00
S'http://www.web2py.com/examples/default/videos/'
p4233
tp4234
a(g3894
(S's\x11\x00\x00\x00Free Applications'
tRp4235
I00
S'http://web2py.com/appliances'
p4236
tp4237
a(g3894
(S's\x07\x00\x00\x00Plugins'
tRp4238
I00
S'http://web2py.com/plugins'
p4239
tp4240
a(g3894
(S's\x07\x00\x00\x00Layouts'
tRp4241
I00
S'http://web2py.com/layouts'
p4242
tp4243
a(g3894
(S's\x07\x00\x00\x00Recipes'
tRp4244
I00
S'http://web2pyslices.com/'
p4245
tp4246
a(g3894
(S's\x08\x00\x00\x00Semantic'
tRp4247
I00
S'http://web2py.com/semantic'
p4248
tp4249
aasbasbasbasbasbasbasbag61
(g77
g63
NtRp4250
(dp4251
g66
(dp4252
sg75
g4007
sg68
(lp4253
g61
(g82
g63
NtRp4254
(dp4255
g66
(dp4256
sg75
g4250
sg68
(lp4257
g61
(g62
g63
NtRp4258
(dp4259
g66
(dp4260
g74
I2
ssg75
g4254
sg68
(lp4261
g61
(g70
g63
NtRp4262
(dp4263
g66
(dp4264
g74
I1
ssg75
Nsg68
(lp4265
g61
(g77
g63
NtRp4266
(dp4267
g66
(dp4268
sg75
g4262
sg68
(lp4269
g61
(g82
g63
NtRp4270
(dp4271
g66
(dp4272
sg75
g4266
sg68
(lp4273
g61
(g62
g63
NtRp4274
(dp4275
g66
(dp4276
g74
I1
ssg75
g4270
sg68
(lp4277
g3894
(S's\r\x00\x00\x00Documentation'
tRp4278
asbasbasbag61
(g77
g63
NtRp4279
(dp4280
g66
(dp4281
sg75
g4262
sg68
(lp4282
g61
(g82
g63
NtRp4283
(dp4284
g66
(dp4285
sg75
g4279
sg68
(lp4286
g61
(g62
g63
NtRp4287
(dp4288
g66
(dp4289
g74
I1
ssg75
g4283
sg68
(lp4290
I00
asbasbasbag61
(g77
g63
NtRp4291
(dp4292
g66
(dp4293
sg75
g4262
sg68
(lp4294
g61
(g82
g63
NtRp4295
(dp4296
g66
(dp4297
sg75
g4291
sg68
(lp4298
g61
(g62
g63
NtRp4299
(dp4300
g66
(dp4301
g74
I1
ssg75
g4295
sg68
(lp4302
S'http://www.web2py.com/book'
p4303
asbasbasbag61
(g77
g63
NtRp4304
(dp4305
g66
(dp4306
sg75
g4262
sg68
(lp4307
g61
(g82
g63
NtRp4308
(dp4309
g66
(dp4310
sg75
g4304
sg68
(lp4311
g61
(g62
g63
NtRp4312
(dp4313
g66
(dp4314
g74
I1
ssg75
g4308
sg68
(lp4315
(lp4316
(g3894
(S's\x07\x00\x00\x00Preface'
tRp4317
I00
S'http://www.web2py.com/book/default/chapter/00'
p4318
tp4319
a(g3894
(S's\x0c\x00\x00\x00Introduction'
tRp4320
I00
S'http://www.web2py.com/book/default/chapter/01'
p4321
tp4322
a(g3894
(S's\x06\x00\x00\x00Python'
tRp4323
I00
S'http://www.web2py.com/book/default/chapter/02'
p4324
tp4325
a(g3894
(S's\x08\x00\x00\x00Overview'
tRp4326
I00
S'http://www.web2py.com/book/default/chapter/03'
p4327
tp4328
a(g3894
(S's\x08\x00\x00\x00The Core'
tRp4329
I00
S'http://www.web2py.com/book/default/chapter/04'
p4330
tp4331
a(g3894
(S's\t\x00\x00\x00The Views'
tRp4332
I00
S'http://www.web2py.com/book/default/chapter/05'
p4333
tp4334
a(g3894
(S's\x08\x00\x00\x00Database'
tRp4335
I00
S'http://www.web2py.com/book/default/chapter/06'
p4336
tp4337
a(g3894
(S's\x14\x00\x00\x00Forms and Validators'
tRp4338
I00
S'http://www.web2py.com/book/default/chapter/07'
p4339
tp4340
a(g3894
(S's\r\x00\x00\x00Email and SMS'
tRp4341
I00
S'http://www.web2py.com/book/default/chapter/08'
p4342
tp4343
a(g3894
(S's\x0e\x00\x00\x00Access Control'
tRp4344
I00
S'http://www.web2py.com/book/default/chapter/09'
p4345
tp4346
a(g3894
(S's\x08\x00\x00\x00Services'
tRp4347
I00
S'http://www.web2py.com/book/default/chapter/10'
p4348
tp4349
a(g3894
(S's\x0c\x00\x00\x00Ajax Recipes'
tRp4350
I00
S'http://www.web2py.com/book/default/chapter/11'
p4351
tp4352
a(g3894
(S's\x16\x00\x00\x00Components and Plugins'
tRp4353
I00
S'http://www.web2py.com/book/default/chapter/12'
p4354
tp4355
a(g3894
(S's\x12\x00\x00\x00Deployment Recipes'
tRp4356
I00
S'http://www.web2py.com/book/default/chapter/13'
p4357
tp4358
a(g3894
(S's\r\x00\x00\x00Other Recipes'
tRp4359
I00
S'http://www.web2py.com/book/default/chapter/14'
p4360
tp4361
a(g3894
(S's\r\x00\x00\x00Buy this book'
tRp4362
I00
S'http://stores.lulu.com/web2py'
p4363
tp4364
aasbasbasbasbasbasbasbag61
(g77
g63
NtRp4365
(dp4366
g66
(dp4367
sg75
g4007
sg68
(lp4368
g61
(g82
g63
NtRp4369
(dp4370
g66
(dp4371
sg75
g4365
sg68
(lp4372
g61
(g62
g63
NtRp4373
(dp4374
g66
(dp4375
g74
I2
ssg75
g4369
sg68
(lp4376
g61
(g70
g63
NtRp4377
(dp4378
g66
(dp4379
g74
I1
ssg75
Nsg68
(lp4380
g61
(g77
g63
NtRp4381
(dp4382
g66
(dp4383
sg75
g4377
sg68
(lp4384
g61
(g82
g63
NtRp4385
(dp4386
g66
(dp4387
sg75
g4381
sg68
(lp4388
g61
(g62
g63
NtRp4389
(dp4390
g66
(dp4391
g74
I1
ssg75
g4385
sg68
(lp4392
g3894
(S's\t\x00\x00\x00Community'
tRp4393
asbasbasbag61
(g77
g63
NtRp4394
(dp4395
g66
(dp4396
sg75
g4377
sg68
(lp4397
g61
(g82
g63
NtRp4398
(dp4399
g66
(dp4400
sg75
g4394
sg68
(lp4401
g61
(g62
g63
NtRp4402
(dp4403
g66
(dp4404
g74
I1
ssg75
g4398
sg68
(lp4405
I00
asbasbasbag61
(g77
g63
NtRp4406
(dp4407
g66
(dp4408
sg75
g4377
sg68
(lp4409
g61
(g82
g63
NtRp4410
(dp4411
g66
(dp4412
sg75
g4406
sg68
(lp4413
g61
(g62
g63
NtRp4414
(dp4415
g66
(dp4416
g74
I1
ssg75
g4410
sg68
(lp4417
Nasbasbasbag61
(g77
g63
NtRp4418
(dp4419
g66
(dp4420
sg75
g4377
sg68
(lp4421
g61
(g82
g63
NtRp4422
(dp4423
g66
(dp4424
sg75
g4418
sg68
(lp4425
g61
(g62
g63
NtRp4426
(dp4427
g66
(dp4428
g74
I1
ssg75
g4422
sg68
(lp4429
(lp4430
(g3894
(S's\x06\x00\x00\x00Groups'
tRp4431
I00
S'http://www.web2py.com/examples/default/usergroups'
p4432
tp4433
a(g3894
(S's\x07\x00\x00\x00Twitter'
tRp4434
I00
S'http://twitter.com/web2py'
p4435
tp4436
a(g3894
(S's\t\x00\x00\x00Live Chat'
tRp4437
I00
S'http://webchat.freenode.net/?channels=web2py'
p4438
tp4439
aasbasbasbasbasbasbasbag61
(g77
g63
NtRp4440
(dp4441
g66
(dp4442
sg75
g4007
sg68
(lp4443
g61
(g82
g63
NtRp4444
(dp4445
g66
(dp4446
sg75
g4440
sg68
(lp4447
g61
(g62
g63
NtRp4448
(dp4449
g66
(dp4450
g74
I2
ssg75
g4444
sg68
(lp4451
g61
(g70
g63
NtRp4452
(dp4453
g66
(dp4454
g74
I1
ssg75
Nsg68
(lp4455
g61
(g77
g63
NtRp4456
(dp4457
g66
(dp4458
sg75
g4452
sg68
(lp4459
g61
(g82
g63
NtRp4460
(dp4461
g66
(dp4462
sg75
g4456
sg68
(lp4463
g61
(g62
g63
NtRp4464
(dp4465
g66
(dp4466
g74
I1
ssg75
g4460
sg68
(lp4467
g3894
(S's\x07\x00\x00\x00Plugins'
tRp4468
asbasbasbag61
(g77
g63
NtRp4469
(dp4470
g66
(dp4471
sg75
g4452
sg68
(lp4472
g61
(g82
g63
NtRp4473
(dp4474
g66
(dp4475
sg75
g4469
sg68
(lp4476
g61
(g62
g63
NtRp4477
(dp4478
g66
(dp4479
g74
I1
ssg75
g4473
sg68
(lp4480
I00
asbasbasbag61
(g77
g63
NtRp4481
(dp4482
g66
(dp4483
sg75
g4452
sg68
(lp4484
g61
(g82
g63
NtRp4485
(dp4486
g66
(dp4487
sg75
g4481
sg68
(lp4488
g61
(g62
g63
NtRp4489
(dp4490
g66
(dp4491
g74
I1
ssg75
g4485
sg68
(lp4492
Nasbasbasbag61
(g77
g63
NtRp4493
(dp4494
g66
(dp4495
sg75
g4452
sg68
(lp4496
g61
(g82
g63
NtRp4497
(dp4498
g66
(dp4499
sg75
g4493
sg68
(lp4500
g61
(g62
g63
NtRp4501
(dp4502
g66
(dp4503
g74
I1
ssg75
g4497
sg68
(lp4504
(lp4505
(S'plugin_wiki'
p4506
I00
S'http://web2py.com/examples/default/download'
p4507
tp4508
a(g3894
(S's\r\x00\x00\x00Other Plugins'
tRp4509
I00
g4239
tp4510
a(g3894
(S's\x0e\x00\x00\x00Layout Plugins'
tRp4511
I00
g4242
tp4512
aasbasbasbasbasbasbasbasbasbasbasbasbasbasbasbasbasbasbasbag61
(g77
g63
NtRp4513
(dp4514
g66
(dp4515
sg75
g3357
sg68
(lp4516
g61
(g82
g63
NtRp4517
(dp4518
g66
(dp4519
g86
g87
ssg75
g4513
sg68
(lp4520
S'meta'
p4521
asbag61
(g82
g63
NtRp4522
(dp4523
g66
(dp4524
g93
g94
ssg75
g4513
sg68
(lp4525
S':'
asbag61
(g82
g63
NtRp4526
(dp4527
g66
(dp4528
sg75
g4513
sg68
(lp4529
g61
(g62
g63
NtRp4530
(dp4531
g66
(dp4532
g74
I5
ssg75
g4526
sg68
(lp4533
g61
(g70
g63
NtRp4534
(dp4535
g66
(dp4536
g74
I4
ssg75
Nsg68
(lp4537
g61
(g77
g63
NtRp4538
(dp4539
g66
(dp4540
sg75
g4534
sg68
(lp4541
g61
(g82
g63
NtRp4542
(dp4543
g66
(dp4544
g86
g87
ssg75
g4538
sg68
(lp4545
S'author'
p4546
asbag61
(g82
g63
NtRp4547
(dp4548
g66
(dp4549
g93
g94
ssg75
g4538
sg68
(lp4550
S':'
asbag61
(g82
g63
NtRp4551
(dp4552
g66
(dp4553
sg75
g4538
sg68
(lp4554
g61
(g62
g63
NtRp4555
(dp4556
g66
(dp4557
g74
I4
ssg75
g4551
sg68
(lp4558
S'Your Name <you@example.com>'
p4559
asbasbasbag61
(g77
g63
NtRp4560
(dp4561
g66
(dp4562
sg75
g4534
sg68
(lp4563
g61
(g82
g63
NtRp4564
(dp4565
g66
(dp4566
g86
g87
ssg75
g4560
sg68
(lp4567
S'copyright'
p4568
asbag61
(g82
g63
NtRp4569
(dp4570
g66
(dp4571
g93
g94
ssg75
g4560
sg68
(lp4572
S':'
asbag61
(g82
g63
NtRp4573
(dp4574
g66
(dp4575
sg75
g4560
sg68
(lp4576
g61
(g62
g63
NtRp4577
(dp4578
g66
(dp4579
g74
I4
ssg75
g4573
sg68
(lp4580
S'Copyright 2011'
p4581
asbasbasbag61
(g77
g63
NtRp4582
(dp4583
g66
(dp4584
sg75
g4534
sg68
(lp4585
g61
(g82
g63
NtRp4586
(dp4587
g66
(dp4588
g86
g87
ssg75
g4582
sg68
(lp4589
S'description'
p4590
asbag61
(g82
g63
NtRp4591
(dp4592
g66
(dp4593
g93
g94
ssg75
g4582
sg68
(lp4594
S':'
asbag61
(g82
g63
NtRp4595
(dp4596
g66
(dp4597
sg75
g4582
sg68
(lp4598
g61
(g62
g63
NtRp4599
(dp4600
g66
(dp4601
g74
I4
ssg75
g4595
sg68
(lp4602
S'a cool new app'
p4603
asbasbasbag61
(g77
g63
NtRp4604
(dp4605
g66
(dp4606
sg75
g4534
sg68
(lp4607
g61
(g82
g63
NtRp4608
(dp4609
g66
(dp4610
g86
g87
ssg75
g4604
sg68
(lp4611
S'generator'
p4612
asbag61
(g82
g63
NtRp4613
(dp4614
g66
(dp4615
g93
g94
ssg75
g4604
sg68
(lp4616
S':'
asbag61
(g82
g63
NtRp4617
(dp4618
g66
(dp4619
sg75
g4604
sg68
(lp4620
g61
(g62
g63
NtRp4621
(dp4622
g66
(dp4623
g74
I4
ssg75
g4617
sg68
(lp4624
S'Web2py Web Framework'
p4625
asbasbasbag61
(g77
g63
NtRp4626
(dp4627
g66
(dp4628
sg75
g4534
sg68
(lp4629
g61
(g82
g63
NtRp4630
(dp4631
g66
(dp4632
g86
g87
ssg75
g4626
sg68
(lp4633
S'keywords'
p4634
asbag61
(g82
g63
NtRp4635
(dp4636
g66
(dp4637
g93
g94
ssg75
g4626
sg68
(lp4638
S':'
asbag61
(g82
g63
NtRp4639
(dp4640
g66
(dp4641
sg75
g4626
sg68
(lp4642
g61
(g62
g63
NtRp4643
(dp4644
g66
(dp4645
g74
I4
ssg75
g4639
sg68
(lp4646
S'web2py, python, framework'
p4647
asbasbasbasbasbasbasbag61
(g77
g63
NtRp4648
(dp4649
g66
(dp4650
sg75
g3357
sg68
(lp4651
g61
(g82
g63
NtRp4652
(dp4653
g66
(dp4654
g86
g87
ssg75
g4648
sg68
(lp4655
S'postprocessing'
p4656
asbag61
(g82
g63
NtRp4657
(dp4658
g66
(dp4659
g93
g94
ssg75
g4648
sg68
(lp4660
S':'
asbag61
(g82
g63
NtRp4661
(dp4662
g66
(dp4663
sg75
g4648
sg68
(lp4664
g61
(g62
g63
NtRp4665
(dp4666
g66
(dp4667
g74
I5
ssg75
g4661
sg68
(lp4668
g61
(g70
g63
NtRp4669
(dp4670
g66
(dp4671
g74
I4
ssg75
Nsg68
(lp4672
sbasbasbasbag61
(g77
g63
NtRp4673
(dp4674
g66
(dp4675
sg75
g3357
sg68
(lp4676
g61
(g82
g63
NtRp4677
(dp4678
g66
(dp4679
g86
g87
ssg75
g4673
sg68
(lp4680
S'session_file'
p4681
asbag61
(g82
g63
NtRp4682
(dp4683
g66
(dp4684
g93
g94
ssg75
g4673
sg68
(lp4685
S':'
asbag61
(g82
g63
NtRp4686
(dp4687
g66
(dp4688
sg75
g4673
sg68
(lp4689
g61
(g62
g63
NtRp4690
(dp4691
g66
(dp4692
g74
I5
ssg75
g4686
sg68
(lp4693
S"<open file '/Users/udimilo/Documents/web2py/applications/udi0312/sessions/127.0.0.1-fcd6a577-d448-4882-b7bc-f353da84ba3b', mode 'rb+' at 0xab57da0>"
p4694
asbasbasbag61
(g77
g63
NtRp4695
(dp4696
g66
(dp4697
sg75
g3357
sg68
(lp4698
g61
(g82
g63
NtRp4699
(dp4700
g66
(dp4701
g86
g87
ssg75
g4695
sg68
(lp4702
S'session_filename'
p4703
asbag61
(g82
g63
NtRp4704
(dp4705
g66
(dp4706
g93
g94
ssg75
g4695
sg68
(lp4707
S':'
asbag61
(g82
g63
NtRp4708
(dp4709
g66
(dp4710
sg75
g4695
sg68
(lp4711
g61
(g62
g63
NtRp4712
(dp4713
g66
(dp4714
g74
I5
ssg75
g4708
sg68
(lp4715
S'/Users/udimilo/Documents/web2py/applications/udi0312/sessions/127.0.0.1-fcd6a577-d448-4882-b7bc-f353da84ba3b'
p4716
asbasbasbag61
(g77
g63
NtRp4717
(dp4718
g66
(dp4719
sg75
g3357
sg68
(lp4720
g61
(g82
g63
NtRp4721
(dp4722
g66
(dp4723
g86
g87
ssg75
g4717
sg68
(lp4724
S'session_id'
p4725
asbag61
(g82
g63
NtRp4726
(dp4727
g66
(dp4728
g93
g94
ssg75
g4717
sg68
(lp4729
S':'
asbag61
(g82
g63
NtRp4730
(dp4731
g66
(dp4732
sg75
g4717
sg68
(lp4733
g61
(g62
g63
NtRp4734
(dp4735
g66
(dp4736
g74
I5
ssg75
g4730
sg68
(lp4737
S'127.0.0.1-fcd6a577-d448-4882-b7bc-f353da84ba3b'
p4738
asbasbasbag61
(g77
g63
NtRp4739
(dp4740
g66
(dp4741
sg75
g3357
sg68
(lp4742
g61
(g82
g63
NtRp4743
(dp4744
g66
(dp4745
g86
g87
ssg75
g4739
sg68
(lp4746
S'session_id_name'
p4747
asbag61
(g82
g63
NtRp4748
(dp4749
g66
(dp4750
g93
g94
ssg75
g4739
sg68
(lp4751
S':'
asbag61
(g82
g63
NtRp4752
(dp4753
g66
(dp4754
sg75
g4739
sg68
(lp4755
g61
(g62
g63
NtRp4756
(dp4757
g66
(dp4758
g74
I5
ssg75
g4752
sg68
(lp4759
g3414
asbasbasbag61
(g77
g63
NtRp4760
(dp4761
g66
(dp4762
sg75
g3357
sg68
(lp4763
g61
(g82
g63
NtRp4764
(dp4765
g66
(dp4766
g86
g87
ssg75
g4760
sg68
(lp4767
S'session_locked'
p4768
asbag61
(g82
g63
NtRp4769
(dp4770
g66
(dp4771
g93
g94
ssg75
g4760
sg68
(lp4772
S':'
asbag61
(g82
g63
NtRp4773
(dp4774
g66
(dp4775
sg75
g4760
sg68
(lp4776
g61
(g62
g63
NtRp4777
(dp4778
g66
(dp4779
g74
I5
ssg75
g4773
sg68
(lp4780
g1520
asbasbasbag61
(g77
g63
NtRp4781
(dp4782
g66
(dp4783
sg75
g3357
sg68
(lp4784
g61
(g82
g63
NtRp4785
(dp4786
g66
(dp4787
g86
g87
ssg75
g4781
sg68
(lp4788
S'session_new'
p4789
asbag61
(g82
g63
NtRp4790
(dp4791
g66
(dp4792
g93
g94
ssg75
g4781
sg68
(lp4793
S':'
asbag61
(g82
g63
NtRp4794
(dp4795
g66
(dp4796
sg75
g4781
sg68
(lp4797
g61
(g62
g63
NtRp4798
(dp4799
g66
(dp4800
g74
I5
ssg75
g4794
sg68
(lp4801
g104
asbasbasbag61
(g77
g63
NtRp4802
(dp4803
g66
(dp4804
sg75
g3357
sg68
(lp4805
g61
(g82
g63
NtRp4806
(dp4807
g66
(dp4808
g86
g87
ssg75
g4802
sg68
(lp4809
S'status'
p4810
asbag61
(g82
g63
NtRp4811
(dp4812
g66
(dp4813
g93
g94
ssg75
g4802
sg68
(lp4814
S':'
asbag61
(g82
g63
NtRp4815
(dp4816
g66
(dp4817
sg75
g4802
sg68
(lp4818
g61
(g62
g63
NtRp4819
(dp4820
g66
(dp4821
g74
I5
ssg75
g4815
sg68
(lp4822
S'200'
p4823
asbasbasbag61
(g77
g63
NtRp4824
(dp4825
g66
(dp4826
sg75
g3357
sg68
(lp4827
g61
(g82
g63
NtRp4828
(dp4829
g66
(dp4830
g86
g87
ssg75
g4824
sg68
(lp4831
S'subtitle'
p4832
asbag61
(g82
g63
NtRp4833
(dp4834
g66
(dp4835
g93
g94
ssg75
g4824
sg68
(lp4836
S':'
asbag61
(g82
g63
NtRp4837
(dp4838
g66
(dp4839
sg75
g4824
sg68
(lp4840
g61
(g62
g63
NtRp4841
(dp4842
g66
(dp4843
g74
I5
ssg75
g4837
sg68
(lp4844
g3894
(S's\r\x00\x00\x00customize me!'
tRp4845
asbasbasbag61
(g77
g63
NtRp4846
(dp4847
g66
(dp4848
sg75
g3357
sg68
(lp4849
g61
(g82
g63
NtRp4850
(dp4851
g66
(dp4852
g86
g87
ssg75
g4846
sg68
(lp4853
S'title'
p4854
asbag61
(g82
g63
NtRp4855
(dp4856
g66
(dp4857
g93
g94
ssg75
g4846
sg68
(lp4858
S':'
asbag61
(g82
g63
NtRp4859
(dp4860
g66
(dp4861
sg75
g4846
sg68
(lp4862
g61
(g62
g63
NtRp4863
(dp4864
g66
(dp4865
g74
I5
ssg75
g4859
sg68
(lp4866
S'Udi0312'
p4867
asbasbasbag61
(g77
g63
NtRp4868
(dp4869
g66
(dp4870
sg75
g3357
sg68
(lp4871
g61
(g82
g63
NtRp4872
(dp4873
g66
(dp4874
g86
g87
ssg75
g4868
sg68
(lp4875
g2183
asbag61
(g82
g63
NtRp4876
(dp4877
g66
(dp4878
g93
g94
ssg75
g4868
sg68
(lp4879
S':'
asbag61
(g82
g63
NtRp4880
(dp4881
g66
(dp4882
sg75
g4868
sg68
(lp4883
g61
(g62
g63
NtRp4884
(dp4885
g66
(dp4886
g74
I5
ssg75
g4880
sg68
(lp4887
g2196
asbasbasbag61
(g77
g63
NtRp4888
(dp4889
g66
(dp4890
sg75
g3357
sg68
(lp4891
g61
(g82
g63
NtRp4892
(dp4893
g66
(dp4894
g86
g87
ssg75
g4888
sg68
(lp4895
S'view'
p4896
asbag61
(g82
g63
NtRp4897
(dp4898
g66
(dp4899
g93
g94
ssg75
g4888
sg68
(lp4900
S':'
asbag61
(g82
g63
NtRp4901
(dp4902
g66
(dp4903
sg75
g4888
sg68
(lp4904
g61
(g62
g63
NtRp4905
(dp4906
g66
(dp4907
g74
I5
ssg75
g4901
sg68
(lp4908
S'default/index.html'
p4909
asbasbasbasbasbsS'locals'
p4910
(dp4911
g4
S"'/Users/udimilo/Documents/web2py/applications/udi0312/views/default/index.html'"
p4912
sg6
S'\'response.write(\\\'<html lan="en">\\\\n<head>\\\\n    <ti...js"></script>\\\\n</body>\\\\n</html>\\\\n\\\', escape=False)\''
p4913
sssS'traceback'
p4914
S'Traceback (most recent call last):\n  File "/users/udimilo/Documents/web2py/gluon/restricted.py", line 204, in restricted\n    ccode = compile2(code,layer)\n  File "/users/udimilo/Documents/web2py/gluon/restricted.py", line 189, in compile2\n    return compile(code.rstrip().replace(\'\\r\\n\',\'\\n\')+\'\\n\', layer, \'exec\')\n  File "/Users/udimilo/Documents/web2py/applications/udi0312/views/default/index.html", line 63\n    response.write(\'">\', escape=False)\n           ^\nSyntaxError: invalid syntax\n'
p4915
s.