(dp1
S'output'
p2
S"<type 'exceptions.KeyError'> 'remove'"
p3
sS'layer'
p4
S'/Users/udimilo/Documents/web2py/applications/udi0312/controllers/default.py'
p5
sS'code'
p6
S'# -*- coding: utf-8 -*-\n# this file is released under public domain and you can use without limitations\n\n#########################################################################\n## This is a samples controller\n## - index is the default action of any application\n## - user is required for authentication and authorization\n## - download is for downloading files uploaded in the db (does streaming)\n## - call exposes all registered services (none by default)\n#########################################################################\nfrom readability import Readability\n\ndef index():\n    articles = db().select(db.article.ALL)\n    categories = db().select(db.category.ALL, orderby=db.category.name)\n    boards = db(db.board.user_id==auth.user.id).select() if auth.user else []\n    return dict(items=articles, categories=categories, boards=boards)\n\ndef addArticle():\n    board = db(db.board.name==request.vars.board).select().first()\n    article = db.article.insert(url=request.vars.url, height=300)\n    pin = db.pin.insert(board_id=board.id, article_id=article.id)\n    return pin.id\n\ndef addBoard():\n    category = db(db.category.name==request.vars.category).select().first()\n    board = db.board.insert(user_id=auth.user.id, category_id=category.id, name=request.vars.boardName)\n    return board.id\n\ndef test():\n    url = request.vars.url\n    article = db(db.article.url == url).select().first()\n    if article is None:\n        read = Readability()\n        json = read.content(url)\n        page = db.page.insert(\n            height=300,\n            url=json[\'url\'],\n            readability_url=json[\'short_url\'],\n            title=json[\'title\'],\n            content=json[\'content\'],\n            domain=json[\'domain\'],\n            author=json[\'author\'],\n            excerpt=json[\'excerpt\'],\n            word_count=json[\'word_count\'],\n            total_pages=json[\'total_pages\'],\n            date_published=json[\'date_published\'],\n            next_page_id=json[\'next_page_id\'],\n            rendered_pages=json[\'rendered_pages\'],            \n            )\n    \n    return article.id\n\ndef users():\n    user = db.auth_user(request.args(0)) or redirect(URL(\'index\'))    \n#    user_boards = db(db.board.id,db.board.user_id == user.id).select()\n#    user_pins = db(db.pin.board_id in user_boards).select()\n        \n    return dict(user=user)\n\ndef articles():\n    article = db.article(request.args(0)) or redirect(URL(\'index\'))\n    return dict(article=article)\n    \ndef boards():\n    board = db.board(request.args(0)) or redirect(URL(\'index\'))\n    return dict(board=board)\n    \ndef follow():\n    follower = auth.user\n    followee = db.auth_user(request.vars.followee)\n    if followee is None:\n        return \'no followee\'\n        \n    rel = db((db.user_user.follower_id == follower.id) & (db.user_user.followee_id == followee.id)).select().first()\n\n    if rel is None:\n        rel = db.user_user.insert(follower_id = follower.id, followee_id = followee.id)\n        return \'added\' #http code\n        \n    return rel #http code\n\ndef unfollow():\n    follower = auth.user\n    followee = db.auth_user(request.vars.followee)\n    if followee is None:\n        return \'no followee\'\n        \n    rel = db((db.user_user.follower_id == follower.id) & (db.user_user.followee_id == followee.id)).select().first()\n    if rel is None:\n        return \'no rel\'\n    \n    db.user_user(rel.id).remove()\n    return \'deleted\'\n            \ndef user():\n    """\n    exposes:\n    http://..../[app]/default/user/login\n    http://..../[app]/default/user/logout\n    http://..../[app]/default/user/register\n    http://..../[app]/default/user/profile\n    http://..../[app]/default/user/retrieve_password\n    http://..../[app]/default/user/change_password\n    use @auth.requires_login()\n        @auth.requires_membership(\'group name\')\n        @auth.requires_permission(\'read\',\'table name\',record_id)\n    to decorate functions that need access control\n    """\n    return dict(form=auth())\n\n\ndef download():\n    """\n    allows downloading of uploaded files\n    http://..../[app]/default/download/[filename]\n    """\n    return response.download(request,db)\n\n\ndef call():\n    """\n    exposes services. for example:\n    http://..../[app]/default/call/jsonrpc\n    decorate with @services.jsonrpc the functions to expose\n    supports xml, json, xmlrpc, jsonrpc, amfrpc, rss, csv\n    """\n    return service()\n\n\n@auth.requires_signature()\ndef data():\n    """\n    http://..../[app]/default/data/tables\n    http://..../[app]/default/data/create/[table]\n    http://..../[app]/default/data/read/[table]/[id]\n    http://..../[app]/default/data/update/[table]/[id]\n    http://..../[app]/default/data/delete/[table]/[id]\n    http://..../[app]/default/data/select/[table]\n    http://..../[app]/default/data/search/[table]\n    but URLs must be signed, i.e. linked with\n      A(\'table\',_href=URL(\'data/tables\',user_signature=True))\n    or with the signed load operator\n      LOAD(\'default\',\'data.load\',args=\'tables\',ajax=True,user_signature=True)\n    """\n    return dict(form=crud())\n\nresponse._vars=response._caller(unfollow)\n'
p7
sS'snapshot'
p8
(dp9
S'exception'
p10
(dp11
S'__hash__'
p12
S"<method-wrapper '__hash__' of exceptions.KeyError object at 0x9ef4170>"
p13
sS'__setattr__'
p14
S"<method-wrapper '__setattr__' of exceptions.KeyError object at 0x9ef4170>"
p15
sS'__reduce_ex__'
p16
S'<built-in method __reduce_ex__ of exceptions.KeyError object at 0x9ef4170>'
p17
sS'__getslice__'
p18
S"<method-wrapper '__getslice__' of exceptions.KeyError object at 0x9ef4170>"
p19
sS'__getitem__'
p20
S"<method-wrapper '__getitem__' of exceptions.KeyError object at 0x9ef4170>"
p21
sS'__setstate__'
p22
S'<built-in method __setstate__ of exceptions.KeyError object at 0x9ef4170>'
p23
sS'__reduce__'
p24
S'<built-in method __reduce__ of exceptions.KeyError object at 0x9ef4170>'
p25
sS'__str__'
p26
S"<method-wrapper '__str__' of exceptions.KeyError object at 0x9ef4170>"
p27
sS'args'
p28
S"('remove',)"
p29
sS'__getattribute__'
p30
S"<method-wrapper '__getattribute__' of exceptions.KeyError object at 0x9ef4170>"
p31
sS'__class__'
p32
S"<type 'exceptions.KeyError'>"
p33
sS'__delattr__'
p34
S"<method-wrapper '__delattr__' of exceptions.KeyError object at 0x9ef4170>"
p35
sS'__repr__'
p36
S"<method-wrapper '__repr__' of exceptions.KeyError object at 0x9ef4170>"
p37
sS'__dict__'
p38
S'{}'
p39
sS'__doc__'
p40
S"'Mapping key not found.'"
p41
sS'__init__'
p42
S"<method-wrapper '__init__' of exceptions.KeyError object at 0x9ef4170>"
p43
sS'__new__'
p44
S'<built-in method __new__ of type object at 0xfff20>'
p45
ssS'evalue'
p46
S"'remove'"
p47
sS'request'
p48
ccopy_reg
_reconstructor
p49
(cgluon.html
BEAUTIFY
p50
c__builtin__
object
p51
NtRp52
(dp53
S'attributes'
p54
(dp55
sS'components'
p56
(lp57
g49
(cgluon.html
TABLE
p58
g51
NtRp59
(dp60
g54
(dp61
S'level'
p62
I5
ssS'parent'
p63
Nsg56
(lp64
g49
(cgluon.html
TR
p65
g51
NtRp66
(dp67
g54
(dp68
sg63
g59
sg56
(lp69
g49
(cgluon.html
TD
p70
g51
NtRp71
(dp72
g54
(dp73
S'_style'
p74
S'font-weight:bold;vertical-align:top'
p75
ssg63
g66
sg56
(lp76
S'ajax'
p77
asbag49
(g70
g51
NtRp78
(dp79
g54
(dp80
S'_valign'
p81
S'top'
p82
ssg63
g66
sg56
(lp83
S':'
asbag49
(g70
g51
NtRp84
(dp85
g54
(dp86
sg63
g66
sg56
(lp87
g49
(g50
g51
NtRp88
(dp89
g54
(dp90
g62
I5
ssg63
g84
sg56
(lp91
S'False'
p92
asbasbasbag49
(g65
g51
NtRp93
(dp94
g54
(dp95
sg63
g59
sg56
(lp96
g49
(g70
g51
NtRp97
(dp98
g54
(dp99
g74
g75
ssg63
g93
sg56
(lp100
S'application'
p101
asbag49
(g70
g51
NtRp102
(dp103
g54
(dp104
g81
g82
ssg63
g93
sg56
(lp105
S':'
asbag49
(g70
g51
NtRp106
(dp107
g54
(dp108
sg63
g93
sg56
(lp109
g49
(g50
g51
NtRp110
(dp111
g54
(dp112
g62
I5
ssg63
g106
sg56
(lp113
S'udi0312'
p114
asbasbasbag49
(g65
g51
NtRp115
(dp116
g54
(dp117
sg63
g59
sg56
(lp118
g49
(g70
g51
NtRp119
(dp120
g54
(dp121
g74
g75
ssg63
g115
sg56
(lp122
g28
asbag49
(g70
g51
NtRp123
(dp124
g54
(dp125
g81
g82
ssg63
g115
sg56
(lp126
S':'
asbag49
(g70
g51
NtRp127
(dp128
g54
(dp129
sg63
g115
sg56
(lp130
g49
(g50
g51
NtRp131
(dp132
g54
(dp133
g62
I5
ssg63
g127
sg56
(lp134
g49
(g58
g51
NtRp135
(dp136
g54
(dp137
g62
I4
ssg63
Nsg56
(lp138
sbasbasbasbag49
(g65
g51
NtRp139
(dp140
g54
(dp141
sg63
g59
sg56
(lp142
g49
(g70
g51
NtRp143
(dp144
g54
(dp145
g74
g75
ssg63
g139
sg56
(lp146
S'body'
p147
asbag49
(g70
g51
NtRp148
(dp149
g54
(dp150
g81
g82
ssg63
g139
sg56
(lp151
S':'
asbag49
(g70
g51
NtRp152
(dp153
g54
(dp154
sg63
g139
sg56
(lp155
g49
(g50
g51
NtRp156
(dp157
g54
(dp158
g62
I5
ssg63
g152
sg56
(lp159
S'<cStringIO.StringO object at 0xa12fe00>'
p160
asbasbasbag49
(g65
g51
NtRp161
(dp162
g54
(dp163
sg63
g59
sg56
(lp164
g49
(g70
g51
NtRp165
(dp166
g54
(dp167
g74
g75
ssg63
g161
sg56
(lp168
S'client'
p169
asbag49
(g70
g51
NtRp170
(dp171
g54
(dp172
g81
g82
ssg63
g161
sg56
(lp173
S':'
asbag49
(g70
g51
NtRp174
(dp175
g54
(dp176
sg63
g161
sg56
(lp177
g49
(g50
g51
NtRp178
(dp179
g54
(dp180
g62
I5
ssg63
g174
sg56
(lp181
S'127.0.0.1'
p182
asbasbasbag49
(g65
g51
NtRp183
(dp184
g54
(dp185
sg63
g59
sg56
(lp186
g49
(g70
g51
NtRp187
(dp188
g54
(dp189
g74
g75
ssg63
g183
sg56
(lp190
S'controller'
p191
asbag49
(g70
g51
NtRp192
(dp193
g54
(dp194
g81
g82
ssg63
g183
sg56
(lp195
S':'
asbag49
(g70
g51
NtRp196
(dp197
g54
(dp198
sg63
g183
sg56
(lp199
g49
(g50
g51
NtRp200
(dp201
g54
(dp202
g62
I5
ssg63
g196
sg56
(lp203
S'default'
p204
asbasbasbag49
(g65
g51
NtRp205
(dp206
g54
(dp207
sg63
g59
sg56
(lp208
g49
(g70
g51
NtRp209
(dp210
g54
(dp211
g74
g75
ssg63
g205
sg56
(lp212
S'cookies'
p213
asbag49
(g70
g51
NtRp214
(dp215
g54
(dp216
g81
g82
ssg63
g205
sg56
(lp217
S':'
asbag49
(g70
g51
NtRp218
(dp219
g54
(dp220
sg63
g205
sg56
(lp221
g49
(g50
g51
NtRp222
(dp223
g54
(dp224
g62
I5
ssg63
g218
sg56
(lp225
g49
(g58
g51
NtRp226
(dp227
g54
(dp228
g62
I4
ssg63
Nsg56
(lp229
g49
(g65
g51
NtRp230
(dp231
g54
(dp232
sg63
g226
sg56
(lp233
g49
(g70
g51
NtRp234
(dp235
g54
(dp236
g74
g75
ssg63
g230
sg56
(lp237
S'session_id_admin'
p238
asbag49
(g70
g51
NtRp239
(dp240
g54
(dp241
g81
g82
ssg63
g230
sg56
(lp242
S':'
asbag49
(g70
g51
NtRp243
(dp244
g54
(dp245
sg63
g230
sg56
(lp246
g49
(g50
g51
NtRp247
(dp248
g54
(dp249
g62
I4
ssg63
g243
sg56
(lp250
g49
(g58
g51
NtRp251
(dp252
g54
(dp253
g62
I3
ssg63
Nsg56
(lp254
g49
(g65
g51
NtRp255
(dp256
g54
(dp257
sg63
g251
sg56
(lp258
g49
(g70
g51
NtRp259
(dp260
g54
(dp261
g74
g75
ssg63
g255
sg56
(lp262
S'comment'
p263
asbag49
(g70
g51
NtRp264
(dp265
g54
(dp266
g81
g82
ssg63
g255
sg56
(lp267
S':'
asbag49
(g70
g51
NtRp268
(dp269
g54
(dp270
sg63
g255
sg56
(lp271
g49
(g50
g51
NtRp272
(dp273
g54
(dp274
g62
I3
ssg63
g268
sg56
(lp275
S''
asbasbasbag49
(g65
g51
NtRp276
(dp277
g54
(dp278
sg63
g251
sg56
(lp279
g49
(g70
g51
NtRp280
(dp281
g54
(dp282
g74
g75
ssg63
g276
sg56
(lp283
S'domain'
p284
asbag49
(g70
g51
NtRp285
(dp286
g54
(dp287
g81
g82
ssg63
g276
sg56
(lp288
S':'
asbag49
(g70
g51
NtRp289
(dp290
g54
(dp291
sg63
g276
sg56
(lp292
g49
(g50
g51
NtRp293
(dp294
g54
(dp295
g62
I3
ssg63
g289
sg56
(lp296
S''
asbasbasbag49
(g65
g51
NtRp297
(dp298
g54
(dp299
sg63
g251
sg56
(lp300
g49
(g70
g51
NtRp301
(dp302
g54
(dp303
g74
g75
ssg63
g297
sg56
(lp304
S'expires'
p305
asbag49
(g70
g51
NtRp306
(dp307
g54
(dp308
g81
g82
ssg63
g297
sg56
(lp309
S':'
asbag49
(g70
g51
NtRp310
(dp311
g54
(dp312
sg63
g297
sg56
(lp313
g49
(g50
g51
NtRp314
(dp315
g54
(dp316
g62
I3
ssg63
g310
sg56
(lp317
S''
asbasbasbag49
(g65
g51
NtRp318
(dp319
g54
(dp320
sg63
g251
sg56
(lp321
g49
(g70
g51
NtRp322
(dp323
g54
(dp324
g74
g75
ssg63
g318
sg56
(lp325
S'max-age'
p326
asbag49
(g70
g51
NtRp327
(dp328
g54
(dp329
g81
g82
ssg63
g318
sg56
(lp330
S':'
asbag49
(g70
g51
NtRp331
(dp332
g54
(dp333
sg63
g318
sg56
(lp334
g49
(g50
g51
NtRp335
(dp336
g54
(dp337
g62
I3
ssg63
g331
sg56
(lp338
S''
asbasbasbag49
(g65
g51
NtRp339
(dp340
g54
(dp341
sg63
g251
sg56
(lp342
g49
(g70
g51
NtRp343
(dp344
g54
(dp345
g74
g75
ssg63
g339
sg56
(lp346
S'path'
p347
asbag49
(g70
g51
NtRp348
(dp349
g54
(dp350
g81
g82
ssg63
g339
sg56
(lp351
S':'
asbag49
(g70
g51
NtRp352
(dp353
g54
(dp354
sg63
g339
sg56
(lp355
g49
(g50
g51
NtRp356
(dp357
g54
(dp358
g62
I3
ssg63
g352
sg56
(lp359
S''
asbasbasbag49
(g65
g51
NtRp360
(dp361
g54
(dp362
sg63
g251
sg56
(lp363
g49
(g70
g51
NtRp364
(dp365
g54
(dp366
g74
g75
ssg63
g360
sg56
(lp367
S'secure'
p368
asbag49
(g70
g51
NtRp369
(dp370
g54
(dp371
g81
g82
ssg63
g360
sg56
(lp372
S':'
asbag49
(g70
g51
NtRp373
(dp374
g54
(dp375
sg63
g360
sg56
(lp376
g49
(g50
g51
NtRp377
(dp378
g54
(dp379
g62
I3
ssg63
g373
sg56
(lp380
S''
asbasbasbag49
(g65
g51
NtRp381
(dp382
g54
(dp383
sg63
g251
sg56
(lp384
g49
(g70
g51
NtRp385
(dp386
g54
(dp387
g74
g75
ssg63
g381
sg56
(lp388
S'version'
p389
asbag49
(g70
g51
NtRp390
(dp391
g54
(dp392
g81
g82
ssg63
g381
sg56
(lp393
S':'
asbag49
(g70
g51
NtRp394
(dp395
g54
(dp396
sg63
g381
sg56
(lp397
g49
(g50
g51
NtRp398
(dp399
g54
(dp400
g62
I3
ssg63
g394
sg56
(lp401
S''
asbasbasbasbasbasbasbag49
(g65
g51
NtRp402
(dp403
g54
(dp404
sg63
g226
sg56
(lp405
g49
(g70
g51
NtRp406
(dp407
g54
(dp408
g74
g75
ssg63
g402
sg56
(lp409
S'session_id_udi0312'
p410
asbag49
(g70
g51
NtRp411
(dp412
g54
(dp413
g81
g82
ssg63
g402
sg56
(lp414
S':'
asbag49
(g70
g51
NtRp415
(dp416
g54
(dp417
sg63
g402
sg56
(lp418
g49
(g50
g51
NtRp419
(dp420
g54
(dp421
g62
I4
ssg63
g415
sg56
(lp422
g49
(g58
g51
NtRp423
(dp424
g54
(dp425
g62
I3
ssg63
Nsg56
(lp426
g49
(g65
g51
NtRp427
(dp428
g54
(dp429
sg63
g423
sg56
(lp430
g49
(g70
g51
NtRp431
(dp432
g54
(dp433
g74
g75
ssg63
g427
sg56
(lp434
g263
asbag49
(g70
g51
NtRp435
(dp436
g54
(dp437
g81
g82
ssg63
g427
sg56
(lp438
S':'
asbag49
(g70
g51
NtRp439
(dp440
g54
(dp441
sg63
g427
sg56
(lp442
g49
(g50
g51
NtRp443
(dp444
g54
(dp445
g62
I3
ssg63
g439
sg56
(lp446
S''
asbasbasbag49
(g65
g51
NtRp447
(dp448
g54
(dp449
sg63
g423
sg56
(lp450
g49
(g70
g51
NtRp451
(dp452
g54
(dp453
g74
g75
ssg63
g447
sg56
(lp454
g284
asbag49
(g70
g51
NtRp455
(dp456
g54
(dp457
g81
g82
ssg63
g447
sg56
(lp458
S':'
asbag49
(g70
g51
NtRp459
(dp460
g54
(dp461
sg63
g447
sg56
(lp462
g49
(g50
g51
NtRp463
(dp464
g54
(dp465
g62
I3
ssg63
g459
sg56
(lp466
S''
asbasbasbag49
(g65
g51
NtRp467
(dp468
g54
(dp469
sg63
g423
sg56
(lp470
g49
(g70
g51
NtRp471
(dp472
g54
(dp473
g74
g75
ssg63
g467
sg56
(lp474
g305
asbag49
(g70
g51
NtRp475
(dp476
g54
(dp477
g81
g82
ssg63
g467
sg56
(lp478
S':'
asbag49
(g70
g51
NtRp479
(dp480
g54
(dp481
sg63
g467
sg56
(lp482
g49
(g50
g51
NtRp483
(dp484
g54
(dp485
g62
I3
ssg63
g479
sg56
(lp486
S''
asbasbasbag49
(g65
g51
NtRp487
(dp488
g54
(dp489
sg63
g423
sg56
(lp490
g49
(g70
g51
NtRp491
(dp492
g54
(dp493
g74
g75
ssg63
g487
sg56
(lp494
g326
asbag49
(g70
g51
NtRp495
(dp496
g54
(dp497
g81
g82
ssg63
g487
sg56
(lp498
S':'
asbag49
(g70
g51
NtRp499
(dp500
g54
(dp501
sg63
g487
sg56
(lp502
g49
(g50
g51
NtRp503
(dp504
g54
(dp505
g62
I3
ssg63
g499
sg56
(lp506
S''
asbasbasbag49
(g65
g51
NtRp507
(dp508
g54
(dp509
sg63
g423
sg56
(lp510
g49
(g70
g51
NtRp511
(dp512
g54
(dp513
g74
g75
ssg63
g507
sg56
(lp514
g347
asbag49
(g70
g51
NtRp515
(dp516
g54
(dp517
g81
g82
ssg63
g507
sg56
(lp518
S':'
asbag49
(g70
g51
NtRp519
(dp520
g54
(dp521
sg63
g507
sg56
(lp522
g49
(g50
g51
NtRp523
(dp524
g54
(dp525
g62
I3
ssg63
g519
sg56
(lp526
S''
asbasbasbag49
(g65
g51
NtRp527
(dp528
g54
(dp529
sg63
g423
sg56
(lp530
g49
(g70
g51
NtRp531
(dp532
g54
(dp533
g74
g75
ssg63
g527
sg56
(lp534
g368
asbag49
(g70
g51
NtRp535
(dp536
g54
(dp537
g81
g82
ssg63
g527
sg56
(lp538
S':'
asbag49
(g70
g51
NtRp539
(dp540
g54
(dp541
sg63
g527
sg56
(lp542
g49
(g50
g51
NtRp543
(dp544
g54
(dp545
g62
I3
ssg63
g539
sg56
(lp546
S''
asbasbasbag49
(g65
g51
NtRp547
(dp548
g54
(dp549
sg63
g423
sg56
(lp550
g49
(g70
g51
NtRp551
(dp552
g54
(dp553
g74
g75
ssg63
g547
sg56
(lp554
g389
asbag49
(g70
g51
NtRp555
(dp556
g54
(dp557
g81
g82
ssg63
g547
sg56
(lp558
S':'
asbag49
(g70
g51
NtRp559
(dp560
g54
(dp561
sg63
g547
sg56
(lp562
g49
(g50
g51
NtRp563
(dp564
g54
(dp565
g62
I3
ssg63
g559
sg56
(lp566
S''
asbasbasbasbasbasbasbasbasbasbasbag49
(g65
g51
NtRp567
(dp568
g54
(dp569
sg63
g59
sg56
(lp570
g49
(g70
g51
NtRp571
(dp572
g54
(dp573
g74
g75
ssg63
g567
sg56
(lp574
S'env'
p575
asbag49
(g70
g51
NtRp576
(dp577
g54
(dp578
g81
g82
ssg63
g567
sg56
(lp579
S':'
asbag49
(g70
g51
NtRp580
(dp581
g54
(dp582
sg63
g567
sg56
(lp583
g49
(g50
g51
NtRp584
(dp585
g54
(dp586
g62
I5
ssg63
g580
sg56
(lp587
g49
(g58
g51
NtRp588
(dp589
g54
(dp590
g62
I4
ssg63
Nsg56
(lp591
g49
(g65
g51
NtRp592
(dp593
g54
(dp594
sg63
g588
sg56
(lp595
g49
(g70
g51
NtRp596
(dp597
g54
(dp598
g74
g75
ssg63
g592
sg56
(lp599
S'app_folders'
p600
asbag49
(g70
g51
NtRp601
(dp602
g54
(dp603
g81
g82
ssg63
g592
sg56
(lp604
S':'
asbag49
(g70
g51
NtRp605
(dp606
g54
(dp607
sg63
g592
sg56
(lp608
g49
(g50
g51
NtRp609
(dp610
g54
(dp611
g62
I4
ssg63
g605
sg56
(lp612
S"set(['/Users/udimilo/Documents/web2py/applications/udi0312/', '/Users/udimilo/Documents/web2py/applications/admin/'])"
p613
asbasbasbag49
(g65
g51
NtRp614
(dp615
g54
(dp616
sg63
g588
sg56
(lp617
g49
(g70
g51
NtRp618
(dp619
g54
(dp620
g74
g75
ssg63
g614
sg56
(lp621
S'applications_parent'
p622
asbag49
(g70
g51
NtRp623
(dp624
g54
(dp625
g81
g82
ssg63
g614
sg56
(lp626
S':'
asbag49
(g70
g51
NtRp627
(dp628
g54
(dp629
sg63
g614
sg56
(lp630
g49
(g50
g51
NtRp631
(dp632
g54
(dp633
g62
I4
ssg63
g627
sg56
(lp634
S'/Users/udimilo/Documents/web2py'
p635
asbasbasbag49
(g65
g51
NtRp636
(dp637
g54
(dp638
sg63
g588
sg56
(lp639
g49
(g70
g51
NtRp640
(dp641
g54
(dp642
g74
g75
ssg63
g636
sg56
(lp643
S'cmd_args'
p644
asbag49
(g70
g51
NtRp645
(dp646
g54
(dp647
g81
g82
ssg63
g636
sg56
(lp648
S':'
asbag49
(g70
g51
NtRp649
(dp650
g54
(dp651
sg63
g636
sg56
(lp652
g49
(g50
g51
NtRp653
(dp654
g54
(dp655
g62
I4
ssg63
g649
sg56
(lp656
g49
(g58
g51
NtRp657
(dp658
g54
(dp659
g62
I3
ssg63
Nsg56
(lp660
sbasbasbasbag49
(g65
g51
NtRp661
(dp662
g54
(dp663
sg63
g588
sg56
(lp664
g49
(g70
g51
NtRp665
(dp666
g54
(dp667
g74
g75
ssg63
g661
sg56
(lp668
S'cmd_options'
p669
asbag49
(g70
g51
NtRp670
(dp671
g54
(dp672
g81
g82
ssg63
g661
sg56
(lp673
S':'
asbag49
(g70
g51
NtRp674
(dp675
g54
(dp676
sg63
g661
sg56
(lp677
g49
(g50
g51
NtRp678
(dp679
g54
(dp680
g62
I4
ssg63
g674
sg56
(lp681
S"<Values at 0x23301c0: {'verbose': False, 'ip': '127.0.0.1', 'shutdown_timeout': 5, 'taskbar': False, 'nocron': False, 'pid_filename': 'httpserver.pid', 'maxthreads': None, 'softcron': False, 'server_name': 'udi-milos-macbook-pro.fritz.box', 'bpython': False, 'nogui': False, 'port': 8000, 'extcron': False, 'debuglevel': 30, 'test': None, 'folder': '/Users/udimilo/Documents/web2py', 'config': '', 'import_models': False, 'winservice': '', 'shell': None, 'run': '', 'log_filename': 'httpserver.log', 'args': [''], 'socket_timeout': 5, 'ssl_ca_certificate': None, 'scheduler': None, 'profiler_filename': None, 'ssl_private_key': '', 'password': '<ask>', 'request_queue_size': 5, 'ssl_certificate': '', 'cronjob': False, 'numthreads': None, 'quiet': False, 'interfaces': None, 'minthreads': None, 'timeout': 10, 'plain': False, 'nobanner': False}>"
p682
asbasbasbag49
(g65
g51
NtRp683
(dp684
g54
(dp685
sg63
g588
sg56
(lp686
g49
(g70
g51
NtRp687
(dp688
g54
(dp689
g74
g75
ssg63
g683
sg56
(lp690
S'db_sessions'
p691
asbag49
(g70
g51
NtRp692
(dp693
g54
(dp694
g81
g82
ssg63
g683
sg56
(lp695
S':'
asbag49
(g70
g51
NtRp696
(dp697
g54
(dp698
sg63
g683
sg56
(lp699
g49
(g50
g51
NtRp700
(dp701
g54
(dp702
g62
I4
ssg63
g696
sg56
(lp703
S'set([])'
p704
asbasbasbag49
(g65
g51
NtRp705
(dp706
g54
(dp707
sg63
g588
sg56
(lp708
g49
(g70
g51
NtRp709
(dp710
g54
(dp711
g74
g75
ssg63
g705
sg56
(lp712
S'debugging'
p713
asbag49
(g70
g51
NtRp714
(dp715
g54
(dp716
g81
g82
ssg63
g705
sg56
(lp717
S':'
asbag49
(g70
g51
NtRp718
(dp719
g54
(dp720
sg63
g705
sg56
(lp721
g49
(g50
g51
NtRp722
(dp723
g54
(dp724
g62
I4
ssg63
g718
sg56
(lp725
g92
asbasbasbag49
(g65
g51
NtRp726
(dp727
g54
(dp728
sg63
g588
sg56
(lp729
g49
(g70
g51
NtRp730
(dp731
g54
(dp732
g74
g75
ssg63
g726
sg56
(lp733
S'gluon_parent'
p734
asbag49
(g70
g51
NtRp735
(dp736
g54
(dp737
g81
g82
ssg63
g726
sg56
(lp738
S':'
asbag49
(g70
g51
NtRp739
(dp740
g54
(dp741
sg63
g726
sg56
(lp742
g49
(g50
g51
NtRp743
(dp744
g54
(dp745
g62
I4
ssg63
g739
sg56
(lp746
S'/Users/udimilo/Documents/web2py'
p747
asbasbasbag49
(g65
g51
NtRp748
(dp749
g54
(dp750
sg63
g588
sg56
(lp751
g49
(g70
g51
NtRp752
(dp753
g54
(dp754
g74
g75
ssg63
g748
sg56
(lp755
S'http_accept'
p756
asbag49
(g70
g51
NtRp757
(dp758
g54
(dp759
g81
g82
ssg63
g748
sg56
(lp760
S':'
asbag49
(g70
g51
NtRp761
(dp762
g54
(dp763
sg63
g748
sg56
(lp764
g49
(g50
g51
NtRp765
(dp766
g54
(dp767
g62
I4
ssg63
g761
sg56
(lp768
S'text/html,application/xhtml+xml,application/xml;q=0.9,*/*;q=0.8'
p769
asbasbasbag49
(g65
g51
NtRp770
(dp771
g54
(dp772
sg63
g588
sg56
(lp773
g49
(g70
g51
NtRp774
(dp775
g54
(dp776
g74
g75
ssg63
g770
sg56
(lp777
S'http_accept_charset'
p778
asbag49
(g70
g51
NtRp779
(dp780
g54
(dp781
g81
g82
ssg63
g770
sg56
(lp782
S':'
asbag49
(g70
g51
NtRp783
(dp784
g54
(dp785
sg63
g770
sg56
(lp786
g49
(g50
g51
NtRp787
(dp788
g54
(dp789
g62
I4
ssg63
g783
sg56
(lp790
S'ISO-8859-1,utf-8;q=0.7,*;q=0.3'
p791
asbasbasbag49
(g65
g51
NtRp792
(dp793
g54
(dp794
sg63
g588
sg56
(lp795
g49
(g70
g51
NtRp796
(dp797
g54
(dp798
g74
g75
ssg63
g792
sg56
(lp799
S'http_accept_encoding'
p800
asbag49
(g70
g51
NtRp801
(dp802
g54
(dp803
g81
g82
ssg63
g792
sg56
(lp804
S':'
asbag49
(g70
g51
NtRp805
(dp806
g54
(dp807
sg63
g792
sg56
(lp808
g49
(g50
g51
NtRp809
(dp810
g54
(dp811
g62
I4
ssg63
g805
sg56
(lp812
S'gzip,deflate,sdch'
p813
asbasbasbag49
(g65
g51
NtRp814
(dp815
g54
(dp816
sg63
g588
sg56
(lp817
g49
(g70
g51
NtRp818
(dp819
g54
(dp820
g74
g75
ssg63
g814
sg56
(lp821
S'http_accept_language'
p822
asbag49
(g70
g51
NtRp823
(dp824
g54
(dp825
g81
g82
ssg63
g814
sg56
(lp826
S':'
asbag49
(g70
g51
NtRp827
(dp828
g54
(dp829
sg63
g814
sg56
(lp830
g49
(g50
g51
NtRp831
(dp832
g54
(dp833
g62
I4
ssg63
g827
sg56
(lp834
S'en-US,en;q=0.8'
p835
asbasbasbag49
(g65
g51
NtRp836
(dp837
g54
(dp838
sg63
g588
sg56
(lp839
g49
(g70
g51
NtRp840
(dp841
g54
(dp842
g74
g75
ssg63
g836
sg56
(lp843
S'http_cache_control'
p844
asbag49
(g70
g51
NtRp845
(dp846
g54
(dp847
g81
g82
ssg63
g836
sg56
(lp848
S':'
asbag49
(g70
g51
NtRp849
(dp850
g54
(dp851
sg63
g836
sg56
(lp852
g49
(g50
g51
NtRp853
(dp854
g54
(dp855
g62
I4
ssg63
g849
sg56
(lp856
S'max-age=0'
p857
asbasbasbag49
(g65
g51
NtRp858
(dp859
g54
(dp860
sg63
g588
sg56
(lp861
g49
(g70
g51
NtRp862
(dp863
g54
(dp864
g74
g75
ssg63
g858
sg56
(lp865
S'http_connection'
p866
asbag49
(g70
g51
NtRp867
(dp868
g54
(dp869
g81
g82
ssg63
g858
sg56
(lp870
S':'
asbag49
(g70
g51
NtRp871
(dp872
g54
(dp873
sg63
g858
sg56
(lp874
g49
(g50
g51
NtRp875
(dp876
g54
(dp877
g62
I4
ssg63
g871
sg56
(lp878
S'keep-alive'
p879
asbasbasbag49
(g65
g51
NtRp880
(dp881
g54
(dp882
sg63
g588
sg56
(lp883
g49
(g70
g51
NtRp884
(dp885
g54
(dp886
g74
g75
ssg63
g880
sg56
(lp887
S'http_cookie'
p888
asbag49
(g70
g51
NtRp889
(dp890
g54
(dp891
g81
g82
ssg63
g880
sg56
(lp892
S':'
asbag49
(g70
g51
NtRp893
(dp894
g54
(dp895
sg63
g880
sg56
(lp896
g49
(g50
g51
NtRp897
(dp898
g54
(dp899
g62
I4
ssg63
g893
sg56
(lp900
S'session_id_udi0312=127.0.0.1-fcd6a577-d448-4882-b7bc-f353da84ba3b; session_id_admin=127.0.0.1-784f21fc-559b-4436-993f-35f35c035db4'
p901
asbasbasbag49
(g65
g51
NtRp902
(dp903
g54
(dp904
sg63
g588
sg56
(lp905
g49
(g70
g51
NtRp906
(dp907
g54
(dp908
g74
g75
ssg63
g902
sg56
(lp909
S'http_host'
p910
asbag49
(g70
g51
NtRp911
(dp912
g54
(dp913
g81
g82
ssg63
g902
sg56
(lp914
S':'
asbag49
(g70
g51
NtRp915
(dp916
g54
(dp917
sg63
g902
sg56
(lp918
g49
(g50
g51
NtRp919
(dp920
g54
(dp921
g62
I4
ssg63
g915
sg56
(lp922
S'127.0.0.1:8000'
p923
asbasbasbag49
(g65
g51
NtRp924
(dp925
g54
(dp926
sg63
g588
sg56
(lp927
g49
(g70
g51
NtRp928
(dp929
g54
(dp930
g74
g75
ssg63
g924
sg56
(lp931
S'http_user_agent'
p932
asbag49
(g70
g51
NtRp933
(dp934
g54
(dp935
g81
g82
ssg63
g924
sg56
(lp936
S':'
asbag49
(g70
g51
NtRp937
(dp938
g54
(dp939
sg63
g924
sg56
(lp940
g49
(g50
g51
NtRp941
(dp942
g54
(dp943
g62
I4
ssg63
g937
sg56
(lp944
S'Mozilla/5.0 (Macintosh; Intel Mac OS X 10_7_3) AppleWebKit/535.11 (KHTML, like Gecko) Chrome/17.0.963.78 Safari/535.11'
p945
asbasbasbag49
(g65
g51
NtRp946
(dp947
g54
(dp948
sg63
g588
sg56
(lp949
g49
(g70
g51
NtRp950
(dp951
g54
(dp952
g74
g75
ssg63
g946
sg56
(lp953
S'is_jython'
p954
asbag49
(g70
g51
NtRp955
(dp956
g54
(dp957
g81
g82
ssg63
g946
sg56
(lp958
S':'
asbag49
(g70
g51
NtRp959
(dp960
g54
(dp961
sg63
g946
sg56
(lp962
g49
(g50
g51
NtRp963
(dp964
g54
(dp965
g62
I4
ssg63
g959
sg56
(lp966
g92
asbasbasbag49
(g65
g51
NtRp967
(dp968
g54
(dp969
sg63
g588
sg56
(lp970
g49
(g70
g51
NtRp971
(dp972
g54
(dp973
g74
g75
ssg63
g967
sg56
(lp974
S'is_pypy'
p975
asbag49
(g70
g51
NtRp976
(dp977
g54
(dp978
g81
g82
ssg63
g967
sg56
(lp979
S':'
asbag49
(g70
g51
NtRp980
(dp981
g54
(dp982
sg63
g967
sg56
(lp983
g49
(g50
g51
NtRp984
(dp985
g54
(dp986
g62
I4
ssg63
g980
sg56
(lp987
g92
asbasbasbag49
(g65
g51
NtRp988
(dp989
g54
(dp990
sg63
g588
sg56
(lp991
g49
(g70
g51
NtRp992
(dp993
g54
(dp994
g74
g75
ssg63
g988
sg56
(lp995
S'path_info'
p996
asbag49
(g70
g51
NtRp997
(dp998
g54
(dp999
g81
g82
ssg63
g988
sg56
(lp1000
S':'
asbag49
(g70
g51
NtRp1001
(dp1002
g54
(dp1003
sg63
g988
sg56
(lp1004
g49
(g50
g51
NtRp1005
(dp1006
g54
(dp1007
g62
I4
ssg63
g1001
sg56
(lp1008
S'/unfollow'
p1009
asbasbasbag49
(g65
g51
NtRp1010
(dp1011
g54
(dp1012
sg63
g588
sg56
(lp1013
g49
(g70
g51
NtRp1014
(dp1015
g54
(dp1016
g74
g75
ssg63
g1010
sg56
(lp1017
S'query_string'
p1018
asbag49
(g70
g51
NtRp1019
(dp1020
g54
(dp1021
g81
g82
ssg63
g1010
sg56
(lp1022
S':'
asbag49
(g70
g51
NtRp1023
(dp1024
g54
(dp1025
sg63
g1010
sg56
(lp1026
g49
(g50
g51
NtRp1027
(dp1028
g54
(dp1029
g62
I4
ssg63
g1023
sg56
(lp1030
S'followee=1'
p1031
asbasbasbag49
(g65
g51
NtRp1032
(dp1033
g54
(dp1034
sg63
g588
sg56
(lp1035
g49
(g70
g51
NtRp1036
(dp1037
g54
(dp1038
g74
g75
ssg63
g1032
sg56
(lp1039
S'remote_addr'
p1040
asbag49
(g70
g51
NtRp1041
(dp1042
g54
(dp1043
g81
g82
ssg63
g1032
sg56
(lp1044
S':'
asbag49
(g70
g51
NtRp1045
(dp1046
g54
(dp1047
sg63
g1032
sg56
(lp1048
g49
(g50
g51
NtRp1049
(dp1050
g54
(dp1051
g62
I4
ssg63
g1045
sg56
(lp1052
g182
asbasbasbag49
(g65
g51
NtRp1053
(dp1054
g54
(dp1055
sg63
g588
sg56
(lp1056
g49
(g70
g51
NtRp1057
(dp1058
g54
(dp1059
g74
g75
ssg63
g1053
sg56
(lp1060
S'remote_port'
p1061
asbag49
(g70
g51
NtRp1062
(dp1063
g54
(dp1064
g81
g82
ssg63
g1053
sg56
(lp1065
S':'
asbag49
(g70
g51
NtRp1066
(dp1067
g54
(dp1068
sg63
g1053
sg56
(lp1069
g49
(g50
g51
NtRp1070
(dp1071
g54
(dp1072
g62
I4
ssg63
g1066
sg56
(lp1073
S'63278'
p1074
asbasbasbag49
(g65
g51
NtRp1075
(dp1076
g54
(dp1077
sg63
g588
sg56
(lp1078
g49
(g70
g51
NtRp1079
(dp1080
g54
(dp1081
g74
g75
ssg63
g1075
sg56
(lp1082
S'request_method'
p1083
asbag49
(g70
g51
NtRp1084
(dp1085
g54
(dp1086
g81
g82
ssg63
g1075
sg56
(lp1087
S':'
asbag49
(g70
g51
NtRp1088
(dp1089
g54
(dp1090
sg63
g1075
sg56
(lp1091
g49
(g50
g51
NtRp1092
(dp1093
g54
(dp1094
g62
I4
ssg63
g1088
sg56
(lp1095
S'GET'
p1096
asbasbasbag49
(g65
g51
NtRp1097
(dp1098
g54
(dp1099
sg63
g588
sg56
(lp1100
g49
(g70
g51
NtRp1101
(dp1102
g54
(dp1103
g74
g75
ssg63
g1097
sg56
(lp1104
S'request_uri'
p1105
asbag49
(g70
g51
NtRp1106
(dp1107
g54
(dp1108
g81
g82
ssg63
g1097
sg56
(lp1109
S':'
asbag49
(g70
g51
NtRp1110
(dp1111
g54
(dp1112
sg63
g1097
sg56
(lp1113
g49
(g50
g51
NtRp1114
(dp1115
g54
(dp1116
g62
I4
ssg63
g1110
sg56
(lp1117
S'/udi0312/default/unfollow?followee=1'
p1118
asbasbasbag49
(g65
g51
NtRp1119
(dp1120
g54
(dp1121
sg63
g588
sg56
(lp1122
g49
(g70
g51
NtRp1123
(dp1124
g54
(dp1125
g74
g75
ssg63
g1119
sg56
(lp1126
S'script_name'
p1127
asbag49
(g70
g51
NtRp1128
(dp1129
g54
(dp1130
g81
g82
ssg63
g1119
sg56
(lp1131
S':'
asbag49
(g70
g51
NtRp1132
(dp1133
g54
(dp1134
sg63
g1119
sg56
(lp1135
g49
(g50
g51
NtRp1136
(dp1137
g54
(dp1138
g62
I4
ssg63
g1132
sg56
(lp1139
S''
asbasbasbag49
(g65
g51
NtRp1140
(dp1141
g54
(dp1142
sg63
g588
sg56
(lp1143
g49
(g70
g51
NtRp1144
(dp1145
g54
(dp1146
g74
g75
ssg63
g1140
sg56
(lp1147
S'server_name'
p1148
asbag49
(g70
g51
NtRp1149
(dp1150
g54
(dp1151
g81
g82
ssg63
g1140
sg56
(lp1152
S':'
asbag49
(g70
g51
NtRp1153
(dp1154
g54
(dp1155
sg63
g1140
sg56
(lp1156
g49
(g50
g51
NtRp1157
(dp1158
g54
(dp1159
g62
I4
ssg63
g1153
sg56
(lp1160
S'udi-milos-macbook-pro.fritz.box'
p1161
asbasbasbag49
(g65
g51
NtRp1162
(dp1163
g54
(dp1164
sg63
g588
sg56
(lp1165
g49
(g70
g51
NtRp1166
(dp1167
g54
(dp1168
g74
g75
ssg63
g1162
sg56
(lp1169
S'server_port'
p1170
asbag49
(g70
g51
NtRp1171
(dp1172
g54
(dp1173
g81
g82
ssg63
g1162
sg56
(lp1174
S':'
asbag49
(g70
g51
NtRp1175
(dp1176
g54
(dp1177
sg63
g1162
sg56
(lp1178
g49
(g50
g51
NtRp1179
(dp1180
g54
(dp1181
g62
I4
ssg63
g1175
sg56
(lp1182
S'8000'
p1183
asbasbasbag49
(g65
g51
NtRp1184
(dp1185
g54
(dp1186
sg63
g588
sg56
(lp1187
g49
(g70
g51
NtRp1188
(dp1189
g54
(dp1190
g74
g75
ssg63
g1184
sg56
(lp1191
S'server_protocol'
p1192
asbag49
(g70
g51
NtRp1193
(dp1194
g54
(dp1195
g81
g82
ssg63
g1184
sg56
(lp1196
S':'
asbag49
(g70
g51
NtRp1197
(dp1198
g54
(dp1199
sg63
g1184
sg56
(lp1200
g49
(g50
g51
NtRp1201
(dp1202
g54
(dp1203
g62
I4
ssg63
g1197
sg56
(lp1204
S'HTTP/1.1'
p1205
asbasbasbag49
(g65
g51
NtRp1206
(dp1207
g54
(dp1208
sg63
g588
sg56
(lp1209
g49
(g70
g51
NtRp1210
(dp1211
g54
(dp1212
g74
g75
ssg63
g1206
sg56
(lp1213
S'server_software'
p1214
asbag49
(g70
g51
NtRp1215
(dp1216
g54
(dp1217
g81
g82
ssg63
g1206
sg56
(lp1218
S':'
asbag49
(g70
g51
NtRp1219
(dp1220
g54
(dp1221
sg63
g1206
sg56
(lp1222
g49
(g50
g51
NtRp1223
(dp1224
g54
(dp1225
g62
I4
ssg63
g1219
sg56
(lp1226
S'Rocket 1.2.4'
p1227
asbasbasbag49
(g65
g51
NtRp1228
(dp1229
g54
(dp1230
sg63
g588
sg56
(lp1231
g49
(g70
g51
NtRp1232
(dp1233
g54
(dp1234
g74
g75
ssg63
g1228
sg56
(lp1235
S'web2py_crontype'
p1236
asbag49
(g70
g51
NtRp1237
(dp1238
g54
(dp1239
g81
g82
ssg63
g1228
sg56
(lp1240
S':'
asbag49
(g70
g51
NtRp1241
(dp1242
g54
(dp1243
sg63
g1228
sg56
(lp1244
g49
(g50
g51
NtRp1245
(dp1246
g54
(dp1247
g62
I4
ssg63
g1241
sg56
(lp1248
S'hard'
p1249
asbasbasbag49
(g65
g51
NtRp1250
(dp1251
g54
(dp1252
sg63
g588
sg56
(lp1253
g49
(g70
g51
NtRp1254
(dp1255
g54
(dp1256
g74
g75
ssg63
g1250
sg56
(lp1257
S'web2py_original_uri'
p1258
asbag49
(g70
g51
NtRp1259
(dp1260
g54
(dp1261
g81
g82
ssg63
g1250
sg56
(lp1262
S':'
asbag49
(g70
g51
NtRp1263
(dp1264
g54
(dp1265
sg63
g1250
sg56
(lp1266
g49
(g50
g51
NtRp1267
(dp1268
g54
(dp1269
g62
I4
ssg63
g1263
sg56
(lp1270
S'/unfollow?followee=1'
p1271
asbasbasbag49
(g65
g51
NtRp1272
(dp1273
g54
(dp1274
sg63
g588
sg56
(lp1275
g49
(g70
g51
NtRp1276
(dp1277
g54
(dp1278
g74
g75
ssg63
g1272
sg56
(lp1279
S'web2py_path'
p1280
asbag49
(g70
g51
NtRp1281
(dp1282
g54
(dp1283
g81
g82
ssg63
g1272
sg56
(lp1284
S':'
asbag49
(g70
g51
NtRp1285
(dp1286
g54
(dp1287
sg63
g1272
sg56
(lp1288
g49
(g50
g51
NtRp1289
(dp1290
g54
(dp1291
g62
I4
ssg63
g1285
sg56
(lp1292
g635
asbasbasbag49
(g65
g51
NtRp1293
(dp1294
g54
(dp1295
sg63
g588
sg56
(lp1296
g49
(g70
g51
NtRp1297
(dp1298
g54
(dp1299
g74
g75
ssg63
g1293
sg56
(lp1300
S'web2py_version'
p1301
asbag49
(g70
g51
NtRp1302
(dp1303
g54
(dp1304
g81
g82
ssg63
g1293
sg56
(lp1305
S':'
asbag49
(g70
g51
NtRp1306
(dp1307
g54
(dp1308
sg63
g1293
sg56
(lp1309
g49
(g50
g51
NtRp1310
(dp1311
g54
(dp1312
g62
I4
ssg63
g1306
sg56
(lp1313
g49
(g58
g51
NtRp1314
(dp1315
g54
(dp1316
g62
I3
ssg63
Nsg56
(lp1317
g49
(g65
g51
NtRp1318
(dp1319
g54
(dp1320
sg63
g1314
sg56
(lp1321
g49
(g70
g51
NtRp1322
(dp1323
g54
(dp1324
sg63
g1318
sg56
(lp1325
g49
(g50
g51
NtRp1326
(dp1327
g54
(dp1328
g62
I3
ssg63
g1322
sg56
(lp1329
S'1'
asbasbasbag49
(g65
g51
NtRp1330
(dp1331
g54
(dp1332
sg63
g1314
sg56
(lp1333
g49
(g70
g51
NtRp1334
(dp1335
g54
(dp1336
sg63
g1330
sg56
(lp1337
g49
(g50
g51
NtRp1338
(dp1339
g54
(dp1340
g62
I3
ssg63
g1334
sg56
(lp1341
S'99'
p1342
asbasbasbag49
(g65
g51
NtRp1343
(dp1344
g54
(dp1345
sg63
g1314
sg56
(lp1346
g49
(g70
g51
NtRp1347
(dp1348
g54
(dp1349
sg63
g1343
sg56
(lp1350
g49
(g50
g51
NtRp1351
(dp1352
g54
(dp1353
g62
I3
ssg63
g1347
sg56
(lp1354
S'7'
asbasbasbag49
(g65
g51
NtRp1355
(dp1356
g54
(dp1357
sg63
g1314
sg56
(lp1358
g49
(g70
g51
NtRp1359
(dp1360
g54
(dp1361
sg63
g1355
sg56
(lp1362
g49
(g50
g51
NtRp1363
(dp1364
g54
(dp1365
g62
I3
ssg63
g1359
sg56
(lp1366
S'datetime.datetime(2012, 3, 4, 22, 12, 8)'
p1367
asbasbasbag49
(g65
g51
NtRp1368
(dp1369
g54
(dp1370
sg63
g1314
sg56
(lp1371
g49
(g70
g51
NtRp1372
(dp1373
g54
(dp1374
sg63
g1368
sg56
(lp1375
g49
(g50
g51
NtRp1376
(dp1377
g54
(dp1378
g62
I3
ssg63
g1372
sg56
(lp1379
S'stable'
p1380
asbasbasbasbasbasbasbag49
(g65
g51
NtRp1381
(dp1382
g54
(dp1383
sg63
g588
sg56
(lp1384
g49
(g70
g51
NtRp1385
(dp1386
g54
(dp1387
g74
g75
ssg63
g1381
sg56
(lp1388
S'wsgi_errors'
p1389
asbag49
(g70
g51
NtRp1390
(dp1391
g54
(dp1392
g81
g82
ssg63
g1381
sg56
(lp1393
S':'
asbag49
(g70
g51
NtRp1394
(dp1395
g54
(dp1396
sg63
g1381
sg56
(lp1397
g49
(g50
g51
NtRp1398
(dp1399
g54
(dp1400
g62
I4
ssg63
g1394
sg56
(lp1401
S"<open file '<stderr>', mode 'w' at 0x4220b0>"
p1402
asbasbasbag49
(g65
g51
NtRp1403
(dp1404
g54
(dp1405
sg63
g588
sg56
(lp1406
g49
(g70
g51
NtRp1407
(dp1408
g54
(dp1409
g74
g75
ssg63
g1403
sg56
(lp1410
S'wsgi_file_wrapper'
p1411
asbag49
(g70
g51
NtRp1412
(dp1413
g54
(dp1414
g81
g82
ssg63
g1403
sg56
(lp1415
S':'
asbag49
(g70
g51
NtRp1416
(dp1417
g54
(dp1418
sg63
g1403
sg56
(lp1419
g49
(g50
g51
NtRp1420
(dp1421
g54
(dp1422
g62
I4
ssg63
g1416
sg56
(lp1423
S'<class wsgiref.util.FileWrapper at 0x22746c0>'
p1424
asbasbasbag49
(g65
g51
NtRp1425
(dp1426
g54
(dp1427
sg63
g588
sg56
(lp1428
g49
(g70
g51
NtRp1429
(dp1430
g54
(dp1431
g74
g75
ssg63
g1425
sg56
(lp1432
S'wsgi_input'
p1433
asbag49
(g70
g51
NtRp1434
(dp1435
g54
(dp1436
g81
g82
ssg63
g1425
sg56
(lp1437
S':'
asbag49
(g70
g51
NtRp1438
(dp1439
g54
(dp1440
sg63
g1425
sg56
(lp1441
g49
(g50
g51
NtRp1442
(dp1443
g54
(dp1444
g62
I4
ssg63
g1438
sg56
(lp1445
S'<socket._fileobject object at 0xa648c30>'
p1446
asbasbasbag49
(g65
g51
NtRp1447
(dp1448
g54
(dp1449
sg63
g588
sg56
(lp1450
g49
(g70
g51
NtRp1451
(dp1452
g54
(dp1453
g74
g75
ssg63
g1447
sg56
(lp1454
S'wsgi_multiprocess'
p1455
asbag49
(g70
g51
NtRp1456
(dp1457
g54
(dp1458
g81
g82
ssg63
g1447
sg56
(lp1459
S':'
asbag49
(g70
g51
NtRp1460
(dp1461
g54
(dp1462
sg63
g1447
sg56
(lp1463
g49
(g50
g51
NtRp1464
(dp1465
g54
(dp1466
g62
I4
ssg63
g1460
sg56
(lp1467
g92
asbasbasbag49
(g65
g51
NtRp1468
(dp1469
g54
(dp1470
sg63
g588
sg56
(lp1471
g49
(g70
g51
NtRp1472
(dp1473
g54
(dp1474
g74
g75
ssg63
g1468
sg56
(lp1475
S'wsgi_multithread'
p1476
asbag49
(g70
g51
NtRp1477
(dp1478
g54
(dp1479
g81
g82
ssg63
g1468
sg56
(lp1480
S':'
asbag49
(g70
g51
NtRp1481
(dp1482
g54
(dp1483
sg63
g1468
sg56
(lp1484
g49
(g50
g51
NtRp1485
(dp1486
g54
(dp1487
g62
I4
ssg63
g1481
sg56
(lp1488
S'True'
p1489
asbasbasbag49
(g65
g51
NtRp1490
(dp1491
g54
(dp1492
sg63
g588
sg56
(lp1493
g49
(g70
g51
NtRp1494
(dp1495
g54
(dp1496
g74
g75
ssg63
g1490
sg56
(lp1497
S'wsgi_run_once'
p1498
asbag49
(g70
g51
NtRp1499
(dp1500
g54
(dp1501
g81
g82
ssg63
g1490
sg56
(lp1502
S':'
asbag49
(g70
g51
NtRp1503
(dp1504
g54
(dp1505
sg63
g1490
sg56
(lp1506
g49
(g50
g51
NtRp1507
(dp1508
g54
(dp1509
g62
I4
ssg63
g1503
sg56
(lp1510
g92
asbasbasbag49
(g65
g51
NtRp1511
(dp1512
g54
(dp1513
sg63
g588
sg56
(lp1514
g49
(g70
g51
NtRp1515
(dp1516
g54
(dp1517
g74
g75
ssg63
g1511
sg56
(lp1518
S'wsgi_url_scheme'
p1519
asbag49
(g70
g51
NtRp1520
(dp1521
g54
(dp1522
g81
g82
ssg63
g1511
sg56
(lp1523
S':'
asbag49
(g70
g51
NtRp1524
(dp1525
g54
(dp1526
sg63
g1511
sg56
(lp1527
g49
(g50
g51
NtRp1528
(dp1529
g54
(dp1530
g62
I4
ssg63
g1524
sg56
(lp1531
S'http'
p1532
asbasbasbag49
(g65
g51
NtRp1533
(dp1534
g54
(dp1535
sg63
g588
sg56
(lp1536
g49
(g70
g51
NtRp1537
(dp1538
g54
(dp1539
g74
g75
ssg63
g1533
sg56
(lp1540
S'wsgi_version'
p1541
asbag49
(g70
g51
NtRp1542
(dp1543
g54
(dp1544
g81
g82
ssg63
g1533
sg56
(lp1545
S':'
asbag49
(g70
g51
NtRp1546
(dp1547
g54
(dp1548
sg63
g1533
sg56
(lp1549
g49
(g50
g51
NtRp1550
(dp1551
g54
(dp1552
g62
I4
ssg63
g1546
sg56
(lp1553
g49
(g58
g51
NtRp1554
(dp1555
g54
(dp1556
g62
I3
ssg63
Nsg56
(lp1557
g49
(g65
g51
NtRp1558
(dp1559
g54
(dp1560
sg63
g1554
sg56
(lp1561
g49
(g70
g51
NtRp1562
(dp1563
g54
(dp1564
sg63
g1558
sg56
(lp1565
g49
(g50
g51
NtRp1566
(dp1567
g54
(dp1568
g62
I3
ssg63
g1562
sg56
(lp1569
S'1'
asbasbasbag49
(g65
g51
NtRp1570
(dp1571
g54
(dp1572
sg63
g1554
sg56
(lp1573
g49
(g70
g51
NtRp1574
(dp1575
g54
(dp1576
sg63
g1570
sg56
(lp1577
g49
(g50
g51
NtRp1578
(dp1579
g54
(dp1580
g62
I3
ssg63
g1574
sg56
(lp1581
S'0'
asbasbasbasbasbasbasbasbasbasbasbag49
(g65
g51
NtRp1582
(dp1583
g54
(dp1584
sg63
g59
sg56
(lp1585
g49
(g70
g51
NtRp1586
(dp1587
g54
(dp1588
g74
g75
ssg63
g1582
sg56
(lp1589
S'extension'
p1590
asbag49
(g70
g51
NtRp1591
(dp1592
g54
(dp1593
g81
g82
ssg63
g1582
sg56
(lp1594
S':'
asbag49
(g70
g51
NtRp1595
(dp1596
g54
(dp1597
sg63
g1582
sg56
(lp1598
g49
(g50
g51
NtRp1599
(dp1600
g54
(dp1601
g62
I5
ssg63
g1595
sg56
(lp1602
S'html'
p1603
asbasbasbag49
(g65
g51
NtRp1604
(dp1605
g54
(dp1606
sg63
g59
sg56
(lp1607
g49
(g70
g51
NtRp1608
(dp1609
g54
(dp1610
g74
g75
ssg63
g1604
sg56
(lp1611
S'folder'
p1612
asbag49
(g70
g51
NtRp1613
(dp1614
g54
(dp1615
g81
g82
ssg63
g1604
sg56
(lp1616
S':'
asbag49
(g70
g51
NtRp1617
(dp1618
g54
(dp1619
sg63
g1604
sg56
(lp1620
g49
(g50
g51
NtRp1621
(dp1622
g54
(dp1623
g62
I5
ssg63
g1617
sg56
(lp1624
S'/Users/udimilo/Documents/web2py/applications/udi0312/'
p1625
asbasbasbag49
(g65
g51
NtRp1626
(dp1627
g54
(dp1628
sg63
g59
sg56
(lp1629
g49
(g70
g51
NtRp1630
(dp1631
g54
(dp1632
g74
g75
ssg63
g1626
sg56
(lp1633
S'function'
p1634
asbag49
(g70
g51
NtRp1635
(dp1636
g54
(dp1637
g81
g82
ssg63
g1626
sg56
(lp1638
S':'
asbag49
(g70
g51
NtRp1639
(dp1640
g54
(dp1641
sg63
g1626
sg56
(lp1642
g49
(g50
g51
NtRp1643
(dp1644
g54
(dp1645
g62
I5
ssg63
g1639
sg56
(lp1646
S'unfollow'
p1647
asbasbasbag49
(g65
g51
NtRp1648
(dp1649
g54
(dp1650
sg63
g59
sg56
(lp1651
g49
(g70
g51
NtRp1652
(dp1653
g54
(dp1654
g74
g75
ssg63
g1648
sg56
(lp1655
S'get_vars'
p1656
asbag49
(g70
g51
NtRp1657
(dp1658
g54
(dp1659
g81
g82
ssg63
g1648
sg56
(lp1660
S':'
asbag49
(g70
g51
NtRp1661
(dp1662
g54
(dp1663
sg63
g1648
sg56
(lp1664
g49
(g50
g51
NtRp1665
(dp1666
g54
(dp1667
g62
I5
ssg63
g1661
sg56
(lp1668
g49
(g58
g51
NtRp1669
(dp1670
g54
(dp1671
g62
I4
ssg63
Nsg56
(lp1672
g49
(g65
g51
NtRp1673
(dp1674
g54
(dp1675
sg63
g1669
sg56
(lp1676
g49
(g70
g51
NtRp1677
(dp1678
g54
(dp1679
g74
g75
ssg63
g1673
sg56
(lp1680
S'followee'
p1681
asbag49
(g70
g51
NtRp1682
(dp1683
g54
(dp1684
g81
g82
ssg63
g1673
sg56
(lp1685
S':'
asbag49
(g70
g51
NtRp1686
(dp1687
g54
(dp1688
sg63
g1673
sg56
(lp1689
g49
(g50
g51
NtRp1690
(dp1691
g54
(dp1692
g62
I4
ssg63
g1686
sg56
(lp1693
S'1'
asbasbasbasbasbasbasbag49
(g65
g51
NtRp1694
(dp1695
g54
(dp1696
sg63
g59
sg56
(lp1697
g49
(g70
g51
NtRp1698
(dp1699
g54
(dp1700
g74
g75
ssg63
g1694
sg56
(lp1701
S'global_settings'
p1702
asbag49
(g70
g51
NtRp1703
(dp1704
g54
(dp1705
g81
g82
ssg63
g1694
sg56
(lp1706
S':'
asbag49
(g70
g51
NtRp1707
(dp1708
g54
(dp1709
sg63
g1694
sg56
(lp1710
g49
(g50
g51
NtRp1711
(dp1712
g54
(dp1713
g62
I5
ssg63
g1707
sg56
(lp1714
g49
(g58
g51
NtRp1715
(dp1716
g54
(dp1717
g62
I4
ssg63
Nsg56
(lp1718
g49
(g65
g51
NtRp1719
(dp1720
g54
(dp1721
sg63
g1715
sg56
(lp1722
g49
(g70
g51
NtRp1723
(dp1724
g54
(dp1725
g74
g75
ssg63
g1719
sg56
(lp1726
g600
asbag49
(g70
g51
NtRp1727
(dp1728
g54
(dp1729
g81
g82
ssg63
g1719
sg56
(lp1730
S':'
asbag49
(g70
g51
NtRp1731
(dp1732
g54
(dp1733
sg63
g1719
sg56
(lp1734
g49
(g50
g51
NtRp1735
(dp1736
g54
(dp1737
g62
I4
ssg63
g1731
sg56
(lp1738
S"set(['/Users/udimilo/Documents/web2py/applications/udi0312/', '/Users/udimilo/Documents/web2py/applications/admin/'])"
p1739
asbasbasbag49
(g65
g51
NtRp1740
(dp1741
g54
(dp1742
sg63
g1715
sg56
(lp1743
g49
(g70
g51
NtRp1744
(dp1745
g54
(dp1746
g74
g75
ssg63
g1740
sg56
(lp1747
g622
asbag49
(g70
g51
NtRp1748
(dp1749
g54
(dp1750
g81
g82
ssg63
g1740
sg56
(lp1751
S':'
asbag49
(g70
g51
NtRp1752
(dp1753
g54
(dp1754
sg63
g1740
sg56
(lp1755
g49
(g50
g51
NtRp1756
(dp1757
g54
(dp1758
g62
I4
ssg63
g1752
sg56
(lp1759
g635
asbasbasbag49
(g65
g51
NtRp1760
(dp1761
g54
(dp1762
sg63
g1715
sg56
(lp1763
g49
(g70
g51
NtRp1764
(dp1765
g54
(dp1766
g74
g75
ssg63
g1760
sg56
(lp1767
g644
asbag49
(g70
g51
NtRp1768
(dp1769
g54
(dp1770
g81
g82
ssg63
g1760
sg56
(lp1771
S':'
asbag49
(g70
g51
NtRp1772
(dp1773
g54
(dp1774
sg63
g1760
sg56
(lp1775
g49
(g50
g51
NtRp1776
(dp1777
g54
(dp1778
g62
I4
ssg63
g1772
sg56
(lp1779
g49
(g58
g51
NtRp1780
(dp1781
g54
(dp1782
g62
I3
ssg63
Nsg56
(lp1783
sbasbasbasbag49
(g65
g51
NtRp1784
(dp1785
g54
(dp1786
sg63
g1715
sg56
(lp1787
g49
(g70
g51
NtRp1788
(dp1789
g54
(dp1790
g74
g75
ssg63
g1784
sg56
(lp1791
g669
asbag49
(g70
g51
NtRp1792
(dp1793
g54
(dp1794
g81
g82
ssg63
g1784
sg56
(lp1795
S':'
asbag49
(g70
g51
NtRp1796
(dp1797
g54
(dp1798
sg63
g1784
sg56
(lp1799
g49
(g50
g51
NtRp1800
(dp1801
g54
(dp1802
g62
I4
ssg63
g1796
sg56
(lp1803
S"<Values at 0x23301c0: {'verbose': False, 'ip': '127.0.0.1', 'shutdown_timeout': 5, 'taskbar': False, 'nocron': False, 'pid_filename': 'httpserver.pid', 'maxthreads': None, 'softcron': False, 'server_name': 'udi-milos-macbook-pro.fritz.box', 'bpython': False, 'nogui': False, 'port': 8000, 'extcron': False, 'debuglevel': 30, 'test': None, 'folder': '/Users/udimilo/Documents/web2py', 'config': '', 'import_models': False, 'winservice': '', 'shell': None, 'run': '', 'log_filename': 'httpserver.log', 'args': [''], 'socket_timeout': 5, 'ssl_ca_certificate': None, 'scheduler': None, 'profiler_filename': None, 'ssl_private_key': '', 'password': '<ask>', 'request_queue_size': 5, 'ssl_certificate': '', 'cronjob': False, 'numthreads': None, 'quiet': False, 'interfaces': None, 'minthreads': None, 'timeout': 10, 'plain': False, 'nobanner': False}>"
p1804
asbasbasbag49
(g65
g51
NtRp1805
(dp1806
g54
(dp1807
sg63
g1715
sg56
(lp1808
g49
(g70
g51
NtRp1809
(dp1810
g54
(dp1811
g74
g75
ssg63
g1805
sg56
(lp1812
g691
asbag49
(g70
g51
NtRp1813
(dp1814
g54
(dp1815
g81
g82
ssg63
g1805
sg56
(lp1816
S':'
asbag49
(g70
g51
NtRp1817
(dp1818
g54
(dp1819
sg63
g1805
sg56
(lp1820
g49
(g50
g51
NtRp1821
(dp1822
g54
(dp1823
g62
I4
ssg63
g1817
sg56
(lp1824
S'set([])'
p1825
asbasbasbag49
(g65
g51
NtRp1826
(dp1827
g54
(dp1828
sg63
g1715
sg56
(lp1829
g49
(g70
g51
NtRp1830
(dp1831
g54
(dp1832
g74
g75
ssg63
g1826
sg56
(lp1833
g713
asbag49
(g70
g51
NtRp1834
(dp1835
g54
(dp1836
g81
g82
ssg63
g1826
sg56
(lp1837
S':'
asbag49
(g70
g51
NtRp1838
(dp1839
g54
(dp1840
sg63
g1826
sg56
(lp1841
g49
(g50
g51
NtRp1842
(dp1843
g54
(dp1844
g62
I4
ssg63
g1838
sg56
(lp1845
g92
asbasbasbag49
(g65
g51
NtRp1846
(dp1847
g54
(dp1848
sg63
g1715
sg56
(lp1849
g49
(g70
g51
NtRp1850
(dp1851
g54
(dp1852
g74
g75
ssg63
g1846
sg56
(lp1853
g734
asbag49
(g70
g51
NtRp1854
(dp1855
g54
(dp1856
g81
g82
ssg63
g1846
sg56
(lp1857
S':'
asbag49
(g70
g51
NtRp1858
(dp1859
g54
(dp1860
sg63
g1846
sg56
(lp1861
g49
(g50
g51
NtRp1862
(dp1863
g54
(dp1864
g62
I4
ssg63
g1858
sg56
(lp1865
g747
asbasbasbag49
(g65
g51
NtRp1866
(dp1867
g54
(dp1868
sg63
g1715
sg56
(lp1869
g49
(g70
g51
NtRp1870
(dp1871
g54
(dp1872
g74
g75
ssg63
g1866
sg56
(lp1873
g954
asbag49
(g70
g51
NtRp1874
(dp1875
g54
(dp1876
g81
g82
ssg63
g1866
sg56
(lp1877
S':'
asbag49
(g70
g51
NtRp1878
(dp1879
g54
(dp1880
sg63
g1866
sg56
(lp1881
g49
(g50
g51
NtRp1882
(dp1883
g54
(dp1884
g62
I4
ssg63
g1878
sg56
(lp1885
g92
asbasbasbag49
(g65
g51
NtRp1886
(dp1887
g54
(dp1888
sg63
g1715
sg56
(lp1889
g49
(g70
g51
NtRp1890
(dp1891
g54
(dp1892
g74
g75
ssg63
g1886
sg56
(lp1893
g975
asbag49
(g70
g51
NtRp1894
(dp1895
g54
(dp1896
g81
g82
ssg63
g1886
sg56
(lp1897
S':'
asbag49
(g70
g51
NtRp1898
(dp1899
g54
(dp1900
sg63
g1886
sg56
(lp1901
g49
(g50
g51
NtRp1902
(dp1903
g54
(dp1904
g62
I4
ssg63
g1898
sg56
(lp1905
g92
asbasbasbag49
(g65
g51
NtRp1906
(dp1907
g54
(dp1908
sg63
g1715
sg56
(lp1909
g49
(g70
g51
NtRp1910
(dp1911
g54
(dp1912
g74
g75
ssg63
g1906
sg56
(lp1913
g1236
asbag49
(g70
g51
NtRp1914
(dp1915
g54
(dp1916
g81
g82
ssg63
g1906
sg56
(lp1917
S':'
asbag49
(g70
g51
NtRp1918
(dp1919
g54
(dp1920
sg63
g1906
sg56
(lp1921
g49
(g50
g51
NtRp1922
(dp1923
g54
(dp1924
g62
I4
ssg63
g1918
sg56
(lp1925
g1249
asbasbasbag49
(g65
g51
NtRp1926
(dp1927
g54
(dp1928
sg63
g1715
sg56
(lp1929
g49
(g70
g51
NtRp1930
(dp1931
g54
(dp1932
g74
g75
ssg63
g1926
sg56
(lp1933
g1301
asbag49
(g70
g51
NtRp1934
(dp1935
g54
(dp1936
g81
g82
ssg63
g1926
sg56
(lp1937
S':'
asbag49
(g70
g51
NtRp1938
(dp1939
g54
(dp1940
sg63
g1926
sg56
(lp1941
g49
(g50
g51
NtRp1942
(dp1943
g54
(dp1944
g62
I4
ssg63
g1938
sg56
(lp1945
g49
(g58
g51
NtRp1946
(dp1947
g54
(dp1948
g62
I3
ssg63
Nsg56
(lp1949
g49
(g65
g51
NtRp1950
(dp1951
g54
(dp1952
sg63
g1946
sg56
(lp1953
g49
(g70
g51
NtRp1954
(dp1955
g54
(dp1956
sg63
g1950
sg56
(lp1957
g49
(g50
g51
NtRp1958
(dp1959
g54
(dp1960
g62
I3
ssg63
g1954
sg56
(lp1961
S'1'
asbasbasbag49
(g65
g51
NtRp1962
(dp1963
g54
(dp1964
sg63
g1946
sg56
(lp1965
g49
(g70
g51
NtRp1966
(dp1967
g54
(dp1968
sg63
g1962
sg56
(lp1969
g49
(g50
g51
NtRp1970
(dp1971
g54
(dp1972
g62
I3
ssg63
g1966
sg56
(lp1973
S'99'
p1974
asbasbasbag49
(g65
g51
NtRp1975
(dp1976
g54
(dp1977
sg63
g1946
sg56
(lp1978
g49
(g70
g51
NtRp1979
(dp1980
g54
(dp1981
sg63
g1975
sg56
(lp1982
g49
(g50
g51
NtRp1983
(dp1984
g54
(dp1985
g62
I3
ssg63
g1979
sg56
(lp1986
S'7'
asbasbasbag49
(g65
g51
NtRp1987
(dp1988
g54
(dp1989
sg63
g1946
sg56
(lp1990
g49
(g70
g51
NtRp1991
(dp1992
g54
(dp1993
sg63
g1987
sg56
(lp1994
g49
(g50
g51
NtRp1995
(dp1996
g54
(dp1997
g62
I3
ssg63
g1991
sg56
(lp1998
S'datetime.datetime(2012, 3, 4, 22, 12, 8)'
p1999
asbasbasbag49
(g65
g51
NtRp2000
(dp2001
g54
(dp2002
sg63
g1946
sg56
(lp2003
g49
(g70
g51
NtRp2004
(dp2005
g54
(dp2006
sg63
g2000
sg56
(lp2007
g49
(g50
g51
NtRp2008
(dp2009
g54
(dp2010
g62
I3
ssg63
g2004
sg56
(lp2011
g1380
asbasbasbasbasbasbasbasbasbasbasbag49
(g65
g51
NtRp2012
(dp2013
g54
(dp2014
sg63
g59
sg56
(lp2015
g49
(g70
g51
NtRp2016
(dp2017
g54
(dp2018
g74
g75
ssg63
g2012
sg56
(lp2019
S'is_https'
p2020
asbag49
(g70
g51
NtRp2021
(dp2022
g54
(dp2023
g81
g82
ssg63
g2012
sg56
(lp2024
S':'
asbag49
(g70
g51
NtRp2025
(dp2026
g54
(dp2027
sg63
g2012
sg56
(lp2028
g49
(g50
g51
NtRp2029
(dp2030
g54
(dp2031
g62
I5
ssg63
g2025
sg56
(lp2032
g92
asbasbasbag49
(g65
g51
NtRp2033
(dp2034
g54
(dp2035
sg63
g59
sg56
(lp2036
g49
(g70
g51
NtRp2037
(dp2038
g54
(dp2039
g74
g75
ssg63
g2033
sg56
(lp2040
S'is_local'
p2041
asbag49
(g70
g51
NtRp2042
(dp2043
g54
(dp2044
g81
g82
ssg63
g2033
sg56
(lp2045
S':'
asbag49
(g70
g51
NtRp2046
(dp2047
g54
(dp2048
sg63
g2033
sg56
(lp2049
g49
(g50
g51
NtRp2050
(dp2051
g54
(dp2052
g62
I5
ssg63
g2046
sg56
(lp2053
g1489
asbasbasbag49
(g65
g51
NtRp2054
(dp2055
g54
(dp2056
sg63
g59
sg56
(lp2057
g49
(g70
g51
NtRp2058
(dp2059
g54
(dp2060
g74
g75
ssg63
g2054
sg56
(lp2061
S'is_restful'
p2062
asbag49
(g70
g51
NtRp2063
(dp2064
g54
(dp2065
g81
g82
ssg63
g2054
sg56
(lp2066
S':'
asbag49
(g70
g51
NtRp2067
(dp2068
g54
(dp2069
sg63
g2054
sg56
(lp2070
g49
(g50
g51
NtRp2071
(dp2072
g54
(dp2073
g62
I5
ssg63
g2067
sg56
(lp2074
g92
asbasbasbag49
(g65
g51
NtRp2075
(dp2076
g54
(dp2077
sg63
g59
sg56
(lp2078
g49
(g70
g51
NtRp2079
(dp2080
g54
(dp2081
g74
g75
ssg63
g2075
sg56
(lp2082
S'now'
p2083
asbag49
(g70
g51
NtRp2084
(dp2085
g54
(dp2086
g81
g82
ssg63
g2075
sg56
(lp2087
S':'
asbag49
(g70
g51
NtRp2088
(dp2089
g54
(dp2090
sg63
g2075
sg56
(lp2091
g49
(g50
g51
NtRp2092
(dp2093
g54
(dp2094
g62
I5
ssg63
g2088
sg56
(lp2095
S'datetime.datetime(2012, 3, 12, 3, 52, 44, 647216)'
p2096
asbasbasbag49
(g65
g51
NtRp2097
(dp2098
g54
(dp2099
sg63
g59
sg56
(lp2100
g49
(g70
g51
NtRp2101
(dp2102
g54
(dp2103
g74
g75
ssg63
g2097
sg56
(lp2104
S'post_vars'
p2105
asbag49
(g70
g51
NtRp2106
(dp2107
g54
(dp2108
g81
g82
ssg63
g2097
sg56
(lp2109
S':'
asbag49
(g70
g51
NtRp2110
(dp2111
g54
(dp2112
sg63
g2097
sg56
(lp2113
g49
(g50
g51
NtRp2114
(dp2115
g54
(dp2116
g62
I5
ssg63
g2110
sg56
(lp2117
g49
(g58
g51
NtRp2118
(dp2119
g54
(dp2120
g62
I4
ssg63
Nsg56
(lp2121
sbasbasbasbag49
(g65
g51
NtRp2122
(dp2123
g54
(dp2124
sg63
g59
sg56
(lp2125
g49
(g70
g51
NtRp2126
(dp2127
g54
(dp2128
g74
g75
ssg63
g2122
sg56
(lp2129
S'url'
p2130
asbag49
(g70
g51
NtRp2131
(dp2132
g54
(dp2133
g81
g82
ssg63
g2122
sg56
(lp2134
S':'
asbag49
(g70
g51
NtRp2135
(dp2136
g54
(dp2137
sg63
g2122
sg56
(lp2138
g49
(g50
g51
NtRp2139
(dp2140
g54
(dp2141
g62
I5
ssg63
g2135
sg56
(lp2142
S'/unfollow'
p2143
asbasbasbag49
(g65
g51
NtRp2144
(dp2145
g54
(dp2146
sg63
g59
sg56
(lp2147
g49
(g70
g51
NtRp2148
(dp2149
g54
(dp2150
g74
g75
ssg63
g2144
sg56
(lp2151
S'utcnow'
p2152
asbag49
(g70
g51
NtRp2153
(dp2154
g54
(dp2155
g81
g82
ssg63
g2144
sg56
(lp2156
S':'
asbag49
(g70
g51
NtRp2157
(dp2158
g54
(dp2159
sg63
g2144
sg56
(lp2160
g49
(g50
g51
NtRp2161
(dp2162
g54
(dp2163
g62
I5
ssg63
g2157
sg56
(lp2164
S'datetime.datetime(2012, 3, 12, 2, 52, 44, 647228)'
p2165
asbasbasbag49
(g65
g51
NtRp2166
(dp2167
g54
(dp2168
sg63
g59
sg56
(lp2169
g49
(g70
g51
NtRp2170
(dp2171
g54
(dp2172
g74
g75
ssg63
g2166
sg56
(lp2173
S'uuid'
p2174
asbag49
(g70
g51
NtRp2175
(dp2176
g54
(dp2177
g81
g82
ssg63
g2166
sg56
(lp2178
S':'
asbag49
(g70
g51
NtRp2179
(dp2180
g54
(dp2181
sg63
g2166
sg56
(lp2182
g49
(g50
g51
NtRp2183
(dp2184
g54
(dp2185
g62
I5
ssg63
g2179
sg56
(lp2186
S'udi0312/127.0.0.1.2012-03-12.03-52-44.ddba1669-5b59-45f0-be2e-7b7ff9b0e48a'
p2187
asbasbasbag49
(g65
g51
NtRp2188
(dp2189
g54
(dp2190
sg63
g59
sg56
(lp2191
g49
(g70
g51
NtRp2192
(dp2193
g54
(dp2194
g74
g75
ssg63
g2188
sg56
(lp2195
S'vars'
p2196
asbag49
(g70
g51
NtRp2197
(dp2198
g54
(dp2199
g81
g82
ssg63
g2188
sg56
(lp2200
S':'
asbag49
(g70
g51
NtRp2201
(dp2202
g54
(dp2203
sg63
g2188
sg56
(lp2204
g49
(g50
g51
NtRp2205
(dp2206
g54
(dp2207
g62
I5
ssg63
g2201
sg56
(lp2208
g49
(g58
g51
NtRp2209
(dp2210
g54
(dp2211
g62
I4
ssg63
Nsg56
(lp2212
g49
(g65
g51
NtRp2213
(dp2214
g54
(dp2215
sg63
g2209
sg56
(lp2216
g49
(g70
g51
NtRp2217
(dp2218
g54
(dp2219
g74
g75
ssg63
g2213
sg56
(lp2220
g1681
asbag49
(g70
g51
NtRp2221
(dp2222
g54
(dp2223
g81
g82
ssg63
g2213
sg56
(lp2224
S':'
asbag49
(g70
g51
NtRp2225
(dp2226
g54
(dp2227
sg63
g2213
sg56
(lp2228
g49
(g50
g51
NtRp2229
(dp2230
g54
(dp2231
g62
I4
ssg63
g2225
sg56
(lp2232
S'1'
asbasbasbasbasbasbasbag49
(g65
g51
NtRp2233
(dp2234
g54
(dp2235
sg63
g59
sg56
(lp2236
g49
(g70
g51
NtRp2237
(dp2238
g54
(dp2239
g74
g75
ssg63
g2233
sg56
(lp2240
S'wsgi'
p2241
asbag49
(g70
g51
NtRp2242
(dp2243
g54
(dp2244
g81
g82
ssg63
g2233
sg56
(lp2245
S':'
asbag49
(g70
g51
NtRp2246
(dp2247
g54
(dp2248
sg63
g2233
sg56
(lp2249
g49
(g50
g51
NtRp2250
(dp2251
g54
(dp2252
g62
I5
ssg63
g2246
sg56
(lp2253
g49
(g58
g51
NtRp2254
(dp2255
g54
(dp2256
g62
I4
ssg63
Nsg56
(lp2257
g49
(g65
g51
NtRp2258
(dp2259
g54
(dp2260
sg63
g2254
sg56
(lp2261
g49
(g70
g51
NtRp2262
(dp2263
g54
(dp2264
g74
g75
ssg63
g2258
sg56
(lp2265
S'environ'
p2266
asbag49
(g70
g51
NtRp2267
(dp2268
g54
(dp2269
g81
g82
ssg63
g2258
sg56
(lp2270
S':'
asbag49
(g70
g51
NtRp2271
(dp2272
g54
(dp2273
sg63
g2258
sg56
(lp2274
g49
(g50
g51
NtRp2275
(dp2276
g54
(dp2277
g62
I4
ssg63
g2271
sg56
(lp2278
g49
(g58
g51
NtRp2279
(dp2280
g54
(dp2281
g62
I3
ssg63
Nsg56
(lp2282
g49
(g65
g51
NtRp2283
(dp2284
g54
(dp2285
sg63
g2279
sg56
(lp2286
g49
(g70
g51
NtRp2287
(dp2288
g54
(dp2289
g74
g75
ssg63
g2283
sg56
(lp2290
S'HTTP_ACCEPT'
p2291
asbag49
(g70
g51
NtRp2292
(dp2293
g54
(dp2294
g81
g82
ssg63
g2283
sg56
(lp2295
S':'
asbag49
(g70
g51
NtRp2296
(dp2297
g54
(dp2298
sg63
g2283
sg56
(lp2299
g49
(g50
g51
NtRp2300
(dp2301
g54
(dp2302
g62
I3
ssg63
g2296
sg56
(lp2303
g769
asbasbasbag49
(g65
g51
NtRp2304
(dp2305
g54
(dp2306
sg63
g2279
sg56
(lp2307
g49
(g70
g51
NtRp2308
(dp2309
g54
(dp2310
g74
g75
ssg63
g2304
sg56
(lp2311
S'HTTP_ACCEPT_CHARSET'
p2312
asbag49
(g70
g51
NtRp2313
(dp2314
g54
(dp2315
g81
g82
ssg63
g2304
sg56
(lp2316
S':'
asbag49
(g70
g51
NtRp2317
(dp2318
g54
(dp2319
sg63
g2304
sg56
(lp2320
g49
(g50
g51
NtRp2321
(dp2322
g54
(dp2323
g62
I3
ssg63
g2317
sg56
(lp2324
g791
asbasbasbag49
(g65
g51
NtRp2325
(dp2326
g54
(dp2327
sg63
g2279
sg56
(lp2328
g49
(g70
g51
NtRp2329
(dp2330
g54
(dp2331
g74
g75
ssg63
g2325
sg56
(lp2332
S'HTTP_ACCEPT_ENCODING'
p2333
asbag49
(g70
g51
NtRp2334
(dp2335
g54
(dp2336
g81
g82
ssg63
g2325
sg56
(lp2337
S':'
asbag49
(g70
g51
NtRp2338
(dp2339
g54
(dp2340
sg63
g2325
sg56
(lp2341
g49
(g50
g51
NtRp2342
(dp2343
g54
(dp2344
g62
I3
ssg63
g2338
sg56
(lp2345
g813
asbasbasbag49
(g65
g51
NtRp2346
(dp2347
g54
(dp2348
sg63
g2279
sg56
(lp2349
g49
(g70
g51
NtRp2350
(dp2351
g54
(dp2352
g74
g75
ssg63
g2346
sg56
(lp2353
S'HTTP_ACCEPT_LANGUAGE'
p2354
asbag49
(g70
g51
NtRp2355
(dp2356
g54
(dp2357
g81
g82
ssg63
g2346
sg56
(lp2358
S':'
asbag49
(g70
g51
NtRp2359
(dp2360
g54
(dp2361
sg63
g2346
sg56
(lp2362
g49
(g50
g51
NtRp2363
(dp2364
g54
(dp2365
g62
I3
ssg63
g2359
sg56
(lp2366
g835
asbasbasbag49
(g65
g51
NtRp2367
(dp2368
g54
(dp2369
sg63
g2279
sg56
(lp2370
g49
(g70
g51
NtRp2371
(dp2372
g54
(dp2373
g74
g75
ssg63
g2367
sg56
(lp2374
S'HTTP_CACHE_CONTROL'
p2375
asbag49
(g70
g51
NtRp2376
(dp2377
g54
(dp2378
g81
g82
ssg63
g2367
sg56
(lp2379
S':'
asbag49
(g70
g51
NtRp2380
(dp2381
g54
(dp2382
sg63
g2367
sg56
(lp2383
g49
(g50
g51
NtRp2384
(dp2385
g54
(dp2386
g62
I3
ssg63
g2380
sg56
(lp2387
g857
asbasbasbag49
(g65
g51
NtRp2388
(dp2389
g54
(dp2390
sg63
g2279
sg56
(lp2391
g49
(g70
g51
NtRp2392
(dp2393
g54
(dp2394
g74
g75
ssg63
g2388
sg56
(lp2395
S'HTTP_CONNECTION'
p2396
asbag49
(g70
g51
NtRp2397
(dp2398
g54
(dp2399
g81
g82
ssg63
g2388
sg56
(lp2400
S':'
asbag49
(g70
g51
NtRp2401
(dp2402
g54
(dp2403
sg63
g2388
sg56
(lp2404
g49
(g50
g51
NtRp2405
(dp2406
g54
(dp2407
g62
I3
ssg63
g2401
sg56
(lp2408
g879
asbasbasbag49
(g65
g51
NtRp2409
(dp2410
g54
(dp2411
sg63
g2279
sg56
(lp2412
g49
(g70
g51
NtRp2413
(dp2414
g54
(dp2415
g74
g75
ssg63
g2409
sg56
(lp2416
S'HTTP_COOKIE'
p2417
asbag49
(g70
g51
NtRp2418
(dp2419
g54
(dp2420
g81
g82
ssg63
g2409
sg56
(lp2421
S':'
asbag49
(g70
g51
NtRp2422
(dp2423
g54
(dp2424
sg63
g2409
sg56
(lp2425
g49
(g50
g51
NtRp2426
(dp2427
g54
(dp2428
g62
I3
ssg63
g2422
sg56
(lp2429
g901
asbasbasbag49
(g65
g51
NtRp2430
(dp2431
g54
(dp2432
sg63
g2279
sg56
(lp2433
g49
(g70
g51
NtRp2434
(dp2435
g54
(dp2436
g74
g75
ssg63
g2430
sg56
(lp2437
S'HTTP_HOST'
p2438
asbag49
(g70
g51
NtRp2439
(dp2440
g54
(dp2441
g81
g82
ssg63
g2430
sg56
(lp2442
S':'
asbag49
(g70
g51
NtRp2443
(dp2444
g54
(dp2445
sg63
g2430
sg56
(lp2446
g49
(g50
g51
NtRp2447
(dp2448
g54
(dp2449
g62
I3
ssg63
g2443
sg56
(lp2450
g923
asbasbasbag49
(g65
g51
NtRp2451
(dp2452
g54
(dp2453
sg63
g2279
sg56
(lp2454
g49
(g70
g51
NtRp2455
(dp2456
g54
(dp2457
g74
g75
ssg63
g2451
sg56
(lp2458
S'HTTP_USER_AGENT'
p2459
asbag49
(g70
g51
NtRp2460
(dp2461
g54
(dp2462
g81
g82
ssg63
g2451
sg56
(lp2463
S':'
asbag49
(g70
g51
NtRp2464
(dp2465
g54
(dp2466
sg63
g2451
sg56
(lp2467
g49
(g50
g51
NtRp2468
(dp2469
g54
(dp2470
g62
I3
ssg63
g2464
sg56
(lp2471
g945
asbasbasbag49
(g65
g51
NtRp2472
(dp2473
g54
(dp2474
sg63
g2279
sg56
(lp2475
g49
(g70
g51
NtRp2476
(dp2477
g54
(dp2478
g74
g75
ssg63
g2472
sg56
(lp2479
S'PATH_INFO'
p2480
asbag49
(g70
g51
NtRp2481
(dp2482
g54
(dp2483
g81
g82
ssg63
g2472
sg56
(lp2484
S':'
asbag49
(g70
g51
NtRp2485
(dp2486
g54
(dp2487
sg63
g2472
sg56
(lp2488
g49
(g50
g51
NtRp2489
(dp2490
g54
(dp2491
g62
I3
ssg63
g2485
sg56
(lp2492
g1009
asbasbasbag49
(g65
g51
NtRp2493
(dp2494
g54
(dp2495
sg63
g2279
sg56
(lp2496
g49
(g70
g51
NtRp2497
(dp2498
g54
(dp2499
g74
g75
ssg63
g2493
sg56
(lp2500
S'QUERY_STRING'
p2501
asbag49
(g70
g51
NtRp2502
(dp2503
g54
(dp2504
g81
g82
ssg63
g2493
sg56
(lp2505
S':'
asbag49
(g70
g51
NtRp2506
(dp2507
g54
(dp2508
sg63
g2493
sg56
(lp2509
g49
(g50
g51
NtRp2510
(dp2511
g54
(dp2512
g62
I3
ssg63
g2506
sg56
(lp2513
g1031
asbasbasbag49
(g65
g51
NtRp2514
(dp2515
g54
(dp2516
sg63
g2279
sg56
(lp2517
g49
(g70
g51
NtRp2518
(dp2519
g54
(dp2520
g74
g75
ssg63
g2514
sg56
(lp2521
S'REMOTE_ADDR'
p2522
asbag49
(g70
g51
NtRp2523
(dp2524
g54
(dp2525
g81
g82
ssg63
g2514
sg56
(lp2526
S':'
asbag49
(g70
g51
NtRp2527
(dp2528
g54
(dp2529
sg63
g2514
sg56
(lp2530
g49
(g50
g51
NtRp2531
(dp2532
g54
(dp2533
g62
I3
ssg63
g2527
sg56
(lp2534
g182
asbasbasbag49
(g65
g51
NtRp2535
(dp2536
g54
(dp2537
sg63
g2279
sg56
(lp2538
g49
(g70
g51
NtRp2539
(dp2540
g54
(dp2541
g74
g75
ssg63
g2535
sg56
(lp2542
S'REMOTE_PORT'
p2543
asbag49
(g70
g51
NtRp2544
(dp2545
g54
(dp2546
g81
g82
ssg63
g2535
sg56
(lp2547
S':'
asbag49
(g70
g51
NtRp2548
(dp2549
g54
(dp2550
sg63
g2535
sg56
(lp2551
g49
(g50
g51
NtRp2552
(dp2553
g54
(dp2554
g62
I3
ssg63
g2548
sg56
(lp2555
g1074
asbasbasbag49
(g65
g51
NtRp2556
(dp2557
g54
(dp2558
sg63
g2279
sg56
(lp2559
g49
(g70
g51
NtRp2560
(dp2561
g54
(dp2562
g74
g75
ssg63
g2556
sg56
(lp2563
S'REQUEST_METHOD'
p2564
asbag49
(g70
g51
NtRp2565
(dp2566
g54
(dp2567
g81
g82
ssg63
g2556
sg56
(lp2568
S':'
asbag49
(g70
g51
NtRp2569
(dp2570
g54
(dp2571
sg63
g2556
sg56
(lp2572
g49
(g50
g51
NtRp2573
(dp2574
g54
(dp2575
g62
I3
ssg63
g2569
sg56
(lp2576
g1096
asbasbasbag49
(g65
g51
NtRp2577
(dp2578
g54
(dp2579
sg63
g2279
sg56
(lp2580
g49
(g70
g51
NtRp2581
(dp2582
g54
(dp2583
g74
g75
ssg63
g2577
sg56
(lp2584
S'REQUEST_URI'
p2585
asbag49
(g70
g51
NtRp2586
(dp2587
g54
(dp2588
g81
g82
ssg63
g2577
sg56
(lp2589
S':'
asbag49
(g70
g51
NtRp2590
(dp2591
g54
(dp2592
sg63
g2577
sg56
(lp2593
g49
(g50
g51
NtRp2594
(dp2595
g54
(dp2596
g62
I3
ssg63
g2590
sg56
(lp2597
g1118
asbasbasbag49
(g65
g51
NtRp2598
(dp2599
g54
(dp2600
sg63
g2279
sg56
(lp2601
g49
(g70
g51
NtRp2602
(dp2603
g54
(dp2604
g74
g75
ssg63
g2598
sg56
(lp2605
S'SCRIPT_NAME'
p2606
asbag49
(g70
g51
NtRp2607
(dp2608
g54
(dp2609
g81
g82
ssg63
g2598
sg56
(lp2610
S':'
asbag49
(g70
g51
NtRp2611
(dp2612
g54
(dp2613
sg63
g2598
sg56
(lp2614
g49
(g50
g51
NtRp2615
(dp2616
g54
(dp2617
g62
I3
ssg63
g2611
sg56
(lp2618
S''
asbasbasbag49
(g65
g51
NtRp2619
(dp2620
g54
(dp2621
sg63
g2279
sg56
(lp2622
g49
(g70
g51
NtRp2623
(dp2624
g54
(dp2625
g74
g75
ssg63
g2619
sg56
(lp2626
S'SERVER_NAME'
p2627
asbag49
(g70
g51
NtRp2628
(dp2629
g54
(dp2630
g81
g82
ssg63
g2619
sg56
(lp2631
S':'
asbag49
(g70
g51
NtRp2632
(dp2633
g54
(dp2634
sg63
g2619
sg56
(lp2635
g49
(g50
g51
NtRp2636
(dp2637
g54
(dp2638
g62
I3
ssg63
g2632
sg56
(lp2639
g1161
asbasbasbag49
(g65
g51
NtRp2640
(dp2641
g54
(dp2642
sg63
g2279
sg56
(lp2643
g49
(g70
g51
NtRp2644
(dp2645
g54
(dp2646
g74
g75
ssg63
g2640
sg56
(lp2647
S'SERVER_PORT'
p2648
asbag49
(g70
g51
NtRp2649
(dp2650
g54
(dp2651
g81
g82
ssg63
g2640
sg56
(lp2652
S':'
asbag49
(g70
g51
NtRp2653
(dp2654
g54
(dp2655
sg63
g2640
sg56
(lp2656
g49
(g50
g51
NtRp2657
(dp2658
g54
(dp2659
g62
I3
ssg63
g2653
sg56
(lp2660
g1183
asbasbasbag49
(g65
g51
NtRp2661
(dp2662
g54
(dp2663
sg63
g2279
sg56
(lp2664
g49
(g70
g51
NtRp2665
(dp2666
g54
(dp2667
g74
g75
ssg63
g2661
sg56
(lp2668
S'SERVER_PROTOCOL'
p2669
asbag49
(g70
g51
NtRp2670
(dp2671
g54
(dp2672
g81
g82
ssg63
g2661
sg56
(lp2673
S':'
asbag49
(g70
g51
NtRp2674
(dp2675
g54
(dp2676
sg63
g2661
sg56
(lp2677
g49
(g50
g51
NtRp2678
(dp2679
g54
(dp2680
g62
I3
ssg63
g2674
sg56
(lp2681
g1205
asbasbasbag49
(g65
g51
NtRp2682
(dp2683
g54
(dp2684
sg63
g2279
sg56
(lp2685
g49
(g70
g51
NtRp2686
(dp2687
g54
(dp2688
g74
g75
ssg63
g2682
sg56
(lp2689
S'SERVER_SOFTWARE'
p2690
asbag49
(g70
g51
NtRp2691
(dp2692
g54
(dp2693
g81
g82
ssg63
g2682
sg56
(lp2694
S':'
asbag49
(g70
g51
NtRp2695
(dp2696
g54
(dp2697
sg63
g2682
sg56
(lp2698
g49
(g50
g51
NtRp2699
(dp2700
g54
(dp2701
g62
I3
ssg63
g2695
sg56
(lp2702
g1227
asbasbasbag49
(g65
g51
NtRp2703
(dp2704
g54
(dp2705
sg63
g2279
sg56
(lp2706
g49
(g70
g51
NtRp2707
(dp2708
g54
(dp2709
g74
g75
ssg63
g2703
sg56
(lp2710
S'WEB2PY_ORIGINAL_URI'
p2711
asbag49
(g70
g51
NtRp2712
(dp2713
g54
(dp2714
g81
g82
ssg63
g2703
sg56
(lp2715
S':'
asbag49
(g70
g51
NtRp2716
(dp2717
g54
(dp2718
sg63
g2703
sg56
(lp2719
g49
(g50
g51
NtRp2720
(dp2721
g54
(dp2722
g62
I3
ssg63
g2716
sg56
(lp2723
g1271
asbasbasbag49
(g65
g51
NtRp2724
(dp2725
g54
(dp2726
sg63
g2279
sg56
(lp2727
g49
(g70
g51
NtRp2728
(dp2729
g54
(dp2730
g74
g75
ssg63
g2724
sg56
(lp2731
S'wsgi.errors'
p2732
asbag49
(g70
g51
NtRp2733
(dp2734
g54
(dp2735
g81
g82
ssg63
g2724
sg56
(lp2736
S':'
asbag49
(g70
g51
NtRp2737
(dp2738
g54
(dp2739
sg63
g2724
sg56
(lp2740
g49
(g50
g51
NtRp2741
(dp2742
g54
(dp2743
g62
I3
ssg63
g2737
sg56
(lp2744
S"<open file '<stderr>', mode 'w' at 0x4220b0>"
p2745
asbasbasbag49
(g65
g51
NtRp2746
(dp2747
g54
(dp2748
sg63
g2279
sg56
(lp2749
g49
(g70
g51
NtRp2750
(dp2751
g54
(dp2752
g74
g75
ssg63
g2746
sg56
(lp2753
S'wsgi.file_wrapper'
p2754
asbag49
(g70
g51
NtRp2755
(dp2756
g54
(dp2757
g81
g82
ssg63
g2746
sg56
(lp2758
S':'
asbag49
(g70
g51
NtRp2759
(dp2760
g54
(dp2761
sg63
g2746
sg56
(lp2762
g49
(g50
g51
NtRp2763
(dp2764
g54
(dp2765
g62
I3
ssg63
g2759
sg56
(lp2766
S'<class wsgiref.util.FileWrapper at 0x22746c0>'
p2767
asbasbasbag49
(g65
g51
NtRp2768
(dp2769
g54
(dp2770
sg63
g2279
sg56
(lp2771
g49
(g70
g51
NtRp2772
(dp2773
g54
(dp2774
g74
g75
ssg63
g2768
sg56
(lp2775
S'wsgi.input'
p2776
asbag49
(g70
g51
NtRp2777
(dp2778
g54
(dp2779
g81
g82
ssg63
g2768
sg56
(lp2780
S':'
asbag49
(g70
g51
NtRp2781
(dp2782
g54
(dp2783
sg63
g2768
sg56
(lp2784
g49
(g50
g51
NtRp2785
(dp2786
g54
(dp2787
g62
I3
ssg63
g2781
sg56
(lp2788
S'<cStringIO.StringO object at 0xa12fe00>'
p2789
asbasbasbag49
(g65
g51
NtRp2790
(dp2791
g54
(dp2792
sg63
g2279
sg56
(lp2793
g49
(g70
g51
NtRp2794
(dp2795
g54
(dp2796
g74
g75
ssg63
g2790
sg56
(lp2797
S'wsgi.multiprocess'
p2798
asbag49
(g70
g51
NtRp2799
(dp2800
g54
(dp2801
g81
g82
ssg63
g2790
sg56
(lp2802
S':'
asbag49
(g70
g51
NtRp2803
(dp2804
g54
(dp2805
sg63
g2790
sg56
(lp2806
g49
(g50
g51
NtRp2807
(dp2808
g54
(dp2809
g62
I3
ssg63
g2803
sg56
(lp2810
g92
asbasbasbag49
(g65
g51
NtRp2811
(dp2812
g54
(dp2813
sg63
g2279
sg56
(lp2814
g49
(g70
g51
NtRp2815
(dp2816
g54
(dp2817
g74
g75
ssg63
g2811
sg56
(lp2818
S'wsgi.multithread'
p2819
asbag49
(g70
g51
NtRp2820
(dp2821
g54
(dp2822
g81
g82
ssg63
g2811
sg56
(lp2823
S':'
asbag49
(g70
g51
NtRp2824
(dp2825
g54
(dp2826
sg63
g2811
sg56
(lp2827
g49
(g50
g51
NtRp2828
(dp2829
g54
(dp2830
g62
I3
ssg63
g2824
sg56
(lp2831
g1489
asbasbasbag49
(g65
g51
NtRp2832
(dp2833
g54
(dp2834
sg63
g2279
sg56
(lp2835
g49
(g70
g51
NtRp2836
(dp2837
g54
(dp2838
g74
g75
ssg63
g2832
sg56
(lp2839
S'wsgi.run_once'
p2840
asbag49
(g70
g51
NtRp2841
(dp2842
g54
(dp2843
g81
g82
ssg63
g2832
sg56
(lp2844
S':'
asbag49
(g70
g51
NtRp2845
(dp2846
g54
(dp2847
sg63
g2832
sg56
(lp2848
g49
(g50
g51
NtRp2849
(dp2850
g54
(dp2851
g62
I3
ssg63
g2845
sg56
(lp2852
g92
asbasbasbag49
(g65
g51
NtRp2853
(dp2854
g54
(dp2855
sg63
g2279
sg56
(lp2856
g49
(g70
g51
NtRp2857
(dp2858
g54
(dp2859
g74
g75
ssg63
g2853
sg56
(lp2860
S'wsgi.url_scheme'
p2861
asbag49
(g70
g51
NtRp2862
(dp2863
g54
(dp2864
g81
g82
ssg63
g2853
sg56
(lp2865
S':'
asbag49
(g70
g51
NtRp2866
(dp2867
g54
(dp2868
sg63
g2853
sg56
(lp2869
g49
(g50
g51
NtRp2870
(dp2871
g54
(dp2872
g62
I3
ssg63
g2866
sg56
(lp2873
g1532
asbasbasbag49
(g65
g51
NtRp2874
(dp2875
g54
(dp2876
sg63
g2279
sg56
(lp2877
g49
(g70
g51
NtRp2878
(dp2879
g54
(dp2880
g74
g75
ssg63
g2874
sg56
(lp2881
S'wsgi.version'
p2882
asbag49
(g70
g51
NtRp2883
(dp2884
g54
(dp2885
g81
g82
ssg63
g2874
sg56
(lp2886
S':'
asbag49
(g70
g51
NtRp2887
(dp2888
g54
(dp2889
sg63
g2874
sg56
(lp2890
g49
(g50
g51
NtRp2891
(dp2892
g54
(dp2893
g62
I3
ssg63
g2887
sg56
(lp2894
S'1'
asbasbasbasbasbasbasbasbasbasbasbasbasbsS'frames'
p2895
(lp2896
(dp2897
S'file'
p2898
S'/users/udimilo/Documents/web2py/gluon/restricted.py'
p2899
sS'dump'
p2900
(dp2901
S'environment'
p2902
S"{'A': <class 'gluon.html.A'>, 'Auth': <class 'gluon.tools.Auth'>, 'B': <class 'gluon.html.B'>, 'BEAUTIFY': <class 'gluon.html.BEAUTIFY'>, 'BODY': <class 'gluon.html.BODY'>, 'BR': <class 'gluon.html.BR'>, 'BUTTON': <class 'gluon.html.BUTTON'>, 'CAT': <class 'gluon.html.CAT'>, 'CENTER': <class 'gluon.html.CENTER'>, 'CLEANUP': <class 'gluon.validators.CLEANUP'>, ...}"
p2903
sS'ccode'
p2904
S'<code object <module> at 0xa68a968, file "/Users...cations/udi0312/controllers/default.py", line 11>'
p2905
ssS'lnum'
p2906
I205
sS'lines'
p2907
(dp2908
I200
S'    try:'
p2909
sI201
S'        if type(code) == types.CodeType:'
p2910
sI202
S'            ccode = code'
p2911
sI203
S'        else:'
p2912
sI204
S'            ccode = compile2(code,layer)'
p2913
sI205
S'        exec ccode in environment'
p2914
sI206
S'    except HTTP:'
p2915
sI207
S'        raise'
p2916
sI208
S'    except RestrictedError:'
p2917
sI209
S'        # do not encapsulate (obfuscate) the original RestrictedError'
p2918
ssS'call'
p2919
S"(code='# -*- coding: utf-8 -*-\\n# this file is released ...ud())\\n\\nresponse._vars=response._caller(unfollow)\\n', environment={'A': <class 'gluon.html.A'>, 'Auth': <class 'gluon.tools.Auth'>, 'B': <class 'gluon.html.B'>, 'BEAUTIFY': <class 'gluon.html.BEAUTIFY'>, 'BODY': <class 'gluon.html.BODY'>, 'BR': <class 'gluon.html.BR'>, 'BUTTON': <class 'gluon.html.BUTTON'>, 'CAT': <class 'gluon.html.CAT'>, 'CENTER': <class 'gluon.html.CENTER'>, 'CLEANUP': <class 'gluon.validators.CLEANUP'>, ...}, layer='/Users/udimilo/Documents/web2py/applications/udi0312/controllers/default.py')"
p2920
sS'func'
p2921
S'restricted'
p2922
sa(dp2923
g2898
S'/Users/udimilo/Documents/web2py/applications/udi0312/controllers/default.py'
p2924
sg2900
(dp2925
sg2906
I148
sg2907
(dp2926
I137
S'    http://..../[app]/default/data/update/[table]/[id]'
p2927
sI138
S'    http://..../[app]/default/data/delete/[table]/[id]'
p2928
sI139
S'    http://..../[app]/default/data/select/[table]'
p2929
sI140
S'    http://..../[app]/default/data/search/[table]'
p2930
sI141
S'    but URLs must be signed, i.e. linked with'
p2931
sI142
S"      A('table',_href=URL('data/tables',user_signature=True))"
p2932
sI143
S'    or with the signed load operator'
p2933
sI144
S"      LOAD('default','data.load',args='tables',ajax=True,user_signature=True)"
p2934
sI145
S'    """'
p2935
sI146
S'    return dict(form=crud())'
p2936
ssg2919
S'()'
p2937
sg2921
S'<module>'
p2938
sa(dp2939
g2898
S'/users/udimilo/Documents/web2py/gluon/globals.py'
p2940
sg2900
(dp2941
S'self'
p2942
S'undefined'
p2943
sS'f'
S'<function unfollow at 0x8eb2a70>'
p2944
ssg2906
I173
sg2907
(dp2945
I168
S'        self.menu = []             # used by the default view layout'
p2946
sI169
S'        self.files = []            # used by web2py_ajax.html'
p2947
sI170
S'        self.generic_patterns = [] # patterns to allow generic views'
p2948
sI171
S"        self.delimiters = ('{{','}}')"
p2949
sI172
S'        self._vars = None'
p2950
sI173
S'        self._caller = lambda f: f()'
p2951
sI174
S'        self._view_environment = None'
p2952
sI175
S'        self._custom_commit = None'
p2953
sI176
S'        self._custom_rollback = None'
p2954
sI177
S''
ssg2919
S'(f=<function unfollow at 0x8eb2a70>)'
p2955
sg2921
S'<lambda>'
p2956
sa(dp2957
g2898
S'/Users/udimilo/Documents/web2py/applications/udi0312/controllers/default.py'
p2958
sg2900
(dp2959
S'global db'
p2960
S"<DAL {'auth_event': <Table {'origin': <gluon.dal...n_key': <gluon.dal.Field object at 0xa125670>}>}>"
p2961
sS').remove'
p2962
g2943
sS'rel.id'
p2963
S'3'
sS'db.user_user'
p2964
S"<Table {'follower_id': <gluon.dal.Field object a...0>, 'id': <gluon.dal.Field object at 0xa5653b0>}>"
p2965
sS'rel'
p2966
S"<Row {'follower_id': 1, 'update_record': <functi...elete_record': <function <lambda> at 0xa838a70>}>"
p2967
ssg2906
I93
sg2907
(dp2968
I96
S'def user():'
p2969
sI97
S'    """'
p2970
sI88
S''
sI89
S'    rel = db((db.user_user.follower_id == follower.id) & (db.user_user.followee_id == followee.id)).select().first()'
p2971
sI90
S'    if rel is None:'
p2972
sI91
S"        return 'no rel'"
p2973
sI92
S''
sI93
S'    db.user_user(rel.id).remove()'
p2974
sI94
S"    return 'deleted'"
p2975
sI95
S''
ssg2919
S'()'
p2976
sg2921
S'unfollow'
p2977
sa(dp2978
g2898
S'/users/udimilo/Documents/web2py/gluon/dal.py'
p2979
sg2900
(dp2980
S'self'
p2981
S"<Row {'follower_id': 1, 'update_record': <functi...elete_record': <function <lambda> at 0xa8388f0>}>"
p2982
sS'key'
p2983
S"'remove'"
p2984
ssg2906
I5657
sg2907
(dp2985
I5652
S''
sI5653
S'    def __setitem__(self, key, value):'
p2986
sI5654
S'        dict.__setitem__(self, str(key), value)'
p2987
sI5655
S''
sI5656
S'    def __getattr__(self, key):'
p2988
sI5657
S'        return self[key]'
p2989
sI5658
S''
sI5659
S'    def __setattr__(self, key, value):'
p2990
sI5660
S'        self[key] = value'
p2991
sI5661
S''
ssg2919
S"(self=<Row {'follower_id': 1, 'update_record': <functi...elete_record': <function <lambda> at 0xa8388f0>}>, key='remove')"
p2992
sg2921
S'__getattr__'
p2993
sa(dp2994
g2898
S'/users/udimilo/Documents/web2py/gluon/dal.py'
p2995
sg2900
(dp2996
S'self'
p2997
S"<Row {'follower_id': 1, 'update_record': <functi...elete_record': <function <lambda> at 0xa8388f0>}>"
p2998
sS'dict.__getitem__'
p2999
S"<method '__getitem__' of 'dict' objects>"
p3000
sS'key'
p3001
S"'remove'"
p3002
sS'builtindict'
p3003
S"<type 'dict'>"
p3004
ssg2906
I5648
sg2907
(dp3005
I5643
S'        elif m:'
p3006
sI5644
S'            try:'
p3007
sI5645
S'                return dict.__getitem__(self, m.group(1))[m.group(2)]'
p3008
sI5646
S'            except (KeyError,TypeError):'
p3009
sI5647
S'                key = m.group(2)'
p3010
sI5648
S'        return dict.__getitem__(self, key)'
p3011
sI5649
S''
sI5650
S'    def __call__(self,key):'
p3012
sI5651
S'        return self.__getitem__(key)'
p3013
sI5652
S''
ssg2919
S"(self=<Row {'follower_id': 1, 'update_record': <functi...elete_record': <function <lambda> at 0xa8388f0>}>, key='remove')"
p3014
sg2921
g20
sasS'pyver'
p3015
S'Python 2.5.4: /Library/Frameworks/Python.framework/Versions/2.5/Resources/Python.app/Contents/MacOS/Python'
p3016
sS'session'
p3017
g49
(g50
g51
NtRp3018
(dp3019
g54
(dp3020
sg56
(lp3021
g49
(g58
g51
NtRp3022
(dp3023
g54
(dp3024
g62
I5
ssg63
Nsg56
(lp3025
g49
(g65
g51
NtRp3026
(dp3027
g54
(dp3028
sg63
g3022
sg56
(lp3029
g49
(g70
g51
NtRp3030
(dp3031
g54
(dp3032
g74
g75
ssg63
g3026
sg56
(lp3033
S'auth'
p3034
asbag49
(g70
g51
NtRp3035
(dp3036
g54
(dp3037
g81
g82
ssg63
g3026
sg56
(lp3038
S':'
asbag49
(g70
g51
NtRp3039
(dp3040
g54
(dp3041
sg63
g3026
sg56
(lp3042
g49
(g50
g51
NtRp3043
(dp3044
g54
(dp3045
g62
I5
ssg63
g3039
sg56
(lp3046
g49
(g58
g51
NtRp3047
(dp3048
g54
(dp3049
g62
I4
ssg63
Nsg56
(lp3050
g49
(g65
g51
NtRp3051
(dp3052
g54
(dp3053
sg63
g3047
sg56
(lp3054
g49
(g70
g51
NtRp3055
(dp3056
g54
(dp3057
g74
g75
ssg63
g3051
sg56
(lp3058
S'expiration'
p3059
asbag49
(g70
g51
NtRp3060
(dp3061
g54
(dp3062
g81
g82
ssg63
g3051
sg56
(lp3063
S':'
asbag49
(g70
g51
NtRp3064
(dp3065
g54
(dp3066
sg63
g3051
sg56
(lp3067
g49
(g50
g51
NtRp3068
(dp3069
g54
(dp3070
g62
I4
ssg63
g3064
sg56
(lp3071
S'2592000'
p3072
asbasbasbag49
(g65
g51
NtRp3073
(dp3074
g54
(dp3075
sg63
g3047
sg56
(lp3076
g49
(g70
g51
NtRp3077
(dp3078
g54
(dp3079
g74
g75
ssg63
g3073
sg56
(lp3080
S'hmac_key'
p3081
asbag49
(g70
g51
NtRp3082
(dp3083
g54
(dp3084
g81
g82
ssg63
g3073
sg56
(lp3085
S':'
asbag49
(g70
g51
NtRp3086
(dp3087
g54
(dp3088
sg63
g3073
sg56
(lp3089
g49
(g50
g51
NtRp3090
(dp3091
g54
(dp3092
g62
I4
ssg63
g3086
sg56
(lp3093
S'e95fb5e0-f68d-430e-a660-5148e97bc5df'
p3094
asbasbasbag49
(g65
g51
NtRp3095
(dp3096
g54
(dp3097
sg63
g3047
sg56
(lp3098
g49
(g70
g51
NtRp3099
(dp3100
g54
(dp3101
g74
g75
ssg63
g3095
sg56
(lp3102
S'last_visit'
p3103
asbag49
(g70
g51
NtRp3104
(dp3105
g54
(dp3106
g81
g82
ssg63
g3095
sg56
(lp3107
S':'
asbag49
(g70
g51
NtRp3108
(dp3109
g54
(dp3110
sg63
g3095
sg56
(lp3111
g49
(g50
g51
NtRp3112
(dp3113
g54
(dp3114
g62
I4
ssg63
g3108
sg56
(lp3115
S'datetime.datetime(2012, 3, 8, 21, 10, 48, 287338)'
p3116
asbasbasbag49
(g65
g51
NtRp3117
(dp3118
g54
(dp3119
sg63
g3047
sg56
(lp3120
g49
(g70
g51
NtRp3121
(dp3122
g54
(dp3123
g74
g75
ssg63
g3117
sg56
(lp3124
S'remember'
p3125
asbag49
(g70
g51
NtRp3126
(dp3127
g54
(dp3128
g81
g82
ssg63
g3117
sg56
(lp3129
S':'
asbag49
(g70
g51
NtRp3130
(dp3131
g54
(dp3132
sg63
g3117
sg56
(lp3133
g49
(g50
g51
NtRp3134
(dp3135
g54
(dp3136
g62
I4
ssg63
g3130
sg56
(lp3137
g1489
asbasbasbag49
(g65
g51
NtRp3138
(dp3139
g54
(dp3140
sg63
g3047
sg56
(lp3141
g49
(g70
g51
NtRp3142
(dp3143
g54
(dp3144
g74
g75
ssg63
g3138
sg56
(lp3145
S'user'
p3146
asbag49
(g70
g51
NtRp3147
(dp3148
g54
(dp3149
g81
g82
ssg63
g3138
sg56
(lp3150
S':'
asbag49
(g70
g51
NtRp3151
(dp3152
g54
(dp3153
sg63
g3138
sg56
(lp3154
g49
(g50
g51
NtRp3155
(dp3156
g54
(dp3157
g62
I4
ssg63
g3151
sg56
(lp3158
g49
(g58
g51
NtRp3159
(dp3160
g54
(dp3161
g62
I3
ssg63
Nsg56
(lp3162
g49
(g65
g51
NtRp3163
(dp3164
g54
(dp3165
sg63
g3159
sg56
(lp3166
g49
(g70
g51
NtRp3167
(dp3168
g54
(dp3169
g74
g75
ssg63
g3163
sg56
(lp3170
S'email'
p3171
asbag49
(g70
g51
NtRp3172
(dp3173
g54
(dp3174
g81
g82
ssg63
g3163
sg56
(lp3175
S':'
asbag49
(g70
g51
NtRp3176
(dp3177
g54
(dp3178
sg63
g3163
sg56
(lp3179
g49
(g50
g51
NtRp3180
(dp3181
g54
(dp3182
g62
I3
ssg63
g3176
sg56
(lp3183
S'udimilo@gmail.com'
p3184
asbasbasbag49
(g65
g51
NtRp3185
(dp3186
g54
(dp3187
sg63
g3159
sg56
(lp3188
g49
(g70
g51
NtRp3189
(dp3190
g54
(dp3191
g74
g75
ssg63
g3185
sg56
(lp3192
S'first_name'
p3193
asbag49
(g70
g51
NtRp3194
(dp3195
g54
(dp3196
g81
g82
ssg63
g3185
sg56
(lp3197
S':'
asbag49
(g70
g51
NtRp3198
(dp3199
g54
(dp3200
sg63
g3185
sg56
(lp3201
g49
(g50
g51
NtRp3202
(dp3203
g54
(dp3204
g62
I3
ssg63
g3198
sg56
(lp3205
S'Udi'
p3206
asbasbasbag49
(g65
g51
NtRp3207
(dp3208
g54
(dp3209
sg63
g3159
sg56
(lp3210
g49
(g70
g51
NtRp3211
(dp3212
g54
(dp3213
g74
g75
ssg63
g3207
sg56
(lp3214
S'id'
p3215
asbag49
(g70
g51
NtRp3216
(dp3217
g54
(dp3218
g81
g82
ssg63
g3207
sg56
(lp3219
S':'
asbag49
(g70
g51
NtRp3220
(dp3221
g54
(dp3222
sg63
g3207
sg56
(lp3223
g49
(g50
g51
NtRp3224
(dp3225
g54
(dp3226
g62
I3
ssg63
g3220
sg56
(lp3227
S'1'
asbasbasbag49
(g65
g51
NtRp3228
(dp3229
g54
(dp3230
sg63
g3159
sg56
(lp3231
g49
(g70
g51
NtRp3232
(dp3233
g54
(dp3234
g74
g75
ssg63
g3228
sg56
(lp3235
S'last_name'
p3236
asbag49
(g70
g51
NtRp3237
(dp3238
g54
(dp3239
g81
g82
ssg63
g3228
sg56
(lp3240
S':'
asbag49
(g70
g51
NtRp3241
(dp3242
g54
(dp3243
sg63
g3228
sg56
(lp3244
g49
(g50
g51
NtRp3245
(dp3246
g54
(dp3247
g62
I3
ssg63
g3241
sg56
(lp3248
S'Milo'
p3249
asbasbasbag49
(g65
g51
NtRp3250
(dp3251
g54
(dp3252
sg63
g3159
sg56
(lp3253
g49
(g70
g51
NtRp3254
(dp3255
g54
(dp3256
g74
g75
ssg63
g3250
sg56
(lp3257
S'password'
p3258
asbag49
(g70
g51
NtRp3259
(dp3260
g54
(dp3261
g81
g82
ssg63
g3250
sg56
(lp3262
S':'
asbag49
(g70
g51
NtRp3263
(dp3264
g54
(dp3265
sg63
g3250
sg56
(lp3266
g49
(g50
g51
NtRp3267
(dp3268
g54
(dp3269
g62
I3
ssg63
g3263
sg56
(lp3270
S'7a6e3c6a68ceed66634484a3f64a3468'
p3271
asbasbasbag49
(g65
g51
NtRp3272
(dp3273
g54
(dp3274
sg63
g3159
sg56
(lp3275
g49
(g70
g51
NtRp3276
(dp3277
g54
(dp3278
g74
g75
ssg63
g3272
sg56
(lp3279
S'registration_id'
p3280
asbag49
(g70
g51
NtRp3281
(dp3282
g54
(dp3283
g81
g82
ssg63
g3272
sg56
(lp3284
S':'
asbag49
(g70
g51
NtRp3285
(dp3286
g54
(dp3287
sg63
g3272
sg56
(lp3288
g49
(g50
g51
NtRp3289
(dp3290
g54
(dp3291
g62
I3
ssg63
g3285
sg56
(lp3292
S''
asbasbasbag49
(g65
g51
NtRp3293
(dp3294
g54
(dp3295
sg63
g3159
sg56
(lp3296
g49
(g70
g51
NtRp3297
(dp3298
g54
(dp3299
g74
g75
ssg63
g3293
sg56
(lp3300
S'registration_key'
p3301
asbag49
(g70
g51
NtRp3302
(dp3303
g54
(dp3304
g81
g82
ssg63
g3293
sg56
(lp3305
S':'
asbag49
(g70
g51
NtRp3306
(dp3307
g54
(dp3308
sg63
g3293
sg56
(lp3309
g49
(g50
g51
NtRp3310
(dp3311
g54
(dp3312
g62
I3
ssg63
g3306
sg56
(lp3313
S''
asbasbasbag49
(g65
g51
NtRp3314
(dp3315
g54
(dp3316
sg63
g3159
sg56
(lp3317
g49
(g70
g51
NtRp3318
(dp3319
g54
(dp3320
g74
g75
ssg63
g3314
sg56
(lp3321
S'reset_password_key'
p3322
asbag49
(g70
g51
NtRp3323
(dp3324
g54
(dp3325
g81
g82
ssg63
g3314
sg56
(lp3326
S':'
asbag49
(g70
g51
NtRp3327
(dp3328
g54
(dp3329
sg63
g3314
sg56
(lp3330
g49
(g50
g51
NtRp3331
(dp3332
g54
(dp3333
g62
I3
ssg63
g3327
sg56
(lp3334
S''
asbasbasbasbasbasbasbag49
(g65
g51
NtRp3335
(dp3336
g54
(dp3337
sg63
g3047
sg56
(lp3338
g49
(g70
g51
NtRp3339
(dp3340
g54
(dp3341
g74
g75
ssg63
g3335
sg56
(lp3342
S'user_groups'
p3343
asbag49
(g70
g51
NtRp3344
(dp3345
g54
(dp3346
g81
g82
ssg63
g3335
sg56
(lp3347
S':'
asbag49
(g70
g51
NtRp3348
(dp3349
g54
(dp3350
sg63
g3335
sg56
(lp3351
g49
(g50
g51
NtRp3352
(dp3353
g54
(dp3354
g62
I4
ssg63
g3348
sg56
(lp3355
g49
(g58
g51
NtRp3356
(dp3357
g54
(dp3358
g62
I3
ssg63
Nsg56
(lp3359
g49
(g65
g51
NtRp3360
(dp3361
g54
(dp3362
sg63
g3356
sg56
(lp3363
g49
(g70
g51
NtRp3364
(dp3365
g54
(dp3366
g74
g75
ssg63
g3360
sg56
(lp3367
S'1'
asbag49
(g70
g51
NtRp3368
(dp3369
g54
(dp3370
g81
g82
ssg63
g3360
sg56
(lp3371
S':'
asbag49
(g70
g51
NtRp3372
(dp3373
g54
(dp3374
sg63
g3360
sg56
(lp3375
g49
(g50
g51
NtRp3376
(dp3377
g54
(dp3378
g62
I3
ssg63
g3372
sg56
(lp3379
S'user_1'
p3380
asbasbasbasbasbasbasbasbasbasbasbag49
(g65
g51
NtRp3381
(dp3382
g54
(dp3383
sg63
g3022
sg56
(lp3384
g49
(g70
g51
NtRp3385
(dp3386
g54
(dp3387
g74
g75
ssg63
g3381
sg56
(lp3388
S'last_query'
p3389
asbag49
(g70
g51
NtRp3390
(dp3391
g54
(dp3392
g81
g82
ssg63
g3381
sg56
(lp3393
S':'
asbag49
(g70
g51
NtRp3394
(dp3395
g54
(dp3396
sg63
g3381
sg56
(lp3397
g49
(g50
g51
NtRp3398
(dp3399
g54
(dp3400
g62
I5
ssg63
g3394
sg56
(lp3401
S'db.user_user.id>0'
p3402
asbasbasbasbasbsS'etype'
p3403
S"<type 'exceptions.KeyError'>"
p3404
sS'date'
p3405
S'Mon Mar 12 03:52:44 2012'
p3406
sS'response'
p3407
g49
(g50
g51
NtRp3408
(dp3409
g54
(dp3410
sg56
(lp3411
g49
(g58
g51
NtRp3412
(dp3413
g54
(dp3414
g62
I5
ssg63
Nsg56
(lp3415
g49
(g65
g51
NtRp3416
(dp3417
g54
(dp3418
sg63
g3412
sg56
(lp3419
g49
(g70
g51
NtRp3420
(dp3421
g54
(dp3422
g74
g75
ssg63
g3416
sg56
(lp3423
g147
asbag49
(g70
g51
NtRp3424
(dp3425
g54
(dp3426
g81
g82
ssg63
g3416
sg56
(lp3427
S':'
asbag49
(g70
g51
NtRp3428
(dp3429
g54
(dp3430
sg63
g3416
sg56
(lp3431
g49
(g50
g51
NtRp3432
(dp3433
g54
(dp3434
g62
I5
ssg63
g3428
sg56
(lp3435
S'<cStringIO.StringO object at 0xa12f920>'
p3436
asbasbasbag49
(g65
g51
NtRp3437
(dp3438
g54
(dp3439
sg63
g3412
sg56
(lp3440
g49
(g70
g51
NtRp3441
(dp3442
g54
(dp3443
g74
g75
ssg63
g3437
sg56
(lp3444
g213
asbag49
(g70
g51
NtRp3445
(dp3446
g54
(dp3447
g81
g82
ssg63
g3437
sg56
(lp3448
S':'
asbag49
(g70
g51
NtRp3449
(dp3450
g54
(dp3451
sg63
g3437
sg56
(lp3452
g49
(g50
g51
NtRp3453
(dp3454
g54
(dp3455
g62
I5
ssg63
g3449
sg56
(lp3456
g49
(g58
g51
NtRp3457
(dp3458
g54
(dp3459
g62
I4
ssg63
Nsg56
(lp3460
g49
(g65
g51
NtRp3461
(dp3462
g54
(dp3463
sg63
g3457
sg56
(lp3464
g49
(g70
g51
NtRp3465
(dp3466
g54
(dp3467
g74
g75
ssg63
g3461
sg56
(lp3468
S'session_id_udi0312'
p3469
asbag49
(g70
g51
NtRp3470
(dp3471
g54
(dp3472
g81
g82
ssg63
g3461
sg56
(lp3473
S':'
asbag49
(g70
g51
NtRp3474
(dp3475
g54
(dp3476
sg63
g3461
sg56
(lp3477
g49
(g50
g51
NtRp3478
(dp3479
g54
(dp3480
g62
I4
ssg63
g3474
sg56
(lp3481
g49
(g58
g51
NtRp3482
(dp3483
g54
(dp3484
g62
I3
ssg63
Nsg56
(lp3485
g49
(g65
g51
NtRp3486
(dp3487
g54
(dp3488
sg63
g3482
sg56
(lp3489
g49
(g70
g51
NtRp3490
(dp3491
g54
(dp3492
g74
g75
ssg63
g3486
sg56
(lp3493
g263
asbag49
(g70
g51
NtRp3494
(dp3495
g54
(dp3496
g81
g82
ssg63
g3486
sg56
(lp3497
S':'
asbag49
(g70
g51
NtRp3498
(dp3499
g54
(dp3500
sg63
g3486
sg56
(lp3501
g49
(g50
g51
NtRp3502
(dp3503
g54
(dp3504
g62
I3
ssg63
g3498
sg56
(lp3505
S''
asbasbasbag49
(g65
g51
NtRp3506
(dp3507
g54
(dp3508
sg63
g3482
sg56
(lp3509
g49
(g70
g51
NtRp3510
(dp3511
g54
(dp3512
g74
g75
ssg63
g3506
sg56
(lp3513
g284
asbag49
(g70
g51
NtRp3514
(dp3515
g54
(dp3516
g81
g82
ssg63
g3506
sg56
(lp3517
S':'
asbag49
(g70
g51
NtRp3518
(dp3519
g54
(dp3520
sg63
g3506
sg56
(lp3521
g49
(g50
g51
NtRp3522
(dp3523
g54
(dp3524
g62
I3
ssg63
g3518
sg56
(lp3525
S''
asbasbasbag49
(g65
g51
NtRp3526
(dp3527
g54
(dp3528
sg63
g3482
sg56
(lp3529
g49
(g70
g51
NtRp3530
(dp3531
g54
(dp3532
g74
g75
ssg63
g3526
sg56
(lp3533
g305
asbag49
(g70
g51
NtRp3534
(dp3535
g54
(dp3536
g81
g82
ssg63
g3526
sg56
(lp3537
S':'
asbag49
(g70
g51
NtRp3538
(dp3539
g54
(dp3540
sg63
g3526
sg56
(lp3541
g49
(g50
g51
NtRp3542
(dp3543
g54
(dp3544
g62
I3
ssg63
g3538
sg56
(lp3545
S'2592000'
p3546
asbasbasbag49
(g65
g51
NtRp3547
(dp3548
g54
(dp3549
sg63
g3482
sg56
(lp3550
g49
(g70
g51
NtRp3551
(dp3552
g54
(dp3553
g74
g75
ssg63
g3547
sg56
(lp3554
g326
asbag49
(g70
g51
NtRp3555
(dp3556
g54
(dp3557
g81
g82
ssg63
g3547
sg56
(lp3558
S':'
asbag49
(g70
g51
NtRp3559
(dp3560
g54
(dp3561
sg63
g3547
sg56
(lp3562
g49
(g50
g51
NtRp3563
(dp3564
g54
(dp3565
g62
I3
ssg63
g3559
sg56
(lp3566
S''
asbasbasbag49
(g65
g51
NtRp3567
(dp3568
g54
(dp3569
sg63
g3482
sg56
(lp3570
g49
(g70
g51
NtRp3571
(dp3572
g54
(dp3573
g74
g75
ssg63
g3567
sg56
(lp3574
g347
asbag49
(g70
g51
NtRp3575
(dp3576
g54
(dp3577
g81
g82
ssg63
g3567
sg56
(lp3578
S':'
asbag49
(g70
g51
NtRp3579
(dp3580
g54
(dp3581
sg63
g3567
sg56
(lp3582
g49
(g50
g51
NtRp3583
(dp3584
g54
(dp3585
g62
I3
ssg63
g3579
sg56
(lp3586
S'/'
asbasbasbag49
(g65
g51
NtRp3587
(dp3588
g54
(dp3589
sg63
g3482
sg56
(lp3590
g49
(g70
g51
NtRp3591
(dp3592
g54
(dp3593
g74
g75
ssg63
g3587
sg56
(lp3594
g368
asbag49
(g70
g51
NtRp3595
(dp3596
g54
(dp3597
g81
g82
ssg63
g3587
sg56
(lp3598
S':'
asbag49
(g70
g51
NtRp3599
(dp3600
g54
(dp3601
sg63
g3587
sg56
(lp3602
g49
(g50
g51
NtRp3603
(dp3604
g54
(dp3605
g62
I3
ssg63
g3599
sg56
(lp3606
S''
asbasbasbag49
(g65
g51
NtRp3607
(dp3608
g54
(dp3609
sg63
g3482
sg56
(lp3610
g49
(g70
g51
NtRp3611
(dp3612
g54
(dp3613
g74
g75
ssg63
g3607
sg56
(lp3614
g389
asbag49
(g70
g51
NtRp3615
(dp3616
g54
(dp3617
g81
g82
ssg63
g3607
sg56
(lp3618
S':'
asbag49
(g70
g51
NtRp3619
(dp3620
g54
(dp3621
sg63
g3607
sg56
(lp3622
g49
(g50
g51
NtRp3623
(dp3624
g54
(dp3625
g62
I3
ssg63
g3619
sg56
(lp3626
S''
asbasbasbasbasbasbasbasbasbasbasbag49
(g65
g51
NtRp3627
(dp3628
g54
(dp3629
sg63
g3412
sg56
(lp3630
g49
(g70
g51
NtRp3631
(dp3632
g54
(dp3633
g74
g75
ssg63
g3627
sg56
(lp3634
S'delimiters'
p3635
asbag49
(g70
g51
NtRp3636
(dp3637
g54
(dp3638
g81
g82
ssg63
g3627
sg56
(lp3639
S':'
asbag49
(g70
g51
NtRp3640
(dp3641
g54
(dp3642
sg63
g3627
sg56
(lp3643
g49
(g50
g51
NtRp3644
(dp3645
g54
(dp3646
g62
I5
ssg63
g3640
sg56
(lp3647
g49
(g58
g51
NtRp3648
(dp3649
g54
(dp3650
g62
I4
ssg63
Nsg56
(lp3651
g49
(g65
g51
NtRp3652
(dp3653
g54
(dp3654
sg63
g3648
sg56
(lp3655
g49
(g70
g51
NtRp3656
(dp3657
g54
(dp3658
sg63
g3652
sg56
(lp3659
g49
(g50
g51
NtRp3660
(dp3661
g54
(dp3662
g62
I4
ssg63
g3656
sg56
(lp3663
S'{{'
p3664
asbasbasbag49
(g65
g51
NtRp3665
(dp3666
g54
(dp3667
sg63
g3648
sg56
(lp3668
g49
(g70
g51
NtRp3669
(dp3670
g54
(dp3671
sg63
g3665
sg56
(lp3672
g49
(g50
g51
NtRp3673
(dp3674
g54
(dp3675
g62
I4
ssg63
g3669
sg56
(lp3676
S'}}'
p3677
asbasbasbasbasbasbasbag49
(g65
g51
NtRp3678
(dp3679
g54
(dp3680
sg63
g3412
sg56
(lp3681
g49
(g70
g51
NtRp3682
(dp3683
g54
(dp3684
g74
g75
ssg63
g3678
sg56
(lp3685
S'files'
p3686
asbag49
(g70
g51
NtRp3687
(dp3688
g54
(dp3689
g81
g82
ssg63
g3678
sg56
(lp3690
S':'
asbag49
(g70
g51
NtRp3691
(dp3692
g54
(dp3693
sg63
g3678
sg56
(lp3694
g49
(g50
g51
NtRp3695
(dp3696
g54
(dp3697
g62
I5
ssg63
g3691
sg56
(lp3698
g49
(g58
g51
NtRp3699
(dp3700
g54
(dp3701
g62
I4
ssg63
Nsg56
(lp3702
sbasbasbasbag49
(g65
g51
NtRp3703
(dp3704
g54
(dp3705
sg63
g3412
sg56
(lp3706
g49
(g70
g51
NtRp3707
(dp3708
g54
(dp3709
g74
g75
ssg63
g3703
sg56
(lp3710
S'flash'
p3711
asbag49
(g70
g51
NtRp3712
(dp3713
g54
(dp3714
g81
g82
ssg63
g3703
sg56
(lp3715
S':'
asbag49
(g70
g51
NtRp3716
(dp3717
g54
(dp3718
sg63
g3703
sg56
(lp3719
g49
(g50
g51
NtRp3720
(dp3721
g54
(dp3722
g62
I5
ssg63
g3716
sg56
(lp3723
S''
asbasbasbag49
(g65
g51
NtRp3724
(dp3725
g54
(dp3726
sg63
g3412
sg56
(lp3727
g49
(g70
g51
NtRp3728
(dp3729
g54
(dp3730
g74
g75
ssg63
g3724
sg56
(lp3731
S'generic_patterns'
p3732
asbag49
(g70
g51
NtRp3733
(dp3734
g54
(dp3735
g81
g82
ssg63
g3724
sg56
(lp3736
S':'
asbag49
(g70
g51
NtRp3737
(dp3738
g54
(dp3739
sg63
g3724
sg56
(lp3740
g49
(g50
g51
NtRp3741
(dp3742
g54
(dp3743
g62
I5
ssg63
g3737
sg56
(lp3744
g49
(g58
g51
NtRp3745
(dp3746
g54
(dp3747
g62
I4
ssg63
Nsg56
(lp3748
g49
(g65
g51
NtRp3749
(dp3750
g54
(dp3751
sg63
g3745
sg56
(lp3752
g49
(g70
g51
NtRp3753
(dp3754
g54
(dp3755
sg63
g3749
sg56
(lp3756
g49
(g50
g51
NtRp3757
(dp3758
g54
(dp3759
g62
I4
ssg63
g3753
sg56
(lp3760
S'*'
asbasbasbasbasbasbasbag49
(g65
g51
NtRp3761
(dp3762
g54
(dp3763
sg63
g3412
sg56
(lp3764
g49
(g70
g51
NtRp3765
(dp3766
g54
(dp3767
g74
g75
ssg63
g3761
sg56
(lp3768
S'headers'
p3769
asbag49
(g70
g51
NtRp3770
(dp3771
g54
(dp3772
g81
g82
ssg63
g3761
sg56
(lp3773
S':'
asbag49
(g70
g51
NtRp3774
(dp3775
g54
(dp3776
sg63
g3761
sg56
(lp3777
g49
(g50
g51
NtRp3778
(dp3779
g54
(dp3780
g62
I5
ssg63
g3774
sg56
(lp3781
g49
(g58
g51
NtRp3782
(dp3783
g54
(dp3784
g62
I4
ssg63
Nsg56
(lp3785
g49
(g65
g51
NtRp3786
(dp3787
g54
(dp3788
sg63
g3782
sg56
(lp3789
g49
(g70
g51
NtRp3790
(dp3791
g54
(dp3792
g74
g75
ssg63
g3786
sg56
(lp3793
S'Cache-Control'
p3794
asbag49
(g70
g51
NtRp3795
(dp3796
g54
(dp3797
g81
g82
ssg63
g3786
sg56
(lp3798
S':'
asbag49
(g70
g51
NtRp3799
(dp3800
g54
(dp3801
sg63
g3786
sg56
(lp3802
g49
(g50
g51
NtRp3803
(dp3804
g54
(dp3805
g62
I4
ssg63
g3799
sg56
(lp3806
S'no-store, no-cache, must-revalidate, post-check=0, pre-check=0'
p3807
asbasbasbag49
(g65
g51
NtRp3808
(dp3809
g54
(dp3810
sg63
g3782
sg56
(lp3811
g49
(g70
g51
NtRp3812
(dp3813
g54
(dp3814
g74
g75
ssg63
g3808
sg56
(lp3815
S'Content-Type'
p3816
asbag49
(g70
g51
NtRp3817
(dp3818
g54
(dp3819
g81
g82
ssg63
g3808
sg56
(lp3820
S':'
asbag49
(g70
g51
NtRp3821
(dp3822
g54
(dp3823
sg63
g3808
sg56
(lp3824
g49
(g50
g51
NtRp3825
(dp3826
g54
(dp3827
g62
I4
ssg63
g3821
sg56
(lp3828
S'text/html; charset=utf-8'
p3829
asbasbasbag49
(g65
g51
NtRp3830
(dp3831
g54
(dp3832
sg63
g3782
sg56
(lp3833
g49
(g70
g51
NtRp3834
(dp3835
g54
(dp3836
g74
g75
ssg63
g3830
sg56
(lp3837
S'Expires'
p3838
asbag49
(g70
g51
NtRp3839
(dp3840
g54
(dp3841
g81
g82
ssg63
g3830
sg56
(lp3842
S':'
asbag49
(g70
g51
NtRp3843
(dp3844
g54
(dp3845
sg63
g3830
sg56
(lp3846
g49
(g50
g51
NtRp3847
(dp3848
g54
(dp3849
g62
I4
ssg63
g3843
sg56
(lp3850
S'Mon, 12 Mar 2012 02:52:44 GMT'
p3851
asbasbasbag49
(g65
g51
NtRp3852
(dp3853
g54
(dp3854
sg63
g3782
sg56
(lp3855
g49
(g70
g51
NtRp3856
(dp3857
g54
(dp3858
g74
g75
ssg63
g3852
sg56
(lp3859
S'Pragma'
p3860
asbag49
(g70
g51
NtRp3861
(dp3862
g54
(dp3863
g81
g82
ssg63
g3852
sg56
(lp3864
S':'
asbag49
(g70
g51
NtRp3865
(dp3866
g54
(dp3867
sg63
g3852
sg56
(lp3868
g49
(g50
g51
NtRp3869
(dp3870
g54
(dp3871
g62
I4
ssg63
g3865
sg56
(lp3872
S'no-cache'
p3873
asbasbasbag49
(g65
g51
NtRp3874
(dp3875
g54
(dp3876
sg63
g3782
sg56
(lp3877
g49
(g70
g51
NtRp3878
(dp3879
g54
(dp3880
g74
g75
ssg63
g3874
sg56
(lp3881
S'X-Powered-By'
p3882
asbag49
(g70
g51
NtRp3883
(dp3884
g54
(dp3885
g81
g82
ssg63
g3874
sg56
(lp3886
S':'
asbag49
(g70
g51
NtRp3887
(dp3888
g54
(dp3889
sg63
g3874
sg56
(lp3890
g49
(g50
g51
NtRp3891
(dp3892
g54
(dp3893
g62
I4
ssg63
g3887
sg56
(lp3894
S'web2py'
p3895
asbasbasbasbasbasbasbag49
(g65
g51
NtRp3896
(dp3897
g54
(dp3898
sg63
g3412
sg56
(lp3899
g49
(g70
g51
NtRp3900
(dp3901
g54
(dp3902
g74
g75
ssg63
g3896
sg56
(lp3903
S'menu'
p3904
asbag49
(g70
g51
NtRp3905
(dp3906
g54
(dp3907
g81
g82
ssg63
g3896
sg56
(lp3908
S':'
asbag49
(g70
g51
NtRp3909
(dp3910
g54
(dp3911
sg63
g3896
sg56
(lp3912
g49
(g50
g51
NtRp3913
(dp3914
g54
(dp3915
g62
I5
ssg63
g3909
sg56
(lp3916
g49
(g58
g51
NtRp3917
(dp3918
g54
(dp3919
g62
I4
ssg63
Nsg56
(lp3920
g49
(g65
g51
NtRp3921
(dp3922
g54
(dp3923
sg63
g3917
sg56
(lp3924
g49
(g70
g51
NtRp3925
(dp3926
g54
(dp3927
sg63
g3921
sg56
(lp3928
g49
(g50
g51
NtRp3929
(dp3930
g54
(dp3931
g62
I4
ssg63
g3925
sg56
(lp3932
g49
(g58
g51
NtRp3933
(dp3934
g54
(dp3935
g62
I3
ssg63
Nsg56
(lp3936
g49
(g65
g51
NtRp3937
(dp3938
g54
(dp3939
sg63
g3933
sg56
(lp3940
g49
(g70
g51
NtRp3941
(dp3942
g54
(dp3943
sg63
g3937
sg56
(lp3944
g49
(g50
g51
NtRp3945
(dp3946
g54
(dp3947
g62
I3
ssg63
g3941
sg56
(lp3948
cgluon.languages
lazyT_unpickle
p3949
(S's\x04\x00\x00\x00Home'
tRp3950
asbasbasbag49
(g65
g51
NtRp3951
(dp3952
g54
(dp3953
sg63
g3933
sg56
(lp3954
g49
(g70
g51
NtRp3955
(dp3956
g54
(dp3957
sg63
g3951
sg56
(lp3958
g49
(g50
g51
NtRp3959
(dp3960
g54
(dp3961
g62
I3
ssg63
g3955
sg56
(lp3962
g92
asbasbasbag49
(g65
g51
NtRp3963
(dp3964
g54
(dp3965
sg63
g3933
sg56
(lp3966
g49
(g70
g51
NtRp3967
(dp3968
g54
(dp3969
sg63
g3963
sg56
(lp3970
g49
(g50
g51
NtRp3971
(dp3972
g54
(dp3973
g62
I3
ssg63
g3967
sg56
(lp3974
S'/'
asbasbasbag49
(g65
g51
NtRp3975
(dp3976
g54
(dp3977
sg63
g3933
sg56
(lp3978
g49
(g70
g51
NtRp3979
(dp3980
g54
(dp3981
sg63
g3975
sg56
(lp3982
g49
(g50
g51
NtRp3983
(dp3984
g54
(dp3985
g62
I3
ssg63
g3979
sg56
(lp3986
g49
(g58
g51
NtRp3987
(dp3988
g54
(dp3989
g62
I2
ssg63
Nsg56
(lp3990
sbasbasbasbasbasbasbasbag49
(g65
g51
NtRp3991
(dp3992
g54
(dp3993
sg63
g3917
sg56
(lp3994
g49
(g70
g51
NtRp3995
(dp3996
g54
(dp3997
sg63
g3991
sg56
(lp3998
g49
(g50
g51
NtRp3999
(dp4000
g54
(dp4001
g62
I4
ssg63
g3995
sg56
(lp4002
g49
(g58
g51
NtRp4003
(dp4004
g54
(dp4005
g62
I3
ssg63
Nsg56
(lp4006
g49
(g65
g51
NtRp4007
(dp4008
g54
(dp4009
sg63
g4003
sg56
(lp4010
g49
(g70
g51
NtRp4011
(dp4012
g54
(dp4013
sg63
g4007
sg56
(lp4014
g49
(g50
g51
NtRp4015
(dp4016
g54
(dp4017
g62
I3
ssg63
g4011
sg56
(lp4018
g49
(cgluon.html
SPAN
p4019
g51
NtRp4020
(dp4021
g54
(dp4022
g74
S'color:yellow'
p4023
ssg63
Nsg56
(lp4024
g3895
asbasbasbasbag49
(g65
g51
NtRp4025
(dp4026
g54
(dp4027
sg63
g4003
sg56
(lp4028
g49
(g70
g51
NtRp4029
(dp4030
g54
(dp4031
sg63
g4025
sg56
(lp4032
g49
(g50
g51
NtRp4033
(dp4034
g54
(dp4035
g62
I3
ssg63
g4029
sg56
(lp4036
g92
asbasbasbag49
(g65
g51
NtRp4037
(dp4038
g54
(dp4039
sg63
g4003
sg56
(lp4040
g49
(g70
g51
NtRp4041
(dp4042
g54
(dp4043
sg63
g4037
sg56
(lp4044
g49
(g50
g51
NtRp4045
(dp4046
g54
(dp4047
g62
I3
ssg63
g4041
sg56
(lp4048
S'None'
p4049
asbasbasbag49
(g65
g51
NtRp4050
(dp4051
g54
(dp4052
sg63
g4003
sg56
(lp4053
g49
(g70
g51
NtRp4054
(dp4055
g54
(dp4056
sg63
g4050
sg56
(lp4057
g49
(g50
g51
NtRp4058
(dp4059
g54
(dp4060
g62
I3
ssg63
g4054
sg56
(lp4061
g49
(g58
g51
NtRp4062
(dp4063
g54
(dp4064
g62
I2
ssg63
Nsg56
(lp4065
g49
(g65
g51
NtRp4066
(dp4067
g54
(dp4068
sg63
g4062
sg56
(lp4069
g49
(g70
g51
NtRp4070
(dp4071
g54
(dp4072
sg63
g4066
sg56
(lp4073
g49
(g50
g51
NtRp4074
(dp4075
g54
(dp4076
g62
I2
ssg63
g4070
sg56
(lp4077
g49
(g58
g51
NtRp4078
(dp4079
g54
(dp4080
g62
I1
ssg63
Nsg56
(lp4081
g49
(g65
g51
NtRp4082
(dp4083
g54
(dp4084
sg63
g4078
sg56
(lp4085
g49
(g70
g51
NtRp4086
(dp4087
g54
(dp4088
sg63
g4082
sg56
(lp4089
g49
(g50
g51
NtRp4090
(dp4091
g54
(dp4092
g62
I1
ssg63
g4086
sg56
(lp4093
g3949
(S's\x08\x00\x00\x00My Sites'
tRp4094
asbasbasbag49
(g65
g51
NtRp4095
(dp4096
g54
(dp4097
sg63
g4078
sg56
(lp4098
g49
(g70
g51
NtRp4099
(dp4100
g54
(dp4101
sg63
g4095
sg56
(lp4102
g49
(g50
g51
NtRp4103
(dp4104
g54
(dp4105
g62
I1
ssg63
g4099
sg56
(lp4106
I00
asbasbasbag49
(g65
g51
NtRp4107
(dp4108
g54
(dp4109
sg63
g4078
sg56
(lp4110
g49
(g70
g51
NtRp4111
(dp4112
g54
(dp4113
sg63
g4107
sg56
(lp4114
g49
(g50
g51
NtRp4115
(dp4116
g54
(dp4117
g62
I1
ssg63
g4111
sg56
(lp4118
S'/admin/site'
p4119
asbasbasbasbasbasbasbag49
(g65
g51
NtRp4120
(dp4121
g54
(dp4122
sg63
g4062
sg56
(lp4123
g49
(g70
g51
NtRp4124
(dp4125
g54
(dp4126
sg63
g4120
sg56
(lp4127
g49
(g50
g51
NtRp4128
(dp4129
g54
(dp4130
g62
I2
ssg63
g4124
sg56
(lp4131
g49
(g58
g51
NtRp4132
(dp4133
g54
(dp4134
g62
I1
ssg63
Nsg56
(lp4135
g49
(g65
g51
NtRp4136
(dp4137
g54
(dp4138
sg63
g4132
sg56
(lp4139
g49
(g70
g51
NtRp4140
(dp4141
g54
(dp4142
sg63
g4136
sg56
(lp4143
g49
(g50
g51
NtRp4144
(dp4145
g54
(dp4146
g62
I1
ssg63
g4140
sg56
(lp4147
g3949
(S's\x08\x00\x00\x00This App'
tRp4148
asbasbasbag49
(g65
g51
NtRp4149
(dp4150
g54
(dp4151
sg63
g4132
sg56
(lp4152
g49
(g70
g51
NtRp4153
(dp4154
g54
(dp4155
sg63
g4149
sg56
(lp4156
g49
(g50
g51
NtRp4157
(dp4158
g54
(dp4159
g62
I1
ssg63
g4153
sg56
(lp4160
I00
asbasbasbag49
(g65
g51
NtRp4161
(dp4162
g54
(dp4163
sg63
g4132
sg56
(lp4164
g49
(g70
g51
NtRp4165
(dp4166
g54
(dp4167
sg63
g4161
sg56
(lp4168
g49
(g50
g51
NtRp4169
(dp4170
g54
(dp4171
g62
I1
ssg63
g4165
sg56
(lp4172
S'/admin/design/udi0312'
p4173
asbasbasbag49
(g65
g51
NtRp4174
(dp4175
g54
(dp4176
sg63
g4132
sg56
(lp4177
g49
(g70
g51
NtRp4178
(dp4179
g54
(dp4180
sg63
g4174
sg56
(lp4181
g49
(g50
g51
NtRp4182
(dp4183
g54
(dp4184
g62
I1
ssg63
g4178
sg56
(lp4185
(lp4186
(g3949
(S's\n\x00\x00\x00Controller'
tRp4187
I00
S'/admin/edit/udi0312/controllers/default.py'
tp4188
a(g3949
(S's\x04\x00\x00\x00View'
tRp4189
I00
S'/admin/edit/udi0312/views/default/unfollow.html'
tp4190
a(g3949
(S's\x06\x00\x00\x00Layout'
tRp4191
I00
S'/admin/edit/udi0312/views/layout.html'
tp4192
a(g3949
(S's\n\x00\x00\x00Stylesheet'
tRp4193
I00
S'/admin/edit/udi0312/static/css/web2py.css'
tp4194
a(g3949
(S's\x08\x00\x00\x00DB Model'
tRp4195
I00
S'/admin/edit/udi0312/models/db.py'
tp4196
a(g3949
(S's\n\x00\x00\x00Menu Model'
tRp4197
I00
S'/admin/edit/udi0312/models/menu.py'
tp4198
a(g3949
(S's\x08\x00\x00\x00Database'
tRp4199
I00
S'/appadmin'
tp4200
a(g3949
(S's\x06\x00\x00\x00Errors'
tRp4201
I00
S'/admin/errors/udi0312'
tp4202
a(g3949
(S's\x05\x00\x00\x00About'
tRp4203
I00
S'/admin/about/udi0312'
tp4204
aasbasbasbasbasbasbasbag49
(g65
g51
NtRp4205
(dp4206
g54
(dp4207
sg63
g4062
sg56
(lp4208
g49
(g70
g51
NtRp4209
(dp4210
g54
(dp4211
sg63
g4205
sg56
(lp4212
g49
(g50
g51
NtRp4213
(dp4214
g54
(dp4215
g62
I2
ssg63
g4209
sg56
(lp4216
g49
(g58
g51
NtRp4217
(dp4218
g54
(dp4219
g62
I1
ssg63
Nsg56
(lp4220
g49
(g65
g51
NtRp4221
(dp4222
g54
(dp4223
sg63
g4217
sg56
(lp4224
g49
(g70
g51
NtRp4225
(dp4226
g54
(dp4227
sg63
g4221
sg56
(lp4228
g49
(g50
g51
NtRp4229
(dp4230
g54
(dp4231
g62
I1
ssg63
g4225
sg56
(lp4232
S'web2py.com'
p4233
asbasbasbag49
(g65
g51
NtRp4234
(dp4235
g54
(dp4236
sg63
g4217
sg56
(lp4237
g49
(g70
g51
NtRp4238
(dp4239
g54
(dp4240
sg63
g4234
sg56
(lp4241
g49
(g50
g51
NtRp4242
(dp4243
g54
(dp4244
g62
I1
ssg63
g4238
sg56
(lp4245
I00
asbasbasbag49
(g65
g51
NtRp4246
(dp4247
g54
(dp4248
sg63
g4217
sg56
(lp4249
g49
(g70
g51
NtRp4250
(dp4251
g54
(dp4252
sg63
g4246
sg56
(lp4253
g49
(g50
g51
NtRp4254
(dp4255
g54
(dp4256
g62
I1
ssg63
g4250
sg56
(lp4257
S'http://www.web2py.com'
p4258
asbasbasbag49
(g65
g51
NtRp4259
(dp4260
g54
(dp4261
sg63
g4217
sg56
(lp4262
g49
(g70
g51
NtRp4263
(dp4264
g54
(dp4265
sg63
g4259
sg56
(lp4266
g49
(g50
g51
NtRp4267
(dp4268
g54
(dp4269
g62
I1
ssg63
g4263
sg56
(lp4270
(lp4271
(g3949
(S's\x08\x00\x00\x00Download'
tRp4272
I00
S'http://www.web2py.com/examples/default/download'
p4273
tp4274
a(g3949
(S's\x07\x00\x00\x00Support'
tRp4275
I00
S'http://www.web2py.com/examples/default/support'
p4276
tp4277
a(g3949
(S's\x04\x00\x00\x00Demo'
tRp4278
I00
S'http://web2py.com/demo_admin'
p4279
tp4280
a(g3949
(S's\x0e\x00\x00\x00Quick Examples'
tRp4281
I00
S'http://web2py.com/examples/default/examples'
p4282
tp4283
a(g3949
(S's\x03\x00\x00\x00FAQ'
tRp4284
I00
S'http://web2py.com/AlterEgo'
p4285
tp4286
a(g3949
(S's\x06\x00\x00\x00Videos'
tRp4287
I00
S'http://www.web2py.com/examples/default/videos/'
p4288
tp4289
a(g3949
(S's\x11\x00\x00\x00Free Applications'
tRp4290
I00
S'http://web2py.com/appliances'
p4291
tp4292
a(g3949
(S's\x07\x00\x00\x00Plugins'
tRp4293
I00
S'http://web2py.com/plugins'
p4294
tp4295
a(g3949
(S's\x07\x00\x00\x00Layouts'
tRp4296
I00
S'http://web2py.com/layouts'
p4297
tp4298
a(g3949
(S's\x07\x00\x00\x00Recipes'
tRp4299
I00
S'http://web2pyslices.com/'
p4300
tp4301
a(g3949
(S's\x08\x00\x00\x00Semantic'
tRp4302
I00
S'http://web2py.com/semantic'
p4303
tp4304
aasbasbasbasbasbasbasbag49
(g65
g51
NtRp4305
(dp4306
g54
(dp4307
sg63
g4062
sg56
(lp4308
g49
(g70
g51
NtRp4309
(dp4310
g54
(dp4311
sg63
g4305
sg56
(lp4312
g49
(g50
g51
NtRp4313
(dp4314
g54
(dp4315
g62
I2
ssg63
g4309
sg56
(lp4316
g49
(g58
g51
NtRp4317
(dp4318
g54
(dp4319
g62
I1
ssg63
Nsg56
(lp4320
g49
(g65
g51
NtRp4321
(dp4322
g54
(dp4323
sg63
g4317
sg56
(lp4324
g49
(g70
g51
NtRp4325
(dp4326
g54
(dp4327
sg63
g4321
sg56
(lp4328
g49
(g50
g51
NtRp4329
(dp4330
g54
(dp4331
g62
I1
ssg63
g4325
sg56
(lp4332
g3949
(S's\r\x00\x00\x00Documentation'
tRp4333
asbasbasbag49
(g65
g51
NtRp4334
(dp4335
g54
(dp4336
sg63
g4317
sg56
(lp4337
g49
(g70
g51
NtRp4338
(dp4339
g54
(dp4340
sg63
g4334
sg56
(lp4341
g49
(g50
g51
NtRp4342
(dp4343
g54
(dp4344
g62
I1
ssg63
g4338
sg56
(lp4345
I00
asbasbasbag49
(g65
g51
NtRp4346
(dp4347
g54
(dp4348
sg63
g4317
sg56
(lp4349
g49
(g70
g51
NtRp4350
(dp4351
g54
(dp4352
sg63
g4346
sg56
(lp4353
g49
(g50
g51
NtRp4354
(dp4355
g54
(dp4356
g62
I1
ssg63
g4350
sg56
(lp4357
S'http://www.web2py.com/book'
p4358
asbasbasbag49
(g65
g51
NtRp4359
(dp4360
g54
(dp4361
sg63
g4317
sg56
(lp4362
g49
(g70
g51
NtRp4363
(dp4364
g54
(dp4365
sg63
g4359
sg56
(lp4366
g49
(g50
g51
NtRp4367
(dp4368
g54
(dp4369
g62
I1
ssg63
g4363
sg56
(lp4370
(lp4371
(g3949
(S's\x07\x00\x00\x00Preface'
tRp4372
I00
S'http://www.web2py.com/book/default/chapter/00'
p4373
tp4374
a(g3949
(S's\x0c\x00\x00\x00Introduction'
tRp4375
I00
S'http://www.web2py.com/book/default/chapter/01'
p4376
tp4377
a(g3949
(S's\x06\x00\x00\x00Python'
tRp4378
I00
S'http://www.web2py.com/book/default/chapter/02'
p4379
tp4380
a(g3949
(S's\x08\x00\x00\x00Overview'
tRp4381
I00
S'http://www.web2py.com/book/default/chapter/03'
p4382
tp4383
a(g3949
(S's\x08\x00\x00\x00The Core'
tRp4384
I00
S'http://www.web2py.com/book/default/chapter/04'
p4385
tp4386
a(g3949
(S's\t\x00\x00\x00The Views'
tRp4387
I00
S'http://www.web2py.com/book/default/chapter/05'
p4388
tp4389
a(g3949
(S's\x08\x00\x00\x00Database'
tRp4390
I00
S'http://www.web2py.com/book/default/chapter/06'
p4391
tp4392
a(g3949
(S's\x14\x00\x00\x00Forms and Validators'
tRp4393
I00
S'http://www.web2py.com/book/default/chapter/07'
p4394
tp4395
a(g3949
(S's\r\x00\x00\x00Email and SMS'
tRp4396
I00
S'http://www.web2py.com/book/default/chapter/08'
p4397
tp4398
a(g3949
(S's\x0e\x00\x00\x00Access Control'
tRp4399
I00
S'http://www.web2py.com/book/default/chapter/09'
p4400
tp4401
a(g3949
(S's\x08\x00\x00\x00Services'
tRp4402
I00
S'http://www.web2py.com/book/default/chapter/10'
p4403
tp4404
a(g3949
(S's\x0c\x00\x00\x00Ajax Recipes'
tRp4405
I00
S'http://www.web2py.com/book/default/chapter/11'
p4406
tp4407
a(g3949
(S's\x16\x00\x00\x00Components and Plugins'
tRp4408
I00
S'http://www.web2py.com/book/default/chapter/12'
p4409
tp4410
a(g3949
(S's\x12\x00\x00\x00Deployment Recipes'
tRp4411
I00
S'http://www.web2py.com/book/default/chapter/13'
p4412
tp4413
a(g3949
(S's\r\x00\x00\x00Other Recipes'
tRp4414
I00
S'http://www.web2py.com/book/default/chapter/14'
p4415
tp4416
a(g3949
(S's\r\x00\x00\x00Buy this book'
tRp4417
I00
S'http://stores.lulu.com/web2py'
p4418
tp4419
aasbasbasbasbasbasbasbag49
(g65
g51
NtRp4420
(dp4421
g54
(dp4422
sg63
g4062
sg56
(lp4423
g49
(g70
g51
NtRp4424
(dp4425
g54
(dp4426
sg63
g4420
sg56
(lp4427
g49
(g50
g51
NtRp4428
(dp4429
g54
(dp4430
g62
I2
ssg63
g4424
sg56
(lp4431
g49
(g58
g51
NtRp4432
(dp4433
g54
(dp4434
g62
I1
ssg63
Nsg56
(lp4435
g49
(g65
g51
NtRp4436
(dp4437
g54
(dp4438
sg63
g4432
sg56
(lp4439
g49
(g70
g51
NtRp4440
(dp4441
g54
(dp4442
sg63
g4436
sg56
(lp4443
g49
(g50
g51
NtRp4444
(dp4445
g54
(dp4446
g62
I1
ssg63
g4440
sg56
(lp4447
g3949
(S's\t\x00\x00\x00Community'
tRp4448
asbasbasbag49
(g65
g51
NtRp4449
(dp4450
g54
(dp4451
sg63
g4432
sg56
(lp4452
g49
(g70
g51
NtRp4453
(dp4454
g54
(dp4455
sg63
g4449
sg56
(lp4456
g49
(g50
g51
NtRp4457
(dp4458
g54
(dp4459
g62
I1
ssg63
g4453
sg56
(lp4460
I00
asbasbasbag49
(g65
g51
NtRp4461
(dp4462
g54
(dp4463
sg63
g4432
sg56
(lp4464
g49
(g70
g51
NtRp4465
(dp4466
g54
(dp4467
sg63
g4461
sg56
(lp4468
g49
(g50
g51
NtRp4469
(dp4470
g54
(dp4471
g62
I1
ssg63
g4465
sg56
(lp4472
Nasbasbasbag49
(g65
g51
NtRp4473
(dp4474
g54
(dp4475
sg63
g4432
sg56
(lp4476
g49
(g70
g51
NtRp4477
(dp4478
g54
(dp4479
sg63
g4473
sg56
(lp4480
g49
(g50
g51
NtRp4481
(dp4482
g54
(dp4483
g62
I1
ssg63
g4477
sg56
(lp4484
(lp4485
(g3949
(S's\x06\x00\x00\x00Groups'
tRp4486
I00
S'http://www.web2py.com/examples/default/usergroups'
p4487
tp4488
a(g3949
(S's\x07\x00\x00\x00Twitter'
tRp4489
I00
S'http://twitter.com/web2py'
p4490
tp4491
a(g3949
(S's\t\x00\x00\x00Live Chat'
tRp4492
I00
S'http://webchat.freenode.net/?channels=web2py'
p4493
tp4494
aasbasbasbasbasbasbasbag49
(g65
g51
NtRp4495
(dp4496
g54
(dp4497
sg63
g4062
sg56
(lp4498
g49
(g70
g51
NtRp4499
(dp4500
g54
(dp4501
sg63
g4495
sg56
(lp4502
g49
(g50
g51
NtRp4503
(dp4504
g54
(dp4505
g62
I2
ssg63
g4499
sg56
(lp4506
g49
(g58
g51
NtRp4507
(dp4508
g54
(dp4509
g62
I1
ssg63
Nsg56
(lp4510
g49
(g65
g51
NtRp4511
(dp4512
g54
(dp4513
sg63
g4507
sg56
(lp4514
g49
(g70
g51
NtRp4515
(dp4516
g54
(dp4517
sg63
g4511
sg56
(lp4518
g49
(g50
g51
NtRp4519
(dp4520
g54
(dp4521
g62
I1
ssg63
g4515
sg56
(lp4522
g3949
(S's\x07\x00\x00\x00Plugins'
tRp4523
asbasbasbag49
(g65
g51
NtRp4524
(dp4525
g54
(dp4526
sg63
g4507
sg56
(lp4527
g49
(g70
g51
NtRp4528
(dp4529
g54
(dp4530
sg63
g4524
sg56
(lp4531
g49
(g50
g51
NtRp4532
(dp4533
g54
(dp4534
g62
I1
ssg63
g4528
sg56
(lp4535
I00
asbasbasbag49
(g65
g51
NtRp4536
(dp4537
g54
(dp4538
sg63
g4507
sg56
(lp4539
g49
(g70
g51
NtRp4540
(dp4541
g54
(dp4542
sg63
g4536
sg56
(lp4543
g49
(g50
g51
NtRp4544
(dp4545
g54
(dp4546
g62
I1
ssg63
g4540
sg56
(lp4547
Nasbasbasbag49
(g65
g51
NtRp4548
(dp4549
g54
(dp4550
sg63
g4507
sg56
(lp4551
g49
(g70
g51
NtRp4552
(dp4553
g54
(dp4554
sg63
g4548
sg56
(lp4555
g49
(g50
g51
NtRp4556
(dp4557
g54
(dp4558
g62
I1
ssg63
g4552
sg56
(lp4559
(lp4560
(S'plugin_wiki'
p4561
I00
S'http://web2py.com/examples/default/download'
p4562
tp4563
a(g3949
(S's\r\x00\x00\x00Other Plugins'
tRp4564
I00
g4294
tp4565
a(g3949
(S's\x0e\x00\x00\x00Layout Plugins'
tRp4566
I00
g4297
tp4567
aasbasbasbasbasbasbasbasbasbasbasbasbasbasbasbasbasbasbasbag49
(g65
g51
NtRp4568
(dp4569
g54
(dp4570
sg63
g3412
sg56
(lp4571
g49
(g70
g51
NtRp4572
(dp4573
g54
(dp4574
g74
g75
ssg63
g4568
sg56
(lp4575
S'meta'
p4576
asbag49
(g70
g51
NtRp4577
(dp4578
g54
(dp4579
g81
g82
ssg63
g4568
sg56
(lp4580
S':'
asbag49
(g70
g51
NtRp4581
(dp4582
g54
(dp4583
sg63
g4568
sg56
(lp4584
g49
(g50
g51
NtRp4585
(dp4586
g54
(dp4587
g62
I5
ssg63
g4581
sg56
(lp4588
g49
(g58
g51
NtRp4589
(dp4590
g54
(dp4591
g62
I4
ssg63
Nsg56
(lp4592
g49
(g65
g51
NtRp4593
(dp4594
g54
(dp4595
sg63
g4589
sg56
(lp4596
g49
(g70
g51
NtRp4597
(dp4598
g54
(dp4599
g74
g75
ssg63
g4593
sg56
(lp4600
S'author'
p4601
asbag49
(g70
g51
NtRp4602
(dp4603
g54
(dp4604
g81
g82
ssg63
g4593
sg56
(lp4605
S':'
asbag49
(g70
g51
NtRp4606
(dp4607
g54
(dp4608
sg63
g4593
sg56
(lp4609
g49
(g50
g51
NtRp4610
(dp4611
g54
(dp4612
g62
I4
ssg63
g4606
sg56
(lp4613
S'Your Name <you@example.com>'
p4614
asbasbasbag49
(g65
g51
NtRp4615
(dp4616
g54
(dp4617
sg63
g4589
sg56
(lp4618
g49
(g70
g51
NtRp4619
(dp4620
g54
(dp4621
g74
g75
ssg63
g4615
sg56
(lp4622
S'copyright'
p4623
asbag49
(g70
g51
NtRp4624
(dp4625
g54
(dp4626
g81
g82
ssg63
g4615
sg56
(lp4627
S':'
asbag49
(g70
g51
NtRp4628
(dp4629
g54
(dp4630
sg63
g4615
sg56
(lp4631
g49
(g50
g51
NtRp4632
(dp4633
g54
(dp4634
g62
I4
ssg63
g4628
sg56
(lp4635
S'Copyright 2011'
p4636
asbasbasbag49
(g65
g51
NtRp4637
(dp4638
g54
(dp4639
sg63
g4589
sg56
(lp4640
g49
(g70
g51
NtRp4641
(dp4642
g54
(dp4643
g74
g75
ssg63
g4637
sg56
(lp4644
S'description'
p4645
asbag49
(g70
g51
NtRp4646
(dp4647
g54
(dp4648
g81
g82
ssg63
g4637
sg56
(lp4649
S':'
asbag49
(g70
g51
NtRp4650
(dp4651
g54
(dp4652
sg63
g4637
sg56
(lp4653
g49
(g50
g51
NtRp4654
(dp4655
g54
(dp4656
g62
I4
ssg63
g4650
sg56
(lp4657
S'a cool new app'
p4658
asbasbasbag49
(g65
g51
NtRp4659
(dp4660
g54
(dp4661
sg63
g4589
sg56
(lp4662
g49
(g70
g51
NtRp4663
(dp4664
g54
(dp4665
g74
g75
ssg63
g4659
sg56
(lp4666
S'generator'
p4667
asbag49
(g70
g51
NtRp4668
(dp4669
g54
(dp4670
g81
g82
ssg63
g4659
sg56
(lp4671
S':'
asbag49
(g70
g51
NtRp4672
(dp4673
g54
(dp4674
sg63
g4659
sg56
(lp4675
g49
(g50
g51
NtRp4676
(dp4677
g54
(dp4678
g62
I4
ssg63
g4672
sg56
(lp4679
S'Web2py Web Framework'
p4680
asbasbasbag49
(g65
g51
NtRp4681
(dp4682
g54
(dp4683
sg63
g4589
sg56
(lp4684
g49
(g70
g51
NtRp4685
(dp4686
g54
(dp4687
g74
g75
ssg63
g4681
sg56
(lp4688
S'keywords'
p4689
asbag49
(g70
g51
NtRp4690
(dp4691
g54
(dp4692
g81
g82
ssg63
g4681
sg56
(lp4693
S':'
asbag49
(g70
g51
NtRp4694
(dp4695
g54
(dp4696
sg63
g4681
sg56
(lp4697
g49
(g50
g51
NtRp4698
(dp4699
g54
(dp4700
g62
I4
ssg63
g4694
sg56
(lp4701
S'web2py, python, framework'
p4702
asbasbasbasbasbasbasbag49
(g65
g51
NtRp4703
(dp4704
g54
(dp4705
sg63
g3412
sg56
(lp4706
g49
(g70
g51
NtRp4707
(dp4708
g54
(dp4709
g74
g75
ssg63
g4703
sg56
(lp4710
S'postprocessing'
p4711
asbag49
(g70
g51
NtRp4712
(dp4713
g54
(dp4714
g81
g82
ssg63
g4703
sg56
(lp4715
S':'
asbag49
(g70
g51
NtRp4716
(dp4717
g54
(dp4718
sg63
g4703
sg56
(lp4719
g49
(g50
g51
NtRp4720
(dp4721
g54
(dp4722
g62
I5
ssg63
g4716
sg56
(lp4723
g49
(g58
g51
NtRp4724
(dp4725
g54
(dp4726
g62
I4
ssg63
Nsg56
(lp4727
sbasbasbasbag49
(g65
g51
NtRp4728
(dp4729
g54
(dp4730
sg63
g3412
sg56
(lp4731
g49
(g70
g51
NtRp4732
(dp4733
g54
(dp4734
g74
g75
ssg63
g4728
sg56
(lp4735
S'session_file'
p4736
asbag49
(g70
g51
NtRp4737
(dp4738
g54
(dp4739
g81
g82
ssg63
g4728
sg56
(lp4740
S':'
asbag49
(g70
g51
NtRp4741
(dp4742
g54
(dp4743
sg63
g4728
sg56
(lp4744
g49
(g50
g51
NtRp4745
(dp4746
g54
(dp4747
g62
I5
ssg63
g4741
sg56
(lp4748
S"<open file '/Users/udimilo/Documents/web2py/applications/udi0312/sessions/127.0.0.1-fcd6a577-d448-4882-b7bc-f353da84ba3b', mode 'rb+' at 0xa09b968>"
p4749
asbasbasbag49
(g65
g51
NtRp4750
(dp4751
g54
(dp4752
sg63
g3412
sg56
(lp4753
g49
(g70
g51
NtRp4754
(dp4755
g54
(dp4756
g74
g75
ssg63
g4750
sg56
(lp4757
S'session_filename'
p4758
asbag49
(g70
g51
NtRp4759
(dp4760
g54
(dp4761
g81
g82
ssg63
g4750
sg56
(lp4762
S':'
asbag49
(g70
g51
NtRp4763
(dp4764
g54
(dp4765
sg63
g4750
sg56
(lp4766
g49
(g50
g51
NtRp4767
(dp4768
g54
(dp4769
g62
I5
ssg63
g4763
sg56
(lp4770
S'/Users/udimilo/Documents/web2py/applications/udi0312/sessions/127.0.0.1-fcd6a577-d448-4882-b7bc-f353da84ba3b'
p4771
asbasbasbag49
(g65
g51
NtRp4772
(dp4773
g54
(dp4774
sg63
g3412
sg56
(lp4775
g49
(g70
g51
NtRp4776
(dp4777
g54
(dp4778
g74
g75
ssg63
g4772
sg56
(lp4779
S'session_id'
p4780
asbag49
(g70
g51
NtRp4781
(dp4782
g54
(dp4783
g81
g82
ssg63
g4772
sg56
(lp4784
S':'
asbag49
(g70
g51
NtRp4785
(dp4786
g54
(dp4787
sg63
g4772
sg56
(lp4788
g49
(g50
g51
NtRp4789
(dp4790
g54
(dp4791
g62
I5
ssg63
g4785
sg56
(lp4792
S'127.0.0.1-fcd6a577-d448-4882-b7bc-f353da84ba3b'
p4793
asbasbasbag49
(g65
g51
NtRp4794
(dp4795
g54
(dp4796
sg63
g3412
sg56
(lp4797
g49
(g70
g51
NtRp4798
(dp4799
g54
(dp4800
g74
g75
ssg63
g4794
sg56
(lp4801
S'session_id_name'
p4802
asbag49
(g70
g51
NtRp4803
(dp4804
g54
(dp4805
g81
g82
ssg63
g4794
sg56
(lp4806
S':'
asbag49
(g70
g51
NtRp4807
(dp4808
g54
(dp4809
sg63
g4794
sg56
(lp4810
g49
(g50
g51
NtRp4811
(dp4812
g54
(dp4813
g62
I5
ssg63
g4807
sg56
(lp4814
g3469
asbasbasbag49
(g65
g51
NtRp4815
(dp4816
g54
(dp4817
sg63
g3412
sg56
(lp4818
g49
(g70
g51
NtRp4819
(dp4820
g54
(dp4821
g74
g75
ssg63
g4815
sg56
(lp4822
S'session_locked'
p4823
asbag49
(g70
g51
NtRp4824
(dp4825
g54
(dp4826
g81
g82
ssg63
g4815
sg56
(lp4827
S':'
asbag49
(g70
g51
NtRp4828
(dp4829
g54
(dp4830
sg63
g4815
sg56
(lp4831
g49
(g50
g51
NtRp4832
(dp4833
g54
(dp4834
g62
I5
ssg63
g4828
sg56
(lp4835
g1489
asbasbasbag49
(g65
g51
NtRp4836
(dp4837
g54
(dp4838
sg63
g3412
sg56
(lp4839
g49
(g70
g51
NtRp4840
(dp4841
g54
(dp4842
g74
g75
ssg63
g4836
sg56
(lp4843
S'session_new'
p4844
asbag49
(g70
g51
NtRp4845
(dp4846
g54
(dp4847
g81
g82
ssg63
g4836
sg56
(lp4848
S':'
asbag49
(g70
g51
NtRp4849
(dp4850
g54
(dp4851
sg63
g4836
sg56
(lp4852
g49
(g50
g51
NtRp4853
(dp4854
g54
(dp4855
g62
I5
ssg63
g4849
sg56
(lp4856
g92
asbasbasbag49
(g65
g51
NtRp4857
(dp4858
g54
(dp4859
sg63
g3412
sg56
(lp4860
g49
(g70
g51
NtRp4861
(dp4862
g54
(dp4863
g74
g75
ssg63
g4857
sg56
(lp4864
S'status'
p4865
asbag49
(g70
g51
NtRp4866
(dp4867
g54
(dp4868
g81
g82
ssg63
g4857
sg56
(lp4869
S':'
asbag49
(g70
g51
NtRp4870
(dp4871
g54
(dp4872
sg63
g4857
sg56
(lp4873
g49
(g50
g51
NtRp4874
(dp4875
g54
(dp4876
g62
I5
ssg63
g4870
sg56
(lp4877
S'200'
p4878
asbasbasbag49
(g65
g51
NtRp4879
(dp4880
g54
(dp4881
sg63
g3412
sg56
(lp4882
g49
(g70
g51
NtRp4883
(dp4884
g54
(dp4885
g74
g75
ssg63
g4879
sg56
(lp4886
S'subtitle'
p4887
asbag49
(g70
g51
NtRp4888
(dp4889
g54
(dp4890
g81
g82
ssg63
g4879
sg56
(lp4891
S':'
asbag49
(g70
g51
NtRp4892
(dp4893
g54
(dp4894
sg63
g4879
sg56
(lp4895
g49
(g50
g51
NtRp4896
(dp4897
g54
(dp4898
g62
I5
ssg63
g4892
sg56
(lp4899
g3949
(S's\r\x00\x00\x00customize me!'
tRp4900
asbasbasbag49
(g65
g51
NtRp4901
(dp4902
g54
(dp4903
sg63
g3412
sg56
(lp4904
g49
(g70
g51
NtRp4905
(dp4906
g54
(dp4907
g74
g75
ssg63
g4901
sg56
(lp4908
S'title'
p4909
asbag49
(g70
g51
NtRp4910
(dp4911
g54
(dp4912
g81
g82
ssg63
g4901
sg56
(lp4913
S':'
asbag49
(g70
g51
NtRp4914
(dp4915
g54
(dp4916
sg63
g4901
sg56
(lp4917
g49
(g50
g51
NtRp4918
(dp4919
g54
(dp4920
g62
I5
ssg63
g4914
sg56
(lp4921
S'Udi0312'
p4922
asbasbasbag49
(g65
g51
NtRp4923
(dp4924
g54
(dp4925
sg63
g3412
sg56
(lp4926
g49
(g70
g51
NtRp4927
(dp4928
g54
(dp4929
g74
g75
ssg63
g4923
sg56
(lp4930
g2174
asbag49
(g70
g51
NtRp4931
(dp4932
g54
(dp4933
g81
g82
ssg63
g4923
sg56
(lp4934
S':'
asbag49
(g70
g51
NtRp4935
(dp4936
g54
(dp4937
sg63
g4923
sg56
(lp4938
g49
(g50
g51
NtRp4939
(dp4940
g54
(dp4941
g62
I5
ssg63
g4935
sg56
(lp4942
g2187
asbasbasbag49
(g65
g51
NtRp4943
(dp4944
g54
(dp4945
sg63
g3412
sg56
(lp4946
g49
(g70
g51
NtRp4947
(dp4948
g54
(dp4949
g74
g75
ssg63
g4943
sg56
(lp4950
S'view'
p4951
asbag49
(g70
g51
NtRp4952
(dp4953
g54
(dp4954
g81
g82
ssg63
g4943
sg56
(lp4955
S':'
asbag49
(g70
g51
NtRp4956
(dp4957
g54
(dp4958
sg63
g4943
sg56
(lp4959
g49
(g50
g51
NtRp4960
(dp4961
g54
(dp4962
g62
I5
ssg63
g4956
sg56
(lp4963
S'default/unfollow.html'
p4964
asbasbasbasbasbsS'locals'
p4965
(dp4966
S'self'
p4967
S"<Row {'follower_id': 1, 'update_record': <functi...elete_record': <function <lambda> at 0xa8388f0>}>"
p4968
sS'm'
S'None'
p4969
sS'key'
p4970
S"'remove'"
p4971
sssS'traceback'
p4972
S'Traceback (most recent call last):\n  File "/users/udimilo/Documents/web2py/gluon/restricted.py", line 205, in restricted\n    exec ccode in environment\n  File "/Users/udimilo/Documents/web2py/applications/udi0312/controllers/default.py", line 148, in <module>\n  File "/users/udimilo/Documents/web2py/gluon/globals.py", line 173, in <lambda>\n    self._caller = lambda f: f()\n  File "/Users/udimilo/Documents/web2py/applications/udi0312/controllers/default.py", line 93, in unfollow\n    db.user_user(rel.id).remove()\n  File "/users/udimilo/Documents/web2py/gluon/dal.py", line 5657, in __getattr__\n    return self[key]\n  File "/users/udimilo/Documents/web2py/gluon/dal.py", line 5648, in __getitem__\n    return dict.__getitem__(self, key)\nKeyError: \'remove\'\n'
p4973
s.