(dp1
S'output'
p2
S"<type 'exceptions.ValueError'> invalid literal for int() with base 10: 'xxx'"
p3
sS'layer'
p4
S'/Users/udimilo/Documents/web2py/applications/udi0312/controllers/default.py'
p5
sS'code'
p6
S'# -*- coding: utf-8 -*-\n# this file is released under public domain and you can use without limitations\n\n#########################################################################\n## This is a samples controller\n## - index is the default action of any application\n## - user is required for authentication and authorization\n## - download is for downloading files uploaded in the db (does streaming)\n## - call exposes all registered services (none by default)\n#########################################################################\nfrom readability import Readability\n\ndef index():\n    articles = db().select(db.article.ALL)\n    categories = db().select(db.category.ALL, orderby=db.category.name)\n    boards = db(db.board.user_id==auth.user.id).select() if auth.user else []\n    return dict(items=articles, categories=categories, boards=boards)\n\ndef addArticle():\n    board = db(db.board.name==request.vars.board).select().first()\n    article = db.article.insert(url=request.vars.url, height=300)\n    pin = db.pin.insert(board_id=board.id, article_id=article.id)\n    return pin.id\n\ndef addBoard():\n    category = db(db.category.name==request.vars.category).select().first()\n    board = db.board.insert(user_id=auth.user.id, category_id=category.id, name=request.vars.boardName)\n    return board.id\n\ndef test():\n    url = request.vars.url\n    article = db(db.article.url == url).select().first()\n    if article is None:\n        read = Readability()\n        json = read.content(url)\n        page = db.page.insert(\n            height=300,\n            url=json[\'url\'],\n            readability_url=json[\'short_url\'],\n            title=json[\'title\'],\n            content=json[\'content\'],\n            domain=json[\'domain\'],\n            author=json[\'author\'],\n            excerpt=json[\'excerpt\'],\n            word_count=json[\'word_count\'],\n            total_pages=json[\'total_pages\'],\n            date_published=json[\'date_published\'],\n            next_page_id=json[\'next_page_id\'],\n            rendered_pages=json[\'rendered_pages\'],            \n            )\n    \n    return article.id\n\ndef users():\n    user_id = request.args(0)\n    user = db(db.auth_user.id == user_id).select().first()\n    if user is None:\n        return \'User does not exist\'\n    \n    user_boards = db(db.board.id,db.board.user_id == user.id).select()\n    user_pins = db(db.pin.board_id in user_boards).select()\n        \n    return dict(user=user)\n\ndef articles():\n    id = request.args(0)\n    if id is None:\n        return \'go back\'\n        \n    article = db(db.article.id == id).select().first()\n    return dict(article=article)\n    \ndef boards():\n    id = request.args(0)\n    if id is None:\n        return \'go back\'\n        \n    board = db(db.board.id == id).select().first()\n    return dict(board=board)\n    \ndef user():\n    """\n    exposes:\n    http://..../[app]/default/user/login\n    http://..../[app]/default/user/logout\n    http://..../[app]/default/user/register\n    http://..../[app]/default/user/profile\n    http://..../[app]/default/user/retrieve_password\n    http://..../[app]/default/user/change_password\n    use @auth.requires_login()\n        @auth.requires_membership(\'group name\')\n        @auth.requires_permission(\'read\',\'table name\',record_id)\n    to decorate functions that need access control\n    """\n    return dict(form=auth())\n\n\ndef download():\n    """\n    allows downloading of uploaded files\n    http://..../[app]/default/download/[filename]\n    """\n    return response.download(request,db)\n\n\ndef call():\n    """\n    exposes services. for example:\n    http://..../[app]/default/call/jsonrpc\n    decorate with @services.jsonrpc the functions to expose\n    supports xml, json, xmlrpc, jsonrpc, amfrpc, rss, csv\n    """\n    return service()\n\n\n@auth.requires_signature()\ndef data():\n    """\n    http://..../[app]/default/data/tables\n    http://..../[app]/default/data/create/[table]\n    http://..../[app]/default/data/read/[table]/[id]\n    http://..../[app]/default/data/update/[table]/[id]\n    http://..../[app]/default/data/delete/[table]/[id]\n    http://..../[app]/default/data/select/[table]\n    http://..../[app]/default/data/search/[table]\n    but URLs must be signed, i.e. linked with\n      A(\'table\',_href=URL(\'data/tables\',user_signature=True))\n    or with the signed load operator\n      LOAD(\'default\',\'data.load\',args=\'tables\',ajax=True,user_signature=True)\n    """\n    return dict(form=crud())\n\nresponse._vars=response._caller(boards)\n'
p7
sS'snapshot'
p8
(dp9
S'exception'
p10
(dp11
S'__hash__'
p12
S"<method-wrapper '__hash__' of exceptions.ValueError object at 0xa525760>"
p13
sS'__setattr__'
p14
S"<method-wrapper '__setattr__' of exceptions.ValueError object at 0xa525760>"
p15
sS'__reduce_ex__'
p16
S'<built-in method __reduce_ex__ of exceptions.ValueError object at 0xa525760>'
p17
sS'__getslice__'
p18
S"<method-wrapper '__getslice__' of exceptions.ValueError object at 0xa525760>"
p19
sS'__getitem__'
p20
S"<method-wrapper '__getitem__' of exceptions.ValueError object at 0xa525760>"
p21
sS'__setstate__'
p22
S'<built-in method __setstate__ of exceptions.ValueError object at 0xa525760>'
p23
sS'__reduce__'
p24
S'<built-in method __reduce__ of exceptions.ValueError object at 0xa525760>'
p25
sS'__str__'
p26
S"<method-wrapper '__str__' of exceptions.ValueError object at 0xa525760>"
p27
sS'args'
p28
S'("invalid literal for int() with base 10: \'xxx\'",)'
p29
sS'__getattribute__'
p30
S"<method-wrapper '__getattribute__' of exceptions.ValueError object at 0xa525760>"
p31
sS'__class__'
p32
S"<type 'exceptions.ValueError'>"
p33
sS'__delattr__'
p34
S"<method-wrapper '__delattr__' of exceptions.ValueError object at 0xa525760>"
p35
sS'__repr__'
p36
S"<method-wrapper '__repr__' of exceptions.ValueError object at 0xa525760>"
p37
sS'__dict__'
p38
S'{}'
p39
sS'__doc__'
p40
S"'Inappropriate argument value (of correct type).'"
p41
sS'__init__'
p42
S"<method-wrapper '__init__' of exceptions.ValueError object at 0xa525760>"
p43
sS'__new__'
p44
S'<built-in method __new__ of type object at 0xffc00>'
p45
ssS'evalue'
p46
S"invalid literal for int() with base 10: 'xxx'"
p47
sS'request'
p48
ccopy_reg
_reconstructor
p49
(cgluon.html
BEAUTIFY
p50
c__builtin__
object
p51
NtRp52
(dp53
S'attributes'
p54
(dp55
sS'components'
p56
(lp57
g49
(cgluon.html
TABLE
p58
g51
NtRp59
(dp60
g54
(dp61
S'level'
p62
I5
ssS'parent'
p63
Nsg56
(lp64
g49
(cgluon.html
TR
p65
g51
NtRp66
(dp67
g54
(dp68
sg63
g59
sg56
(lp69
g49
(cgluon.html
TD
p70
g51
NtRp71
(dp72
g54
(dp73
S'_style'
p74
S'font-weight:bold;vertical-align:top'
p75
ssg63
g66
sg56
(lp76
S'ajax'
p77
asbag49
(g70
g51
NtRp78
(dp79
g54
(dp80
S'_valign'
p81
S'top'
p82
ssg63
g66
sg56
(lp83
S':'
asbag49
(g70
g51
NtRp84
(dp85
g54
(dp86
sg63
g66
sg56
(lp87
g49
(g50
g51
NtRp88
(dp89
g54
(dp90
g62
I5
ssg63
g84
sg56
(lp91
S'False'
p92
asbasbasbag49
(g65
g51
NtRp93
(dp94
g54
(dp95
sg63
g59
sg56
(lp96
g49
(g70
g51
NtRp97
(dp98
g54
(dp99
g74
g75
ssg63
g93
sg56
(lp100
S'application'
p101
asbag49
(g70
g51
NtRp102
(dp103
g54
(dp104
g81
g82
ssg63
g93
sg56
(lp105
S':'
asbag49
(g70
g51
NtRp106
(dp107
g54
(dp108
sg63
g93
sg56
(lp109
g49
(g50
g51
NtRp110
(dp111
g54
(dp112
g62
I5
ssg63
g106
sg56
(lp113
S'udi0312'
p114
asbasbasbag49
(g65
g51
NtRp115
(dp116
g54
(dp117
sg63
g59
sg56
(lp118
g49
(g70
g51
NtRp119
(dp120
g54
(dp121
g74
g75
ssg63
g115
sg56
(lp122
g28
asbag49
(g70
g51
NtRp123
(dp124
g54
(dp125
g81
g82
ssg63
g115
sg56
(lp126
S':'
asbag49
(g70
g51
NtRp127
(dp128
g54
(dp129
sg63
g115
sg56
(lp130
g49
(g50
g51
NtRp131
(dp132
g54
(dp133
g62
I5
ssg63
g127
sg56
(lp134
g49
(g58
g51
NtRp135
(dp136
g54
(dp137
g62
I4
ssg63
Nsg56
(lp138
g49
(g65
g51
NtRp139
(dp140
g54
(dp141
sg63
g135
sg56
(lp142
g49
(g70
g51
NtRp143
(dp144
g54
(dp145
sg63
g139
sg56
(lp146
g49
(g50
g51
NtRp147
(dp148
g54
(dp149
g62
I4
ssg63
g143
sg56
(lp150
S'xxx'
p151
asbasbasbasbasbasbasbag49
(g65
g51
NtRp152
(dp153
g54
(dp154
sg63
g59
sg56
(lp155
g49
(g70
g51
NtRp156
(dp157
g54
(dp158
g74
g75
ssg63
g152
sg56
(lp159
S'body'
p160
asbag49
(g70
g51
NtRp161
(dp162
g54
(dp163
g81
g82
ssg63
g152
sg56
(lp164
S':'
asbag49
(g70
g51
NtRp165
(dp166
g54
(dp167
sg63
g152
sg56
(lp168
g49
(g50
g51
NtRp169
(dp170
g54
(dp171
g62
I5
ssg63
g165
sg56
(lp172
S'<cStringIO.StringO object at 0xa25d540>'
p173
asbasbasbag49
(g65
g51
NtRp174
(dp175
g54
(dp176
sg63
g59
sg56
(lp177
g49
(g70
g51
NtRp178
(dp179
g54
(dp180
g74
g75
ssg63
g174
sg56
(lp181
S'client'
p182
asbag49
(g70
g51
NtRp183
(dp184
g54
(dp185
g81
g82
ssg63
g174
sg56
(lp186
S':'
asbag49
(g70
g51
NtRp187
(dp188
g54
(dp189
sg63
g174
sg56
(lp190
g49
(g50
g51
NtRp191
(dp192
g54
(dp193
g62
I5
ssg63
g187
sg56
(lp194
S'127.0.0.1'
p195
asbasbasbag49
(g65
g51
NtRp196
(dp197
g54
(dp198
sg63
g59
sg56
(lp199
g49
(g70
g51
NtRp200
(dp201
g54
(dp202
g74
g75
ssg63
g196
sg56
(lp203
S'controller'
p204
asbag49
(g70
g51
NtRp205
(dp206
g54
(dp207
g81
g82
ssg63
g196
sg56
(lp208
S':'
asbag49
(g70
g51
NtRp209
(dp210
g54
(dp211
sg63
g196
sg56
(lp212
g49
(g50
g51
NtRp213
(dp214
g54
(dp215
g62
I5
ssg63
g209
sg56
(lp216
S'default'
p217
asbasbasbag49
(g65
g51
NtRp218
(dp219
g54
(dp220
sg63
g59
sg56
(lp221
g49
(g70
g51
NtRp222
(dp223
g54
(dp224
g74
g75
ssg63
g218
sg56
(lp225
S'cookies'
p226
asbag49
(g70
g51
NtRp227
(dp228
g54
(dp229
g81
g82
ssg63
g218
sg56
(lp230
S':'
asbag49
(g70
g51
NtRp231
(dp232
g54
(dp233
sg63
g218
sg56
(lp234
g49
(g50
g51
NtRp235
(dp236
g54
(dp237
g62
I5
ssg63
g231
sg56
(lp238
g49
(g58
g51
NtRp239
(dp240
g54
(dp241
g62
I4
ssg63
Nsg56
(lp242
g49
(g65
g51
NtRp243
(dp244
g54
(dp245
sg63
g239
sg56
(lp246
g49
(g70
g51
NtRp247
(dp248
g54
(dp249
g74
g75
ssg63
g243
sg56
(lp250
S'session_id_admin'
p251
asbag49
(g70
g51
NtRp252
(dp253
g54
(dp254
g81
g82
ssg63
g243
sg56
(lp255
S':'
asbag49
(g70
g51
NtRp256
(dp257
g54
(dp258
sg63
g243
sg56
(lp259
g49
(g50
g51
NtRp260
(dp261
g54
(dp262
g62
I4
ssg63
g256
sg56
(lp263
g49
(g58
g51
NtRp264
(dp265
g54
(dp266
g62
I3
ssg63
Nsg56
(lp267
g49
(g65
g51
NtRp268
(dp269
g54
(dp270
sg63
g264
sg56
(lp271
g49
(g70
g51
NtRp272
(dp273
g54
(dp274
g74
g75
ssg63
g268
sg56
(lp275
S'comment'
p276
asbag49
(g70
g51
NtRp277
(dp278
g54
(dp279
g81
g82
ssg63
g268
sg56
(lp280
S':'
asbag49
(g70
g51
NtRp281
(dp282
g54
(dp283
sg63
g268
sg56
(lp284
g49
(g50
g51
NtRp285
(dp286
g54
(dp287
g62
I3
ssg63
g281
sg56
(lp288
S''
asbasbasbag49
(g65
g51
NtRp289
(dp290
g54
(dp291
sg63
g264
sg56
(lp292
g49
(g70
g51
NtRp293
(dp294
g54
(dp295
g74
g75
ssg63
g289
sg56
(lp296
S'domain'
p297
asbag49
(g70
g51
NtRp298
(dp299
g54
(dp300
g81
g82
ssg63
g289
sg56
(lp301
S':'
asbag49
(g70
g51
NtRp302
(dp303
g54
(dp304
sg63
g289
sg56
(lp305
g49
(g50
g51
NtRp306
(dp307
g54
(dp308
g62
I3
ssg63
g302
sg56
(lp309
S''
asbasbasbag49
(g65
g51
NtRp310
(dp311
g54
(dp312
sg63
g264
sg56
(lp313
g49
(g70
g51
NtRp314
(dp315
g54
(dp316
g74
g75
ssg63
g310
sg56
(lp317
S'expires'
p318
asbag49
(g70
g51
NtRp319
(dp320
g54
(dp321
g81
g82
ssg63
g310
sg56
(lp322
S':'
asbag49
(g70
g51
NtRp323
(dp324
g54
(dp325
sg63
g310
sg56
(lp326
g49
(g50
g51
NtRp327
(dp328
g54
(dp329
g62
I3
ssg63
g323
sg56
(lp330
S''
asbasbasbag49
(g65
g51
NtRp331
(dp332
g54
(dp333
sg63
g264
sg56
(lp334
g49
(g70
g51
NtRp335
(dp336
g54
(dp337
g74
g75
ssg63
g331
sg56
(lp338
S'max-age'
p339
asbag49
(g70
g51
NtRp340
(dp341
g54
(dp342
g81
g82
ssg63
g331
sg56
(lp343
S':'
asbag49
(g70
g51
NtRp344
(dp345
g54
(dp346
sg63
g331
sg56
(lp347
g49
(g50
g51
NtRp348
(dp349
g54
(dp350
g62
I3
ssg63
g344
sg56
(lp351
S''
asbasbasbag49
(g65
g51
NtRp352
(dp353
g54
(dp354
sg63
g264
sg56
(lp355
g49
(g70
g51
NtRp356
(dp357
g54
(dp358
g74
g75
ssg63
g352
sg56
(lp359
S'path'
p360
asbag49
(g70
g51
NtRp361
(dp362
g54
(dp363
g81
g82
ssg63
g352
sg56
(lp364
S':'
asbag49
(g70
g51
NtRp365
(dp366
g54
(dp367
sg63
g352
sg56
(lp368
g49
(g50
g51
NtRp369
(dp370
g54
(dp371
g62
I3
ssg63
g365
sg56
(lp372
S''
asbasbasbag49
(g65
g51
NtRp373
(dp374
g54
(dp375
sg63
g264
sg56
(lp376
g49
(g70
g51
NtRp377
(dp378
g54
(dp379
g74
g75
ssg63
g373
sg56
(lp380
S'secure'
p381
asbag49
(g70
g51
NtRp382
(dp383
g54
(dp384
g81
g82
ssg63
g373
sg56
(lp385
S':'
asbag49
(g70
g51
NtRp386
(dp387
g54
(dp388
sg63
g373
sg56
(lp389
g49
(g50
g51
NtRp390
(dp391
g54
(dp392
g62
I3
ssg63
g386
sg56
(lp393
S''
asbasbasbag49
(g65
g51
NtRp394
(dp395
g54
(dp396
sg63
g264
sg56
(lp397
g49
(g70
g51
NtRp398
(dp399
g54
(dp400
g74
g75
ssg63
g394
sg56
(lp401
S'version'
p402
asbag49
(g70
g51
NtRp403
(dp404
g54
(dp405
g81
g82
ssg63
g394
sg56
(lp406
S':'
asbag49
(g70
g51
NtRp407
(dp408
g54
(dp409
sg63
g394
sg56
(lp410
g49
(g50
g51
NtRp411
(dp412
g54
(dp413
g62
I3
ssg63
g407
sg56
(lp414
S''
asbasbasbasbasbasbasbag49
(g65
g51
NtRp415
(dp416
g54
(dp417
sg63
g239
sg56
(lp418
g49
(g70
g51
NtRp419
(dp420
g54
(dp421
g74
g75
ssg63
g415
sg56
(lp422
S'session_id_udi0312'
p423
asbag49
(g70
g51
NtRp424
(dp425
g54
(dp426
g81
g82
ssg63
g415
sg56
(lp427
S':'
asbag49
(g70
g51
NtRp428
(dp429
g54
(dp430
sg63
g415
sg56
(lp431
g49
(g50
g51
NtRp432
(dp433
g54
(dp434
g62
I4
ssg63
g428
sg56
(lp435
g49
(g58
g51
NtRp436
(dp437
g54
(dp438
g62
I3
ssg63
Nsg56
(lp439
g49
(g65
g51
NtRp440
(dp441
g54
(dp442
sg63
g436
sg56
(lp443
g49
(g70
g51
NtRp444
(dp445
g54
(dp446
g74
g75
ssg63
g440
sg56
(lp447
g276
asbag49
(g70
g51
NtRp448
(dp449
g54
(dp450
g81
g82
ssg63
g440
sg56
(lp451
S':'
asbag49
(g70
g51
NtRp452
(dp453
g54
(dp454
sg63
g440
sg56
(lp455
g49
(g50
g51
NtRp456
(dp457
g54
(dp458
g62
I3
ssg63
g452
sg56
(lp459
S''
asbasbasbag49
(g65
g51
NtRp460
(dp461
g54
(dp462
sg63
g436
sg56
(lp463
g49
(g70
g51
NtRp464
(dp465
g54
(dp466
g74
g75
ssg63
g460
sg56
(lp467
g297
asbag49
(g70
g51
NtRp468
(dp469
g54
(dp470
g81
g82
ssg63
g460
sg56
(lp471
S':'
asbag49
(g70
g51
NtRp472
(dp473
g54
(dp474
sg63
g460
sg56
(lp475
g49
(g50
g51
NtRp476
(dp477
g54
(dp478
g62
I3
ssg63
g472
sg56
(lp479
S''
asbasbasbag49
(g65
g51
NtRp480
(dp481
g54
(dp482
sg63
g436
sg56
(lp483
g49
(g70
g51
NtRp484
(dp485
g54
(dp486
g74
g75
ssg63
g480
sg56
(lp487
g318
asbag49
(g70
g51
NtRp488
(dp489
g54
(dp490
g81
g82
ssg63
g480
sg56
(lp491
S':'
asbag49
(g70
g51
NtRp492
(dp493
g54
(dp494
sg63
g480
sg56
(lp495
g49
(g50
g51
NtRp496
(dp497
g54
(dp498
g62
I3
ssg63
g492
sg56
(lp499
S''
asbasbasbag49
(g65
g51
NtRp500
(dp501
g54
(dp502
sg63
g436
sg56
(lp503
g49
(g70
g51
NtRp504
(dp505
g54
(dp506
g74
g75
ssg63
g500
sg56
(lp507
g339
asbag49
(g70
g51
NtRp508
(dp509
g54
(dp510
g81
g82
ssg63
g500
sg56
(lp511
S':'
asbag49
(g70
g51
NtRp512
(dp513
g54
(dp514
sg63
g500
sg56
(lp515
g49
(g50
g51
NtRp516
(dp517
g54
(dp518
g62
I3
ssg63
g512
sg56
(lp519
S''
asbasbasbag49
(g65
g51
NtRp520
(dp521
g54
(dp522
sg63
g436
sg56
(lp523
g49
(g70
g51
NtRp524
(dp525
g54
(dp526
g74
g75
ssg63
g520
sg56
(lp527
g360
asbag49
(g70
g51
NtRp528
(dp529
g54
(dp530
g81
g82
ssg63
g520
sg56
(lp531
S':'
asbag49
(g70
g51
NtRp532
(dp533
g54
(dp534
sg63
g520
sg56
(lp535
g49
(g50
g51
NtRp536
(dp537
g54
(dp538
g62
I3
ssg63
g532
sg56
(lp539
S''
asbasbasbag49
(g65
g51
NtRp540
(dp541
g54
(dp542
sg63
g436
sg56
(lp543
g49
(g70
g51
NtRp544
(dp545
g54
(dp546
g74
g75
ssg63
g540
sg56
(lp547
g381
asbag49
(g70
g51
NtRp548
(dp549
g54
(dp550
g81
g82
ssg63
g540
sg56
(lp551
S':'
asbag49
(g70
g51
NtRp552
(dp553
g54
(dp554
sg63
g540
sg56
(lp555
g49
(g50
g51
NtRp556
(dp557
g54
(dp558
g62
I3
ssg63
g552
sg56
(lp559
S''
asbasbasbag49
(g65
g51
NtRp560
(dp561
g54
(dp562
sg63
g436
sg56
(lp563
g49
(g70
g51
NtRp564
(dp565
g54
(dp566
g74
g75
ssg63
g560
sg56
(lp567
g402
asbag49
(g70
g51
NtRp568
(dp569
g54
(dp570
g81
g82
ssg63
g560
sg56
(lp571
S':'
asbag49
(g70
g51
NtRp572
(dp573
g54
(dp574
sg63
g560
sg56
(lp575
g49
(g50
g51
NtRp576
(dp577
g54
(dp578
g62
I3
ssg63
g572
sg56
(lp579
S''
asbasbasbasbasbasbasbasbasbasbasbag49
(g65
g51
NtRp580
(dp581
g54
(dp582
sg63
g59
sg56
(lp583
g49
(g70
g51
NtRp584
(dp585
g54
(dp586
g74
g75
ssg63
g580
sg56
(lp587
S'env'
p588
asbag49
(g70
g51
NtRp589
(dp590
g54
(dp591
g81
g82
ssg63
g580
sg56
(lp592
S':'
asbag49
(g70
g51
NtRp593
(dp594
g54
(dp595
sg63
g580
sg56
(lp596
g49
(g50
g51
NtRp597
(dp598
g54
(dp599
g62
I5
ssg63
g593
sg56
(lp600
g49
(g58
g51
NtRp601
(dp602
g54
(dp603
g62
I4
ssg63
Nsg56
(lp604
g49
(g65
g51
NtRp605
(dp606
g54
(dp607
sg63
g601
sg56
(lp608
g49
(g70
g51
NtRp609
(dp610
g54
(dp611
g74
g75
ssg63
g605
sg56
(lp612
S'app_folders'
p613
asbag49
(g70
g51
NtRp614
(dp615
g54
(dp616
g81
g82
ssg63
g605
sg56
(lp617
S':'
asbag49
(g70
g51
NtRp618
(dp619
g54
(dp620
sg63
g605
sg56
(lp621
g49
(g50
g51
NtRp622
(dp623
g54
(dp624
g62
I4
ssg63
g618
sg56
(lp625
S"set(['/Users/udimilo/Documents/web2py/applications/udi0312/', '/Users/udimilo/Documents/web2py/applications/admin/'])"
p626
asbasbasbag49
(g65
g51
NtRp627
(dp628
g54
(dp629
sg63
g601
sg56
(lp630
g49
(g70
g51
NtRp631
(dp632
g54
(dp633
g74
g75
ssg63
g627
sg56
(lp634
S'applications_parent'
p635
asbag49
(g70
g51
NtRp636
(dp637
g54
(dp638
g81
g82
ssg63
g627
sg56
(lp639
S':'
asbag49
(g70
g51
NtRp640
(dp641
g54
(dp642
sg63
g627
sg56
(lp643
g49
(g50
g51
NtRp644
(dp645
g54
(dp646
g62
I4
ssg63
g640
sg56
(lp647
S'/Users/udimilo/Documents/web2py'
p648
asbasbasbag49
(g65
g51
NtRp649
(dp650
g54
(dp651
sg63
g601
sg56
(lp652
g49
(g70
g51
NtRp653
(dp654
g54
(dp655
g74
g75
ssg63
g649
sg56
(lp656
S'cmd_args'
p657
asbag49
(g70
g51
NtRp658
(dp659
g54
(dp660
g81
g82
ssg63
g649
sg56
(lp661
S':'
asbag49
(g70
g51
NtRp662
(dp663
g54
(dp664
sg63
g649
sg56
(lp665
g49
(g50
g51
NtRp666
(dp667
g54
(dp668
g62
I4
ssg63
g662
sg56
(lp669
g49
(g58
g51
NtRp670
(dp671
g54
(dp672
g62
I3
ssg63
Nsg56
(lp673
sbasbasbasbag49
(g65
g51
NtRp674
(dp675
g54
(dp676
sg63
g601
sg56
(lp677
g49
(g70
g51
NtRp678
(dp679
g54
(dp680
g74
g75
ssg63
g674
sg56
(lp681
S'cmd_options'
p682
asbag49
(g70
g51
NtRp683
(dp684
g54
(dp685
g81
g82
ssg63
g674
sg56
(lp686
S':'
asbag49
(g70
g51
NtRp687
(dp688
g54
(dp689
sg63
g674
sg56
(lp690
g49
(g50
g51
NtRp691
(dp692
g54
(dp693
g62
I4
ssg63
g687
sg56
(lp694
S"<Values at 0x23301c0: {'verbose': False, 'ip': '127.0.0.1', 'shutdown_timeout': 5, 'taskbar': False, 'nocron': False, 'pid_filename': 'httpserver.pid', 'maxthreads': None, 'softcron': False, 'server_name': 'udi-milos-macbook-pro.fritz.box', 'bpython': False, 'nogui': False, 'port': 8000, 'extcron': False, 'debuglevel': 30, 'test': None, 'folder': '/Users/udimilo/Documents/web2py', 'config': '', 'import_models': False, 'winservice': '', 'shell': None, 'run': '', 'log_filename': 'httpserver.log', 'args': [''], 'socket_timeout': 5, 'ssl_ca_certificate': None, 'scheduler': None, 'profiler_filename': None, 'ssl_private_key': '', 'password': '<ask>', 'request_queue_size': 5, 'ssl_certificate': '', 'cronjob': False, 'numthreads': None, 'quiet': False, 'interfaces': None, 'minthreads': None, 'timeout': 10, 'plain': False, 'nobanner': False}>"
p695
asbasbasbag49
(g65
g51
NtRp696
(dp697
g54
(dp698
sg63
g601
sg56
(lp699
g49
(g70
g51
NtRp700
(dp701
g54
(dp702
g74
g75
ssg63
g696
sg56
(lp703
S'db_sessions'
p704
asbag49
(g70
g51
NtRp705
(dp706
g54
(dp707
g81
g82
ssg63
g696
sg56
(lp708
S':'
asbag49
(g70
g51
NtRp709
(dp710
g54
(dp711
sg63
g696
sg56
(lp712
g49
(g50
g51
NtRp713
(dp714
g54
(dp715
g62
I4
ssg63
g709
sg56
(lp716
S'set([])'
p717
asbasbasbag49
(g65
g51
NtRp718
(dp719
g54
(dp720
sg63
g601
sg56
(lp721
g49
(g70
g51
NtRp722
(dp723
g54
(dp724
g74
g75
ssg63
g718
sg56
(lp725
S'debugging'
p726
asbag49
(g70
g51
NtRp727
(dp728
g54
(dp729
g81
g82
ssg63
g718
sg56
(lp730
S':'
asbag49
(g70
g51
NtRp731
(dp732
g54
(dp733
sg63
g718
sg56
(lp734
g49
(g50
g51
NtRp735
(dp736
g54
(dp737
g62
I4
ssg63
g731
sg56
(lp738
g92
asbasbasbag49
(g65
g51
NtRp739
(dp740
g54
(dp741
sg63
g601
sg56
(lp742
g49
(g70
g51
NtRp743
(dp744
g54
(dp745
g74
g75
ssg63
g739
sg56
(lp746
S'gluon_parent'
p747
asbag49
(g70
g51
NtRp748
(dp749
g54
(dp750
g81
g82
ssg63
g739
sg56
(lp751
S':'
asbag49
(g70
g51
NtRp752
(dp753
g54
(dp754
sg63
g739
sg56
(lp755
g49
(g50
g51
NtRp756
(dp757
g54
(dp758
g62
I4
ssg63
g752
sg56
(lp759
S'/Users/udimilo/Documents/web2py'
p760
asbasbasbag49
(g65
g51
NtRp761
(dp762
g54
(dp763
sg63
g601
sg56
(lp764
g49
(g70
g51
NtRp765
(dp766
g54
(dp767
g74
g75
ssg63
g761
sg56
(lp768
S'http_accept'
p769
asbag49
(g70
g51
NtRp770
(dp771
g54
(dp772
g81
g82
ssg63
g761
sg56
(lp773
S':'
asbag49
(g70
g51
NtRp774
(dp775
g54
(dp776
sg63
g761
sg56
(lp777
g49
(g50
g51
NtRp778
(dp779
g54
(dp780
g62
I4
ssg63
g774
sg56
(lp781
S'text/html,application/xhtml+xml,application/xml;q=0.9,*/*;q=0.8'
p782
asbasbasbag49
(g65
g51
NtRp783
(dp784
g54
(dp785
sg63
g601
sg56
(lp786
g49
(g70
g51
NtRp787
(dp788
g54
(dp789
g74
g75
ssg63
g783
sg56
(lp790
S'http_accept_charset'
p791
asbag49
(g70
g51
NtRp792
(dp793
g54
(dp794
g81
g82
ssg63
g783
sg56
(lp795
S':'
asbag49
(g70
g51
NtRp796
(dp797
g54
(dp798
sg63
g783
sg56
(lp799
g49
(g50
g51
NtRp800
(dp801
g54
(dp802
g62
I4
ssg63
g796
sg56
(lp803
S'ISO-8859-1,utf-8;q=0.7,*;q=0.3'
p804
asbasbasbag49
(g65
g51
NtRp805
(dp806
g54
(dp807
sg63
g601
sg56
(lp808
g49
(g70
g51
NtRp809
(dp810
g54
(dp811
g74
g75
ssg63
g805
sg56
(lp812
S'http_accept_encoding'
p813
asbag49
(g70
g51
NtRp814
(dp815
g54
(dp816
g81
g82
ssg63
g805
sg56
(lp817
S':'
asbag49
(g70
g51
NtRp818
(dp819
g54
(dp820
sg63
g805
sg56
(lp821
g49
(g50
g51
NtRp822
(dp823
g54
(dp824
g62
I4
ssg63
g818
sg56
(lp825
S'gzip,deflate,sdch'
p826
asbasbasbag49
(g65
g51
NtRp827
(dp828
g54
(dp829
sg63
g601
sg56
(lp830
g49
(g70
g51
NtRp831
(dp832
g54
(dp833
g74
g75
ssg63
g827
sg56
(lp834
S'http_accept_language'
p835
asbag49
(g70
g51
NtRp836
(dp837
g54
(dp838
g81
g82
ssg63
g827
sg56
(lp839
S':'
asbag49
(g70
g51
NtRp840
(dp841
g54
(dp842
sg63
g827
sg56
(lp843
g49
(g50
g51
NtRp844
(dp845
g54
(dp846
g62
I4
ssg63
g840
sg56
(lp847
S'en-US,en;q=0.8'
p848
asbasbasbag49
(g65
g51
NtRp849
(dp850
g54
(dp851
sg63
g601
sg56
(lp852
g49
(g70
g51
NtRp853
(dp854
g54
(dp855
g74
g75
ssg63
g849
sg56
(lp856
S'http_connection'
p857
asbag49
(g70
g51
NtRp858
(dp859
g54
(dp860
g81
g82
ssg63
g849
sg56
(lp861
S':'
asbag49
(g70
g51
NtRp862
(dp863
g54
(dp864
sg63
g849
sg56
(lp865
g49
(g50
g51
NtRp866
(dp867
g54
(dp868
g62
I4
ssg63
g862
sg56
(lp869
S'keep-alive'
p870
asbasbasbag49
(g65
g51
NtRp871
(dp872
g54
(dp873
sg63
g601
sg56
(lp874
g49
(g70
g51
NtRp875
(dp876
g54
(dp877
g74
g75
ssg63
g871
sg56
(lp878
S'http_cookie'
p879
asbag49
(g70
g51
NtRp880
(dp881
g54
(dp882
g81
g82
ssg63
g871
sg56
(lp883
S':'
asbag49
(g70
g51
NtRp884
(dp885
g54
(dp886
sg63
g871
sg56
(lp887
g49
(g50
g51
NtRp888
(dp889
g54
(dp890
g62
I4
ssg63
g884
sg56
(lp891
S'session_id_admin=127.0.0.1-784f21fc-559b-4436-993f-35f35c035db4; session_id_udi0312=127.0.0.1-fcd6a577-d448-4882-b7bc-f353da84ba3b'
p892
asbasbasbag49
(g65
g51
NtRp893
(dp894
g54
(dp895
sg63
g601
sg56
(lp896
g49
(g70
g51
NtRp897
(dp898
g54
(dp899
g74
g75
ssg63
g893
sg56
(lp900
S'http_host'
p901
asbag49
(g70
g51
NtRp902
(dp903
g54
(dp904
g81
g82
ssg63
g893
sg56
(lp905
S':'
asbag49
(g70
g51
NtRp906
(dp907
g54
(dp908
sg63
g893
sg56
(lp909
g49
(g50
g51
NtRp910
(dp911
g54
(dp912
g62
I4
ssg63
g906
sg56
(lp913
S'127.0.0.1:8000'
p914
asbasbasbag49
(g65
g51
NtRp915
(dp916
g54
(dp917
sg63
g601
sg56
(lp918
g49
(g70
g51
NtRp919
(dp920
g54
(dp921
g74
g75
ssg63
g915
sg56
(lp922
S'http_user_agent'
p923
asbag49
(g70
g51
NtRp924
(dp925
g54
(dp926
g81
g82
ssg63
g915
sg56
(lp927
S':'
asbag49
(g70
g51
NtRp928
(dp929
g54
(dp930
sg63
g915
sg56
(lp931
g49
(g50
g51
NtRp932
(dp933
g54
(dp934
g62
I4
ssg63
g928
sg56
(lp935
S'Mozilla/5.0 (Macintosh; Intel Mac OS X 10_7_3) AppleWebKit/535.11 (KHTML, like Gecko) Chrome/17.0.963.78 Safari/535.11'
p936
asbasbasbag49
(g65
g51
NtRp937
(dp938
g54
(dp939
sg63
g601
sg56
(lp940
g49
(g70
g51
NtRp941
(dp942
g54
(dp943
g74
g75
ssg63
g937
sg56
(lp944
S'is_jython'
p945
asbag49
(g70
g51
NtRp946
(dp947
g54
(dp948
g81
g82
ssg63
g937
sg56
(lp949
S':'
asbag49
(g70
g51
NtRp950
(dp951
g54
(dp952
sg63
g937
sg56
(lp953
g49
(g50
g51
NtRp954
(dp955
g54
(dp956
g62
I4
ssg63
g950
sg56
(lp957
g92
asbasbasbag49
(g65
g51
NtRp958
(dp959
g54
(dp960
sg63
g601
sg56
(lp961
g49
(g70
g51
NtRp962
(dp963
g54
(dp964
g74
g75
ssg63
g958
sg56
(lp965
S'is_pypy'
p966
asbag49
(g70
g51
NtRp967
(dp968
g54
(dp969
g81
g82
ssg63
g958
sg56
(lp970
S':'
asbag49
(g70
g51
NtRp971
(dp972
g54
(dp973
sg63
g958
sg56
(lp974
g49
(g50
g51
NtRp975
(dp976
g54
(dp977
g62
I4
ssg63
g971
sg56
(lp978
g92
asbasbasbag49
(g65
g51
NtRp979
(dp980
g54
(dp981
sg63
g601
sg56
(lp982
g49
(g70
g51
NtRp983
(dp984
g54
(dp985
g74
g75
ssg63
g979
sg56
(lp986
S'path_info'
p987
asbag49
(g70
g51
NtRp988
(dp989
g54
(dp990
g81
g82
ssg63
g979
sg56
(lp991
S':'
asbag49
(g70
g51
NtRp992
(dp993
g54
(dp994
sg63
g979
sg56
(lp995
g49
(g50
g51
NtRp996
(dp997
g54
(dp998
g62
I4
ssg63
g992
sg56
(lp999
S'/boards/xxx'
p1000
asbasbasbag49
(g65
g51
NtRp1001
(dp1002
g54
(dp1003
sg63
g601
sg56
(lp1004
g49
(g70
g51
NtRp1005
(dp1006
g54
(dp1007
g74
g75
ssg63
g1001
sg56
(lp1008
S'query_string'
p1009
asbag49
(g70
g51
NtRp1010
(dp1011
g54
(dp1012
g81
g82
ssg63
g1001
sg56
(lp1013
S':'
asbag49
(g70
g51
NtRp1014
(dp1015
g54
(dp1016
sg63
g1001
sg56
(lp1017
g49
(g50
g51
NtRp1018
(dp1019
g54
(dp1020
g62
I4
ssg63
g1014
sg56
(lp1021
S''
asbasbasbag49
(g65
g51
NtRp1022
(dp1023
g54
(dp1024
sg63
g601
sg56
(lp1025
g49
(g70
g51
NtRp1026
(dp1027
g54
(dp1028
g74
g75
ssg63
g1022
sg56
(lp1029
S'remote_addr'
p1030
asbag49
(g70
g51
NtRp1031
(dp1032
g54
(dp1033
g81
g82
ssg63
g1022
sg56
(lp1034
S':'
asbag49
(g70
g51
NtRp1035
(dp1036
g54
(dp1037
sg63
g1022
sg56
(lp1038
g49
(g50
g51
NtRp1039
(dp1040
g54
(dp1041
g62
I4
ssg63
g1035
sg56
(lp1042
g195
asbasbasbag49
(g65
g51
NtRp1043
(dp1044
g54
(dp1045
sg63
g601
sg56
(lp1046
g49
(g70
g51
NtRp1047
(dp1048
g54
(dp1049
g74
g75
ssg63
g1043
sg56
(lp1050
S'remote_port'
p1051
asbag49
(g70
g51
NtRp1052
(dp1053
g54
(dp1054
g81
g82
ssg63
g1043
sg56
(lp1055
S':'
asbag49
(g70
g51
NtRp1056
(dp1057
g54
(dp1058
sg63
g1043
sg56
(lp1059
g49
(g50
g51
NtRp1060
(dp1061
g54
(dp1062
g62
I4
ssg63
g1056
sg56
(lp1063
S'63162'
p1064
asbasbasbag49
(g65
g51
NtRp1065
(dp1066
g54
(dp1067
sg63
g601
sg56
(lp1068
g49
(g70
g51
NtRp1069
(dp1070
g54
(dp1071
g74
g75
ssg63
g1065
sg56
(lp1072
S'request_method'
p1073
asbag49
(g70
g51
NtRp1074
(dp1075
g54
(dp1076
g81
g82
ssg63
g1065
sg56
(lp1077
S':'
asbag49
(g70
g51
NtRp1078
(dp1079
g54
(dp1080
sg63
g1065
sg56
(lp1081
g49
(g50
g51
NtRp1082
(dp1083
g54
(dp1084
g62
I4
ssg63
g1078
sg56
(lp1085
S'GET'
p1086
asbasbasbag49
(g65
g51
NtRp1087
(dp1088
g54
(dp1089
sg63
g601
sg56
(lp1090
g49
(g70
g51
NtRp1091
(dp1092
g54
(dp1093
g74
g75
ssg63
g1087
sg56
(lp1094
S'request_uri'
p1095
asbag49
(g70
g51
NtRp1096
(dp1097
g54
(dp1098
g81
g82
ssg63
g1087
sg56
(lp1099
S':'
asbag49
(g70
g51
NtRp1100
(dp1101
g54
(dp1102
sg63
g1087
sg56
(lp1103
g49
(g50
g51
NtRp1104
(dp1105
g54
(dp1106
g62
I4
ssg63
g1100
sg56
(lp1107
S'/udi0312/default/boards/xxx'
p1108
asbasbasbag49
(g65
g51
NtRp1109
(dp1110
g54
(dp1111
sg63
g601
sg56
(lp1112
g49
(g70
g51
NtRp1113
(dp1114
g54
(dp1115
g74
g75
ssg63
g1109
sg56
(lp1116
S'script_name'
p1117
asbag49
(g70
g51
NtRp1118
(dp1119
g54
(dp1120
g81
g82
ssg63
g1109
sg56
(lp1121
S':'
asbag49
(g70
g51
NtRp1122
(dp1123
g54
(dp1124
sg63
g1109
sg56
(lp1125
g49
(g50
g51
NtRp1126
(dp1127
g54
(dp1128
g62
I4
ssg63
g1122
sg56
(lp1129
S''
asbasbasbag49
(g65
g51
NtRp1130
(dp1131
g54
(dp1132
sg63
g601
sg56
(lp1133
g49
(g70
g51
NtRp1134
(dp1135
g54
(dp1136
g74
g75
ssg63
g1130
sg56
(lp1137
S'server_name'
p1138
asbag49
(g70
g51
NtRp1139
(dp1140
g54
(dp1141
g81
g82
ssg63
g1130
sg56
(lp1142
S':'
asbag49
(g70
g51
NtRp1143
(dp1144
g54
(dp1145
sg63
g1130
sg56
(lp1146
g49
(g50
g51
NtRp1147
(dp1148
g54
(dp1149
g62
I4
ssg63
g1143
sg56
(lp1150
S'udi-milos-macbook-pro.fritz.box'
p1151
asbasbasbag49
(g65
g51
NtRp1152
(dp1153
g54
(dp1154
sg63
g601
sg56
(lp1155
g49
(g70
g51
NtRp1156
(dp1157
g54
(dp1158
g74
g75
ssg63
g1152
sg56
(lp1159
S'server_port'
p1160
asbag49
(g70
g51
NtRp1161
(dp1162
g54
(dp1163
g81
g82
ssg63
g1152
sg56
(lp1164
S':'
asbag49
(g70
g51
NtRp1165
(dp1166
g54
(dp1167
sg63
g1152
sg56
(lp1168
g49
(g50
g51
NtRp1169
(dp1170
g54
(dp1171
g62
I4
ssg63
g1165
sg56
(lp1172
S'8000'
p1173
asbasbasbag49
(g65
g51
NtRp1174
(dp1175
g54
(dp1176
sg63
g601
sg56
(lp1177
g49
(g70
g51
NtRp1178
(dp1179
g54
(dp1180
g74
g75
ssg63
g1174
sg56
(lp1181
S'server_protocol'
p1182
asbag49
(g70
g51
NtRp1183
(dp1184
g54
(dp1185
g81
g82
ssg63
g1174
sg56
(lp1186
S':'
asbag49
(g70
g51
NtRp1187
(dp1188
g54
(dp1189
sg63
g1174
sg56
(lp1190
g49
(g50
g51
NtRp1191
(dp1192
g54
(dp1193
g62
I4
ssg63
g1187
sg56
(lp1194
S'HTTP/1.1'
p1195
asbasbasbag49
(g65
g51
NtRp1196
(dp1197
g54
(dp1198
sg63
g601
sg56
(lp1199
g49
(g70
g51
NtRp1200
(dp1201
g54
(dp1202
g74
g75
ssg63
g1196
sg56
(lp1203
S'server_software'
p1204
asbag49
(g70
g51
NtRp1205
(dp1206
g54
(dp1207
g81
g82
ssg63
g1196
sg56
(lp1208
S':'
asbag49
(g70
g51
NtRp1209
(dp1210
g54
(dp1211
sg63
g1196
sg56
(lp1212
g49
(g50
g51
NtRp1213
(dp1214
g54
(dp1215
g62
I4
ssg63
g1209
sg56
(lp1216
S'Rocket 1.2.4'
p1217
asbasbasbag49
(g65
g51
NtRp1218
(dp1219
g54
(dp1220
sg63
g601
sg56
(lp1221
g49
(g70
g51
NtRp1222
(dp1223
g54
(dp1224
g74
g75
ssg63
g1218
sg56
(lp1225
S'web2py_crontype'
p1226
asbag49
(g70
g51
NtRp1227
(dp1228
g54
(dp1229
g81
g82
ssg63
g1218
sg56
(lp1230
S':'
asbag49
(g70
g51
NtRp1231
(dp1232
g54
(dp1233
sg63
g1218
sg56
(lp1234
g49
(g50
g51
NtRp1235
(dp1236
g54
(dp1237
g62
I4
ssg63
g1231
sg56
(lp1238
S'hard'
p1239
asbasbasbag49
(g65
g51
NtRp1240
(dp1241
g54
(dp1242
sg63
g601
sg56
(lp1243
g49
(g70
g51
NtRp1244
(dp1245
g54
(dp1246
g74
g75
ssg63
g1240
sg56
(lp1247
S'web2py_original_uri'
p1248
asbag49
(g70
g51
NtRp1249
(dp1250
g54
(dp1251
g81
g82
ssg63
g1240
sg56
(lp1252
S':'
asbag49
(g70
g51
NtRp1253
(dp1254
g54
(dp1255
sg63
g1240
sg56
(lp1256
g49
(g50
g51
NtRp1257
(dp1258
g54
(dp1259
g62
I4
ssg63
g1253
sg56
(lp1260
g1000
asbasbasbag49
(g65
g51
NtRp1261
(dp1262
g54
(dp1263
sg63
g601
sg56
(lp1264
g49
(g70
g51
NtRp1265
(dp1266
g54
(dp1267
g74
g75
ssg63
g1261
sg56
(lp1268
S'web2py_path'
p1269
asbag49
(g70
g51
NtRp1270
(dp1271
g54
(dp1272
g81
g82
ssg63
g1261
sg56
(lp1273
S':'
asbag49
(g70
g51
NtRp1274
(dp1275
g54
(dp1276
sg63
g1261
sg56
(lp1277
g49
(g50
g51
NtRp1278
(dp1279
g54
(dp1280
g62
I4
ssg63
g1274
sg56
(lp1281
g648
asbasbasbag49
(g65
g51
NtRp1282
(dp1283
g54
(dp1284
sg63
g601
sg56
(lp1285
g49
(g70
g51
NtRp1286
(dp1287
g54
(dp1288
g74
g75
ssg63
g1282
sg56
(lp1289
S'web2py_version'
p1290
asbag49
(g70
g51
NtRp1291
(dp1292
g54
(dp1293
g81
g82
ssg63
g1282
sg56
(lp1294
S':'
asbag49
(g70
g51
NtRp1295
(dp1296
g54
(dp1297
sg63
g1282
sg56
(lp1298
g49
(g50
g51
NtRp1299
(dp1300
g54
(dp1301
g62
I4
ssg63
g1295
sg56
(lp1302
g49
(g58
g51
NtRp1303
(dp1304
g54
(dp1305
g62
I3
ssg63
Nsg56
(lp1306
g49
(g65
g51
NtRp1307
(dp1308
g54
(dp1309
sg63
g1303
sg56
(lp1310
g49
(g70
g51
NtRp1311
(dp1312
g54
(dp1313
sg63
g1307
sg56
(lp1314
g49
(g50
g51
NtRp1315
(dp1316
g54
(dp1317
g62
I3
ssg63
g1311
sg56
(lp1318
S'1'
asbasbasbag49
(g65
g51
NtRp1319
(dp1320
g54
(dp1321
sg63
g1303
sg56
(lp1322
g49
(g70
g51
NtRp1323
(dp1324
g54
(dp1325
sg63
g1319
sg56
(lp1326
g49
(g50
g51
NtRp1327
(dp1328
g54
(dp1329
g62
I3
ssg63
g1323
sg56
(lp1330
S'99'
p1331
asbasbasbag49
(g65
g51
NtRp1332
(dp1333
g54
(dp1334
sg63
g1303
sg56
(lp1335
g49
(g70
g51
NtRp1336
(dp1337
g54
(dp1338
sg63
g1332
sg56
(lp1339
g49
(g50
g51
NtRp1340
(dp1341
g54
(dp1342
g62
I3
ssg63
g1336
sg56
(lp1343
S'7'
asbasbasbag49
(g65
g51
NtRp1344
(dp1345
g54
(dp1346
sg63
g1303
sg56
(lp1347
g49
(g70
g51
NtRp1348
(dp1349
g54
(dp1350
sg63
g1344
sg56
(lp1351
g49
(g50
g51
NtRp1352
(dp1353
g54
(dp1354
g62
I3
ssg63
g1348
sg56
(lp1355
S'datetime.datetime(2012, 3, 4, 22, 12, 8)'
p1356
asbasbasbag49
(g65
g51
NtRp1357
(dp1358
g54
(dp1359
sg63
g1303
sg56
(lp1360
g49
(g70
g51
NtRp1361
(dp1362
g54
(dp1363
sg63
g1357
sg56
(lp1364
g49
(g50
g51
NtRp1365
(dp1366
g54
(dp1367
g62
I3
ssg63
g1361
sg56
(lp1368
S'stable'
p1369
asbasbasbasbasbasbasbag49
(g65
g51
NtRp1370
(dp1371
g54
(dp1372
sg63
g601
sg56
(lp1373
g49
(g70
g51
NtRp1374
(dp1375
g54
(dp1376
g74
g75
ssg63
g1370
sg56
(lp1377
S'wsgi_errors'
p1378
asbag49
(g70
g51
NtRp1379
(dp1380
g54
(dp1381
g81
g82
ssg63
g1370
sg56
(lp1382
S':'
asbag49
(g70
g51
NtRp1383
(dp1384
g54
(dp1385
sg63
g1370
sg56
(lp1386
g49
(g50
g51
NtRp1387
(dp1388
g54
(dp1389
g62
I4
ssg63
g1383
sg56
(lp1390
S"<open file '<stderr>', mode 'w' at 0x4220b0>"
p1391
asbasbasbag49
(g65
g51
NtRp1392
(dp1393
g54
(dp1394
sg63
g601
sg56
(lp1395
g49
(g70
g51
NtRp1396
(dp1397
g54
(dp1398
g74
g75
ssg63
g1392
sg56
(lp1399
S'wsgi_file_wrapper'
p1400
asbag49
(g70
g51
NtRp1401
(dp1402
g54
(dp1403
g81
g82
ssg63
g1392
sg56
(lp1404
S':'
asbag49
(g70
g51
NtRp1405
(dp1406
g54
(dp1407
sg63
g1392
sg56
(lp1408
g49
(g50
g51
NtRp1409
(dp1410
g54
(dp1411
g62
I4
ssg63
g1405
sg56
(lp1412
S'<class wsgiref.util.FileWrapper at 0x22746c0>'
p1413
asbasbasbag49
(g65
g51
NtRp1414
(dp1415
g54
(dp1416
sg63
g601
sg56
(lp1417
g49
(g70
g51
NtRp1418
(dp1419
g54
(dp1420
g74
g75
ssg63
g1414
sg56
(lp1421
S'wsgi_input'
p1422
asbag49
(g70
g51
NtRp1423
(dp1424
g54
(dp1425
g81
g82
ssg63
g1414
sg56
(lp1426
S':'
asbag49
(g70
g51
NtRp1427
(dp1428
g54
(dp1429
sg63
g1414
sg56
(lp1430
g49
(g50
g51
NtRp1431
(dp1432
g54
(dp1433
g62
I4
ssg63
g1427
sg56
(lp1434
S'<socket._fileobject object at 0x9f571f0>'
p1435
asbasbasbag49
(g65
g51
NtRp1436
(dp1437
g54
(dp1438
sg63
g601
sg56
(lp1439
g49
(g70
g51
NtRp1440
(dp1441
g54
(dp1442
g74
g75
ssg63
g1436
sg56
(lp1443
S'wsgi_multiprocess'
p1444
asbag49
(g70
g51
NtRp1445
(dp1446
g54
(dp1447
g81
g82
ssg63
g1436
sg56
(lp1448
S':'
asbag49
(g70
g51
NtRp1449
(dp1450
g54
(dp1451
sg63
g1436
sg56
(lp1452
g49
(g50
g51
NtRp1453
(dp1454
g54
(dp1455
g62
I4
ssg63
g1449
sg56
(lp1456
g92
asbasbasbag49
(g65
g51
NtRp1457
(dp1458
g54
(dp1459
sg63
g601
sg56
(lp1460
g49
(g70
g51
NtRp1461
(dp1462
g54
(dp1463
g74
g75
ssg63
g1457
sg56
(lp1464
S'wsgi_multithread'
p1465
asbag49
(g70
g51
NtRp1466
(dp1467
g54
(dp1468
g81
g82
ssg63
g1457
sg56
(lp1469
S':'
asbag49
(g70
g51
NtRp1470
(dp1471
g54
(dp1472
sg63
g1457
sg56
(lp1473
g49
(g50
g51
NtRp1474
(dp1475
g54
(dp1476
g62
I4
ssg63
g1470
sg56
(lp1477
S'True'
p1478
asbasbasbag49
(g65
g51
NtRp1479
(dp1480
g54
(dp1481
sg63
g601
sg56
(lp1482
g49
(g70
g51
NtRp1483
(dp1484
g54
(dp1485
g74
g75
ssg63
g1479
sg56
(lp1486
S'wsgi_run_once'
p1487
asbag49
(g70
g51
NtRp1488
(dp1489
g54
(dp1490
g81
g82
ssg63
g1479
sg56
(lp1491
S':'
asbag49
(g70
g51
NtRp1492
(dp1493
g54
(dp1494
sg63
g1479
sg56
(lp1495
g49
(g50
g51
NtRp1496
(dp1497
g54
(dp1498
g62
I4
ssg63
g1492
sg56
(lp1499
g92
asbasbasbag49
(g65
g51
NtRp1500
(dp1501
g54
(dp1502
sg63
g601
sg56
(lp1503
g49
(g70
g51
NtRp1504
(dp1505
g54
(dp1506
g74
g75
ssg63
g1500
sg56
(lp1507
S'wsgi_url_scheme'
p1508
asbag49
(g70
g51
NtRp1509
(dp1510
g54
(dp1511
g81
g82
ssg63
g1500
sg56
(lp1512
S':'
asbag49
(g70
g51
NtRp1513
(dp1514
g54
(dp1515
sg63
g1500
sg56
(lp1516
g49
(g50
g51
NtRp1517
(dp1518
g54
(dp1519
g62
I4
ssg63
g1513
sg56
(lp1520
S'http'
p1521
asbasbasbag49
(g65
g51
NtRp1522
(dp1523
g54
(dp1524
sg63
g601
sg56
(lp1525
g49
(g70
g51
NtRp1526
(dp1527
g54
(dp1528
g74
g75
ssg63
g1522
sg56
(lp1529
S'wsgi_version'
p1530
asbag49
(g70
g51
NtRp1531
(dp1532
g54
(dp1533
g81
g82
ssg63
g1522
sg56
(lp1534
S':'
asbag49
(g70
g51
NtRp1535
(dp1536
g54
(dp1537
sg63
g1522
sg56
(lp1538
g49
(g50
g51
NtRp1539
(dp1540
g54
(dp1541
g62
I4
ssg63
g1535
sg56
(lp1542
g49
(g58
g51
NtRp1543
(dp1544
g54
(dp1545
g62
I3
ssg63
Nsg56
(lp1546
g49
(g65
g51
NtRp1547
(dp1548
g54
(dp1549
sg63
g1543
sg56
(lp1550
g49
(g70
g51
NtRp1551
(dp1552
g54
(dp1553
sg63
g1547
sg56
(lp1554
g49
(g50
g51
NtRp1555
(dp1556
g54
(dp1557
g62
I3
ssg63
g1551
sg56
(lp1558
S'1'
asbasbasbag49
(g65
g51
NtRp1559
(dp1560
g54
(dp1561
sg63
g1543
sg56
(lp1562
g49
(g70
g51
NtRp1563
(dp1564
g54
(dp1565
sg63
g1559
sg56
(lp1566
g49
(g50
g51
NtRp1567
(dp1568
g54
(dp1569
g62
I3
ssg63
g1563
sg56
(lp1570
S'0'
asbasbasbasbasbasbasbasbasbasbasbag49
(g65
g51
NtRp1571
(dp1572
g54
(dp1573
sg63
g59
sg56
(lp1574
g49
(g70
g51
NtRp1575
(dp1576
g54
(dp1577
g74
g75
ssg63
g1571
sg56
(lp1578
S'extension'
p1579
asbag49
(g70
g51
NtRp1580
(dp1581
g54
(dp1582
g81
g82
ssg63
g1571
sg56
(lp1583
S':'
asbag49
(g70
g51
NtRp1584
(dp1585
g54
(dp1586
sg63
g1571
sg56
(lp1587
g49
(g50
g51
NtRp1588
(dp1589
g54
(dp1590
g62
I5
ssg63
g1584
sg56
(lp1591
S'html'
p1592
asbasbasbag49
(g65
g51
NtRp1593
(dp1594
g54
(dp1595
sg63
g59
sg56
(lp1596
g49
(g70
g51
NtRp1597
(dp1598
g54
(dp1599
g74
g75
ssg63
g1593
sg56
(lp1600
S'folder'
p1601
asbag49
(g70
g51
NtRp1602
(dp1603
g54
(dp1604
g81
g82
ssg63
g1593
sg56
(lp1605
S':'
asbag49
(g70
g51
NtRp1606
(dp1607
g54
(dp1608
sg63
g1593
sg56
(lp1609
g49
(g50
g51
NtRp1610
(dp1611
g54
(dp1612
g62
I5
ssg63
g1606
sg56
(lp1613
S'/Users/udimilo/Documents/web2py/applications/udi0312/'
p1614
asbasbasbag49
(g65
g51
NtRp1615
(dp1616
g54
(dp1617
sg63
g59
sg56
(lp1618
g49
(g70
g51
NtRp1619
(dp1620
g54
(dp1621
g74
g75
ssg63
g1615
sg56
(lp1622
S'function'
p1623
asbag49
(g70
g51
NtRp1624
(dp1625
g54
(dp1626
g81
g82
ssg63
g1615
sg56
(lp1627
S':'
asbag49
(g70
g51
NtRp1628
(dp1629
g54
(dp1630
sg63
g1615
sg56
(lp1631
g49
(g50
g51
NtRp1632
(dp1633
g54
(dp1634
g62
I5
ssg63
g1628
sg56
(lp1635
S'boards'
p1636
asbasbasbag49
(g65
g51
NtRp1637
(dp1638
g54
(dp1639
sg63
g59
sg56
(lp1640
g49
(g70
g51
NtRp1641
(dp1642
g54
(dp1643
g74
g75
ssg63
g1637
sg56
(lp1644
S'get_vars'
p1645
asbag49
(g70
g51
NtRp1646
(dp1647
g54
(dp1648
g81
g82
ssg63
g1637
sg56
(lp1649
S':'
asbag49
(g70
g51
NtRp1650
(dp1651
g54
(dp1652
sg63
g1637
sg56
(lp1653
g49
(g50
g51
NtRp1654
(dp1655
g54
(dp1656
g62
I5
ssg63
g1650
sg56
(lp1657
g49
(g58
g51
NtRp1658
(dp1659
g54
(dp1660
g62
I4
ssg63
Nsg56
(lp1661
sbasbasbasbag49
(g65
g51
NtRp1662
(dp1663
g54
(dp1664
sg63
g59
sg56
(lp1665
g49
(g70
g51
NtRp1666
(dp1667
g54
(dp1668
g74
g75
ssg63
g1662
sg56
(lp1669
S'global_settings'
p1670
asbag49
(g70
g51
NtRp1671
(dp1672
g54
(dp1673
g81
g82
ssg63
g1662
sg56
(lp1674
S':'
asbag49
(g70
g51
NtRp1675
(dp1676
g54
(dp1677
sg63
g1662
sg56
(lp1678
g49
(g50
g51
NtRp1679
(dp1680
g54
(dp1681
g62
I5
ssg63
g1675
sg56
(lp1682
g49
(g58
g51
NtRp1683
(dp1684
g54
(dp1685
g62
I4
ssg63
Nsg56
(lp1686
g49
(g65
g51
NtRp1687
(dp1688
g54
(dp1689
sg63
g1683
sg56
(lp1690
g49
(g70
g51
NtRp1691
(dp1692
g54
(dp1693
g74
g75
ssg63
g1687
sg56
(lp1694
g613
asbag49
(g70
g51
NtRp1695
(dp1696
g54
(dp1697
g81
g82
ssg63
g1687
sg56
(lp1698
S':'
asbag49
(g70
g51
NtRp1699
(dp1700
g54
(dp1701
sg63
g1687
sg56
(lp1702
g49
(g50
g51
NtRp1703
(dp1704
g54
(dp1705
g62
I4
ssg63
g1699
sg56
(lp1706
S"set(['/Users/udimilo/Documents/web2py/applications/udi0312/', '/Users/udimilo/Documents/web2py/applications/admin/'])"
p1707
asbasbasbag49
(g65
g51
NtRp1708
(dp1709
g54
(dp1710
sg63
g1683
sg56
(lp1711
g49
(g70
g51
NtRp1712
(dp1713
g54
(dp1714
g74
g75
ssg63
g1708
sg56
(lp1715
g635
asbag49
(g70
g51
NtRp1716
(dp1717
g54
(dp1718
g81
g82
ssg63
g1708
sg56
(lp1719
S':'
asbag49
(g70
g51
NtRp1720
(dp1721
g54
(dp1722
sg63
g1708
sg56
(lp1723
g49
(g50
g51
NtRp1724
(dp1725
g54
(dp1726
g62
I4
ssg63
g1720
sg56
(lp1727
g648
asbasbasbag49
(g65
g51
NtRp1728
(dp1729
g54
(dp1730
sg63
g1683
sg56
(lp1731
g49
(g70
g51
NtRp1732
(dp1733
g54
(dp1734
g74
g75
ssg63
g1728
sg56
(lp1735
g657
asbag49
(g70
g51
NtRp1736
(dp1737
g54
(dp1738
g81
g82
ssg63
g1728
sg56
(lp1739
S':'
asbag49
(g70
g51
NtRp1740
(dp1741
g54
(dp1742
sg63
g1728
sg56
(lp1743
g49
(g50
g51
NtRp1744
(dp1745
g54
(dp1746
g62
I4
ssg63
g1740
sg56
(lp1747
g49
(g58
g51
NtRp1748
(dp1749
g54
(dp1750
g62
I3
ssg63
Nsg56
(lp1751
sbasbasbasbag49
(g65
g51
NtRp1752
(dp1753
g54
(dp1754
sg63
g1683
sg56
(lp1755
g49
(g70
g51
NtRp1756
(dp1757
g54
(dp1758
g74
g75
ssg63
g1752
sg56
(lp1759
g682
asbag49
(g70
g51
NtRp1760
(dp1761
g54
(dp1762
g81
g82
ssg63
g1752
sg56
(lp1763
S':'
asbag49
(g70
g51
NtRp1764
(dp1765
g54
(dp1766
sg63
g1752
sg56
(lp1767
g49
(g50
g51
NtRp1768
(dp1769
g54
(dp1770
g62
I4
ssg63
g1764
sg56
(lp1771
S"<Values at 0x23301c0: {'verbose': False, 'ip': '127.0.0.1', 'shutdown_timeout': 5, 'taskbar': False, 'nocron': False, 'pid_filename': 'httpserver.pid', 'maxthreads': None, 'softcron': False, 'server_name': 'udi-milos-macbook-pro.fritz.box', 'bpython': False, 'nogui': False, 'port': 8000, 'extcron': False, 'debuglevel': 30, 'test': None, 'folder': '/Users/udimilo/Documents/web2py', 'config': '', 'import_models': False, 'winservice': '', 'shell': None, 'run': '', 'log_filename': 'httpserver.log', 'args': [''], 'socket_timeout': 5, 'ssl_ca_certificate': None, 'scheduler': None, 'profiler_filename': None, 'ssl_private_key': '', 'password': '<ask>', 'request_queue_size': 5, 'ssl_certificate': '', 'cronjob': False, 'numthreads': None, 'quiet': False, 'interfaces': None, 'minthreads': None, 'timeout': 10, 'plain': False, 'nobanner': False}>"
p1772
asbasbasbag49
(g65
g51
NtRp1773
(dp1774
g54
(dp1775
sg63
g1683
sg56
(lp1776
g49
(g70
g51
NtRp1777
(dp1778
g54
(dp1779
g74
g75
ssg63
g1773
sg56
(lp1780
g704
asbag49
(g70
g51
NtRp1781
(dp1782
g54
(dp1783
g81
g82
ssg63
g1773
sg56
(lp1784
S':'
asbag49
(g70
g51
NtRp1785
(dp1786
g54
(dp1787
sg63
g1773
sg56
(lp1788
g49
(g50
g51
NtRp1789
(dp1790
g54
(dp1791
g62
I4
ssg63
g1785
sg56
(lp1792
S'set([])'
p1793
asbasbasbag49
(g65
g51
NtRp1794
(dp1795
g54
(dp1796
sg63
g1683
sg56
(lp1797
g49
(g70
g51
NtRp1798
(dp1799
g54
(dp1800
g74
g75
ssg63
g1794
sg56
(lp1801
g726
asbag49
(g70
g51
NtRp1802
(dp1803
g54
(dp1804
g81
g82
ssg63
g1794
sg56
(lp1805
S':'
asbag49
(g70
g51
NtRp1806
(dp1807
g54
(dp1808
sg63
g1794
sg56
(lp1809
g49
(g50
g51
NtRp1810
(dp1811
g54
(dp1812
g62
I4
ssg63
g1806
sg56
(lp1813
g92
asbasbasbag49
(g65
g51
NtRp1814
(dp1815
g54
(dp1816
sg63
g1683
sg56
(lp1817
g49
(g70
g51
NtRp1818
(dp1819
g54
(dp1820
g74
g75
ssg63
g1814
sg56
(lp1821
g747
asbag49
(g70
g51
NtRp1822
(dp1823
g54
(dp1824
g81
g82
ssg63
g1814
sg56
(lp1825
S':'
asbag49
(g70
g51
NtRp1826
(dp1827
g54
(dp1828
sg63
g1814
sg56
(lp1829
g49
(g50
g51
NtRp1830
(dp1831
g54
(dp1832
g62
I4
ssg63
g1826
sg56
(lp1833
g760
asbasbasbag49
(g65
g51
NtRp1834
(dp1835
g54
(dp1836
sg63
g1683
sg56
(lp1837
g49
(g70
g51
NtRp1838
(dp1839
g54
(dp1840
g74
g75
ssg63
g1834
sg56
(lp1841
g945
asbag49
(g70
g51
NtRp1842
(dp1843
g54
(dp1844
g81
g82
ssg63
g1834
sg56
(lp1845
S':'
asbag49
(g70
g51
NtRp1846
(dp1847
g54
(dp1848
sg63
g1834
sg56
(lp1849
g49
(g50
g51
NtRp1850
(dp1851
g54
(dp1852
g62
I4
ssg63
g1846
sg56
(lp1853
g92
asbasbasbag49
(g65
g51
NtRp1854
(dp1855
g54
(dp1856
sg63
g1683
sg56
(lp1857
g49
(g70
g51
NtRp1858
(dp1859
g54
(dp1860
g74
g75
ssg63
g1854
sg56
(lp1861
g966
asbag49
(g70
g51
NtRp1862
(dp1863
g54
(dp1864
g81
g82
ssg63
g1854
sg56
(lp1865
S':'
asbag49
(g70
g51
NtRp1866
(dp1867
g54
(dp1868
sg63
g1854
sg56
(lp1869
g49
(g50
g51
NtRp1870
(dp1871
g54
(dp1872
g62
I4
ssg63
g1866
sg56
(lp1873
g92
asbasbasbag49
(g65
g51
NtRp1874
(dp1875
g54
(dp1876
sg63
g1683
sg56
(lp1877
g49
(g70
g51
NtRp1878
(dp1879
g54
(dp1880
g74
g75
ssg63
g1874
sg56
(lp1881
g1226
asbag49
(g70
g51
NtRp1882
(dp1883
g54
(dp1884
g81
g82
ssg63
g1874
sg56
(lp1885
S':'
asbag49
(g70
g51
NtRp1886
(dp1887
g54
(dp1888
sg63
g1874
sg56
(lp1889
g49
(g50
g51
NtRp1890
(dp1891
g54
(dp1892
g62
I4
ssg63
g1886
sg56
(lp1893
g1239
asbasbasbag49
(g65
g51
NtRp1894
(dp1895
g54
(dp1896
sg63
g1683
sg56
(lp1897
g49
(g70
g51
NtRp1898
(dp1899
g54
(dp1900
g74
g75
ssg63
g1894
sg56
(lp1901
g1290
asbag49
(g70
g51
NtRp1902
(dp1903
g54
(dp1904
g81
g82
ssg63
g1894
sg56
(lp1905
S':'
asbag49
(g70
g51
NtRp1906
(dp1907
g54
(dp1908
sg63
g1894
sg56
(lp1909
g49
(g50
g51
NtRp1910
(dp1911
g54
(dp1912
g62
I4
ssg63
g1906
sg56
(lp1913
g49
(g58
g51
NtRp1914
(dp1915
g54
(dp1916
g62
I3
ssg63
Nsg56
(lp1917
g49
(g65
g51
NtRp1918
(dp1919
g54
(dp1920
sg63
g1914
sg56
(lp1921
g49
(g70
g51
NtRp1922
(dp1923
g54
(dp1924
sg63
g1918
sg56
(lp1925
g49
(g50
g51
NtRp1926
(dp1927
g54
(dp1928
g62
I3
ssg63
g1922
sg56
(lp1929
S'1'
asbasbasbag49
(g65
g51
NtRp1930
(dp1931
g54
(dp1932
sg63
g1914
sg56
(lp1933
g49
(g70
g51
NtRp1934
(dp1935
g54
(dp1936
sg63
g1930
sg56
(lp1937
g49
(g50
g51
NtRp1938
(dp1939
g54
(dp1940
g62
I3
ssg63
g1934
sg56
(lp1941
S'99'
p1942
asbasbasbag49
(g65
g51
NtRp1943
(dp1944
g54
(dp1945
sg63
g1914
sg56
(lp1946
g49
(g70
g51
NtRp1947
(dp1948
g54
(dp1949
sg63
g1943
sg56
(lp1950
g49
(g50
g51
NtRp1951
(dp1952
g54
(dp1953
g62
I3
ssg63
g1947
sg56
(lp1954
S'7'
asbasbasbag49
(g65
g51
NtRp1955
(dp1956
g54
(dp1957
sg63
g1914
sg56
(lp1958
g49
(g70
g51
NtRp1959
(dp1960
g54
(dp1961
sg63
g1955
sg56
(lp1962
g49
(g50
g51
NtRp1963
(dp1964
g54
(dp1965
g62
I3
ssg63
g1959
sg56
(lp1966
S'datetime.datetime(2012, 3, 4, 22, 12, 8)'
p1967
asbasbasbag49
(g65
g51
NtRp1968
(dp1969
g54
(dp1970
sg63
g1914
sg56
(lp1971
g49
(g70
g51
NtRp1972
(dp1973
g54
(dp1974
sg63
g1968
sg56
(lp1975
g49
(g50
g51
NtRp1976
(dp1977
g54
(dp1978
g62
I3
ssg63
g1972
sg56
(lp1979
g1369
asbasbasbasbasbasbasbasbasbasbasbag49
(g65
g51
NtRp1980
(dp1981
g54
(dp1982
sg63
g59
sg56
(lp1983
g49
(g70
g51
NtRp1984
(dp1985
g54
(dp1986
g74
g75
ssg63
g1980
sg56
(lp1987
S'is_https'
p1988
asbag49
(g70
g51
NtRp1989
(dp1990
g54
(dp1991
g81
g82
ssg63
g1980
sg56
(lp1992
S':'
asbag49
(g70
g51
NtRp1993
(dp1994
g54
(dp1995
sg63
g1980
sg56
(lp1996
g49
(g50
g51
NtRp1997
(dp1998
g54
(dp1999
g62
I5
ssg63
g1993
sg56
(lp2000
g92
asbasbasbag49
(g65
g51
NtRp2001
(dp2002
g54
(dp2003
sg63
g59
sg56
(lp2004
g49
(g70
g51
NtRp2005
(dp2006
g54
(dp2007
g74
g75
ssg63
g2001
sg56
(lp2008
S'is_local'
p2009
asbag49
(g70
g51
NtRp2010
(dp2011
g54
(dp2012
g81
g82
ssg63
g2001
sg56
(lp2013
S':'
asbag49
(g70
g51
NtRp2014
(dp2015
g54
(dp2016
sg63
g2001
sg56
(lp2017
g49
(g50
g51
NtRp2018
(dp2019
g54
(dp2020
g62
I5
ssg63
g2014
sg56
(lp2021
g1478
asbasbasbag49
(g65
g51
NtRp2022
(dp2023
g54
(dp2024
sg63
g59
sg56
(lp2025
g49
(g70
g51
NtRp2026
(dp2027
g54
(dp2028
g74
g75
ssg63
g2022
sg56
(lp2029
S'is_restful'
p2030
asbag49
(g70
g51
NtRp2031
(dp2032
g54
(dp2033
g81
g82
ssg63
g2022
sg56
(lp2034
S':'
asbag49
(g70
g51
NtRp2035
(dp2036
g54
(dp2037
sg63
g2022
sg56
(lp2038
g49
(g50
g51
NtRp2039
(dp2040
g54
(dp2041
g62
I5
ssg63
g2035
sg56
(lp2042
g92
asbasbasbag49
(g65
g51
NtRp2043
(dp2044
g54
(dp2045
sg63
g59
sg56
(lp2046
g49
(g70
g51
NtRp2047
(dp2048
g54
(dp2049
g74
g75
ssg63
g2043
sg56
(lp2050
S'now'
p2051
asbag49
(g70
g51
NtRp2052
(dp2053
g54
(dp2054
g81
g82
ssg63
g2043
sg56
(lp2055
S':'
asbag49
(g70
g51
NtRp2056
(dp2057
g54
(dp2058
sg63
g2043
sg56
(lp2059
g49
(g50
g51
NtRp2060
(dp2061
g54
(dp2062
g62
I5
ssg63
g2056
sg56
(lp2063
S'datetime.datetime(2012, 3, 12, 3, 5, 2, 557724)'
p2064
asbasbasbag49
(g65
g51
NtRp2065
(dp2066
g54
(dp2067
sg63
g59
sg56
(lp2068
g49
(g70
g51
NtRp2069
(dp2070
g54
(dp2071
g74
g75
ssg63
g2065
sg56
(lp2072
S'post_vars'
p2073
asbag49
(g70
g51
NtRp2074
(dp2075
g54
(dp2076
g81
g82
ssg63
g2065
sg56
(lp2077
S':'
asbag49
(g70
g51
NtRp2078
(dp2079
g54
(dp2080
sg63
g2065
sg56
(lp2081
g49
(g50
g51
NtRp2082
(dp2083
g54
(dp2084
g62
I5
ssg63
g2078
sg56
(lp2085
g49
(g58
g51
NtRp2086
(dp2087
g54
(dp2088
g62
I4
ssg63
Nsg56
(lp2089
sbasbasbasbag49
(g65
g51
NtRp2090
(dp2091
g54
(dp2092
sg63
g59
sg56
(lp2093
g49
(g70
g51
NtRp2094
(dp2095
g54
(dp2096
g74
g75
ssg63
g2090
sg56
(lp2097
S'url'
p2098
asbag49
(g70
g51
NtRp2099
(dp2100
g54
(dp2101
g81
g82
ssg63
g2090
sg56
(lp2102
S':'
asbag49
(g70
g51
NtRp2103
(dp2104
g54
(dp2105
sg63
g2090
sg56
(lp2106
g49
(g50
g51
NtRp2107
(dp2108
g54
(dp2109
g62
I5
ssg63
g2103
sg56
(lp2110
S'/boards/xxx'
p2111
asbasbasbag49
(g65
g51
NtRp2112
(dp2113
g54
(dp2114
sg63
g59
sg56
(lp2115
g49
(g70
g51
NtRp2116
(dp2117
g54
(dp2118
g74
g75
ssg63
g2112
sg56
(lp2119
S'utcnow'
p2120
asbag49
(g70
g51
NtRp2121
(dp2122
g54
(dp2123
g81
g82
ssg63
g2112
sg56
(lp2124
S':'
asbag49
(g70
g51
NtRp2125
(dp2126
g54
(dp2127
sg63
g2112
sg56
(lp2128
g49
(g50
g51
NtRp2129
(dp2130
g54
(dp2131
g62
I5
ssg63
g2125
sg56
(lp2132
S'datetime.datetime(2012, 3, 12, 2, 5, 2, 557739)'
p2133
asbasbasbag49
(g65
g51
NtRp2134
(dp2135
g54
(dp2136
sg63
g59
sg56
(lp2137
g49
(g70
g51
NtRp2138
(dp2139
g54
(dp2140
g74
g75
ssg63
g2134
sg56
(lp2141
S'uuid'
p2142
asbag49
(g70
g51
NtRp2143
(dp2144
g54
(dp2145
g81
g82
ssg63
g2134
sg56
(lp2146
S':'
asbag49
(g70
g51
NtRp2147
(dp2148
g54
(dp2149
sg63
g2134
sg56
(lp2150
g49
(g50
g51
NtRp2151
(dp2152
g54
(dp2153
g62
I5
ssg63
g2147
sg56
(lp2154
S'udi0312/127.0.0.1.2012-03-12.03-05-02.b10adfd4-2bbc-4962-8075-d4e729fbd697'
p2155
asbasbasbag49
(g65
g51
NtRp2156
(dp2157
g54
(dp2158
sg63
g59
sg56
(lp2159
g49
(g70
g51
NtRp2160
(dp2161
g54
(dp2162
g74
g75
ssg63
g2156
sg56
(lp2163
S'vars'
p2164
asbag49
(g70
g51
NtRp2165
(dp2166
g54
(dp2167
g81
g82
ssg63
g2156
sg56
(lp2168
S':'
asbag49
(g70
g51
NtRp2169
(dp2170
g54
(dp2171
sg63
g2156
sg56
(lp2172
g49
(g50
g51
NtRp2173
(dp2174
g54
(dp2175
g62
I5
ssg63
g2169
sg56
(lp2176
g49
(g58
g51
NtRp2177
(dp2178
g54
(dp2179
g62
I4
ssg63
Nsg56
(lp2180
sbasbasbasbag49
(g65
g51
NtRp2181
(dp2182
g54
(dp2183
sg63
g59
sg56
(lp2184
g49
(g70
g51
NtRp2185
(dp2186
g54
(dp2187
g74
g75
ssg63
g2181
sg56
(lp2188
S'wsgi'
p2189
asbag49
(g70
g51
NtRp2190
(dp2191
g54
(dp2192
g81
g82
ssg63
g2181
sg56
(lp2193
S':'
asbag49
(g70
g51
NtRp2194
(dp2195
g54
(dp2196
sg63
g2181
sg56
(lp2197
g49
(g50
g51
NtRp2198
(dp2199
g54
(dp2200
g62
I5
ssg63
g2194
sg56
(lp2201
g49
(g58
g51
NtRp2202
(dp2203
g54
(dp2204
g62
I4
ssg63
Nsg56
(lp2205
g49
(g65
g51
NtRp2206
(dp2207
g54
(dp2208
sg63
g2202
sg56
(lp2209
g49
(g70
g51
NtRp2210
(dp2211
g54
(dp2212
g74
g75
ssg63
g2206
sg56
(lp2213
S'environ'
p2214
asbag49
(g70
g51
NtRp2215
(dp2216
g54
(dp2217
g81
g82
ssg63
g2206
sg56
(lp2218
S':'
asbag49
(g70
g51
NtRp2219
(dp2220
g54
(dp2221
sg63
g2206
sg56
(lp2222
g49
(g50
g51
NtRp2223
(dp2224
g54
(dp2225
g62
I4
ssg63
g2219
sg56
(lp2226
g49
(g58
g51
NtRp2227
(dp2228
g54
(dp2229
g62
I3
ssg63
Nsg56
(lp2230
g49
(g65
g51
NtRp2231
(dp2232
g54
(dp2233
sg63
g2227
sg56
(lp2234
g49
(g70
g51
NtRp2235
(dp2236
g54
(dp2237
g74
g75
ssg63
g2231
sg56
(lp2238
S'HTTP_ACCEPT'
p2239
asbag49
(g70
g51
NtRp2240
(dp2241
g54
(dp2242
g81
g82
ssg63
g2231
sg56
(lp2243
S':'
asbag49
(g70
g51
NtRp2244
(dp2245
g54
(dp2246
sg63
g2231
sg56
(lp2247
g49
(g50
g51
NtRp2248
(dp2249
g54
(dp2250
g62
I3
ssg63
g2244
sg56
(lp2251
g782
asbasbasbag49
(g65
g51
NtRp2252
(dp2253
g54
(dp2254
sg63
g2227
sg56
(lp2255
g49
(g70
g51
NtRp2256
(dp2257
g54
(dp2258
g74
g75
ssg63
g2252
sg56
(lp2259
S'HTTP_ACCEPT_CHARSET'
p2260
asbag49
(g70
g51
NtRp2261
(dp2262
g54
(dp2263
g81
g82
ssg63
g2252
sg56
(lp2264
S':'
asbag49
(g70
g51
NtRp2265
(dp2266
g54
(dp2267
sg63
g2252
sg56
(lp2268
g49
(g50
g51
NtRp2269
(dp2270
g54
(dp2271
g62
I3
ssg63
g2265
sg56
(lp2272
g804
asbasbasbag49
(g65
g51
NtRp2273
(dp2274
g54
(dp2275
sg63
g2227
sg56
(lp2276
g49
(g70
g51
NtRp2277
(dp2278
g54
(dp2279
g74
g75
ssg63
g2273
sg56
(lp2280
S'HTTP_ACCEPT_ENCODING'
p2281
asbag49
(g70
g51
NtRp2282
(dp2283
g54
(dp2284
g81
g82
ssg63
g2273
sg56
(lp2285
S':'
asbag49
(g70
g51
NtRp2286
(dp2287
g54
(dp2288
sg63
g2273
sg56
(lp2289
g49
(g50
g51
NtRp2290
(dp2291
g54
(dp2292
g62
I3
ssg63
g2286
sg56
(lp2293
g826
asbasbasbag49
(g65
g51
NtRp2294
(dp2295
g54
(dp2296
sg63
g2227
sg56
(lp2297
g49
(g70
g51
NtRp2298
(dp2299
g54
(dp2300
g74
g75
ssg63
g2294
sg56
(lp2301
S'HTTP_ACCEPT_LANGUAGE'
p2302
asbag49
(g70
g51
NtRp2303
(dp2304
g54
(dp2305
g81
g82
ssg63
g2294
sg56
(lp2306
S':'
asbag49
(g70
g51
NtRp2307
(dp2308
g54
(dp2309
sg63
g2294
sg56
(lp2310
g49
(g50
g51
NtRp2311
(dp2312
g54
(dp2313
g62
I3
ssg63
g2307
sg56
(lp2314
g848
asbasbasbag49
(g65
g51
NtRp2315
(dp2316
g54
(dp2317
sg63
g2227
sg56
(lp2318
g49
(g70
g51
NtRp2319
(dp2320
g54
(dp2321
g74
g75
ssg63
g2315
sg56
(lp2322
S'HTTP_CONNECTION'
p2323
asbag49
(g70
g51
NtRp2324
(dp2325
g54
(dp2326
g81
g82
ssg63
g2315
sg56
(lp2327
S':'
asbag49
(g70
g51
NtRp2328
(dp2329
g54
(dp2330
sg63
g2315
sg56
(lp2331
g49
(g50
g51
NtRp2332
(dp2333
g54
(dp2334
g62
I3
ssg63
g2328
sg56
(lp2335
g870
asbasbasbag49
(g65
g51
NtRp2336
(dp2337
g54
(dp2338
sg63
g2227
sg56
(lp2339
g49
(g70
g51
NtRp2340
(dp2341
g54
(dp2342
g74
g75
ssg63
g2336
sg56
(lp2343
S'HTTP_COOKIE'
p2344
asbag49
(g70
g51
NtRp2345
(dp2346
g54
(dp2347
g81
g82
ssg63
g2336
sg56
(lp2348
S':'
asbag49
(g70
g51
NtRp2349
(dp2350
g54
(dp2351
sg63
g2336
sg56
(lp2352
g49
(g50
g51
NtRp2353
(dp2354
g54
(dp2355
g62
I3
ssg63
g2349
sg56
(lp2356
g892
asbasbasbag49
(g65
g51
NtRp2357
(dp2358
g54
(dp2359
sg63
g2227
sg56
(lp2360
g49
(g70
g51
NtRp2361
(dp2362
g54
(dp2363
g74
g75
ssg63
g2357
sg56
(lp2364
S'HTTP_HOST'
p2365
asbag49
(g70
g51
NtRp2366
(dp2367
g54
(dp2368
g81
g82
ssg63
g2357
sg56
(lp2369
S':'
asbag49
(g70
g51
NtRp2370
(dp2371
g54
(dp2372
sg63
g2357
sg56
(lp2373
g49
(g50
g51
NtRp2374
(dp2375
g54
(dp2376
g62
I3
ssg63
g2370
sg56
(lp2377
g914
asbasbasbag49
(g65
g51
NtRp2378
(dp2379
g54
(dp2380
sg63
g2227
sg56
(lp2381
g49
(g70
g51
NtRp2382
(dp2383
g54
(dp2384
g74
g75
ssg63
g2378
sg56
(lp2385
S'HTTP_USER_AGENT'
p2386
asbag49
(g70
g51
NtRp2387
(dp2388
g54
(dp2389
g81
g82
ssg63
g2378
sg56
(lp2390
S':'
asbag49
(g70
g51
NtRp2391
(dp2392
g54
(dp2393
sg63
g2378
sg56
(lp2394
g49
(g50
g51
NtRp2395
(dp2396
g54
(dp2397
g62
I3
ssg63
g2391
sg56
(lp2398
g936
asbasbasbag49
(g65
g51
NtRp2399
(dp2400
g54
(dp2401
sg63
g2227
sg56
(lp2402
g49
(g70
g51
NtRp2403
(dp2404
g54
(dp2405
g74
g75
ssg63
g2399
sg56
(lp2406
S'PATH_INFO'
p2407
asbag49
(g70
g51
NtRp2408
(dp2409
g54
(dp2410
g81
g82
ssg63
g2399
sg56
(lp2411
S':'
asbag49
(g70
g51
NtRp2412
(dp2413
g54
(dp2414
sg63
g2399
sg56
(lp2415
g49
(g50
g51
NtRp2416
(dp2417
g54
(dp2418
g62
I3
ssg63
g2412
sg56
(lp2419
g1000
asbasbasbag49
(g65
g51
NtRp2420
(dp2421
g54
(dp2422
sg63
g2227
sg56
(lp2423
g49
(g70
g51
NtRp2424
(dp2425
g54
(dp2426
g74
g75
ssg63
g2420
sg56
(lp2427
S'QUERY_STRING'
p2428
asbag49
(g70
g51
NtRp2429
(dp2430
g54
(dp2431
g81
g82
ssg63
g2420
sg56
(lp2432
S':'
asbag49
(g70
g51
NtRp2433
(dp2434
g54
(dp2435
sg63
g2420
sg56
(lp2436
g49
(g50
g51
NtRp2437
(dp2438
g54
(dp2439
g62
I3
ssg63
g2433
sg56
(lp2440
S''
asbasbasbag49
(g65
g51
NtRp2441
(dp2442
g54
(dp2443
sg63
g2227
sg56
(lp2444
g49
(g70
g51
NtRp2445
(dp2446
g54
(dp2447
g74
g75
ssg63
g2441
sg56
(lp2448
S'REMOTE_ADDR'
p2449
asbag49
(g70
g51
NtRp2450
(dp2451
g54
(dp2452
g81
g82
ssg63
g2441
sg56
(lp2453
S':'
asbag49
(g70
g51
NtRp2454
(dp2455
g54
(dp2456
sg63
g2441
sg56
(lp2457
g49
(g50
g51
NtRp2458
(dp2459
g54
(dp2460
g62
I3
ssg63
g2454
sg56
(lp2461
g195
asbasbasbag49
(g65
g51
NtRp2462
(dp2463
g54
(dp2464
sg63
g2227
sg56
(lp2465
g49
(g70
g51
NtRp2466
(dp2467
g54
(dp2468
g74
g75
ssg63
g2462
sg56
(lp2469
S'REMOTE_PORT'
p2470
asbag49
(g70
g51
NtRp2471
(dp2472
g54
(dp2473
g81
g82
ssg63
g2462
sg56
(lp2474
S':'
asbag49
(g70
g51
NtRp2475
(dp2476
g54
(dp2477
sg63
g2462
sg56
(lp2478
g49
(g50
g51
NtRp2479
(dp2480
g54
(dp2481
g62
I3
ssg63
g2475
sg56
(lp2482
g1064
asbasbasbag49
(g65
g51
NtRp2483
(dp2484
g54
(dp2485
sg63
g2227
sg56
(lp2486
g49
(g70
g51
NtRp2487
(dp2488
g54
(dp2489
g74
g75
ssg63
g2483
sg56
(lp2490
S'REQUEST_METHOD'
p2491
asbag49
(g70
g51
NtRp2492
(dp2493
g54
(dp2494
g81
g82
ssg63
g2483
sg56
(lp2495
S':'
asbag49
(g70
g51
NtRp2496
(dp2497
g54
(dp2498
sg63
g2483
sg56
(lp2499
g49
(g50
g51
NtRp2500
(dp2501
g54
(dp2502
g62
I3
ssg63
g2496
sg56
(lp2503
g1086
asbasbasbag49
(g65
g51
NtRp2504
(dp2505
g54
(dp2506
sg63
g2227
sg56
(lp2507
g49
(g70
g51
NtRp2508
(dp2509
g54
(dp2510
g74
g75
ssg63
g2504
sg56
(lp2511
S'REQUEST_URI'
p2512
asbag49
(g70
g51
NtRp2513
(dp2514
g54
(dp2515
g81
g82
ssg63
g2504
sg56
(lp2516
S':'
asbag49
(g70
g51
NtRp2517
(dp2518
g54
(dp2519
sg63
g2504
sg56
(lp2520
g49
(g50
g51
NtRp2521
(dp2522
g54
(dp2523
g62
I3
ssg63
g2517
sg56
(lp2524
g1108
asbasbasbag49
(g65
g51
NtRp2525
(dp2526
g54
(dp2527
sg63
g2227
sg56
(lp2528
g49
(g70
g51
NtRp2529
(dp2530
g54
(dp2531
g74
g75
ssg63
g2525
sg56
(lp2532
S'SCRIPT_NAME'
p2533
asbag49
(g70
g51
NtRp2534
(dp2535
g54
(dp2536
g81
g82
ssg63
g2525
sg56
(lp2537
S':'
asbag49
(g70
g51
NtRp2538
(dp2539
g54
(dp2540
sg63
g2525
sg56
(lp2541
g49
(g50
g51
NtRp2542
(dp2543
g54
(dp2544
g62
I3
ssg63
g2538
sg56
(lp2545
S''
asbasbasbag49
(g65
g51
NtRp2546
(dp2547
g54
(dp2548
sg63
g2227
sg56
(lp2549
g49
(g70
g51
NtRp2550
(dp2551
g54
(dp2552
g74
g75
ssg63
g2546
sg56
(lp2553
S'SERVER_NAME'
p2554
asbag49
(g70
g51
NtRp2555
(dp2556
g54
(dp2557
g81
g82
ssg63
g2546
sg56
(lp2558
S':'
asbag49
(g70
g51
NtRp2559
(dp2560
g54
(dp2561
sg63
g2546
sg56
(lp2562
g49
(g50
g51
NtRp2563
(dp2564
g54
(dp2565
g62
I3
ssg63
g2559
sg56
(lp2566
g1151
asbasbasbag49
(g65
g51
NtRp2567
(dp2568
g54
(dp2569
sg63
g2227
sg56
(lp2570
g49
(g70
g51
NtRp2571
(dp2572
g54
(dp2573
g74
g75
ssg63
g2567
sg56
(lp2574
S'SERVER_PORT'
p2575
asbag49
(g70
g51
NtRp2576
(dp2577
g54
(dp2578
g81
g82
ssg63
g2567
sg56
(lp2579
S':'
asbag49
(g70
g51
NtRp2580
(dp2581
g54
(dp2582
sg63
g2567
sg56
(lp2583
g49
(g50
g51
NtRp2584
(dp2585
g54
(dp2586
g62
I3
ssg63
g2580
sg56
(lp2587
g1173
asbasbasbag49
(g65
g51
NtRp2588
(dp2589
g54
(dp2590
sg63
g2227
sg56
(lp2591
g49
(g70
g51
NtRp2592
(dp2593
g54
(dp2594
g74
g75
ssg63
g2588
sg56
(lp2595
S'SERVER_PROTOCOL'
p2596
asbag49
(g70
g51
NtRp2597
(dp2598
g54
(dp2599
g81
g82
ssg63
g2588
sg56
(lp2600
S':'
asbag49
(g70
g51
NtRp2601
(dp2602
g54
(dp2603
sg63
g2588
sg56
(lp2604
g49
(g50
g51
NtRp2605
(dp2606
g54
(dp2607
g62
I3
ssg63
g2601
sg56
(lp2608
g1195
asbasbasbag49
(g65
g51
NtRp2609
(dp2610
g54
(dp2611
sg63
g2227
sg56
(lp2612
g49
(g70
g51
NtRp2613
(dp2614
g54
(dp2615
g74
g75
ssg63
g2609
sg56
(lp2616
S'SERVER_SOFTWARE'
p2617
asbag49
(g70
g51
NtRp2618
(dp2619
g54
(dp2620
g81
g82
ssg63
g2609
sg56
(lp2621
S':'
asbag49
(g70
g51
NtRp2622
(dp2623
g54
(dp2624
sg63
g2609
sg56
(lp2625
g49
(g50
g51
NtRp2626
(dp2627
g54
(dp2628
g62
I3
ssg63
g2622
sg56
(lp2629
g1217
asbasbasbag49
(g65
g51
NtRp2630
(dp2631
g54
(dp2632
sg63
g2227
sg56
(lp2633
g49
(g70
g51
NtRp2634
(dp2635
g54
(dp2636
g74
g75
ssg63
g2630
sg56
(lp2637
S'WEB2PY_ORIGINAL_URI'
p2638
asbag49
(g70
g51
NtRp2639
(dp2640
g54
(dp2641
g81
g82
ssg63
g2630
sg56
(lp2642
S':'
asbag49
(g70
g51
NtRp2643
(dp2644
g54
(dp2645
sg63
g2630
sg56
(lp2646
g49
(g50
g51
NtRp2647
(dp2648
g54
(dp2649
g62
I3
ssg63
g2643
sg56
(lp2650
g1000
asbasbasbag49
(g65
g51
NtRp2651
(dp2652
g54
(dp2653
sg63
g2227
sg56
(lp2654
g49
(g70
g51
NtRp2655
(dp2656
g54
(dp2657
g74
g75
ssg63
g2651
sg56
(lp2658
S'wsgi.errors'
p2659
asbag49
(g70
g51
NtRp2660
(dp2661
g54
(dp2662
g81
g82
ssg63
g2651
sg56
(lp2663
S':'
asbag49
(g70
g51
NtRp2664
(dp2665
g54
(dp2666
sg63
g2651
sg56
(lp2667
g49
(g50
g51
NtRp2668
(dp2669
g54
(dp2670
g62
I3
ssg63
g2664
sg56
(lp2671
S"<open file '<stderr>', mode 'w' at 0x4220b0>"
p2672
asbasbasbag49
(g65
g51
NtRp2673
(dp2674
g54
(dp2675
sg63
g2227
sg56
(lp2676
g49
(g70
g51
NtRp2677
(dp2678
g54
(dp2679
g74
g75
ssg63
g2673
sg56
(lp2680
S'wsgi.file_wrapper'
p2681
asbag49
(g70
g51
NtRp2682
(dp2683
g54
(dp2684
g81
g82
ssg63
g2673
sg56
(lp2685
S':'
asbag49
(g70
g51
NtRp2686
(dp2687
g54
(dp2688
sg63
g2673
sg56
(lp2689
g49
(g50
g51
NtRp2690
(dp2691
g54
(dp2692
g62
I3
ssg63
g2686
sg56
(lp2693
S'<class wsgiref.util.FileWrapper at 0x22746c0>'
p2694
asbasbasbag49
(g65
g51
NtRp2695
(dp2696
g54
(dp2697
sg63
g2227
sg56
(lp2698
g49
(g70
g51
NtRp2699
(dp2700
g54
(dp2701
g74
g75
ssg63
g2695
sg56
(lp2702
S'wsgi.input'
p2703
asbag49
(g70
g51
NtRp2704
(dp2705
g54
(dp2706
g81
g82
ssg63
g2695
sg56
(lp2707
S':'
asbag49
(g70
g51
NtRp2708
(dp2709
g54
(dp2710
sg63
g2695
sg56
(lp2711
g49
(g50
g51
NtRp2712
(dp2713
g54
(dp2714
g62
I3
ssg63
g2708
sg56
(lp2715
S'<cStringIO.StringO object at 0xa25d540>'
p2716
asbasbasbag49
(g65
g51
NtRp2717
(dp2718
g54
(dp2719
sg63
g2227
sg56
(lp2720
g49
(g70
g51
NtRp2721
(dp2722
g54
(dp2723
g74
g75
ssg63
g2717
sg56
(lp2724
S'wsgi.multiprocess'
p2725
asbag49
(g70
g51
NtRp2726
(dp2727
g54
(dp2728
g81
g82
ssg63
g2717
sg56
(lp2729
S':'
asbag49
(g70
g51
NtRp2730
(dp2731
g54
(dp2732
sg63
g2717
sg56
(lp2733
g49
(g50
g51
NtRp2734
(dp2735
g54
(dp2736
g62
I3
ssg63
g2730
sg56
(lp2737
g92
asbasbasbag49
(g65
g51
NtRp2738
(dp2739
g54
(dp2740
sg63
g2227
sg56
(lp2741
g49
(g70
g51
NtRp2742
(dp2743
g54
(dp2744
g74
g75
ssg63
g2738
sg56
(lp2745
S'wsgi.multithread'
p2746
asbag49
(g70
g51
NtRp2747
(dp2748
g54
(dp2749
g81
g82
ssg63
g2738
sg56
(lp2750
S':'
asbag49
(g70
g51
NtRp2751
(dp2752
g54
(dp2753
sg63
g2738
sg56
(lp2754
g49
(g50
g51
NtRp2755
(dp2756
g54
(dp2757
g62
I3
ssg63
g2751
sg56
(lp2758
g1478
asbasbasbag49
(g65
g51
NtRp2759
(dp2760
g54
(dp2761
sg63
g2227
sg56
(lp2762
g49
(g70
g51
NtRp2763
(dp2764
g54
(dp2765
g74
g75
ssg63
g2759
sg56
(lp2766
S'wsgi.run_once'
p2767
asbag49
(g70
g51
NtRp2768
(dp2769
g54
(dp2770
g81
g82
ssg63
g2759
sg56
(lp2771
S':'
asbag49
(g70
g51
NtRp2772
(dp2773
g54
(dp2774
sg63
g2759
sg56
(lp2775
g49
(g50
g51
NtRp2776
(dp2777
g54
(dp2778
g62
I3
ssg63
g2772
sg56
(lp2779
g92
asbasbasbag49
(g65
g51
NtRp2780
(dp2781
g54
(dp2782
sg63
g2227
sg56
(lp2783
g49
(g70
g51
NtRp2784
(dp2785
g54
(dp2786
g74
g75
ssg63
g2780
sg56
(lp2787
S'wsgi.url_scheme'
p2788
asbag49
(g70
g51
NtRp2789
(dp2790
g54
(dp2791
g81
g82
ssg63
g2780
sg56
(lp2792
S':'
asbag49
(g70
g51
NtRp2793
(dp2794
g54
(dp2795
sg63
g2780
sg56
(lp2796
g49
(g50
g51
NtRp2797
(dp2798
g54
(dp2799
g62
I3
ssg63
g2793
sg56
(lp2800
g1521
asbasbasbag49
(g65
g51
NtRp2801
(dp2802
g54
(dp2803
sg63
g2227
sg56
(lp2804
g49
(g70
g51
NtRp2805
(dp2806
g54
(dp2807
g74
g75
ssg63
g2801
sg56
(lp2808
S'wsgi.version'
p2809
asbag49
(g70
g51
NtRp2810
(dp2811
g54
(dp2812
g81
g82
ssg63
g2801
sg56
(lp2813
S':'
asbag49
(g70
g51
NtRp2814
(dp2815
g54
(dp2816
sg63
g2801
sg56
(lp2817
g49
(g50
g51
NtRp2818
(dp2819
g54
(dp2820
g62
I3
ssg63
g2814
sg56
(lp2821
S'1'
asbasbasbasbasbasbasbasbasbasbasbasbasbsS'frames'
p2822
(lp2823
(dp2824
S'file'
p2825
S'/users/udimilo/Documents/web2py/gluon/restricted.py'
p2826
sS'dump'
p2827
(dp2828
S'environment'
p2829
S"{'A': <class 'gluon.html.A'>, 'Auth': <class 'gluon.tools.Auth'>, 'B': <class 'gluon.html.B'>, 'BEAUTIFY': <class 'gluon.html.BEAUTIFY'>, 'BODY': <class 'gluon.html.BODY'>, 'BR': <class 'gluon.html.BR'>, 'BUTTON': <class 'gluon.html.BUTTON'>, 'CAT': <class 'gluon.html.CAT'>, 'CENTER': <class 'gluon.html.CENTER'>, 'CLEANUP': <class 'gluon.validators.CLEANUP'>, ...}"
p2830
sS'ccode'
p2831
S'<code object <module> at 0xa39ca88, file "/Users...cations/udi0312/controllers/default.py", line 11>'
p2832
ssS'lnum'
p2833
I205
sS'lines'
p2834
(dp2835
I200
S'    try:'
p2836
sI201
S'        if type(code) == types.CodeType:'
p2837
sI202
S'            ccode = code'
p2838
sI203
S'        else:'
p2839
sI204
S'            ccode = compile2(code,layer)'
p2840
sI205
S'        exec ccode in environment'
p2841
sI206
S'    except HTTP:'
p2842
sI207
S'        raise'
p2843
sI208
S'    except RestrictedError:'
p2844
sI209
S'        # do not encapsulate (obfuscate) the original RestrictedError'
p2845
ssS'call'
p2846
S"(code='# -*- coding: utf-8 -*-\\n# this file is released ...crud())\\n\\nresponse._vars=response._caller(boards)\\n', environment={'A': <class 'gluon.html.A'>, 'Auth': <class 'gluon.tools.Auth'>, 'B': <class 'gluon.html.B'>, 'BEAUTIFY': <class 'gluon.html.BEAUTIFY'>, 'BODY': <class 'gluon.html.BODY'>, 'BR': <class 'gluon.html.BR'>, 'BUTTON': <class 'gluon.html.BUTTON'>, 'CAT': <class 'gluon.html.CAT'>, 'CENTER': <class 'gluon.html.CENTER'>, 'CLEANUP': <class 'gluon.validators.CLEANUP'>, ...}, layer='/Users/udimilo/Documents/web2py/applications/udi0312/controllers/default.py')"
p2847
sS'func'
p2848
S'restricted'
p2849
sa(dp2850
g2825
S'/Users/udimilo/Documents/web2py/applications/udi0312/controllers/default.py'
p2851
sg2827
(dp2852
sg2833
I133
sg2834
(dp2853
I128
S'    or with the signed load operator'
p2854
sI129
S"      LOAD('default','data.load',args='tables',ajax=True,user_signature=True)"
p2855
sI130
S'    """'
p2856
sI131
S'    return dict(form=crud())'
p2857
sI122
S'    http://..../[app]/default/data/update/[table]/[id]'
p2858
sI123
S'    http://..../[app]/default/data/delete/[table]/[id]'
p2859
sI124
S'    http://..../[app]/default/data/select/[table]'
p2860
sI125
S'    http://..../[app]/default/data/search/[table]'
p2861
sI126
S'    but URLs must be signed, i.e. linked with'
p2862
sI127
S"      A('table',_href=URL('data/tables',user_signature=True))"
p2863
ssg2846
S'()'
p2864
sg2848
S'<module>'
p2865
sa(dp2866
g2825
S'/users/udimilo/Documents/web2py/gluon/globals.py'
p2867
sg2827
(dp2868
S'self'
p2869
S'undefined'
p2870
sS'f'
S'<function boards at 0xa526d30>'
p2871
ssg2833
I173
sg2834
(dp2872
I168
S'        self.menu = []             # used by the default view layout'
p2873
sI169
S'        self.files = []            # used by web2py_ajax.html'
p2874
sI170
S'        self.generic_patterns = [] # patterns to allow generic views'
p2875
sI171
S"        self.delimiters = ('{{','}}')"
p2876
sI172
S'        self._vars = None'
p2877
sI173
S'        self._caller = lambda f: f()'
p2878
sI174
S'        self._view_environment = None'
p2879
sI175
S'        self._custom_commit = None'
p2880
sI176
S'        self._custom_rollback = None'
p2881
sI177
S''
ssg2846
S'(f=<function boards at 0xa526d30>)'
p2882
sg2848
S'<lambda>'
p2883
sa(dp2884
g2825
S'/Users/udimilo/Documents/web2py/applications/udi0312/controllers/default.py'
p2885
sg2827
(dp2886
S'db.board'
p2887
S"<Table {'ALL': <gluon.dal.SQLALL object at 0xa21...gory_id': <gluon.dal.Field object at 0xa21ab10>}>"
p2888
sS'db.board.id'
p2889
S'<gluon.dal.Field object at 0xa21aef0>'
p2890
sS').select'
p2891
g2870
sS'board'
p2892
g2870
sS'global db'
p2893
S"<DAL {'auth_event': <Table {'origin': <gluon.dal...n_key': <gluon.dal.Field object at 0xa218f50>}>}>"
p2894
sS'id'
p2895
S"'xxx'"
p2896
ssg2833
I78
sg2834
(dp2897
I73
S'def boards():'
p2898
sI74
S'    id = request.args(0)'
p2899
sI75
S'    if id is None:'
p2900
sI76
S"        return 'go back'"
p2901
sI77
S''
sI78
S'    board = db(db.board.id == id).select().first()'
p2902
sI79
S'    return dict(board=board)'
p2903
sI80
S''
sI81
S'def user():'
p2904
sI82
S'    """'
p2905
ssg2846
S'()'
p2906
sg2848
S'boards'
p2907
sa(dp2908
g2825
S'/users/udimilo/Documents/web2py/gluon/dal.py'
p2909
sg2827
(dp2910
S'self.query'
p2911
S'<gluon.dal.Query object at 0xa214bf0>'
p2912
sS'adapter.select'
p2913
S'<bound method SQLiteAdapter.select of <gluon.dal.SQLiteAdapter object at 0xa218b10>>'
p2914
sS'fields'
p2915
S'[<gluon.dal.Field object at 0xa21aef0>, <gluon.dal.Field object at 0xa25df50>, <gluon.dal.Field object at 0xa21a2d0>, <gluon.dal.Field object at 0xa21ab10>, <gluon.dal.Field object at 0xa21af10>]'
p2916
sS'adapter'
p2917
S'<gluon.dal.SQLiteAdapter object at 0xa218b10>'
p2918
sS'attributes'
p2919
g39
sS'self'
p2920
S'<gluon.dal.Set object at 0xa214c30>'
p2921
ssg2833
I7578
sg2834
(dp2922
I7573
S'        return self.db._adapter.count(self.query,distinct)'
p2923
sI7574
S''
sI7575
S'    def select(self, *fields, **attributes):'
p2924
sI7576
S'        adapter = self.db._adapter'
p2925
sI7577
S'        fields = adapter.expand_all(fields, adapter.tables(self.query))'
p2926
sI7578
S'        return adapter.select(self.query,fields,attributes)'
p2927
sI7579
S''
sI7580
S'    def delete(self):'
p2928
sI7581
S'        tablename=self.db._adapter.get_table(self.query)'
p2929
sI7582
S'        self.delete_uploaded_files()'
p2930
ssg2846
S'(self=<gluon.dal.Set object at 0xa214c30>, *fields=[<gluon.dal.Field object at 0xa21aef0>, <gluon.dal.Field object at 0xa25df50>, <gluon.dal.Field object at 0xa21a2d0>, <gluon.dal.Field object at 0xa21ab10>, <gluon.dal.Field object at 0xa21af10>], **attributes={})'
p2931
sg2848
S'select'
p2932
sa(dp2933
g2825
S'/users/udimilo/Documents/web2py/gluon/dal.py'
p2934
sg2827
(dp2935
S'self._select'
p2936
S'<bound method SQLiteAdapter._select of <gluon.dal.SQLiteAdapter object at 0xa218b10>>'
p2937
sS'fields'
p2938
S'[<gluon.dal.Field object at 0xa21aef0>, <gluon.dal.Field object at 0xa25df50>, <gluon.dal.Field object at 0xa21a2d0>, <gluon.dal.Field object at 0xa21ab10>, <gluon.dal.Field object at 0xa21af10>]'
p2939
sS'self'
p2940
S'<gluon.dal.SQLiteAdapter object at 0xa218b10>'
p2941
sS'sql'
p2942
g2870
sS'query'
p2943
S'<gluon.dal.Query object at 0xa214bf0>'
p2944
sS'attributes'
p2945
g39
ssg2833
I1307
sg2834
(dp2946
I1302
S'        Always returns a Rows object, possibly empty.'
p2947
sI1303
S'        """'
p2948
sI1304
S'        def response(sql):'
p2949
sI1305
S'            self.execute(sql)'
p2950
sI1306
S'            return self.cursor.fetchall()'
p2951
sI1307
S'        sql = self._select(query, fields, attributes)'
p2952
sI1308
S"        if attributes.get('cache', None):"
p2953
sI1309
S"            (cache_model, time_expire) = attributes['cache']"
p2954
sI1310
S"            del attributes['cache']"
p2955
sI1311
S"            key = self.uri + '/' + sql"
p2956
ssg2846
S'(self=<gluon.dal.SQLiteAdapter object at 0xa218b10>, query=<gluon.dal.Query object at 0xa214bf0>, fields=[<gluon.dal.Field object at 0xa21aef0>, <gluon.dal.Field object at 0xa25df50>, <gluon.dal.Field object at 0xa21a2d0>, <gluon.dal.Field object at 0xa21ab10>, <gluon.dal.Field object at 0xa21af10>], attributes={})'
p2957
sg2848
g2932
sa(dp2958
g2825
S'/users/udimilo/Documents/web2py/gluon/dal.py'
p2959
sg2827
(dp2960
S'fields'
p2961
S'[<gluon.dal.Field object at 0xa21aef0>, <gluon.dal.Field object at 0xa25df50>, <gluon.dal.Field object at 0xa21a2d0>, <gluon.dal.Field object at 0xa21ab10>, <gluon.dal.Field object at 0xa21af10>]'
p2962
sS'self'
p2963
S'<gluon.dal.SQLiteAdapter object at 0xa218b10>'
p2964
sS')._select'
p2965
S'<bound method SQLiteAdapter._select of <gluon.dal.SQLiteAdapter object at 0xa218b10>>'
p2966
sS'sql'
p2967
g2870
sS'global SQLiteAdapter'
p2968
S"<class 'gluon.dal.SQLiteAdapter'>"
p2969
sS'query'
p2970
S'<gluon.dal.Query object at 0xa214bf0>'
p2971
sS'builtinsuper'
p2972
S"<type 'super'>"
p2973
sS'attributes'
p2974
g39
ssg2833
I1756
sg2834
(dp2975
I1760
S''
sI1751
S'        """'
p2976
sI1752
S'        Simulate SELECT ... FOR UPDATE with BEGIN IMMEDIATE TRANSACTION.'
p2977
sI1753
S'        Note that the entire database, rather than one record, is locked'
p2978
sI1754
S'        (it will be locked eventually anyway by the following UPDATE).'
p2979
sI1755
S'        """'
p2980
sI1756
S'        sql = super(SQLiteAdapter, self)._select(query, fields, attributes)'
p2981
sI1757
S"        if attributes.get('for_update', False):"
p2982
sI1758
S"            sql = 'BEGIN IMMEDIATE TRANSACTION; ' + sql"
p2983
sI1759
S'        return sql'
p2984
ssg2846
S'(self=<gluon.dal.SQLiteAdapter object at 0xa218b10>, query=<gluon.dal.Query object at 0xa214bf0>, fields=[<gluon.dal.Field object at 0xa21aef0>, <gluon.dal.Field object at 0xa25df50>, <gluon.dal.Field object at 0xa21a2d0>, <gluon.dal.Field object at 0xa21ab10>, <gluon.dal.Field object at 0xa21af10>], attributes={})'
p2985
sg2848
S'_select'
p2986
sa(dp2987
g2825
S'/users/udimilo/Documents/web2py/gluon/dal.py'
p2988
sg2827
(dp2989
S'query'
p2990
S'<gluon.dal.Query object at 0xa214bf0>'
p2991
sS'self'
p2992
S'<gluon.dal.SQLiteAdapter object at 0xa218b10>'
p2993
sS'sql_w'
p2994
g2870
sS'self.expand'
p2995
S'<bound method SQLiteAdapter.expand of <gluon.dal.SQLiteAdapter object at 0xa218b10>>'
p2996
ssg2833
I1200
sg2834
(dp2997
I1195
S'        if len(tablenames) < 1:'
p2998
sI1196
S"            raise SyntaxError, 'Set: no tables selected'"
p2999
sI1197
S"        sql_f = ', '.join(map(self.expand, fields))"
p3000
sI1198
S"        self._colnames = [c.strip() for c in sql_f.split(', ')]"
p3001
sI1199
S'        if query:'
p3002
sI1200
S"            sql_w = ' WHERE ' + self.expand(query)"
p3003
sI1201
S'        else:'
p3004
sI1202
S"            sql_w = ''"
p3005
sI1203
S"        sql_o = ''"
p3006
sI1204
S"        sql_s = ''"
p3007
ssg2846
S'(self=<gluon.dal.SQLiteAdapter object at 0xa218b10>, query=<gluon.dal.Query object at 0xa214bf0>, fields=[<gluon.dal.Field object at 0xa21aef0>, <gluon.dal.Field object at 0xa25df50>, <gluon.dal.Field object at 0xa21a2d0>, <gluon.dal.Field object at 0xa21ab10>, <gluon.dal.Field object at 0xa21af10>], attributes={})'
p3008
sg2848
g2986
sa(dp3009
g2825
S'/users/udimilo/Documents/web2py/gluon/dal.py'
p3010
sg2827
(dp3011
S'expression.op'
p3012
S'<bound method SQLiteAdapter.EQ of <gluon.dal.SQLiteAdapter object at 0xa218b10>>'
p3013
sS'expression'
p3014
S'<gluon.dal.Query object at 0xa214bf0>'
p3015
sS'expression.first'
p3016
S'<gluon.dal.Field object at 0xa21aef0>'
p3017
sS'expression.second'
p3018
S"'xxx'"
p3019
ssg2833
I1046
sg2834
(dp3020
I1041
S'    def expand(self, expression, field_type=None):'
p3021
sI1042
S'        if isinstance(expression, Field):'
p3022
sI1043
S'            return str(expression)'
p3023
sI1044
S'        elif isinstance(expression, (Expression, Query)):'
p3024
sI1045
S'            if not expression.second is None:'
p3025
sI1046
S'                return expression.op(expression.first, expression.second)'
p3026
sI1047
S'            elif not expression.first is None:'
p3027
sI1048
S'                return expression.op(expression.first)'
p3028
sI1049
S'            elif not isinstance(expression.op, str):'
p3029
sI1050
S'                return expression.op()'
p3030
ssg2846
S'(self=<gluon.dal.SQLiteAdapter object at 0xa218b10>, expression=<gluon.dal.Query object at 0xa214bf0>, field_type=None)'
p3031
sg2848
S'expand'
p3032
sa(dp3033
g2825
S'/users/udimilo/Documents/web2py/gluon/dal.py'
p3034
sg2827
(dp3035
S'first.type'
p3036
S"'id'"
p3037
sS'self'
p3038
S'<gluon.dal.SQLiteAdapter object at 0xa218b10>'
p3039
sS'first'
p3040
S'<gluon.dal.Field object at 0xa21aef0>'
p3041
sS'second'
p3042
S"'xxx'"
p3043
sS'self.expand'
p3044
S'<bound method SQLiteAdapter.expand of <gluon.dal.SQLiteAdapter object at 0xa218b10>>'
p3045
ssg2833
I987
sg2834
(dp3046
I982
S"        return '(%s LIKE %s)' % (self.expand(first),self.expand(key,'string'))"
p3047
sI983
S''
sI984
S'    def EQ(self, first, second=None):'
p3048
sI985
S'        if second is None:'
p3049
sI986
S"            return '(%s IS NULL)' % self.expand(first)"
p3050
sI987
S"        return '(%s = %s)' % (self.expand(first), self.expand(second, first.type))"
p3051
sI988
S''
sI989
S'    def NE(self, first, second=None):'
p3052
sI990
S'        if second is None:'
p3053
sI991
S"            return '(%s IS NOT NULL)' % self.expand(first)"
p3054
ssg2846
S"(self=<gluon.dal.SQLiteAdapter object at 0xa218b10>, first=<gluon.dal.Field object at 0xa21aef0>, second='xxx')"
p3055
sg2848
S'EQ'
p3056
sa(dp3057
g2825
S'/users/udimilo/Documents/web2py/gluon/dal.py'
p3058
sg2827
(dp3059
S'builtinstr'
p3060
S"<type 'str'>"
p3061
sS'field_type'
p3062
S"'id'"
p3063
sS'self'
p3064
S'<gluon.dal.SQLiteAdapter object at 0xa218b10>'
p3065
sS'expression'
p3066
S"'xxx'"
p3067
sS'self.represent'
p3068
S'<bound method SQLiteAdapter.represent of <gluon.dal.SQLiteAdapter object at 0xa218b10>>'
p3069
ssg2833
I1054
sg2834
(dp3070
I1056
S"            return ','.join(self.represent(item,field_type) for item in expression)"
p3071
sI1057
S'        else:'
p3072
sI1058
S'            return str(expression)'
p3073
sI1049
S'            elif not isinstance(expression.op, str):'
p3074
sI1050
S'                return expression.op()'
p3075
sI1051
S'            else:'
p3076
sI1052
S"                return '(%s)' % expression.op"
p3077
sI1053
S'        elif field_type:'
p3078
sI1054
S'            return str(self.represent(expression,field_type))'
p3079
sI1055
S'        elif isinstance(expression,(list,tuple)):'
p3080
ssg2846
S"(self=<gluon.dal.SQLiteAdapter object at 0xa218b10>, expression='xxx', field_type='id')"
p3081
sg2848
g3032
sa(dp3082
g2825
S'/users/udimilo/Documents/web2py/gluon/dal.py'
p3083
sg2827
(dp3084
S'builtinstr'
p3085
S"<type 'str'>"
p3086
sS'builtinint'
p3087
S"<type 'int'>"
p3088
sS'obj'
p3089
S"'xxx'"
p3090
ssg2833
I1425
sg2834
(dp3091
I1420
S"            if obj and not str(obj)[:1].upper() in ['F', '0']:"
p3092
sI1421
S'                return "\'T\'"'
p3093
sI1422
S'            else:'
p3094
sI1423
S'                return "\'F\'"'
p3095
sI1424
S"        if fieldtype == 'id' or fieldtype == 'integer':"
p3096
sI1425
S'            return str(int(obj))'
p3097
sI1426
S"        if fieldtype.startswith('decimal'):"
p3098
sI1427
S'            return str(obj)'
p3099
sI1428
S"        elif fieldtype.startswith('reference'): # reference"
p3100
sI1429
S"            if fieldtype.find('.')>0:"
p3101
ssg2846
S"(self=<gluon.dal.SQLiteAdapter object at 0xa218b10>, obj='xxx', fieldtype='id')"
p3102
sg2848
S'represent'
p3103
sasS'pyver'
p3104
S'Python 2.5.4: /Library/Frameworks/Python.framework/Versions/2.5/Resources/Python.app/Contents/MacOS/Python'
p3105
sS'session'
p3106
g49
(g50
g51
NtRp3107
(dp3108
g54
(dp3109
sg56
(lp3110
g49
(g58
g51
NtRp3111
(dp3112
g54
(dp3113
g62
I5
ssg63
Nsg56
(lp3114
g49
(g65
g51
NtRp3115
(dp3116
g54
(dp3117
sg63
g3111
sg56
(lp3118
g49
(g70
g51
NtRp3119
(dp3120
g54
(dp3121
g74
g75
ssg63
g3115
sg56
(lp3122
S'auth'
p3123
asbag49
(g70
g51
NtRp3124
(dp3125
g54
(dp3126
g81
g82
ssg63
g3115
sg56
(lp3127
S':'
asbag49
(g70
g51
NtRp3128
(dp3129
g54
(dp3130
sg63
g3115
sg56
(lp3131
g49
(g50
g51
NtRp3132
(dp3133
g54
(dp3134
g62
I5
ssg63
g3128
sg56
(lp3135
g49
(g58
g51
NtRp3136
(dp3137
g54
(dp3138
g62
I4
ssg63
Nsg56
(lp3139
g49
(g65
g51
NtRp3140
(dp3141
g54
(dp3142
sg63
g3136
sg56
(lp3143
g49
(g70
g51
NtRp3144
(dp3145
g54
(dp3146
g74
g75
ssg63
g3140
sg56
(lp3147
S'expiration'
p3148
asbag49
(g70
g51
NtRp3149
(dp3150
g54
(dp3151
g81
g82
ssg63
g3140
sg56
(lp3152
S':'
asbag49
(g70
g51
NtRp3153
(dp3154
g54
(dp3155
sg63
g3140
sg56
(lp3156
g49
(g50
g51
NtRp3157
(dp3158
g54
(dp3159
g62
I4
ssg63
g3153
sg56
(lp3160
S'2592000'
p3161
asbasbasbag49
(g65
g51
NtRp3162
(dp3163
g54
(dp3164
sg63
g3136
sg56
(lp3165
g49
(g70
g51
NtRp3166
(dp3167
g54
(dp3168
g74
g75
ssg63
g3162
sg56
(lp3169
S'hmac_key'
p3170
asbag49
(g70
g51
NtRp3171
(dp3172
g54
(dp3173
g81
g82
ssg63
g3162
sg56
(lp3174
S':'
asbag49
(g70
g51
NtRp3175
(dp3176
g54
(dp3177
sg63
g3162
sg56
(lp3178
g49
(g50
g51
NtRp3179
(dp3180
g54
(dp3181
g62
I4
ssg63
g3175
sg56
(lp3182
S'e95fb5e0-f68d-430e-a660-5148e97bc5df'
p3183
asbasbasbag49
(g65
g51
NtRp3184
(dp3185
g54
(dp3186
sg63
g3136
sg56
(lp3187
g49
(g70
g51
NtRp3188
(dp3189
g54
(dp3190
g74
g75
ssg63
g3184
sg56
(lp3191
S'last_visit'
p3192
asbag49
(g70
g51
NtRp3193
(dp3194
g54
(dp3195
g81
g82
ssg63
g3184
sg56
(lp3196
S':'
asbag49
(g70
g51
NtRp3197
(dp3198
g54
(dp3199
sg63
g3184
sg56
(lp3200
g49
(g50
g51
NtRp3201
(dp3202
g54
(dp3203
g62
I4
ssg63
g3197
sg56
(lp3204
S'datetime.datetime(2012, 3, 8, 21, 10, 48, 287338)'
p3205
asbasbasbag49
(g65
g51
NtRp3206
(dp3207
g54
(dp3208
sg63
g3136
sg56
(lp3209
g49
(g70
g51
NtRp3210
(dp3211
g54
(dp3212
g74
g75
ssg63
g3206
sg56
(lp3213
S'remember'
p3214
asbag49
(g70
g51
NtRp3215
(dp3216
g54
(dp3217
g81
g82
ssg63
g3206
sg56
(lp3218
S':'
asbag49
(g70
g51
NtRp3219
(dp3220
g54
(dp3221
sg63
g3206
sg56
(lp3222
g49
(g50
g51
NtRp3223
(dp3224
g54
(dp3225
g62
I4
ssg63
g3219
sg56
(lp3226
g1478
asbasbasbag49
(g65
g51
NtRp3227
(dp3228
g54
(dp3229
sg63
g3136
sg56
(lp3230
g49
(g70
g51
NtRp3231
(dp3232
g54
(dp3233
g74
g75
ssg63
g3227
sg56
(lp3234
S'user'
p3235
asbag49
(g70
g51
NtRp3236
(dp3237
g54
(dp3238
g81
g82
ssg63
g3227
sg56
(lp3239
S':'
asbag49
(g70
g51
NtRp3240
(dp3241
g54
(dp3242
sg63
g3227
sg56
(lp3243
g49
(g50
g51
NtRp3244
(dp3245
g54
(dp3246
g62
I4
ssg63
g3240
sg56
(lp3247
g49
(g58
g51
NtRp3248
(dp3249
g54
(dp3250
g62
I3
ssg63
Nsg56
(lp3251
g49
(g65
g51
NtRp3252
(dp3253
g54
(dp3254
sg63
g3248
sg56
(lp3255
g49
(g70
g51
NtRp3256
(dp3257
g54
(dp3258
g74
g75
ssg63
g3252
sg56
(lp3259
S'email'
p3260
asbag49
(g70
g51
NtRp3261
(dp3262
g54
(dp3263
g81
g82
ssg63
g3252
sg56
(lp3264
S':'
asbag49
(g70
g51
NtRp3265
(dp3266
g54
(dp3267
sg63
g3252
sg56
(lp3268
g49
(g50
g51
NtRp3269
(dp3270
g54
(dp3271
g62
I3
ssg63
g3265
sg56
(lp3272
S'udimilo@gmail.com'
p3273
asbasbasbag49
(g65
g51
NtRp3274
(dp3275
g54
(dp3276
sg63
g3248
sg56
(lp3277
g49
(g70
g51
NtRp3278
(dp3279
g54
(dp3280
g74
g75
ssg63
g3274
sg56
(lp3281
S'first_name'
p3282
asbag49
(g70
g51
NtRp3283
(dp3284
g54
(dp3285
g81
g82
ssg63
g3274
sg56
(lp3286
S':'
asbag49
(g70
g51
NtRp3287
(dp3288
g54
(dp3289
sg63
g3274
sg56
(lp3290
g49
(g50
g51
NtRp3291
(dp3292
g54
(dp3293
g62
I3
ssg63
g3287
sg56
(lp3294
S'Udi'
p3295
asbasbasbag49
(g65
g51
NtRp3296
(dp3297
g54
(dp3298
sg63
g3248
sg56
(lp3299
g49
(g70
g51
NtRp3300
(dp3301
g54
(dp3302
g74
g75
ssg63
g3296
sg56
(lp3303
S'id'
p3304
asbag49
(g70
g51
NtRp3305
(dp3306
g54
(dp3307
g81
g82
ssg63
g3296
sg56
(lp3308
S':'
asbag49
(g70
g51
NtRp3309
(dp3310
g54
(dp3311
sg63
g3296
sg56
(lp3312
g49
(g50
g51
NtRp3313
(dp3314
g54
(dp3315
g62
I3
ssg63
g3309
sg56
(lp3316
S'1'
asbasbasbag49
(g65
g51
NtRp3317
(dp3318
g54
(dp3319
sg63
g3248
sg56
(lp3320
g49
(g70
g51
NtRp3321
(dp3322
g54
(dp3323
g74
g75
ssg63
g3317
sg56
(lp3324
S'last_name'
p3325
asbag49
(g70
g51
NtRp3326
(dp3327
g54
(dp3328
g81
g82
ssg63
g3317
sg56
(lp3329
S':'
asbag49
(g70
g51
NtRp3330
(dp3331
g54
(dp3332
sg63
g3317
sg56
(lp3333
g49
(g50
g51
NtRp3334
(dp3335
g54
(dp3336
g62
I3
ssg63
g3330
sg56
(lp3337
S'Milo'
p3338
asbasbasbag49
(g65
g51
NtRp3339
(dp3340
g54
(dp3341
sg63
g3248
sg56
(lp3342
g49
(g70
g51
NtRp3343
(dp3344
g54
(dp3345
g74
g75
ssg63
g3339
sg56
(lp3346
S'password'
p3347
asbag49
(g70
g51
NtRp3348
(dp3349
g54
(dp3350
g81
g82
ssg63
g3339
sg56
(lp3351
S':'
asbag49
(g70
g51
NtRp3352
(dp3353
g54
(dp3354
sg63
g3339
sg56
(lp3355
g49
(g50
g51
NtRp3356
(dp3357
g54
(dp3358
g62
I3
ssg63
g3352
sg56
(lp3359
S'7a6e3c6a68ceed66634484a3f64a3468'
p3360
asbasbasbag49
(g65
g51
NtRp3361
(dp3362
g54
(dp3363
sg63
g3248
sg56
(lp3364
g49
(g70
g51
NtRp3365
(dp3366
g54
(dp3367
g74
g75
ssg63
g3361
sg56
(lp3368
S'registration_id'
p3369
asbag49
(g70
g51
NtRp3370
(dp3371
g54
(dp3372
g81
g82
ssg63
g3361
sg56
(lp3373
S':'
asbag49
(g70
g51
NtRp3374
(dp3375
g54
(dp3376
sg63
g3361
sg56
(lp3377
g49
(g50
g51
NtRp3378
(dp3379
g54
(dp3380
g62
I3
ssg63
g3374
sg56
(lp3381
S''
asbasbasbag49
(g65
g51
NtRp3382
(dp3383
g54
(dp3384
sg63
g3248
sg56
(lp3385
g49
(g70
g51
NtRp3386
(dp3387
g54
(dp3388
g74
g75
ssg63
g3382
sg56
(lp3389
S'registration_key'
p3390
asbag49
(g70
g51
NtRp3391
(dp3392
g54
(dp3393
g81
g82
ssg63
g3382
sg56
(lp3394
S':'
asbag49
(g70
g51
NtRp3395
(dp3396
g54
(dp3397
sg63
g3382
sg56
(lp3398
g49
(g50
g51
NtRp3399
(dp3400
g54
(dp3401
g62
I3
ssg63
g3395
sg56
(lp3402
S''
asbasbasbag49
(g65
g51
NtRp3403
(dp3404
g54
(dp3405
sg63
g3248
sg56
(lp3406
g49
(g70
g51
NtRp3407
(dp3408
g54
(dp3409
g74
g75
ssg63
g3403
sg56
(lp3410
S'reset_password_key'
p3411
asbag49
(g70
g51
NtRp3412
(dp3413
g54
(dp3414
g81
g82
ssg63
g3403
sg56
(lp3415
S':'
asbag49
(g70
g51
NtRp3416
(dp3417
g54
(dp3418
sg63
g3403
sg56
(lp3419
g49
(g50
g51
NtRp3420
(dp3421
g54
(dp3422
g62
I3
ssg63
g3416
sg56
(lp3423
S''
asbasbasbasbasbasbasbag49
(g65
g51
NtRp3424
(dp3425
g54
(dp3426
sg63
g3136
sg56
(lp3427
g49
(g70
g51
NtRp3428
(dp3429
g54
(dp3430
g74
g75
ssg63
g3424
sg56
(lp3431
S'user_groups'
p3432
asbag49
(g70
g51
NtRp3433
(dp3434
g54
(dp3435
g81
g82
ssg63
g3424
sg56
(lp3436
S':'
asbag49
(g70
g51
NtRp3437
(dp3438
g54
(dp3439
sg63
g3424
sg56
(lp3440
g49
(g50
g51
NtRp3441
(dp3442
g54
(dp3443
g62
I4
ssg63
g3437
sg56
(lp3444
g49
(g58
g51
NtRp3445
(dp3446
g54
(dp3447
g62
I3
ssg63
Nsg56
(lp3448
g49
(g65
g51
NtRp3449
(dp3450
g54
(dp3451
sg63
g3445
sg56
(lp3452
g49
(g70
g51
NtRp3453
(dp3454
g54
(dp3455
g74
g75
ssg63
g3449
sg56
(lp3456
S'1'
asbag49
(g70
g51
NtRp3457
(dp3458
g54
(dp3459
g81
g82
ssg63
g3449
sg56
(lp3460
S':'
asbag49
(g70
g51
NtRp3461
(dp3462
g54
(dp3463
sg63
g3449
sg56
(lp3464
g49
(g50
g51
NtRp3465
(dp3466
g54
(dp3467
g62
I3
ssg63
g3461
sg56
(lp3468
S'user_1'
p3469
asbasbasbasbasbasbasbasbasbasbasbag49
(g65
g51
NtRp3470
(dp3471
g54
(dp3472
sg63
g3111
sg56
(lp3473
g49
(g70
g51
NtRp3474
(dp3475
g54
(dp3476
g74
g75
ssg63
g3470
sg56
(lp3477
S'last_query'
p3478
asbag49
(g70
g51
NtRp3479
(dp3480
g54
(dp3481
g81
g82
ssg63
g3470
sg56
(lp3482
S':'
asbag49
(g70
g51
NtRp3483
(dp3484
g54
(dp3485
sg63
g3470
sg56
(lp3486
g49
(g50
g51
NtRp3487
(dp3488
g54
(dp3489
g62
I5
ssg63
g3483
sg56
(lp3490
S'db.board.id>0'
p3491
asbasbasbasbasbsS'etype'
p3492
S"<type 'exceptions.ValueError'>"
p3493
sS'date'
p3494
S'Mon Mar 12 03:05:02 2012'
p3495
sS'response'
p3496
g49
(g50
g51
NtRp3497
(dp3498
g54
(dp3499
sg56
(lp3500
g49
(g58
g51
NtRp3501
(dp3502
g54
(dp3503
g62
I5
ssg63
Nsg56
(lp3504
g49
(g65
g51
NtRp3505
(dp3506
g54
(dp3507
sg63
g3501
sg56
(lp3508
g49
(g70
g51
NtRp3509
(dp3510
g54
(dp3511
g74
g75
ssg63
g3505
sg56
(lp3512
g160
asbag49
(g70
g51
NtRp3513
(dp3514
g54
(dp3515
g81
g82
ssg63
g3505
sg56
(lp3516
S':'
asbag49
(g70
g51
NtRp3517
(dp3518
g54
(dp3519
sg63
g3505
sg56
(lp3520
g49
(g50
g51
NtRp3521
(dp3522
g54
(dp3523
g62
I5
ssg63
g3517
sg56
(lp3524
S'<cStringIO.StringO object at 0xa25d620>'
p3525
asbasbasbag49
(g65
g51
NtRp3526
(dp3527
g54
(dp3528
sg63
g3501
sg56
(lp3529
g49
(g70
g51
NtRp3530
(dp3531
g54
(dp3532
g74
g75
ssg63
g3526
sg56
(lp3533
g226
asbag49
(g70
g51
NtRp3534
(dp3535
g54
(dp3536
g81
g82
ssg63
g3526
sg56
(lp3537
S':'
asbag49
(g70
g51
NtRp3538
(dp3539
g54
(dp3540
sg63
g3526
sg56
(lp3541
g49
(g50
g51
NtRp3542
(dp3543
g54
(dp3544
g62
I5
ssg63
g3538
sg56
(lp3545
g49
(g58
g51
NtRp3546
(dp3547
g54
(dp3548
g62
I4
ssg63
Nsg56
(lp3549
g49
(g65
g51
NtRp3550
(dp3551
g54
(dp3552
sg63
g3546
sg56
(lp3553
g49
(g70
g51
NtRp3554
(dp3555
g54
(dp3556
g74
g75
ssg63
g3550
sg56
(lp3557
S'session_id_udi0312'
p3558
asbag49
(g70
g51
NtRp3559
(dp3560
g54
(dp3561
g81
g82
ssg63
g3550
sg56
(lp3562
S':'
asbag49
(g70
g51
NtRp3563
(dp3564
g54
(dp3565
sg63
g3550
sg56
(lp3566
g49
(g50
g51
NtRp3567
(dp3568
g54
(dp3569
g62
I4
ssg63
g3563
sg56
(lp3570
g49
(g58
g51
NtRp3571
(dp3572
g54
(dp3573
g62
I3
ssg63
Nsg56
(lp3574
g49
(g65
g51
NtRp3575
(dp3576
g54
(dp3577
sg63
g3571
sg56
(lp3578
g49
(g70
g51
NtRp3579
(dp3580
g54
(dp3581
g74
g75
ssg63
g3575
sg56
(lp3582
g276
asbag49
(g70
g51
NtRp3583
(dp3584
g54
(dp3585
g81
g82
ssg63
g3575
sg56
(lp3586
S':'
asbag49
(g70
g51
NtRp3587
(dp3588
g54
(dp3589
sg63
g3575
sg56
(lp3590
g49
(g50
g51
NtRp3591
(dp3592
g54
(dp3593
g62
I3
ssg63
g3587
sg56
(lp3594
S''
asbasbasbag49
(g65
g51
NtRp3595
(dp3596
g54
(dp3597
sg63
g3571
sg56
(lp3598
g49
(g70
g51
NtRp3599
(dp3600
g54
(dp3601
g74
g75
ssg63
g3595
sg56
(lp3602
g297
asbag49
(g70
g51
NtRp3603
(dp3604
g54
(dp3605
g81
g82
ssg63
g3595
sg56
(lp3606
S':'
asbag49
(g70
g51
NtRp3607
(dp3608
g54
(dp3609
sg63
g3595
sg56
(lp3610
g49
(g50
g51
NtRp3611
(dp3612
g54
(dp3613
g62
I3
ssg63
g3607
sg56
(lp3614
S''
asbasbasbag49
(g65
g51
NtRp3615
(dp3616
g54
(dp3617
sg63
g3571
sg56
(lp3618
g49
(g70
g51
NtRp3619
(dp3620
g54
(dp3621
g74
g75
ssg63
g3615
sg56
(lp3622
g318
asbag49
(g70
g51
NtRp3623
(dp3624
g54
(dp3625
g81
g82
ssg63
g3615
sg56
(lp3626
S':'
asbag49
(g70
g51
NtRp3627
(dp3628
g54
(dp3629
sg63
g3615
sg56
(lp3630
g49
(g50
g51
NtRp3631
(dp3632
g54
(dp3633
g62
I3
ssg63
g3627
sg56
(lp3634
S'2592000'
p3635
asbasbasbag49
(g65
g51
NtRp3636
(dp3637
g54
(dp3638
sg63
g3571
sg56
(lp3639
g49
(g70
g51
NtRp3640
(dp3641
g54
(dp3642
g74
g75
ssg63
g3636
sg56
(lp3643
g339
asbag49
(g70
g51
NtRp3644
(dp3645
g54
(dp3646
g81
g82
ssg63
g3636
sg56
(lp3647
S':'
asbag49
(g70
g51
NtRp3648
(dp3649
g54
(dp3650
sg63
g3636
sg56
(lp3651
g49
(g50
g51
NtRp3652
(dp3653
g54
(dp3654
g62
I3
ssg63
g3648
sg56
(lp3655
S''
asbasbasbag49
(g65
g51
NtRp3656
(dp3657
g54
(dp3658
sg63
g3571
sg56
(lp3659
g49
(g70
g51
NtRp3660
(dp3661
g54
(dp3662
g74
g75
ssg63
g3656
sg56
(lp3663
g360
asbag49
(g70
g51
NtRp3664
(dp3665
g54
(dp3666
g81
g82
ssg63
g3656
sg56
(lp3667
S':'
asbag49
(g70
g51
NtRp3668
(dp3669
g54
(dp3670
sg63
g3656
sg56
(lp3671
g49
(g50
g51
NtRp3672
(dp3673
g54
(dp3674
g62
I3
ssg63
g3668
sg56
(lp3675
S'/'
asbasbasbag49
(g65
g51
NtRp3676
(dp3677
g54
(dp3678
sg63
g3571
sg56
(lp3679
g49
(g70
g51
NtRp3680
(dp3681
g54
(dp3682
g74
g75
ssg63
g3676
sg56
(lp3683
g381
asbag49
(g70
g51
NtRp3684
(dp3685
g54
(dp3686
g81
g82
ssg63
g3676
sg56
(lp3687
S':'
asbag49
(g70
g51
NtRp3688
(dp3689
g54
(dp3690
sg63
g3676
sg56
(lp3691
g49
(g50
g51
NtRp3692
(dp3693
g54
(dp3694
g62
I3
ssg63
g3688
sg56
(lp3695
S''
asbasbasbag49
(g65
g51
NtRp3696
(dp3697
g54
(dp3698
sg63
g3571
sg56
(lp3699
g49
(g70
g51
NtRp3700
(dp3701
g54
(dp3702
g74
g75
ssg63
g3696
sg56
(lp3703
g402
asbag49
(g70
g51
NtRp3704
(dp3705
g54
(dp3706
g81
g82
ssg63
g3696
sg56
(lp3707
S':'
asbag49
(g70
g51
NtRp3708
(dp3709
g54
(dp3710
sg63
g3696
sg56
(lp3711
g49
(g50
g51
NtRp3712
(dp3713
g54
(dp3714
g62
I3
ssg63
g3708
sg56
(lp3715
S''
asbasbasbasbasbasbasbasbasbasbasbag49
(g65
g51
NtRp3716
(dp3717
g54
(dp3718
sg63
g3501
sg56
(lp3719
g49
(g70
g51
NtRp3720
(dp3721
g54
(dp3722
g74
g75
ssg63
g3716
sg56
(lp3723
S'delimiters'
p3724
asbag49
(g70
g51
NtRp3725
(dp3726
g54
(dp3727
g81
g82
ssg63
g3716
sg56
(lp3728
S':'
asbag49
(g70
g51
NtRp3729
(dp3730
g54
(dp3731
sg63
g3716
sg56
(lp3732
g49
(g50
g51
NtRp3733
(dp3734
g54
(dp3735
g62
I5
ssg63
g3729
sg56
(lp3736
g49
(g58
g51
NtRp3737
(dp3738
g54
(dp3739
g62
I4
ssg63
Nsg56
(lp3740
g49
(g65
g51
NtRp3741
(dp3742
g54
(dp3743
sg63
g3737
sg56
(lp3744
g49
(g70
g51
NtRp3745
(dp3746
g54
(dp3747
sg63
g3741
sg56
(lp3748
g49
(g50
g51
NtRp3749
(dp3750
g54
(dp3751
g62
I4
ssg63
g3745
sg56
(lp3752
S'{{'
p3753
asbasbasbag49
(g65
g51
NtRp3754
(dp3755
g54
(dp3756
sg63
g3737
sg56
(lp3757
g49
(g70
g51
NtRp3758
(dp3759
g54
(dp3760
sg63
g3754
sg56
(lp3761
g49
(g50
g51
NtRp3762
(dp3763
g54
(dp3764
g62
I4
ssg63
g3758
sg56
(lp3765
S'}}'
p3766
asbasbasbasbasbasbasbag49
(g65
g51
NtRp3767
(dp3768
g54
(dp3769
sg63
g3501
sg56
(lp3770
g49
(g70
g51
NtRp3771
(dp3772
g54
(dp3773
g74
g75
ssg63
g3767
sg56
(lp3774
S'files'
p3775
asbag49
(g70
g51
NtRp3776
(dp3777
g54
(dp3778
g81
g82
ssg63
g3767
sg56
(lp3779
S':'
asbag49
(g70
g51
NtRp3780
(dp3781
g54
(dp3782
sg63
g3767
sg56
(lp3783
g49
(g50
g51
NtRp3784
(dp3785
g54
(dp3786
g62
I5
ssg63
g3780
sg56
(lp3787
g49
(g58
g51
NtRp3788
(dp3789
g54
(dp3790
g62
I4
ssg63
Nsg56
(lp3791
sbasbasbasbag49
(g65
g51
NtRp3792
(dp3793
g54
(dp3794
sg63
g3501
sg56
(lp3795
g49
(g70
g51
NtRp3796
(dp3797
g54
(dp3798
g74
g75
ssg63
g3792
sg56
(lp3799
S'flash'
p3800
asbag49
(g70
g51
NtRp3801
(dp3802
g54
(dp3803
g81
g82
ssg63
g3792
sg56
(lp3804
S':'
asbag49
(g70
g51
NtRp3805
(dp3806
g54
(dp3807
sg63
g3792
sg56
(lp3808
g49
(g50
g51
NtRp3809
(dp3810
g54
(dp3811
g62
I5
ssg63
g3805
sg56
(lp3812
S''
asbasbasbag49
(g65
g51
NtRp3813
(dp3814
g54
(dp3815
sg63
g3501
sg56
(lp3816
g49
(g70
g51
NtRp3817
(dp3818
g54
(dp3819
g74
g75
ssg63
g3813
sg56
(lp3820
S'generic_patterns'
p3821
asbag49
(g70
g51
NtRp3822
(dp3823
g54
(dp3824
g81
g82
ssg63
g3813
sg56
(lp3825
S':'
asbag49
(g70
g51
NtRp3826
(dp3827
g54
(dp3828
sg63
g3813
sg56
(lp3829
g49
(g50
g51
NtRp3830
(dp3831
g54
(dp3832
g62
I5
ssg63
g3826
sg56
(lp3833
g49
(g58
g51
NtRp3834
(dp3835
g54
(dp3836
g62
I4
ssg63
Nsg56
(lp3837
g49
(g65
g51
NtRp3838
(dp3839
g54
(dp3840
sg63
g3834
sg56
(lp3841
g49
(g70
g51
NtRp3842
(dp3843
g54
(dp3844
sg63
g3838
sg56
(lp3845
g49
(g50
g51
NtRp3846
(dp3847
g54
(dp3848
g62
I4
ssg63
g3842
sg56
(lp3849
S'*'
asbasbasbasbasbasbasbag49
(g65
g51
NtRp3850
(dp3851
g54
(dp3852
sg63
g3501
sg56
(lp3853
g49
(g70
g51
NtRp3854
(dp3855
g54
(dp3856
g74
g75
ssg63
g3850
sg56
(lp3857
S'headers'
p3858
asbag49
(g70
g51
NtRp3859
(dp3860
g54
(dp3861
g81
g82
ssg63
g3850
sg56
(lp3862
S':'
asbag49
(g70
g51
NtRp3863
(dp3864
g54
(dp3865
sg63
g3850
sg56
(lp3866
g49
(g50
g51
NtRp3867
(dp3868
g54
(dp3869
g62
I5
ssg63
g3863
sg56
(lp3870
g49
(g58
g51
NtRp3871
(dp3872
g54
(dp3873
g62
I4
ssg63
Nsg56
(lp3874
g49
(g65
g51
NtRp3875
(dp3876
g54
(dp3877
sg63
g3871
sg56
(lp3878
g49
(g70
g51
NtRp3879
(dp3880
g54
(dp3881
g74
g75
ssg63
g3875
sg56
(lp3882
S'Cache-Control'
p3883
asbag49
(g70
g51
NtRp3884
(dp3885
g54
(dp3886
g81
g82
ssg63
g3875
sg56
(lp3887
S':'
asbag49
(g70
g51
NtRp3888
(dp3889
g54
(dp3890
sg63
g3875
sg56
(lp3891
g49
(g50
g51
NtRp3892
(dp3893
g54
(dp3894
g62
I4
ssg63
g3888
sg56
(lp3895
S'no-store, no-cache, must-revalidate, post-check=0, pre-check=0'
p3896
asbasbasbag49
(g65
g51
NtRp3897
(dp3898
g54
(dp3899
sg63
g3871
sg56
(lp3900
g49
(g70
g51
NtRp3901
(dp3902
g54
(dp3903
g74
g75
ssg63
g3897
sg56
(lp3904
S'Content-Type'
p3905
asbag49
(g70
g51
NtRp3906
(dp3907
g54
(dp3908
g81
g82
ssg63
g3897
sg56
(lp3909
S':'
asbag49
(g70
g51
NtRp3910
(dp3911
g54
(dp3912
sg63
g3897
sg56
(lp3913
g49
(g50
g51
NtRp3914
(dp3915
g54
(dp3916
g62
I4
ssg63
g3910
sg56
(lp3917
S'text/html; charset=utf-8'
p3918
asbasbasbag49
(g65
g51
NtRp3919
(dp3920
g54
(dp3921
sg63
g3871
sg56
(lp3922
g49
(g70
g51
NtRp3923
(dp3924
g54
(dp3925
g74
g75
ssg63
g3919
sg56
(lp3926
S'Expires'
p3927
asbag49
(g70
g51
NtRp3928
(dp3929
g54
(dp3930
g81
g82
ssg63
g3919
sg56
(lp3931
S':'
asbag49
(g70
g51
NtRp3932
(dp3933
g54
(dp3934
sg63
g3919
sg56
(lp3935
g49
(g50
g51
NtRp3936
(dp3937
g54
(dp3938
g62
I4
ssg63
g3932
sg56
(lp3939
S'Mon, 12 Mar 2012 02:05:02 GMT'
p3940
asbasbasbag49
(g65
g51
NtRp3941
(dp3942
g54
(dp3943
sg63
g3871
sg56
(lp3944
g49
(g70
g51
NtRp3945
(dp3946
g54
(dp3947
g74
g75
ssg63
g3941
sg56
(lp3948
S'Pragma'
p3949
asbag49
(g70
g51
NtRp3950
(dp3951
g54
(dp3952
g81
g82
ssg63
g3941
sg56
(lp3953
S':'
asbag49
(g70
g51
NtRp3954
(dp3955
g54
(dp3956
sg63
g3941
sg56
(lp3957
g49
(g50
g51
NtRp3958
(dp3959
g54
(dp3960
g62
I4
ssg63
g3954
sg56
(lp3961
S'no-cache'
p3962
asbasbasbag49
(g65
g51
NtRp3963
(dp3964
g54
(dp3965
sg63
g3871
sg56
(lp3966
g49
(g70
g51
NtRp3967
(dp3968
g54
(dp3969
g74
g75
ssg63
g3963
sg56
(lp3970
S'X-Powered-By'
p3971
asbag49
(g70
g51
NtRp3972
(dp3973
g54
(dp3974
g81
g82
ssg63
g3963
sg56
(lp3975
S':'
asbag49
(g70
g51
NtRp3976
(dp3977
g54
(dp3978
sg63
g3963
sg56
(lp3979
g49
(g50
g51
NtRp3980
(dp3981
g54
(dp3982
g62
I4
ssg63
g3976
sg56
(lp3983
S'web2py'
p3984
asbasbasbasbasbasbasbag49
(g65
g51
NtRp3985
(dp3986
g54
(dp3987
sg63
g3501
sg56
(lp3988
g49
(g70
g51
NtRp3989
(dp3990
g54
(dp3991
g74
g75
ssg63
g3985
sg56
(lp3992
S'menu'
p3993
asbag49
(g70
g51
NtRp3994
(dp3995
g54
(dp3996
g81
g82
ssg63
g3985
sg56
(lp3997
S':'
asbag49
(g70
g51
NtRp3998
(dp3999
g54
(dp4000
sg63
g3985
sg56
(lp4001
g49
(g50
g51
NtRp4002
(dp4003
g54
(dp4004
g62
I5
ssg63
g3998
sg56
(lp4005
g49
(g58
g51
NtRp4006
(dp4007
g54
(dp4008
g62
I4
ssg63
Nsg56
(lp4009
g49
(g65
g51
NtRp4010
(dp4011
g54
(dp4012
sg63
g4006
sg56
(lp4013
g49
(g70
g51
NtRp4014
(dp4015
g54
(dp4016
sg63
g4010
sg56
(lp4017
g49
(g50
g51
NtRp4018
(dp4019
g54
(dp4020
g62
I4
ssg63
g4014
sg56
(lp4021
g49
(g58
g51
NtRp4022
(dp4023
g54
(dp4024
g62
I3
ssg63
Nsg56
(lp4025
g49
(g65
g51
NtRp4026
(dp4027
g54
(dp4028
sg63
g4022
sg56
(lp4029
g49
(g70
g51
NtRp4030
(dp4031
g54
(dp4032
sg63
g4026
sg56
(lp4033
g49
(g50
g51
NtRp4034
(dp4035
g54
(dp4036
g62
I3
ssg63
g4030
sg56
(lp4037
cgluon.languages
lazyT_unpickle
p4038
(S's\x04\x00\x00\x00Home'
tRp4039
asbasbasbag49
(g65
g51
NtRp4040
(dp4041
g54
(dp4042
sg63
g4022
sg56
(lp4043
g49
(g70
g51
NtRp4044
(dp4045
g54
(dp4046
sg63
g4040
sg56
(lp4047
g49
(g50
g51
NtRp4048
(dp4049
g54
(dp4050
g62
I3
ssg63
g4044
sg56
(lp4051
g92
asbasbasbag49
(g65
g51
NtRp4052
(dp4053
g54
(dp4054
sg63
g4022
sg56
(lp4055
g49
(g70
g51
NtRp4056
(dp4057
g54
(dp4058
sg63
g4052
sg56
(lp4059
g49
(g50
g51
NtRp4060
(dp4061
g54
(dp4062
g62
I3
ssg63
g4056
sg56
(lp4063
S'/'
asbasbasbag49
(g65
g51
NtRp4064
(dp4065
g54
(dp4066
sg63
g4022
sg56
(lp4067
g49
(g70
g51
NtRp4068
(dp4069
g54
(dp4070
sg63
g4064
sg56
(lp4071
g49
(g50
g51
NtRp4072
(dp4073
g54
(dp4074
g62
I3
ssg63
g4068
sg56
(lp4075
g49
(g58
g51
NtRp4076
(dp4077
g54
(dp4078
g62
I2
ssg63
Nsg56
(lp4079
sbasbasbasbasbasbasbasbag49
(g65
g51
NtRp4080
(dp4081
g54
(dp4082
sg63
g4006
sg56
(lp4083
g49
(g70
g51
NtRp4084
(dp4085
g54
(dp4086
sg63
g4080
sg56
(lp4087
g49
(g50
g51
NtRp4088
(dp4089
g54
(dp4090
g62
I4
ssg63
g4084
sg56
(lp4091
g49
(g58
g51
NtRp4092
(dp4093
g54
(dp4094
g62
I3
ssg63
Nsg56
(lp4095
g49
(g65
g51
NtRp4096
(dp4097
g54
(dp4098
sg63
g4092
sg56
(lp4099
g49
(g70
g51
NtRp4100
(dp4101
g54
(dp4102
sg63
g4096
sg56
(lp4103
g49
(g50
g51
NtRp4104
(dp4105
g54
(dp4106
g62
I3
ssg63
g4100
sg56
(lp4107
g49
(cgluon.html
SPAN
p4108
g51
NtRp4109
(dp4110
g54
(dp4111
g74
S'color:yellow'
p4112
ssg63
Nsg56
(lp4113
g3984
asbasbasbasbag49
(g65
g51
NtRp4114
(dp4115
g54
(dp4116
sg63
g4092
sg56
(lp4117
g49
(g70
g51
NtRp4118
(dp4119
g54
(dp4120
sg63
g4114
sg56
(lp4121
g49
(g50
g51
NtRp4122
(dp4123
g54
(dp4124
g62
I3
ssg63
g4118
sg56
(lp4125
g92
asbasbasbag49
(g65
g51
NtRp4126
(dp4127
g54
(dp4128
sg63
g4092
sg56
(lp4129
g49
(g70
g51
NtRp4130
(dp4131
g54
(dp4132
sg63
g4126
sg56
(lp4133
g49
(g50
g51
NtRp4134
(dp4135
g54
(dp4136
g62
I3
ssg63
g4130
sg56
(lp4137
S'None'
p4138
asbasbasbag49
(g65
g51
NtRp4139
(dp4140
g54
(dp4141
sg63
g4092
sg56
(lp4142
g49
(g70
g51
NtRp4143
(dp4144
g54
(dp4145
sg63
g4139
sg56
(lp4146
g49
(g50
g51
NtRp4147
(dp4148
g54
(dp4149
g62
I3
ssg63
g4143
sg56
(lp4150
g49
(g58
g51
NtRp4151
(dp4152
g54
(dp4153
g62
I2
ssg63
Nsg56
(lp4154
g49
(g65
g51
NtRp4155
(dp4156
g54
(dp4157
sg63
g4151
sg56
(lp4158
g49
(g70
g51
NtRp4159
(dp4160
g54
(dp4161
sg63
g4155
sg56
(lp4162
g49
(g50
g51
NtRp4163
(dp4164
g54
(dp4165
g62
I2
ssg63
g4159
sg56
(lp4166
g49
(g58
g51
NtRp4167
(dp4168
g54
(dp4169
g62
I1
ssg63
Nsg56
(lp4170
g49
(g65
g51
NtRp4171
(dp4172
g54
(dp4173
sg63
g4167
sg56
(lp4174
g49
(g70
g51
NtRp4175
(dp4176
g54
(dp4177
sg63
g4171
sg56
(lp4178
g49
(g50
g51
NtRp4179
(dp4180
g54
(dp4181
g62
I1
ssg63
g4175
sg56
(lp4182
g4038
(S's\x08\x00\x00\x00My Sites'
tRp4183
asbasbasbag49
(g65
g51
NtRp4184
(dp4185
g54
(dp4186
sg63
g4167
sg56
(lp4187
g49
(g70
g51
NtRp4188
(dp4189
g54
(dp4190
sg63
g4184
sg56
(lp4191
g49
(g50
g51
NtRp4192
(dp4193
g54
(dp4194
g62
I1
ssg63
g4188
sg56
(lp4195
I00
asbasbasbag49
(g65
g51
NtRp4196
(dp4197
g54
(dp4198
sg63
g4167
sg56
(lp4199
g49
(g70
g51
NtRp4200
(dp4201
g54
(dp4202
sg63
g4196
sg56
(lp4203
g49
(g50
g51
NtRp4204
(dp4205
g54
(dp4206
g62
I1
ssg63
g4200
sg56
(lp4207
S'/admin/site'
p4208
asbasbasbasbasbasbasbag49
(g65
g51
NtRp4209
(dp4210
g54
(dp4211
sg63
g4151
sg56
(lp4212
g49
(g70
g51
NtRp4213
(dp4214
g54
(dp4215
sg63
g4209
sg56
(lp4216
g49
(g50
g51
NtRp4217
(dp4218
g54
(dp4219
g62
I2
ssg63
g4213
sg56
(lp4220
g49
(g58
g51
NtRp4221
(dp4222
g54
(dp4223
g62
I1
ssg63
Nsg56
(lp4224
g49
(g65
g51
NtRp4225
(dp4226
g54
(dp4227
sg63
g4221
sg56
(lp4228
g49
(g70
g51
NtRp4229
(dp4230
g54
(dp4231
sg63
g4225
sg56
(lp4232
g49
(g50
g51
NtRp4233
(dp4234
g54
(dp4235
g62
I1
ssg63
g4229
sg56
(lp4236
g4038
(S's\x08\x00\x00\x00This App'
tRp4237
asbasbasbag49
(g65
g51
NtRp4238
(dp4239
g54
(dp4240
sg63
g4221
sg56
(lp4241
g49
(g70
g51
NtRp4242
(dp4243
g54
(dp4244
sg63
g4238
sg56
(lp4245
g49
(g50
g51
NtRp4246
(dp4247
g54
(dp4248
g62
I1
ssg63
g4242
sg56
(lp4249
I00
asbasbasbag49
(g65
g51
NtRp4250
(dp4251
g54
(dp4252
sg63
g4221
sg56
(lp4253
g49
(g70
g51
NtRp4254
(dp4255
g54
(dp4256
sg63
g4250
sg56
(lp4257
g49
(g50
g51
NtRp4258
(dp4259
g54
(dp4260
g62
I1
ssg63
g4254
sg56
(lp4261
S'/admin/design/udi0312'
p4262
asbasbasbag49
(g65
g51
NtRp4263
(dp4264
g54
(dp4265
sg63
g4221
sg56
(lp4266
g49
(g70
g51
NtRp4267
(dp4268
g54
(dp4269
sg63
g4263
sg56
(lp4270
g49
(g50
g51
NtRp4271
(dp4272
g54
(dp4273
g62
I1
ssg63
g4267
sg56
(lp4274
(lp4275
(g4038
(S's\n\x00\x00\x00Controller'
tRp4276
I00
S'/admin/edit/udi0312/controllers/default.py'
tp4277
a(g4038
(S's\x04\x00\x00\x00View'
tRp4278
I00
S'/admin/edit/udi0312/views/default/boards.html'
tp4279
a(g4038
(S's\x06\x00\x00\x00Layout'
tRp4280
I00
S'/admin/edit/udi0312/views/layout.html'
tp4281
a(g4038
(S's\n\x00\x00\x00Stylesheet'
tRp4282
I00
S'/admin/edit/udi0312/static/css/web2py.css'
tp4283
a(g4038
(S's\x08\x00\x00\x00DB Model'
tRp4284
I00
S'/admin/edit/udi0312/models/db.py'
tp4285
a(g4038
(S's\n\x00\x00\x00Menu Model'
tRp4286
I00
S'/admin/edit/udi0312/models/menu.py'
tp4287
a(g4038
(S's\x08\x00\x00\x00Database'
tRp4288
I00
S'/appadmin'
tp4289
a(g4038
(S's\x06\x00\x00\x00Errors'
tRp4290
I00
S'/admin/errors/udi0312'
tp4291
a(g4038
(S's\x05\x00\x00\x00About'
tRp4292
I00
S'/admin/about/udi0312'
tp4293
aasbasbasbasbasbasbasbag49
(g65
g51
NtRp4294
(dp4295
g54
(dp4296
sg63
g4151
sg56
(lp4297
g49
(g70
g51
NtRp4298
(dp4299
g54
(dp4300
sg63
g4294
sg56
(lp4301
g49
(g50
g51
NtRp4302
(dp4303
g54
(dp4304
g62
I2
ssg63
g4298
sg56
(lp4305
g49
(g58
g51
NtRp4306
(dp4307
g54
(dp4308
g62
I1
ssg63
Nsg56
(lp4309
g49
(g65
g51
NtRp4310
(dp4311
g54
(dp4312
sg63
g4306
sg56
(lp4313
g49
(g70
g51
NtRp4314
(dp4315
g54
(dp4316
sg63
g4310
sg56
(lp4317
g49
(g50
g51
NtRp4318
(dp4319
g54
(dp4320
g62
I1
ssg63
g4314
sg56
(lp4321
S'web2py.com'
p4322
asbasbasbag49
(g65
g51
NtRp4323
(dp4324
g54
(dp4325
sg63
g4306
sg56
(lp4326
g49
(g70
g51
NtRp4327
(dp4328
g54
(dp4329
sg63
g4323
sg56
(lp4330
g49
(g50
g51
NtRp4331
(dp4332
g54
(dp4333
g62
I1
ssg63
g4327
sg56
(lp4334
I00
asbasbasbag49
(g65
g51
NtRp4335
(dp4336
g54
(dp4337
sg63
g4306
sg56
(lp4338
g49
(g70
g51
NtRp4339
(dp4340
g54
(dp4341
sg63
g4335
sg56
(lp4342
g49
(g50
g51
NtRp4343
(dp4344
g54
(dp4345
g62
I1
ssg63
g4339
sg56
(lp4346
S'http://www.web2py.com'
p4347
asbasbasbag49
(g65
g51
NtRp4348
(dp4349
g54
(dp4350
sg63
g4306
sg56
(lp4351
g49
(g70
g51
NtRp4352
(dp4353
g54
(dp4354
sg63
g4348
sg56
(lp4355
g49
(g50
g51
NtRp4356
(dp4357
g54
(dp4358
g62
I1
ssg63
g4352
sg56
(lp4359
(lp4360
(g4038
(S's\x08\x00\x00\x00Download'
tRp4361
I00
S'http://www.web2py.com/examples/default/download'
p4362
tp4363
a(g4038
(S's\x07\x00\x00\x00Support'
tRp4364
I00
S'http://www.web2py.com/examples/default/support'
p4365
tp4366
a(g4038
(S's\x04\x00\x00\x00Demo'
tRp4367
I00
S'http://web2py.com/demo_admin'
p4368
tp4369
a(g4038
(S's\x0e\x00\x00\x00Quick Examples'
tRp4370
I00
S'http://web2py.com/examples/default/examples'
p4371
tp4372
a(g4038
(S's\x03\x00\x00\x00FAQ'
tRp4373
I00
S'http://web2py.com/AlterEgo'
p4374
tp4375
a(g4038
(S's\x06\x00\x00\x00Videos'
tRp4376
I00
S'http://www.web2py.com/examples/default/videos/'
p4377
tp4378
a(g4038
(S's\x11\x00\x00\x00Free Applications'
tRp4379
I00
S'http://web2py.com/appliances'
p4380
tp4381
a(g4038
(S's\x07\x00\x00\x00Plugins'
tRp4382
I00
S'http://web2py.com/plugins'
p4383
tp4384
a(g4038
(S's\x07\x00\x00\x00Layouts'
tRp4385
I00
S'http://web2py.com/layouts'
p4386
tp4387
a(g4038
(S's\x07\x00\x00\x00Recipes'
tRp4388
I00
S'http://web2pyslices.com/'
p4389
tp4390
a(g4038
(S's\x08\x00\x00\x00Semantic'
tRp4391
I00
S'http://web2py.com/semantic'
p4392
tp4393
aasbasbasbasbasbasbasbag49
(g65
g51
NtRp4394
(dp4395
g54
(dp4396
sg63
g4151
sg56
(lp4397
g49
(g70
g51
NtRp4398
(dp4399
g54
(dp4400
sg63
g4394
sg56
(lp4401
g49
(g50
g51
NtRp4402
(dp4403
g54
(dp4404
g62
I2
ssg63
g4398
sg56
(lp4405
g49
(g58
g51
NtRp4406
(dp4407
g54
(dp4408
g62
I1
ssg63
Nsg56
(lp4409
g49
(g65
g51
NtRp4410
(dp4411
g54
(dp4412
sg63
g4406
sg56
(lp4413
g49
(g70
g51
NtRp4414
(dp4415
g54
(dp4416
sg63
g4410
sg56
(lp4417
g49
(g50
g51
NtRp4418
(dp4419
g54
(dp4420
g62
I1
ssg63
g4414
sg56
(lp4421
g4038
(S's\r\x00\x00\x00Documentation'
tRp4422
asbasbasbag49
(g65
g51
NtRp4423
(dp4424
g54
(dp4425
sg63
g4406
sg56
(lp4426
g49
(g70
g51
NtRp4427
(dp4428
g54
(dp4429
sg63
g4423
sg56
(lp4430
g49
(g50
g51
NtRp4431
(dp4432
g54
(dp4433
g62
I1
ssg63
g4427
sg56
(lp4434
I00
asbasbasbag49
(g65
g51
NtRp4435
(dp4436
g54
(dp4437
sg63
g4406
sg56
(lp4438
g49
(g70
g51
NtRp4439
(dp4440
g54
(dp4441
sg63
g4435
sg56
(lp4442
g49
(g50
g51
NtRp4443
(dp4444
g54
(dp4445
g62
I1
ssg63
g4439
sg56
(lp4446
S'http://www.web2py.com/book'
p4447
asbasbasbag49
(g65
g51
NtRp4448
(dp4449
g54
(dp4450
sg63
g4406
sg56
(lp4451
g49
(g70
g51
NtRp4452
(dp4453
g54
(dp4454
sg63
g4448
sg56
(lp4455
g49
(g50
g51
NtRp4456
(dp4457
g54
(dp4458
g62
I1
ssg63
g4452
sg56
(lp4459
(lp4460
(g4038
(S's\x07\x00\x00\x00Preface'
tRp4461
I00
S'http://www.web2py.com/book/default/chapter/00'
p4462
tp4463
a(g4038
(S's\x0c\x00\x00\x00Introduction'
tRp4464
I00
S'http://www.web2py.com/book/default/chapter/01'
p4465
tp4466
a(g4038
(S's\x06\x00\x00\x00Python'
tRp4467
I00
S'http://www.web2py.com/book/default/chapter/02'
p4468
tp4469
a(g4038
(S's\x08\x00\x00\x00Overview'
tRp4470
I00
S'http://www.web2py.com/book/default/chapter/03'
p4471
tp4472
a(g4038
(S's\x08\x00\x00\x00The Core'
tRp4473
I00
S'http://www.web2py.com/book/default/chapter/04'
p4474
tp4475
a(g4038
(S's\t\x00\x00\x00The Views'
tRp4476
I00
S'http://www.web2py.com/book/default/chapter/05'
p4477
tp4478
a(g4038
(S's\x08\x00\x00\x00Database'
tRp4479
I00
S'http://www.web2py.com/book/default/chapter/06'
p4480
tp4481
a(g4038
(S's\x14\x00\x00\x00Forms and Validators'
tRp4482
I00
S'http://www.web2py.com/book/default/chapter/07'
p4483
tp4484
a(g4038
(S's\r\x00\x00\x00Email and SMS'
tRp4485
I00
S'http://www.web2py.com/book/default/chapter/08'
p4486
tp4487
a(g4038
(S's\x0e\x00\x00\x00Access Control'
tRp4488
I00
S'http://www.web2py.com/book/default/chapter/09'
p4489
tp4490
a(g4038
(S's\x08\x00\x00\x00Services'
tRp4491
I00
S'http://www.web2py.com/book/default/chapter/10'
p4492
tp4493
a(g4038
(S's\x0c\x00\x00\x00Ajax Recipes'
tRp4494
I00
S'http://www.web2py.com/book/default/chapter/11'
p4495
tp4496
a(g4038
(S's\x16\x00\x00\x00Components and Plugins'
tRp4497
I00
S'http://www.web2py.com/book/default/chapter/12'
p4498
tp4499
a(g4038
(S's\x12\x00\x00\x00Deployment Recipes'
tRp4500
I00
S'http://www.web2py.com/book/default/chapter/13'
p4501
tp4502
a(g4038
(S's\r\x00\x00\x00Other Recipes'
tRp4503
I00
S'http://www.web2py.com/book/default/chapter/14'
p4504
tp4505
a(g4038
(S's\r\x00\x00\x00Buy this book'
tRp4506
I00
S'http://stores.lulu.com/web2py'
p4507
tp4508
aasbasbasbasbasbasbasbag49
(g65
g51
NtRp4509
(dp4510
g54
(dp4511
sg63
g4151
sg56
(lp4512
g49
(g70
g51
NtRp4513
(dp4514
g54
(dp4515
sg63
g4509
sg56
(lp4516
g49
(g50
g51
NtRp4517
(dp4518
g54
(dp4519
g62
I2
ssg63
g4513
sg56
(lp4520
g49
(g58
g51
NtRp4521
(dp4522
g54
(dp4523
g62
I1
ssg63
Nsg56
(lp4524
g49
(g65
g51
NtRp4525
(dp4526
g54
(dp4527
sg63
g4521
sg56
(lp4528
g49
(g70
g51
NtRp4529
(dp4530
g54
(dp4531
sg63
g4525
sg56
(lp4532
g49
(g50
g51
NtRp4533
(dp4534
g54
(dp4535
g62
I1
ssg63
g4529
sg56
(lp4536
g4038
(S's\t\x00\x00\x00Community'
tRp4537
asbasbasbag49
(g65
g51
NtRp4538
(dp4539
g54
(dp4540
sg63
g4521
sg56
(lp4541
g49
(g70
g51
NtRp4542
(dp4543
g54
(dp4544
sg63
g4538
sg56
(lp4545
g49
(g50
g51
NtRp4546
(dp4547
g54
(dp4548
g62
I1
ssg63
g4542
sg56
(lp4549
I00
asbasbasbag49
(g65
g51
NtRp4550
(dp4551
g54
(dp4552
sg63
g4521
sg56
(lp4553
g49
(g70
g51
NtRp4554
(dp4555
g54
(dp4556
sg63
g4550
sg56
(lp4557
g49
(g50
g51
NtRp4558
(dp4559
g54
(dp4560
g62
I1
ssg63
g4554
sg56
(lp4561
Nasbasbasbag49
(g65
g51
NtRp4562
(dp4563
g54
(dp4564
sg63
g4521
sg56
(lp4565
g49
(g70
g51
NtRp4566
(dp4567
g54
(dp4568
sg63
g4562
sg56
(lp4569
g49
(g50
g51
NtRp4570
(dp4571
g54
(dp4572
g62
I1
ssg63
g4566
sg56
(lp4573
(lp4574
(g4038
(S's\x06\x00\x00\x00Groups'
tRp4575
I00
S'http://www.web2py.com/examples/default/usergroups'
p4576
tp4577
a(g4038
(S's\x07\x00\x00\x00Twitter'
tRp4578
I00
S'http://twitter.com/web2py'
p4579
tp4580
a(g4038
(S's\t\x00\x00\x00Live Chat'
tRp4581
I00
S'http://webchat.freenode.net/?channels=web2py'
p4582
tp4583
aasbasbasbasbasbasbasbag49
(g65
g51
NtRp4584
(dp4585
g54
(dp4586
sg63
g4151
sg56
(lp4587
g49
(g70
g51
NtRp4588
(dp4589
g54
(dp4590
sg63
g4584
sg56
(lp4591
g49
(g50
g51
NtRp4592
(dp4593
g54
(dp4594
g62
I2
ssg63
g4588
sg56
(lp4595
g49
(g58
g51
NtRp4596
(dp4597
g54
(dp4598
g62
I1
ssg63
Nsg56
(lp4599
g49
(g65
g51
NtRp4600
(dp4601
g54
(dp4602
sg63
g4596
sg56
(lp4603
g49
(g70
g51
NtRp4604
(dp4605
g54
(dp4606
sg63
g4600
sg56
(lp4607
g49
(g50
g51
NtRp4608
(dp4609
g54
(dp4610
g62
I1
ssg63
g4604
sg56
(lp4611
g4038
(S's\x07\x00\x00\x00Plugins'
tRp4612
asbasbasbag49
(g65
g51
NtRp4613
(dp4614
g54
(dp4615
sg63
g4596
sg56
(lp4616
g49
(g70
g51
NtRp4617
(dp4618
g54
(dp4619
sg63
g4613
sg56
(lp4620
g49
(g50
g51
NtRp4621
(dp4622
g54
(dp4623
g62
I1
ssg63
g4617
sg56
(lp4624
I00
asbasbasbag49
(g65
g51
NtRp4625
(dp4626
g54
(dp4627
sg63
g4596
sg56
(lp4628
g49
(g70
g51
NtRp4629
(dp4630
g54
(dp4631
sg63
g4625
sg56
(lp4632
g49
(g50
g51
NtRp4633
(dp4634
g54
(dp4635
g62
I1
ssg63
g4629
sg56
(lp4636
Nasbasbasbag49
(g65
g51
NtRp4637
(dp4638
g54
(dp4639
sg63
g4596
sg56
(lp4640
g49
(g70
g51
NtRp4641
(dp4642
g54
(dp4643
sg63
g4637
sg56
(lp4644
g49
(g50
g51
NtRp4645
(dp4646
g54
(dp4647
g62
I1
ssg63
g4641
sg56
(lp4648
(lp4649
(S'plugin_wiki'
p4650
I00
S'http://web2py.com/examples/default/download'
p4651
tp4652
a(g4038
(S's\r\x00\x00\x00Other Plugins'
tRp4653
I00
g4383
tp4654
a(g4038
(S's\x0e\x00\x00\x00Layout Plugins'
tRp4655
I00
g4386
tp4656
aasbasbasbasbasbasbasbasbasbasbasbasbasbasbasbasbasbasbasbag49
(g65
g51
NtRp4657
(dp4658
g54
(dp4659
sg63
g3501
sg56
(lp4660
g49
(g70
g51
NtRp4661
(dp4662
g54
(dp4663
g74
g75
ssg63
g4657
sg56
(lp4664
S'meta'
p4665
asbag49
(g70
g51
NtRp4666
(dp4667
g54
(dp4668
g81
g82
ssg63
g4657
sg56
(lp4669
S':'
asbag49
(g70
g51
NtRp4670
(dp4671
g54
(dp4672
sg63
g4657
sg56
(lp4673
g49
(g50
g51
NtRp4674
(dp4675
g54
(dp4676
g62
I5
ssg63
g4670
sg56
(lp4677
g49
(g58
g51
NtRp4678
(dp4679
g54
(dp4680
g62
I4
ssg63
Nsg56
(lp4681
g49
(g65
g51
NtRp4682
(dp4683
g54
(dp4684
sg63
g4678
sg56
(lp4685
g49
(g70
g51
NtRp4686
(dp4687
g54
(dp4688
g74
g75
ssg63
g4682
sg56
(lp4689
S'author'
p4690
asbag49
(g70
g51
NtRp4691
(dp4692
g54
(dp4693
g81
g82
ssg63
g4682
sg56
(lp4694
S':'
asbag49
(g70
g51
NtRp4695
(dp4696
g54
(dp4697
sg63
g4682
sg56
(lp4698
g49
(g50
g51
NtRp4699
(dp4700
g54
(dp4701
g62
I4
ssg63
g4695
sg56
(lp4702
S'Your Name <you@example.com>'
p4703
asbasbasbag49
(g65
g51
NtRp4704
(dp4705
g54
(dp4706
sg63
g4678
sg56
(lp4707
g49
(g70
g51
NtRp4708
(dp4709
g54
(dp4710
g74
g75
ssg63
g4704
sg56
(lp4711
S'copyright'
p4712
asbag49
(g70
g51
NtRp4713
(dp4714
g54
(dp4715
g81
g82
ssg63
g4704
sg56
(lp4716
S':'
asbag49
(g70
g51
NtRp4717
(dp4718
g54
(dp4719
sg63
g4704
sg56
(lp4720
g49
(g50
g51
NtRp4721
(dp4722
g54
(dp4723
g62
I4
ssg63
g4717
sg56
(lp4724
S'Copyright 2011'
p4725
asbasbasbag49
(g65
g51
NtRp4726
(dp4727
g54
(dp4728
sg63
g4678
sg56
(lp4729
g49
(g70
g51
NtRp4730
(dp4731
g54
(dp4732
g74
g75
ssg63
g4726
sg56
(lp4733
S'description'
p4734
asbag49
(g70
g51
NtRp4735
(dp4736
g54
(dp4737
g81
g82
ssg63
g4726
sg56
(lp4738
S':'
asbag49
(g70
g51
NtRp4739
(dp4740
g54
(dp4741
sg63
g4726
sg56
(lp4742
g49
(g50
g51
NtRp4743
(dp4744
g54
(dp4745
g62
I4
ssg63
g4739
sg56
(lp4746
S'a cool new app'
p4747
asbasbasbag49
(g65
g51
NtRp4748
(dp4749
g54
(dp4750
sg63
g4678
sg56
(lp4751
g49
(g70
g51
NtRp4752
(dp4753
g54
(dp4754
g74
g75
ssg63
g4748
sg56
(lp4755
S'generator'
p4756
asbag49
(g70
g51
NtRp4757
(dp4758
g54
(dp4759
g81
g82
ssg63
g4748
sg56
(lp4760
S':'
asbag49
(g70
g51
NtRp4761
(dp4762
g54
(dp4763
sg63
g4748
sg56
(lp4764
g49
(g50
g51
NtRp4765
(dp4766
g54
(dp4767
g62
I4
ssg63
g4761
sg56
(lp4768
S'Web2py Web Framework'
p4769
asbasbasbag49
(g65
g51
NtRp4770
(dp4771
g54
(dp4772
sg63
g4678
sg56
(lp4773
g49
(g70
g51
NtRp4774
(dp4775
g54
(dp4776
g74
g75
ssg63
g4770
sg56
(lp4777
S'keywords'
p4778
asbag49
(g70
g51
NtRp4779
(dp4780
g54
(dp4781
g81
g82
ssg63
g4770
sg56
(lp4782
S':'
asbag49
(g70
g51
NtRp4783
(dp4784
g54
(dp4785
sg63
g4770
sg56
(lp4786
g49
(g50
g51
NtRp4787
(dp4788
g54
(dp4789
g62
I4
ssg63
g4783
sg56
(lp4790
S'web2py, python, framework'
p4791
asbasbasbasbasbasbasbag49
(g65
g51
NtRp4792
(dp4793
g54
(dp4794
sg63
g3501
sg56
(lp4795
g49
(g70
g51
NtRp4796
(dp4797
g54
(dp4798
g74
g75
ssg63
g4792
sg56
(lp4799
S'postprocessing'
p4800
asbag49
(g70
g51
NtRp4801
(dp4802
g54
(dp4803
g81
g82
ssg63
g4792
sg56
(lp4804
S':'
asbag49
(g70
g51
NtRp4805
(dp4806
g54
(dp4807
sg63
g4792
sg56
(lp4808
g49
(g50
g51
NtRp4809
(dp4810
g54
(dp4811
g62
I5
ssg63
g4805
sg56
(lp4812
g49
(g58
g51
NtRp4813
(dp4814
g54
(dp4815
g62
I4
ssg63
Nsg56
(lp4816
sbasbasbasbag49
(g65
g51
NtRp4817
(dp4818
g54
(dp4819
sg63
g3501
sg56
(lp4820
g49
(g70
g51
NtRp4821
(dp4822
g54
(dp4823
g74
g75
ssg63
g4817
sg56
(lp4824
S'session_file'
p4825
asbag49
(g70
g51
NtRp4826
(dp4827
g54
(dp4828
g81
g82
ssg63
g4817
sg56
(lp4829
S':'
asbag49
(g70
g51
NtRp4830
(dp4831
g54
(dp4832
sg63
g4817
sg56
(lp4833
g49
(g50
g51
NtRp4834
(dp4835
g54
(dp4836
g62
I5
ssg63
g4830
sg56
(lp4837
S"<open file '/Users/udimilo/Documents/web2py/applications/udi0312/sessions/127.0.0.1-fcd6a577-d448-4882-b7bc-f353da84ba3b', mode 'rb+' at 0xa246188>"
p4838
asbasbasbag49
(g65
g51
NtRp4839
(dp4840
g54
(dp4841
sg63
g3501
sg56
(lp4842
g49
(g70
g51
NtRp4843
(dp4844
g54
(dp4845
g74
g75
ssg63
g4839
sg56
(lp4846
S'session_filename'
p4847
asbag49
(g70
g51
NtRp4848
(dp4849
g54
(dp4850
g81
g82
ssg63
g4839
sg56
(lp4851
S':'
asbag49
(g70
g51
NtRp4852
(dp4853
g54
(dp4854
sg63
g4839
sg56
(lp4855
g49
(g50
g51
NtRp4856
(dp4857
g54
(dp4858
g62
I5
ssg63
g4852
sg56
(lp4859
S'/Users/udimilo/Documents/web2py/applications/udi0312/sessions/127.0.0.1-fcd6a577-d448-4882-b7bc-f353da84ba3b'
p4860
asbasbasbag49
(g65
g51
NtRp4861
(dp4862
g54
(dp4863
sg63
g3501
sg56
(lp4864
g49
(g70
g51
NtRp4865
(dp4866
g54
(dp4867
g74
g75
ssg63
g4861
sg56
(lp4868
S'session_id'
p4869
asbag49
(g70
g51
NtRp4870
(dp4871
g54
(dp4872
g81
g82
ssg63
g4861
sg56
(lp4873
S':'
asbag49
(g70
g51
NtRp4874
(dp4875
g54
(dp4876
sg63
g4861
sg56
(lp4877
g49
(g50
g51
NtRp4878
(dp4879
g54
(dp4880
g62
I5
ssg63
g4874
sg56
(lp4881
S'127.0.0.1-fcd6a577-d448-4882-b7bc-f353da84ba3b'
p4882
asbasbasbag49
(g65
g51
NtRp4883
(dp4884
g54
(dp4885
sg63
g3501
sg56
(lp4886
g49
(g70
g51
NtRp4887
(dp4888
g54
(dp4889
g74
g75
ssg63
g4883
sg56
(lp4890
S'session_id_name'
p4891
asbag49
(g70
g51
NtRp4892
(dp4893
g54
(dp4894
g81
g82
ssg63
g4883
sg56
(lp4895
S':'
asbag49
(g70
g51
NtRp4896
(dp4897
g54
(dp4898
sg63
g4883
sg56
(lp4899
g49
(g50
g51
NtRp4900
(dp4901
g54
(dp4902
g62
I5
ssg63
g4896
sg56
(lp4903
g3558
asbasbasbag49
(g65
g51
NtRp4904
(dp4905
g54
(dp4906
sg63
g3501
sg56
(lp4907
g49
(g70
g51
NtRp4908
(dp4909
g54
(dp4910
g74
g75
ssg63
g4904
sg56
(lp4911
S'session_locked'
p4912
asbag49
(g70
g51
NtRp4913
(dp4914
g54
(dp4915
g81
g82
ssg63
g4904
sg56
(lp4916
S':'
asbag49
(g70
g51
NtRp4917
(dp4918
g54
(dp4919
sg63
g4904
sg56
(lp4920
g49
(g50
g51
NtRp4921
(dp4922
g54
(dp4923
g62
I5
ssg63
g4917
sg56
(lp4924
g1478
asbasbasbag49
(g65
g51
NtRp4925
(dp4926
g54
(dp4927
sg63
g3501
sg56
(lp4928
g49
(g70
g51
NtRp4929
(dp4930
g54
(dp4931
g74
g75
ssg63
g4925
sg56
(lp4932
S'session_new'
p4933
asbag49
(g70
g51
NtRp4934
(dp4935
g54
(dp4936
g81
g82
ssg63
g4925
sg56
(lp4937
S':'
asbag49
(g70
g51
NtRp4938
(dp4939
g54
(dp4940
sg63
g4925
sg56
(lp4941
g49
(g50
g51
NtRp4942
(dp4943
g54
(dp4944
g62
I5
ssg63
g4938
sg56
(lp4945
g92
asbasbasbag49
(g65
g51
NtRp4946
(dp4947
g54
(dp4948
sg63
g3501
sg56
(lp4949
g49
(g70
g51
NtRp4950
(dp4951
g54
(dp4952
g74
g75
ssg63
g4946
sg56
(lp4953
S'status'
p4954
asbag49
(g70
g51
NtRp4955
(dp4956
g54
(dp4957
g81
g82
ssg63
g4946
sg56
(lp4958
S':'
asbag49
(g70
g51
NtRp4959
(dp4960
g54
(dp4961
sg63
g4946
sg56
(lp4962
g49
(g50
g51
NtRp4963
(dp4964
g54
(dp4965
g62
I5
ssg63
g4959
sg56
(lp4966
S'200'
p4967
asbasbasbag49
(g65
g51
NtRp4968
(dp4969
g54
(dp4970
sg63
g3501
sg56
(lp4971
g49
(g70
g51
NtRp4972
(dp4973
g54
(dp4974
g74
g75
ssg63
g4968
sg56
(lp4975
S'subtitle'
p4976
asbag49
(g70
g51
NtRp4977
(dp4978
g54
(dp4979
g81
g82
ssg63
g4968
sg56
(lp4980
S':'
asbag49
(g70
g51
NtRp4981
(dp4982
g54
(dp4983
sg63
g4968
sg56
(lp4984
g49
(g50
g51
NtRp4985
(dp4986
g54
(dp4987
g62
I5
ssg63
g4981
sg56
(lp4988
g4038
(S's\r\x00\x00\x00customize me!'
tRp4989
asbasbasbag49
(g65
g51
NtRp4990
(dp4991
g54
(dp4992
sg63
g3501
sg56
(lp4993
g49
(g70
g51
NtRp4994
(dp4995
g54
(dp4996
g74
g75
ssg63
g4990
sg56
(lp4997
S'title'
p4998
asbag49
(g70
g51
NtRp4999
(dp5000
g54
(dp5001
g81
g82
ssg63
g4990
sg56
(lp5002
S':'
asbag49
(g70
g51
NtRp5003
(dp5004
g54
(dp5005
sg63
g4990
sg56
(lp5006
g49
(g50
g51
NtRp5007
(dp5008
g54
(dp5009
g62
I5
ssg63
g5003
sg56
(lp5010
S'Udi0312'
p5011
asbasbasbag49
(g65
g51
NtRp5012
(dp5013
g54
(dp5014
sg63
g3501
sg56
(lp5015
g49
(g70
g51
NtRp5016
(dp5017
g54
(dp5018
g74
g75
ssg63
g5012
sg56
(lp5019
g2142
asbag49
(g70
g51
NtRp5020
(dp5021
g54
(dp5022
g81
g82
ssg63
g5012
sg56
(lp5023
S':'
asbag49
(g70
g51
NtRp5024
(dp5025
g54
(dp5026
sg63
g5012
sg56
(lp5027
g49
(g50
g51
NtRp5028
(dp5029
g54
(dp5030
g62
I5
ssg63
g5024
sg56
(lp5031
g2155
asbasbasbag49
(g65
g51
NtRp5032
(dp5033
g54
(dp5034
sg63
g3501
sg56
(lp5035
g49
(g70
g51
NtRp5036
(dp5037
g54
(dp5038
g74
g75
ssg63
g5032
sg56
(lp5039
S'view'
p5040
asbag49
(g70
g51
NtRp5041
(dp5042
g54
(dp5043
g81
g82
ssg63
g5032
sg56
(lp5044
S':'
asbag49
(g70
g51
NtRp5045
(dp5046
g54
(dp5047
sg63
g5032
sg56
(lp5048
g49
(g50
g51
NtRp5049
(dp5050
g54
(dp5051
g62
I5
ssg63
g5045
sg56
(lp5052
S'default/boards.html'
p5053
asbasbasbasbasbsS'locals'
p5054
(dp5055
S'self'
p5056
S'<gluon.dal.SQLiteAdapter object at 0xa218b10>'
p5057
sS'r'
S'None'
p5058
sS'obj'
p5059
S"'xxx'"
p5060
sS'fieldtype'
p5061
S"'id'"
p5062
sssS'traceback'
p5063
S'Traceback (most recent call last):\n  File "/users/udimilo/Documents/web2py/gluon/restricted.py", line 205, in restricted\n    exec ccode in environment\n  File "/Users/udimilo/Documents/web2py/applications/udi0312/controllers/default.py", line 133, in <module>\n  File "/users/udimilo/Documents/web2py/gluon/globals.py", line 173, in <lambda>\n    self._caller = lambda f: f()\n  File "/Users/udimilo/Documents/web2py/applications/udi0312/controllers/default.py", line 78, in boards\n    board = db(db.board.id == id).select().first()\n  File "/users/udimilo/Documents/web2py/gluon/dal.py", line 7578, in select\n    return adapter.select(self.query,fields,attributes)\n  File "/users/udimilo/Documents/web2py/gluon/dal.py", line 1307, in select\n    sql = self._select(query, fields, attributes)\n  File "/users/udimilo/Documents/web2py/gluon/dal.py", line 1756, in _select\n    sql = super(SQLiteAdapter, self)._select(query, fields, attributes)\n  File "/users/udimilo/Documents/web2py/gluon/dal.py", line 1200, in _select\n    sql_w = \' WHERE \' + self.expand(query)\n  File "/users/udimilo/Documents/web2py/gluon/dal.py", line 1046, in expand\n    return expression.op(expression.first, expression.second)\n  File "/users/udimilo/Documents/web2py/gluon/dal.py", line 987, in EQ\n    return \'(%s = %s)\' % (self.expand(first), self.expand(second, first.type))\n  File "/users/udimilo/Documents/web2py/gluon/dal.py", line 1054, in expand\n    return str(self.represent(expression,field_type))\n  File "/users/udimilo/Documents/web2py/gluon/dal.py", line 1425, in represent\n    return str(int(obj))\nValueError: invalid literal for int() with base 10: \'xxx\'\n'
p5064
s.