(dp1
S'output'
p2
S"<type 'exceptions.TypeError'> sequence item 0: expected string, NoneType found"
p3
sS'layer'
p4
S'/Users/udimilo/Documents/web2py/applications/udi0312/controllers/default.py'
p5
sS'code'
p6
S'# -*- coding: utf-8 -*-\nimport feedparser\nimport urlparse\nimport re\n\n##\n## private functions\n##\n@cache(\'categories.all\', 600)\ndef get_all_categories():\n    return db().select(db.category.ALL, orderby=db.category.name)\n\ndef populate_pins(pins):\n    dic_pins = {}        \n    for p in pins:\n        dic_pins[p.id] = p\n    original_ids = set(map(lambda p: p.original_pin, pins))\n    if len(original_ids) > 0:\n        return ", ".join(original_ids)\n        query = \'\'\n        for id in original_ids:\n             if id is not None:\n                 query += \'db(db.pin.id==%d).select()|\' %id\n        if len(query) > 0:\n            query = query[:-1]\n        original_pins = eval(query)    \n        for p in original_pins:\n            dic_pins[p.id] = p    \n\n    board_ids = set(map(lambda p: p.board, pins))\n    query = \'\'\n    for id in board_ids:\n        query += \'db(db.board.id==%d).select()|\' %id\n    query = query[:-1]\n    boards = eval(query)\n    dic_boards = {}\n    for b in boards:\n        dic_boards[b.id] = b\n        \n    user_ids = set(map(lambda b: b.user, boards))\n    query = \'\'\n    for id in user_ids:\n        query += \'db(db.auth_user.id==%d).select()|\' %id\n    query = query[:-1]\n    users = eval(query)     \n    dic_users = {}\n    for u in users:\n        dic_users[u.id] = u\n        \n    article_ids = list(set(map(lambda p: p.article, pins)))\n    query = \'\'\n    for id in article_ids:\n        query += \'db(db.article.id==%d).select()|\' %id\n    query = query[:-1]\n    articles = eval(query)     \n    dic_articles = {}\n    for a in articles:\n        dic_articles[a.id] = a\n        \n    result = {}\n    result[\'pins\'] = dic_pins\n    result[\'boards\'] = dic_boards\n    result[\'users\'] = dic_users\n    result[\'articles\'] = dic_articles\n    \n    return result\n\ndef get_pins(users):\n    if users is None:\n        return []\n\n    user_ids = set(map(lambda u: u.id, users))\n    query = \'\'\n    for id in user_ids:\n        query += \'db(db.board.user==%d).select()|\' %id\n    query = query[:-1]\n    boards = eval(query)\n\n    query = \'\'\n    for b in boards:\n        query += \'db(db.pin.board==%d).select()|\' %b.id\n    query = query[:-1]\n    pins = eval(query)\n\n    return populate_pins(pins)\n\ndef get_all_pins():\n    pins = db().select(db.pin.ALL, orderby=~db.pin.created_on)\n    return populate_pins(pins)\n\n##\n## public functions\n##\ndef index():\n    categories = get_all_categories() if auth.user else []\n    boards = db(db.board.user==auth.user.id).select() if auth.user else []\n\n    if auth.user is None:\n        result = get_all_pins()\n    else:\n        result = get_pins([auth.user])\n        rels = db(db.user_user.follower == auth.user.id).select()\n        \n        \n        #for r in rels:\n        #    pins.extend(get_pins(r.followee))\n        #pins.sort(key=lambda x: x.created_on, reverse=True)\n        \n    return dict(show_pinner=True, categories=categories, boards=boards, result=result)\n\n@cache(\'/all\',60)\ndef all():\n    categories = get_all_categories() if auth.user else []\n    boards = db(db.board.user==auth.user.id).select() if auth.user else []\n    result = get_all_pins()\n    \n    for b in boards:\n        results.boards[b.id] = b\n\n    return dict(show_pinner=True, categories=categories, result=result)\n    \ndef users():\n    ##if empty "/users" return to main\n    if len(request.args)==0:\n       redirect(URL(\'index\'))\n\n    id = request.args[0]\n    user = db.auth_user(id) or redirect(URL(\'index\'))    \n\n    if request.args(1):\n        action = request.args(1).lower()\n        if action == \'follow\':\n            rel = db((db.user_user.follower == auth.user.id) & (db.user_user.followee == user.id)).select().first()        \n            if rel is None:\n                rel = db.user_user.insert(follower = auth.user.id, followee = user.id)\n            redirect(URL(\'users\', args=[id]))\n        else:\n            if action == \'unfollow\':\n                rel = db((db.user_user.follower == auth.user.id) & (db.user_user.followee == user.id)).select().first()        \n                if rel is not None:\n                    db(db.user_user.id == rel.id).delete()\n                redirect(URL(\'users\', args=[id]))\n            else:\n                #show board\n                board_id = action\n                board = db.board(board_id) or redirect(URL(\'users\',user_id))\n                pins = db(db.pin.board == board.id).select()\n                return len(pins)\n                                \n    #get the user pins\n    boards = user.board.select()\n    pins = []\n    for board in boards:\n        pins.extend(board.pin.select())\n    \n    #update the follow button\n    rel = db((db.user_user.follower == auth.user.id) & (db.user_user.followee == user.id)).select().first() if auth.user else None\n    if rel is None:\n        action = \'follow\'\n    else:\n        action = \'unfollow\'\n        \n    return dict(user=user,pins=pins, boards=[], show_pinner=False, action=action)\n\ndef boards():\n    ##if empty "/boards" return to main\n    if len(request.args)==0:\n       redirect(URL(\'index\'))\n    \n    id = request.args(0)\n    board = db.board(id) or redirect(URL(\'index\'))    \n    pins = board.pin.select()\n    \n    return dict(board=board, pins=pins, boards=[], show_pinner=False)\n\n##\n## default functions\n##\ndef user():\n    """\n    exposes:\n    http://..../[app]/default/user/login\n    http://..../[app]/default/user/logout\n    http://..../[app]/default/user/register\n    http://..../[app]/default/user/profile\n    http://..../[app]/default/user/retrieve_password\n    http://..../[app]/default/user/change_password\n    use @auth.requires_login()\n        @auth.requires_membership(\'group name\')\n        @auth.requires_permission(\'read\',\'table name\',record_id)\n    to decorate functions that need access control\n    """\n    return dict(form=auth(), boards=[])\n\ndef download():\n    """\n    allows downloading of uploaded files\n    http://..../[app]/default/download/[filename]\n    """\n    return response.download(request,db)\n\n\ndef call():\n    """\n    exposes services. for example:\n    http://..../[app]/default/call/jsonrpc\n    decorate with @services.jsonrpc the functions to expose\n    supports xml, json, xmlrpc, jsonrpc, amfrpc, rss, csv\n    """\n    return service()\n\n\n@auth.requires_signature()\ndef data():\n    """\n    http://..../[app]/default/data/tables\n    http://..../[app]/default/data/create/[table]\n    http://..../[app]/default/data/read/[table]/[id]\n    http://..../[app]/default/data/update/[table]/[id]\n    http://..../[app]/default/data/delete/[table]/[id]\n    http://..../[app]/default/data/select/[table]\n    http://..../[app]/default/data/search/[table]\n    but URLs must be signed, i.e. linked with\n      A(\'table\',_href=URL(\'data/tables\',user_signature=True))\n    or with the signed load operator\n      LOAD(\'default\',\'data.load\',args=\'tables\',ajax=True,user_signature=True)\n    """\n    return dict(form=crud())\n\nresponse._vars=response._caller(index)\n'
p7
sS'snapshot'
p8
(dp9
S'exception'
p10
(dp11
S'__hash__'
p12
S"<method-wrapper '__hash__' of exceptions.TypeError object at 0x9f6e530>"
p13
sS'__setattr__'
p14
S"<method-wrapper '__setattr__' of exceptions.TypeError object at 0x9f6e530>"
p15
sS'__reduce_ex__'
p16
S'<built-in method __reduce_ex__ of exceptions.TypeError object at 0x9f6e530>'
p17
sS'__getslice__'
p18
S"<method-wrapper '__getslice__' of exceptions.TypeError object at 0x9f6e530>"
p19
sS'__getitem__'
p20
S"<method-wrapper '__getitem__' of exceptions.TypeError object at 0x9f6e530>"
p21
sS'__setstate__'
p22
S'<built-in method __setstate__ of exceptions.TypeError object at 0x9f6e530>'
p23
sS'__reduce__'
p24
S'<built-in method __reduce__ of exceptions.TypeError object at 0x9f6e530>'
p25
sS'__str__'
p26
S"<method-wrapper '__str__' of exceptions.TypeError object at 0x9f6e530>"
p27
sS'args'
p28
S"('sequence item 0: expected string, NoneType found',)"
p29
sS'__getattribute__'
p30
S"<method-wrapper '__getattribute__' of exceptions.TypeError object at 0x9f6e530>"
p31
sS'__class__'
p32
S"<type 'exceptions.TypeError'>"
p33
sS'__delattr__'
p34
S"<method-wrapper '__delattr__' of exceptions.TypeError object at 0x9f6e530>"
p35
sS'__repr__'
p36
S"<method-wrapper '__repr__' of exceptions.TypeError object at 0x9f6e530>"
p37
sS'__dict__'
p38
S'{}'
p39
sS'__doc__'
p40
S"'Inappropriate argument type.'"
p41
sS'__init__'
p42
S"<method-wrapper '__init__' of exceptions.TypeError object at 0x9f6e530>"
p43
sS'__new__'
p44
S'<built-in method __new__ of type object at 0x101140>'
p45
ssS'evalue'
p46
S'sequence item 0: expected string, NoneType found'
p47
sS'request'
p48
ccopy_reg
_reconstructor
p49
(cgluon.html
BEAUTIFY
p50
c__builtin__
object
p51
NtRp52
(dp53
S'attributes'
p54
(dp55
sS'components'
p56
(lp57
g49
(cgluon.html
TABLE
p58
g51
NtRp59
(dp60
g54
(dp61
S'level'
p62
I5
ssS'parent'
p63
Nsg56
(lp64
g49
(cgluon.html
TR
p65
g51
NtRp66
(dp67
g54
(dp68
sg63
g59
sg56
(lp69
g49
(cgluon.html
TD
p70
g51
NtRp71
(dp72
g54
(dp73
S'_style'
p74
S'font-weight:bold;vertical-align:top'
p75
ssg63
g66
sg56
(lp76
S'ajax'
p77
asbag49
(g70
g51
NtRp78
(dp79
g54
(dp80
S'_valign'
p81
S'top'
p82
ssg63
g66
sg56
(lp83
S':'
asbag49
(g70
g51
NtRp84
(dp85
g54
(dp86
sg63
g66
sg56
(lp87
g49
(g50
g51
NtRp88
(dp89
g54
(dp90
g62
I5
ssg63
g84
sg56
(lp91
S'False'
p92
asbasbasbag49
(g65
g51
NtRp93
(dp94
g54
(dp95
sg63
g59
sg56
(lp96
g49
(g70
g51
NtRp97
(dp98
g54
(dp99
g74
g75
ssg63
g93
sg56
(lp100
S'application'
p101
asbag49
(g70
g51
NtRp102
(dp103
g54
(dp104
g81
g82
ssg63
g93
sg56
(lp105
S':'
asbag49
(g70
g51
NtRp106
(dp107
g54
(dp108
sg63
g93
sg56
(lp109
g49
(g50
g51
NtRp110
(dp111
g54
(dp112
g62
I5
ssg63
g106
sg56
(lp113
S'udi0312'
p114
asbasbasbag49
(g65
g51
NtRp115
(dp116
g54
(dp117
sg63
g59
sg56
(lp118
g49
(g70
g51
NtRp119
(dp120
g54
(dp121
g74
g75
ssg63
g115
sg56
(lp122
g28
asbag49
(g70
g51
NtRp123
(dp124
g54
(dp125
g81
g82
ssg63
g115
sg56
(lp126
S':'
asbag49
(g70
g51
NtRp127
(dp128
g54
(dp129
sg63
g115
sg56
(lp130
g49
(g50
g51
NtRp131
(dp132
g54
(dp133
g62
I5
ssg63
g127
sg56
(lp134
g49
(g58
g51
NtRp135
(dp136
g54
(dp137
g62
I4
ssg63
Nsg56
(lp138
sbasbasbasbag49
(g65
g51
NtRp139
(dp140
g54
(dp141
sg63
g59
sg56
(lp142
g49
(g70
g51
NtRp143
(dp144
g54
(dp145
g74
g75
ssg63
g139
sg56
(lp146
S'body'
p147
asbag49
(g70
g51
NtRp148
(dp149
g54
(dp150
g81
g82
ssg63
g139
sg56
(lp151
S':'
asbag49
(g70
g51
NtRp152
(dp153
g54
(dp154
sg63
g139
sg56
(lp155
g49
(g50
g51
NtRp156
(dp157
g54
(dp158
g62
I5
ssg63
g152
sg56
(lp159
S'<cStringIO.StringO object at 0xa249b20>'
p160
asbasbasbag49
(g65
g51
NtRp161
(dp162
g54
(dp163
sg63
g59
sg56
(lp164
g49
(g70
g51
NtRp165
(dp166
g54
(dp167
g74
g75
ssg63
g161
sg56
(lp168
S'client'
p169
asbag49
(g70
g51
NtRp170
(dp171
g54
(dp172
g81
g82
ssg63
g161
sg56
(lp173
S':'
asbag49
(g70
g51
NtRp174
(dp175
g54
(dp176
sg63
g161
sg56
(lp177
g49
(g50
g51
NtRp178
(dp179
g54
(dp180
g62
I5
ssg63
g174
sg56
(lp181
S'127.0.0.1'
p182
asbasbasbag49
(g65
g51
NtRp183
(dp184
g54
(dp185
sg63
g59
sg56
(lp186
g49
(g70
g51
NtRp187
(dp188
g54
(dp189
g74
g75
ssg63
g183
sg56
(lp190
S'controller'
p191
asbag49
(g70
g51
NtRp192
(dp193
g54
(dp194
g81
g82
ssg63
g183
sg56
(lp195
S':'
asbag49
(g70
g51
NtRp196
(dp197
g54
(dp198
sg63
g183
sg56
(lp199
g49
(g50
g51
NtRp200
(dp201
g54
(dp202
g62
I5
ssg63
g196
sg56
(lp203
S'default'
p204
asbasbasbag49
(g65
g51
NtRp205
(dp206
g54
(dp207
sg63
g59
sg56
(lp208
g49
(g70
g51
NtRp209
(dp210
g54
(dp211
g74
g75
ssg63
g205
sg56
(lp212
S'cookies'
p213
asbag49
(g70
g51
NtRp214
(dp215
g54
(dp216
g81
g82
ssg63
g205
sg56
(lp217
S':'
asbag49
(g70
g51
NtRp218
(dp219
g54
(dp220
sg63
g205
sg56
(lp221
g49
(g50
g51
NtRp222
(dp223
g54
(dp224
g62
I5
ssg63
g218
sg56
(lp225
g49
(g58
g51
NtRp226
(dp227
g54
(dp228
g62
I4
ssg63
Nsg56
(lp229
g49
(g65
g51
NtRp230
(dp231
g54
(dp232
sg63
g226
sg56
(lp233
g49
(g70
g51
NtRp234
(dp235
g54
(dp236
g74
g75
ssg63
g230
sg56
(lp237
S'session_id_admin'
p238
asbag49
(g70
g51
NtRp239
(dp240
g54
(dp241
g81
g82
ssg63
g230
sg56
(lp242
S':'
asbag49
(g70
g51
NtRp243
(dp244
g54
(dp245
sg63
g230
sg56
(lp246
g49
(g50
g51
NtRp247
(dp248
g54
(dp249
g62
I4
ssg63
g243
sg56
(lp250
g49
(g58
g51
NtRp251
(dp252
g54
(dp253
g62
I3
ssg63
Nsg56
(lp254
g49
(g65
g51
NtRp255
(dp256
g54
(dp257
sg63
g251
sg56
(lp258
g49
(g70
g51
NtRp259
(dp260
g54
(dp261
g74
g75
ssg63
g255
sg56
(lp262
S'comment'
p263
asbag49
(g70
g51
NtRp264
(dp265
g54
(dp266
g81
g82
ssg63
g255
sg56
(lp267
S':'
asbag49
(g70
g51
NtRp268
(dp269
g54
(dp270
sg63
g255
sg56
(lp271
g49
(g50
g51
NtRp272
(dp273
g54
(dp274
g62
I3
ssg63
g268
sg56
(lp275
S''
asbasbasbag49
(g65
g51
NtRp276
(dp277
g54
(dp278
sg63
g251
sg56
(lp279
g49
(g70
g51
NtRp280
(dp281
g54
(dp282
g74
g75
ssg63
g276
sg56
(lp283
S'domain'
p284
asbag49
(g70
g51
NtRp285
(dp286
g54
(dp287
g81
g82
ssg63
g276
sg56
(lp288
S':'
asbag49
(g70
g51
NtRp289
(dp290
g54
(dp291
sg63
g276
sg56
(lp292
g49
(g50
g51
NtRp293
(dp294
g54
(dp295
g62
I3
ssg63
g289
sg56
(lp296
S''
asbasbasbag49
(g65
g51
NtRp297
(dp298
g54
(dp299
sg63
g251
sg56
(lp300
g49
(g70
g51
NtRp301
(dp302
g54
(dp303
g74
g75
ssg63
g297
sg56
(lp304
S'expires'
p305
asbag49
(g70
g51
NtRp306
(dp307
g54
(dp308
g81
g82
ssg63
g297
sg56
(lp309
S':'
asbag49
(g70
g51
NtRp310
(dp311
g54
(dp312
sg63
g297
sg56
(lp313
g49
(g50
g51
NtRp314
(dp315
g54
(dp316
g62
I3
ssg63
g310
sg56
(lp317
S''
asbasbasbag49
(g65
g51
NtRp318
(dp319
g54
(dp320
sg63
g251
sg56
(lp321
g49
(g70
g51
NtRp322
(dp323
g54
(dp324
g74
g75
ssg63
g318
sg56
(lp325
S'max-age'
p326
asbag49
(g70
g51
NtRp327
(dp328
g54
(dp329
g81
g82
ssg63
g318
sg56
(lp330
S':'
asbag49
(g70
g51
NtRp331
(dp332
g54
(dp333
sg63
g318
sg56
(lp334
g49
(g50
g51
NtRp335
(dp336
g54
(dp337
g62
I3
ssg63
g331
sg56
(lp338
S''
asbasbasbag49
(g65
g51
NtRp339
(dp340
g54
(dp341
sg63
g251
sg56
(lp342
g49
(g70
g51
NtRp343
(dp344
g54
(dp345
g74
g75
ssg63
g339
sg56
(lp346
S'path'
p347
asbag49
(g70
g51
NtRp348
(dp349
g54
(dp350
g81
g82
ssg63
g339
sg56
(lp351
S':'
asbag49
(g70
g51
NtRp352
(dp353
g54
(dp354
sg63
g339
sg56
(lp355
g49
(g50
g51
NtRp356
(dp357
g54
(dp358
g62
I3
ssg63
g352
sg56
(lp359
S''
asbasbasbag49
(g65
g51
NtRp360
(dp361
g54
(dp362
sg63
g251
sg56
(lp363
g49
(g70
g51
NtRp364
(dp365
g54
(dp366
g74
g75
ssg63
g360
sg56
(lp367
S'secure'
p368
asbag49
(g70
g51
NtRp369
(dp370
g54
(dp371
g81
g82
ssg63
g360
sg56
(lp372
S':'
asbag49
(g70
g51
NtRp373
(dp374
g54
(dp375
sg63
g360
sg56
(lp376
g49
(g50
g51
NtRp377
(dp378
g54
(dp379
g62
I3
ssg63
g373
sg56
(lp380
S''
asbasbasbag49
(g65
g51
NtRp381
(dp382
g54
(dp383
sg63
g251
sg56
(lp384
g49
(g70
g51
NtRp385
(dp386
g54
(dp387
g74
g75
ssg63
g381
sg56
(lp388
S'version'
p389
asbag49
(g70
g51
NtRp390
(dp391
g54
(dp392
g81
g82
ssg63
g381
sg56
(lp393
S':'
asbag49
(g70
g51
NtRp394
(dp395
g54
(dp396
sg63
g381
sg56
(lp397
g49
(g50
g51
NtRp398
(dp399
g54
(dp400
g62
I3
ssg63
g394
sg56
(lp401
S''
asbasbasbasbasbasbasbag49
(g65
g51
NtRp402
(dp403
g54
(dp404
sg63
g226
sg56
(lp405
g49
(g70
g51
NtRp406
(dp407
g54
(dp408
g74
g75
ssg63
g402
sg56
(lp409
S'session_id_udi0312'
p410
asbag49
(g70
g51
NtRp411
(dp412
g54
(dp413
g81
g82
ssg63
g402
sg56
(lp414
S':'
asbag49
(g70
g51
NtRp415
(dp416
g54
(dp417
sg63
g402
sg56
(lp418
g49
(g50
g51
NtRp419
(dp420
g54
(dp421
g62
I4
ssg63
g415
sg56
(lp422
g49
(g58
g51
NtRp423
(dp424
g54
(dp425
g62
I3
ssg63
Nsg56
(lp426
g49
(g65
g51
NtRp427
(dp428
g54
(dp429
sg63
g423
sg56
(lp430
g49
(g70
g51
NtRp431
(dp432
g54
(dp433
g74
g75
ssg63
g427
sg56
(lp434
g263
asbag49
(g70
g51
NtRp435
(dp436
g54
(dp437
g81
g82
ssg63
g427
sg56
(lp438
S':'
asbag49
(g70
g51
NtRp439
(dp440
g54
(dp441
sg63
g427
sg56
(lp442
g49
(g50
g51
NtRp443
(dp444
g54
(dp445
g62
I3
ssg63
g439
sg56
(lp446
S''
asbasbasbag49
(g65
g51
NtRp447
(dp448
g54
(dp449
sg63
g423
sg56
(lp450
g49
(g70
g51
NtRp451
(dp452
g54
(dp453
g74
g75
ssg63
g447
sg56
(lp454
g284
asbag49
(g70
g51
NtRp455
(dp456
g54
(dp457
g81
g82
ssg63
g447
sg56
(lp458
S':'
asbag49
(g70
g51
NtRp459
(dp460
g54
(dp461
sg63
g447
sg56
(lp462
g49
(g50
g51
NtRp463
(dp464
g54
(dp465
g62
I3
ssg63
g459
sg56
(lp466
S''
asbasbasbag49
(g65
g51
NtRp467
(dp468
g54
(dp469
sg63
g423
sg56
(lp470
g49
(g70
g51
NtRp471
(dp472
g54
(dp473
g74
g75
ssg63
g467
sg56
(lp474
g305
asbag49
(g70
g51
NtRp475
(dp476
g54
(dp477
g81
g82
ssg63
g467
sg56
(lp478
S':'
asbag49
(g70
g51
NtRp479
(dp480
g54
(dp481
sg63
g467
sg56
(lp482
g49
(g50
g51
NtRp483
(dp484
g54
(dp485
g62
I3
ssg63
g479
sg56
(lp486
S''
asbasbasbag49
(g65
g51
NtRp487
(dp488
g54
(dp489
sg63
g423
sg56
(lp490
g49
(g70
g51
NtRp491
(dp492
g54
(dp493
g74
g75
ssg63
g487
sg56
(lp494
g326
asbag49
(g70
g51
NtRp495
(dp496
g54
(dp497
g81
g82
ssg63
g487
sg56
(lp498
S':'
asbag49
(g70
g51
NtRp499
(dp500
g54
(dp501
sg63
g487
sg56
(lp502
g49
(g50
g51
NtRp503
(dp504
g54
(dp505
g62
I3
ssg63
g499
sg56
(lp506
S''
asbasbasbag49
(g65
g51
NtRp507
(dp508
g54
(dp509
sg63
g423
sg56
(lp510
g49
(g70
g51
NtRp511
(dp512
g54
(dp513
g74
g75
ssg63
g507
sg56
(lp514
g347
asbag49
(g70
g51
NtRp515
(dp516
g54
(dp517
g81
g82
ssg63
g507
sg56
(lp518
S':'
asbag49
(g70
g51
NtRp519
(dp520
g54
(dp521
sg63
g507
sg56
(lp522
g49
(g50
g51
NtRp523
(dp524
g54
(dp525
g62
I3
ssg63
g519
sg56
(lp526
S''
asbasbasbag49
(g65
g51
NtRp527
(dp528
g54
(dp529
sg63
g423
sg56
(lp530
g49
(g70
g51
NtRp531
(dp532
g54
(dp533
g74
g75
ssg63
g527
sg56
(lp534
g368
asbag49
(g70
g51
NtRp535
(dp536
g54
(dp537
g81
g82
ssg63
g527
sg56
(lp538
S':'
asbag49
(g70
g51
NtRp539
(dp540
g54
(dp541
sg63
g527
sg56
(lp542
g49
(g50
g51
NtRp543
(dp544
g54
(dp545
g62
I3
ssg63
g539
sg56
(lp546
S''
asbasbasbag49
(g65
g51
NtRp547
(dp548
g54
(dp549
sg63
g423
sg56
(lp550
g49
(g70
g51
NtRp551
(dp552
g54
(dp553
g74
g75
ssg63
g547
sg56
(lp554
g389
asbag49
(g70
g51
NtRp555
(dp556
g54
(dp557
g81
g82
ssg63
g547
sg56
(lp558
S':'
asbag49
(g70
g51
NtRp559
(dp560
g54
(dp561
sg63
g547
sg56
(lp562
g49
(g50
g51
NtRp563
(dp564
g54
(dp565
g62
I3
ssg63
g559
sg56
(lp566
S''
asbasbasbasbasbasbasbasbasbasbasbag49
(g65
g51
NtRp567
(dp568
g54
(dp569
sg63
g59
sg56
(lp570
g49
(g70
g51
NtRp571
(dp572
g54
(dp573
g74
g75
ssg63
g567
sg56
(lp574
S'env'
p575
asbag49
(g70
g51
NtRp576
(dp577
g54
(dp578
g81
g82
ssg63
g567
sg56
(lp579
S':'
asbag49
(g70
g51
NtRp580
(dp581
g54
(dp582
sg63
g567
sg56
(lp583
g49
(g50
g51
NtRp584
(dp585
g54
(dp586
g62
I5
ssg63
g580
sg56
(lp587
g49
(g58
g51
NtRp588
(dp589
g54
(dp590
g62
I4
ssg63
Nsg56
(lp591
g49
(g65
g51
NtRp592
(dp593
g54
(dp594
sg63
g588
sg56
(lp595
g49
(g70
g51
NtRp596
(dp597
g54
(dp598
g74
g75
ssg63
g592
sg56
(lp599
S'app_folders'
p600
asbag49
(g70
g51
NtRp601
(dp602
g54
(dp603
g81
g82
ssg63
g592
sg56
(lp604
S':'
asbag49
(g70
g51
NtRp605
(dp606
g54
(dp607
sg63
g592
sg56
(lp608
g49
(g50
g51
NtRp609
(dp610
g54
(dp611
g62
I4
ssg63
g605
sg56
(lp612
S"set(['/Users/udimilo/Documents/web2py/applications/udi0312/', '/Users/udimilo/Documents/web2py/applications/admin/'])"
p613
asbasbasbag49
(g65
g51
NtRp614
(dp615
g54
(dp616
sg63
g588
sg56
(lp617
g49
(g70
g51
NtRp618
(dp619
g54
(dp620
g74
g75
ssg63
g614
sg56
(lp621
S'applications_parent'
p622
asbag49
(g70
g51
NtRp623
(dp624
g54
(dp625
g81
g82
ssg63
g614
sg56
(lp626
S':'
asbag49
(g70
g51
NtRp627
(dp628
g54
(dp629
sg63
g614
sg56
(lp630
g49
(g50
g51
NtRp631
(dp632
g54
(dp633
g62
I4
ssg63
g627
sg56
(lp634
S'/Users/udimilo/Documents/web2py'
p635
asbasbasbag49
(g65
g51
NtRp636
(dp637
g54
(dp638
sg63
g588
sg56
(lp639
g49
(g70
g51
NtRp640
(dp641
g54
(dp642
g74
g75
ssg63
g636
sg56
(lp643
S'cmd_args'
p644
asbag49
(g70
g51
NtRp645
(dp646
g54
(dp647
g81
g82
ssg63
g636
sg56
(lp648
S':'
asbag49
(g70
g51
NtRp649
(dp650
g54
(dp651
sg63
g636
sg56
(lp652
g49
(g50
g51
NtRp653
(dp654
g54
(dp655
g62
I4
ssg63
g649
sg56
(lp656
g49
(g58
g51
NtRp657
(dp658
g54
(dp659
g62
I3
ssg63
Nsg56
(lp660
sbasbasbasbag49
(g65
g51
NtRp661
(dp662
g54
(dp663
sg63
g588
sg56
(lp664
g49
(g70
g51
NtRp665
(dp666
g54
(dp667
g74
g75
ssg63
g661
sg56
(lp668
S'cmd_options'
p669
asbag49
(g70
g51
NtRp670
(dp671
g54
(dp672
g81
g82
ssg63
g661
sg56
(lp673
S':'
asbag49
(g70
g51
NtRp674
(dp675
g54
(dp676
sg63
g661
sg56
(lp677
g49
(g50
g51
NtRp678
(dp679
g54
(dp680
g62
I4
ssg63
g674
sg56
(lp681
S"<Values at 0x22190a8: {'verbose': False, 'ip': '127.0.0.1', 'shutdown_timeout': 5, 'taskbar': False, 'nocron': False, 'pid_filename': 'httpserver.pid', 'maxthreads': None, 'softcron': False, 'server_name': 'Udi-Milos-MacBook-Pro.local', 'bpython': False, 'nogui': False, 'port': 8000, 'extcron': False, 'debuglevel': 30, 'test': None, 'folder': '/Users/udimilo/Documents/web2py', 'config': '', 'import_models': False, 'winservice': '', 'shell': None, 'run': '', 'log_filename': 'httpserver.log', 'args': [''], 'socket_timeout': 5, 'ssl_ca_certificate': None, 'scheduler': None, 'profiler_filename': None, 'ssl_private_key': '', 'password': '<ask>', 'request_queue_size': 5, 'ssl_certificate': '', 'cronjob': False, 'numthreads': None, 'quiet': False, 'interfaces': None, 'minthreads': None, 'timeout': 10, 'plain': False, 'nobanner': False}>"
p682
asbasbasbag49
(g65
g51
NtRp683
(dp684
g54
(dp685
sg63
g588
sg56
(lp686
g49
(g70
g51
NtRp687
(dp688
g54
(dp689
g74
g75
ssg63
g683
sg56
(lp690
S'db_sessions'
p691
asbag49
(g70
g51
NtRp692
(dp693
g54
(dp694
g81
g82
ssg63
g683
sg56
(lp695
S':'
asbag49
(g70
g51
NtRp696
(dp697
g54
(dp698
sg63
g683
sg56
(lp699
g49
(g50
g51
NtRp700
(dp701
g54
(dp702
g62
I4
ssg63
g696
sg56
(lp703
S'set([])'
p704
asbasbasbag49
(g65
g51
NtRp705
(dp706
g54
(dp707
sg63
g588
sg56
(lp708
g49
(g70
g51
NtRp709
(dp710
g54
(dp711
g74
g75
ssg63
g705
sg56
(lp712
S'debugging'
p713
asbag49
(g70
g51
NtRp714
(dp715
g54
(dp716
g81
g82
ssg63
g705
sg56
(lp717
S':'
asbag49
(g70
g51
NtRp718
(dp719
g54
(dp720
sg63
g705
sg56
(lp721
g49
(g50
g51
NtRp722
(dp723
g54
(dp724
g62
I4
ssg63
g718
sg56
(lp725
g92
asbasbasbag49
(g65
g51
NtRp726
(dp727
g54
(dp728
sg63
g588
sg56
(lp729
g49
(g70
g51
NtRp730
(dp731
g54
(dp732
g74
g75
ssg63
g726
sg56
(lp733
S'gluon_parent'
p734
asbag49
(g70
g51
NtRp735
(dp736
g54
(dp737
g81
g82
ssg63
g726
sg56
(lp738
S':'
asbag49
(g70
g51
NtRp739
(dp740
g54
(dp741
sg63
g726
sg56
(lp742
g49
(g50
g51
NtRp743
(dp744
g54
(dp745
g62
I4
ssg63
g739
sg56
(lp746
S'/Users/udimilo/Documents/web2py'
p747
asbasbasbag49
(g65
g51
NtRp748
(dp749
g54
(dp750
sg63
g588
sg56
(lp751
g49
(g70
g51
NtRp752
(dp753
g54
(dp754
g74
g75
ssg63
g748
sg56
(lp755
S'http_accept'
p756
asbag49
(g70
g51
NtRp757
(dp758
g54
(dp759
g81
g82
ssg63
g748
sg56
(lp760
S':'
asbag49
(g70
g51
NtRp761
(dp762
g54
(dp763
sg63
g748
sg56
(lp764
g49
(g50
g51
NtRp765
(dp766
g54
(dp767
g62
I4
ssg63
g761
sg56
(lp768
S'text/html,application/xhtml+xml,application/xml;q=0.9,*/*;q=0.8'
p769
asbasbasbag49
(g65
g51
NtRp770
(dp771
g54
(dp772
sg63
g588
sg56
(lp773
g49
(g70
g51
NtRp774
(dp775
g54
(dp776
g74
g75
ssg63
g770
sg56
(lp777
S'http_accept_charset'
p778
asbag49
(g70
g51
NtRp779
(dp780
g54
(dp781
g81
g82
ssg63
g770
sg56
(lp782
S':'
asbag49
(g70
g51
NtRp783
(dp784
g54
(dp785
sg63
g770
sg56
(lp786
g49
(g50
g51
NtRp787
(dp788
g54
(dp789
g62
I4
ssg63
g783
sg56
(lp790
S'ISO-8859-1,utf-8;q=0.7,*;q=0.3'
p791
asbasbasbag49
(g65
g51
NtRp792
(dp793
g54
(dp794
sg63
g588
sg56
(lp795
g49
(g70
g51
NtRp796
(dp797
g54
(dp798
g74
g75
ssg63
g792
sg56
(lp799
S'http_accept_encoding'
p800
asbag49
(g70
g51
NtRp801
(dp802
g54
(dp803
g81
g82
ssg63
g792
sg56
(lp804
S':'
asbag49
(g70
g51
NtRp805
(dp806
g54
(dp807
sg63
g792
sg56
(lp808
g49
(g50
g51
NtRp809
(dp810
g54
(dp811
g62
I4
ssg63
g805
sg56
(lp812
S'gzip,deflate,sdch'
p813
asbasbasbag49
(g65
g51
NtRp814
(dp815
g54
(dp816
sg63
g588
sg56
(lp817
g49
(g70
g51
NtRp818
(dp819
g54
(dp820
g74
g75
ssg63
g814
sg56
(lp821
S'http_accept_language'
p822
asbag49
(g70
g51
NtRp823
(dp824
g54
(dp825
g81
g82
ssg63
g814
sg56
(lp826
S':'
asbag49
(g70
g51
NtRp827
(dp828
g54
(dp829
sg63
g814
sg56
(lp830
g49
(g50
g51
NtRp831
(dp832
g54
(dp833
g62
I4
ssg63
g827
sg56
(lp834
S'en-US,en;q=0.8'
p835
asbasbasbag49
(g65
g51
NtRp836
(dp837
g54
(dp838
sg63
g588
sg56
(lp839
g49
(g70
g51
NtRp840
(dp841
g54
(dp842
g74
g75
ssg63
g836
sg56
(lp843
S'http_cache_control'
p844
asbag49
(g70
g51
NtRp845
(dp846
g54
(dp847
g81
g82
ssg63
g836
sg56
(lp848
S':'
asbag49
(g70
g51
NtRp849
(dp850
g54
(dp851
sg63
g836
sg56
(lp852
g49
(g50
g51
NtRp853
(dp854
g54
(dp855
g62
I4
ssg63
g849
sg56
(lp856
S'max-age=0'
p857
asbasbasbag49
(g65
g51
NtRp858
(dp859
g54
(dp860
sg63
g588
sg56
(lp861
g49
(g70
g51
NtRp862
(dp863
g54
(dp864
g74
g75
ssg63
g858
sg56
(lp865
S'http_connection'
p866
asbag49
(g70
g51
NtRp867
(dp868
g54
(dp869
g81
g82
ssg63
g858
sg56
(lp870
S':'
asbag49
(g70
g51
NtRp871
(dp872
g54
(dp873
sg63
g858
sg56
(lp874
g49
(g50
g51
NtRp875
(dp876
g54
(dp877
g62
I4
ssg63
g871
sg56
(lp878
S'keep-alive'
p879
asbasbasbag49
(g65
g51
NtRp880
(dp881
g54
(dp882
sg63
g588
sg56
(lp883
g49
(g70
g51
NtRp884
(dp885
g54
(dp886
g74
g75
ssg63
g880
sg56
(lp887
S'http_cookie'
p888
asbag49
(g70
g51
NtRp889
(dp890
g54
(dp891
g81
g82
ssg63
g880
sg56
(lp892
S':'
asbag49
(g70
g51
NtRp893
(dp894
g54
(dp895
sg63
g880
sg56
(lp896
g49
(g50
g51
NtRp897
(dp898
g54
(dp899
g62
I4
ssg63
g893
sg56
(lp900
S'session_id_udi0312=127.0.0.1-8a3bdcbc-10a2-4be7-917a-ea873784c1ca; session_id_admin=127.0.0.1-6a2a4c2b-3862-44a7-a1d2-f6704837771d'
p901
asbasbasbag49
(g65
g51
NtRp902
(dp903
g54
(dp904
sg63
g588
sg56
(lp905
g49
(g70
g51
NtRp906
(dp907
g54
(dp908
g74
g75
ssg63
g902
sg56
(lp909
S'http_host'
p910
asbag49
(g70
g51
NtRp911
(dp912
g54
(dp913
g81
g82
ssg63
g902
sg56
(lp914
S':'
asbag49
(g70
g51
NtRp915
(dp916
g54
(dp917
sg63
g902
sg56
(lp918
g49
(g50
g51
NtRp919
(dp920
g54
(dp921
g62
I4
ssg63
g915
sg56
(lp922
S'127.0.0.1:8000'
p923
asbasbasbag49
(g65
g51
NtRp924
(dp925
g54
(dp926
sg63
g588
sg56
(lp927
g49
(g70
g51
NtRp928
(dp929
g54
(dp930
g74
g75
ssg63
g924
sg56
(lp931
S'http_referer'
p932
asbag49
(g70
g51
NtRp933
(dp934
g54
(dp935
g81
g82
ssg63
g924
sg56
(lp936
S':'
asbag49
(g70
g51
NtRp937
(dp938
g54
(dp939
sg63
g924
sg56
(lp940
g49
(g50
g51
NtRp941
(dp942
g54
(dp943
g62
I4
ssg63
g937
sg56
(lp944
S'http://127.0.0.1:8000/user/login?_next=/'
p945
asbasbasbag49
(g65
g51
NtRp946
(dp947
g54
(dp948
sg63
g588
sg56
(lp949
g49
(g70
g51
NtRp950
(dp951
g54
(dp952
g74
g75
ssg63
g946
sg56
(lp953
S'http_user_agent'
p954
asbag49
(g70
g51
NtRp955
(dp956
g54
(dp957
g81
g82
ssg63
g946
sg56
(lp958
S':'
asbag49
(g70
g51
NtRp959
(dp960
g54
(dp961
sg63
g946
sg56
(lp962
g49
(g50
g51
NtRp963
(dp964
g54
(dp965
g62
I4
ssg63
g959
sg56
(lp966
S'Mozilla/5.0 (Macintosh; Intel Mac OS X 10_7_3) AppleWebKit/535.11 (KHTML, like Gecko) Chrome/17.0.963.79 Safari/535.11'
p967
asbasbasbag49
(g65
g51
NtRp968
(dp969
g54
(dp970
sg63
g588
sg56
(lp971
g49
(g70
g51
NtRp972
(dp973
g54
(dp974
g74
g75
ssg63
g968
sg56
(lp975
S'is_jython'
p976
asbag49
(g70
g51
NtRp977
(dp978
g54
(dp979
g81
g82
ssg63
g968
sg56
(lp980
S':'
asbag49
(g70
g51
NtRp981
(dp982
g54
(dp983
sg63
g968
sg56
(lp984
g49
(g50
g51
NtRp985
(dp986
g54
(dp987
g62
I4
ssg63
g981
sg56
(lp988
g92
asbasbasbag49
(g65
g51
NtRp989
(dp990
g54
(dp991
sg63
g588
sg56
(lp992
g49
(g70
g51
NtRp993
(dp994
g54
(dp995
g74
g75
ssg63
g989
sg56
(lp996
S'is_pypy'
p997
asbag49
(g70
g51
NtRp998
(dp999
g54
(dp1000
g81
g82
ssg63
g989
sg56
(lp1001
S':'
asbag49
(g70
g51
NtRp1002
(dp1003
g54
(dp1004
sg63
g989
sg56
(lp1005
g49
(g50
g51
NtRp1006
(dp1007
g54
(dp1008
g62
I4
ssg63
g1002
sg56
(lp1009
g92
asbasbasbag49
(g65
g51
NtRp1010
(dp1011
g54
(dp1012
sg63
g588
sg56
(lp1013
g49
(g70
g51
NtRp1014
(dp1015
g54
(dp1016
g74
g75
ssg63
g1010
sg56
(lp1017
S'path_info'
p1018
asbag49
(g70
g51
NtRp1019
(dp1020
g54
(dp1021
g81
g82
ssg63
g1010
sg56
(lp1022
S':'
asbag49
(g70
g51
NtRp1023
(dp1024
g54
(dp1025
sg63
g1010
sg56
(lp1026
g49
(g50
g51
NtRp1027
(dp1028
g54
(dp1029
g62
I4
ssg63
g1023
sg56
(lp1030
S'/'
asbasbasbag49
(g65
g51
NtRp1031
(dp1032
g54
(dp1033
sg63
g588
sg56
(lp1034
g49
(g70
g51
NtRp1035
(dp1036
g54
(dp1037
g74
g75
ssg63
g1031
sg56
(lp1038
S'query_string'
p1039
asbag49
(g70
g51
NtRp1040
(dp1041
g54
(dp1042
g81
g82
ssg63
g1031
sg56
(lp1043
S':'
asbag49
(g70
g51
NtRp1044
(dp1045
g54
(dp1046
sg63
g1031
sg56
(lp1047
g49
(g50
g51
NtRp1048
(dp1049
g54
(dp1050
g62
I4
ssg63
g1044
sg56
(lp1051
S''
asbasbasbag49
(g65
g51
NtRp1052
(dp1053
g54
(dp1054
sg63
g588
sg56
(lp1055
g49
(g70
g51
NtRp1056
(dp1057
g54
(dp1058
g74
g75
ssg63
g1052
sg56
(lp1059
S'remote_addr'
p1060
asbag49
(g70
g51
NtRp1061
(dp1062
g54
(dp1063
g81
g82
ssg63
g1052
sg56
(lp1064
S':'
asbag49
(g70
g51
NtRp1065
(dp1066
g54
(dp1067
sg63
g1052
sg56
(lp1068
g49
(g50
g51
NtRp1069
(dp1070
g54
(dp1071
g62
I4
ssg63
g1065
sg56
(lp1072
g182
asbasbasbag49
(g65
g51
NtRp1073
(dp1074
g54
(dp1075
sg63
g588
sg56
(lp1076
g49
(g70
g51
NtRp1077
(dp1078
g54
(dp1079
g74
g75
ssg63
g1073
sg56
(lp1080
S'remote_port'
p1081
asbag49
(g70
g51
NtRp1082
(dp1083
g54
(dp1084
g81
g82
ssg63
g1073
sg56
(lp1085
S':'
asbag49
(g70
g51
NtRp1086
(dp1087
g54
(dp1088
sg63
g1073
sg56
(lp1089
g49
(g50
g51
NtRp1090
(dp1091
g54
(dp1092
g62
I4
ssg63
g1086
sg56
(lp1093
S'50201'
p1094
asbasbasbag49
(g65
g51
NtRp1095
(dp1096
g54
(dp1097
sg63
g588
sg56
(lp1098
g49
(g70
g51
NtRp1099
(dp1100
g54
(dp1101
g74
g75
ssg63
g1095
sg56
(lp1102
S'request_method'
p1103
asbag49
(g70
g51
NtRp1104
(dp1105
g54
(dp1106
g81
g82
ssg63
g1095
sg56
(lp1107
S':'
asbag49
(g70
g51
NtRp1108
(dp1109
g54
(dp1110
sg63
g1095
sg56
(lp1111
g49
(g50
g51
NtRp1112
(dp1113
g54
(dp1114
g62
I4
ssg63
g1108
sg56
(lp1115
S'GET'
p1116
asbasbasbag49
(g65
g51
NtRp1117
(dp1118
g54
(dp1119
sg63
g588
sg56
(lp1120
g49
(g70
g51
NtRp1121
(dp1122
g54
(dp1123
g74
g75
ssg63
g1117
sg56
(lp1124
S'request_uri'
p1125
asbag49
(g70
g51
NtRp1126
(dp1127
g54
(dp1128
g81
g82
ssg63
g1117
sg56
(lp1129
S':'
asbag49
(g70
g51
NtRp1130
(dp1131
g54
(dp1132
sg63
g1117
sg56
(lp1133
g49
(g50
g51
NtRp1134
(dp1135
g54
(dp1136
g62
I4
ssg63
g1130
sg56
(lp1137
S'/udi0312/default/index'
p1138
asbasbasbag49
(g65
g51
NtRp1139
(dp1140
g54
(dp1141
sg63
g588
sg56
(lp1142
g49
(g70
g51
NtRp1143
(dp1144
g54
(dp1145
g74
g75
ssg63
g1139
sg56
(lp1146
S'script_name'
p1147
asbag49
(g70
g51
NtRp1148
(dp1149
g54
(dp1150
g81
g82
ssg63
g1139
sg56
(lp1151
S':'
asbag49
(g70
g51
NtRp1152
(dp1153
g54
(dp1154
sg63
g1139
sg56
(lp1155
g49
(g50
g51
NtRp1156
(dp1157
g54
(dp1158
g62
I4
ssg63
g1152
sg56
(lp1159
S''
asbasbasbag49
(g65
g51
NtRp1160
(dp1161
g54
(dp1162
sg63
g588
sg56
(lp1163
g49
(g70
g51
NtRp1164
(dp1165
g54
(dp1166
g74
g75
ssg63
g1160
sg56
(lp1167
S'server_name'
p1168
asbag49
(g70
g51
NtRp1169
(dp1170
g54
(dp1171
g81
g82
ssg63
g1160
sg56
(lp1172
S':'
asbag49
(g70
g51
NtRp1173
(dp1174
g54
(dp1175
sg63
g1160
sg56
(lp1176
g49
(g50
g51
NtRp1177
(dp1178
g54
(dp1179
g62
I4
ssg63
g1173
sg56
(lp1180
S'Udi-Milos-MacBook-Pro.local'
p1181
asbasbasbag49
(g65
g51
NtRp1182
(dp1183
g54
(dp1184
sg63
g588
sg56
(lp1185
g49
(g70
g51
NtRp1186
(dp1187
g54
(dp1188
g74
g75
ssg63
g1182
sg56
(lp1189
S'server_port'
p1190
asbag49
(g70
g51
NtRp1191
(dp1192
g54
(dp1193
g81
g82
ssg63
g1182
sg56
(lp1194
S':'
asbag49
(g70
g51
NtRp1195
(dp1196
g54
(dp1197
sg63
g1182
sg56
(lp1198
g49
(g50
g51
NtRp1199
(dp1200
g54
(dp1201
g62
I4
ssg63
g1195
sg56
(lp1202
S'8000'
p1203
asbasbasbag49
(g65
g51
NtRp1204
(dp1205
g54
(dp1206
sg63
g588
sg56
(lp1207
g49
(g70
g51
NtRp1208
(dp1209
g54
(dp1210
g74
g75
ssg63
g1204
sg56
(lp1211
S'server_protocol'
p1212
asbag49
(g70
g51
NtRp1213
(dp1214
g54
(dp1215
g81
g82
ssg63
g1204
sg56
(lp1216
S':'
asbag49
(g70
g51
NtRp1217
(dp1218
g54
(dp1219
sg63
g1204
sg56
(lp1220
g49
(g50
g51
NtRp1221
(dp1222
g54
(dp1223
g62
I4
ssg63
g1217
sg56
(lp1224
S'HTTP/1.1'
p1225
asbasbasbag49
(g65
g51
NtRp1226
(dp1227
g54
(dp1228
sg63
g588
sg56
(lp1229
g49
(g70
g51
NtRp1230
(dp1231
g54
(dp1232
g74
g75
ssg63
g1226
sg56
(lp1233
S'server_software'
p1234
asbag49
(g70
g51
NtRp1235
(dp1236
g54
(dp1237
g81
g82
ssg63
g1226
sg56
(lp1238
S':'
asbag49
(g70
g51
NtRp1239
(dp1240
g54
(dp1241
sg63
g1226
sg56
(lp1242
g49
(g50
g51
NtRp1243
(dp1244
g54
(dp1245
g62
I4
ssg63
g1239
sg56
(lp1246
S'Rocket 1.2.4'
p1247
asbasbasbag49
(g65
g51
NtRp1248
(dp1249
g54
(dp1250
sg63
g588
sg56
(lp1251
g49
(g70
g51
NtRp1252
(dp1253
g54
(dp1254
g74
g75
ssg63
g1248
sg56
(lp1255
S'web2py_crontype'
p1256
asbag49
(g70
g51
NtRp1257
(dp1258
g54
(dp1259
g81
g82
ssg63
g1248
sg56
(lp1260
S':'
asbag49
(g70
g51
NtRp1261
(dp1262
g54
(dp1263
sg63
g1248
sg56
(lp1264
g49
(g50
g51
NtRp1265
(dp1266
g54
(dp1267
g62
I4
ssg63
g1261
sg56
(lp1268
S'hard'
p1269
asbasbasbag49
(g65
g51
NtRp1270
(dp1271
g54
(dp1272
sg63
g588
sg56
(lp1273
g49
(g70
g51
NtRp1274
(dp1275
g54
(dp1276
g74
g75
ssg63
g1270
sg56
(lp1277
S'web2py_original_uri'
p1278
asbag49
(g70
g51
NtRp1279
(dp1280
g54
(dp1281
g81
g82
ssg63
g1270
sg56
(lp1282
S':'
asbag49
(g70
g51
NtRp1283
(dp1284
g54
(dp1285
sg63
g1270
sg56
(lp1286
g49
(g50
g51
NtRp1287
(dp1288
g54
(dp1289
g62
I4
ssg63
g1283
sg56
(lp1290
S'/'
asbasbasbag49
(g65
g51
NtRp1291
(dp1292
g54
(dp1293
sg63
g588
sg56
(lp1294
g49
(g70
g51
NtRp1295
(dp1296
g54
(dp1297
g74
g75
ssg63
g1291
sg56
(lp1298
S'web2py_path'
p1299
asbag49
(g70
g51
NtRp1300
(dp1301
g54
(dp1302
g81
g82
ssg63
g1291
sg56
(lp1303
S':'
asbag49
(g70
g51
NtRp1304
(dp1305
g54
(dp1306
sg63
g1291
sg56
(lp1307
g49
(g50
g51
NtRp1308
(dp1309
g54
(dp1310
g62
I4
ssg63
g1304
sg56
(lp1311
g635
asbasbasbag49
(g65
g51
NtRp1312
(dp1313
g54
(dp1314
sg63
g588
sg56
(lp1315
g49
(g70
g51
NtRp1316
(dp1317
g54
(dp1318
g74
g75
ssg63
g1312
sg56
(lp1319
S'web2py_version'
p1320
asbag49
(g70
g51
NtRp1321
(dp1322
g54
(dp1323
g81
g82
ssg63
g1312
sg56
(lp1324
S':'
asbag49
(g70
g51
NtRp1325
(dp1326
g54
(dp1327
sg63
g1312
sg56
(lp1328
g49
(g50
g51
NtRp1329
(dp1330
g54
(dp1331
g62
I4
ssg63
g1325
sg56
(lp1332
g49
(g58
g51
NtRp1333
(dp1334
g54
(dp1335
g62
I3
ssg63
Nsg56
(lp1336
g49
(g65
g51
NtRp1337
(dp1338
g54
(dp1339
sg63
g1333
sg56
(lp1340
g49
(g70
g51
NtRp1341
(dp1342
g54
(dp1343
sg63
g1337
sg56
(lp1344
g49
(g50
g51
NtRp1345
(dp1346
g54
(dp1347
g62
I3
ssg63
g1341
sg56
(lp1348
S'1'
asbasbasbag49
(g65
g51
NtRp1349
(dp1350
g54
(dp1351
sg63
g1333
sg56
(lp1352
g49
(g70
g51
NtRp1353
(dp1354
g54
(dp1355
sg63
g1349
sg56
(lp1356
g49
(g50
g51
NtRp1357
(dp1358
g54
(dp1359
g62
I3
ssg63
g1353
sg56
(lp1360
S'99'
p1361
asbasbasbag49
(g65
g51
NtRp1362
(dp1363
g54
(dp1364
sg63
g1333
sg56
(lp1365
g49
(g70
g51
NtRp1366
(dp1367
g54
(dp1368
sg63
g1362
sg56
(lp1369
g49
(g50
g51
NtRp1370
(dp1371
g54
(dp1372
g62
I3
ssg63
g1366
sg56
(lp1373
S'7'
asbasbasbag49
(g65
g51
NtRp1374
(dp1375
g54
(dp1376
sg63
g1333
sg56
(lp1377
g49
(g70
g51
NtRp1378
(dp1379
g54
(dp1380
sg63
g1374
sg56
(lp1381
g49
(g50
g51
NtRp1382
(dp1383
g54
(dp1384
g62
I3
ssg63
g1378
sg56
(lp1385
S'datetime.datetime(2012, 3, 4, 22, 12, 8)'
p1386
asbasbasbag49
(g65
g51
NtRp1387
(dp1388
g54
(dp1389
sg63
g1333
sg56
(lp1390
g49
(g70
g51
NtRp1391
(dp1392
g54
(dp1393
sg63
g1387
sg56
(lp1394
g49
(g50
g51
NtRp1395
(dp1396
g54
(dp1397
g62
I3
ssg63
g1391
sg56
(lp1398
S'stable'
p1399
asbasbasbasbasbasbasbag49
(g65
g51
NtRp1400
(dp1401
g54
(dp1402
sg63
g588
sg56
(lp1403
g49
(g70
g51
NtRp1404
(dp1405
g54
(dp1406
g74
g75
ssg63
g1400
sg56
(lp1407
S'wsgi_errors'
p1408
asbag49
(g70
g51
NtRp1409
(dp1410
g54
(dp1411
g81
g82
ssg63
g1400
sg56
(lp1412
S':'
asbag49
(g70
g51
NtRp1413
(dp1414
g54
(dp1415
sg63
g1400
sg56
(lp1416
g49
(g50
g51
NtRp1417
(dp1418
g54
(dp1419
g62
I4
ssg63
g1413
sg56
(lp1420
S"<open file '<stderr>', mode 'w' at 0x4220b0>"
p1421
asbasbasbag49
(g65
g51
NtRp1422
(dp1423
g54
(dp1424
sg63
g588
sg56
(lp1425
g49
(g70
g51
NtRp1426
(dp1427
g54
(dp1428
g74
g75
ssg63
g1422
sg56
(lp1429
S'wsgi_file_wrapper'
p1430
asbag49
(g70
g51
NtRp1431
(dp1432
g54
(dp1433
g81
g82
ssg63
g1422
sg56
(lp1434
S':'
asbag49
(g70
g51
NtRp1435
(dp1436
g54
(dp1437
sg63
g1422
sg56
(lp1438
g49
(g50
g51
NtRp1439
(dp1440
g54
(dp1441
g62
I4
ssg63
g1435
sg56
(lp1442
S'<class wsgiref.util.FileWrapper at 0x215e6c0>'
p1443
asbasbasbag49
(g65
g51
NtRp1444
(dp1445
g54
(dp1446
sg63
g588
sg56
(lp1447
g49
(g70
g51
NtRp1448
(dp1449
g54
(dp1450
g74
g75
ssg63
g1444
sg56
(lp1451
S'wsgi_input'
p1452
asbag49
(g70
g51
NtRp1453
(dp1454
g54
(dp1455
g81
g82
ssg63
g1444
sg56
(lp1456
S':'
asbag49
(g70
g51
NtRp1457
(dp1458
g54
(dp1459
sg63
g1444
sg56
(lp1460
g49
(g50
g51
NtRp1461
(dp1462
g54
(dp1463
g62
I4
ssg63
g1457
sg56
(lp1464
S'<socket._fileobject object at 0xa2b27f0>'
p1465
asbasbasbag49
(g65
g51
NtRp1466
(dp1467
g54
(dp1468
sg63
g588
sg56
(lp1469
g49
(g70
g51
NtRp1470
(dp1471
g54
(dp1472
g74
g75
ssg63
g1466
sg56
(lp1473
S'wsgi_multiprocess'
p1474
asbag49
(g70
g51
NtRp1475
(dp1476
g54
(dp1477
g81
g82
ssg63
g1466
sg56
(lp1478
S':'
asbag49
(g70
g51
NtRp1479
(dp1480
g54
(dp1481
sg63
g1466
sg56
(lp1482
g49
(g50
g51
NtRp1483
(dp1484
g54
(dp1485
g62
I4
ssg63
g1479
sg56
(lp1486
g92
asbasbasbag49
(g65
g51
NtRp1487
(dp1488
g54
(dp1489
sg63
g588
sg56
(lp1490
g49
(g70
g51
NtRp1491
(dp1492
g54
(dp1493
g74
g75
ssg63
g1487
sg56
(lp1494
S'wsgi_multithread'
p1495
asbag49
(g70
g51
NtRp1496
(dp1497
g54
(dp1498
g81
g82
ssg63
g1487
sg56
(lp1499
S':'
asbag49
(g70
g51
NtRp1500
(dp1501
g54
(dp1502
sg63
g1487
sg56
(lp1503
g49
(g50
g51
NtRp1504
(dp1505
g54
(dp1506
g62
I4
ssg63
g1500
sg56
(lp1507
S'True'
p1508
asbasbasbag49
(g65
g51
NtRp1509
(dp1510
g54
(dp1511
sg63
g588
sg56
(lp1512
g49
(g70
g51
NtRp1513
(dp1514
g54
(dp1515
g74
g75
ssg63
g1509
sg56
(lp1516
S'wsgi_run_once'
p1517
asbag49
(g70
g51
NtRp1518
(dp1519
g54
(dp1520
g81
g82
ssg63
g1509
sg56
(lp1521
S':'
asbag49
(g70
g51
NtRp1522
(dp1523
g54
(dp1524
sg63
g1509
sg56
(lp1525
g49
(g50
g51
NtRp1526
(dp1527
g54
(dp1528
g62
I4
ssg63
g1522
sg56
(lp1529
g92
asbasbasbag49
(g65
g51
NtRp1530
(dp1531
g54
(dp1532
sg63
g588
sg56
(lp1533
g49
(g70
g51
NtRp1534
(dp1535
g54
(dp1536
g74
g75
ssg63
g1530
sg56
(lp1537
S'wsgi_url_scheme'
p1538
asbag49
(g70
g51
NtRp1539
(dp1540
g54
(dp1541
g81
g82
ssg63
g1530
sg56
(lp1542
S':'
asbag49
(g70
g51
NtRp1543
(dp1544
g54
(dp1545
sg63
g1530
sg56
(lp1546
g49
(g50
g51
NtRp1547
(dp1548
g54
(dp1549
g62
I4
ssg63
g1543
sg56
(lp1550
S'http'
p1551
asbasbasbag49
(g65
g51
NtRp1552
(dp1553
g54
(dp1554
sg63
g588
sg56
(lp1555
g49
(g70
g51
NtRp1556
(dp1557
g54
(dp1558
g74
g75
ssg63
g1552
sg56
(lp1559
S'wsgi_version'
p1560
asbag49
(g70
g51
NtRp1561
(dp1562
g54
(dp1563
g81
g82
ssg63
g1552
sg56
(lp1564
S':'
asbag49
(g70
g51
NtRp1565
(dp1566
g54
(dp1567
sg63
g1552
sg56
(lp1568
g49
(g50
g51
NtRp1569
(dp1570
g54
(dp1571
g62
I4
ssg63
g1565
sg56
(lp1572
g49
(g58
g51
NtRp1573
(dp1574
g54
(dp1575
g62
I3
ssg63
Nsg56
(lp1576
g49
(g65
g51
NtRp1577
(dp1578
g54
(dp1579
sg63
g1573
sg56
(lp1580
g49
(g70
g51
NtRp1581
(dp1582
g54
(dp1583
sg63
g1577
sg56
(lp1584
g49
(g50
g51
NtRp1585
(dp1586
g54
(dp1587
g62
I3
ssg63
g1581
sg56
(lp1588
S'1'
asbasbasbag49
(g65
g51
NtRp1589
(dp1590
g54
(dp1591
sg63
g1573
sg56
(lp1592
g49
(g70
g51
NtRp1593
(dp1594
g54
(dp1595
sg63
g1589
sg56
(lp1596
g49
(g50
g51
NtRp1597
(dp1598
g54
(dp1599
g62
I3
ssg63
g1593
sg56
(lp1600
S'0'
asbasbasbasbasbasbasbasbasbasbasbag49
(g65
g51
NtRp1601
(dp1602
g54
(dp1603
sg63
g59
sg56
(lp1604
g49
(g70
g51
NtRp1605
(dp1606
g54
(dp1607
g74
g75
ssg63
g1601
sg56
(lp1608
S'extension'
p1609
asbag49
(g70
g51
NtRp1610
(dp1611
g54
(dp1612
g81
g82
ssg63
g1601
sg56
(lp1613
S':'
asbag49
(g70
g51
NtRp1614
(dp1615
g54
(dp1616
sg63
g1601
sg56
(lp1617
g49
(g50
g51
NtRp1618
(dp1619
g54
(dp1620
g62
I5
ssg63
g1614
sg56
(lp1621
S'html'
p1622
asbasbasbag49
(g65
g51
NtRp1623
(dp1624
g54
(dp1625
sg63
g59
sg56
(lp1626
g49
(g70
g51
NtRp1627
(dp1628
g54
(dp1629
g74
g75
ssg63
g1623
sg56
(lp1630
S'folder'
p1631
asbag49
(g70
g51
NtRp1632
(dp1633
g54
(dp1634
g81
g82
ssg63
g1623
sg56
(lp1635
S':'
asbag49
(g70
g51
NtRp1636
(dp1637
g54
(dp1638
sg63
g1623
sg56
(lp1639
g49
(g50
g51
NtRp1640
(dp1641
g54
(dp1642
g62
I5
ssg63
g1636
sg56
(lp1643
S'/Users/udimilo/Documents/web2py/applications/udi0312/'
p1644
asbasbasbag49
(g65
g51
NtRp1645
(dp1646
g54
(dp1647
sg63
g59
sg56
(lp1648
g49
(g70
g51
NtRp1649
(dp1650
g54
(dp1651
g74
g75
ssg63
g1645
sg56
(lp1652
S'function'
p1653
asbag49
(g70
g51
NtRp1654
(dp1655
g54
(dp1656
g81
g82
ssg63
g1645
sg56
(lp1657
S':'
asbag49
(g70
g51
NtRp1658
(dp1659
g54
(dp1660
sg63
g1645
sg56
(lp1661
g49
(g50
g51
NtRp1662
(dp1663
g54
(dp1664
g62
I5
ssg63
g1658
sg56
(lp1665
S'index'
p1666
asbasbasbag49
(g65
g51
NtRp1667
(dp1668
g54
(dp1669
sg63
g59
sg56
(lp1670
g49
(g70
g51
NtRp1671
(dp1672
g54
(dp1673
g74
g75
ssg63
g1667
sg56
(lp1674
S'get_vars'
p1675
asbag49
(g70
g51
NtRp1676
(dp1677
g54
(dp1678
g81
g82
ssg63
g1667
sg56
(lp1679
S':'
asbag49
(g70
g51
NtRp1680
(dp1681
g54
(dp1682
sg63
g1667
sg56
(lp1683
g49
(g50
g51
NtRp1684
(dp1685
g54
(dp1686
g62
I5
ssg63
g1680
sg56
(lp1687
g49
(g58
g51
NtRp1688
(dp1689
g54
(dp1690
g62
I4
ssg63
Nsg56
(lp1691
sbasbasbasbag49
(g65
g51
NtRp1692
(dp1693
g54
(dp1694
sg63
g59
sg56
(lp1695
g49
(g70
g51
NtRp1696
(dp1697
g54
(dp1698
g74
g75
ssg63
g1692
sg56
(lp1699
S'global_settings'
p1700
asbag49
(g70
g51
NtRp1701
(dp1702
g54
(dp1703
g81
g82
ssg63
g1692
sg56
(lp1704
S':'
asbag49
(g70
g51
NtRp1705
(dp1706
g54
(dp1707
sg63
g1692
sg56
(lp1708
g49
(g50
g51
NtRp1709
(dp1710
g54
(dp1711
g62
I5
ssg63
g1705
sg56
(lp1712
g49
(g58
g51
NtRp1713
(dp1714
g54
(dp1715
g62
I4
ssg63
Nsg56
(lp1716
g49
(g65
g51
NtRp1717
(dp1718
g54
(dp1719
sg63
g1713
sg56
(lp1720
g49
(g70
g51
NtRp1721
(dp1722
g54
(dp1723
g74
g75
ssg63
g1717
sg56
(lp1724
g600
asbag49
(g70
g51
NtRp1725
(dp1726
g54
(dp1727
g81
g82
ssg63
g1717
sg56
(lp1728
S':'
asbag49
(g70
g51
NtRp1729
(dp1730
g54
(dp1731
sg63
g1717
sg56
(lp1732
g49
(g50
g51
NtRp1733
(dp1734
g54
(dp1735
g62
I4
ssg63
g1729
sg56
(lp1736
S"set(['/Users/udimilo/Documents/web2py/applications/udi0312/', '/Users/udimilo/Documents/web2py/applications/admin/'])"
p1737
asbasbasbag49
(g65
g51
NtRp1738
(dp1739
g54
(dp1740
sg63
g1713
sg56
(lp1741
g49
(g70
g51
NtRp1742
(dp1743
g54
(dp1744
g74
g75
ssg63
g1738
sg56
(lp1745
g622
asbag49
(g70
g51
NtRp1746
(dp1747
g54
(dp1748
g81
g82
ssg63
g1738
sg56
(lp1749
S':'
asbag49
(g70
g51
NtRp1750
(dp1751
g54
(dp1752
sg63
g1738
sg56
(lp1753
g49
(g50
g51
NtRp1754
(dp1755
g54
(dp1756
g62
I4
ssg63
g1750
sg56
(lp1757
g635
asbasbasbag49
(g65
g51
NtRp1758
(dp1759
g54
(dp1760
sg63
g1713
sg56
(lp1761
g49
(g70
g51
NtRp1762
(dp1763
g54
(dp1764
g74
g75
ssg63
g1758
sg56
(lp1765
g644
asbag49
(g70
g51
NtRp1766
(dp1767
g54
(dp1768
g81
g82
ssg63
g1758
sg56
(lp1769
S':'
asbag49
(g70
g51
NtRp1770
(dp1771
g54
(dp1772
sg63
g1758
sg56
(lp1773
g49
(g50
g51
NtRp1774
(dp1775
g54
(dp1776
g62
I4
ssg63
g1770
sg56
(lp1777
g49
(g58
g51
NtRp1778
(dp1779
g54
(dp1780
g62
I3
ssg63
Nsg56
(lp1781
sbasbasbasbag49
(g65
g51
NtRp1782
(dp1783
g54
(dp1784
sg63
g1713
sg56
(lp1785
g49
(g70
g51
NtRp1786
(dp1787
g54
(dp1788
g74
g75
ssg63
g1782
sg56
(lp1789
g669
asbag49
(g70
g51
NtRp1790
(dp1791
g54
(dp1792
g81
g82
ssg63
g1782
sg56
(lp1793
S':'
asbag49
(g70
g51
NtRp1794
(dp1795
g54
(dp1796
sg63
g1782
sg56
(lp1797
g49
(g50
g51
NtRp1798
(dp1799
g54
(dp1800
g62
I4
ssg63
g1794
sg56
(lp1801
S"<Values at 0x22190a8: {'verbose': False, 'ip': '127.0.0.1', 'shutdown_timeout': 5, 'taskbar': False, 'nocron': False, 'pid_filename': 'httpserver.pid', 'maxthreads': None, 'softcron': False, 'server_name': 'Udi-Milos-MacBook-Pro.local', 'bpython': False, 'nogui': False, 'port': 8000, 'extcron': False, 'debuglevel': 30, 'test': None, 'folder': '/Users/udimilo/Documents/web2py', 'config': '', 'import_models': False, 'winservice': '', 'shell': None, 'run': '', 'log_filename': 'httpserver.log', 'args': [''], 'socket_timeout': 5, 'ssl_ca_certificate': None, 'scheduler': None, 'profiler_filename': None, 'ssl_private_key': '', 'password': '<ask>', 'request_queue_size': 5, 'ssl_certificate': '', 'cronjob': False, 'numthreads': None, 'quiet': False, 'interfaces': None, 'minthreads': None, 'timeout': 10, 'plain': False, 'nobanner': False}>"
p1802
asbasbasbag49
(g65
g51
NtRp1803
(dp1804
g54
(dp1805
sg63
g1713
sg56
(lp1806
g49
(g70
g51
NtRp1807
(dp1808
g54
(dp1809
g74
g75
ssg63
g1803
sg56
(lp1810
g691
asbag49
(g70
g51
NtRp1811
(dp1812
g54
(dp1813
g81
g82
ssg63
g1803
sg56
(lp1814
S':'
asbag49
(g70
g51
NtRp1815
(dp1816
g54
(dp1817
sg63
g1803
sg56
(lp1818
g49
(g50
g51
NtRp1819
(dp1820
g54
(dp1821
g62
I4
ssg63
g1815
sg56
(lp1822
S'set([])'
p1823
asbasbasbag49
(g65
g51
NtRp1824
(dp1825
g54
(dp1826
sg63
g1713
sg56
(lp1827
g49
(g70
g51
NtRp1828
(dp1829
g54
(dp1830
g74
g75
ssg63
g1824
sg56
(lp1831
g713
asbag49
(g70
g51
NtRp1832
(dp1833
g54
(dp1834
g81
g82
ssg63
g1824
sg56
(lp1835
S':'
asbag49
(g70
g51
NtRp1836
(dp1837
g54
(dp1838
sg63
g1824
sg56
(lp1839
g49
(g50
g51
NtRp1840
(dp1841
g54
(dp1842
g62
I4
ssg63
g1836
sg56
(lp1843
g92
asbasbasbag49
(g65
g51
NtRp1844
(dp1845
g54
(dp1846
sg63
g1713
sg56
(lp1847
g49
(g70
g51
NtRp1848
(dp1849
g54
(dp1850
g74
g75
ssg63
g1844
sg56
(lp1851
g734
asbag49
(g70
g51
NtRp1852
(dp1853
g54
(dp1854
g81
g82
ssg63
g1844
sg56
(lp1855
S':'
asbag49
(g70
g51
NtRp1856
(dp1857
g54
(dp1858
sg63
g1844
sg56
(lp1859
g49
(g50
g51
NtRp1860
(dp1861
g54
(dp1862
g62
I4
ssg63
g1856
sg56
(lp1863
g747
asbasbasbag49
(g65
g51
NtRp1864
(dp1865
g54
(dp1866
sg63
g1713
sg56
(lp1867
g49
(g70
g51
NtRp1868
(dp1869
g54
(dp1870
g74
g75
ssg63
g1864
sg56
(lp1871
g976
asbag49
(g70
g51
NtRp1872
(dp1873
g54
(dp1874
g81
g82
ssg63
g1864
sg56
(lp1875
S':'
asbag49
(g70
g51
NtRp1876
(dp1877
g54
(dp1878
sg63
g1864
sg56
(lp1879
g49
(g50
g51
NtRp1880
(dp1881
g54
(dp1882
g62
I4
ssg63
g1876
sg56
(lp1883
g92
asbasbasbag49
(g65
g51
NtRp1884
(dp1885
g54
(dp1886
sg63
g1713
sg56
(lp1887
g49
(g70
g51
NtRp1888
(dp1889
g54
(dp1890
g74
g75
ssg63
g1884
sg56
(lp1891
g997
asbag49
(g70
g51
NtRp1892
(dp1893
g54
(dp1894
g81
g82
ssg63
g1884
sg56
(lp1895
S':'
asbag49
(g70
g51
NtRp1896
(dp1897
g54
(dp1898
sg63
g1884
sg56
(lp1899
g49
(g50
g51
NtRp1900
(dp1901
g54
(dp1902
g62
I4
ssg63
g1896
sg56
(lp1903
g92
asbasbasbag49
(g65
g51
NtRp1904
(dp1905
g54
(dp1906
sg63
g1713
sg56
(lp1907
g49
(g70
g51
NtRp1908
(dp1909
g54
(dp1910
g74
g75
ssg63
g1904
sg56
(lp1911
g1256
asbag49
(g70
g51
NtRp1912
(dp1913
g54
(dp1914
g81
g82
ssg63
g1904
sg56
(lp1915
S':'
asbag49
(g70
g51
NtRp1916
(dp1917
g54
(dp1918
sg63
g1904
sg56
(lp1919
g49
(g50
g51
NtRp1920
(dp1921
g54
(dp1922
g62
I4
ssg63
g1916
sg56
(lp1923
g1269
asbasbasbag49
(g65
g51
NtRp1924
(dp1925
g54
(dp1926
sg63
g1713
sg56
(lp1927
g49
(g70
g51
NtRp1928
(dp1929
g54
(dp1930
g74
g75
ssg63
g1924
sg56
(lp1931
g1320
asbag49
(g70
g51
NtRp1932
(dp1933
g54
(dp1934
g81
g82
ssg63
g1924
sg56
(lp1935
S':'
asbag49
(g70
g51
NtRp1936
(dp1937
g54
(dp1938
sg63
g1924
sg56
(lp1939
g49
(g50
g51
NtRp1940
(dp1941
g54
(dp1942
g62
I4
ssg63
g1936
sg56
(lp1943
g49
(g58
g51
NtRp1944
(dp1945
g54
(dp1946
g62
I3
ssg63
Nsg56
(lp1947
g49
(g65
g51
NtRp1948
(dp1949
g54
(dp1950
sg63
g1944
sg56
(lp1951
g49
(g70
g51
NtRp1952
(dp1953
g54
(dp1954
sg63
g1948
sg56
(lp1955
g49
(g50
g51
NtRp1956
(dp1957
g54
(dp1958
g62
I3
ssg63
g1952
sg56
(lp1959
S'1'
asbasbasbag49
(g65
g51
NtRp1960
(dp1961
g54
(dp1962
sg63
g1944
sg56
(lp1963
g49
(g70
g51
NtRp1964
(dp1965
g54
(dp1966
sg63
g1960
sg56
(lp1967
g49
(g50
g51
NtRp1968
(dp1969
g54
(dp1970
g62
I3
ssg63
g1964
sg56
(lp1971
S'99'
p1972
asbasbasbag49
(g65
g51
NtRp1973
(dp1974
g54
(dp1975
sg63
g1944
sg56
(lp1976
g49
(g70
g51
NtRp1977
(dp1978
g54
(dp1979
sg63
g1973
sg56
(lp1980
g49
(g50
g51
NtRp1981
(dp1982
g54
(dp1983
g62
I3
ssg63
g1977
sg56
(lp1984
S'7'
asbasbasbag49
(g65
g51
NtRp1985
(dp1986
g54
(dp1987
sg63
g1944
sg56
(lp1988
g49
(g70
g51
NtRp1989
(dp1990
g54
(dp1991
sg63
g1985
sg56
(lp1992
g49
(g50
g51
NtRp1993
(dp1994
g54
(dp1995
g62
I3
ssg63
g1989
sg56
(lp1996
S'datetime.datetime(2012, 3, 4, 22, 12, 8)'
p1997
asbasbasbag49
(g65
g51
NtRp1998
(dp1999
g54
(dp2000
sg63
g1944
sg56
(lp2001
g49
(g70
g51
NtRp2002
(dp2003
g54
(dp2004
sg63
g1998
sg56
(lp2005
g49
(g50
g51
NtRp2006
(dp2007
g54
(dp2008
g62
I3
ssg63
g2002
sg56
(lp2009
g1399
asbasbasbasbasbasbasbasbasbasbasbag49
(g65
g51
NtRp2010
(dp2011
g54
(dp2012
sg63
g59
sg56
(lp2013
g49
(g70
g51
NtRp2014
(dp2015
g54
(dp2016
g74
g75
ssg63
g2010
sg56
(lp2017
S'is_https'
p2018
asbag49
(g70
g51
NtRp2019
(dp2020
g54
(dp2021
g81
g82
ssg63
g2010
sg56
(lp2022
S':'
asbag49
(g70
g51
NtRp2023
(dp2024
g54
(dp2025
sg63
g2010
sg56
(lp2026
g49
(g50
g51
NtRp2027
(dp2028
g54
(dp2029
g62
I5
ssg63
g2023
sg56
(lp2030
g92
asbasbasbag49
(g65
g51
NtRp2031
(dp2032
g54
(dp2033
sg63
g59
sg56
(lp2034
g49
(g70
g51
NtRp2035
(dp2036
g54
(dp2037
g74
g75
ssg63
g2031
sg56
(lp2038
S'is_local'
p2039
asbag49
(g70
g51
NtRp2040
(dp2041
g54
(dp2042
g81
g82
ssg63
g2031
sg56
(lp2043
S':'
asbag49
(g70
g51
NtRp2044
(dp2045
g54
(dp2046
sg63
g2031
sg56
(lp2047
g49
(g50
g51
NtRp2048
(dp2049
g54
(dp2050
g62
I5
ssg63
g2044
sg56
(lp2051
g1508
asbasbasbag49
(g65
g51
NtRp2052
(dp2053
g54
(dp2054
sg63
g59
sg56
(lp2055
g49
(g70
g51
NtRp2056
(dp2057
g54
(dp2058
g74
g75
ssg63
g2052
sg56
(lp2059
S'is_restful'
p2060
asbag49
(g70
g51
NtRp2061
(dp2062
g54
(dp2063
g81
g82
ssg63
g2052
sg56
(lp2064
S':'
asbag49
(g70
g51
NtRp2065
(dp2066
g54
(dp2067
sg63
g2052
sg56
(lp2068
g49
(g50
g51
NtRp2069
(dp2070
g54
(dp2071
g62
I5
ssg63
g2065
sg56
(lp2072
g92
asbasbasbag49
(g65
g51
NtRp2073
(dp2074
g54
(dp2075
sg63
g59
sg56
(lp2076
g49
(g70
g51
NtRp2077
(dp2078
g54
(dp2079
g74
g75
ssg63
g2073
sg56
(lp2080
S'now'
p2081
asbag49
(g70
g51
NtRp2082
(dp2083
g54
(dp2084
g81
g82
ssg63
g2073
sg56
(lp2085
S':'
asbag49
(g70
g51
NtRp2086
(dp2087
g54
(dp2088
sg63
g2073
sg56
(lp2089
g49
(g50
g51
NtRp2090
(dp2091
g54
(dp2092
g62
I5
ssg63
g2086
sg56
(lp2093
S'datetime.datetime(2012, 3, 22, 1, 45, 13, 211273)'
p2094
asbasbasbag49
(g65
g51
NtRp2095
(dp2096
g54
(dp2097
sg63
g59
sg56
(lp2098
g49
(g70
g51
NtRp2099
(dp2100
g54
(dp2101
g74
g75
ssg63
g2095
sg56
(lp2102
S'post_vars'
p2103
asbag49
(g70
g51
NtRp2104
(dp2105
g54
(dp2106
g81
g82
ssg63
g2095
sg56
(lp2107
S':'
asbag49
(g70
g51
NtRp2108
(dp2109
g54
(dp2110
sg63
g2095
sg56
(lp2111
g49
(g50
g51
NtRp2112
(dp2113
g54
(dp2114
g62
I5
ssg63
g2108
sg56
(lp2115
g49
(g58
g51
NtRp2116
(dp2117
g54
(dp2118
g62
I4
ssg63
Nsg56
(lp2119
sbasbasbasbag49
(g65
g51
NtRp2120
(dp2121
g54
(dp2122
sg63
g59
sg56
(lp2123
g49
(g70
g51
NtRp2124
(dp2125
g54
(dp2126
g74
g75
ssg63
g2120
sg56
(lp2127
S'url'
p2128
asbag49
(g70
g51
NtRp2129
(dp2130
g54
(dp2131
g81
g82
ssg63
g2120
sg56
(lp2132
S':'
asbag49
(g70
g51
NtRp2133
(dp2134
g54
(dp2135
sg63
g2120
sg56
(lp2136
g49
(g50
g51
NtRp2137
(dp2138
g54
(dp2139
g62
I5
ssg63
g2133
sg56
(lp2140
S'/'
asbasbasbag49
(g65
g51
NtRp2141
(dp2142
g54
(dp2143
sg63
g59
sg56
(lp2144
g49
(g70
g51
NtRp2145
(dp2146
g54
(dp2147
g74
g75
ssg63
g2141
sg56
(lp2148
S'utcnow'
p2149
asbag49
(g70
g51
NtRp2150
(dp2151
g54
(dp2152
g81
g82
ssg63
g2141
sg56
(lp2153
S':'
asbag49
(g70
g51
NtRp2154
(dp2155
g54
(dp2156
sg63
g2141
sg56
(lp2157
g49
(g50
g51
NtRp2158
(dp2159
g54
(dp2160
g62
I5
ssg63
g2154
sg56
(lp2161
S'datetime.datetime(2012, 3, 22, 5, 45, 13, 211290)'
p2162
asbasbasbag49
(g65
g51
NtRp2163
(dp2164
g54
(dp2165
sg63
g59
sg56
(lp2166
g49
(g70
g51
NtRp2167
(dp2168
g54
(dp2169
g74
g75
ssg63
g2163
sg56
(lp2170
S'uuid'
p2171
asbag49
(g70
g51
NtRp2172
(dp2173
g54
(dp2174
g81
g82
ssg63
g2163
sg56
(lp2175
S':'
asbag49
(g70
g51
NtRp2176
(dp2177
g54
(dp2178
sg63
g2163
sg56
(lp2179
g49
(g50
g51
NtRp2180
(dp2181
g54
(dp2182
g62
I5
ssg63
g2176
sg56
(lp2183
S'udi0312/127.0.0.1.2012-03-22.01-45-13.0ff22158-84fe-46ec-8432-122a37e41da1'
p2184
asbasbasbag49
(g65
g51
NtRp2185
(dp2186
g54
(dp2187
sg63
g59
sg56
(lp2188
g49
(g70
g51
NtRp2189
(dp2190
g54
(dp2191
g74
g75
ssg63
g2185
sg56
(lp2192
S'vars'
p2193
asbag49
(g70
g51
NtRp2194
(dp2195
g54
(dp2196
g81
g82
ssg63
g2185
sg56
(lp2197
S':'
asbag49
(g70
g51
NtRp2198
(dp2199
g54
(dp2200
sg63
g2185
sg56
(lp2201
g49
(g50
g51
NtRp2202
(dp2203
g54
(dp2204
g62
I5
ssg63
g2198
sg56
(lp2205
g49
(g58
g51
NtRp2206
(dp2207
g54
(dp2208
g62
I4
ssg63
Nsg56
(lp2209
sbasbasbasbag49
(g65
g51
NtRp2210
(dp2211
g54
(dp2212
sg63
g59
sg56
(lp2213
g49
(g70
g51
NtRp2214
(dp2215
g54
(dp2216
g74
g75
ssg63
g2210
sg56
(lp2217
S'wsgi'
p2218
asbag49
(g70
g51
NtRp2219
(dp2220
g54
(dp2221
g81
g82
ssg63
g2210
sg56
(lp2222
S':'
asbag49
(g70
g51
NtRp2223
(dp2224
g54
(dp2225
sg63
g2210
sg56
(lp2226
g49
(g50
g51
NtRp2227
(dp2228
g54
(dp2229
g62
I5
ssg63
g2223
sg56
(lp2230
g49
(g58
g51
NtRp2231
(dp2232
g54
(dp2233
g62
I4
ssg63
Nsg56
(lp2234
g49
(g65
g51
NtRp2235
(dp2236
g54
(dp2237
sg63
g2231
sg56
(lp2238
g49
(g70
g51
NtRp2239
(dp2240
g54
(dp2241
g74
g75
ssg63
g2235
sg56
(lp2242
S'environ'
p2243
asbag49
(g70
g51
NtRp2244
(dp2245
g54
(dp2246
g81
g82
ssg63
g2235
sg56
(lp2247
S':'
asbag49
(g70
g51
NtRp2248
(dp2249
g54
(dp2250
sg63
g2235
sg56
(lp2251
g49
(g50
g51
NtRp2252
(dp2253
g54
(dp2254
g62
I4
ssg63
g2248
sg56
(lp2255
g49
(g58
g51
NtRp2256
(dp2257
g54
(dp2258
g62
I3
ssg63
Nsg56
(lp2259
g49
(g65
g51
NtRp2260
(dp2261
g54
(dp2262
sg63
g2256
sg56
(lp2263
g49
(g70
g51
NtRp2264
(dp2265
g54
(dp2266
g74
g75
ssg63
g2260
sg56
(lp2267
S'HTTP_ACCEPT'
p2268
asbag49
(g70
g51
NtRp2269
(dp2270
g54
(dp2271
g81
g82
ssg63
g2260
sg56
(lp2272
S':'
asbag49
(g70
g51
NtRp2273
(dp2274
g54
(dp2275
sg63
g2260
sg56
(lp2276
g49
(g50
g51
NtRp2277
(dp2278
g54
(dp2279
g62
I3
ssg63
g2273
sg56
(lp2280
g769
asbasbasbag49
(g65
g51
NtRp2281
(dp2282
g54
(dp2283
sg63
g2256
sg56
(lp2284
g49
(g70
g51
NtRp2285
(dp2286
g54
(dp2287
g74
g75
ssg63
g2281
sg56
(lp2288
S'HTTP_ACCEPT_CHARSET'
p2289
asbag49
(g70
g51
NtRp2290
(dp2291
g54
(dp2292
g81
g82
ssg63
g2281
sg56
(lp2293
S':'
asbag49
(g70
g51
NtRp2294
(dp2295
g54
(dp2296
sg63
g2281
sg56
(lp2297
g49
(g50
g51
NtRp2298
(dp2299
g54
(dp2300
g62
I3
ssg63
g2294
sg56
(lp2301
g791
asbasbasbag49
(g65
g51
NtRp2302
(dp2303
g54
(dp2304
sg63
g2256
sg56
(lp2305
g49
(g70
g51
NtRp2306
(dp2307
g54
(dp2308
g74
g75
ssg63
g2302
sg56
(lp2309
S'HTTP_ACCEPT_ENCODING'
p2310
asbag49
(g70
g51
NtRp2311
(dp2312
g54
(dp2313
g81
g82
ssg63
g2302
sg56
(lp2314
S':'
asbag49
(g70
g51
NtRp2315
(dp2316
g54
(dp2317
sg63
g2302
sg56
(lp2318
g49
(g50
g51
NtRp2319
(dp2320
g54
(dp2321
g62
I3
ssg63
g2315
sg56
(lp2322
g813
asbasbasbag49
(g65
g51
NtRp2323
(dp2324
g54
(dp2325
sg63
g2256
sg56
(lp2326
g49
(g70
g51
NtRp2327
(dp2328
g54
(dp2329
g74
g75
ssg63
g2323
sg56
(lp2330
S'HTTP_ACCEPT_LANGUAGE'
p2331
asbag49
(g70
g51
NtRp2332
(dp2333
g54
(dp2334
g81
g82
ssg63
g2323
sg56
(lp2335
S':'
asbag49
(g70
g51
NtRp2336
(dp2337
g54
(dp2338
sg63
g2323
sg56
(lp2339
g49
(g50
g51
NtRp2340
(dp2341
g54
(dp2342
g62
I3
ssg63
g2336
sg56
(lp2343
g835
asbasbasbag49
(g65
g51
NtRp2344
(dp2345
g54
(dp2346
sg63
g2256
sg56
(lp2347
g49
(g70
g51
NtRp2348
(dp2349
g54
(dp2350
g74
g75
ssg63
g2344
sg56
(lp2351
S'HTTP_CACHE_CONTROL'
p2352
asbag49
(g70
g51
NtRp2353
(dp2354
g54
(dp2355
g81
g82
ssg63
g2344
sg56
(lp2356
S':'
asbag49
(g70
g51
NtRp2357
(dp2358
g54
(dp2359
sg63
g2344
sg56
(lp2360
g49
(g50
g51
NtRp2361
(dp2362
g54
(dp2363
g62
I3
ssg63
g2357
sg56
(lp2364
g857
asbasbasbag49
(g65
g51
NtRp2365
(dp2366
g54
(dp2367
sg63
g2256
sg56
(lp2368
g49
(g70
g51
NtRp2369
(dp2370
g54
(dp2371
g74
g75
ssg63
g2365
sg56
(lp2372
S'HTTP_CONNECTION'
p2373
asbag49
(g70
g51
NtRp2374
(dp2375
g54
(dp2376
g81
g82
ssg63
g2365
sg56
(lp2377
S':'
asbag49
(g70
g51
NtRp2378
(dp2379
g54
(dp2380
sg63
g2365
sg56
(lp2381
g49
(g50
g51
NtRp2382
(dp2383
g54
(dp2384
g62
I3
ssg63
g2378
sg56
(lp2385
g879
asbasbasbag49
(g65
g51
NtRp2386
(dp2387
g54
(dp2388
sg63
g2256
sg56
(lp2389
g49
(g70
g51
NtRp2390
(dp2391
g54
(dp2392
g74
g75
ssg63
g2386
sg56
(lp2393
S'HTTP_COOKIE'
p2394
asbag49
(g70
g51
NtRp2395
(dp2396
g54
(dp2397
g81
g82
ssg63
g2386
sg56
(lp2398
S':'
asbag49
(g70
g51
NtRp2399
(dp2400
g54
(dp2401
sg63
g2386
sg56
(lp2402
g49
(g50
g51
NtRp2403
(dp2404
g54
(dp2405
g62
I3
ssg63
g2399
sg56
(lp2406
g901
asbasbasbag49
(g65
g51
NtRp2407
(dp2408
g54
(dp2409
sg63
g2256
sg56
(lp2410
g49
(g70
g51
NtRp2411
(dp2412
g54
(dp2413
g74
g75
ssg63
g2407
sg56
(lp2414
S'HTTP_HOST'
p2415
asbag49
(g70
g51
NtRp2416
(dp2417
g54
(dp2418
g81
g82
ssg63
g2407
sg56
(lp2419
S':'
asbag49
(g70
g51
NtRp2420
(dp2421
g54
(dp2422
sg63
g2407
sg56
(lp2423
g49
(g50
g51
NtRp2424
(dp2425
g54
(dp2426
g62
I3
ssg63
g2420
sg56
(lp2427
g923
asbasbasbag49
(g65
g51
NtRp2428
(dp2429
g54
(dp2430
sg63
g2256
sg56
(lp2431
g49
(g70
g51
NtRp2432
(dp2433
g54
(dp2434
g74
g75
ssg63
g2428
sg56
(lp2435
S'HTTP_REFERER'
p2436
asbag49
(g70
g51
NtRp2437
(dp2438
g54
(dp2439
g81
g82
ssg63
g2428
sg56
(lp2440
S':'
asbag49
(g70
g51
NtRp2441
(dp2442
g54
(dp2443
sg63
g2428
sg56
(lp2444
g49
(g50
g51
NtRp2445
(dp2446
g54
(dp2447
g62
I3
ssg63
g2441
sg56
(lp2448
g945
asbasbasbag49
(g65
g51
NtRp2449
(dp2450
g54
(dp2451
sg63
g2256
sg56
(lp2452
g49
(g70
g51
NtRp2453
(dp2454
g54
(dp2455
g74
g75
ssg63
g2449
sg56
(lp2456
S'HTTP_USER_AGENT'
p2457
asbag49
(g70
g51
NtRp2458
(dp2459
g54
(dp2460
g81
g82
ssg63
g2449
sg56
(lp2461
S':'
asbag49
(g70
g51
NtRp2462
(dp2463
g54
(dp2464
sg63
g2449
sg56
(lp2465
g49
(g50
g51
NtRp2466
(dp2467
g54
(dp2468
g62
I3
ssg63
g2462
sg56
(lp2469
g967
asbasbasbag49
(g65
g51
NtRp2470
(dp2471
g54
(dp2472
sg63
g2256
sg56
(lp2473
g49
(g70
g51
NtRp2474
(dp2475
g54
(dp2476
g74
g75
ssg63
g2470
sg56
(lp2477
S'PATH_INFO'
p2478
asbag49
(g70
g51
NtRp2479
(dp2480
g54
(dp2481
g81
g82
ssg63
g2470
sg56
(lp2482
S':'
asbag49
(g70
g51
NtRp2483
(dp2484
g54
(dp2485
sg63
g2470
sg56
(lp2486
g49
(g50
g51
NtRp2487
(dp2488
g54
(dp2489
g62
I3
ssg63
g2483
sg56
(lp2490
S'/'
asbasbasbag49
(g65
g51
NtRp2491
(dp2492
g54
(dp2493
sg63
g2256
sg56
(lp2494
g49
(g70
g51
NtRp2495
(dp2496
g54
(dp2497
g74
g75
ssg63
g2491
sg56
(lp2498
S'QUERY_STRING'
p2499
asbag49
(g70
g51
NtRp2500
(dp2501
g54
(dp2502
g81
g82
ssg63
g2491
sg56
(lp2503
S':'
asbag49
(g70
g51
NtRp2504
(dp2505
g54
(dp2506
sg63
g2491
sg56
(lp2507
g49
(g50
g51
NtRp2508
(dp2509
g54
(dp2510
g62
I3
ssg63
g2504
sg56
(lp2511
S''
asbasbasbag49
(g65
g51
NtRp2512
(dp2513
g54
(dp2514
sg63
g2256
sg56
(lp2515
g49
(g70
g51
NtRp2516
(dp2517
g54
(dp2518
g74
g75
ssg63
g2512
sg56
(lp2519
S'REMOTE_ADDR'
p2520
asbag49
(g70
g51
NtRp2521
(dp2522
g54
(dp2523
g81
g82
ssg63
g2512
sg56
(lp2524
S':'
asbag49
(g70
g51
NtRp2525
(dp2526
g54
(dp2527
sg63
g2512
sg56
(lp2528
g49
(g50
g51
NtRp2529
(dp2530
g54
(dp2531
g62
I3
ssg63
g2525
sg56
(lp2532
g182
asbasbasbag49
(g65
g51
NtRp2533
(dp2534
g54
(dp2535
sg63
g2256
sg56
(lp2536
g49
(g70
g51
NtRp2537
(dp2538
g54
(dp2539
g74
g75
ssg63
g2533
sg56
(lp2540
S'REMOTE_PORT'
p2541
asbag49
(g70
g51
NtRp2542
(dp2543
g54
(dp2544
g81
g82
ssg63
g2533
sg56
(lp2545
S':'
asbag49
(g70
g51
NtRp2546
(dp2547
g54
(dp2548
sg63
g2533
sg56
(lp2549
g49
(g50
g51
NtRp2550
(dp2551
g54
(dp2552
g62
I3
ssg63
g2546
sg56
(lp2553
g1094
asbasbasbag49
(g65
g51
NtRp2554
(dp2555
g54
(dp2556
sg63
g2256
sg56
(lp2557
g49
(g70
g51
NtRp2558
(dp2559
g54
(dp2560
g74
g75
ssg63
g2554
sg56
(lp2561
S'REQUEST_METHOD'
p2562
asbag49
(g70
g51
NtRp2563
(dp2564
g54
(dp2565
g81
g82
ssg63
g2554
sg56
(lp2566
S':'
asbag49
(g70
g51
NtRp2567
(dp2568
g54
(dp2569
sg63
g2554
sg56
(lp2570
g49
(g50
g51
NtRp2571
(dp2572
g54
(dp2573
g62
I3
ssg63
g2567
sg56
(lp2574
g1116
asbasbasbag49
(g65
g51
NtRp2575
(dp2576
g54
(dp2577
sg63
g2256
sg56
(lp2578
g49
(g70
g51
NtRp2579
(dp2580
g54
(dp2581
g74
g75
ssg63
g2575
sg56
(lp2582
S'REQUEST_URI'
p2583
asbag49
(g70
g51
NtRp2584
(dp2585
g54
(dp2586
g81
g82
ssg63
g2575
sg56
(lp2587
S':'
asbag49
(g70
g51
NtRp2588
(dp2589
g54
(dp2590
sg63
g2575
sg56
(lp2591
g49
(g50
g51
NtRp2592
(dp2593
g54
(dp2594
g62
I3
ssg63
g2588
sg56
(lp2595
g1138
asbasbasbag49
(g65
g51
NtRp2596
(dp2597
g54
(dp2598
sg63
g2256
sg56
(lp2599
g49
(g70
g51
NtRp2600
(dp2601
g54
(dp2602
g74
g75
ssg63
g2596
sg56
(lp2603
S'SCRIPT_NAME'
p2604
asbag49
(g70
g51
NtRp2605
(dp2606
g54
(dp2607
g81
g82
ssg63
g2596
sg56
(lp2608
S':'
asbag49
(g70
g51
NtRp2609
(dp2610
g54
(dp2611
sg63
g2596
sg56
(lp2612
g49
(g50
g51
NtRp2613
(dp2614
g54
(dp2615
g62
I3
ssg63
g2609
sg56
(lp2616
S''
asbasbasbag49
(g65
g51
NtRp2617
(dp2618
g54
(dp2619
sg63
g2256
sg56
(lp2620
g49
(g70
g51
NtRp2621
(dp2622
g54
(dp2623
g74
g75
ssg63
g2617
sg56
(lp2624
S'SERVER_NAME'
p2625
asbag49
(g70
g51
NtRp2626
(dp2627
g54
(dp2628
g81
g82
ssg63
g2617
sg56
(lp2629
S':'
asbag49
(g70
g51
NtRp2630
(dp2631
g54
(dp2632
sg63
g2617
sg56
(lp2633
g49
(g50
g51
NtRp2634
(dp2635
g54
(dp2636
g62
I3
ssg63
g2630
sg56
(lp2637
g1181
asbasbasbag49
(g65
g51
NtRp2638
(dp2639
g54
(dp2640
sg63
g2256
sg56
(lp2641
g49
(g70
g51
NtRp2642
(dp2643
g54
(dp2644
g74
g75
ssg63
g2638
sg56
(lp2645
S'SERVER_PORT'
p2646
asbag49
(g70
g51
NtRp2647
(dp2648
g54
(dp2649
g81
g82
ssg63
g2638
sg56
(lp2650
S':'
asbag49
(g70
g51
NtRp2651
(dp2652
g54
(dp2653
sg63
g2638
sg56
(lp2654
g49
(g50
g51
NtRp2655
(dp2656
g54
(dp2657
g62
I3
ssg63
g2651
sg56
(lp2658
g1203
asbasbasbag49
(g65
g51
NtRp2659
(dp2660
g54
(dp2661
sg63
g2256
sg56
(lp2662
g49
(g70
g51
NtRp2663
(dp2664
g54
(dp2665
g74
g75
ssg63
g2659
sg56
(lp2666
S'SERVER_PROTOCOL'
p2667
asbag49
(g70
g51
NtRp2668
(dp2669
g54
(dp2670
g81
g82
ssg63
g2659
sg56
(lp2671
S':'
asbag49
(g70
g51
NtRp2672
(dp2673
g54
(dp2674
sg63
g2659
sg56
(lp2675
g49
(g50
g51
NtRp2676
(dp2677
g54
(dp2678
g62
I3
ssg63
g2672
sg56
(lp2679
g1225
asbasbasbag49
(g65
g51
NtRp2680
(dp2681
g54
(dp2682
sg63
g2256
sg56
(lp2683
g49
(g70
g51
NtRp2684
(dp2685
g54
(dp2686
g74
g75
ssg63
g2680
sg56
(lp2687
S'SERVER_SOFTWARE'
p2688
asbag49
(g70
g51
NtRp2689
(dp2690
g54
(dp2691
g81
g82
ssg63
g2680
sg56
(lp2692
S':'
asbag49
(g70
g51
NtRp2693
(dp2694
g54
(dp2695
sg63
g2680
sg56
(lp2696
g49
(g50
g51
NtRp2697
(dp2698
g54
(dp2699
g62
I3
ssg63
g2693
sg56
(lp2700
g1247
asbasbasbag49
(g65
g51
NtRp2701
(dp2702
g54
(dp2703
sg63
g2256
sg56
(lp2704
g49
(g70
g51
NtRp2705
(dp2706
g54
(dp2707
g74
g75
ssg63
g2701
sg56
(lp2708
S'WEB2PY_ORIGINAL_URI'
p2709
asbag49
(g70
g51
NtRp2710
(dp2711
g54
(dp2712
g81
g82
ssg63
g2701
sg56
(lp2713
S':'
asbag49
(g70
g51
NtRp2714
(dp2715
g54
(dp2716
sg63
g2701
sg56
(lp2717
g49
(g50
g51
NtRp2718
(dp2719
g54
(dp2720
g62
I3
ssg63
g2714
sg56
(lp2721
S'/'
asbasbasbag49
(g65
g51
NtRp2722
(dp2723
g54
(dp2724
sg63
g2256
sg56
(lp2725
g49
(g70
g51
NtRp2726
(dp2727
g54
(dp2728
g74
g75
ssg63
g2722
sg56
(lp2729
S'wsgi.errors'
p2730
asbag49
(g70
g51
NtRp2731
(dp2732
g54
(dp2733
g81
g82
ssg63
g2722
sg56
(lp2734
S':'
asbag49
(g70
g51
NtRp2735
(dp2736
g54
(dp2737
sg63
g2722
sg56
(lp2738
g49
(g50
g51
NtRp2739
(dp2740
g54
(dp2741
g62
I3
ssg63
g2735
sg56
(lp2742
S"<open file '<stderr>', mode 'w' at 0x4220b0>"
p2743
asbasbasbag49
(g65
g51
NtRp2744
(dp2745
g54
(dp2746
sg63
g2256
sg56
(lp2747
g49
(g70
g51
NtRp2748
(dp2749
g54
(dp2750
g74
g75
ssg63
g2744
sg56
(lp2751
S'wsgi.file_wrapper'
p2752
asbag49
(g70
g51
NtRp2753
(dp2754
g54
(dp2755
g81
g82
ssg63
g2744
sg56
(lp2756
S':'
asbag49
(g70
g51
NtRp2757
(dp2758
g54
(dp2759
sg63
g2744
sg56
(lp2760
g49
(g50
g51
NtRp2761
(dp2762
g54
(dp2763
g62
I3
ssg63
g2757
sg56
(lp2764
S'<class wsgiref.util.FileWrapper at 0x215e6c0>'
p2765
asbasbasbag49
(g65
g51
NtRp2766
(dp2767
g54
(dp2768
sg63
g2256
sg56
(lp2769
g49
(g70
g51
NtRp2770
(dp2771
g54
(dp2772
g74
g75
ssg63
g2766
sg56
(lp2773
S'wsgi.input'
p2774
asbag49
(g70
g51
NtRp2775
(dp2776
g54
(dp2777
g81
g82
ssg63
g2766
sg56
(lp2778
S':'
asbag49
(g70
g51
NtRp2779
(dp2780
g54
(dp2781
sg63
g2766
sg56
(lp2782
g49
(g50
g51
NtRp2783
(dp2784
g54
(dp2785
g62
I3
ssg63
g2779
sg56
(lp2786
S'<cStringIO.StringO object at 0xa249b20>'
p2787
asbasbasbag49
(g65
g51
NtRp2788
(dp2789
g54
(dp2790
sg63
g2256
sg56
(lp2791
g49
(g70
g51
NtRp2792
(dp2793
g54
(dp2794
g74
g75
ssg63
g2788
sg56
(lp2795
S'wsgi.multiprocess'
p2796
asbag49
(g70
g51
NtRp2797
(dp2798
g54
(dp2799
g81
g82
ssg63
g2788
sg56
(lp2800
S':'
asbag49
(g70
g51
NtRp2801
(dp2802
g54
(dp2803
sg63
g2788
sg56
(lp2804
g49
(g50
g51
NtRp2805
(dp2806
g54
(dp2807
g62
I3
ssg63
g2801
sg56
(lp2808
g92
asbasbasbag49
(g65
g51
NtRp2809
(dp2810
g54
(dp2811
sg63
g2256
sg56
(lp2812
g49
(g70
g51
NtRp2813
(dp2814
g54
(dp2815
g74
g75
ssg63
g2809
sg56
(lp2816
S'wsgi.multithread'
p2817
asbag49
(g70
g51
NtRp2818
(dp2819
g54
(dp2820
g81
g82
ssg63
g2809
sg56
(lp2821
S':'
asbag49
(g70
g51
NtRp2822
(dp2823
g54
(dp2824
sg63
g2809
sg56
(lp2825
g49
(g50
g51
NtRp2826
(dp2827
g54
(dp2828
g62
I3
ssg63
g2822
sg56
(lp2829
g1508
asbasbasbag49
(g65
g51
NtRp2830
(dp2831
g54
(dp2832
sg63
g2256
sg56
(lp2833
g49
(g70
g51
NtRp2834
(dp2835
g54
(dp2836
g74
g75
ssg63
g2830
sg56
(lp2837
S'wsgi.run_once'
p2838
asbag49
(g70
g51
NtRp2839
(dp2840
g54
(dp2841
g81
g82
ssg63
g2830
sg56
(lp2842
S':'
asbag49
(g70
g51
NtRp2843
(dp2844
g54
(dp2845
sg63
g2830
sg56
(lp2846
g49
(g50
g51
NtRp2847
(dp2848
g54
(dp2849
g62
I3
ssg63
g2843
sg56
(lp2850
g92
asbasbasbag49
(g65
g51
NtRp2851
(dp2852
g54
(dp2853
sg63
g2256
sg56
(lp2854
g49
(g70
g51
NtRp2855
(dp2856
g54
(dp2857
g74
g75
ssg63
g2851
sg56
(lp2858
S'wsgi.url_scheme'
p2859
asbag49
(g70
g51
NtRp2860
(dp2861
g54
(dp2862
g81
g82
ssg63
g2851
sg56
(lp2863
S':'
asbag49
(g70
g51
NtRp2864
(dp2865
g54
(dp2866
sg63
g2851
sg56
(lp2867
g49
(g50
g51
NtRp2868
(dp2869
g54
(dp2870
g62
I3
ssg63
g2864
sg56
(lp2871
g1551
asbasbasbag49
(g65
g51
NtRp2872
(dp2873
g54
(dp2874
sg63
g2256
sg56
(lp2875
g49
(g70
g51
NtRp2876
(dp2877
g54
(dp2878
g74
g75
ssg63
g2872
sg56
(lp2879
S'wsgi.version'
p2880
asbag49
(g70
g51
NtRp2881
(dp2882
g54
(dp2883
g81
g82
ssg63
g2872
sg56
(lp2884
S':'
asbag49
(g70
g51
NtRp2885
(dp2886
g54
(dp2887
sg63
g2872
sg56
(lp2888
g49
(g50
g51
NtRp2889
(dp2890
g54
(dp2891
g62
I3
ssg63
g2885
sg56
(lp2892
S'1'
asbasbasbasbasbasbasbasbasbasbasbasbasbsS'frames'
p2893
(lp2894
(dp2895
S'file'
p2896
S'/users/udimilo/Documents/web2py/gluon/restricted.py'
p2897
sS'dump'
p2898
(dp2899
S'environment'
p2900
S"{'A': <class 'gluon.html.A'>, 'Auth': <class 'gluon.tools.Auth'>, 'B': <class 'gluon.html.B'>, 'BEAUTIFY': <class 'gluon.html.BEAUTIFY'>, 'BODY': <class 'gluon.html.BODY'>, 'BR': <class 'gluon.html.BR'>, 'BUTTON': <class 'gluon.html.BUTTON'>, 'CAT': <class 'gluon.html.CAT'>, 'CENTER': <class 'gluon.html.CENTER'>, 'CLEANUP': <class 'gluon.validators.CLEANUP'>, ...}"
p2901
sS'ccode'
p2902
S'<code object <module> at 0xa674c80, file "/Users...ications/udi0312/controllers/default.py", line 2>'
p2903
ssS'lnum'
p2904
I205
sS'lines'
p2905
(dp2906
I200
S'    try:'
p2907
sI201
S'        if type(code) == types.CodeType:'
p2908
sI202
S'            ccode = code'
p2909
sI203
S'        else:'
p2910
sI204
S'            ccode = compile2(code,layer)'
p2911
sI205
S'        exec ccode in environment'
p2912
sI206
S'    except HTTP:'
p2913
sI207
S'        raise'
p2914
sI208
S'    except RestrictedError:'
p2915
sI209
S'        # do not encapsulate (obfuscate) the original RestrictedError'
p2916
ssS'call'
p2917
S"(code='# -*- coding: utf-8 -*-\\nimport feedparser\\nimport...=crud())\\n\\nresponse._vars=response._caller(index)\\n', environment={'A': <class 'gluon.html.A'>, 'Auth': <class 'gluon.tools.Auth'>, 'B': <class 'gluon.html.B'>, 'BEAUTIFY': <class 'gluon.html.BEAUTIFY'>, 'BODY': <class 'gluon.html.BODY'>, 'BR': <class 'gluon.html.BR'>, 'BUTTON': <class 'gluon.html.BUTTON'>, 'CAT': <class 'gluon.html.CAT'>, 'CENTER': <class 'gluon.html.CENTER'>, 'CLEANUP': <class 'gluon.validators.CLEANUP'>, ...}, layer='/Users/udimilo/Documents/web2py/applications/udi0312/controllers/default.py')"
p2918
sS'func'
p2919
S'restricted'
p2920
sa(dp2921
g2896
S'/Users/udimilo/Documents/web2py/applications/udi0312/controllers/default.py'
p2922
sg2898
(dp2923
sg2904
I230
sg2905
(dp2924
I224
S"      A('table',_href=URL('data/tables',user_signature=True))"
p2925
sI225
S'    or with the signed load operator'
p2926
sI226
S"      LOAD('default','data.load',args='tables',ajax=True,user_signature=True)"
p2927
sI227
S'    """'
p2928
sI228
S'    return dict(form=crud())'
p2929
sI219
S'    http://..../[app]/default/data/update/[table]/[id]'
p2930
sI220
S'    http://..../[app]/default/data/delete/[table]/[id]'
p2931
sI221
S'    http://..../[app]/default/data/select/[table]'
p2932
sI222
S'    http://..../[app]/default/data/search/[table]'
p2933
sI223
S'    but URLs must be signed, i.e. linked with'
p2934
ssg2917
S'()'
p2935
sg2919
S'<module>'
p2936
sa(dp2937
g2896
S'/users/udimilo/Documents/web2py/gluon/globals.py'
p2938
sg2898
(dp2939
S'self'
p2940
S'undefined'
p2941
sS'f'
S'<function index at 0xa9383f0>'
p2942
ssg2904
I173
sg2905
(dp2943
I168
S'        self.menu = []             # used by the default view layout'
p2944
sI169
S'        self.files = []            # used by web2py_ajax.html'
p2945
sI170
S'        self.generic_patterns = [] # patterns to allow generic views'
p2946
sI171
S"        self.delimiters = ('{{','}}')"
p2947
sI172
S'        self._vars = None'
p2948
sI173
S'        self._caller = lambda f: f()'
p2949
sI174
S'        self._view_environment = None'
p2950
sI175
S'        self._custom_commit = None'
p2951
sI176
S'        self._custom_rollback = None'
p2952
sI177
S''
ssg2917
S'(f=<function index at 0xa9383f0>)'
p2953
sg2919
S'<lambda>'
p2954
sa(dp2955
g2896
S'/Users/udimilo/Documents/web2py/applications/udi0312/controllers/default.py'
p2956
sg2898
(dp2957
S'auth.user'
p2958
S"<Storage {'first_name': 'Udi', 'last_name': 'Mil...484a3f64a3468', 'registration_key': '', 'id': 1}>"
p2959
sS'global get_pins'
p2960
S'<function get_pins at 0xa4c8df0>'
p2961
sS'result'
p2962
g2941
sS'global auth'
p2963
S'<gluon.tools.Auth object at 0x6dada70>'
p2964
ssg2904
I101
sg2905
(dp2965
I96
S'    boards = db(db.board.user==auth.user.id).select() if auth.user else []'
p2966
sI97
S''
sI98
S'    if auth.user is None:'
p2967
sI99
S'        result = get_all_pins()'
p2968
sI100
S'    else:'
p2969
sI101
S'        result = get_pins([auth.user])'
p2970
sI102
S'        rels = db(db.user_user.follower == auth.user.id).select()'
p2971
sI103
S''
sI104
S''
sI105
S'        #for r in rels:'
p2972
ssg2917
S'()'
p2973
sg2919
g1666
sa(dp2974
g2896
S'/Users/udimilo/Documents/web2py/applications/udi0312/controllers/default.py'
p2975
sg2898
(dp2976
S'pins'
p2977
S'<gluon.dal.Rows object at 0xa103b70>'
p2978
sS'global populate_pins'
p2979
S'<function populate_pins at 0xa4c8e30>'
p2980
ssg2904
I85
sg2905
(dp2981
I80
S'    for b in boards:'
p2982
sI81
S"        query += 'db(db.pin.board==%d).select()|' %b.id"
p2983
sI82
S'    query = query[:-1]'
p2984
sI83
S'    pins = eval(query)'
p2985
sI84
S''
sI85
S'    return populate_pins(pins)'
p2986
sI86
S''
sI87
S'def get_all_pins():'
p2987
sI88
S'    pins = db().select(db.pin.ALL, orderby=~db.pin.created_on)'
p2988
sI89
S'    return populate_pins(pins)'
p2989
ssg2917
S"(users=[<Storage {'first_name': 'Udi', 'last_name': 'Mil...484a3f64a3468', 'registration_key': '', 'id': 1}>])"
p2990
sg2919
S'get_pins'
p2991
sa(dp2992
g2896
S'/Users/udimilo/Documents/web2py/applications/udi0312/controllers/default.py'
p2993
sg2898
(dp2994
S'original_ids'
p2995
S'set([None, 26, 38])'
p2996
ssg2904
I19
sg2905
(dp2997
I14
S'    dic_pins = {}'
p2998
sI15
S'    for p in pins:'
p2999
sI16
S'        dic_pins[p.id] = p'
p3000
sI17
S'    original_ids = set(map(lambda p: p.original_pin, pins))'
p3001
sI18
S'    if len(original_ids) > 0:'
p3002
sI19
S'        return ", ".join(original_ids)'
p3003
sI20
S"        query = ''"
p3004
sI21
S'        for id in original_ids:'
p3005
sI22
S'             if id is not None:'
p3006
sI23
S"                 query += 'db(db.pin.id==%d).select()|' %id"
p3007
ssg2917
S'(pins=<gluon.dal.Rows object at 0xa103b70>)'
p3008
sg2919
S'populate_pins'
p3009
sasS'pyver'
p3010
S'Python 2.5.4: /Library/Frameworks/Python.framework/Versions/2.5/Resources/Python.app/Contents/MacOS/Python'
p3011
sS'session'
p3012
g49
(g50
g51
NtRp3013
(dp3014
g54
(dp3015
sg56
(lp3016
g49
(g58
g51
NtRp3017
(dp3018
g54
(dp3019
g62
I5
ssg63
Nsg56
(lp3020
g49
(g65
g51
NtRp3021
(dp3022
g54
(dp3023
sg63
g3017
sg56
(lp3024
g49
(g70
g51
NtRp3025
(dp3026
g54
(dp3027
g74
g75
ssg63
g3021
sg56
(lp3028
S'auth'
p3029
asbag49
(g70
g51
NtRp3030
(dp3031
g54
(dp3032
g81
g82
ssg63
g3021
sg56
(lp3033
S':'
asbag49
(g70
g51
NtRp3034
(dp3035
g54
(dp3036
sg63
g3021
sg56
(lp3037
g49
(g50
g51
NtRp3038
(dp3039
g54
(dp3040
g62
I5
ssg63
g3034
sg56
(lp3041
g49
(g58
g51
NtRp3042
(dp3043
g54
(dp3044
g62
I4
ssg63
Nsg56
(lp3045
g49
(g65
g51
NtRp3046
(dp3047
g54
(dp3048
sg63
g3042
sg56
(lp3049
g49
(g70
g51
NtRp3050
(dp3051
g54
(dp3052
g74
g75
ssg63
g3046
sg56
(lp3053
S'expiration'
p3054
asbag49
(g70
g51
NtRp3055
(dp3056
g54
(dp3057
g81
g82
ssg63
g3046
sg56
(lp3058
S':'
asbag49
(g70
g51
NtRp3059
(dp3060
g54
(dp3061
sg63
g3046
sg56
(lp3062
g49
(g50
g51
NtRp3063
(dp3064
g54
(dp3065
g62
I4
ssg63
g3059
sg56
(lp3066
S'2592000'
p3067
asbasbasbag49
(g65
g51
NtRp3068
(dp3069
g54
(dp3070
sg63
g3042
sg56
(lp3071
g49
(g70
g51
NtRp3072
(dp3073
g54
(dp3074
g74
g75
ssg63
g3068
sg56
(lp3075
S'hmac_key'
p3076
asbag49
(g70
g51
NtRp3077
(dp3078
g54
(dp3079
g81
g82
ssg63
g3068
sg56
(lp3080
S':'
asbag49
(g70
g51
NtRp3081
(dp3082
g54
(dp3083
sg63
g3068
sg56
(lp3084
g49
(g50
g51
NtRp3085
(dp3086
g54
(dp3087
g62
I4
ssg63
g3081
sg56
(lp3088
S'682a8990-92ab-4cfe-abdd-6f7995dce83e'
p3089
asbasbasbag49
(g65
g51
NtRp3090
(dp3091
g54
(dp3092
sg63
g3042
sg56
(lp3093
g49
(g70
g51
NtRp3094
(dp3095
g54
(dp3096
g74
g75
ssg63
g3090
sg56
(lp3097
S'last_visit'
p3098
asbag49
(g70
g51
NtRp3099
(dp3100
g54
(dp3101
g81
g82
ssg63
g3090
sg56
(lp3102
S':'
asbag49
(g70
g51
NtRp3103
(dp3104
g54
(dp3105
sg63
g3090
sg56
(lp3106
g49
(g50
g51
NtRp3107
(dp3108
g54
(dp3109
g62
I4
ssg63
g3103
sg56
(lp3110
S'datetime.datetime(2012, 3, 22, 1, 32, 37, 41757)'
p3111
asbasbasbag49
(g65
g51
NtRp3112
(dp3113
g54
(dp3114
sg63
g3042
sg56
(lp3115
g49
(g70
g51
NtRp3116
(dp3117
g54
(dp3118
g74
g75
ssg63
g3112
sg56
(lp3119
S'remember'
p3120
asbag49
(g70
g51
NtRp3121
(dp3122
g54
(dp3123
g81
g82
ssg63
g3112
sg56
(lp3124
S':'
asbag49
(g70
g51
NtRp3125
(dp3126
g54
(dp3127
sg63
g3112
sg56
(lp3128
g49
(g50
g51
NtRp3129
(dp3130
g54
(dp3131
g62
I4
ssg63
g3125
sg56
(lp3132
g1508
asbasbasbag49
(g65
g51
NtRp3133
(dp3134
g54
(dp3135
sg63
g3042
sg56
(lp3136
g49
(g70
g51
NtRp3137
(dp3138
g54
(dp3139
g74
g75
ssg63
g3133
sg56
(lp3140
S'user'
p3141
asbag49
(g70
g51
NtRp3142
(dp3143
g54
(dp3144
g81
g82
ssg63
g3133
sg56
(lp3145
S':'
asbag49
(g70
g51
NtRp3146
(dp3147
g54
(dp3148
sg63
g3133
sg56
(lp3149
g49
(g50
g51
NtRp3150
(dp3151
g54
(dp3152
g62
I4
ssg63
g3146
sg56
(lp3153
g49
(g58
g51
NtRp3154
(dp3155
g54
(dp3156
g62
I3
ssg63
Nsg56
(lp3157
g49
(g65
g51
NtRp3158
(dp3159
g54
(dp3160
sg63
g3154
sg56
(lp3161
g49
(g70
g51
NtRp3162
(dp3163
g54
(dp3164
g74
g75
ssg63
g3158
sg56
(lp3165
S'email'
p3166
asbag49
(g70
g51
NtRp3167
(dp3168
g54
(dp3169
g81
g82
ssg63
g3158
sg56
(lp3170
S':'
asbag49
(g70
g51
NtRp3171
(dp3172
g54
(dp3173
sg63
g3158
sg56
(lp3174
g49
(g50
g51
NtRp3175
(dp3176
g54
(dp3177
g62
I3
ssg63
g3171
sg56
(lp3178
S'udimilo@gmail.com'
p3179
asbasbasbag49
(g65
g51
NtRp3180
(dp3181
g54
(dp3182
sg63
g3154
sg56
(lp3183
g49
(g70
g51
NtRp3184
(dp3185
g54
(dp3186
g74
g75
ssg63
g3180
sg56
(lp3187
S'first_name'
p3188
asbag49
(g70
g51
NtRp3189
(dp3190
g54
(dp3191
g81
g82
ssg63
g3180
sg56
(lp3192
S':'
asbag49
(g70
g51
NtRp3193
(dp3194
g54
(dp3195
sg63
g3180
sg56
(lp3196
g49
(g50
g51
NtRp3197
(dp3198
g54
(dp3199
g62
I3
ssg63
g3193
sg56
(lp3200
S'Udi'
p3201
asbasbasbag49
(g65
g51
NtRp3202
(dp3203
g54
(dp3204
sg63
g3154
sg56
(lp3205
g49
(g70
g51
NtRp3206
(dp3207
g54
(dp3208
g74
g75
ssg63
g3202
sg56
(lp3209
S'id'
p3210
asbag49
(g70
g51
NtRp3211
(dp3212
g54
(dp3213
g81
g82
ssg63
g3202
sg56
(lp3214
S':'
asbag49
(g70
g51
NtRp3215
(dp3216
g54
(dp3217
sg63
g3202
sg56
(lp3218
g49
(g50
g51
NtRp3219
(dp3220
g54
(dp3221
g62
I3
ssg63
g3215
sg56
(lp3222
S'1'
asbasbasbag49
(g65
g51
NtRp3223
(dp3224
g54
(dp3225
sg63
g3154
sg56
(lp3226
g49
(g70
g51
NtRp3227
(dp3228
g54
(dp3229
g74
g75
ssg63
g3223
sg56
(lp3230
S'last_name'
p3231
asbag49
(g70
g51
NtRp3232
(dp3233
g54
(dp3234
g81
g82
ssg63
g3223
sg56
(lp3235
S':'
asbag49
(g70
g51
NtRp3236
(dp3237
g54
(dp3238
sg63
g3223
sg56
(lp3239
g49
(g50
g51
NtRp3240
(dp3241
g54
(dp3242
g62
I3
ssg63
g3236
sg56
(lp3243
S'Milo'
p3244
asbasbasbag49
(g65
g51
NtRp3245
(dp3246
g54
(dp3247
sg63
g3154
sg56
(lp3248
g49
(g70
g51
NtRp3249
(dp3250
g54
(dp3251
g74
g75
ssg63
g3245
sg56
(lp3252
S'password'
p3253
asbag49
(g70
g51
NtRp3254
(dp3255
g54
(dp3256
g81
g82
ssg63
g3245
sg56
(lp3257
S':'
asbag49
(g70
g51
NtRp3258
(dp3259
g54
(dp3260
sg63
g3245
sg56
(lp3261
g49
(g50
g51
NtRp3262
(dp3263
g54
(dp3264
g62
I3
ssg63
g3258
sg56
(lp3265
S'7a6e3c6a68ceed66634484a3f64a3468'
p3266
asbasbasbag49
(g65
g51
NtRp3267
(dp3268
g54
(dp3269
sg63
g3154
sg56
(lp3270
g49
(g70
g51
NtRp3271
(dp3272
g54
(dp3273
g74
g75
ssg63
g3267
sg56
(lp3274
S'registration_id'
p3275
asbag49
(g70
g51
NtRp3276
(dp3277
g54
(dp3278
g81
g82
ssg63
g3267
sg56
(lp3279
S':'
asbag49
(g70
g51
NtRp3280
(dp3281
g54
(dp3282
sg63
g3267
sg56
(lp3283
g49
(g50
g51
NtRp3284
(dp3285
g54
(dp3286
g62
I3
ssg63
g3280
sg56
(lp3287
S''
asbasbasbag49
(g65
g51
NtRp3288
(dp3289
g54
(dp3290
sg63
g3154
sg56
(lp3291
g49
(g70
g51
NtRp3292
(dp3293
g54
(dp3294
g74
g75
ssg63
g3288
sg56
(lp3295
S'registration_key'
p3296
asbag49
(g70
g51
NtRp3297
(dp3298
g54
(dp3299
g81
g82
ssg63
g3288
sg56
(lp3300
S':'
asbag49
(g70
g51
NtRp3301
(dp3302
g54
(dp3303
sg63
g3288
sg56
(lp3304
g49
(g50
g51
NtRp3305
(dp3306
g54
(dp3307
g62
I3
ssg63
g3301
sg56
(lp3308
S''
asbasbasbag49
(g65
g51
NtRp3309
(dp3310
g54
(dp3311
sg63
g3154
sg56
(lp3312
g49
(g70
g51
NtRp3313
(dp3314
g54
(dp3315
g74
g75
ssg63
g3309
sg56
(lp3316
S'reset_password_key'
p3317
asbag49
(g70
g51
NtRp3318
(dp3319
g54
(dp3320
g81
g82
ssg63
g3309
sg56
(lp3321
S':'
asbag49
(g70
g51
NtRp3322
(dp3323
g54
(dp3324
sg63
g3309
sg56
(lp3325
g49
(g50
g51
NtRp3326
(dp3327
g54
(dp3328
g62
I3
ssg63
g3322
sg56
(lp3329
S''
asbasbasbasbasbasbasbag49
(g65
g51
NtRp3330
(dp3331
g54
(dp3332
sg63
g3042
sg56
(lp3333
g49
(g70
g51
NtRp3334
(dp3335
g54
(dp3336
g74
g75
ssg63
g3330
sg56
(lp3337
S'user_groups'
p3338
asbag49
(g70
g51
NtRp3339
(dp3340
g54
(dp3341
g81
g82
ssg63
g3330
sg56
(lp3342
S':'
asbag49
(g70
g51
NtRp3343
(dp3344
g54
(dp3345
sg63
g3330
sg56
(lp3346
g49
(g50
g51
NtRp3347
(dp3348
g54
(dp3349
g62
I4
ssg63
g3343
sg56
(lp3350
g49
(g58
g51
NtRp3351
(dp3352
g54
(dp3353
g62
I3
ssg63
Nsg56
(lp3354
g49
(g65
g51
NtRp3355
(dp3356
g54
(dp3357
sg63
g3351
sg56
(lp3358
g49
(g70
g51
NtRp3359
(dp3360
g54
(dp3361
g74
g75
ssg63
g3355
sg56
(lp3362
S'1'
asbag49
(g70
g51
NtRp3363
(dp3364
g54
(dp3365
g81
g82
ssg63
g3355
sg56
(lp3366
S':'
asbag49
(g70
g51
NtRp3367
(dp3368
g54
(dp3369
sg63
g3355
sg56
(lp3370
g49
(g50
g51
NtRp3371
(dp3372
g54
(dp3373
g62
I3
ssg63
g3367
sg56
(lp3374
S'user_1'
p3375
asbasbasbasbasbasbasbasbasbasbasbasbasbsS'etype'
p3376
S"<type 'exceptions.TypeError'>"
p3377
sS'date'
p3378
S'Thu Mar 22 01:45:13 2012'
p3379
sS'response'
p3380
g49
(g50
g51
NtRp3381
(dp3382
g54
(dp3383
sg56
(lp3384
g49
(g58
g51
NtRp3385
(dp3386
g54
(dp3387
g62
I5
ssg63
Nsg56
(lp3388
g49
(g65
g51
NtRp3389
(dp3390
g54
(dp3391
sg63
g3385
sg56
(lp3392
g49
(g70
g51
NtRp3393
(dp3394
g54
(dp3395
g74
g75
ssg63
g3389
sg56
(lp3396
g147
asbag49
(g70
g51
NtRp3397
(dp3398
g54
(dp3399
g81
g82
ssg63
g3389
sg56
(lp3400
S':'
asbag49
(g70
g51
NtRp3401
(dp3402
g54
(dp3403
sg63
g3389
sg56
(lp3404
g49
(g50
g51
NtRp3405
(dp3406
g54
(dp3407
g62
I5
ssg63
g3401
sg56
(lp3408
S'<cStringIO.StringO object at 0x9fc2280>'
p3409
asbasbasbag49
(g65
g51
NtRp3410
(dp3411
g54
(dp3412
sg63
g3385
sg56
(lp3413
g49
(g70
g51
NtRp3414
(dp3415
g54
(dp3416
g74
g75
ssg63
g3410
sg56
(lp3417
g213
asbag49
(g70
g51
NtRp3418
(dp3419
g54
(dp3420
g81
g82
ssg63
g3410
sg56
(lp3421
S':'
asbag49
(g70
g51
NtRp3422
(dp3423
g54
(dp3424
sg63
g3410
sg56
(lp3425
g49
(g50
g51
NtRp3426
(dp3427
g54
(dp3428
g62
I5
ssg63
g3422
sg56
(lp3429
g49
(g58
g51
NtRp3430
(dp3431
g54
(dp3432
g62
I4
ssg63
Nsg56
(lp3433
g49
(g65
g51
NtRp3434
(dp3435
g54
(dp3436
sg63
g3430
sg56
(lp3437
g49
(g70
g51
NtRp3438
(dp3439
g54
(dp3440
g74
g75
ssg63
g3434
sg56
(lp3441
S'session_id_udi0312'
p3442
asbag49
(g70
g51
NtRp3443
(dp3444
g54
(dp3445
g81
g82
ssg63
g3434
sg56
(lp3446
S':'
asbag49
(g70
g51
NtRp3447
(dp3448
g54
(dp3449
sg63
g3434
sg56
(lp3450
g49
(g50
g51
NtRp3451
(dp3452
g54
(dp3453
g62
I4
ssg63
g3447
sg56
(lp3454
g49
(g58
g51
NtRp3455
(dp3456
g54
(dp3457
g62
I3
ssg63
Nsg56
(lp3458
g49
(g65
g51
NtRp3459
(dp3460
g54
(dp3461
sg63
g3455
sg56
(lp3462
g49
(g70
g51
NtRp3463
(dp3464
g54
(dp3465
g74
g75
ssg63
g3459
sg56
(lp3466
g263
asbag49
(g70
g51
NtRp3467
(dp3468
g54
(dp3469
g81
g82
ssg63
g3459
sg56
(lp3470
S':'
asbag49
(g70
g51
NtRp3471
(dp3472
g54
(dp3473
sg63
g3459
sg56
(lp3474
g49
(g50
g51
NtRp3475
(dp3476
g54
(dp3477
g62
I3
ssg63
g3471
sg56
(lp3478
S''
asbasbasbag49
(g65
g51
NtRp3479
(dp3480
g54
(dp3481
sg63
g3455
sg56
(lp3482
g49
(g70
g51
NtRp3483
(dp3484
g54
(dp3485
g74
g75
ssg63
g3479
sg56
(lp3486
g284
asbag49
(g70
g51
NtRp3487
(dp3488
g54
(dp3489
g81
g82
ssg63
g3479
sg56
(lp3490
S':'
asbag49
(g70
g51
NtRp3491
(dp3492
g54
(dp3493
sg63
g3479
sg56
(lp3494
g49
(g50
g51
NtRp3495
(dp3496
g54
(dp3497
g62
I3
ssg63
g3491
sg56
(lp3498
S''
asbasbasbag49
(g65
g51
NtRp3499
(dp3500
g54
(dp3501
sg63
g3455
sg56
(lp3502
g49
(g70
g51
NtRp3503
(dp3504
g54
(dp3505
g74
g75
ssg63
g3499
sg56
(lp3506
g305
asbag49
(g70
g51
NtRp3507
(dp3508
g54
(dp3509
g81
g82
ssg63
g3499
sg56
(lp3510
S':'
asbag49
(g70
g51
NtRp3511
(dp3512
g54
(dp3513
sg63
g3499
sg56
(lp3514
g49
(g50
g51
NtRp3515
(dp3516
g54
(dp3517
g62
I3
ssg63
g3511
sg56
(lp3518
S'2592000'
p3519
asbasbasbag49
(g65
g51
NtRp3520
(dp3521
g54
(dp3522
sg63
g3455
sg56
(lp3523
g49
(g70
g51
NtRp3524
(dp3525
g54
(dp3526
g74
g75
ssg63
g3520
sg56
(lp3527
g326
asbag49
(g70
g51
NtRp3528
(dp3529
g54
(dp3530
g81
g82
ssg63
g3520
sg56
(lp3531
S':'
asbag49
(g70
g51
NtRp3532
(dp3533
g54
(dp3534
sg63
g3520
sg56
(lp3535
g49
(g50
g51
NtRp3536
(dp3537
g54
(dp3538
g62
I3
ssg63
g3532
sg56
(lp3539
S''
asbasbasbag49
(g65
g51
NtRp3540
(dp3541
g54
(dp3542
sg63
g3455
sg56
(lp3543
g49
(g70
g51
NtRp3544
(dp3545
g54
(dp3546
g74
g75
ssg63
g3540
sg56
(lp3547
g347
asbag49
(g70
g51
NtRp3548
(dp3549
g54
(dp3550
g81
g82
ssg63
g3540
sg56
(lp3551
S':'
asbag49
(g70
g51
NtRp3552
(dp3553
g54
(dp3554
sg63
g3540
sg56
(lp3555
g49
(g50
g51
NtRp3556
(dp3557
g54
(dp3558
g62
I3
ssg63
g3552
sg56
(lp3559
S'/'
asbasbasbag49
(g65
g51
NtRp3560
(dp3561
g54
(dp3562
sg63
g3455
sg56
(lp3563
g49
(g70
g51
NtRp3564
(dp3565
g54
(dp3566
g74
g75
ssg63
g3560
sg56
(lp3567
g368
asbag49
(g70
g51
NtRp3568
(dp3569
g54
(dp3570
g81
g82
ssg63
g3560
sg56
(lp3571
S':'
asbag49
(g70
g51
NtRp3572
(dp3573
g54
(dp3574
sg63
g3560
sg56
(lp3575
g49
(g50
g51
NtRp3576
(dp3577
g54
(dp3578
g62
I3
ssg63
g3572
sg56
(lp3579
S''
asbasbasbag49
(g65
g51
NtRp3580
(dp3581
g54
(dp3582
sg63
g3455
sg56
(lp3583
g49
(g70
g51
NtRp3584
(dp3585
g54
(dp3586
g74
g75
ssg63
g3580
sg56
(lp3587
g389
asbag49
(g70
g51
NtRp3588
(dp3589
g54
(dp3590
g81
g82
ssg63
g3580
sg56
(lp3591
S':'
asbag49
(g70
g51
NtRp3592
(dp3593
g54
(dp3594
sg63
g3580
sg56
(lp3595
g49
(g50
g51
NtRp3596
(dp3597
g54
(dp3598
g62
I3
ssg63
g3592
sg56
(lp3599
S''
asbasbasbasbasbasbasbasbasbasbasbag49
(g65
g51
NtRp3600
(dp3601
g54
(dp3602
sg63
g3385
sg56
(lp3603
g49
(g70
g51
NtRp3604
(dp3605
g54
(dp3606
g74
g75
ssg63
g3600
sg56
(lp3607
S'delimiters'
p3608
asbag49
(g70
g51
NtRp3609
(dp3610
g54
(dp3611
g81
g82
ssg63
g3600
sg56
(lp3612
S':'
asbag49
(g70
g51
NtRp3613
(dp3614
g54
(dp3615
sg63
g3600
sg56
(lp3616
g49
(g50
g51
NtRp3617
(dp3618
g54
(dp3619
g62
I5
ssg63
g3613
sg56
(lp3620
g49
(g58
g51
NtRp3621
(dp3622
g54
(dp3623
g62
I4
ssg63
Nsg56
(lp3624
g49
(g65
g51
NtRp3625
(dp3626
g54
(dp3627
sg63
g3621
sg56
(lp3628
g49
(g70
g51
NtRp3629
(dp3630
g54
(dp3631
sg63
g3625
sg56
(lp3632
g49
(g50
g51
NtRp3633
(dp3634
g54
(dp3635
g62
I4
ssg63
g3629
sg56
(lp3636
S'{{'
p3637
asbasbasbag49
(g65
g51
NtRp3638
(dp3639
g54
(dp3640
sg63
g3621
sg56
(lp3641
g49
(g70
g51
NtRp3642
(dp3643
g54
(dp3644
sg63
g3638
sg56
(lp3645
g49
(g50
g51
NtRp3646
(dp3647
g54
(dp3648
g62
I4
ssg63
g3642
sg56
(lp3649
S'}}'
p3650
asbasbasbasbasbasbasbag49
(g65
g51
NtRp3651
(dp3652
g54
(dp3653
sg63
g3385
sg56
(lp3654
g49
(g70
g51
NtRp3655
(dp3656
g54
(dp3657
g74
g75
ssg63
g3651
sg56
(lp3658
S'files'
p3659
asbag49
(g70
g51
NtRp3660
(dp3661
g54
(dp3662
g81
g82
ssg63
g3651
sg56
(lp3663
S':'
asbag49
(g70
g51
NtRp3664
(dp3665
g54
(dp3666
sg63
g3651
sg56
(lp3667
g49
(g50
g51
NtRp3668
(dp3669
g54
(dp3670
g62
I5
ssg63
g3664
sg56
(lp3671
g49
(g58
g51
NtRp3672
(dp3673
g54
(dp3674
g62
I4
ssg63
Nsg56
(lp3675
sbasbasbasbag49
(g65
g51
NtRp3676
(dp3677
g54
(dp3678
sg63
g3385
sg56
(lp3679
g49
(g70
g51
NtRp3680
(dp3681
g54
(dp3682
g74
g75
ssg63
g3676
sg56
(lp3683
S'flash'
p3684
asbag49
(g70
g51
NtRp3685
(dp3686
g54
(dp3687
g81
g82
ssg63
g3676
sg56
(lp3688
S':'
asbag49
(g70
g51
NtRp3689
(dp3690
g54
(dp3691
sg63
g3676
sg56
(lp3692
g49
(g50
g51
NtRp3693
(dp3694
g54
(dp3695
g62
I5
ssg63
g3689
sg56
(lp3696
S''
asbasbasbag49
(g65
g51
NtRp3697
(dp3698
g54
(dp3699
sg63
g3385
sg56
(lp3700
g49
(g70
g51
NtRp3701
(dp3702
g54
(dp3703
g74
g75
ssg63
g3697
sg56
(lp3704
S'generic_patterns'
p3705
asbag49
(g70
g51
NtRp3706
(dp3707
g54
(dp3708
g81
g82
ssg63
g3697
sg56
(lp3709
S':'
asbag49
(g70
g51
NtRp3710
(dp3711
g54
(dp3712
sg63
g3697
sg56
(lp3713
g49
(g50
g51
NtRp3714
(dp3715
g54
(dp3716
g62
I5
ssg63
g3710
sg56
(lp3717
g49
(g58
g51
NtRp3718
(dp3719
g54
(dp3720
g62
I4
ssg63
Nsg56
(lp3721
g49
(g65
g51
NtRp3722
(dp3723
g54
(dp3724
sg63
g3718
sg56
(lp3725
g49
(g70
g51
NtRp3726
(dp3727
g54
(dp3728
sg63
g3722
sg56
(lp3729
g49
(g50
g51
NtRp3730
(dp3731
g54
(dp3732
g62
I4
ssg63
g3726
sg56
(lp3733
S'*'
asbasbasbasbasbasbasbag49
(g65
g51
NtRp3734
(dp3735
g54
(dp3736
sg63
g3385
sg56
(lp3737
g49
(g70
g51
NtRp3738
(dp3739
g54
(dp3740
g74
g75
ssg63
g3734
sg56
(lp3741
S'headers'
p3742
asbag49
(g70
g51
NtRp3743
(dp3744
g54
(dp3745
g81
g82
ssg63
g3734
sg56
(lp3746
S':'
asbag49
(g70
g51
NtRp3747
(dp3748
g54
(dp3749
sg63
g3734
sg56
(lp3750
g49
(g50
g51
NtRp3751
(dp3752
g54
(dp3753
g62
I5
ssg63
g3747
sg56
(lp3754
g49
(g58
g51
NtRp3755
(dp3756
g54
(dp3757
g62
I4
ssg63
Nsg56
(lp3758
g49
(g65
g51
NtRp3759
(dp3760
g54
(dp3761
sg63
g3755
sg56
(lp3762
g49
(g70
g51
NtRp3763
(dp3764
g54
(dp3765
g74
g75
ssg63
g3759
sg56
(lp3766
S'Cache-Control'
p3767
asbag49
(g70
g51
NtRp3768
(dp3769
g54
(dp3770
g81
g82
ssg63
g3759
sg56
(lp3771
S':'
asbag49
(g70
g51
NtRp3772
(dp3773
g54
(dp3774
sg63
g3759
sg56
(lp3775
g49
(g50
g51
NtRp3776
(dp3777
g54
(dp3778
g62
I4
ssg63
g3772
sg56
(lp3779
S'no-store, no-cache, must-revalidate, post-check=0, pre-check=0'
p3780
asbasbasbag49
(g65
g51
NtRp3781
(dp3782
g54
(dp3783
sg63
g3755
sg56
(lp3784
g49
(g70
g51
NtRp3785
(dp3786
g54
(dp3787
g74
g75
ssg63
g3781
sg56
(lp3788
S'Content-Type'
p3789
asbag49
(g70
g51
NtRp3790
(dp3791
g54
(dp3792
g81
g82
ssg63
g3781
sg56
(lp3793
S':'
asbag49
(g70
g51
NtRp3794
(dp3795
g54
(dp3796
sg63
g3781
sg56
(lp3797
g49
(g50
g51
NtRp3798
(dp3799
g54
(dp3800
g62
I4
ssg63
g3794
sg56
(lp3801
S'text/html; charset=utf-8'
p3802
asbasbasbag49
(g65
g51
NtRp3803
(dp3804
g54
(dp3805
sg63
g3755
sg56
(lp3806
g49
(g70
g51
NtRp3807
(dp3808
g54
(dp3809
g74
g75
ssg63
g3803
sg56
(lp3810
S'Expires'
p3811
asbag49
(g70
g51
NtRp3812
(dp3813
g54
(dp3814
g81
g82
ssg63
g3803
sg56
(lp3815
S':'
asbag49
(g70
g51
NtRp3816
(dp3817
g54
(dp3818
sg63
g3803
sg56
(lp3819
g49
(g50
g51
NtRp3820
(dp3821
g54
(dp3822
g62
I4
ssg63
g3816
sg56
(lp3823
S'Thu, 22 Mar 2012 05:45:13 GMT'
p3824
asbasbasbag49
(g65
g51
NtRp3825
(dp3826
g54
(dp3827
sg63
g3755
sg56
(lp3828
g49
(g70
g51
NtRp3829
(dp3830
g54
(dp3831
g74
g75
ssg63
g3825
sg56
(lp3832
S'Pragma'
p3833
asbag49
(g70
g51
NtRp3834
(dp3835
g54
(dp3836
g81
g82
ssg63
g3825
sg56
(lp3837
S':'
asbag49
(g70
g51
NtRp3838
(dp3839
g54
(dp3840
sg63
g3825
sg56
(lp3841
g49
(g50
g51
NtRp3842
(dp3843
g54
(dp3844
g62
I4
ssg63
g3838
sg56
(lp3845
S'no-cache'
p3846
asbasbasbag49
(g65
g51
NtRp3847
(dp3848
g54
(dp3849
sg63
g3755
sg56
(lp3850
g49
(g70
g51
NtRp3851
(dp3852
g54
(dp3853
g74
g75
ssg63
g3847
sg56
(lp3854
S'X-Powered-By'
p3855
asbag49
(g70
g51
NtRp3856
(dp3857
g54
(dp3858
g81
g82
ssg63
g3847
sg56
(lp3859
S':'
asbag49
(g70
g51
NtRp3860
(dp3861
g54
(dp3862
sg63
g3847
sg56
(lp3863
g49
(g50
g51
NtRp3864
(dp3865
g54
(dp3866
g62
I4
ssg63
g3860
sg56
(lp3867
S'web2py'
p3868
asbasbasbasbasbasbasbag49
(g65
g51
NtRp3869
(dp3870
g54
(dp3871
sg63
g3385
sg56
(lp3872
g49
(g70
g51
NtRp3873
(dp3874
g54
(dp3875
g74
g75
ssg63
g3869
sg56
(lp3876
S'menu'
p3877
asbag49
(g70
g51
NtRp3878
(dp3879
g54
(dp3880
g81
g82
ssg63
g3869
sg56
(lp3881
S':'
asbag49
(g70
g51
NtRp3882
(dp3883
g54
(dp3884
sg63
g3869
sg56
(lp3885
g49
(g50
g51
NtRp3886
(dp3887
g54
(dp3888
g62
I5
ssg63
g3882
sg56
(lp3889
g49
(g58
g51
NtRp3890
(dp3891
g54
(dp3892
g62
I4
ssg63
Nsg56
(lp3893
g49
(g65
g51
NtRp3894
(dp3895
g54
(dp3896
sg63
g3890
sg56
(lp3897
g49
(g70
g51
NtRp3898
(dp3899
g54
(dp3900
sg63
g3894
sg56
(lp3901
g49
(g50
g51
NtRp3902
(dp3903
g54
(dp3904
g62
I4
ssg63
g3898
sg56
(lp3905
g49
(g58
g51
NtRp3906
(dp3907
g54
(dp3908
g62
I3
ssg63
Nsg56
(lp3909
g49
(g65
g51
NtRp3910
(dp3911
g54
(dp3912
sg63
g3906
sg56
(lp3913
g49
(g70
g51
NtRp3914
(dp3915
g54
(dp3916
sg63
g3910
sg56
(lp3917
g49
(g50
g51
NtRp3918
(dp3919
g54
(dp3920
g62
I3
ssg63
g3914
sg56
(lp3921
cgluon.languages
lazyT_unpickle
p3922
(S's\x04\x00\x00\x00Home'
tRp3923
asbasbasbag49
(g65
g51
NtRp3924
(dp3925
g54
(dp3926
sg63
g3906
sg56
(lp3927
g49
(g70
g51
NtRp3928
(dp3929
g54
(dp3930
sg63
g3924
sg56
(lp3931
g49
(g50
g51
NtRp3932
(dp3933
g54
(dp3934
g62
I3
ssg63
g3928
sg56
(lp3935
g92
asbasbasbag49
(g65
g51
NtRp3936
(dp3937
g54
(dp3938
sg63
g3906
sg56
(lp3939
g49
(g70
g51
NtRp3940
(dp3941
g54
(dp3942
sg63
g3936
sg56
(lp3943
g49
(g50
g51
NtRp3944
(dp3945
g54
(dp3946
g62
I3
ssg63
g3940
sg56
(lp3947
S'/'
asbasbasbag49
(g65
g51
NtRp3948
(dp3949
g54
(dp3950
sg63
g3906
sg56
(lp3951
g49
(g70
g51
NtRp3952
(dp3953
g54
(dp3954
sg63
g3948
sg56
(lp3955
g49
(g50
g51
NtRp3956
(dp3957
g54
(dp3958
g62
I3
ssg63
g3952
sg56
(lp3959
g49
(g58
g51
NtRp3960
(dp3961
g54
(dp3962
g62
I2
ssg63
Nsg56
(lp3963
sbasbasbasbasbasbasbasbag49
(g65
g51
NtRp3964
(dp3965
g54
(dp3966
sg63
g3890
sg56
(lp3967
g49
(g70
g51
NtRp3968
(dp3969
g54
(dp3970
sg63
g3964
sg56
(lp3971
g49
(g50
g51
NtRp3972
(dp3973
g54
(dp3974
g62
I4
ssg63
g3968
sg56
(lp3975
g49
(g58
g51
NtRp3976
(dp3977
g54
(dp3978
g62
I3
ssg63
Nsg56
(lp3979
g49
(g65
g51
NtRp3980
(dp3981
g54
(dp3982
sg63
g3976
sg56
(lp3983
g49
(g70
g51
NtRp3984
(dp3985
g54
(dp3986
sg63
g3980
sg56
(lp3987
g49
(g50
g51
NtRp3988
(dp3989
g54
(dp3990
g62
I3
ssg63
g3984
sg56
(lp3991
g49
(cgluon.html
SPAN
p3992
g51
NtRp3993
(dp3994
g54
(dp3995
g74
S'color:yellow'
p3996
ssg63
Nsg56
(lp3997
g3868
asbasbasbasbag49
(g65
g51
NtRp3998
(dp3999
g54
(dp4000
sg63
g3976
sg56
(lp4001
g49
(g70
g51
NtRp4002
(dp4003
g54
(dp4004
sg63
g3998
sg56
(lp4005
g49
(g50
g51
NtRp4006
(dp4007
g54
(dp4008
g62
I3
ssg63
g4002
sg56
(lp4009
g92
asbasbasbag49
(g65
g51
NtRp4010
(dp4011
g54
(dp4012
sg63
g3976
sg56
(lp4013
g49
(g70
g51
NtRp4014
(dp4015
g54
(dp4016
sg63
g4010
sg56
(lp4017
g49
(g50
g51
NtRp4018
(dp4019
g54
(dp4020
g62
I3
ssg63
g4014
sg56
(lp4021
S'None'
p4022
asbasbasbag49
(g65
g51
NtRp4023
(dp4024
g54
(dp4025
sg63
g3976
sg56
(lp4026
g49
(g70
g51
NtRp4027
(dp4028
g54
(dp4029
sg63
g4023
sg56
(lp4030
g49
(g50
g51
NtRp4031
(dp4032
g54
(dp4033
g62
I3
ssg63
g4027
sg56
(lp4034
g49
(g58
g51
NtRp4035
(dp4036
g54
(dp4037
g62
I2
ssg63
Nsg56
(lp4038
g49
(g65
g51
NtRp4039
(dp4040
g54
(dp4041
sg63
g4035
sg56
(lp4042
g49
(g70
g51
NtRp4043
(dp4044
g54
(dp4045
sg63
g4039
sg56
(lp4046
g49
(g50
g51
NtRp4047
(dp4048
g54
(dp4049
g62
I2
ssg63
g4043
sg56
(lp4050
g49
(g58
g51
NtRp4051
(dp4052
g54
(dp4053
g62
I1
ssg63
Nsg56
(lp4054
g49
(g65
g51
NtRp4055
(dp4056
g54
(dp4057
sg63
g4051
sg56
(lp4058
g49
(g70
g51
NtRp4059
(dp4060
g54
(dp4061
sg63
g4055
sg56
(lp4062
g49
(g50
g51
NtRp4063
(dp4064
g54
(dp4065
g62
I1
ssg63
g4059
sg56
(lp4066
g3922
(S's\x08\x00\x00\x00My Sites'
tRp4067
asbasbasbag49
(g65
g51
NtRp4068
(dp4069
g54
(dp4070
sg63
g4051
sg56
(lp4071
g49
(g70
g51
NtRp4072
(dp4073
g54
(dp4074
sg63
g4068
sg56
(lp4075
g49
(g50
g51
NtRp4076
(dp4077
g54
(dp4078
g62
I1
ssg63
g4072
sg56
(lp4079
I00
asbasbasbag49
(g65
g51
NtRp4080
(dp4081
g54
(dp4082
sg63
g4051
sg56
(lp4083
g49
(g70
g51
NtRp4084
(dp4085
g54
(dp4086
sg63
g4080
sg56
(lp4087
g49
(g50
g51
NtRp4088
(dp4089
g54
(dp4090
g62
I1
ssg63
g4084
sg56
(lp4091
S'/admin/site'
p4092
asbasbasbasbasbasbasbag49
(g65
g51
NtRp4093
(dp4094
g54
(dp4095
sg63
g4035
sg56
(lp4096
g49
(g70
g51
NtRp4097
(dp4098
g54
(dp4099
sg63
g4093
sg56
(lp4100
g49
(g50
g51
NtRp4101
(dp4102
g54
(dp4103
g62
I2
ssg63
g4097
sg56
(lp4104
g49
(g58
g51
NtRp4105
(dp4106
g54
(dp4107
g62
I1
ssg63
Nsg56
(lp4108
g49
(g65
g51
NtRp4109
(dp4110
g54
(dp4111
sg63
g4105
sg56
(lp4112
g49
(g70
g51
NtRp4113
(dp4114
g54
(dp4115
sg63
g4109
sg56
(lp4116
g49
(g50
g51
NtRp4117
(dp4118
g54
(dp4119
g62
I1
ssg63
g4113
sg56
(lp4120
g3922
(S's\x08\x00\x00\x00This App'
tRp4121
asbasbasbag49
(g65
g51
NtRp4122
(dp4123
g54
(dp4124
sg63
g4105
sg56
(lp4125
g49
(g70
g51
NtRp4126
(dp4127
g54
(dp4128
sg63
g4122
sg56
(lp4129
g49
(g50
g51
NtRp4130
(dp4131
g54
(dp4132
g62
I1
ssg63
g4126
sg56
(lp4133
I00
asbasbasbag49
(g65
g51
NtRp4134
(dp4135
g54
(dp4136
sg63
g4105
sg56
(lp4137
g49
(g70
g51
NtRp4138
(dp4139
g54
(dp4140
sg63
g4134
sg56
(lp4141
g49
(g50
g51
NtRp4142
(dp4143
g54
(dp4144
g62
I1
ssg63
g4138
sg56
(lp4145
S'/admin/design/udi0312'
p4146
asbasbasbag49
(g65
g51
NtRp4147
(dp4148
g54
(dp4149
sg63
g4105
sg56
(lp4150
g49
(g70
g51
NtRp4151
(dp4152
g54
(dp4153
sg63
g4147
sg56
(lp4154
g49
(g50
g51
NtRp4155
(dp4156
g54
(dp4157
g62
I1
ssg63
g4151
sg56
(lp4158
(lp4159
(g3922
(S's\n\x00\x00\x00Controller'
tRp4160
I00
S'/admin/edit/udi0312/controllers/default.py'
tp4161
a(g3922
(S's\x04\x00\x00\x00View'
tRp4162
I00
S'/admin/edit/udi0312/views/default/index.html'
tp4163
a(g3922
(S's\x06\x00\x00\x00Layout'
tRp4164
I00
S'/admin/edit/udi0312/views/layout.html'
tp4165
a(g3922
(S's\n\x00\x00\x00Stylesheet'
tRp4166
I00
S'/admin/edit/udi0312/static/css/web2py.css'
tp4167
a(g3922
(S's\x08\x00\x00\x00DB Model'
tRp4168
I00
S'/admin/edit/udi0312/models/db.py'
tp4169
a(g3922
(S's\n\x00\x00\x00Menu Model'
tRp4170
I00
S'/admin/edit/udi0312/models/menu.py'
tp4171
a(g3922
(S's\x08\x00\x00\x00Database'
tRp4172
I00
S'/appadmin'
tp4173
a(g3922
(S's\x06\x00\x00\x00Errors'
tRp4174
I00
S'/admin/errors/udi0312'
tp4175
a(g3922
(S's\x05\x00\x00\x00About'
tRp4176
I00
S'/admin/about/udi0312'
tp4177
aasbasbasbasbasbasbasbag49
(g65
g51
NtRp4178
(dp4179
g54
(dp4180
sg63
g4035
sg56
(lp4181
g49
(g70
g51
NtRp4182
(dp4183
g54
(dp4184
sg63
g4178
sg56
(lp4185
g49
(g50
g51
NtRp4186
(dp4187
g54
(dp4188
g62
I2
ssg63
g4182
sg56
(lp4189
g49
(g58
g51
NtRp4190
(dp4191
g54
(dp4192
g62
I1
ssg63
Nsg56
(lp4193
g49
(g65
g51
NtRp4194
(dp4195
g54
(dp4196
sg63
g4190
sg56
(lp4197
g49
(g70
g51
NtRp4198
(dp4199
g54
(dp4200
sg63
g4194
sg56
(lp4201
g49
(g50
g51
NtRp4202
(dp4203
g54
(dp4204
g62
I1
ssg63
g4198
sg56
(lp4205
S'web2py.com'
p4206
asbasbasbag49
(g65
g51
NtRp4207
(dp4208
g54
(dp4209
sg63
g4190
sg56
(lp4210
g49
(g70
g51
NtRp4211
(dp4212
g54
(dp4213
sg63
g4207
sg56
(lp4214
g49
(g50
g51
NtRp4215
(dp4216
g54
(dp4217
g62
I1
ssg63
g4211
sg56
(lp4218
I00
asbasbasbag49
(g65
g51
NtRp4219
(dp4220
g54
(dp4221
sg63
g4190
sg56
(lp4222
g49
(g70
g51
NtRp4223
(dp4224
g54
(dp4225
sg63
g4219
sg56
(lp4226
g49
(g50
g51
NtRp4227
(dp4228
g54
(dp4229
g62
I1
ssg63
g4223
sg56
(lp4230
S'http://www.web2py.com'
p4231
asbasbasbag49
(g65
g51
NtRp4232
(dp4233
g54
(dp4234
sg63
g4190
sg56
(lp4235
g49
(g70
g51
NtRp4236
(dp4237
g54
(dp4238
sg63
g4232
sg56
(lp4239
g49
(g50
g51
NtRp4240
(dp4241
g54
(dp4242
g62
I1
ssg63
g4236
sg56
(lp4243
(lp4244
(g3922
(S's\x08\x00\x00\x00Download'
tRp4245
I00
S'http://www.web2py.com/examples/default/download'
p4246
tp4247
a(g3922
(S's\x07\x00\x00\x00Support'
tRp4248
I00
S'http://www.web2py.com/examples/default/support'
p4249
tp4250
a(g3922
(S's\x04\x00\x00\x00Demo'
tRp4251
I00
S'http://web2py.com/demo_admin'
p4252
tp4253
a(g3922
(S's\x0e\x00\x00\x00Quick Examples'
tRp4254
I00
S'http://web2py.com/examples/default/examples'
p4255
tp4256
a(g3922
(S's\x03\x00\x00\x00FAQ'
tRp4257
I00
S'http://web2py.com/AlterEgo'
p4258
tp4259
a(g3922
(S's\x06\x00\x00\x00Videos'
tRp4260
I00
S'http://www.web2py.com/examples/default/videos/'
p4261
tp4262
a(g3922
(S's\x11\x00\x00\x00Free Applications'
tRp4263
I00
S'http://web2py.com/appliances'
p4264
tp4265
a(g3922
(S's\x07\x00\x00\x00Plugins'
tRp4266
I00
S'http://web2py.com/plugins'
p4267
tp4268
a(g3922
(S's\x07\x00\x00\x00Layouts'
tRp4269
I00
S'http://web2py.com/layouts'
p4270
tp4271
a(g3922
(S's\x07\x00\x00\x00Recipes'
tRp4272
I00
S'http://web2pyslices.com/'
p4273
tp4274
a(g3922
(S's\x08\x00\x00\x00Semantic'
tRp4275
I00
S'http://web2py.com/semantic'
p4276
tp4277
aasbasbasbasbasbasbasbag49
(g65
g51
NtRp4278
(dp4279
g54
(dp4280
sg63
g4035
sg56
(lp4281
g49
(g70
g51
NtRp4282
(dp4283
g54
(dp4284
sg63
g4278
sg56
(lp4285
g49
(g50
g51
NtRp4286
(dp4287
g54
(dp4288
g62
I2
ssg63
g4282
sg56
(lp4289
g49
(g58
g51
NtRp4290
(dp4291
g54
(dp4292
g62
I1
ssg63
Nsg56
(lp4293
g49
(g65
g51
NtRp4294
(dp4295
g54
(dp4296
sg63
g4290
sg56
(lp4297
g49
(g70
g51
NtRp4298
(dp4299
g54
(dp4300
sg63
g4294
sg56
(lp4301
g49
(g50
g51
NtRp4302
(dp4303
g54
(dp4304
g62
I1
ssg63
g4298
sg56
(lp4305
g3922
(S's\r\x00\x00\x00Documentation'
tRp4306
asbasbasbag49
(g65
g51
NtRp4307
(dp4308
g54
(dp4309
sg63
g4290
sg56
(lp4310
g49
(g70
g51
NtRp4311
(dp4312
g54
(dp4313
sg63
g4307
sg56
(lp4314
g49
(g50
g51
NtRp4315
(dp4316
g54
(dp4317
g62
I1
ssg63
g4311
sg56
(lp4318
I00
asbasbasbag49
(g65
g51
NtRp4319
(dp4320
g54
(dp4321
sg63
g4290
sg56
(lp4322
g49
(g70
g51
NtRp4323
(dp4324
g54
(dp4325
sg63
g4319
sg56
(lp4326
g49
(g50
g51
NtRp4327
(dp4328
g54
(dp4329
g62
I1
ssg63
g4323
sg56
(lp4330
S'http://www.web2py.com/book'
p4331
asbasbasbag49
(g65
g51
NtRp4332
(dp4333
g54
(dp4334
sg63
g4290
sg56
(lp4335
g49
(g70
g51
NtRp4336
(dp4337
g54
(dp4338
sg63
g4332
sg56
(lp4339
g49
(g50
g51
NtRp4340
(dp4341
g54
(dp4342
g62
I1
ssg63
g4336
sg56
(lp4343
(lp4344
(g3922
(S's\x07\x00\x00\x00Preface'
tRp4345
I00
S'http://www.web2py.com/book/default/chapter/00'
p4346
tp4347
a(g3922
(S's\x0c\x00\x00\x00Introduction'
tRp4348
I00
S'http://www.web2py.com/book/default/chapter/01'
p4349
tp4350
a(g3922
(S's\x06\x00\x00\x00Python'
tRp4351
I00
S'http://www.web2py.com/book/default/chapter/02'
p4352
tp4353
a(g3922
(S's\x08\x00\x00\x00Overview'
tRp4354
I00
S'http://www.web2py.com/book/default/chapter/03'
p4355
tp4356
a(g3922
(S's\x08\x00\x00\x00The Core'
tRp4357
I00
S'http://www.web2py.com/book/default/chapter/04'
p4358
tp4359
a(g3922
(S's\t\x00\x00\x00The Views'
tRp4360
I00
S'http://www.web2py.com/book/default/chapter/05'
p4361
tp4362
a(g3922
(S's\x08\x00\x00\x00Database'
tRp4363
I00
S'http://www.web2py.com/book/default/chapter/06'
p4364
tp4365
a(g3922
(S's\x14\x00\x00\x00Forms and Validators'
tRp4366
I00
S'http://www.web2py.com/book/default/chapter/07'
p4367
tp4368
a(g3922
(S's\r\x00\x00\x00Email and SMS'
tRp4369
I00
S'http://www.web2py.com/book/default/chapter/08'
p4370
tp4371
a(g3922
(S's\x0e\x00\x00\x00Access Control'
tRp4372
I00
S'http://www.web2py.com/book/default/chapter/09'
p4373
tp4374
a(g3922
(S's\x08\x00\x00\x00Services'
tRp4375
I00
S'http://www.web2py.com/book/default/chapter/10'
p4376
tp4377
a(g3922
(S's\x0c\x00\x00\x00Ajax Recipes'
tRp4378
I00
S'http://www.web2py.com/book/default/chapter/11'
p4379
tp4380
a(g3922
(S's\x16\x00\x00\x00Components and Plugins'
tRp4381
I00
S'http://www.web2py.com/book/default/chapter/12'
p4382
tp4383
a(g3922
(S's\x12\x00\x00\x00Deployment Recipes'
tRp4384
I00
S'http://www.web2py.com/book/default/chapter/13'
p4385
tp4386
a(g3922
(S's\r\x00\x00\x00Other Recipes'
tRp4387
I00
S'http://www.web2py.com/book/default/chapter/14'
p4388
tp4389
a(g3922
(S's\r\x00\x00\x00Buy this book'
tRp4390
I00
S'http://stores.lulu.com/web2py'
p4391
tp4392
aasbasbasbasbasbasbasbag49
(g65
g51
NtRp4393
(dp4394
g54
(dp4395
sg63
g4035
sg56
(lp4396
g49
(g70
g51
NtRp4397
(dp4398
g54
(dp4399
sg63
g4393
sg56
(lp4400
g49
(g50
g51
NtRp4401
(dp4402
g54
(dp4403
g62
I2
ssg63
g4397
sg56
(lp4404
g49
(g58
g51
NtRp4405
(dp4406
g54
(dp4407
g62
I1
ssg63
Nsg56
(lp4408
g49
(g65
g51
NtRp4409
(dp4410
g54
(dp4411
sg63
g4405
sg56
(lp4412
g49
(g70
g51
NtRp4413
(dp4414
g54
(dp4415
sg63
g4409
sg56
(lp4416
g49
(g50
g51
NtRp4417
(dp4418
g54
(dp4419
g62
I1
ssg63
g4413
sg56
(lp4420
g3922
(S's\t\x00\x00\x00Community'
tRp4421
asbasbasbag49
(g65
g51
NtRp4422
(dp4423
g54
(dp4424
sg63
g4405
sg56
(lp4425
g49
(g70
g51
NtRp4426
(dp4427
g54
(dp4428
sg63
g4422
sg56
(lp4429
g49
(g50
g51
NtRp4430
(dp4431
g54
(dp4432
g62
I1
ssg63
g4426
sg56
(lp4433
I00
asbasbasbag49
(g65
g51
NtRp4434
(dp4435
g54
(dp4436
sg63
g4405
sg56
(lp4437
g49
(g70
g51
NtRp4438
(dp4439
g54
(dp4440
sg63
g4434
sg56
(lp4441
g49
(g50
g51
NtRp4442
(dp4443
g54
(dp4444
g62
I1
ssg63
g4438
sg56
(lp4445
Nasbasbasbag49
(g65
g51
NtRp4446
(dp4447
g54
(dp4448
sg63
g4405
sg56
(lp4449
g49
(g70
g51
NtRp4450
(dp4451
g54
(dp4452
sg63
g4446
sg56
(lp4453
g49
(g50
g51
NtRp4454
(dp4455
g54
(dp4456
g62
I1
ssg63
g4450
sg56
(lp4457
(lp4458
(g3922
(S's\x06\x00\x00\x00Groups'
tRp4459
I00
S'http://www.web2py.com/examples/default/usergroups'
p4460
tp4461
a(g3922
(S's\x07\x00\x00\x00Twitter'
tRp4462
I00
S'http://twitter.com/web2py'
p4463
tp4464
a(g3922
(S's\t\x00\x00\x00Live Chat'
tRp4465
I00
S'http://webchat.freenode.net/?channels=web2py'
p4466
tp4467
aasbasbasbasbasbasbasbag49
(g65
g51
NtRp4468
(dp4469
g54
(dp4470
sg63
g4035
sg56
(lp4471
g49
(g70
g51
NtRp4472
(dp4473
g54
(dp4474
sg63
g4468
sg56
(lp4475
g49
(g50
g51
NtRp4476
(dp4477
g54
(dp4478
g62
I2
ssg63
g4472
sg56
(lp4479
g49
(g58
g51
NtRp4480
(dp4481
g54
(dp4482
g62
I1
ssg63
Nsg56
(lp4483
g49
(g65
g51
NtRp4484
(dp4485
g54
(dp4486
sg63
g4480
sg56
(lp4487
g49
(g70
g51
NtRp4488
(dp4489
g54
(dp4490
sg63
g4484
sg56
(lp4491
g49
(g50
g51
NtRp4492
(dp4493
g54
(dp4494
g62
I1
ssg63
g4488
sg56
(lp4495
g3922
(S's\x07\x00\x00\x00Plugins'
tRp4496
asbasbasbag49
(g65
g51
NtRp4497
(dp4498
g54
(dp4499
sg63
g4480
sg56
(lp4500
g49
(g70
g51
NtRp4501
(dp4502
g54
(dp4503
sg63
g4497
sg56
(lp4504
g49
(g50
g51
NtRp4505
(dp4506
g54
(dp4507
g62
I1
ssg63
g4501
sg56
(lp4508
I00
asbasbasbag49
(g65
g51
NtRp4509
(dp4510
g54
(dp4511
sg63
g4480
sg56
(lp4512
g49
(g70
g51
NtRp4513
(dp4514
g54
(dp4515
sg63
g4509
sg56
(lp4516
g49
(g50
g51
NtRp4517
(dp4518
g54
(dp4519
g62
I1
ssg63
g4513
sg56
(lp4520
Nasbasbasbag49
(g65
g51
NtRp4521
(dp4522
g54
(dp4523
sg63
g4480
sg56
(lp4524
g49
(g70
g51
NtRp4525
(dp4526
g54
(dp4527
sg63
g4521
sg56
(lp4528
g49
(g50
g51
NtRp4529
(dp4530
g54
(dp4531
g62
I1
ssg63
g4525
sg56
(lp4532
(lp4533
(S'plugin_wiki'
p4534
I00
S'http://web2py.com/examples/default/download'
p4535
tp4536
a(g3922
(S's\r\x00\x00\x00Other Plugins'
tRp4537
I00
g4267
tp4538
a(g3922
(S's\x0e\x00\x00\x00Layout Plugins'
tRp4539
I00
g4270
tp4540
aasbasbasbasbasbasbasbasbasbasbasbasbasbasbasbasbasbasbasbag49
(g65
g51
NtRp4541
(dp4542
g54
(dp4543
sg63
g3385
sg56
(lp4544
g49
(g70
g51
NtRp4545
(dp4546
g54
(dp4547
g74
g75
ssg63
g4541
sg56
(lp4548
S'meta'
p4549
asbag49
(g70
g51
NtRp4550
(dp4551
g54
(dp4552
g81
g82
ssg63
g4541
sg56
(lp4553
S':'
asbag49
(g70
g51
NtRp4554
(dp4555
g54
(dp4556
sg63
g4541
sg56
(lp4557
g49
(g50
g51
NtRp4558
(dp4559
g54
(dp4560
g62
I5
ssg63
g4554
sg56
(lp4561
g49
(g58
g51
NtRp4562
(dp4563
g54
(dp4564
g62
I4
ssg63
Nsg56
(lp4565
g49
(g65
g51
NtRp4566
(dp4567
g54
(dp4568
sg63
g4562
sg56
(lp4569
g49
(g70
g51
NtRp4570
(dp4571
g54
(dp4572
g74
g75
ssg63
g4566
sg56
(lp4573
S'author'
p4574
asbag49
(g70
g51
NtRp4575
(dp4576
g54
(dp4577
g81
g82
ssg63
g4566
sg56
(lp4578
S':'
asbag49
(g70
g51
NtRp4579
(dp4580
g54
(dp4581
sg63
g4566
sg56
(lp4582
g49
(g50
g51
NtRp4583
(dp4584
g54
(dp4585
g62
I4
ssg63
g4579
sg56
(lp4586
S'Udi Milo'
p4587
asbasbasbag49
(g65
g51
NtRp4588
(dp4589
g54
(dp4590
sg63
g4562
sg56
(lp4591
g49
(g70
g51
NtRp4592
(dp4593
g54
(dp4594
g74
g75
ssg63
g4588
sg56
(lp4595
S'description'
p4596
asbag49
(g70
g51
NtRp4597
(dp4598
g54
(dp4599
g81
g82
ssg63
g4588
sg56
(lp4600
S':'
asbag49
(g70
g51
NtRp4601
(dp4602
g54
(dp4603
sg63
g4588
sg56
(lp4604
g49
(g50
g51
NtRp4605
(dp4606
g54
(dp4607
g62
I4
ssg63
g4601
sg56
(lp4608
S'Curate, organize and share your web resources'
p4609
asbasbasbasbasbasbasbag49
(g65
g51
NtRp4610
(dp4611
g54
(dp4612
sg63
g3385
sg56
(lp4613
g49
(g70
g51
NtRp4614
(dp4615
g54
(dp4616
g74
g75
ssg63
g4610
sg56
(lp4617
S'postprocessing'
p4618
asbag49
(g70
g51
NtRp4619
(dp4620
g54
(dp4621
g81
g82
ssg63
g4610
sg56
(lp4622
S':'
asbag49
(g70
g51
NtRp4623
(dp4624
g54
(dp4625
sg63
g4610
sg56
(lp4626
g49
(g50
g51
NtRp4627
(dp4628
g54
(dp4629
g62
I5
ssg63
g4623
sg56
(lp4630
g49
(g58
g51
NtRp4631
(dp4632
g54
(dp4633
g62
I4
ssg63
Nsg56
(lp4634
sbasbasbasbag49
(g65
g51
NtRp4635
(dp4636
g54
(dp4637
sg63
g3385
sg56
(lp4638
g49
(g70
g51
NtRp4639
(dp4640
g54
(dp4641
g74
g75
ssg63
g4635
sg56
(lp4642
S'session_file'
p4643
asbag49
(g70
g51
NtRp4644
(dp4645
g54
(dp4646
g81
g82
ssg63
g4635
sg56
(lp4647
S':'
asbag49
(g70
g51
NtRp4648
(dp4649
g54
(dp4650
sg63
g4635
sg56
(lp4651
g49
(g50
g51
NtRp4652
(dp4653
g54
(dp4654
g62
I5
ssg63
g4648
sg56
(lp4655
S"<open file '/Users/udimilo/Documents/web2py/applications/udi0312/sessions/127.0.0.1-8a3bdcbc-10a2-4be7-917a-ea873784c1ca', mode 'rb+' at 0x6d4e458>"
p4656
asbasbasbag49
(g65
g51
NtRp4657
(dp4658
g54
(dp4659
sg63
g3385
sg56
(lp4660
g49
(g70
g51
NtRp4661
(dp4662
g54
(dp4663
g74
g75
ssg63
g4657
sg56
(lp4664
S'session_filename'
p4665
asbag49
(g70
g51
NtRp4666
(dp4667
g54
(dp4668
g81
g82
ssg63
g4657
sg56
(lp4669
S':'
asbag49
(g70
g51
NtRp4670
(dp4671
g54
(dp4672
sg63
g4657
sg56
(lp4673
g49
(g50
g51
NtRp4674
(dp4675
g54
(dp4676
g62
I5
ssg63
g4670
sg56
(lp4677
S'/Users/udimilo/Documents/web2py/applications/udi0312/sessions/127.0.0.1-8a3bdcbc-10a2-4be7-917a-ea873784c1ca'
p4678
asbasbasbag49
(g65
g51
NtRp4679
(dp4680
g54
(dp4681
sg63
g3385
sg56
(lp4682
g49
(g70
g51
NtRp4683
(dp4684
g54
(dp4685
g74
g75
ssg63
g4679
sg56
(lp4686
S'session_id'
p4687
asbag49
(g70
g51
NtRp4688
(dp4689
g54
(dp4690
g81
g82
ssg63
g4679
sg56
(lp4691
S':'
asbag49
(g70
g51
NtRp4692
(dp4693
g54
(dp4694
sg63
g4679
sg56
(lp4695
g49
(g50
g51
NtRp4696
(dp4697
g54
(dp4698
g62
I5
ssg63
g4692
sg56
(lp4699
S'127.0.0.1-8a3bdcbc-10a2-4be7-917a-ea873784c1ca'
p4700
asbasbasbag49
(g65
g51
NtRp4701
(dp4702
g54
(dp4703
sg63
g3385
sg56
(lp4704
g49
(g70
g51
NtRp4705
(dp4706
g54
(dp4707
g74
g75
ssg63
g4701
sg56
(lp4708
S'session_id_name'
p4709
asbag49
(g70
g51
NtRp4710
(dp4711
g54
(dp4712
g81
g82
ssg63
g4701
sg56
(lp4713
S':'
asbag49
(g70
g51
NtRp4714
(dp4715
g54
(dp4716
sg63
g4701
sg56
(lp4717
g49
(g50
g51
NtRp4718
(dp4719
g54
(dp4720
g62
I5
ssg63
g4714
sg56
(lp4721
g3442
asbasbasbag49
(g65
g51
NtRp4722
(dp4723
g54
(dp4724
sg63
g3385
sg56
(lp4725
g49
(g70
g51
NtRp4726
(dp4727
g54
(dp4728
g74
g75
ssg63
g4722
sg56
(lp4729
S'session_locked'
p4730
asbag49
(g70
g51
NtRp4731
(dp4732
g54
(dp4733
g81
g82
ssg63
g4722
sg56
(lp4734
S':'
asbag49
(g70
g51
NtRp4735
(dp4736
g54
(dp4737
sg63
g4722
sg56
(lp4738
g49
(g50
g51
NtRp4739
(dp4740
g54
(dp4741
g62
I5
ssg63
g4735
sg56
(lp4742
g1508
asbasbasbag49
(g65
g51
NtRp4743
(dp4744
g54
(dp4745
sg63
g3385
sg56
(lp4746
g49
(g70
g51
NtRp4747
(dp4748
g54
(dp4749
g74
g75
ssg63
g4743
sg56
(lp4750
S'session_new'
p4751
asbag49
(g70
g51
NtRp4752
(dp4753
g54
(dp4754
g81
g82
ssg63
g4743
sg56
(lp4755
S':'
asbag49
(g70
g51
NtRp4756
(dp4757
g54
(dp4758
sg63
g4743
sg56
(lp4759
g49
(g50
g51
NtRp4760
(dp4761
g54
(dp4762
g62
I5
ssg63
g4756
sg56
(lp4763
g92
asbasbasbag49
(g65
g51
NtRp4764
(dp4765
g54
(dp4766
sg63
g3385
sg56
(lp4767
g49
(g70
g51
NtRp4768
(dp4769
g54
(dp4770
g74
g75
ssg63
g4764
sg56
(lp4771
S'status'
p4772
asbag49
(g70
g51
NtRp4773
(dp4774
g54
(dp4775
g81
g82
ssg63
g4764
sg56
(lp4776
S':'
asbag49
(g70
g51
NtRp4777
(dp4778
g54
(dp4779
sg63
g4764
sg56
(lp4780
g49
(g50
g51
NtRp4781
(dp4782
g54
(dp4783
g62
I5
ssg63
g4777
sg56
(lp4784
S'200'
p4785
asbasbasbag49
(g65
g51
NtRp4786
(dp4787
g54
(dp4788
sg63
g3385
sg56
(lp4789
g49
(g70
g51
NtRp4790
(dp4791
g54
(dp4792
g74
g75
ssg63
g4786
sg56
(lp4793
S'title'
p4794
asbag49
(g70
g51
NtRp4795
(dp4796
g54
(dp4797
g81
g82
ssg63
g4786
sg56
(lp4798
S':'
asbag49
(g70
g51
NtRp4799
(dp4800
g54
(dp4801
sg63
g4786
sg56
(lp4802
g49
(g50
g51
NtRp4803
(dp4804
g54
(dp4805
g62
I5
ssg63
g4799
sg56
(lp4806
S'inFormation - Curate The Web'
p4807
asbasbasbag49
(g65
g51
NtRp4808
(dp4809
g54
(dp4810
sg63
g3385
sg56
(lp4811
g49
(g70
g51
NtRp4812
(dp4813
g54
(dp4814
g74
g75
ssg63
g4808
sg56
(lp4815
g2171
asbag49
(g70
g51
NtRp4816
(dp4817
g54
(dp4818
g81
g82
ssg63
g4808
sg56
(lp4819
S':'
asbag49
(g70
g51
NtRp4820
(dp4821
g54
(dp4822
sg63
g4808
sg56
(lp4823
g49
(g50
g51
NtRp4824
(dp4825
g54
(dp4826
g62
I5
ssg63
g4820
sg56
(lp4827
g2184
asbasbasbag49
(g65
g51
NtRp4828
(dp4829
g54
(dp4830
sg63
g3385
sg56
(lp4831
g49
(g70
g51
NtRp4832
(dp4833
g54
(dp4834
g74
g75
ssg63
g4828
sg56
(lp4835
S'view'
p4836
asbag49
(g70
g51
NtRp4837
(dp4838
g54
(dp4839
g81
g82
ssg63
g4828
sg56
(lp4840
S':'
asbag49
(g70
g51
NtRp4841
(dp4842
g54
(dp4843
sg63
g4828
sg56
(lp4844
g49
(g50
g51
NtRp4845
(dp4846
g54
(dp4847
g62
I5
ssg63
g4841
sg56
(lp4848
S'default/index.html'
p4849
asbasbasbasbasbsS'locals'
p4850
(dp4851
S'pins'
p4852
S'<gluon.dal.Rows object at 0xa103b70>'
p4853
sS'p'
S"<Row {'pin': <gluon.dal.Set object at 0xa42b750>...elete_record': <function <lambda> at 0x9f15c70>}>"
p4854
sS'original_ids'
p4855
S'set([None, 26, 38])'
p4856
sS'dic_pins'
p4857
S"{16: <Row {'pin': <gluon.dal.Set object at 0xa887390>...elete_record': <function <lambda> at 0xa0f47b0>}>, 26: <Row {'pin': <gluon.dal.Set object at 0xa8871f0>...elete_record': <function <lambda> at 0x9f15070>}>, 27: <Row {'pin': <gluon.dal.Set object at 0xa42bdf0>...elete_record': <function <lambda> at 0x9f15f30>}>, 28: <Row {'pin': <gluon.dal.Set object at 0xa887c90>...elete_record': <function <lambda> at 0xa0f4cf0>}>, 29: <Row {'pin': <gluon.dal.Set object at 0xa887830>...elete_record': <function <lambda> at 0xa0f46f0>}>, 30: <Row {'pin': <gluon.dal.Set object at 0xa114050>...elete_record': <function <lambda> at 0xa0f44b0>}>, 31: <Row {'pin': <gluon.dal.Set object at 0xa114bf0>...elete_record': <function <lambda> at 0xa0f4d30>}>, 32: <Row {'pin': <gluon.dal.Set object at 0xa114590>...elete_record': <function <lambda> at 0xa0f4bf0>}>, 33: <Row {'pin': <gluon.dal.Set object at 0xa8877f0>...elete_record': <function <lambda> at 0xa0f4a70>}>, 34: <Row {'pin': <gluon.dal.Set object at 0xa1146f0>...elete_record': <function <lambda> at 0xa0f4ab0>}>, ...}"
p4858
sssS'traceback'
p4859
S'Traceback (most recent call last):\n  File "/users/udimilo/Documents/web2py/gluon/restricted.py", line 205, in restricted\n    exec ccode in environment\n  File "/Users/udimilo/Documents/web2py/applications/udi0312/controllers/default.py", line 230, in <module>\n  File "/users/udimilo/Documents/web2py/gluon/globals.py", line 173, in <lambda>\n    self._caller = lambda f: f()\n  File "/Users/udimilo/Documents/web2py/applications/udi0312/controllers/default.py", line 101, in index\n    result = get_pins([auth.user])\n  File "/Users/udimilo/Documents/web2py/applications/udi0312/controllers/default.py", line 85, in get_pins\n    return populate_pins(pins)\n  File "/Users/udimilo/Documents/web2py/applications/udi0312/controllers/default.py", line 19, in populate_pins\n    return ", ".join(original_ids)\nTypeError: sequence item 0: expected string, NoneType found\n'
p4860
s.