(dp1
S'output'
p2
S"<type 'exceptions.KeyError'> 'url'"
p3
sS'layer'
p4
S'/Users/udimilo/Documents/web2py/applications/udi0312/controllers/default.py'
p5
sS'code'
p6
S'# -*- coding: utf-8 -*-\n# this file is released under public domain and you can use without limitations\n\n#########################################################################\n## This is a samples controller\n## - index is the default action of any application\n## - user is required for authentication and authorization\n## - download is for downloading files uploaded in the db (does streaming)\n## - call exposes all registered services (none by default)\n#########################################################################\n#from readability import Readability\nimport readability\n\ndef index():\n    articles = db().select(db.article.ALL)\n    categories = db().select(db.category.ALL, orderby=db.category.name)\n    boards = db(db.board.user_id==auth.user.id).select() if auth.user else []\n    return dict(items=articles, categories=categories, boards=boards)\n\ndef add_board():\n    category = db(db.category.name==request.vars.category).select().first()\n    board = db.board.insert(user_id=auth.user.id, category_id=category.id, name=request.vars.boardName)\n    return board.id\n\ndef add_article():\n    url = request.vars.url\n    article = db(db.article.url == url).select().first()\n    if article is None:\n        read = readability.Readability()\n        json = read.content(url)\n        article = db.article.insert(\n            height=300,\n            url=json[\'url\'],\n            readability_url=json[\'short_url\'],\n            title=json[\'title\'],\n            content=json[\'content\'],\n            domain=json[\'domain\'],\n            author=json[\'author\'],\n            excerpt=json[\'excerpt\'],\n            word_count=json[\'word_count\'],\n            total_pages=json[\'total_pages\'],\n            date_published=json[\'date_published\'],\n            next_page_id=json[\'next_page_id\'],\n            rendered_pages=json[\'rendered_pages\'],            \n            )\n    \n    board = db(db.board.name==request.vars.board).select().first()\n    \n    pin = db((db.pin.board_id == board.id) & (db.pin.article_id == article.id)).select().first()\n    if pin is None:\n        pin = db.pin.insert(board_id=board.id, article_id=article.id)\n    \n    return pin.id\n    \ndef follow_user():\n    follower = auth.user\n    followee = db.auth_user(request.vars.followee)\n    if followee is None:\n        return \'no followee\'\n        \n    rel = db((db.user_user.follower_id == follower.id) & (db.user_user.followee_id == followee.id)).select().first()\n\n    if rel is None:\n        rel = db.user_user.insert(follower_id = follower.id, followee_id = followee.id)\n        return \'added\' #http code\n        \n    return rel #http code\n\ndef unfollow_user():\n    follower = auth.user\n    followee = db.auth_user(request.vars.followee)\n    if followee is None:\n        return \'no followee\'\n        \n    rel = db((db.user_user.follower_id == follower.id) & (db.user_user.followee_id == followee.id)).select().first()\n    if rel is None:\n        return \'no rel\'\n    \n    db.user_user.remove(id == rel.id)\n    return \'deleted\'\n            \ndef user():\n    """\n    exposes:\n    http://..../[app]/default/user/login\n    http://..../[app]/default/user/logout\n    http://..../[app]/default/user/register\n    http://..../[app]/default/user/profile\n    http://..../[app]/default/user/retrieve_password\n    http://..../[app]/default/user/change_password\n    use @auth.requires_login()\n        @auth.requires_membership(\'group name\')\n        @auth.requires_permission(\'read\',\'table name\',record_id)\n    to decorate functions that need access control\n    """\n    return dict(form=auth())\n\n\ndef download():\n    """\n    allows downloading of uploaded files\n    http://..../[app]/default/download/[filename]\n    """\n    return response.download(request,db)\n\n\ndef call():\n    """\n    exposes services. for example:\n    http://..../[app]/default/call/jsonrpc\n    decorate with @services.jsonrpc the functions to expose\n    supports xml, json, xmlrpc, jsonrpc, amfrpc, rss, csv\n    """\n    return service()\n\n\n@auth.requires_signature()\ndef data():\n    """\n    http://..../[app]/default/data/tables\n    http://..../[app]/default/data/create/[table]\n    http://..../[app]/default/data/read/[table]/[id]\n    http://..../[app]/default/data/update/[table]/[id]\n    http://..../[app]/default/data/delete/[table]/[id]\n    http://..../[app]/default/data/select/[table]\n    http://..../[app]/default/data/search/[table]\n    but URLs must be signed, i.e. linked with\n      A(\'table\',_href=URL(\'data/tables\',user_signature=True))\n    or with the signed load operator\n      LOAD(\'default\',\'data.load\',args=\'tables\',ajax=True,user_signature=True)\n    """\n    return dict(form=crud())\n\nresponse._vars=response._caller(add_article)\n'
p7
sS'snapshot'
p8
(dp9
S'exception'
p10
(dp11
S'__hash__'
p12
S"<method-wrapper '__hash__' of exceptions.KeyError object at 0x9ed3b20>"
p13
sS'__setattr__'
p14
S"<method-wrapper '__setattr__' of exceptions.KeyError object at 0x9ed3b20>"
p15
sS'__reduce_ex__'
p16
S'<built-in method __reduce_ex__ of exceptions.KeyError object at 0x9ed3b20>'
p17
sS'__getslice__'
p18
S"<method-wrapper '__getslice__' of exceptions.KeyError object at 0x9ed3b20>"
p19
sS'__getitem__'
p20
S"<method-wrapper '__getitem__' of exceptions.KeyError object at 0x9ed3b20>"
p21
sS'__setstate__'
p22
S'<built-in method __setstate__ of exceptions.KeyError object at 0x9ed3b20>'
p23
sS'__reduce__'
p24
S'<built-in method __reduce__ of exceptions.KeyError object at 0x9ed3b20>'
p25
sS'__str__'
p26
S"<method-wrapper '__str__' of exceptions.KeyError object at 0x9ed3b20>"
p27
sS'args'
p28
S"('url',)"
p29
sS'__getattribute__'
p30
S"<method-wrapper '__getattribute__' of exceptions.KeyError object at 0x9ed3b20>"
p31
sS'__class__'
p32
S"<type 'exceptions.KeyError'>"
p33
sS'__delattr__'
p34
S"<method-wrapper '__delattr__' of exceptions.KeyError object at 0x9ed3b20>"
p35
sS'__repr__'
p36
S"<method-wrapper '__repr__' of exceptions.KeyError object at 0x9ed3b20>"
p37
sS'__dict__'
p38
S'{}'
p39
sS'__doc__'
p40
S"'Mapping key not found.'"
p41
sS'__init__'
p42
S"<method-wrapper '__init__' of exceptions.KeyError object at 0x9ed3b20>"
p43
sS'__new__'
p44
S'<built-in method __new__ of type object at 0xfff20>'
p45
ssS'evalue'
p46
S"'url'"
p47
sS'request'
p48
ccopy_reg
_reconstructor
p49
(cgluon.html
BEAUTIFY
p50
c__builtin__
object
p51
NtRp52
(dp53
S'attributes'
p54
(dp55
sS'components'
p56
(lp57
g49
(cgluon.html
TABLE
p58
g51
NtRp59
(dp60
g54
(dp61
S'level'
p62
I5
ssS'parent'
p63
Nsg56
(lp64
g49
(cgluon.html
TR
p65
g51
NtRp66
(dp67
g54
(dp68
sg63
g59
sg56
(lp69
g49
(cgluon.html
TD
p70
g51
NtRp71
(dp72
g54
(dp73
S'_style'
p74
S'font-weight:bold;vertical-align:top'
p75
ssg63
g66
sg56
(lp76
S'ajax'
p77
asbag49
(g70
g51
NtRp78
(dp79
g54
(dp80
S'_valign'
p81
S'top'
p82
ssg63
g66
sg56
(lp83
S':'
asbag49
(g70
g51
NtRp84
(dp85
g54
(dp86
sg63
g66
sg56
(lp87
g49
(g50
g51
NtRp88
(dp89
g54
(dp90
g62
I5
ssg63
g84
sg56
(lp91
S'True'
p92
asbasbasbag49
(g65
g51
NtRp93
(dp94
g54
(dp95
sg63
g59
sg56
(lp96
g49
(g70
g51
NtRp97
(dp98
g54
(dp99
g74
g75
ssg63
g93
sg56
(lp100
S'application'
p101
asbag49
(g70
g51
NtRp102
(dp103
g54
(dp104
g81
g82
ssg63
g93
sg56
(lp105
S':'
asbag49
(g70
g51
NtRp106
(dp107
g54
(dp108
sg63
g93
sg56
(lp109
g49
(g50
g51
NtRp110
(dp111
g54
(dp112
g62
I5
ssg63
g106
sg56
(lp113
S'udi0312'
p114
asbasbasbag49
(g65
g51
NtRp115
(dp116
g54
(dp117
sg63
g59
sg56
(lp118
g49
(g70
g51
NtRp119
(dp120
g54
(dp121
g74
g75
ssg63
g115
sg56
(lp122
g28
asbag49
(g70
g51
NtRp123
(dp124
g54
(dp125
g81
g82
ssg63
g115
sg56
(lp126
S':'
asbag49
(g70
g51
NtRp127
(dp128
g54
(dp129
sg63
g115
sg56
(lp130
g49
(g50
g51
NtRp131
(dp132
g54
(dp133
g62
I5
ssg63
g127
sg56
(lp134
g49
(g58
g51
NtRp135
(dp136
g54
(dp137
g62
I4
ssg63
Nsg56
(lp138
sbasbasbasbag49
(g65
g51
NtRp139
(dp140
g54
(dp141
sg63
g59
sg56
(lp142
g49
(g70
g51
NtRp143
(dp144
g54
(dp145
g74
g75
ssg63
g139
sg56
(lp146
S'body'
p147
asbag49
(g70
g51
NtRp148
(dp149
g54
(dp150
g81
g82
ssg63
g139
sg56
(lp151
S':'
asbag49
(g70
g51
NtRp152
(dp153
g54
(dp154
sg63
g139
sg56
(lp155
g49
(g50
g51
NtRp156
(dp157
g54
(dp158
g62
I5
ssg63
g152
sg56
(lp159
S"<open file '<fdopen>', mode 'w+b' at 0xa964bf0>"
p160
asbasbasbag49
(g65
g51
NtRp161
(dp162
g54
(dp163
sg63
g59
sg56
(lp164
g49
(g70
g51
NtRp165
(dp166
g54
(dp167
g74
g75
ssg63
g161
sg56
(lp168
S'client'
p169
asbag49
(g70
g51
NtRp170
(dp171
g54
(dp172
g81
g82
ssg63
g161
sg56
(lp173
S':'
asbag49
(g70
g51
NtRp174
(dp175
g54
(dp176
sg63
g161
sg56
(lp177
g49
(g50
g51
NtRp178
(dp179
g54
(dp180
g62
I5
ssg63
g174
sg56
(lp181
S'127.0.0.1'
p182
asbasbasbag49
(g65
g51
NtRp183
(dp184
g54
(dp185
sg63
g59
sg56
(lp186
g49
(g70
g51
NtRp187
(dp188
g54
(dp189
g74
g75
ssg63
g183
sg56
(lp190
S'controller'
p191
asbag49
(g70
g51
NtRp192
(dp193
g54
(dp194
g81
g82
ssg63
g183
sg56
(lp195
S':'
asbag49
(g70
g51
NtRp196
(dp197
g54
(dp198
sg63
g183
sg56
(lp199
g49
(g50
g51
NtRp200
(dp201
g54
(dp202
g62
I5
ssg63
g196
sg56
(lp203
S'default'
p204
asbasbasbag49
(g65
g51
NtRp205
(dp206
g54
(dp207
sg63
g59
sg56
(lp208
g49
(g70
g51
NtRp209
(dp210
g54
(dp211
g74
g75
ssg63
g205
sg56
(lp212
S'cookies'
p213
asbag49
(g70
g51
NtRp214
(dp215
g54
(dp216
g81
g82
ssg63
g205
sg56
(lp217
S':'
asbag49
(g70
g51
NtRp218
(dp219
g54
(dp220
sg63
g205
sg56
(lp221
g49
(g50
g51
NtRp222
(dp223
g54
(dp224
g62
I5
ssg63
g218
sg56
(lp225
g49
(g58
g51
NtRp226
(dp227
g54
(dp228
g62
I4
ssg63
Nsg56
(lp229
g49
(g65
g51
NtRp230
(dp231
g54
(dp232
sg63
g226
sg56
(lp233
g49
(g70
g51
NtRp234
(dp235
g54
(dp236
g74
g75
ssg63
g230
sg56
(lp237
S'session_id_admin'
p238
asbag49
(g70
g51
NtRp239
(dp240
g54
(dp241
g81
g82
ssg63
g230
sg56
(lp242
S':'
asbag49
(g70
g51
NtRp243
(dp244
g54
(dp245
sg63
g230
sg56
(lp246
g49
(g50
g51
NtRp247
(dp248
g54
(dp249
g62
I4
ssg63
g243
sg56
(lp250
g49
(g58
g51
NtRp251
(dp252
g54
(dp253
g62
I3
ssg63
Nsg56
(lp254
g49
(g65
g51
NtRp255
(dp256
g54
(dp257
sg63
g251
sg56
(lp258
g49
(g70
g51
NtRp259
(dp260
g54
(dp261
g74
g75
ssg63
g255
sg56
(lp262
S'comment'
p263
asbag49
(g70
g51
NtRp264
(dp265
g54
(dp266
g81
g82
ssg63
g255
sg56
(lp267
S':'
asbag49
(g70
g51
NtRp268
(dp269
g54
(dp270
sg63
g255
sg56
(lp271
g49
(g50
g51
NtRp272
(dp273
g54
(dp274
g62
I3
ssg63
g268
sg56
(lp275
S''
asbasbasbag49
(g65
g51
NtRp276
(dp277
g54
(dp278
sg63
g251
sg56
(lp279
g49
(g70
g51
NtRp280
(dp281
g54
(dp282
g74
g75
ssg63
g276
sg56
(lp283
S'domain'
p284
asbag49
(g70
g51
NtRp285
(dp286
g54
(dp287
g81
g82
ssg63
g276
sg56
(lp288
S':'
asbag49
(g70
g51
NtRp289
(dp290
g54
(dp291
sg63
g276
sg56
(lp292
g49
(g50
g51
NtRp293
(dp294
g54
(dp295
g62
I3
ssg63
g289
sg56
(lp296
S''
asbasbasbag49
(g65
g51
NtRp297
(dp298
g54
(dp299
sg63
g251
sg56
(lp300
g49
(g70
g51
NtRp301
(dp302
g54
(dp303
g74
g75
ssg63
g297
sg56
(lp304
S'expires'
p305
asbag49
(g70
g51
NtRp306
(dp307
g54
(dp308
g81
g82
ssg63
g297
sg56
(lp309
S':'
asbag49
(g70
g51
NtRp310
(dp311
g54
(dp312
sg63
g297
sg56
(lp313
g49
(g50
g51
NtRp314
(dp315
g54
(dp316
g62
I3
ssg63
g310
sg56
(lp317
S''
asbasbasbag49
(g65
g51
NtRp318
(dp319
g54
(dp320
sg63
g251
sg56
(lp321
g49
(g70
g51
NtRp322
(dp323
g54
(dp324
g74
g75
ssg63
g318
sg56
(lp325
S'max-age'
p326
asbag49
(g70
g51
NtRp327
(dp328
g54
(dp329
g81
g82
ssg63
g318
sg56
(lp330
S':'
asbag49
(g70
g51
NtRp331
(dp332
g54
(dp333
sg63
g318
sg56
(lp334
g49
(g50
g51
NtRp335
(dp336
g54
(dp337
g62
I3
ssg63
g331
sg56
(lp338
S''
asbasbasbag49
(g65
g51
NtRp339
(dp340
g54
(dp341
sg63
g251
sg56
(lp342
g49
(g70
g51
NtRp343
(dp344
g54
(dp345
g74
g75
ssg63
g339
sg56
(lp346
S'path'
p347
asbag49
(g70
g51
NtRp348
(dp349
g54
(dp350
g81
g82
ssg63
g339
sg56
(lp351
S':'
asbag49
(g70
g51
NtRp352
(dp353
g54
(dp354
sg63
g339
sg56
(lp355
g49
(g50
g51
NtRp356
(dp357
g54
(dp358
g62
I3
ssg63
g352
sg56
(lp359
S''
asbasbasbag49
(g65
g51
NtRp360
(dp361
g54
(dp362
sg63
g251
sg56
(lp363
g49
(g70
g51
NtRp364
(dp365
g54
(dp366
g74
g75
ssg63
g360
sg56
(lp367
S'secure'
p368
asbag49
(g70
g51
NtRp369
(dp370
g54
(dp371
g81
g82
ssg63
g360
sg56
(lp372
S':'
asbag49
(g70
g51
NtRp373
(dp374
g54
(dp375
sg63
g360
sg56
(lp376
g49
(g50
g51
NtRp377
(dp378
g54
(dp379
g62
I3
ssg63
g373
sg56
(lp380
S''
asbasbasbag49
(g65
g51
NtRp381
(dp382
g54
(dp383
sg63
g251
sg56
(lp384
g49
(g70
g51
NtRp385
(dp386
g54
(dp387
g74
g75
ssg63
g381
sg56
(lp388
S'version'
p389
asbag49
(g70
g51
NtRp390
(dp391
g54
(dp392
g81
g82
ssg63
g381
sg56
(lp393
S':'
asbag49
(g70
g51
NtRp394
(dp395
g54
(dp396
sg63
g381
sg56
(lp397
g49
(g50
g51
NtRp398
(dp399
g54
(dp400
g62
I3
ssg63
g394
sg56
(lp401
S''
asbasbasbasbasbasbasbag49
(g65
g51
NtRp402
(dp403
g54
(dp404
sg63
g226
sg56
(lp405
g49
(g70
g51
NtRp406
(dp407
g54
(dp408
g74
g75
ssg63
g402
sg56
(lp409
S'session_id_udi0312'
p410
asbag49
(g70
g51
NtRp411
(dp412
g54
(dp413
g81
g82
ssg63
g402
sg56
(lp414
S':'
asbag49
(g70
g51
NtRp415
(dp416
g54
(dp417
sg63
g402
sg56
(lp418
g49
(g50
g51
NtRp419
(dp420
g54
(dp421
g62
I4
ssg63
g415
sg56
(lp422
g49
(g58
g51
NtRp423
(dp424
g54
(dp425
g62
I3
ssg63
Nsg56
(lp426
g49
(g65
g51
NtRp427
(dp428
g54
(dp429
sg63
g423
sg56
(lp430
g49
(g70
g51
NtRp431
(dp432
g54
(dp433
g74
g75
ssg63
g427
sg56
(lp434
g263
asbag49
(g70
g51
NtRp435
(dp436
g54
(dp437
g81
g82
ssg63
g427
sg56
(lp438
S':'
asbag49
(g70
g51
NtRp439
(dp440
g54
(dp441
sg63
g427
sg56
(lp442
g49
(g50
g51
NtRp443
(dp444
g54
(dp445
g62
I3
ssg63
g439
sg56
(lp446
S''
asbasbasbag49
(g65
g51
NtRp447
(dp448
g54
(dp449
sg63
g423
sg56
(lp450
g49
(g70
g51
NtRp451
(dp452
g54
(dp453
g74
g75
ssg63
g447
sg56
(lp454
g284
asbag49
(g70
g51
NtRp455
(dp456
g54
(dp457
g81
g82
ssg63
g447
sg56
(lp458
S':'
asbag49
(g70
g51
NtRp459
(dp460
g54
(dp461
sg63
g447
sg56
(lp462
g49
(g50
g51
NtRp463
(dp464
g54
(dp465
g62
I3
ssg63
g459
sg56
(lp466
S''
asbasbasbag49
(g65
g51
NtRp467
(dp468
g54
(dp469
sg63
g423
sg56
(lp470
g49
(g70
g51
NtRp471
(dp472
g54
(dp473
g74
g75
ssg63
g467
sg56
(lp474
g305
asbag49
(g70
g51
NtRp475
(dp476
g54
(dp477
g81
g82
ssg63
g467
sg56
(lp478
S':'
asbag49
(g70
g51
NtRp479
(dp480
g54
(dp481
sg63
g467
sg56
(lp482
g49
(g50
g51
NtRp483
(dp484
g54
(dp485
g62
I3
ssg63
g479
sg56
(lp486
S''
asbasbasbag49
(g65
g51
NtRp487
(dp488
g54
(dp489
sg63
g423
sg56
(lp490
g49
(g70
g51
NtRp491
(dp492
g54
(dp493
g74
g75
ssg63
g487
sg56
(lp494
g326
asbag49
(g70
g51
NtRp495
(dp496
g54
(dp497
g81
g82
ssg63
g487
sg56
(lp498
S':'
asbag49
(g70
g51
NtRp499
(dp500
g54
(dp501
sg63
g487
sg56
(lp502
g49
(g50
g51
NtRp503
(dp504
g54
(dp505
g62
I3
ssg63
g499
sg56
(lp506
S''
asbasbasbag49
(g65
g51
NtRp507
(dp508
g54
(dp509
sg63
g423
sg56
(lp510
g49
(g70
g51
NtRp511
(dp512
g54
(dp513
g74
g75
ssg63
g507
sg56
(lp514
g347
asbag49
(g70
g51
NtRp515
(dp516
g54
(dp517
g81
g82
ssg63
g507
sg56
(lp518
S':'
asbag49
(g70
g51
NtRp519
(dp520
g54
(dp521
sg63
g507
sg56
(lp522
g49
(g50
g51
NtRp523
(dp524
g54
(dp525
g62
I3
ssg63
g519
sg56
(lp526
S''
asbasbasbag49
(g65
g51
NtRp527
(dp528
g54
(dp529
sg63
g423
sg56
(lp530
g49
(g70
g51
NtRp531
(dp532
g54
(dp533
g74
g75
ssg63
g527
sg56
(lp534
g368
asbag49
(g70
g51
NtRp535
(dp536
g54
(dp537
g81
g82
ssg63
g527
sg56
(lp538
S':'
asbag49
(g70
g51
NtRp539
(dp540
g54
(dp541
sg63
g527
sg56
(lp542
g49
(g50
g51
NtRp543
(dp544
g54
(dp545
g62
I3
ssg63
g539
sg56
(lp546
S''
asbasbasbag49
(g65
g51
NtRp547
(dp548
g54
(dp549
sg63
g423
sg56
(lp550
g49
(g70
g51
NtRp551
(dp552
g54
(dp553
g74
g75
ssg63
g547
sg56
(lp554
g389
asbag49
(g70
g51
NtRp555
(dp556
g54
(dp557
g81
g82
ssg63
g547
sg56
(lp558
S':'
asbag49
(g70
g51
NtRp559
(dp560
g54
(dp561
sg63
g547
sg56
(lp562
g49
(g50
g51
NtRp563
(dp564
g54
(dp565
g62
I3
ssg63
g559
sg56
(lp566
S''
asbasbasbasbasbasbasbasbasbasbasbag49
(g65
g51
NtRp567
(dp568
g54
(dp569
sg63
g59
sg56
(lp570
g49
(g70
g51
NtRp571
(dp572
g54
(dp573
g74
g75
ssg63
g567
sg56
(lp574
S'env'
p575
asbag49
(g70
g51
NtRp576
(dp577
g54
(dp578
g81
g82
ssg63
g567
sg56
(lp579
S':'
asbag49
(g70
g51
NtRp580
(dp581
g54
(dp582
sg63
g567
sg56
(lp583
g49
(g50
g51
NtRp584
(dp585
g54
(dp586
g62
I5
ssg63
g580
sg56
(lp587
g49
(g58
g51
NtRp588
(dp589
g54
(dp590
g62
I4
ssg63
Nsg56
(lp591
g49
(g65
g51
NtRp592
(dp593
g54
(dp594
sg63
g588
sg56
(lp595
g49
(g70
g51
NtRp596
(dp597
g54
(dp598
g74
g75
ssg63
g592
sg56
(lp599
S'app_folders'
p600
asbag49
(g70
g51
NtRp601
(dp602
g54
(dp603
g81
g82
ssg63
g592
sg56
(lp604
S':'
asbag49
(g70
g51
NtRp605
(dp606
g54
(dp607
sg63
g592
sg56
(lp608
g49
(g50
g51
NtRp609
(dp610
g54
(dp611
g62
I4
ssg63
g605
sg56
(lp612
S"set(['/Users/udimilo/Documents/web2py/applications/udi0312/', '/Users/udimilo/Documents/web2py/applications/admin/'])"
p613
asbasbasbag49
(g65
g51
NtRp614
(dp615
g54
(dp616
sg63
g588
sg56
(lp617
g49
(g70
g51
NtRp618
(dp619
g54
(dp620
g74
g75
ssg63
g614
sg56
(lp621
S'applications_parent'
p622
asbag49
(g70
g51
NtRp623
(dp624
g54
(dp625
g81
g82
ssg63
g614
sg56
(lp626
S':'
asbag49
(g70
g51
NtRp627
(dp628
g54
(dp629
sg63
g614
sg56
(lp630
g49
(g50
g51
NtRp631
(dp632
g54
(dp633
g62
I4
ssg63
g627
sg56
(lp634
S'/Users/udimilo/Documents/web2py'
p635
asbasbasbag49
(g65
g51
NtRp636
(dp637
g54
(dp638
sg63
g588
sg56
(lp639
g49
(g70
g51
NtRp640
(dp641
g54
(dp642
g74
g75
ssg63
g636
sg56
(lp643
S'cmd_args'
p644
asbag49
(g70
g51
NtRp645
(dp646
g54
(dp647
g81
g82
ssg63
g636
sg56
(lp648
S':'
asbag49
(g70
g51
NtRp649
(dp650
g54
(dp651
sg63
g636
sg56
(lp652
g49
(g50
g51
NtRp653
(dp654
g54
(dp655
g62
I4
ssg63
g649
sg56
(lp656
g49
(g58
g51
NtRp657
(dp658
g54
(dp659
g62
I3
ssg63
Nsg56
(lp660
sbasbasbasbag49
(g65
g51
NtRp661
(dp662
g54
(dp663
sg63
g588
sg56
(lp664
g49
(g70
g51
NtRp665
(dp666
g54
(dp667
g74
g75
ssg63
g661
sg56
(lp668
S'cmd_options'
p669
asbag49
(g70
g51
NtRp670
(dp671
g54
(dp672
g81
g82
ssg63
g661
sg56
(lp673
S':'
asbag49
(g70
g51
NtRp674
(dp675
g54
(dp676
sg63
g661
sg56
(lp677
g49
(g50
g51
NtRp678
(dp679
g54
(dp680
g62
I4
ssg63
g674
sg56
(lp681
S"<Values at 0x23301c0: {'verbose': False, 'ip': '127.0.0.1', 'shutdown_timeout': 5, 'taskbar': False, 'nocron': False, 'pid_filename': 'httpserver.pid', 'maxthreads': None, 'softcron': False, 'server_name': 'udi-milos-macbook-pro.fritz.box', 'bpython': False, 'nogui': False, 'port': 8000, 'extcron': False, 'debuglevel': 30, 'test': None, 'folder': '/Users/udimilo/Documents/web2py', 'config': '', 'import_models': False, 'winservice': '', 'shell': None, 'run': '', 'log_filename': 'httpserver.log', 'args': [''], 'socket_timeout': 5, 'ssl_ca_certificate': None, 'scheduler': None, 'profiler_filename': None, 'ssl_private_key': '', 'password': '<ask>', 'request_queue_size': 5, 'ssl_certificate': '', 'cronjob': False, 'numthreads': None, 'quiet': False, 'interfaces': None, 'minthreads': None, 'timeout': 10, 'plain': False, 'nobanner': False}>"
p682
asbasbasbag49
(g65
g51
NtRp683
(dp684
g54
(dp685
sg63
g588
sg56
(lp686
g49
(g70
g51
NtRp687
(dp688
g54
(dp689
g74
g75
ssg63
g683
sg56
(lp690
S'content_length'
p691
asbag49
(g70
g51
NtRp692
(dp693
g54
(dp694
g81
g82
ssg63
g683
sg56
(lp695
S':'
asbag49
(g70
g51
NtRp696
(dp697
g54
(dp698
sg63
g683
sg56
(lp699
g49
(g50
g51
NtRp700
(dp701
g54
(dp702
g62
I4
ssg63
g696
sg56
(lp703
S'26'
p704
asbasbasbag49
(g65
g51
NtRp705
(dp706
g54
(dp707
sg63
g588
sg56
(lp708
g49
(g70
g51
NtRp709
(dp710
g54
(dp711
g74
g75
ssg63
g705
sg56
(lp712
S'content_type'
p713
asbag49
(g70
g51
NtRp714
(dp715
g54
(dp716
g81
g82
ssg63
g705
sg56
(lp717
S':'
asbag49
(g70
g51
NtRp718
(dp719
g54
(dp720
sg63
g705
sg56
(lp721
g49
(g50
g51
NtRp722
(dp723
g54
(dp724
g62
I4
ssg63
g718
sg56
(lp725
S'application/x-www-form-urlencoded'
p726
asbasbasbag49
(g65
g51
NtRp727
(dp728
g54
(dp729
sg63
g588
sg56
(lp730
g49
(g70
g51
NtRp731
(dp732
g54
(dp733
g74
g75
ssg63
g727
sg56
(lp734
S'db_sessions'
p735
asbag49
(g70
g51
NtRp736
(dp737
g54
(dp738
g81
g82
ssg63
g727
sg56
(lp739
S':'
asbag49
(g70
g51
NtRp740
(dp741
g54
(dp742
sg63
g727
sg56
(lp743
g49
(g50
g51
NtRp744
(dp745
g54
(dp746
g62
I4
ssg63
g740
sg56
(lp747
S'set([])'
p748
asbasbasbag49
(g65
g51
NtRp749
(dp750
g54
(dp751
sg63
g588
sg56
(lp752
g49
(g70
g51
NtRp753
(dp754
g54
(dp755
g74
g75
ssg63
g749
sg56
(lp756
S'debugging'
p757
asbag49
(g70
g51
NtRp758
(dp759
g54
(dp760
g81
g82
ssg63
g749
sg56
(lp761
S':'
asbag49
(g70
g51
NtRp762
(dp763
g54
(dp764
sg63
g749
sg56
(lp765
g49
(g50
g51
NtRp766
(dp767
g54
(dp768
g62
I4
ssg63
g762
sg56
(lp769
S'False'
p770
asbasbasbag49
(g65
g51
NtRp771
(dp772
g54
(dp773
sg63
g588
sg56
(lp774
g49
(g70
g51
NtRp775
(dp776
g54
(dp777
g74
g75
ssg63
g771
sg56
(lp778
S'gluon_parent'
p779
asbag49
(g70
g51
NtRp780
(dp781
g54
(dp782
g81
g82
ssg63
g771
sg56
(lp783
S':'
asbag49
(g70
g51
NtRp784
(dp785
g54
(dp786
sg63
g771
sg56
(lp787
g49
(g50
g51
NtRp788
(dp789
g54
(dp790
g62
I4
ssg63
g784
sg56
(lp791
S'/Users/udimilo/Documents/web2py'
p792
asbasbasbag49
(g65
g51
NtRp793
(dp794
g54
(dp795
sg63
g588
sg56
(lp796
g49
(g70
g51
NtRp797
(dp798
g54
(dp799
g74
g75
ssg63
g793
sg56
(lp800
S'http_accept'
p801
asbag49
(g70
g51
NtRp802
(dp803
g54
(dp804
g81
g82
ssg63
g793
sg56
(lp805
S':'
asbag49
(g70
g51
NtRp806
(dp807
g54
(dp808
sg63
g793
sg56
(lp809
g49
(g50
g51
NtRp810
(dp811
g54
(dp812
g62
I4
ssg63
g806
sg56
(lp813
S'*/*'
p814
asbasbasbag49
(g65
g51
NtRp815
(dp816
g54
(dp817
sg63
g588
sg56
(lp818
g49
(g70
g51
NtRp819
(dp820
g54
(dp821
g74
g75
ssg63
g815
sg56
(lp822
S'http_accept_charset'
p823
asbag49
(g70
g51
NtRp824
(dp825
g54
(dp826
g81
g82
ssg63
g815
sg56
(lp827
S':'
asbag49
(g70
g51
NtRp828
(dp829
g54
(dp830
sg63
g815
sg56
(lp831
g49
(g50
g51
NtRp832
(dp833
g54
(dp834
g62
I4
ssg63
g828
sg56
(lp835
S'ISO-8859-1,utf-8;q=0.7,*;q=0.3'
p836
asbasbasbag49
(g65
g51
NtRp837
(dp838
g54
(dp839
sg63
g588
sg56
(lp840
g49
(g70
g51
NtRp841
(dp842
g54
(dp843
g74
g75
ssg63
g837
sg56
(lp844
S'http_accept_encoding'
p845
asbag49
(g70
g51
NtRp846
(dp847
g54
(dp848
g81
g82
ssg63
g837
sg56
(lp849
S':'
asbag49
(g70
g51
NtRp850
(dp851
g54
(dp852
sg63
g837
sg56
(lp853
g49
(g50
g51
NtRp854
(dp855
g54
(dp856
g62
I4
ssg63
g850
sg56
(lp857
S'gzip,deflate,sdch'
p858
asbasbasbag49
(g65
g51
NtRp859
(dp860
g54
(dp861
sg63
g588
sg56
(lp862
g49
(g70
g51
NtRp863
(dp864
g54
(dp865
g74
g75
ssg63
g859
sg56
(lp866
S'http_accept_language'
p867
asbag49
(g70
g51
NtRp868
(dp869
g54
(dp870
g81
g82
ssg63
g859
sg56
(lp871
S':'
asbag49
(g70
g51
NtRp872
(dp873
g54
(dp874
sg63
g859
sg56
(lp875
g49
(g50
g51
NtRp876
(dp877
g54
(dp878
g62
I4
ssg63
g872
sg56
(lp879
S'en-US,en;q=0.8'
p880
asbasbasbag49
(g65
g51
NtRp881
(dp882
g54
(dp883
sg63
g588
sg56
(lp884
g49
(g70
g51
NtRp885
(dp886
g54
(dp887
g74
g75
ssg63
g881
sg56
(lp888
S'http_connection'
p889
asbag49
(g70
g51
NtRp890
(dp891
g54
(dp892
g81
g82
ssg63
g881
sg56
(lp893
S':'
asbag49
(g70
g51
NtRp894
(dp895
g54
(dp896
sg63
g881
sg56
(lp897
g49
(g50
g51
NtRp898
(dp899
g54
(dp900
g62
I4
ssg63
g894
sg56
(lp901
S'keep-alive'
p902
asbasbasbag49
(g65
g51
NtRp903
(dp904
g54
(dp905
sg63
g588
sg56
(lp906
g49
(g70
g51
NtRp907
(dp908
g54
(dp909
g74
g75
ssg63
g903
sg56
(lp910
S'http_content_length'
p911
asbag49
(g70
g51
NtRp912
(dp913
g54
(dp914
g81
g82
ssg63
g903
sg56
(lp915
S':'
asbag49
(g70
g51
NtRp916
(dp917
g54
(dp918
sg63
g903
sg56
(lp919
g49
(g50
g51
NtRp920
(dp921
g54
(dp922
g62
I4
ssg63
g916
sg56
(lp923
g704
asbasbasbag49
(g65
g51
NtRp924
(dp925
g54
(dp926
sg63
g588
sg56
(lp927
g49
(g70
g51
NtRp928
(dp929
g54
(dp930
g74
g75
ssg63
g924
sg56
(lp931
S'http_content_type'
p932
asbag49
(g70
g51
NtRp933
(dp934
g54
(dp935
g81
g82
ssg63
g924
sg56
(lp936
S':'
asbag49
(g70
g51
NtRp937
(dp938
g54
(dp939
sg63
g924
sg56
(lp940
g49
(g50
g51
NtRp941
(dp942
g54
(dp943
g62
I4
ssg63
g937
sg56
(lp944
g726
asbasbasbag49
(g65
g51
NtRp945
(dp946
g54
(dp947
sg63
g588
sg56
(lp948
g49
(g70
g51
NtRp949
(dp950
g54
(dp951
g74
g75
ssg63
g945
sg56
(lp952
S'http_cookie'
p953
asbag49
(g70
g51
NtRp954
(dp955
g54
(dp956
g81
g82
ssg63
g945
sg56
(lp957
S':'
asbag49
(g70
g51
NtRp958
(dp959
g54
(dp960
sg63
g945
sg56
(lp961
g49
(g50
g51
NtRp962
(dp963
g54
(dp964
g62
I4
ssg63
g958
sg56
(lp965
S'session_id_admin=127.0.0.1-1c2f8ac3-a0a0-4841-86df-ee9dcb829652; session_id_udi0312=127.0.0.1-fcd6a577-d448-4882-b7bc-f353da84ba3b'
p966
asbasbasbag49
(g65
g51
NtRp967
(dp968
g54
(dp969
sg63
g588
sg56
(lp970
g49
(g70
g51
NtRp971
(dp972
g54
(dp973
g74
g75
ssg63
g967
sg56
(lp974
S'http_host'
p975
asbag49
(g70
g51
NtRp976
(dp977
g54
(dp978
g81
g82
ssg63
g967
sg56
(lp979
S':'
asbag49
(g70
g51
NtRp980
(dp981
g54
(dp982
sg63
g967
sg56
(lp983
g49
(g50
g51
NtRp984
(dp985
g54
(dp986
g62
I4
ssg63
g980
sg56
(lp987
S'127.0.0.1:8000'
p988
asbasbasbag49
(g65
g51
NtRp989
(dp990
g54
(dp991
sg63
g588
sg56
(lp992
g49
(g70
g51
NtRp993
(dp994
g54
(dp995
g74
g75
ssg63
g989
sg56
(lp996
S'http_origin'
p997
asbag49
(g70
g51
NtRp998
(dp999
g54
(dp1000
g81
g82
ssg63
g989
sg56
(lp1001
S':'
asbag49
(g70
g51
NtRp1002
(dp1003
g54
(dp1004
sg63
g989
sg56
(lp1005
g49
(g50
g51
NtRp1006
(dp1007
g54
(dp1008
g62
I4
ssg63
g1002
sg56
(lp1009
S'http://127.0.0.1:8000'
p1010
asbasbasbag49
(g65
g51
NtRp1011
(dp1012
g54
(dp1013
sg63
g588
sg56
(lp1014
g49
(g70
g51
NtRp1015
(dp1016
g54
(dp1017
g74
g75
ssg63
g1011
sg56
(lp1018
S'http_referer'
p1019
asbag49
(g70
g51
NtRp1020
(dp1021
g54
(dp1022
g81
g82
ssg63
g1011
sg56
(lp1023
S':'
asbag49
(g70
g51
NtRp1024
(dp1025
g54
(dp1026
sg63
g1011
sg56
(lp1027
g49
(g50
g51
NtRp1028
(dp1029
g54
(dp1030
g62
I4
ssg63
g1024
sg56
(lp1031
S'http://127.0.0.1:8000/'
p1032
asbasbasbag49
(g65
g51
NtRp1033
(dp1034
g54
(dp1035
sg63
g588
sg56
(lp1036
g49
(g70
g51
NtRp1037
(dp1038
g54
(dp1039
g74
g75
ssg63
g1033
sg56
(lp1040
S'http_user_agent'
p1041
asbag49
(g70
g51
NtRp1042
(dp1043
g54
(dp1044
g81
g82
ssg63
g1033
sg56
(lp1045
S':'
asbag49
(g70
g51
NtRp1046
(dp1047
g54
(dp1048
sg63
g1033
sg56
(lp1049
g49
(g50
g51
NtRp1050
(dp1051
g54
(dp1052
g62
I4
ssg63
g1046
sg56
(lp1053
S'Mozilla/5.0 (Macintosh; Intel Mac OS X 10_7_3) AppleWebKit/535.11 (KHTML, like Gecko) Chrome/17.0.963.78 Safari/535.11'
p1054
asbasbasbag49
(g65
g51
NtRp1055
(dp1056
g54
(dp1057
sg63
g588
sg56
(lp1058
g49
(g70
g51
NtRp1059
(dp1060
g54
(dp1061
g74
g75
ssg63
g1055
sg56
(lp1062
S'http_x_requested_with'
p1063
asbag49
(g70
g51
NtRp1064
(dp1065
g54
(dp1066
g81
g82
ssg63
g1055
sg56
(lp1067
S':'
asbag49
(g70
g51
NtRp1068
(dp1069
g54
(dp1070
sg63
g1055
sg56
(lp1071
g49
(g50
g51
NtRp1072
(dp1073
g54
(dp1074
g62
I4
ssg63
g1068
sg56
(lp1075
S'XMLHttpRequest'
p1076
asbasbasbag49
(g65
g51
NtRp1077
(dp1078
g54
(dp1079
sg63
g588
sg56
(lp1080
g49
(g70
g51
NtRp1081
(dp1082
g54
(dp1083
g74
g75
ssg63
g1077
sg56
(lp1084
S'is_jython'
p1085
asbag49
(g70
g51
NtRp1086
(dp1087
g54
(dp1088
g81
g82
ssg63
g1077
sg56
(lp1089
S':'
asbag49
(g70
g51
NtRp1090
(dp1091
g54
(dp1092
sg63
g1077
sg56
(lp1093
g49
(g50
g51
NtRp1094
(dp1095
g54
(dp1096
g62
I4
ssg63
g1090
sg56
(lp1097
g770
asbasbasbag49
(g65
g51
NtRp1098
(dp1099
g54
(dp1100
sg63
g588
sg56
(lp1101
g49
(g70
g51
NtRp1102
(dp1103
g54
(dp1104
g74
g75
ssg63
g1098
sg56
(lp1105
S'is_pypy'
p1106
asbag49
(g70
g51
NtRp1107
(dp1108
g54
(dp1109
g81
g82
ssg63
g1098
sg56
(lp1110
S':'
asbag49
(g70
g51
NtRp1111
(dp1112
g54
(dp1113
sg63
g1098
sg56
(lp1114
g49
(g50
g51
NtRp1115
(dp1116
g54
(dp1117
g62
I4
ssg63
g1111
sg56
(lp1118
g770
asbasbasbag49
(g65
g51
NtRp1119
(dp1120
g54
(dp1121
sg63
g588
sg56
(lp1122
g49
(g70
g51
NtRp1123
(dp1124
g54
(dp1125
g74
g75
ssg63
g1119
sg56
(lp1126
S'path_info'
p1127
asbag49
(g70
g51
NtRp1128
(dp1129
g54
(dp1130
g81
g82
ssg63
g1119
sg56
(lp1131
S':'
asbag49
(g70
g51
NtRp1132
(dp1133
g54
(dp1134
sg63
g1119
sg56
(lp1135
g49
(g50
g51
NtRp1136
(dp1137
g54
(dp1138
g62
I4
ssg63
g1132
sg56
(lp1139
S'/add_article'
p1140
asbasbasbag49
(g65
g51
NtRp1141
(dp1142
g54
(dp1143
sg63
g588
sg56
(lp1144
g49
(g70
g51
NtRp1145
(dp1146
g54
(dp1147
g74
g75
ssg63
g1141
sg56
(lp1148
S'query_string'
p1149
asbag49
(g70
g51
NtRp1150
(dp1151
g54
(dp1152
g81
g82
ssg63
g1141
sg56
(lp1153
S':'
asbag49
(g70
g51
NtRp1154
(dp1155
g54
(dp1156
sg63
g1141
sg56
(lp1157
g49
(g50
g51
NtRp1158
(dp1159
g54
(dp1160
g62
I4
ssg63
g1154
sg56
(lp1161
S''
asbasbasbag49
(g65
g51
NtRp1162
(dp1163
g54
(dp1164
sg63
g588
sg56
(lp1165
g49
(g70
g51
NtRp1166
(dp1167
g54
(dp1168
g74
g75
ssg63
g1162
sg56
(lp1169
S'remote_addr'
p1170
asbag49
(g70
g51
NtRp1171
(dp1172
g54
(dp1173
g81
g82
ssg63
g1162
sg56
(lp1174
S':'
asbag49
(g70
g51
NtRp1175
(dp1176
g54
(dp1177
sg63
g1162
sg56
(lp1178
g49
(g50
g51
NtRp1179
(dp1180
g54
(dp1181
g62
I4
ssg63
g1175
sg56
(lp1182
g182
asbasbasbag49
(g65
g51
NtRp1183
(dp1184
g54
(dp1185
sg63
g588
sg56
(lp1186
g49
(g70
g51
NtRp1187
(dp1188
g54
(dp1189
g74
g75
ssg63
g1183
sg56
(lp1190
S'remote_port'
p1191
asbag49
(g70
g51
NtRp1192
(dp1193
g54
(dp1194
g81
g82
ssg63
g1183
sg56
(lp1195
S':'
asbag49
(g70
g51
NtRp1196
(dp1197
g54
(dp1198
sg63
g1183
sg56
(lp1199
g49
(g50
g51
NtRp1200
(dp1201
g54
(dp1202
g62
I4
ssg63
g1196
sg56
(lp1203
S'51440'
p1204
asbasbasbag49
(g65
g51
NtRp1205
(dp1206
g54
(dp1207
sg63
g588
sg56
(lp1208
g49
(g70
g51
NtRp1209
(dp1210
g54
(dp1211
g74
g75
ssg63
g1205
sg56
(lp1212
S'request_method'
p1213
asbag49
(g70
g51
NtRp1214
(dp1215
g54
(dp1216
g81
g82
ssg63
g1205
sg56
(lp1217
S':'
asbag49
(g70
g51
NtRp1218
(dp1219
g54
(dp1220
sg63
g1205
sg56
(lp1221
g49
(g50
g51
NtRp1222
(dp1223
g54
(dp1224
g62
I4
ssg63
g1218
sg56
(lp1225
S'POST'
p1226
asbasbasbag49
(g65
g51
NtRp1227
(dp1228
g54
(dp1229
sg63
g588
sg56
(lp1230
g49
(g70
g51
NtRp1231
(dp1232
g54
(dp1233
g74
g75
ssg63
g1227
sg56
(lp1234
S'request_uri'
p1235
asbag49
(g70
g51
NtRp1236
(dp1237
g54
(dp1238
g81
g82
ssg63
g1227
sg56
(lp1239
S':'
asbag49
(g70
g51
NtRp1240
(dp1241
g54
(dp1242
sg63
g1227
sg56
(lp1243
g49
(g50
g51
NtRp1244
(dp1245
g54
(dp1246
g62
I4
ssg63
g1240
sg56
(lp1247
S'/udi0312/default/add_article'
p1248
asbasbasbag49
(g65
g51
NtRp1249
(dp1250
g54
(dp1251
sg63
g588
sg56
(lp1252
g49
(g70
g51
NtRp1253
(dp1254
g54
(dp1255
g74
g75
ssg63
g1249
sg56
(lp1256
S'script_name'
p1257
asbag49
(g70
g51
NtRp1258
(dp1259
g54
(dp1260
g81
g82
ssg63
g1249
sg56
(lp1261
S':'
asbag49
(g70
g51
NtRp1262
(dp1263
g54
(dp1264
sg63
g1249
sg56
(lp1265
g49
(g50
g51
NtRp1266
(dp1267
g54
(dp1268
g62
I4
ssg63
g1262
sg56
(lp1269
S''
asbasbasbag49
(g65
g51
NtRp1270
(dp1271
g54
(dp1272
sg63
g588
sg56
(lp1273
g49
(g70
g51
NtRp1274
(dp1275
g54
(dp1276
g74
g75
ssg63
g1270
sg56
(lp1277
S'server_name'
p1278
asbag49
(g70
g51
NtRp1279
(dp1280
g54
(dp1281
g81
g82
ssg63
g1270
sg56
(lp1282
S':'
asbag49
(g70
g51
NtRp1283
(dp1284
g54
(dp1285
sg63
g1270
sg56
(lp1286
g49
(g50
g51
NtRp1287
(dp1288
g54
(dp1289
g62
I4
ssg63
g1283
sg56
(lp1290
S'udi-milos-macbook-pro.fritz.box'
p1291
asbasbasbag49
(g65
g51
NtRp1292
(dp1293
g54
(dp1294
sg63
g588
sg56
(lp1295
g49
(g70
g51
NtRp1296
(dp1297
g54
(dp1298
g74
g75
ssg63
g1292
sg56
(lp1299
S'server_port'
p1300
asbag49
(g70
g51
NtRp1301
(dp1302
g54
(dp1303
g81
g82
ssg63
g1292
sg56
(lp1304
S':'
asbag49
(g70
g51
NtRp1305
(dp1306
g54
(dp1307
sg63
g1292
sg56
(lp1308
g49
(g50
g51
NtRp1309
(dp1310
g54
(dp1311
g62
I4
ssg63
g1305
sg56
(lp1312
S'8000'
p1313
asbasbasbag49
(g65
g51
NtRp1314
(dp1315
g54
(dp1316
sg63
g588
sg56
(lp1317
g49
(g70
g51
NtRp1318
(dp1319
g54
(dp1320
g74
g75
ssg63
g1314
sg56
(lp1321
S'server_protocol'
p1322
asbag49
(g70
g51
NtRp1323
(dp1324
g54
(dp1325
g81
g82
ssg63
g1314
sg56
(lp1326
S':'
asbag49
(g70
g51
NtRp1327
(dp1328
g54
(dp1329
sg63
g1314
sg56
(lp1330
g49
(g50
g51
NtRp1331
(dp1332
g54
(dp1333
g62
I4
ssg63
g1327
sg56
(lp1334
S'HTTP/1.1'
p1335
asbasbasbag49
(g65
g51
NtRp1336
(dp1337
g54
(dp1338
sg63
g588
sg56
(lp1339
g49
(g70
g51
NtRp1340
(dp1341
g54
(dp1342
g74
g75
ssg63
g1336
sg56
(lp1343
S'server_software'
p1344
asbag49
(g70
g51
NtRp1345
(dp1346
g54
(dp1347
g81
g82
ssg63
g1336
sg56
(lp1348
S':'
asbag49
(g70
g51
NtRp1349
(dp1350
g54
(dp1351
sg63
g1336
sg56
(lp1352
g49
(g50
g51
NtRp1353
(dp1354
g54
(dp1355
g62
I4
ssg63
g1349
sg56
(lp1356
S'Rocket 1.2.4'
p1357
asbasbasbag49
(g65
g51
NtRp1358
(dp1359
g54
(dp1360
sg63
g588
sg56
(lp1361
g49
(g70
g51
NtRp1362
(dp1363
g54
(dp1364
g74
g75
ssg63
g1358
sg56
(lp1365
S'web2py_crontype'
p1366
asbag49
(g70
g51
NtRp1367
(dp1368
g54
(dp1369
g81
g82
ssg63
g1358
sg56
(lp1370
S':'
asbag49
(g70
g51
NtRp1371
(dp1372
g54
(dp1373
sg63
g1358
sg56
(lp1374
g49
(g50
g51
NtRp1375
(dp1376
g54
(dp1377
g62
I4
ssg63
g1371
sg56
(lp1378
S'hard'
p1379
asbasbasbag49
(g65
g51
NtRp1380
(dp1381
g54
(dp1382
sg63
g588
sg56
(lp1383
g49
(g70
g51
NtRp1384
(dp1385
g54
(dp1386
g74
g75
ssg63
g1380
sg56
(lp1387
S'web2py_original_uri'
p1388
asbag49
(g70
g51
NtRp1389
(dp1390
g54
(dp1391
g81
g82
ssg63
g1380
sg56
(lp1392
S':'
asbag49
(g70
g51
NtRp1393
(dp1394
g54
(dp1395
sg63
g1380
sg56
(lp1396
g49
(g50
g51
NtRp1397
(dp1398
g54
(dp1399
g62
I4
ssg63
g1393
sg56
(lp1400
g1140
asbasbasbag49
(g65
g51
NtRp1401
(dp1402
g54
(dp1403
sg63
g588
sg56
(lp1404
g49
(g70
g51
NtRp1405
(dp1406
g54
(dp1407
g74
g75
ssg63
g1401
sg56
(lp1408
S'web2py_path'
p1409
asbag49
(g70
g51
NtRp1410
(dp1411
g54
(dp1412
g81
g82
ssg63
g1401
sg56
(lp1413
S':'
asbag49
(g70
g51
NtRp1414
(dp1415
g54
(dp1416
sg63
g1401
sg56
(lp1417
g49
(g50
g51
NtRp1418
(dp1419
g54
(dp1420
g62
I4
ssg63
g1414
sg56
(lp1421
g635
asbasbasbag49
(g65
g51
NtRp1422
(dp1423
g54
(dp1424
sg63
g588
sg56
(lp1425
g49
(g70
g51
NtRp1426
(dp1427
g54
(dp1428
g74
g75
ssg63
g1422
sg56
(lp1429
S'web2py_version'
p1430
asbag49
(g70
g51
NtRp1431
(dp1432
g54
(dp1433
g81
g82
ssg63
g1422
sg56
(lp1434
S':'
asbag49
(g70
g51
NtRp1435
(dp1436
g54
(dp1437
sg63
g1422
sg56
(lp1438
g49
(g50
g51
NtRp1439
(dp1440
g54
(dp1441
g62
I4
ssg63
g1435
sg56
(lp1442
g49
(g58
g51
NtRp1443
(dp1444
g54
(dp1445
g62
I3
ssg63
Nsg56
(lp1446
g49
(g65
g51
NtRp1447
(dp1448
g54
(dp1449
sg63
g1443
sg56
(lp1450
g49
(g70
g51
NtRp1451
(dp1452
g54
(dp1453
sg63
g1447
sg56
(lp1454
g49
(g50
g51
NtRp1455
(dp1456
g54
(dp1457
g62
I3
ssg63
g1451
sg56
(lp1458
S'1'
asbasbasbag49
(g65
g51
NtRp1459
(dp1460
g54
(dp1461
sg63
g1443
sg56
(lp1462
g49
(g70
g51
NtRp1463
(dp1464
g54
(dp1465
sg63
g1459
sg56
(lp1466
g49
(g50
g51
NtRp1467
(dp1468
g54
(dp1469
g62
I3
ssg63
g1463
sg56
(lp1470
S'99'
p1471
asbasbasbag49
(g65
g51
NtRp1472
(dp1473
g54
(dp1474
sg63
g1443
sg56
(lp1475
g49
(g70
g51
NtRp1476
(dp1477
g54
(dp1478
sg63
g1472
sg56
(lp1479
g49
(g50
g51
NtRp1480
(dp1481
g54
(dp1482
g62
I3
ssg63
g1476
sg56
(lp1483
S'7'
asbasbasbag49
(g65
g51
NtRp1484
(dp1485
g54
(dp1486
sg63
g1443
sg56
(lp1487
g49
(g70
g51
NtRp1488
(dp1489
g54
(dp1490
sg63
g1484
sg56
(lp1491
g49
(g50
g51
NtRp1492
(dp1493
g54
(dp1494
g62
I3
ssg63
g1488
sg56
(lp1495
S'datetime.datetime(2012, 3, 4, 22, 12, 8)'
p1496
asbasbasbag49
(g65
g51
NtRp1497
(dp1498
g54
(dp1499
sg63
g1443
sg56
(lp1500
g49
(g70
g51
NtRp1501
(dp1502
g54
(dp1503
sg63
g1497
sg56
(lp1504
g49
(g50
g51
NtRp1505
(dp1506
g54
(dp1507
g62
I3
ssg63
g1501
sg56
(lp1508
S'stable'
p1509
asbasbasbasbasbasbasbag49
(g65
g51
NtRp1510
(dp1511
g54
(dp1512
sg63
g588
sg56
(lp1513
g49
(g70
g51
NtRp1514
(dp1515
g54
(dp1516
g74
g75
ssg63
g1510
sg56
(lp1517
S'wsgi_errors'
p1518
asbag49
(g70
g51
NtRp1519
(dp1520
g54
(dp1521
g81
g82
ssg63
g1510
sg56
(lp1522
S':'
asbag49
(g70
g51
NtRp1523
(dp1524
g54
(dp1525
sg63
g1510
sg56
(lp1526
g49
(g50
g51
NtRp1527
(dp1528
g54
(dp1529
g62
I4
ssg63
g1523
sg56
(lp1530
S"<open file '<stderr>', mode 'w' at 0x4220b0>"
p1531
asbasbasbag49
(g65
g51
NtRp1532
(dp1533
g54
(dp1534
sg63
g588
sg56
(lp1535
g49
(g70
g51
NtRp1536
(dp1537
g54
(dp1538
g74
g75
ssg63
g1532
sg56
(lp1539
S'wsgi_file_wrapper'
p1540
asbag49
(g70
g51
NtRp1541
(dp1542
g54
(dp1543
g81
g82
ssg63
g1532
sg56
(lp1544
S':'
asbag49
(g70
g51
NtRp1545
(dp1546
g54
(dp1547
sg63
g1532
sg56
(lp1548
g49
(g50
g51
NtRp1549
(dp1550
g54
(dp1551
g62
I4
ssg63
g1545
sg56
(lp1552
S'<class wsgiref.util.FileWrapper at 0x22746c0>'
p1553
asbasbasbag49
(g65
g51
NtRp1554
(dp1555
g54
(dp1556
sg63
g588
sg56
(lp1557
g49
(g70
g51
NtRp1558
(dp1559
g54
(dp1560
g74
g75
ssg63
g1554
sg56
(lp1561
S'wsgi_input'
p1562
asbag49
(g70
g51
NtRp1563
(dp1564
g54
(dp1565
g81
g82
ssg63
g1554
sg56
(lp1566
S':'
asbag49
(g70
g51
NtRp1567
(dp1568
g54
(dp1569
sg63
g1554
sg56
(lp1570
g49
(g50
g51
NtRp1571
(dp1572
g54
(dp1573
g62
I4
ssg63
g1567
sg56
(lp1574
S'<socket._fileobject object at 0xa6aa3b0>'
p1575
asbasbasbag49
(g65
g51
NtRp1576
(dp1577
g54
(dp1578
sg63
g588
sg56
(lp1579
g49
(g70
g51
NtRp1580
(dp1581
g54
(dp1582
g74
g75
ssg63
g1576
sg56
(lp1583
S'wsgi_multiprocess'
p1584
asbag49
(g70
g51
NtRp1585
(dp1586
g54
(dp1587
g81
g82
ssg63
g1576
sg56
(lp1588
S':'
asbag49
(g70
g51
NtRp1589
(dp1590
g54
(dp1591
sg63
g1576
sg56
(lp1592
g49
(g50
g51
NtRp1593
(dp1594
g54
(dp1595
g62
I4
ssg63
g1589
sg56
(lp1596
g770
asbasbasbag49
(g65
g51
NtRp1597
(dp1598
g54
(dp1599
sg63
g588
sg56
(lp1600
g49
(g70
g51
NtRp1601
(dp1602
g54
(dp1603
g74
g75
ssg63
g1597
sg56
(lp1604
S'wsgi_multithread'
p1605
asbag49
(g70
g51
NtRp1606
(dp1607
g54
(dp1608
g81
g82
ssg63
g1597
sg56
(lp1609
S':'
asbag49
(g70
g51
NtRp1610
(dp1611
g54
(dp1612
sg63
g1597
sg56
(lp1613
g49
(g50
g51
NtRp1614
(dp1615
g54
(dp1616
g62
I4
ssg63
g1610
sg56
(lp1617
g92
asbasbasbag49
(g65
g51
NtRp1618
(dp1619
g54
(dp1620
sg63
g588
sg56
(lp1621
g49
(g70
g51
NtRp1622
(dp1623
g54
(dp1624
g74
g75
ssg63
g1618
sg56
(lp1625
S'wsgi_run_once'
p1626
asbag49
(g70
g51
NtRp1627
(dp1628
g54
(dp1629
g81
g82
ssg63
g1618
sg56
(lp1630
S':'
asbag49
(g70
g51
NtRp1631
(dp1632
g54
(dp1633
sg63
g1618
sg56
(lp1634
g49
(g50
g51
NtRp1635
(dp1636
g54
(dp1637
g62
I4
ssg63
g1631
sg56
(lp1638
g770
asbasbasbag49
(g65
g51
NtRp1639
(dp1640
g54
(dp1641
sg63
g588
sg56
(lp1642
g49
(g70
g51
NtRp1643
(dp1644
g54
(dp1645
g74
g75
ssg63
g1639
sg56
(lp1646
S'wsgi_url_scheme'
p1647
asbag49
(g70
g51
NtRp1648
(dp1649
g54
(dp1650
g81
g82
ssg63
g1639
sg56
(lp1651
S':'
asbag49
(g70
g51
NtRp1652
(dp1653
g54
(dp1654
sg63
g1639
sg56
(lp1655
g49
(g50
g51
NtRp1656
(dp1657
g54
(dp1658
g62
I4
ssg63
g1652
sg56
(lp1659
S'http'
p1660
asbasbasbag49
(g65
g51
NtRp1661
(dp1662
g54
(dp1663
sg63
g588
sg56
(lp1664
g49
(g70
g51
NtRp1665
(dp1666
g54
(dp1667
g74
g75
ssg63
g1661
sg56
(lp1668
S'wsgi_version'
p1669
asbag49
(g70
g51
NtRp1670
(dp1671
g54
(dp1672
g81
g82
ssg63
g1661
sg56
(lp1673
S':'
asbag49
(g70
g51
NtRp1674
(dp1675
g54
(dp1676
sg63
g1661
sg56
(lp1677
g49
(g50
g51
NtRp1678
(dp1679
g54
(dp1680
g62
I4
ssg63
g1674
sg56
(lp1681
g49
(g58
g51
NtRp1682
(dp1683
g54
(dp1684
g62
I3
ssg63
Nsg56
(lp1685
g49
(g65
g51
NtRp1686
(dp1687
g54
(dp1688
sg63
g1682
sg56
(lp1689
g49
(g70
g51
NtRp1690
(dp1691
g54
(dp1692
sg63
g1686
sg56
(lp1693
g49
(g50
g51
NtRp1694
(dp1695
g54
(dp1696
g62
I3
ssg63
g1690
sg56
(lp1697
S'1'
asbasbasbag49
(g65
g51
NtRp1698
(dp1699
g54
(dp1700
sg63
g1682
sg56
(lp1701
g49
(g70
g51
NtRp1702
(dp1703
g54
(dp1704
sg63
g1698
sg56
(lp1705
g49
(g50
g51
NtRp1706
(dp1707
g54
(dp1708
g62
I3
ssg63
g1702
sg56
(lp1709
S'0'
asbasbasbasbasbasbasbasbasbasbasbag49
(g65
g51
NtRp1710
(dp1711
g54
(dp1712
sg63
g59
sg56
(lp1713
g49
(g70
g51
NtRp1714
(dp1715
g54
(dp1716
g74
g75
ssg63
g1710
sg56
(lp1717
S'extension'
p1718
asbag49
(g70
g51
NtRp1719
(dp1720
g54
(dp1721
g81
g82
ssg63
g1710
sg56
(lp1722
S':'
asbag49
(g70
g51
NtRp1723
(dp1724
g54
(dp1725
sg63
g1710
sg56
(lp1726
g49
(g50
g51
NtRp1727
(dp1728
g54
(dp1729
g62
I5
ssg63
g1723
sg56
(lp1730
S'html'
p1731
asbasbasbag49
(g65
g51
NtRp1732
(dp1733
g54
(dp1734
sg63
g59
sg56
(lp1735
g49
(g70
g51
NtRp1736
(dp1737
g54
(dp1738
g74
g75
ssg63
g1732
sg56
(lp1739
S'folder'
p1740
asbag49
(g70
g51
NtRp1741
(dp1742
g54
(dp1743
g81
g82
ssg63
g1732
sg56
(lp1744
S':'
asbag49
(g70
g51
NtRp1745
(dp1746
g54
(dp1747
sg63
g1732
sg56
(lp1748
g49
(g50
g51
NtRp1749
(dp1750
g54
(dp1751
g62
I5
ssg63
g1745
sg56
(lp1752
S'/Users/udimilo/Documents/web2py/applications/udi0312/'
p1753
asbasbasbag49
(g65
g51
NtRp1754
(dp1755
g54
(dp1756
sg63
g59
sg56
(lp1757
g49
(g70
g51
NtRp1758
(dp1759
g54
(dp1760
g74
g75
ssg63
g1754
sg56
(lp1761
S'function'
p1762
asbag49
(g70
g51
NtRp1763
(dp1764
g54
(dp1765
g81
g82
ssg63
g1754
sg56
(lp1766
S':'
asbag49
(g70
g51
NtRp1767
(dp1768
g54
(dp1769
sg63
g1754
sg56
(lp1770
g49
(g50
g51
NtRp1771
(dp1772
g54
(dp1773
g62
I5
ssg63
g1767
sg56
(lp1774
S'add_article'
p1775
asbasbasbag49
(g65
g51
NtRp1776
(dp1777
g54
(dp1778
sg63
g59
sg56
(lp1779
g49
(g70
g51
NtRp1780
(dp1781
g54
(dp1782
g74
g75
ssg63
g1776
sg56
(lp1783
S'get_vars'
p1784
asbag49
(g70
g51
NtRp1785
(dp1786
g54
(dp1787
g81
g82
ssg63
g1776
sg56
(lp1788
S':'
asbag49
(g70
g51
NtRp1789
(dp1790
g54
(dp1791
sg63
g1776
sg56
(lp1792
g49
(g50
g51
NtRp1793
(dp1794
g54
(dp1795
g62
I5
ssg63
g1789
sg56
(lp1796
g49
(g58
g51
NtRp1797
(dp1798
g54
(dp1799
g62
I4
ssg63
Nsg56
(lp1800
sbasbasbasbag49
(g65
g51
NtRp1801
(dp1802
g54
(dp1803
sg63
g59
sg56
(lp1804
g49
(g70
g51
NtRp1805
(dp1806
g54
(dp1807
g74
g75
ssg63
g1801
sg56
(lp1808
S'global_settings'
p1809
asbag49
(g70
g51
NtRp1810
(dp1811
g54
(dp1812
g81
g82
ssg63
g1801
sg56
(lp1813
S':'
asbag49
(g70
g51
NtRp1814
(dp1815
g54
(dp1816
sg63
g1801
sg56
(lp1817
g49
(g50
g51
NtRp1818
(dp1819
g54
(dp1820
g62
I5
ssg63
g1814
sg56
(lp1821
g49
(g58
g51
NtRp1822
(dp1823
g54
(dp1824
g62
I4
ssg63
Nsg56
(lp1825
g49
(g65
g51
NtRp1826
(dp1827
g54
(dp1828
sg63
g1822
sg56
(lp1829
g49
(g70
g51
NtRp1830
(dp1831
g54
(dp1832
g74
g75
ssg63
g1826
sg56
(lp1833
g600
asbag49
(g70
g51
NtRp1834
(dp1835
g54
(dp1836
g81
g82
ssg63
g1826
sg56
(lp1837
S':'
asbag49
(g70
g51
NtRp1838
(dp1839
g54
(dp1840
sg63
g1826
sg56
(lp1841
g49
(g50
g51
NtRp1842
(dp1843
g54
(dp1844
g62
I4
ssg63
g1838
sg56
(lp1845
S"set(['/Users/udimilo/Documents/web2py/applications/udi0312/', '/Users/udimilo/Documents/web2py/applications/admin/'])"
p1846
asbasbasbag49
(g65
g51
NtRp1847
(dp1848
g54
(dp1849
sg63
g1822
sg56
(lp1850
g49
(g70
g51
NtRp1851
(dp1852
g54
(dp1853
g74
g75
ssg63
g1847
sg56
(lp1854
g622
asbag49
(g70
g51
NtRp1855
(dp1856
g54
(dp1857
g81
g82
ssg63
g1847
sg56
(lp1858
S':'
asbag49
(g70
g51
NtRp1859
(dp1860
g54
(dp1861
sg63
g1847
sg56
(lp1862
g49
(g50
g51
NtRp1863
(dp1864
g54
(dp1865
g62
I4
ssg63
g1859
sg56
(lp1866
g635
asbasbasbag49
(g65
g51
NtRp1867
(dp1868
g54
(dp1869
sg63
g1822
sg56
(lp1870
g49
(g70
g51
NtRp1871
(dp1872
g54
(dp1873
g74
g75
ssg63
g1867
sg56
(lp1874
g644
asbag49
(g70
g51
NtRp1875
(dp1876
g54
(dp1877
g81
g82
ssg63
g1867
sg56
(lp1878
S':'
asbag49
(g70
g51
NtRp1879
(dp1880
g54
(dp1881
sg63
g1867
sg56
(lp1882
g49
(g50
g51
NtRp1883
(dp1884
g54
(dp1885
g62
I4
ssg63
g1879
sg56
(lp1886
g49
(g58
g51
NtRp1887
(dp1888
g54
(dp1889
g62
I3
ssg63
Nsg56
(lp1890
sbasbasbasbag49
(g65
g51
NtRp1891
(dp1892
g54
(dp1893
sg63
g1822
sg56
(lp1894
g49
(g70
g51
NtRp1895
(dp1896
g54
(dp1897
g74
g75
ssg63
g1891
sg56
(lp1898
g669
asbag49
(g70
g51
NtRp1899
(dp1900
g54
(dp1901
g81
g82
ssg63
g1891
sg56
(lp1902
S':'
asbag49
(g70
g51
NtRp1903
(dp1904
g54
(dp1905
sg63
g1891
sg56
(lp1906
g49
(g50
g51
NtRp1907
(dp1908
g54
(dp1909
g62
I4
ssg63
g1903
sg56
(lp1910
S"<Values at 0x23301c0: {'verbose': False, 'ip': '127.0.0.1', 'shutdown_timeout': 5, 'taskbar': False, 'nocron': False, 'pid_filename': 'httpserver.pid', 'maxthreads': None, 'softcron': False, 'server_name': 'udi-milos-macbook-pro.fritz.box', 'bpython': False, 'nogui': False, 'port': 8000, 'extcron': False, 'debuglevel': 30, 'test': None, 'folder': '/Users/udimilo/Documents/web2py', 'config': '', 'import_models': False, 'winservice': '', 'shell': None, 'run': '', 'log_filename': 'httpserver.log', 'args': [''], 'socket_timeout': 5, 'ssl_ca_certificate': None, 'scheduler': None, 'profiler_filename': None, 'ssl_private_key': '', 'password': '<ask>', 'request_queue_size': 5, 'ssl_certificate': '', 'cronjob': False, 'numthreads': None, 'quiet': False, 'interfaces': None, 'minthreads': None, 'timeout': 10, 'plain': False, 'nobanner': False}>"
p1911
asbasbasbag49
(g65
g51
NtRp1912
(dp1913
g54
(dp1914
sg63
g1822
sg56
(lp1915
g49
(g70
g51
NtRp1916
(dp1917
g54
(dp1918
g74
g75
ssg63
g1912
sg56
(lp1919
g735
asbag49
(g70
g51
NtRp1920
(dp1921
g54
(dp1922
g81
g82
ssg63
g1912
sg56
(lp1923
S':'
asbag49
(g70
g51
NtRp1924
(dp1925
g54
(dp1926
sg63
g1912
sg56
(lp1927
g49
(g50
g51
NtRp1928
(dp1929
g54
(dp1930
g62
I4
ssg63
g1924
sg56
(lp1931
S'set([])'
p1932
asbasbasbag49
(g65
g51
NtRp1933
(dp1934
g54
(dp1935
sg63
g1822
sg56
(lp1936
g49
(g70
g51
NtRp1937
(dp1938
g54
(dp1939
g74
g75
ssg63
g1933
sg56
(lp1940
g757
asbag49
(g70
g51
NtRp1941
(dp1942
g54
(dp1943
g81
g82
ssg63
g1933
sg56
(lp1944
S':'
asbag49
(g70
g51
NtRp1945
(dp1946
g54
(dp1947
sg63
g1933
sg56
(lp1948
g49
(g50
g51
NtRp1949
(dp1950
g54
(dp1951
g62
I4
ssg63
g1945
sg56
(lp1952
g770
asbasbasbag49
(g65
g51
NtRp1953
(dp1954
g54
(dp1955
sg63
g1822
sg56
(lp1956
g49
(g70
g51
NtRp1957
(dp1958
g54
(dp1959
g74
g75
ssg63
g1953
sg56
(lp1960
g779
asbag49
(g70
g51
NtRp1961
(dp1962
g54
(dp1963
g81
g82
ssg63
g1953
sg56
(lp1964
S':'
asbag49
(g70
g51
NtRp1965
(dp1966
g54
(dp1967
sg63
g1953
sg56
(lp1968
g49
(g50
g51
NtRp1969
(dp1970
g54
(dp1971
g62
I4
ssg63
g1965
sg56
(lp1972
g792
asbasbasbag49
(g65
g51
NtRp1973
(dp1974
g54
(dp1975
sg63
g1822
sg56
(lp1976
g49
(g70
g51
NtRp1977
(dp1978
g54
(dp1979
g74
g75
ssg63
g1973
sg56
(lp1980
g1085
asbag49
(g70
g51
NtRp1981
(dp1982
g54
(dp1983
g81
g82
ssg63
g1973
sg56
(lp1984
S':'
asbag49
(g70
g51
NtRp1985
(dp1986
g54
(dp1987
sg63
g1973
sg56
(lp1988
g49
(g50
g51
NtRp1989
(dp1990
g54
(dp1991
g62
I4
ssg63
g1985
sg56
(lp1992
g770
asbasbasbag49
(g65
g51
NtRp1993
(dp1994
g54
(dp1995
sg63
g1822
sg56
(lp1996
g49
(g70
g51
NtRp1997
(dp1998
g54
(dp1999
g74
g75
ssg63
g1993
sg56
(lp2000
g1106
asbag49
(g70
g51
NtRp2001
(dp2002
g54
(dp2003
g81
g82
ssg63
g1993
sg56
(lp2004
S':'
asbag49
(g70
g51
NtRp2005
(dp2006
g54
(dp2007
sg63
g1993
sg56
(lp2008
g49
(g50
g51
NtRp2009
(dp2010
g54
(dp2011
g62
I4
ssg63
g2005
sg56
(lp2012
g770
asbasbasbag49
(g65
g51
NtRp2013
(dp2014
g54
(dp2015
sg63
g1822
sg56
(lp2016
g49
(g70
g51
NtRp2017
(dp2018
g54
(dp2019
g74
g75
ssg63
g2013
sg56
(lp2020
g1366
asbag49
(g70
g51
NtRp2021
(dp2022
g54
(dp2023
g81
g82
ssg63
g2013
sg56
(lp2024
S':'
asbag49
(g70
g51
NtRp2025
(dp2026
g54
(dp2027
sg63
g2013
sg56
(lp2028
g49
(g50
g51
NtRp2029
(dp2030
g54
(dp2031
g62
I4
ssg63
g2025
sg56
(lp2032
g1379
asbasbasbag49
(g65
g51
NtRp2033
(dp2034
g54
(dp2035
sg63
g1822
sg56
(lp2036
g49
(g70
g51
NtRp2037
(dp2038
g54
(dp2039
g74
g75
ssg63
g2033
sg56
(lp2040
g1430
asbag49
(g70
g51
NtRp2041
(dp2042
g54
(dp2043
g81
g82
ssg63
g2033
sg56
(lp2044
S':'
asbag49
(g70
g51
NtRp2045
(dp2046
g54
(dp2047
sg63
g2033
sg56
(lp2048
g49
(g50
g51
NtRp2049
(dp2050
g54
(dp2051
g62
I4
ssg63
g2045
sg56
(lp2052
g49
(g58
g51
NtRp2053
(dp2054
g54
(dp2055
g62
I3
ssg63
Nsg56
(lp2056
g49
(g65
g51
NtRp2057
(dp2058
g54
(dp2059
sg63
g2053
sg56
(lp2060
g49
(g70
g51
NtRp2061
(dp2062
g54
(dp2063
sg63
g2057
sg56
(lp2064
g49
(g50
g51
NtRp2065
(dp2066
g54
(dp2067
g62
I3
ssg63
g2061
sg56
(lp2068
S'1'
asbasbasbag49
(g65
g51
NtRp2069
(dp2070
g54
(dp2071
sg63
g2053
sg56
(lp2072
g49
(g70
g51
NtRp2073
(dp2074
g54
(dp2075
sg63
g2069
sg56
(lp2076
g49
(g50
g51
NtRp2077
(dp2078
g54
(dp2079
g62
I3
ssg63
g2073
sg56
(lp2080
S'99'
p2081
asbasbasbag49
(g65
g51
NtRp2082
(dp2083
g54
(dp2084
sg63
g2053
sg56
(lp2085
g49
(g70
g51
NtRp2086
(dp2087
g54
(dp2088
sg63
g2082
sg56
(lp2089
g49
(g50
g51
NtRp2090
(dp2091
g54
(dp2092
g62
I3
ssg63
g2086
sg56
(lp2093
S'7'
asbasbasbag49
(g65
g51
NtRp2094
(dp2095
g54
(dp2096
sg63
g2053
sg56
(lp2097
g49
(g70
g51
NtRp2098
(dp2099
g54
(dp2100
sg63
g2094
sg56
(lp2101
g49
(g50
g51
NtRp2102
(dp2103
g54
(dp2104
g62
I3
ssg63
g2098
sg56
(lp2105
S'datetime.datetime(2012, 3, 4, 22, 12, 8)'
p2106
asbasbasbag49
(g65
g51
NtRp2107
(dp2108
g54
(dp2109
sg63
g2053
sg56
(lp2110
g49
(g70
g51
NtRp2111
(dp2112
g54
(dp2113
sg63
g2107
sg56
(lp2114
g49
(g50
g51
NtRp2115
(dp2116
g54
(dp2117
g62
I3
ssg63
g2111
sg56
(lp2118
g1509
asbasbasbasbasbasbasbasbasbasbasbag49
(g65
g51
NtRp2119
(dp2120
g54
(dp2121
sg63
g59
sg56
(lp2122
g49
(g70
g51
NtRp2123
(dp2124
g54
(dp2125
g74
g75
ssg63
g2119
sg56
(lp2126
S'is_https'
p2127
asbag49
(g70
g51
NtRp2128
(dp2129
g54
(dp2130
g81
g82
ssg63
g2119
sg56
(lp2131
S':'
asbag49
(g70
g51
NtRp2132
(dp2133
g54
(dp2134
sg63
g2119
sg56
(lp2135
g49
(g50
g51
NtRp2136
(dp2137
g54
(dp2138
g62
I5
ssg63
g2132
sg56
(lp2139
g770
asbasbasbag49
(g65
g51
NtRp2140
(dp2141
g54
(dp2142
sg63
g59
sg56
(lp2143
g49
(g70
g51
NtRp2144
(dp2145
g54
(dp2146
g74
g75
ssg63
g2140
sg56
(lp2147
S'is_local'
p2148
asbag49
(g70
g51
NtRp2149
(dp2150
g54
(dp2151
g81
g82
ssg63
g2140
sg56
(lp2152
S':'
asbag49
(g70
g51
NtRp2153
(dp2154
g54
(dp2155
sg63
g2140
sg56
(lp2156
g49
(g50
g51
NtRp2157
(dp2158
g54
(dp2159
g62
I5
ssg63
g2153
sg56
(lp2160
g92
asbasbasbag49
(g65
g51
NtRp2161
(dp2162
g54
(dp2163
sg63
g59
sg56
(lp2164
g49
(g70
g51
NtRp2165
(dp2166
g54
(dp2167
g74
g75
ssg63
g2161
sg56
(lp2168
S'is_restful'
p2169
asbag49
(g70
g51
NtRp2170
(dp2171
g54
(dp2172
g81
g82
ssg63
g2161
sg56
(lp2173
S':'
asbag49
(g70
g51
NtRp2174
(dp2175
g54
(dp2176
sg63
g2161
sg56
(lp2177
g49
(g50
g51
NtRp2178
(dp2179
g54
(dp2180
g62
I5
ssg63
g2174
sg56
(lp2181
g770
asbasbasbag49
(g65
g51
NtRp2182
(dp2183
g54
(dp2184
sg63
g59
sg56
(lp2185
g49
(g70
g51
NtRp2186
(dp2187
g54
(dp2188
g74
g75
ssg63
g2182
sg56
(lp2189
S'now'
p2190
asbag49
(g70
g51
NtRp2191
(dp2192
g54
(dp2193
g81
g82
ssg63
g2182
sg56
(lp2194
S':'
asbag49
(g70
g51
NtRp2195
(dp2196
g54
(dp2197
sg63
g2182
sg56
(lp2198
g49
(g50
g51
NtRp2199
(dp2200
g54
(dp2201
g62
I5
ssg63
g2195
sg56
(lp2202
S'datetime.datetime(2012, 3, 14, 23, 40, 26, 653690)'
p2203
asbasbasbag49
(g65
g51
NtRp2204
(dp2205
g54
(dp2206
sg63
g59
sg56
(lp2207
g49
(g70
g51
NtRp2208
(dp2209
g54
(dp2210
g74
g75
ssg63
g2204
sg56
(lp2211
S'post_vars'
p2212
asbag49
(g70
g51
NtRp2213
(dp2214
g54
(dp2215
g81
g82
ssg63
g2204
sg56
(lp2216
S':'
asbag49
(g70
g51
NtRp2217
(dp2218
g54
(dp2219
sg63
g2204
sg56
(lp2220
g49
(g50
g51
NtRp2221
(dp2222
g54
(dp2223
g62
I5
ssg63
g2217
sg56
(lp2224
g49
(g58
g51
NtRp2225
(dp2226
g54
(dp2227
g62
I4
ssg63
Nsg56
(lp2228
g49
(g65
g51
NtRp2229
(dp2230
g54
(dp2231
sg63
g2225
sg56
(lp2232
g49
(g70
g51
NtRp2233
(dp2234
g54
(dp2235
g74
g75
ssg63
g2229
sg56
(lp2236
S'board'
p2237
asbag49
(g70
g51
NtRp2238
(dp2239
g54
(dp2240
g81
g82
ssg63
g2229
sg56
(lp2241
S':'
asbag49
(g70
g51
NtRp2242
(dp2243
g54
(dp2244
sg63
g2229
sg56
(lp2245
g49
(g50
g51
NtRp2246
(dp2247
g54
(dp2248
g62
I4
ssg63
g2242
sg56
(lp2249
S'java'
p2250
asbasbasbag49
(g65
g51
NtRp2251
(dp2252
g54
(dp2253
sg63
g2225
sg56
(lp2254
g49
(g70
g51
NtRp2255
(dp2256
g54
(dp2257
g74
g75
ssg63
g2251
sg56
(lp2258
S'url'
p2259
asbag49
(g70
g51
NtRp2260
(dp2261
g54
(dp2262
g81
g82
ssg63
g2251
sg56
(lp2263
S':'
asbag49
(g70
g51
NtRp2264
(dp2265
g54
(dp2266
sg63
g2251
sg56
(lp2267
g49
(g50
g51
NtRp2268
(dp2269
g54
(dp2270
g62
I4
ssg63
g2264
sg56
(lp2271
S'readability'
p2272
asbasbasbasbasbasbasbag49
(g65
g51
NtRp2273
(dp2274
g54
(dp2275
sg63
g59
sg56
(lp2276
g49
(g70
g51
NtRp2277
(dp2278
g54
(dp2279
g74
g75
ssg63
g2273
sg56
(lp2280
S'url'
p2281
asbag49
(g70
g51
NtRp2282
(dp2283
g54
(dp2284
g81
g82
ssg63
g2273
sg56
(lp2285
S':'
asbag49
(g70
g51
NtRp2286
(dp2287
g54
(dp2288
sg63
g2273
sg56
(lp2289
g49
(g50
g51
NtRp2290
(dp2291
g54
(dp2292
g62
I5
ssg63
g2286
sg56
(lp2293
S'/add_article'
p2294
asbasbasbag49
(g65
g51
NtRp2295
(dp2296
g54
(dp2297
sg63
g59
sg56
(lp2298
g49
(g70
g51
NtRp2299
(dp2300
g54
(dp2301
g74
g75
ssg63
g2295
sg56
(lp2302
S'utcnow'
p2303
asbag49
(g70
g51
NtRp2304
(dp2305
g54
(dp2306
g81
g82
ssg63
g2295
sg56
(lp2307
S':'
asbag49
(g70
g51
NtRp2308
(dp2309
g54
(dp2310
sg63
g2295
sg56
(lp2311
g49
(g50
g51
NtRp2312
(dp2313
g54
(dp2314
g62
I5
ssg63
g2308
sg56
(lp2315
S'datetime.datetime(2012, 3, 15, 3, 40, 26, 653704)'
p2316
asbasbasbag49
(g65
g51
NtRp2317
(dp2318
g54
(dp2319
sg63
g59
sg56
(lp2320
g49
(g70
g51
NtRp2321
(dp2322
g54
(dp2323
g74
g75
ssg63
g2317
sg56
(lp2324
S'uuid'
p2325
asbag49
(g70
g51
NtRp2326
(dp2327
g54
(dp2328
g81
g82
ssg63
g2317
sg56
(lp2329
S':'
asbag49
(g70
g51
NtRp2330
(dp2331
g54
(dp2332
sg63
g2317
sg56
(lp2333
g49
(g50
g51
NtRp2334
(dp2335
g54
(dp2336
g62
I5
ssg63
g2330
sg56
(lp2337
S'udi0312/127.0.0.1.2012-03-14.23-40-26.8fdb3d33-f72d-4b33-a6ad-0397044b6ceb'
p2338
asbasbasbag49
(g65
g51
NtRp2339
(dp2340
g54
(dp2341
sg63
g59
sg56
(lp2342
g49
(g70
g51
NtRp2343
(dp2344
g54
(dp2345
g74
g75
ssg63
g2339
sg56
(lp2346
S'vars'
p2347
asbag49
(g70
g51
NtRp2348
(dp2349
g54
(dp2350
g81
g82
ssg63
g2339
sg56
(lp2351
S':'
asbag49
(g70
g51
NtRp2352
(dp2353
g54
(dp2354
sg63
g2339
sg56
(lp2355
g49
(g50
g51
NtRp2356
(dp2357
g54
(dp2358
g62
I5
ssg63
g2352
sg56
(lp2359
g49
(g58
g51
NtRp2360
(dp2361
g54
(dp2362
g62
I4
ssg63
Nsg56
(lp2363
g49
(g65
g51
NtRp2364
(dp2365
g54
(dp2366
sg63
g2360
sg56
(lp2367
g49
(g70
g51
NtRp2368
(dp2369
g54
(dp2370
g74
g75
ssg63
g2364
sg56
(lp2371
g2237
asbag49
(g70
g51
NtRp2372
(dp2373
g54
(dp2374
g81
g82
ssg63
g2364
sg56
(lp2375
S':'
asbag49
(g70
g51
NtRp2376
(dp2377
g54
(dp2378
sg63
g2364
sg56
(lp2379
g49
(g50
g51
NtRp2380
(dp2381
g54
(dp2382
g62
I4
ssg63
g2376
sg56
(lp2383
g2250
asbasbasbag49
(g65
g51
NtRp2384
(dp2385
g54
(dp2386
sg63
g2360
sg56
(lp2387
g49
(g70
g51
NtRp2388
(dp2389
g54
(dp2390
g74
g75
ssg63
g2384
sg56
(lp2391
g2259
asbag49
(g70
g51
NtRp2392
(dp2393
g54
(dp2394
g81
g82
ssg63
g2384
sg56
(lp2395
S':'
asbag49
(g70
g51
NtRp2396
(dp2397
g54
(dp2398
sg63
g2384
sg56
(lp2399
g49
(g50
g51
NtRp2400
(dp2401
g54
(dp2402
g62
I4
ssg63
g2396
sg56
(lp2403
g2272
asbasbasbasbasbasbasbag49
(g65
g51
NtRp2404
(dp2405
g54
(dp2406
sg63
g59
sg56
(lp2407
g49
(g70
g51
NtRp2408
(dp2409
g54
(dp2410
g74
g75
ssg63
g2404
sg56
(lp2411
S'wsgi'
p2412
asbag49
(g70
g51
NtRp2413
(dp2414
g54
(dp2415
g81
g82
ssg63
g2404
sg56
(lp2416
S':'
asbag49
(g70
g51
NtRp2417
(dp2418
g54
(dp2419
sg63
g2404
sg56
(lp2420
g49
(g50
g51
NtRp2421
(dp2422
g54
(dp2423
g62
I5
ssg63
g2417
sg56
(lp2424
g49
(g58
g51
NtRp2425
(dp2426
g54
(dp2427
g62
I4
ssg63
Nsg56
(lp2428
g49
(g65
g51
NtRp2429
(dp2430
g54
(dp2431
sg63
g2425
sg56
(lp2432
g49
(g70
g51
NtRp2433
(dp2434
g54
(dp2435
g74
g75
ssg63
g2429
sg56
(lp2436
S'environ'
p2437
asbag49
(g70
g51
NtRp2438
(dp2439
g54
(dp2440
g81
g82
ssg63
g2429
sg56
(lp2441
S':'
asbag49
(g70
g51
NtRp2442
(dp2443
g54
(dp2444
sg63
g2429
sg56
(lp2445
g49
(g50
g51
NtRp2446
(dp2447
g54
(dp2448
g62
I4
ssg63
g2442
sg56
(lp2449
g49
(g58
g51
NtRp2450
(dp2451
g54
(dp2452
g62
I3
ssg63
Nsg56
(lp2453
g49
(g65
g51
NtRp2454
(dp2455
g54
(dp2456
sg63
g2450
sg56
(lp2457
g49
(g70
g51
NtRp2458
(dp2459
g54
(dp2460
g74
g75
ssg63
g2454
sg56
(lp2461
S'CONTENT_LENGTH'
p2462
asbag49
(g70
g51
NtRp2463
(dp2464
g54
(dp2465
g81
g82
ssg63
g2454
sg56
(lp2466
S':'
asbag49
(g70
g51
NtRp2467
(dp2468
g54
(dp2469
sg63
g2454
sg56
(lp2470
g49
(g50
g51
NtRp2471
(dp2472
g54
(dp2473
g62
I3
ssg63
g2467
sg56
(lp2474
g704
asbasbasbag49
(g65
g51
NtRp2475
(dp2476
g54
(dp2477
sg63
g2450
sg56
(lp2478
g49
(g70
g51
NtRp2479
(dp2480
g54
(dp2481
g74
g75
ssg63
g2475
sg56
(lp2482
S'CONTENT_TYPE'
p2483
asbag49
(g70
g51
NtRp2484
(dp2485
g54
(dp2486
g81
g82
ssg63
g2475
sg56
(lp2487
S':'
asbag49
(g70
g51
NtRp2488
(dp2489
g54
(dp2490
sg63
g2475
sg56
(lp2491
g49
(g50
g51
NtRp2492
(dp2493
g54
(dp2494
g62
I3
ssg63
g2488
sg56
(lp2495
g726
asbasbasbag49
(g65
g51
NtRp2496
(dp2497
g54
(dp2498
sg63
g2450
sg56
(lp2499
g49
(g70
g51
NtRp2500
(dp2501
g54
(dp2502
g74
g75
ssg63
g2496
sg56
(lp2503
S'HTTP_ACCEPT'
p2504
asbag49
(g70
g51
NtRp2505
(dp2506
g54
(dp2507
g81
g82
ssg63
g2496
sg56
(lp2508
S':'
asbag49
(g70
g51
NtRp2509
(dp2510
g54
(dp2511
sg63
g2496
sg56
(lp2512
g49
(g50
g51
NtRp2513
(dp2514
g54
(dp2515
g62
I3
ssg63
g2509
sg56
(lp2516
g814
asbasbasbag49
(g65
g51
NtRp2517
(dp2518
g54
(dp2519
sg63
g2450
sg56
(lp2520
g49
(g70
g51
NtRp2521
(dp2522
g54
(dp2523
g74
g75
ssg63
g2517
sg56
(lp2524
S'HTTP_ACCEPT_CHARSET'
p2525
asbag49
(g70
g51
NtRp2526
(dp2527
g54
(dp2528
g81
g82
ssg63
g2517
sg56
(lp2529
S':'
asbag49
(g70
g51
NtRp2530
(dp2531
g54
(dp2532
sg63
g2517
sg56
(lp2533
g49
(g50
g51
NtRp2534
(dp2535
g54
(dp2536
g62
I3
ssg63
g2530
sg56
(lp2537
g836
asbasbasbag49
(g65
g51
NtRp2538
(dp2539
g54
(dp2540
sg63
g2450
sg56
(lp2541
g49
(g70
g51
NtRp2542
(dp2543
g54
(dp2544
g74
g75
ssg63
g2538
sg56
(lp2545
S'HTTP_ACCEPT_ENCODING'
p2546
asbag49
(g70
g51
NtRp2547
(dp2548
g54
(dp2549
g81
g82
ssg63
g2538
sg56
(lp2550
S':'
asbag49
(g70
g51
NtRp2551
(dp2552
g54
(dp2553
sg63
g2538
sg56
(lp2554
g49
(g50
g51
NtRp2555
(dp2556
g54
(dp2557
g62
I3
ssg63
g2551
sg56
(lp2558
g858
asbasbasbag49
(g65
g51
NtRp2559
(dp2560
g54
(dp2561
sg63
g2450
sg56
(lp2562
g49
(g70
g51
NtRp2563
(dp2564
g54
(dp2565
g74
g75
ssg63
g2559
sg56
(lp2566
S'HTTP_ACCEPT_LANGUAGE'
p2567
asbag49
(g70
g51
NtRp2568
(dp2569
g54
(dp2570
g81
g82
ssg63
g2559
sg56
(lp2571
S':'
asbag49
(g70
g51
NtRp2572
(dp2573
g54
(dp2574
sg63
g2559
sg56
(lp2575
g49
(g50
g51
NtRp2576
(dp2577
g54
(dp2578
g62
I3
ssg63
g2572
sg56
(lp2579
g880
asbasbasbag49
(g65
g51
NtRp2580
(dp2581
g54
(dp2582
sg63
g2450
sg56
(lp2583
g49
(g70
g51
NtRp2584
(dp2585
g54
(dp2586
g74
g75
ssg63
g2580
sg56
(lp2587
S'HTTP_CONNECTION'
p2588
asbag49
(g70
g51
NtRp2589
(dp2590
g54
(dp2591
g81
g82
ssg63
g2580
sg56
(lp2592
S':'
asbag49
(g70
g51
NtRp2593
(dp2594
g54
(dp2595
sg63
g2580
sg56
(lp2596
g49
(g50
g51
NtRp2597
(dp2598
g54
(dp2599
g62
I3
ssg63
g2593
sg56
(lp2600
g902
asbasbasbag49
(g65
g51
NtRp2601
(dp2602
g54
(dp2603
sg63
g2450
sg56
(lp2604
g49
(g70
g51
NtRp2605
(dp2606
g54
(dp2607
g74
g75
ssg63
g2601
sg56
(lp2608
S'HTTP_CONTENT_LENGTH'
p2609
asbag49
(g70
g51
NtRp2610
(dp2611
g54
(dp2612
g81
g82
ssg63
g2601
sg56
(lp2613
S':'
asbag49
(g70
g51
NtRp2614
(dp2615
g54
(dp2616
sg63
g2601
sg56
(lp2617
g49
(g50
g51
NtRp2618
(dp2619
g54
(dp2620
g62
I3
ssg63
g2614
sg56
(lp2621
g704
asbasbasbag49
(g65
g51
NtRp2622
(dp2623
g54
(dp2624
sg63
g2450
sg56
(lp2625
g49
(g70
g51
NtRp2626
(dp2627
g54
(dp2628
g74
g75
ssg63
g2622
sg56
(lp2629
S'HTTP_CONTENT_TYPE'
p2630
asbag49
(g70
g51
NtRp2631
(dp2632
g54
(dp2633
g81
g82
ssg63
g2622
sg56
(lp2634
S':'
asbag49
(g70
g51
NtRp2635
(dp2636
g54
(dp2637
sg63
g2622
sg56
(lp2638
g49
(g50
g51
NtRp2639
(dp2640
g54
(dp2641
g62
I3
ssg63
g2635
sg56
(lp2642
g726
asbasbasbag49
(g65
g51
NtRp2643
(dp2644
g54
(dp2645
sg63
g2450
sg56
(lp2646
g49
(g70
g51
NtRp2647
(dp2648
g54
(dp2649
g74
g75
ssg63
g2643
sg56
(lp2650
S'HTTP_COOKIE'
p2651
asbag49
(g70
g51
NtRp2652
(dp2653
g54
(dp2654
g81
g82
ssg63
g2643
sg56
(lp2655
S':'
asbag49
(g70
g51
NtRp2656
(dp2657
g54
(dp2658
sg63
g2643
sg56
(lp2659
g49
(g50
g51
NtRp2660
(dp2661
g54
(dp2662
g62
I3
ssg63
g2656
sg56
(lp2663
g966
asbasbasbag49
(g65
g51
NtRp2664
(dp2665
g54
(dp2666
sg63
g2450
sg56
(lp2667
g49
(g70
g51
NtRp2668
(dp2669
g54
(dp2670
g74
g75
ssg63
g2664
sg56
(lp2671
S'HTTP_HOST'
p2672
asbag49
(g70
g51
NtRp2673
(dp2674
g54
(dp2675
g81
g82
ssg63
g2664
sg56
(lp2676
S':'
asbag49
(g70
g51
NtRp2677
(dp2678
g54
(dp2679
sg63
g2664
sg56
(lp2680
g49
(g50
g51
NtRp2681
(dp2682
g54
(dp2683
g62
I3
ssg63
g2677
sg56
(lp2684
g988
asbasbasbag49
(g65
g51
NtRp2685
(dp2686
g54
(dp2687
sg63
g2450
sg56
(lp2688
g49
(g70
g51
NtRp2689
(dp2690
g54
(dp2691
g74
g75
ssg63
g2685
sg56
(lp2692
S'HTTP_ORIGIN'
p2693
asbag49
(g70
g51
NtRp2694
(dp2695
g54
(dp2696
g81
g82
ssg63
g2685
sg56
(lp2697
S':'
asbag49
(g70
g51
NtRp2698
(dp2699
g54
(dp2700
sg63
g2685
sg56
(lp2701
g49
(g50
g51
NtRp2702
(dp2703
g54
(dp2704
g62
I3
ssg63
g2698
sg56
(lp2705
g1010
asbasbasbag49
(g65
g51
NtRp2706
(dp2707
g54
(dp2708
sg63
g2450
sg56
(lp2709
g49
(g70
g51
NtRp2710
(dp2711
g54
(dp2712
g74
g75
ssg63
g2706
sg56
(lp2713
S'HTTP_REFERER'
p2714
asbag49
(g70
g51
NtRp2715
(dp2716
g54
(dp2717
g81
g82
ssg63
g2706
sg56
(lp2718
S':'
asbag49
(g70
g51
NtRp2719
(dp2720
g54
(dp2721
sg63
g2706
sg56
(lp2722
g49
(g50
g51
NtRp2723
(dp2724
g54
(dp2725
g62
I3
ssg63
g2719
sg56
(lp2726
g1032
asbasbasbag49
(g65
g51
NtRp2727
(dp2728
g54
(dp2729
sg63
g2450
sg56
(lp2730
g49
(g70
g51
NtRp2731
(dp2732
g54
(dp2733
g74
g75
ssg63
g2727
sg56
(lp2734
S'HTTP_USER_AGENT'
p2735
asbag49
(g70
g51
NtRp2736
(dp2737
g54
(dp2738
g81
g82
ssg63
g2727
sg56
(lp2739
S':'
asbag49
(g70
g51
NtRp2740
(dp2741
g54
(dp2742
sg63
g2727
sg56
(lp2743
g49
(g50
g51
NtRp2744
(dp2745
g54
(dp2746
g62
I3
ssg63
g2740
sg56
(lp2747
g1054
asbasbasbag49
(g65
g51
NtRp2748
(dp2749
g54
(dp2750
sg63
g2450
sg56
(lp2751
g49
(g70
g51
NtRp2752
(dp2753
g54
(dp2754
g74
g75
ssg63
g2748
sg56
(lp2755
S'HTTP_X_REQUESTED_WITH'
p2756
asbag49
(g70
g51
NtRp2757
(dp2758
g54
(dp2759
g81
g82
ssg63
g2748
sg56
(lp2760
S':'
asbag49
(g70
g51
NtRp2761
(dp2762
g54
(dp2763
sg63
g2748
sg56
(lp2764
g49
(g50
g51
NtRp2765
(dp2766
g54
(dp2767
g62
I3
ssg63
g2761
sg56
(lp2768
g1076
asbasbasbag49
(g65
g51
NtRp2769
(dp2770
g54
(dp2771
sg63
g2450
sg56
(lp2772
g49
(g70
g51
NtRp2773
(dp2774
g54
(dp2775
g74
g75
ssg63
g2769
sg56
(lp2776
S'PATH_INFO'
p2777
asbag49
(g70
g51
NtRp2778
(dp2779
g54
(dp2780
g81
g82
ssg63
g2769
sg56
(lp2781
S':'
asbag49
(g70
g51
NtRp2782
(dp2783
g54
(dp2784
sg63
g2769
sg56
(lp2785
g49
(g50
g51
NtRp2786
(dp2787
g54
(dp2788
g62
I3
ssg63
g2782
sg56
(lp2789
g1140
asbasbasbag49
(g65
g51
NtRp2790
(dp2791
g54
(dp2792
sg63
g2450
sg56
(lp2793
g49
(g70
g51
NtRp2794
(dp2795
g54
(dp2796
g74
g75
ssg63
g2790
sg56
(lp2797
S'QUERY_STRING'
p2798
asbag49
(g70
g51
NtRp2799
(dp2800
g54
(dp2801
g81
g82
ssg63
g2790
sg56
(lp2802
S':'
asbag49
(g70
g51
NtRp2803
(dp2804
g54
(dp2805
sg63
g2790
sg56
(lp2806
g49
(g50
g51
NtRp2807
(dp2808
g54
(dp2809
g62
I3
ssg63
g2803
sg56
(lp2810
S''
asbasbasbag49
(g65
g51
NtRp2811
(dp2812
g54
(dp2813
sg63
g2450
sg56
(lp2814
g49
(g70
g51
NtRp2815
(dp2816
g54
(dp2817
g74
g75
ssg63
g2811
sg56
(lp2818
S'REMOTE_ADDR'
p2819
asbag49
(g70
g51
NtRp2820
(dp2821
g54
(dp2822
g81
g82
ssg63
g2811
sg56
(lp2823
S':'
asbag49
(g70
g51
NtRp2824
(dp2825
g54
(dp2826
sg63
g2811
sg56
(lp2827
g49
(g50
g51
NtRp2828
(dp2829
g54
(dp2830
g62
I3
ssg63
g2824
sg56
(lp2831
g182
asbasbasbag49
(g65
g51
NtRp2832
(dp2833
g54
(dp2834
sg63
g2450
sg56
(lp2835
g49
(g70
g51
NtRp2836
(dp2837
g54
(dp2838
g74
g75
ssg63
g2832
sg56
(lp2839
S'REMOTE_PORT'
p2840
asbag49
(g70
g51
NtRp2841
(dp2842
g54
(dp2843
g81
g82
ssg63
g2832
sg56
(lp2844
S':'
asbag49
(g70
g51
NtRp2845
(dp2846
g54
(dp2847
sg63
g2832
sg56
(lp2848
g49
(g50
g51
NtRp2849
(dp2850
g54
(dp2851
g62
I3
ssg63
g2845
sg56
(lp2852
g1204
asbasbasbag49
(g65
g51
NtRp2853
(dp2854
g54
(dp2855
sg63
g2450
sg56
(lp2856
g49
(g70
g51
NtRp2857
(dp2858
g54
(dp2859
g74
g75
ssg63
g2853
sg56
(lp2860
S'REQUEST_METHOD'
p2861
asbag49
(g70
g51
NtRp2862
(dp2863
g54
(dp2864
g81
g82
ssg63
g2853
sg56
(lp2865
S':'
asbag49
(g70
g51
NtRp2866
(dp2867
g54
(dp2868
sg63
g2853
sg56
(lp2869
g49
(g50
g51
NtRp2870
(dp2871
g54
(dp2872
g62
I3
ssg63
g2866
sg56
(lp2873
g1226
asbasbasbag49
(g65
g51
NtRp2874
(dp2875
g54
(dp2876
sg63
g2450
sg56
(lp2877
g49
(g70
g51
NtRp2878
(dp2879
g54
(dp2880
g74
g75
ssg63
g2874
sg56
(lp2881
S'REQUEST_URI'
p2882
asbag49
(g70
g51
NtRp2883
(dp2884
g54
(dp2885
g81
g82
ssg63
g2874
sg56
(lp2886
S':'
asbag49
(g70
g51
NtRp2887
(dp2888
g54
(dp2889
sg63
g2874
sg56
(lp2890
g49
(g50
g51
NtRp2891
(dp2892
g54
(dp2893
g62
I3
ssg63
g2887
sg56
(lp2894
g1248
asbasbasbag49
(g65
g51
NtRp2895
(dp2896
g54
(dp2897
sg63
g2450
sg56
(lp2898
g49
(g70
g51
NtRp2899
(dp2900
g54
(dp2901
g74
g75
ssg63
g2895
sg56
(lp2902
S'SCRIPT_NAME'
p2903
asbag49
(g70
g51
NtRp2904
(dp2905
g54
(dp2906
g81
g82
ssg63
g2895
sg56
(lp2907
S':'
asbag49
(g70
g51
NtRp2908
(dp2909
g54
(dp2910
sg63
g2895
sg56
(lp2911
g49
(g50
g51
NtRp2912
(dp2913
g54
(dp2914
g62
I3
ssg63
g2908
sg56
(lp2915
S''
asbasbasbag49
(g65
g51
NtRp2916
(dp2917
g54
(dp2918
sg63
g2450
sg56
(lp2919
g49
(g70
g51
NtRp2920
(dp2921
g54
(dp2922
g74
g75
ssg63
g2916
sg56
(lp2923
S'SERVER_NAME'
p2924
asbag49
(g70
g51
NtRp2925
(dp2926
g54
(dp2927
g81
g82
ssg63
g2916
sg56
(lp2928
S':'
asbag49
(g70
g51
NtRp2929
(dp2930
g54
(dp2931
sg63
g2916
sg56
(lp2932
g49
(g50
g51
NtRp2933
(dp2934
g54
(dp2935
g62
I3
ssg63
g2929
sg56
(lp2936
g1291
asbasbasbag49
(g65
g51
NtRp2937
(dp2938
g54
(dp2939
sg63
g2450
sg56
(lp2940
g49
(g70
g51
NtRp2941
(dp2942
g54
(dp2943
g74
g75
ssg63
g2937
sg56
(lp2944
S'SERVER_PORT'
p2945
asbag49
(g70
g51
NtRp2946
(dp2947
g54
(dp2948
g81
g82
ssg63
g2937
sg56
(lp2949
S':'
asbag49
(g70
g51
NtRp2950
(dp2951
g54
(dp2952
sg63
g2937
sg56
(lp2953
g49
(g50
g51
NtRp2954
(dp2955
g54
(dp2956
g62
I3
ssg63
g2950
sg56
(lp2957
g1313
asbasbasbag49
(g65
g51
NtRp2958
(dp2959
g54
(dp2960
sg63
g2450
sg56
(lp2961
g49
(g70
g51
NtRp2962
(dp2963
g54
(dp2964
g74
g75
ssg63
g2958
sg56
(lp2965
S'SERVER_PROTOCOL'
p2966
asbag49
(g70
g51
NtRp2967
(dp2968
g54
(dp2969
g81
g82
ssg63
g2958
sg56
(lp2970
S':'
asbag49
(g70
g51
NtRp2971
(dp2972
g54
(dp2973
sg63
g2958
sg56
(lp2974
g49
(g50
g51
NtRp2975
(dp2976
g54
(dp2977
g62
I3
ssg63
g2971
sg56
(lp2978
g1335
asbasbasbag49
(g65
g51
NtRp2979
(dp2980
g54
(dp2981
sg63
g2450
sg56
(lp2982
g49
(g70
g51
NtRp2983
(dp2984
g54
(dp2985
g74
g75
ssg63
g2979
sg56
(lp2986
S'SERVER_SOFTWARE'
p2987
asbag49
(g70
g51
NtRp2988
(dp2989
g54
(dp2990
g81
g82
ssg63
g2979
sg56
(lp2991
S':'
asbag49
(g70
g51
NtRp2992
(dp2993
g54
(dp2994
sg63
g2979
sg56
(lp2995
g49
(g50
g51
NtRp2996
(dp2997
g54
(dp2998
g62
I3
ssg63
g2992
sg56
(lp2999
g1357
asbasbasbag49
(g65
g51
NtRp3000
(dp3001
g54
(dp3002
sg63
g2450
sg56
(lp3003
g49
(g70
g51
NtRp3004
(dp3005
g54
(dp3006
g74
g75
ssg63
g3000
sg56
(lp3007
S'WEB2PY_ORIGINAL_URI'
p3008
asbag49
(g70
g51
NtRp3009
(dp3010
g54
(dp3011
g81
g82
ssg63
g3000
sg56
(lp3012
S':'
asbag49
(g70
g51
NtRp3013
(dp3014
g54
(dp3015
sg63
g3000
sg56
(lp3016
g49
(g50
g51
NtRp3017
(dp3018
g54
(dp3019
g62
I3
ssg63
g3013
sg56
(lp3020
g1140
asbasbasbag49
(g65
g51
NtRp3021
(dp3022
g54
(dp3023
sg63
g2450
sg56
(lp3024
g49
(g70
g51
NtRp3025
(dp3026
g54
(dp3027
g74
g75
ssg63
g3021
sg56
(lp3028
S'wsgi.errors'
p3029
asbag49
(g70
g51
NtRp3030
(dp3031
g54
(dp3032
g81
g82
ssg63
g3021
sg56
(lp3033
S':'
asbag49
(g70
g51
NtRp3034
(dp3035
g54
(dp3036
sg63
g3021
sg56
(lp3037
g49
(g50
g51
NtRp3038
(dp3039
g54
(dp3040
g62
I3
ssg63
g3034
sg56
(lp3041
S"<open file '<stderr>', mode 'w' at 0x4220b0>"
p3042
asbasbasbag49
(g65
g51
NtRp3043
(dp3044
g54
(dp3045
sg63
g2450
sg56
(lp3046
g49
(g70
g51
NtRp3047
(dp3048
g54
(dp3049
g74
g75
ssg63
g3043
sg56
(lp3050
S'wsgi.file_wrapper'
p3051
asbag49
(g70
g51
NtRp3052
(dp3053
g54
(dp3054
g81
g82
ssg63
g3043
sg56
(lp3055
S':'
asbag49
(g70
g51
NtRp3056
(dp3057
g54
(dp3058
sg63
g3043
sg56
(lp3059
g49
(g50
g51
NtRp3060
(dp3061
g54
(dp3062
g62
I3
ssg63
g3056
sg56
(lp3063
S'<class wsgiref.util.FileWrapper at 0x22746c0>'
p3064
asbasbasbag49
(g65
g51
NtRp3065
(dp3066
g54
(dp3067
sg63
g2450
sg56
(lp3068
g49
(g70
g51
NtRp3069
(dp3070
g54
(dp3071
g74
g75
ssg63
g3065
sg56
(lp3072
S'wsgi.input'
p3073
asbag49
(g70
g51
NtRp3074
(dp3075
g54
(dp3076
g81
g82
ssg63
g3065
sg56
(lp3077
S':'
asbag49
(g70
g51
NtRp3078
(dp3079
g54
(dp3080
sg63
g3065
sg56
(lp3081
g49
(g50
g51
NtRp3082
(dp3083
g54
(dp3084
g62
I3
ssg63
g3078
sg56
(lp3085
S"<open file '<fdopen>', mode 'w+b' at 0xa964bf0>"
p3086
asbasbasbag49
(g65
g51
NtRp3087
(dp3088
g54
(dp3089
sg63
g2450
sg56
(lp3090
g49
(g70
g51
NtRp3091
(dp3092
g54
(dp3093
g74
g75
ssg63
g3087
sg56
(lp3094
S'wsgi.multiprocess'
p3095
asbag49
(g70
g51
NtRp3096
(dp3097
g54
(dp3098
g81
g82
ssg63
g3087
sg56
(lp3099
S':'
asbag49
(g70
g51
NtRp3100
(dp3101
g54
(dp3102
sg63
g3087
sg56
(lp3103
g49
(g50
g51
NtRp3104
(dp3105
g54
(dp3106
g62
I3
ssg63
g3100
sg56
(lp3107
g770
asbasbasbag49
(g65
g51
NtRp3108
(dp3109
g54
(dp3110
sg63
g2450
sg56
(lp3111
g49
(g70
g51
NtRp3112
(dp3113
g54
(dp3114
g74
g75
ssg63
g3108
sg56
(lp3115
S'wsgi.multithread'
p3116
asbag49
(g70
g51
NtRp3117
(dp3118
g54
(dp3119
g81
g82
ssg63
g3108
sg56
(lp3120
S':'
asbag49
(g70
g51
NtRp3121
(dp3122
g54
(dp3123
sg63
g3108
sg56
(lp3124
g49
(g50
g51
NtRp3125
(dp3126
g54
(dp3127
g62
I3
ssg63
g3121
sg56
(lp3128
g92
asbasbasbag49
(g65
g51
NtRp3129
(dp3130
g54
(dp3131
sg63
g2450
sg56
(lp3132
g49
(g70
g51
NtRp3133
(dp3134
g54
(dp3135
g74
g75
ssg63
g3129
sg56
(lp3136
S'wsgi.run_once'
p3137
asbag49
(g70
g51
NtRp3138
(dp3139
g54
(dp3140
g81
g82
ssg63
g3129
sg56
(lp3141
S':'
asbag49
(g70
g51
NtRp3142
(dp3143
g54
(dp3144
sg63
g3129
sg56
(lp3145
g49
(g50
g51
NtRp3146
(dp3147
g54
(dp3148
g62
I3
ssg63
g3142
sg56
(lp3149
g770
asbasbasbag49
(g65
g51
NtRp3150
(dp3151
g54
(dp3152
sg63
g2450
sg56
(lp3153
g49
(g70
g51
NtRp3154
(dp3155
g54
(dp3156
g74
g75
ssg63
g3150
sg56
(lp3157
S'wsgi.url_scheme'
p3158
asbag49
(g70
g51
NtRp3159
(dp3160
g54
(dp3161
g81
g82
ssg63
g3150
sg56
(lp3162
S':'
asbag49
(g70
g51
NtRp3163
(dp3164
g54
(dp3165
sg63
g3150
sg56
(lp3166
g49
(g50
g51
NtRp3167
(dp3168
g54
(dp3169
g62
I3
ssg63
g3163
sg56
(lp3170
g1660
asbasbasbag49
(g65
g51
NtRp3171
(dp3172
g54
(dp3173
sg63
g2450
sg56
(lp3174
g49
(g70
g51
NtRp3175
(dp3176
g54
(dp3177
g74
g75
ssg63
g3171
sg56
(lp3178
S'wsgi.version'
p3179
asbag49
(g70
g51
NtRp3180
(dp3181
g54
(dp3182
g81
g82
ssg63
g3171
sg56
(lp3183
S':'
asbag49
(g70
g51
NtRp3184
(dp3185
g54
(dp3186
sg63
g3171
sg56
(lp3187
g49
(g50
g51
NtRp3188
(dp3189
g54
(dp3190
g62
I3
ssg63
g3184
sg56
(lp3191
S'1'
asbasbasbasbasbasbasbasbasbasbasbasbasbsS'frames'
p3192
(lp3193
(dp3194
S'file'
p3195
S'/users/udimilo/Documents/web2py/gluon/restricted.py'
p3196
sS'dump'
p3197
(dp3198
S'environment'
p3199
S"{'A': <class 'gluon.html.A'>, 'Auth': <class 'gluon.tools.Auth'>, 'B': <class 'gluon.html.B'>, 'BEAUTIFY': <class 'gluon.html.BEAUTIFY'>, 'BODY': <class 'gluon.html.BODY'>, 'BR': <class 'gluon.html.BR'>, 'BUTTON': <class 'gluon.html.BUTTON'>, 'CAT': <class 'gluon.html.CAT'>, 'CENTER': <class 'gluon.html.CENTER'>, 'CLEANUP': <class 'gluon.validators.CLEANUP'>, ...}"
p3200
sS'ccode'
p3201
S'<code object <module> at 0xa3740b0, file "/Users...cations/udi0312/controllers/default.py", line 12>'
p3202
ssS'lnum'
p3203
I205
sS'lines'
p3204
(dp3205
I200
S'    try:'
p3206
sI201
S'        if type(code) == types.CodeType:'
p3207
sI202
S'            ccode = code'
p3208
sI203
S'        else:'
p3209
sI204
S'            ccode = compile2(code,layer)'
p3210
sI205
S'        exec ccode in environment'
p3211
sI206
S'    except HTTP:'
p3212
sI207
S'        raise'
p3213
sI208
S'    except RestrictedError:'
p3214
sI209
S'        # do not encapsulate (obfuscate) the original RestrictedError'
p3215
ssS'call'
p3216
S"(code='# -*- coding: utf-8 -*-\\n# this file is released ...))\\n\\nresponse._vars=response._caller(add_article)\\n', environment={'A': <class 'gluon.html.A'>, 'Auth': <class 'gluon.tools.Auth'>, 'B': <class 'gluon.html.B'>, 'BEAUTIFY': <class 'gluon.html.BEAUTIFY'>, 'BODY': <class 'gluon.html.BODY'>, 'BR': <class 'gluon.html.BR'>, 'BUTTON': <class 'gluon.html.BUTTON'>, 'CAT': <class 'gluon.html.CAT'>, 'CENTER': <class 'gluon.html.CENTER'>, 'CLEANUP': <class 'gluon.validators.CLEANUP'>, ...}, layer='/Users/udimilo/Documents/web2py/applications/udi0312/controllers/default.py')"
p3217
sS'func'
p3218
S'restricted'
p3219
sa(dp3220
g3195
S'/Users/udimilo/Documents/web2py/applications/udi0312/controllers/default.py'
p3221
sg3197
(dp3222
sg3203
I134
sg3204
(dp3223
I128
S"      A('table',_href=URL('data/tables',user_signature=True))"
p3224
sI129
S'    or with the signed load operator'
p3225
sI130
S"      LOAD('default','data.load',args='tables',ajax=True,user_signature=True)"
p3226
sI131
S'    """'
p3227
sI132
S'    return dict(form=crud())'
p3228
sI123
S'    http://..../[app]/default/data/update/[table]/[id]'
p3229
sI124
S'    http://..../[app]/default/data/delete/[table]/[id]'
p3230
sI125
S'    http://..../[app]/default/data/select/[table]'
p3231
sI126
S'    http://..../[app]/default/data/search/[table]'
p3232
sI127
S'    but URLs must be signed, i.e. linked with'
p3233
ssg3216
S'()'
p3234
sg3218
S'<module>'
p3235
sa(dp3236
g3195
S'/users/udimilo/Documents/web2py/gluon/globals.py'
p3237
sg3197
(dp3238
S'self'
p3239
S'undefined'
p3240
sS'f'
S'<function add_article at 0xa69ff70>'
p3241
ssg3203
I173
sg3204
(dp3242
I168
S'        self.menu = []             # used by the default view layout'
p3243
sI169
S'        self.files = []            # used by web2py_ajax.html'
p3244
sI170
S'        self.generic_patterns = [] # patterns to allow generic views'
p3245
sI171
S"        self.delimiters = ('{{','}}')"
p3246
sI172
S'        self._vars = None'
p3247
sI173
S'        self._caller = lambda f: f()'
p3248
sI174
S'        self._view_environment = None'
p3249
sI175
S'        self._custom_commit = None'
p3250
sI176
S'        self._custom_rollback = None'
p3251
sI177
S''
ssg3216
S'(f=<function add_article at 0xa69ff70>)'
p3252
sg3218
S'<lambda>'
p3253
sa(dp3254
g3195
S'/Users/udimilo/Documents/web2py/applications/udi0312/controllers/default.py'
p3255
sg3197
(dp3256
S'url'
p3257
S"'readability'"
p3258
sS'json'
p3259
S"{u'error': True, u'messages': u'The url parameter passed does not look like a valid URL. Please check your data and try again.'}"
p3260
ssg3203
I33
sg3204
(dp3261
I32
S'            height=300,'
p3262
sI33
S"            url=json['url'],"
p3263
sI34
S"            readability_url=json['short_url'],"
p3264
sI35
S"            title=json['title'],"
p3265
sI36
S"            content=json['content'],"
p3266
sI37
S"            domain=json['domain'],"
p3267
sI28
S'    if article is None:'
p3268
sI29
S'        read = readability.Readability()'
p3269
sI30
S'        json = read.content(url)'
p3270
sI31
S'        article = db.article.insert('
p3271
ssg3216
S'()'
p3272
sg3218
S'add_article'
p3273
sasS'pyver'
p3274
S'Python 2.5.4: /Library/Frameworks/Python.framework/Versions/2.5/Resources/Python.app/Contents/MacOS/Python'
p3275
sS'session'
p3276
g49
(g50
g51
NtRp3277
(dp3278
g54
(dp3279
sg56
(lp3280
g49
(g58
g51
NtRp3281
(dp3282
g54
(dp3283
g62
I5
ssg63
Nsg56
(lp3284
g49
(g65
g51
NtRp3285
(dp3286
g54
(dp3287
sg63
g3281
sg56
(lp3288
g49
(g70
g51
NtRp3289
(dp3290
g54
(dp3291
g74
g75
ssg63
g3285
sg56
(lp3292
S'auth'
p3293
asbag49
(g70
g51
NtRp3294
(dp3295
g54
(dp3296
g81
g82
ssg63
g3285
sg56
(lp3297
S':'
asbag49
(g70
g51
NtRp3298
(dp3299
g54
(dp3300
sg63
g3285
sg56
(lp3301
g49
(g50
g51
NtRp3302
(dp3303
g54
(dp3304
g62
I5
ssg63
g3298
sg56
(lp3305
g49
(g58
g51
NtRp3306
(dp3307
g54
(dp3308
g62
I4
ssg63
Nsg56
(lp3309
g49
(g65
g51
NtRp3310
(dp3311
g54
(dp3312
sg63
g3306
sg56
(lp3313
g49
(g70
g51
NtRp3314
(dp3315
g54
(dp3316
g74
g75
ssg63
g3310
sg56
(lp3317
S'expiration'
p3318
asbag49
(g70
g51
NtRp3319
(dp3320
g54
(dp3321
g81
g82
ssg63
g3310
sg56
(lp3322
S':'
asbag49
(g70
g51
NtRp3323
(dp3324
g54
(dp3325
sg63
g3310
sg56
(lp3326
g49
(g50
g51
NtRp3327
(dp3328
g54
(dp3329
g62
I4
ssg63
g3323
sg56
(lp3330
S'2592000'
p3331
asbasbasbag49
(g65
g51
NtRp3332
(dp3333
g54
(dp3334
sg63
g3306
sg56
(lp3335
g49
(g70
g51
NtRp3336
(dp3337
g54
(dp3338
g74
g75
ssg63
g3332
sg56
(lp3339
S'hmac_key'
p3340
asbag49
(g70
g51
NtRp3341
(dp3342
g54
(dp3343
g81
g82
ssg63
g3332
sg56
(lp3344
S':'
asbag49
(g70
g51
NtRp3345
(dp3346
g54
(dp3347
sg63
g3332
sg56
(lp3348
g49
(g50
g51
NtRp3349
(dp3350
g54
(dp3351
g62
I4
ssg63
g3345
sg56
(lp3352
S'e95fb5e0-f68d-430e-a660-5148e97bc5df'
p3353
asbasbasbag49
(g65
g51
NtRp3354
(dp3355
g54
(dp3356
sg63
g3306
sg56
(lp3357
g49
(g70
g51
NtRp3358
(dp3359
g54
(dp3360
g74
g75
ssg63
g3354
sg56
(lp3361
S'last_visit'
p3362
asbag49
(g70
g51
NtRp3363
(dp3364
g54
(dp3365
g81
g82
ssg63
g3354
sg56
(lp3366
S':'
asbag49
(g70
g51
NtRp3367
(dp3368
g54
(dp3369
sg63
g3354
sg56
(lp3370
g49
(g50
g51
NtRp3371
(dp3372
g54
(dp3373
g62
I4
ssg63
g3367
sg56
(lp3374
S'datetime.datetime(2012, 3, 8, 21, 10, 48, 287338)'
p3375
asbasbasbag49
(g65
g51
NtRp3376
(dp3377
g54
(dp3378
sg63
g3306
sg56
(lp3379
g49
(g70
g51
NtRp3380
(dp3381
g54
(dp3382
g74
g75
ssg63
g3376
sg56
(lp3383
S'remember'
p3384
asbag49
(g70
g51
NtRp3385
(dp3386
g54
(dp3387
g81
g82
ssg63
g3376
sg56
(lp3388
S':'
asbag49
(g70
g51
NtRp3389
(dp3390
g54
(dp3391
sg63
g3376
sg56
(lp3392
g49
(g50
g51
NtRp3393
(dp3394
g54
(dp3395
g62
I4
ssg63
g3389
sg56
(lp3396
g92
asbasbasbag49
(g65
g51
NtRp3397
(dp3398
g54
(dp3399
sg63
g3306
sg56
(lp3400
g49
(g70
g51
NtRp3401
(dp3402
g54
(dp3403
g74
g75
ssg63
g3397
sg56
(lp3404
S'user'
p3405
asbag49
(g70
g51
NtRp3406
(dp3407
g54
(dp3408
g81
g82
ssg63
g3397
sg56
(lp3409
S':'
asbag49
(g70
g51
NtRp3410
(dp3411
g54
(dp3412
sg63
g3397
sg56
(lp3413
g49
(g50
g51
NtRp3414
(dp3415
g54
(dp3416
g62
I4
ssg63
g3410
sg56
(lp3417
g49
(g58
g51
NtRp3418
(dp3419
g54
(dp3420
g62
I3
ssg63
Nsg56
(lp3421
g49
(g65
g51
NtRp3422
(dp3423
g54
(dp3424
sg63
g3418
sg56
(lp3425
g49
(g70
g51
NtRp3426
(dp3427
g54
(dp3428
g74
g75
ssg63
g3422
sg56
(lp3429
S'email'
p3430
asbag49
(g70
g51
NtRp3431
(dp3432
g54
(dp3433
g81
g82
ssg63
g3422
sg56
(lp3434
S':'
asbag49
(g70
g51
NtRp3435
(dp3436
g54
(dp3437
sg63
g3422
sg56
(lp3438
g49
(g50
g51
NtRp3439
(dp3440
g54
(dp3441
g62
I3
ssg63
g3435
sg56
(lp3442
S'udimilo@gmail.com'
p3443
asbasbasbag49
(g65
g51
NtRp3444
(dp3445
g54
(dp3446
sg63
g3418
sg56
(lp3447
g49
(g70
g51
NtRp3448
(dp3449
g54
(dp3450
g74
g75
ssg63
g3444
sg56
(lp3451
S'first_name'
p3452
asbag49
(g70
g51
NtRp3453
(dp3454
g54
(dp3455
g81
g82
ssg63
g3444
sg56
(lp3456
S':'
asbag49
(g70
g51
NtRp3457
(dp3458
g54
(dp3459
sg63
g3444
sg56
(lp3460
g49
(g50
g51
NtRp3461
(dp3462
g54
(dp3463
g62
I3
ssg63
g3457
sg56
(lp3464
S'Udi'
p3465
asbasbasbag49
(g65
g51
NtRp3466
(dp3467
g54
(dp3468
sg63
g3418
sg56
(lp3469
g49
(g70
g51
NtRp3470
(dp3471
g54
(dp3472
g74
g75
ssg63
g3466
sg56
(lp3473
S'id'
p3474
asbag49
(g70
g51
NtRp3475
(dp3476
g54
(dp3477
g81
g82
ssg63
g3466
sg56
(lp3478
S':'
asbag49
(g70
g51
NtRp3479
(dp3480
g54
(dp3481
sg63
g3466
sg56
(lp3482
g49
(g50
g51
NtRp3483
(dp3484
g54
(dp3485
g62
I3
ssg63
g3479
sg56
(lp3486
S'1'
asbasbasbag49
(g65
g51
NtRp3487
(dp3488
g54
(dp3489
sg63
g3418
sg56
(lp3490
g49
(g70
g51
NtRp3491
(dp3492
g54
(dp3493
g74
g75
ssg63
g3487
sg56
(lp3494
S'last_name'
p3495
asbag49
(g70
g51
NtRp3496
(dp3497
g54
(dp3498
g81
g82
ssg63
g3487
sg56
(lp3499
S':'
asbag49
(g70
g51
NtRp3500
(dp3501
g54
(dp3502
sg63
g3487
sg56
(lp3503
g49
(g50
g51
NtRp3504
(dp3505
g54
(dp3506
g62
I3
ssg63
g3500
sg56
(lp3507
S'Milo'
p3508
asbasbasbag49
(g65
g51
NtRp3509
(dp3510
g54
(dp3511
sg63
g3418
sg56
(lp3512
g49
(g70
g51
NtRp3513
(dp3514
g54
(dp3515
g74
g75
ssg63
g3509
sg56
(lp3516
S'password'
p3517
asbag49
(g70
g51
NtRp3518
(dp3519
g54
(dp3520
g81
g82
ssg63
g3509
sg56
(lp3521
S':'
asbag49
(g70
g51
NtRp3522
(dp3523
g54
(dp3524
sg63
g3509
sg56
(lp3525
g49
(g50
g51
NtRp3526
(dp3527
g54
(dp3528
g62
I3
ssg63
g3522
sg56
(lp3529
S'7a6e3c6a68ceed66634484a3f64a3468'
p3530
asbasbasbag49
(g65
g51
NtRp3531
(dp3532
g54
(dp3533
sg63
g3418
sg56
(lp3534
g49
(g70
g51
NtRp3535
(dp3536
g54
(dp3537
g74
g75
ssg63
g3531
sg56
(lp3538
S'registration_id'
p3539
asbag49
(g70
g51
NtRp3540
(dp3541
g54
(dp3542
g81
g82
ssg63
g3531
sg56
(lp3543
S':'
asbag49
(g70
g51
NtRp3544
(dp3545
g54
(dp3546
sg63
g3531
sg56
(lp3547
g49
(g50
g51
NtRp3548
(dp3549
g54
(dp3550
g62
I3
ssg63
g3544
sg56
(lp3551
S''
asbasbasbag49
(g65
g51
NtRp3552
(dp3553
g54
(dp3554
sg63
g3418
sg56
(lp3555
g49
(g70
g51
NtRp3556
(dp3557
g54
(dp3558
g74
g75
ssg63
g3552
sg56
(lp3559
S'registration_key'
p3560
asbag49
(g70
g51
NtRp3561
(dp3562
g54
(dp3563
g81
g82
ssg63
g3552
sg56
(lp3564
S':'
asbag49
(g70
g51
NtRp3565
(dp3566
g54
(dp3567
sg63
g3552
sg56
(lp3568
g49
(g50
g51
NtRp3569
(dp3570
g54
(dp3571
g62
I3
ssg63
g3565
sg56
(lp3572
S''
asbasbasbag49
(g65
g51
NtRp3573
(dp3574
g54
(dp3575
sg63
g3418
sg56
(lp3576
g49
(g70
g51
NtRp3577
(dp3578
g54
(dp3579
g74
g75
ssg63
g3573
sg56
(lp3580
S'reset_password_key'
p3581
asbag49
(g70
g51
NtRp3582
(dp3583
g54
(dp3584
g81
g82
ssg63
g3573
sg56
(lp3585
S':'
asbag49
(g70
g51
NtRp3586
(dp3587
g54
(dp3588
sg63
g3573
sg56
(lp3589
g49
(g50
g51
NtRp3590
(dp3591
g54
(dp3592
g62
I3
ssg63
g3586
sg56
(lp3593
S''
asbasbasbasbasbasbasbag49
(g65
g51
NtRp3594
(dp3595
g54
(dp3596
sg63
g3306
sg56
(lp3597
g49
(g70
g51
NtRp3598
(dp3599
g54
(dp3600
g74
g75
ssg63
g3594
sg56
(lp3601
S'user_groups'
p3602
asbag49
(g70
g51
NtRp3603
(dp3604
g54
(dp3605
g81
g82
ssg63
g3594
sg56
(lp3606
S':'
asbag49
(g70
g51
NtRp3607
(dp3608
g54
(dp3609
sg63
g3594
sg56
(lp3610
g49
(g50
g51
NtRp3611
(dp3612
g54
(dp3613
g62
I4
ssg63
g3607
sg56
(lp3614
g49
(g58
g51
NtRp3615
(dp3616
g54
(dp3617
g62
I3
ssg63
Nsg56
(lp3618
g49
(g65
g51
NtRp3619
(dp3620
g54
(dp3621
sg63
g3615
sg56
(lp3622
g49
(g70
g51
NtRp3623
(dp3624
g54
(dp3625
g74
g75
ssg63
g3619
sg56
(lp3626
S'1'
asbag49
(g70
g51
NtRp3627
(dp3628
g54
(dp3629
g81
g82
ssg63
g3619
sg56
(lp3630
S':'
asbag49
(g70
g51
NtRp3631
(dp3632
g54
(dp3633
sg63
g3619
sg56
(lp3634
g49
(g50
g51
NtRp3635
(dp3636
g54
(dp3637
g62
I3
ssg63
g3631
sg56
(lp3638
S'user_1'
p3639
asbasbasbasbasbasbasbasbasbasbasbag49
(g65
g51
NtRp3640
(dp3641
g54
(dp3642
sg63
g3281
sg56
(lp3643
g49
(g70
g51
NtRp3644
(dp3645
g54
(dp3646
g74
g75
ssg63
g3640
sg56
(lp3647
S'last_query'
p3648
asbag49
(g70
g51
NtRp3649
(dp3650
g54
(dp3651
g81
g82
ssg63
g3640
sg56
(lp3652
S':'
asbag49
(g70
g51
NtRp3653
(dp3654
g54
(dp3655
sg63
g3640
sg56
(lp3656
g49
(g50
g51
NtRp3657
(dp3658
g54
(dp3659
g62
I5
ssg63
g3653
sg56
(lp3660
S'db.pin.id>0'
p3661
asbasbasbasbasbsS'etype'
p3662
S"<type 'exceptions.KeyError'>"
p3663
sS'date'
p3664
S'Wed Mar 14 23:40:27 2012'
p3665
sS'response'
p3666
g49
(g50
g51
NtRp3667
(dp3668
g54
(dp3669
sg56
(lp3670
g49
(g58
g51
NtRp3671
(dp3672
g54
(dp3673
g62
I5
ssg63
Nsg56
(lp3674
g49
(g65
g51
NtRp3675
(dp3676
g54
(dp3677
sg63
g3671
sg56
(lp3678
g49
(g70
g51
NtRp3679
(dp3680
g54
(dp3681
g74
g75
ssg63
g3675
sg56
(lp3682
g147
asbag49
(g70
g51
NtRp3683
(dp3684
g54
(dp3685
g81
g82
ssg63
g3675
sg56
(lp3686
S':'
asbag49
(g70
g51
NtRp3687
(dp3688
g54
(dp3689
sg63
g3675
sg56
(lp3690
g49
(g50
g51
NtRp3691
(dp3692
g54
(dp3693
g62
I5
ssg63
g3687
sg56
(lp3694
S'<cStringIO.StringO object at 0xa6df600>'
p3695
asbasbasbag49
(g65
g51
NtRp3696
(dp3697
g54
(dp3698
sg63
g3671
sg56
(lp3699
g49
(g70
g51
NtRp3700
(dp3701
g54
(dp3702
g74
g75
ssg63
g3696
sg56
(lp3703
g213
asbag49
(g70
g51
NtRp3704
(dp3705
g54
(dp3706
g81
g82
ssg63
g3696
sg56
(lp3707
S':'
asbag49
(g70
g51
NtRp3708
(dp3709
g54
(dp3710
sg63
g3696
sg56
(lp3711
g49
(g50
g51
NtRp3712
(dp3713
g54
(dp3714
g62
I5
ssg63
g3708
sg56
(lp3715
g49
(g58
g51
NtRp3716
(dp3717
g54
(dp3718
g62
I4
ssg63
Nsg56
(lp3719
g49
(g65
g51
NtRp3720
(dp3721
g54
(dp3722
sg63
g3716
sg56
(lp3723
g49
(g70
g51
NtRp3724
(dp3725
g54
(dp3726
g74
g75
ssg63
g3720
sg56
(lp3727
S'session_id_udi0312'
p3728
asbag49
(g70
g51
NtRp3729
(dp3730
g54
(dp3731
g81
g82
ssg63
g3720
sg56
(lp3732
S':'
asbag49
(g70
g51
NtRp3733
(dp3734
g54
(dp3735
sg63
g3720
sg56
(lp3736
g49
(g50
g51
NtRp3737
(dp3738
g54
(dp3739
g62
I4
ssg63
g3733
sg56
(lp3740
g49
(g58
g51
NtRp3741
(dp3742
g54
(dp3743
g62
I3
ssg63
Nsg56
(lp3744
g49
(g65
g51
NtRp3745
(dp3746
g54
(dp3747
sg63
g3741
sg56
(lp3748
g49
(g70
g51
NtRp3749
(dp3750
g54
(dp3751
g74
g75
ssg63
g3745
sg56
(lp3752
g263
asbag49
(g70
g51
NtRp3753
(dp3754
g54
(dp3755
g81
g82
ssg63
g3745
sg56
(lp3756
S':'
asbag49
(g70
g51
NtRp3757
(dp3758
g54
(dp3759
sg63
g3745
sg56
(lp3760
g49
(g50
g51
NtRp3761
(dp3762
g54
(dp3763
g62
I3
ssg63
g3757
sg56
(lp3764
S''
asbasbasbag49
(g65
g51
NtRp3765
(dp3766
g54
(dp3767
sg63
g3741
sg56
(lp3768
g49
(g70
g51
NtRp3769
(dp3770
g54
(dp3771
g74
g75
ssg63
g3765
sg56
(lp3772
g284
asbag49
(g70
g51
NtRp3773
(dp3774
g54
(dp3775
g81
g82
ssg63
g3765
sg56
(lp3776
S':'
asbag49
(g70
g51
NtRp3777
(dp3778
g54
(dp3779
sg63
g3765
sg56
(lp3780
g49
(g50
g51
NtRp3781
(dp3782
g54
(dp3783
g62
I3
ssg63
g3777
sg56
(lp3784
S''
asbasbasbag49
(g65
g51
NtRp3785
(dp3786
g54
(dp3787
sg63
g3741
sg56
(lp3788
g49
(g70
g51
NtRp3789
(dp3790
g54
(dp3791
g74
g75
ssg63
g3785
sg56
(lp3792
g305
asbag49
(g70
g51
NtRp3793
(dp3794
g54
(dp3795
g81
g82
ssg63
g3785
sg56
(lp3796
S':'
asbag49
(g70
g51
NtRp3797
(dp3798
g54
(dp3799
sg63
g3785
sg56
(lp3800
g49
(g50
g51
NtRp3801
(dp3802
g54
(dp3803
g62
I3
ssg63
g3797
sg56
(lp3804
S'2592000'
p3805
asbasbasbag49
(g65
g51
NtRp3806
(dp3807
g54
(dp3808
sg63
g3741
sg56
(lp3809
g49
(g70
g51
NtRp3810
(dp3811
g54
(dp3812
g74
g75
ssg63
g3806
sg56
(lp3813
g326
asbag49
(g70
g51
NtRp3814
(dp3815
g54
(dp3816
g81
g82
ssg63
g3806
sg56
(lp3817
S':'
asbag49
(g70
g51
NtRp3818
(dp3819
g54
(dp3820
sg63
g3806
sg56
(lp3821
g49
(g50
g51
NtRp3822
(dp3823
g54
(dp3824
g62
I3
ssg63
g3818
sg56
(lp3825
S''
asbasbasbag49
(g65
g51
NtRp3826
(dp3827
g54
(dp3828
sg63
g3741
sg56
(lp3829
g49
(g70
g51
NtRp3830
(dp3831
g54
(dp3832
g74
g75
ssg63
g3826
sg56
(lp3833
g347
asbag49
(g70
g51
NtRp3834
(dp3835
g54
(dp3836
g81
g82
ssg63
g3826
sg56
(lp3837
S':'
asbag49
(g70
g51
NtRp3838
(dp3839
g54
(dp3840
sg63
g3826
sg56
(lp3841
g49
(g50
g51
NtRp3842
(dp3843
g54
(dp3844
g62
I3
ssg63
g3838
sg56
(lp3845
S'/'
asbasbasbag49
(g65
g51
NtRp3846
(dp3847
g54
(dp3848
sg63
g3741
sg56
(lp3849
g49
(g70
g51
NtRp3850
(dp3851
g54
(dp3852
g74
g75
ssg63
g3846
sg56
(lp3853
g368
asbag49
(g70
g51
NtRp3854
(dp3855
g54
(dp3856
g81
g82
ssg63
g3846
sg56
(lp3857
S':'
asbag49
(g70
g51
NtRp3858
(dp3859
g54
(dp3860
sg63
g3846
sg56
(lp3861
g49
(g50
g51
NtRp3862
(dp3863
g54
(dp3864
g62
I3
ssg63
g3858
sg56
(lp3865
S''
asbasbasbag49
(g65
g51
NtRp3866
(dp3867
g54
(dp3868
sg63
g3741
sg56
(lp3869
g49
(g70
g51
NtRp3870
(dp3871
g54
(dp3872
g74
g75
ssg63
g3866
sg56
(lp3873
g389
asbag49
(g70
g51
NtRp3874
(dp3875
g54
(dp3876
g81
g82
ssg63
g3866
sg56
(lp3877
S':'
asbag49
(g70
g51
NtRp3878
(dp3879
g54
(dp3880
sg63
g3866
sg56
(lp3881
g49
(g50
g51
NtRp3882
(dp3883
g54
(dp3884
g62
I3
ssg63
g3878
sg56
(lp3885
S''
asbasbasbasbasbasbasbasbasbasbasbag49
(g65
g51
NtRp3886
(dp3887
g54
(dp3888
sg63
g3671
sg56
(lp3889
g49
(g70
g51
NtRp3890
(dp3891
g54
(dp3892
g74
g75
ssg63
g3886
sg56
(lp3893
S'delimiters'
p3894
asbag49
(g70
g51
NtRp3895
(dp3896
g54
(dp3897
g81
g82
ssg63
g3886
sg56
(lp3898
S':'
asbag49
(g70
g51
NtRp3899
(dp3900
g54
(dp3901
sg63
g3886
sg56
(lp3902
g49
(g50
g51
NtRp3903
(dp3904
g54
(dp3905
g62
I5
ssg63
g3899
sg56
(lp3906
g49
(g58
g51
NtRp3907
(dp3908
g54
(dp3909
g62
I4
ssg63
Nsg56
(lp3910
g49
(g65
g51
NtRp3911
(dp3912
g54
(dp3913
sg63
g3907
sg56
(lp3914
g49
(g70
g51
NtRp3915
(dp3916
g54
(dp3917
sg63
g3911
sg56
(lp3918
g49
(g50
g51
NtRp3919
(dp3920
g54
(dp3921
g62
I4
ssg63
g3915
sg56
(lp3922
S'{{'
p3923
asbasbasbag49
(g65
g51
NtRp3924
(dp3925
g54
(dp3926
sg63
g3907
sg56
(lp3927
g49
(g70
g51
NtRp3928
(dp3929
g54
(dp3930
sg63
g3924
sg56
(lp3931
g49
(g50
g51
NtRp3932
(dp3933
g54
(dp3934
g62
I4
ssg63
g3928
sg56
(lp3935
S'}}'
p3936
asbasbasbasbasbasbasbag49
(g65
g51
NtRp3937
(dp3938
g54
(dp3939
sg63
g3671
sg56
(lp3940
g49
(g70
g51
NtRp3941
(dp3942
g54
(dp3943
g74
g75
ssg63
g3937
sg56
(lp3944
S'files'
p3945
asbag49
(g70
g51
NtRp3946
(dp3947
g54
(dp3948
g81
g82
ssg63
g3937
sg56
(lp3949
S':'
asbag49
(g70
g51
NtRp3950
(dp3951
g54
(dp3952
sg63
g3937
sg56
(lp3953
g49
(g50
g51
NtRp3954
(dp3955
g54
(dp3956
g62
I5
ssg63
g3950
sg56
(lp3957
g49
(g58
g51
NtRp3958
(dp3959
g54
(dp3960
g62
I4
ssg63
Nsg56
(lp3961
sbasbasbasbag49
(g65
g51
NtRp3962
(dp3963
g54
(dp3964
sg63
g3671
sg56
(lp3965
g49
(g70
g51
NtRp3966
(dp3967
g54
(dp3968
g74
g75
ssg63
g3962
sg56
(lp3969
S'flash'
p3970
asbag49
(g70
g51
NtRp3971
(dp3972
g54
(dp3973
g81
g82
ssg63
g3962
sg56
(lp3974
S':'
asbag49
(g70
g51
NtRp3975
(dp3976
g54
(dp3977
sg63
g3962
sg56
(lp3978
g49
(g50
g51
NtRp3979
(dp3980
g54
(dp3981
g62
I5
ssg63
g3975
sg56
(lp3982
S''
asbasbasbag49
(g65
g51
NtRp3983
(dp3984
g54
(dp3985
sg63
g3671
sg56
(lp3986
g49
(g70
g51
NtRp3987
(dp3988
g54
(dp3989
g74
g75
ssg63
g3983
sg56
(lp3990
S'generic_patterns'
p3991
asbag49
(g70
g51
NtRp3992
(dp3993
g54
(dp3994
g81
g82
ssg63
g3983
sg56
(lp3995
S':'
asbag49
(g70
g51
NtRp3996
(dp3997
g54
(dp3998
sg63
g3983
sg56
(lp3999
g49
(g50
g51
NtRp4000
(dp4001
g54
(dp4002
g62
I5
ssg63
g3996
sg56
(lp4003
g49
(g58
g51
NtRp4004
(dp4005
g54
(dp4006
g62
I4
ssg63
Nsg56
(lp4007
g49
(g65
g51
NtRp4008
(dp4009
g54
(dp4010
sg63
g4004
sg56
(lp4011
g49
(g70
g51
NtRp4012
(dp4013
g54
(dp4014
sg63
g4008
sg56
(lp4015
g49
(g50
g51
NtRp4016
(dp4017
g54
(dp4018
g62
I4
ssg63
g4012
sg56
(lp4019
S'*'
asbasbasbasbasbasbasbag49
(g65
g51
NtRp4020
(dp4021
g54
(dp4022
sg63
g3671
sg56
(lp4023
g49
(g70
g51
NtRp4024
(dp4025
g54
(dp4026
g74
g75
ssg63
g4020
sg56
(lp4027
S'headers'
p4028
asbag49
(g70
g51
NtRp4029
(dp4030
g54
(dp4031
g81
g82
ssg63
g4020
sg56
(lp4032
S':'
asbag49
(g70
g51
NtRp4033
(dp4034
g54
(dp4035
sg63
g4020
sg56
(lp4036
g49
(g50
g51
NtRp4037
(dp4038
g54
(dp4039
g62
I5
ssg63
g4033
sg56
(lp4040
g49
(g58
g51
NtRp4041
(dp4042
g54
(dp4043
g62
I4
ssg63
Nsg56
(lp4044
g49
(g65
g51
NtRp4045
(dp4046
g54
(dp4047
sg63
g4041
sg56
(lp4048
g49
(g70
g51
NtRp4049
(dp4050
g54
(dp4051
g74
g75
ssg63
g4045
sg56
(lp4052
S'Cache-Control'
p4053
asbag49
(g70
g51
NtRp4054
(dp4055
g54
(dp4056
g81
g82
ssg63
g4045
sg56
(lp4057
S':'
asbag49
(g70
g51
NtRp4058
(dp4059
g54
(dp4060
sg63
g4045
sg56
(lp4061
g49
(g50
g51
NtRp4062
(dp4063
g54
(dp4064
g62
I4
ssg63
g4058
sg56
(lp4065
S'no-store, no-cache, must-revalidate, post-check=0, pre-check=0'
p4066
asbasbasbag49
(g65
g51
NtRp4067
(dp4068
g54
(dp4069
sg63
g4041
sg56
(lp4070
g49
(g70
g51
NtRp4071
(dp4072
g54
(dp4073
g74
g75
ssg63
g4067
sg56
(lp4074
S'Content-Type'
p4075
asbag49
(g70
g51
NtRp4076
(dp4077
g54
(dp4078
g81
g82
ssg63
g4067
sg56
(lp4079
S':'
asbag49
(g70
g51
NtRp4080
(dp4081
g54
(dp4082
sg63
g4067
sg56
(lp4083
g49
(g50
g51
NtRp4084
(dp4085
g54
(dp4086
g62
I4
ssg63
g4080
sg56
(lp4087
S'text/html; charset=utf-8'
p4088
asbasbasbag49
(g65
g51
NtRp4089
(dp4090
g54
(dp4091
sg63
g4041
sg56
(lp4092
g49
(g70
g51
NtRp4093
(dp4094
g54
(dp4095
g74
g75
ssg63
g4089
sg56
(lp4096
S'Expires'
p4097
asbag49
(g70
g51
NtRp4098
(dp4099
g54
(dp4100
g81
g82
ssg63
g4089
sg56
(lp4101
S':'
asbag49
(g70
g51
NtRp4102
(dp4103
g54
(dp4104
sg63
g4089
sg56
(lp4105
g49
(g50
g51
NtRp4106
(dp4107
g54
(dp4108
g62
I4
ssg63
g4102
sg56
(lp4109
S'Thu, 15 Mar 2012 03:40:26 GMT'
p4110
asbasbasbag49
(g65
g51
NtRp4111
(dp4112
g54
(dp4113
sg63
g4041
sg56
(lp4114
g49
(g70
g51
NtRp4115
(dp4116
g54
(dp4117
g74
g75
ssg63
g4111
sg56
(lp4118
S'Pragma'
p4119
asbag49
(g70
g51
NtRp4120
(dp4121
g54
(dp4122
g81
g82
ssg63
g4111
sg56
(lp4123
S':'
asbag49
(g70
g51
NtRp4124
(dp4125
g54
(dp4126
sg63
g4111
sg56
(lp4127
g49
(g50
g51
NtRp4128
(dp4129
g54
(dp4130
g62
I4
ssg63
g4124
sg56
(lp4131
S'no-cache'
p4132
asbasbasbag49
(g65
g51
NtRp4133
(dp4134
g54
(dp4135
sg63
g4041
sg56
(lp4136
g49
(g70
g51
NtRp4137
(dp4138
g54
(dp4139
g74
g75
ssg63
g4133
sg56
(lp4140
S'X-Powered-By'
p4141
asbag49
(g70
g51
NtRp4142
(dp4143
g54
(dp4144
g81
g82
ssg63
g4133
sg56
(lp4145
S':'
asbag49
(g70
g51
NtRp4146
(dp4147
g54
(dp4148
sg63
g4133
sg56
(lp4149
g49
(g50
g51
NtRp4150
(dp4151
g54
(dp4152
g62
I4
ssg63
g4146
sg56
(lp4153
S'web2py'
p4154
asbasbasbasbasbasbasbag49
(g65
g51
NtRp4155
(dp4156
g54
(dp4157
sg63
g3671
sg56
(lp4158
g49
(g70
g51
NtRp4159
(dp4160
g54
(dp4161
g74
g75
ssg63
g4155
sg56
(lp4162
S'menu'
p4163
asbag49
(g70
g51
NtRp4164
(dp4165
g54
(dp4166
g81
g82
ssg63
g4155
sg56
(lp4167
S':'
asbag49
(g70
g51
NtRp4168
(dp4169
g54
(dp4170
sg63
g4155
sg56
(lp4171
g49
(g50
g51
NtRp4172
(dp4173
g54
(dp4174
g62
I5
ssg63
g4168
sg56
(lp4175
g49
(g58
g51
NtRp4176
(dp4177
g54
(dp4178
g62
I4
ssg63
Nsg56
(lp4179
g49
(g65
g51
NtRp4180
(dp4181
g54
(dp4182
sg63
g4176
sg56
(lp4183
g49
(g70
g51
NtRp4184
(dp4185
g54
(dp4186
sg63
g4180
sg56
(lp4187
g49
(g50
g51
NtRp4188
(dp4189
g54
(dp4190
g62
I4
ssg63
g4184
sg56
(lp4191
g49
(g58
g51
NtRp4192
(dp4193
g54
(dp4194
g62
I3
ssg63
Nsg56
(lp4195
g49
(g65
g51
NtRp4196
(dp4197
g54
(dp4198
sg63
g4192
sg56
(lp4199
g49
(g70
g51
NtRp4200
(dp4201
g54
(dp4202
sg63
g4196
sg56
(lp4203
g49
(g50
g51
NtRp4204
(dp4205
g54
(dp4206
g62
I3
ssg63
g4200
sg56
(lp4207
cgluon.languages
lazyT_unpickle
p4208
(S's\x04\x00\x00\x00Home'
tRp4209
asbasbasbag49
(g65
g51
NtRp4210
(dp4211
g54
(dp4212
sg63
g4192
sg56
(lp4213
g49
(g70
g51
NtRp4214
(dp4215
g54
(dp4216
sg63
g4210
sg56
(lp4217
g49
(g50
g51
NtRp4218
(dp4219
g54
(dp4220
g62
I3
ssg63
g4214
sg56
(lp4221
g770
asbasbasbag49
(g65
g51
NtRp4222
(dp4223
g54
(dp4224
sg63
g4192
sg56
(lp4225
g49
(g70
g51
NtRp4226
(dp4227
g54
(dp4228
sg63
g4222
sg56
(lp4229
g49
(g50
g51
NtRp4230
(dp4231
g54
(dp4232
g62
I3
ssg63
g4226
sg56
(lp4233
S'/'
asbasbasbag49
(g65
g51
NtRp4234
(dp4235
g54
(dp4236
sg63
g4192
sg56
(lp4237
g49
(g70
g51
NtRp4238
(dp4239
g54
(dp4240
sg63
g4234
sg56
(lp4241
g49
(g50
g51
NtRp4242
(dp4243
g54
(dp4244
g62
I3
ssg63
g4238
sg56
(lp4245
g49
(g58
g51
NtRp4246
(dp4247
g54
(dp4248
g62
I2
ssg63
Nsg56
(lp4249
sbasbasbasbasbasbasbasbag49
(g65
g51
NtRp4250
(dp4251
g54
(dp4252
sg63
g4176
sg56
(lp4253
g49
(g70
g51
NtRp4254
(dp4255
g54
(dp4256
sg63
g4250
sg56
(lp4257
g49
(g50
g51
NtRp4258
(dp4259
g54
(dp4260
g62
I4
ssg63
g4254
sg56
(lp4261
g49
(g58
g51
NtRp4262
(dp4263
g54
(dp4264
g62
I3
ssg63
Nsg56
(lp4265
g49
(g65
g51
NtRp4266
(dp4267
g54
(dp4268
sg63
g4262
sg56
(lp4269
g49
(g70
g51
NtRp4270
(dp4271
g54
(dp4272
sg63
g4266
sg56
(lp4273
g49
(g50
g51
NtRp4274
(dp4275
g54
(dp4276
g62
I3
ssg63
g4270
sg56
(lp4277
g49
(cgluon.html
SPAN
p4278
g51
NtRp4279
(dp4280
g54
(dp4281
g74
S'color:yellow'
p4282
ssg63
Nsg56
(lp4283
g4154
asbasbasbasbag49
(g65
g51
NtRp4284
(dp4285
g54
(dp4286
sg63
g4262
sg56
(lp4287
g49
(g70
g51
NtRp4288
(dp4289
g54
(dp4290
sg63
g4284
sg56
(lp4291
g49
(g50
g51
NtRp4292
(dp4293
g54
(dp4294
g62
I3
ssg63
g4288
sg56
(lp4295
g770
asbasbasbag49
(g65
g51
NtRp4296
(dp4297
g54
(dp4298
sg63
g4262
sg56
(lp4299
g49
(g70
g51
NtRp4300
(dp4301
g54
(dp4302
sg63
g4296
sg56
(lp4303
g49
(g50
g51
NtRp4304
(dp4305
g54
(dp4306
g62
I3
ssg63
g4300
sg56
(lp4307
S'None'
p4308
asbasbasbag49
(g65
g51
NtRp4309
(dp4310
g54
(dp4311
sg63
g4262
sg56
(lp4312
g49
(g70
g51
NtRp4313
(dp4314
g54
(dp4315
sg63
g4309
sg56
(lp4316
g49
(g50
g51
NtRp4317
(dp4318
g54
(dp4319
g62
I3
ssg63
g4313
sg56
(lp4320
g49
(g58
g51
NtRp4321
(dp4322
g54
(dp4323
g62
I2
ssg63
Nsg56
(lp4324
g49
(g65
g51
NtRp4325
(dp4326
g54
(dp4327
sg63
g4321
sg56
(lp4328
g49
(g70
g51
NtRp4329
(dp4330
g54
(dp4331
sg63
g4325
sg56
(lp4332
g49
(g50
g51
NtRp4333
(dp4334
g54
(dp4335
g62
I2
ssg63
g4329
sg56
(lp4336
g49
(g58
g51
NtRp4337
(dp4338
g54
(dp4339
g62
I1
ssg63
Nsg56
(lp4340
g49
(g65
g51
NtRp4341
(dp4342
g54
(dp4343
sg63
g4337
sg56
(lp4344
g49
(g70
g51
NtRp4345
(dp4346
g54
(dp4347
sg63
g4341
sg56
(lp4348
g49
(g50
g51
NtRp4349
(dp4350
g54
(dp4351
g62
I1
ssg63
g4345
sg56
(lp4352
g4208
(S's\x08\x00\x00\x00My Sites'
tRp4353
asbasbasbag49
(g65
g51
NtRp4354
(dp4355
g54
(dp4356
sg63
g4337
sg56
(lp4357
g49
(g70
g51
NtRp4358
(dp4359
g54
(dp4360
sg63
g4354
sg56
(lp4361
g49
(g50
g51
NtRp4362
(dp4363
g54
(dp4364
g62
I1
ssg63
g4358
sg56
(lp4365
I00
asbasbasbag49
(g65
g51
NtRp4366
(dp4367
g54
(dp4368
sg63
g4337
sg56
(lp4369
g49
(g70
g51
NtRp4370
(dp4371
g54
(dp4372
sg63
g4366
sg56
(lp4373
g49
(g50
g51
NtRp4374
(dp4375
g54
(dp4376
g62
I1
ssg63
g4370
sg56
(lp4377
S'/admin/site'
p4378
asbasbasbasbasbasbasbag49
(g65
g51
NtRp4379
(dp4380
g54
(dp4381
sg63
g4321
sg56
(lp4382
g49
(g70
g51
NtRp4383
(dp4384
g54
(dp4385
sg63
g4379
sg56
(lp4386
g49
(g50
g51
NtRp4387
(dp4388
g54
(dp4389
g62
I2
ssg63
g4383
sg56
(lp4390
g49
(g58
g51
NtRp4391
(dp4392
g54
(dp4393
g62
I1
ssg63
Nsg56
(lp4394
g49
(g65
g51
NtRp4395
(dp4396
g54
(dp4397
sg63
g4391
sg56
(lp4398
g49
(g70
g51
NtRp4399
(dp4400
g54
(dp4401
sg63
g4395
sg56
(lp4402
g49
(g50
g51
NtRp4403
(dp4404
g54
(dp4405
g62
I1
ssg63
g4399
sg56
(lp4406
g4208
(S's\x08\x00\x00\x00This App'
tRp4407
asbasbasbag49
(g65
g51
NtRp4408
(dp4409
g54
(dp4410
sg63
g4391
sg56
(lp4411
g49
(g70
g51
NtRp4412
(dp4413
g54
(dp4414
sg63
g4408
sg56
(lp4415
g49
(g50
g51
NtRp4416
(dp4417
g54
(dp4418
g62
I1
ssg63
g4412
sg56
(lp4419
I00
asbasbasbag49
(g65
g51
NtRp4420
(dp4421
g54
(dp4422
sg63
g4391
sg56
(lp4423
g49
(g70
g51
NtRp4424
(dp4425
g54
(dp4426
sg63
g4420
sg56
(lp4427
g49
(g50
g51
NtRp4428
(dp4429
g54
(dp4430
g62
I1
ssg63
g4424
sg56
(lp4431
S'/admin/design/udi0312'
p4432
asbasbasbag49
(g65
g51
NtRp4433
(dp4434
g54
(dp4435
sg63
g4391
sg56
(lp4436
g49
(g70
g51
NtRp4437
(dp4438
g54
(dp4439
sg63
g4433
sg56
(lp4440
g49
(g50
g51
NtRp4441
(dp4442
g54
(dp4443
g62
I1
ssg63
g4437
sg56
(lp4444
(lp4445
(g4208
(S's\n\x00\x00\x00Controller'
tRp4446
I00
S'/admin/edit/udi0312/controllers/default.py'
tp4447
a(g4208
(S's\x04\x00\x00\x00View'
tRp4448
I00
S'/admin/edit/udi0312/views/default/add_article.html'
tp4449
a(g4208
(S's\x06\x00\x00\x00Layout'
tRp4450
I00
S'/admin/edit/udi0312/views/layout.html'
tp4451
a(g4208
(S's\n\x00\x00\x00Stylesheet'
tRp4452
I00
S'/admin/edit/udi0312/static/css/web2py.css'
tp4453
a(g4208
(S's\x08\x00\x00\x00DB Model'
tRp4454
I00
S'/admin/edit/udi0312/models/db.py'
tp4455
a(g4208
(S's\n\x00\x00\x00Menu Model'
tRp4456
I00
S'/admin/edit/udi0312/models/menu.py'
tp4457
a(g4208
(S's\x08\x00\x00\x00Database'
tRp4458
I00
S'/appadmin'
tp4459
a(g4208
(S's\x06\x00\x00\x00Errors'
tRp4460
I00
S'/admin/errors/udi0312'
tp4461
a(g4208
(S's\x05\x00\x00\x00About'
tRp4462
I00
S'/admin/about/udi0312'
tp4463
aasbasbasbasbasbasbasbag49
(g65
g51
NtRp4464
(dp4465
g54
(dp4466
sg63
g4321
sg56
(lp4467
g49
(g70
g51
NtRp4468
(dp4469
g54
(dp4470
sg63
g4464
sg56
(lp4471
g49
(g50
g51
NtRp4472
(dp4473
g54
(dp4474
g62
I2
ssg63
g4468
sg56
(lp4475
g49
(g58
g51
NtRp4476
(dp4477
g54
(dp4478
g62
I1
ssg63
Nsg56
(lp4479
g49
(g65
g51
NtRp4480
(dp4481
g54
(dp4482
sg63
g4476
sg56
(lp4483
g49
(g70
g51
NtRp4484
(dp4485
g54
(dp4486
sg63
g4480
sg56
(lp4487
g49
(g50
g51
NtRp4488
(dp4489
g54
(dp4490
g62
I1
ssg63
g4484
sg56
(lp4491
S'web2py.com'
p4492
asbasbasbag49
(g65
g51
NtRp4493
(dp4494
g54
(dp4495
sg63
g4476
sg56
(lp4496
g49
(g70
g51
NtRp4497
(dp4498
g54
(dp4499
sg63
g4493
sg56
(lp4500
g49
(g50
g51
NtRp4501
(dp4502
g54
(dp4503
g62
I1
ssg63
g4497
sg56
(lp4504
I00
asbasbasbag49
(g65
g51
NtRp4505
(dp4506
g54
(dp4507
sg63
g4476
sg56
(lp4508
g49
(g70
g51
NtRp4509
(dp4510
g54
(dp4511
sg63
g4505
sg56
(lp4512
g49
(g50
g51
NtRp4513
(dp4514
g54
(dp4515
g62
I1
ssg63
g4509
sg56
(lp4516
S'http://www.web2py.com'
p4517
asbasbasbag49
(g65
g51
NtRp4518
(dp4519
g54
(dp4520
sg63
g4476
sg56
(lp4521
g49
(g70
g51
NtRp4522
(dp4523
g54
(dp4524
sg63
g4518
sg56
(lp4525
g49
(g50
g51
NtRp4526
(dp4527
g54
(dp4528
g62
I1
ssg63
g4522
sg56
(lp4529
(lp4530
(g4208
(S's\x08\x00\x00\x00Download'
tRp4531
I00
S'http://www.web2py.com/examples/default/download'
p4532
tp4533
a(g4208
(S's\x07\x00\x00\x00Support'
tRp4534
I00
S'http://www.web2py.com/examples/default/support'
p4535
tp4536
a(g4208
(S's\x04\x00\x00\x00Demo'
tRp4537
I00
S'http://web2py.com/demo_admin'
p4538
tp4539
a(g4208
(S's\x0e\x00\x00\x00Quick Examples'
tRp4540
I00
S'http://web2py.com/examples/default/examples'
p4541
tp4542
a(g4208
(S's\x03\x00\x00\x00FAQ'
tRp4543
I00
S'http://web2py.com/AlterEgo'
p4544
tp4545
a(g4208
(S's\x06\x00\x00\x00Videos'
tRp4546
I00
S'http://www.web2py.com/examples/default/videos/'
p4547
tp4548
a(g4208
(S's\x11\x00\x00\x00Free Applications'
tRp4549
I00
S'http://web2py.com/appliances'
p4550
tp4551
a(g4208
(S's\x07\x00\x00\x00Plugins'
tRp4552
I00
S'http://web2py.com/plugins'
p4553
tp4554
a(g4208
(S's\x07\x00\x00\x00Layouts'
tRp4555
I00
S'http://web2py.com/layouts'
p4556
tp4557
a(g4208
(S's\x07\x00\x00\x00Recipes'
tRp4558
I00
S'http://web2pyslices.com/'
p4559
tp4560
a(g4208
(S's\x08\x00\x00\x00Semantic'
tRp4561
I00
S'http://web2py.com/semantic'
p4562
tp4563
aasbasbasbasbasbasbasbag49
(g65
g51
NtRp4564
(dp4565
g54
(dp4566
sg63
g4321
sg56
(lp4567
g49
(g70
g51
NtRp4568
(dp4569
g54
(dp4570
sg63
g4564
sg56
(lp4571
g49
(g50
g51
NtRp4572
(dp4573
g54
(dp4574
g62
I2
ssg63
g4568
sg56
(lp4575
g49
(g58
g51
NtRp4576
(dp4577
g54
(dp4578
g62
I1
ssg63
Nsg56
(lp4579
g49
(g65
g51
NtRp4580
(dp4581
g54
(dp4582
sg63
g4576
sg56
(lp4583
g49
(g70
g51
NtRp4584
(dp4585
g54
(dp4586
sg63
g4580
sg56
(lp4587
g49
(g50
g51
NtRp4588
(dp4589
g54
(dp4590
g62
I1
ssg63
g4584
sg56
(lp4591
g4208
(S's\r\x00\x00\x00Documentation'
tRp4592
asbasbasbag49
(g65
g51
NtRp4593
(dp4594
g54
(dp4595
sg63
g4576
sg56
(lp4596
g49
(g70
g51
NtRp4597
(dp4598
g54
(dp4599
sg63
g4593
sg56
(lp4600
g49
(g50
g51
NtRp4601
(dp4602
g54
(dp4603
g62
I1
ssg63
g4597
sg56
(lp4604
I00
asbasbasbag49
(g65
g51
NtRp4605
(dp4606
g54
(dp4607
sg63
g4576
sg56
(lp4608
g49
(g70
g51
NtRp4609
(dp4610
g54
(dp4611
sg63
g4605
sg56
(lp4612
g49
(g50
g51
NtRp4613
(dp4614
g54
(dp4615
g62
I1
ssg63
g4609
sg56
(lp4616
S'http://www.web2py.com/book'
p4617
asbasbasbag49
(g65
g51
NtRp4618
(dp4619
g54
(dp4620
sg63
g4576
sg56
(lp4621
g49
(g70
g51
NtRp4622
(dp4623
g54
(dp4624
sg63
g4618
sg56
(lp4625
g49
(g50
g51
NtRp4626
(dp4627
g54
(dp4628
g62
I1
ssg63
g4622
sg56
(lp4629
(lp4630
(g4208
(S's\x07\x00\x00\x00Preface'
tRp4631
I00
S'http://www.web2py.com/book/default/chapter/00'
p4632
tp4633
a(g4208
(S's\x0c\x00\x00\x00Introduction'
tRp4634
I00
S'http://www.web2py.com/book/default/chapter/01'
p4635
tp4636
a(g4208
(S's\x06\x00\x00\x00Python'
tRp4637
I00
S'http://www.web2py.com/book/default/chapter/02'
p4638
tp4639
a(g4208
(S's\x08\x00\x00\x00Overview'
tRp4640
I00
S'http://www.web2py.com/book/default/chapter/03'
p4641
tp4642
a(g4208
(S's\x08\x00\x00\x00The Core'
tRp4643
I00
S'http://www.web2py.com/book/default/chapter/04'
p4644
tp4645
a(g4208
(S's\t\x00\x00\x00The Views'
tRp4646
I00
S'http://www.web2py.com/book/default/chapter/05'
p4647
tp4648
a(g4208
(S's\x08\x00\x00\x00Database'
tRp4649
I00
S'http://www.web2py.com/book/default/chapter/06'
p4650
tp4651
a(g4208
(S's\x14\x00\x00\x00Forms and Validators'
tRp4652
I00
S'http://www.web2py.com/book/default/chapter/07'
p4653
tp4654
a(g4208
(S's\r\x00\x00\x00Email and SMS'
tRp4655
I00
S'http://www.web2py.com/book/default/chapter/08'
p4656
tp4657
a(g4208
(S's\x0e\x00\x00\x00Access Control'
tRp4658
I00
S'http://www.web2py.com/book/default/chapter/09'
p4659
tp4660
a(g4208
(S's\x08\x00\x00\x00Services'
tRp4661
I00
S'http://www.web2py.com/book/default/chapter/10'
p4662
tp4663
a(g4208
(S's\x0c\x00\x00\x00Ajax Recipes'
tRp4664
I00
S'http://www.web2py.com/book/default/chapter/11'
p4665
tp4666
a(g4208
(S's\x16\x00\x00\x00Components and Plugins'
tRp4667
I00
S'http://www.web2py.com/book/default/chapter/12'
p4668
tp4669
a(g4208
(S's\x12\x00\x00\x00Deployment Recipes'
tRp4670
I00
S'http://www.web2py.com/book/default/chapter/13'
p4671
tp4672
a(g4208
(S's\r\x00\x00\x00Other Recipes'
tRp4673
I00
S'http://www.web2py.com/book/default/chapter/14'
p4674
tp4675
a(g4208
(S's\r\x00\x00\x00Buy this book'
tRp4676
I00
S'http://stores.lulu.com/web2py'
p4677
tp4678
aasbasbasbasbasbasbasbag49
(g65
g51
NtRp4679
(dp4680
g54
(dp4681
sg63
g4321
sg56
(lp4682
g49
(g70
g51
NtRp4683
(dp4684
g54
(dp4685
sg63
g4679
sg56
(lp4686
g49
(g50
g51
NtRp4687
(dp4688
g54
(dp4689
g62
I2
ssg63
g4683
sg56
(lp4690
g49
(g58
g51
NtRp4691
(dp4692
g54
(dp4693
g62
I1
ssg63
Nsg56
(lp4694
g49
(g65
g51
NtRp4695
(dp4696
g54
(dp4697
sg63
g4691
sg56
(lp4698
g49
(g70
g51
NtRp4699
(dp4700
g54
(dp4701
sg63
g4695
sg56
(lp4702
g49
(g50
g51
NtRp4703
(dp4704
g54
(dp4705
g62
I1
ssg63
g4699
sg56
(lp4706
g4208
(S's\t\x00\x00\x00Community'
tRp4707
asbasbasbag49
(g65
g51
NtRp4708
(dp4709
g54
(dp4710
sg63
g4691
sg56
(lp4711
g49
(g70
g51
NtRp4712
(dp4713
g54
(dp4714
sg63
g4708
sg56
(lp4715
g49
(g50
g51
NtRp4716
(dp4717
g54
(dp4718
g62
I1
ssg63
g4712
sg56
(lp4719
I00
asbasbasbag49
(g65
g51
NtRp4720
(dp4721
g54
(dp4722
sg63
g4691
sg56
(lp4723
g49
(g70
g51
NtRp4724
(dp4725
g54
(dp4726
sg63
g4720
sg56
(lp4727
g49
(g50
g51
NtRp4728
(dp4729
g54
(dp4730
g62
I1
ssg63
g4724
sg56
(lp4731
Nasbasbasbag49
(g65
g51
NtRp4732
(dp4733
g54
(dp4734
sg63
g4691
sg56
(lp4735
g49
(g70
g51
NtRp4736
(dp4737
g54
(dp4738
sg63
g4732
sg56
(lp4739
g49
(g50
g51
NtRp4740
(dp4741
g54
(dp4742
g62
I1
ssg63
g4736
sg56
(lp4743
(lp4744
(g4208
(S's\x06\x00\x00\x00Groups'
tRp4745
I00
S'http://www.web2py.com/examples/default/usergroups'
p4746
tp4747
a(g4208
(S's\x07\x00\x00\x00Twitter'
tRp4748
I00
S'http://twitter.com/web2py'
p4749
tp4750
a(g4208
(S's\t\x00\x00\x00Live Chat'
tRp4751
I00
S'http://webchat.freenode.net/?channels=web2py'
p4752
tp4753
aasbasbasbasbasbasbasbag49
(g65
g51
NtRp4754
(dp4755
g54
(dp4756
sg63
g4321
sg56
(lp4757
g49
(g70
g51
NtRp4758
(dp4759
g54
(dp4760
sg63
g4754
sg56
(lp4761
g49
(g50
g51
NtRp4762
(dp4763
g54
(dp4764
g62
I2
ssg63
g4758
sg56
(lp4765
g49
(g58
g51
NtRp4766
(dp4767
g54
(dp4768
g62
I1
ssg63
Nsg56
(lp4769
g49
(g65
g51
NtRp4770
(dp4771
g54
(dp4772
sg63
g4766
sg56
(lp4773
g49
(g70
g51
NtRp4774
(dp4775
g54
(dp4776
sg63
g4770
sg56
(lp4777
g49
(g50
g51
NtRp4778
(dp4779
g54
(dp4780
g62
I1
ssg63
g4774
sg56
(lp4781
g4208
(S's\x07\x00\x00\x00Plugins'
tRp4782
asbasbasbag49
(g65
g51
NtRp4783
(dp4784
g54
(dp4785
sg63
g4766
sg56
(lp4786
g49
(g70
g51
NtRp4787
(dp4788
g54
(dp4789
sg63
g4783
sg56
(lp4790
g49
(g50
g51
NtRp4791
(dp4792
g54
(dp4793
g62
I1
ssg63
g4787
sg56
(lp4794
I00
asbasbasbag49
(g65
g51
NtRp4795
(dp4796
g54
(dp4797
sg63
g4766
sg56
(lp4798
g49
(g70
g51
NtRp4799
(dp4800
g54
(dp4801
sg63
g4795
sg56
(lp4802
g49
(g50
g51
NtRp4803
(dp4804
g54
(dp4805
g62
I1
ssg63
g4799
sg56
(lp4806
Nasbasbasbag49
(g65
g51
NtRp4807
(dp4808
g54
(dp4809
sg63
g4766
sg56
(lp4810
g49
(g70
g51
NtRp4811
(dp4812
g54
(dp4813
sg63
g4807
sg56
(lp4814
g49
(g50
g51
NtRp4815
(dp4816
g54
(dp4817
g62
I1
ssg63
g4811
sg56
(lp4818
(lp4819
(S'plugin_wiki'
p4820
I00
S'http://web2py.com/examples/default/download'
p4821
tp4822
a(g4208
(S's\r\x00\x00\x00Other Plugins'
tRp4823
I00
g4553
tp4824
a(g4208
(S's\x0e\x00\x00\x00Layout Plugins'
tRp4825
I00
g4556
tp4826
aasbasbasbasbasbasbasbasbasbasbasbasbasbasbasbasbasbasbasbag49
(g65
g51
NtRp4827
(dp4828
g54
(dp4829
sg63
g3671
sg56
(lp4830
g49
(g70
g51
NtRp4831
(dp4832
g54
(dp4833
g74
g75
ssg63
g4827
sg56
(lp4834
S'meta'
p4835
asbag49
(g70
g51
NtRp4836
(dp4837
g54
(dp4838
g81
g82
ssg63
g4827
sg56
(lp4839
S':'
asbag49
(g70
g51
NtRp4840
(dp4841
g54
(dp4842
sg63
g4827
sg56
(lp4843
g49
(g50
g51
NtRp4844
(dp4845
g54
(dp4846
g62
I5
ssg63
g4840
sg56
(lp4847
g49
(g58
g51
NtRp4848
(dp4849
g54
(dp4850
g62
I4
ssg63
Nsg56
(lp4851
g49
(g65
g51
NtRp4852
(dp4853
g54
(dp4854
sg63
g4848
sg56
(lp4855
g49
(g70
g51
NtRp4856
(dp4857
g54
(dp4858
g74
g75
ssg63
g4852
sg56
(lp4859
S'author'
p4860
asbag49
(g70
g51
NtRp4861
(dp4862
g54
(dp4863
g81
g82
ssg63
g4852
sg56
(lp4864
S':'
asbag49
(g70
g51
NtRp4865
(dp4866
g54
(dp4867
sg63
g4852
sg56
(lp4868
g49
(g50
g51
NtRp4869
(dp4870
g54
(dp4871
g62
I4
ssg63
g4865
sg56
(lp4872
S'Your Name <you@example.com>'
p4873
asbasbasbag49
(g65
g51
NtRp4874
(dp4875
g54
(dp4876
sg63
g4848
sg56
(lp4877
g49
(g70
g51
NtRp4878
(dp4879
g54
(dp4880
g74
g75
ssg63
g4874
sg56
(lp4881
S'copyright'
p4882
asbag49
(g70
g51
NtRp4883
(dp4884
g54
(dp4885
g81
g82
ssg63
g4874
sg56
(lp4886
S':'
asbag49
(g70
g51
NtRp4887
(dp4888
g54
(dp4889
sg63
g4874
sg56
(lp4890
g49
(g50
g51
NtRp4891
(dp4892
g54
(dp4893
g62
I4
ssg63
g4887
sg56
(lp4894
S'Copyright 2011'
p4895
asbasbasbag49
(g65
g51
NtRp4896
(dp4897
g54
(dp4898
sg63
g4848
sg56
(lp4899
g49
(g70
g51
NtRp4900
(dp4901
g54
(dp4902
g74
g75
ssg63
g4896
sg56
(lp4903
S'description'
p4904
asbag49
(g70
g51
NtRp4905
(dp4906
g54
(dp4907
g81
g82
ssg63
g4896
sg56
(lp4908
S':'
asbag49
(g70
g51
NtRp4909
(dp4910
g54
(dp4911
sg63
g4896
sg56
(lp4912
g49
(g50
g51
NtRp4913
(dp4914
g54
(dp4915
g62
I4
ssg63
g4909
sg56
(lp4916
S'a cool new app'
p4917
asbasbasbag49
(g65
g51
NtRp4918
(dp4919
g54
(dp4920
sg63
g4848
sg56
(lp4921
g49
(g70
g51
NtRp4922
(dp4923
g54
(dp4924
g74
g75
ssg63
g4918
sg56
(lp4925
S'generator'
p4926
asbag49
(g70
g51
NtRp4927
(dp4928
g54
(dp4929
g81
g82
ssg63
g4918
sg56
(lp4930
S':'
asbag49
(g70
g51
NtRp4931
(dp4932
g54
(dp4933
sg63
g4918
sg56
(lp4934
g49
(g50
g51
NtRp4935
(dp4936
g54
(dp4937
g62
I4
ssg63
g4931
sg56
(lp4938
S'Web2py Web Framework'
p4939
asbasbasbag49
(g65
g51
NtRp4940
(dp4941
g54
(dp4942
sg63
g4848
sg56
(lp4943
g49
(g70
g51
NtRp4944
(dp4945
g54
(dp4946
g74
g75
ssg63
g4940
sg56
(lp4947
S'keywords'
p4948
asbag49
(g70
g51
NtRp4949
(dp4950
g54
(dp4951
g81
g82
ssg63
g4940
sg56
(lp4952
S':'
asbag49
(g70
g51
NtRp4953
(dp4954
g54
(dp4955
sg63
g4940
sg56
(lp4956
g49
(g50
g51
NtRp4957
(dp4958
g54
(dp4959
g62
I4
ssg63
g4953
sg56
(lp4960
S'web2py, python, framework'
p4961
asbasbasbasbasbasbasbag49
(g65
g51
NtRp4962
(dp4963
g54
(dp4964
sg63
g3671
sg56
(lp4965
g49
(g70
g51
NtRp4966
(dp4967
g54
(dp4968
g74
g75
ssg63
g4962
sg56
(lp4969
S'postprocessing'
p4970
asbag49
(g70
g51
NtRp4971
(dp4972
g54
(dp4973
g81
g82
ssg63
g4962
sg56
(lp4974
S':'
asbag49
(g70
g51
NtRp4975
(dp4976
g54
(dp4977
sg63
g4962
sg56
(lp4978
g49
(g50
g51
NtRp4979
(dp4980
g54
(dp4981
g62
I5
ssg63
g4975
sg56
(lp4982
g49
(g58
g51
NtRp4983
(dp4984
g54
(dp4985
g62
I4
ssg63
Nsg56
(lp4986
sbasbasbasbag49
(g65
g51
NtRp4987
(dp4988
g54
(dp4989
sg63
g3671
sg56
(lp4990
g49
(g70
g51
NtRp4991
(dp4992
g54
(dp4993
g74
g75
ssg63
g4987
sg56
(lp4994
S'session_file'
p4995
asbag49
(g70
g51
NtRp4996
(dp4997
g54
(dp4998
g81
g82
ssg63
g4987
sg56
(lp4999
S':'
asbag49
(g70
g51
NtRp5000
(dp5001
g54
(dp5002
sg63
g4987
sg56
(lp5003
g49
(g50
g51
NtRp5004
(dp5005
g54
(dp5006
g62
I5
ssg63
g5000
sg56
(lp5007
S"<open file '/Users/udimilo/Documents/web2py/applications/udi0312/sessions/127.0.0.1-fcd6a577-d448-4882-b7bc-f353da84ba3b', mode 'rb+' at 0x9f814e8>"
p5008
asbasbasbag49
(g65
g51
NtRp5009
(dp5010
g54
(dp5011
sg63
g3671
sg56
(lp5012
g49
(g70
g51
NtRp5013
(dp5014
g54
(dp5015
g74
g75
ssg63
g5009
sg56
(lp5016
S'session_filename'
p5017
asbag49
(g70
g51
NtRp5018
(dp5019
g54
(dp5020
g81
g82
ssg63
g5009
sg56
(lp5021
S':'
asbag49
(g70
g51
NtRp5022
(dp5023
g54
(dp5024
sg63
g5009
sg56
(lp5025
g49
(g50
g51
NtRp5026
(dp5027
g54
(dp5028
g62
I5
ssg63
g5022
sg56
(lp5029
S'/Users/udimilo/Documents/web2py/applications/udi0312/sessions/127.0.0.1-fcd6a577-d448-4882-b7bc-f353da84ba3b'
p5030
asbasbasbag49
(g65
g51
NtRp5031
(dp5032
g54
(dp5033
sg63
g3671
sg56
(lp5034
g49
(g70
g51
NtRp5035
(dp5036
g54
(dp5037
g74
g75
ssg63
g5031
sg56
(lp5038
S'session_id'
p5039
asbag49
(g70
g51
NtRp5040
(dp5041
g54
(dp5042
g81
g82
ssg63
g5031
sg56
(lp5043
S':'
asbag49
(g70
g51
NtRp5044
(dp5045
g54
(dp5046
sg63
g5031
sg56
(lp5047
g49
(g50
g51
NtRp5048
(dp5049
g54
(dp5050
g62
I5
ssg63
g5044
sg56
(lp5051
S'127.0.0.1-fcd6a577-d448-4882-b7bc-f353da84ba3b'
p5052
asbasbasbag49
(g65
g51
NtRp5053
(dp5054
g54
(dp5055
sg63
g3671
sg56
(lp5056
g49
(g70
g51
NtRp5057
(dp5058
g54
(dp5059
g74
g75
ssg63
g5053
sg56
(lp5060
S'session_id_name'
p5061
asbag49
(g70
g51
NtRp5062
(dp5063
g54
(dp5064
g81
g82
ssg63
g5053
sg56
(lp5065
S':'
asbag49
(g70
g51
NtRp5066
(dp5067
g54
(dp5068
sg63
g5053
sg56
(lp5069
g49
(g50
g51
NtRp5070
(dp5071
g54
(dp5072
g62
I5
ssg63
g5066
sg56
(lp5073
g3728
asbasbasbag49
(g65
g51
NtRp5074
(dp5075
g54
(dp5076
sg63
g3671
sg56
(lp5077
g49
(g70
g51
NtRp5078
(dp5079
g54
(dp5080
g74
g75
ssg63
g5074
sg56
(lp5081
S'session_locked'
p5082
asbag49
(g70
g51
NtRp5083
(dp5084
g54
(dp5085
g81
g82
ssg63
g5074
sg56
(lp5086
S':'
asbag49
(g70
g51
NtRp5087
(dp5088
g54
(dp5089
sg63
g5074
sg56
(lp5090
g49
(g50
g51
NtRp5091
(dp5092
g54
(dp5093
g62
I5
ssg63
g5087
sg56
(lp5094
g92
asbasbasbag49
(g65
g51
NtRp5095
(dp5096
g54
(dp5097
sg63
g3671
sg56
(lp5098
g49
(g70
g51
NtRp5099
(dp5100
g54
(dp5101
g74
g75
ssg63
g5095
sg56
(lp5102
S'session_new'
p5103
asbag49
(g70
g51
NtRp5104
(dp5105
g54
(dp5106
g81
g82
ssg63
g5095
sg56
(lp5107
S':'
asbag49
(g70
g51
NtRp5108
(dp5109
g54
(dp5110
sg63
g5095
sg56
(lp5111
g49
(g50
g51
NtRp5112
(dp5113
g54
(dp5114
g62
I5
ssg63
g5108
sg56
(lp5115
g770
asbasbasbag49
(g65
g51
NtRp5116
(dp5117
g54
(dp5118
sg63
g3671
sg56
(lp5119
g49
(g70
g51
NtRp5120
(dp5121
g54
(dp5122
g74
g75
ssg63
g5116
sg56
(lp5123
S'status'
p5124
asbag49
(g70
g51
NtRp5125
(dp5126
g54
(dp5127
g81
g82
ssg63
g5116
sg56
(lp5128
S':'
asbag49
(g70
g51
NtRp5129
(dp5130
g54
(dp5131
sg63
g5116
sg56
(lp5132
g49
(g50
g51
NtRp5133
(dp5134
g54
(dp5135
g62
I5
ssg63
g5129
sg56
(lp5136
S'200'
p5137
asbasbasbag49
(g65
g51
NtRp5138
(dp5139
g54
(dp5140
sg63
g3671
sg56
(lp5141
g49
(g70
g51
NtRp5142
(dp5143
g54
(dp5144
g74
g75
ssg63
g5138
sg56
(lp5145
S'subtitle'
p5146
asbag49
(g70
g51
NtRp5147
(dp5148
g54
(dp5149
g81
g82
ssg63
g5138
sg56
(lp5150
S':'
asbag49
(g70
g51
NtRp5151
(dp5152
g54
(dp5153
sg63
g5138
sg56
(lp5154
g49
(g50
g51
NtRp5155
(dp5156
g54
(dp5157
g62
I5
ssg63
g5151
sg56
(lp5158
g4208
(S's\r\x00\x00\x00customize me!'
tRp5159
asbasbasbag49
(g65
g51
NtRp5160
(dp5161
g54
(dp5162
sg63
g3671
sg56
(lp5163
g49
(g70
g51
NtRp5164
(dp5165
g54
(dp5166
g74
g75
ssg63
g5160
sg56
(lp5167
S'title'
p5168
asbag49
(g70
g51
NtRp5169
(dp5170
g54
(dp5171
g81
g82
ssg63
g5160
sg56
(lp5172
S':'
asbag49
(g70
g51
NtRp5173
(dp5174
g54
(dp5175
sg63
g5160
sg56
(lp5176
g49
(g50
g51
NtRp5177
(dp5178
g54
(dp5179
g62
I5
ssg63
g5173
sg56
(lp5180
S'Udi0312'
p5181
asbasbasbag49
(g65
g51
NtRp5182
(dp5183
g54
(dp5184
sg63
g3671
sg56
(lp5185
g49
(g70
g51
NtRp5186
(dp5187
g54
(dp5188
g74
g75
ssg63
g5182
sg56
(lp5189
g2325
asbag49
(g70
g51
NtRp5190
(dp5191
g54
(dp5192
g81
g82
ssg63
g5182
sg56
(lp5193
S':'
asbag49
(g70
g51
NtRp5194
(dp5195
g54
(dp5196
sg63
g5182
sg56
(lp5197
g49
(g50
g51
NtRp5198
(dp5199
g54
(dp5200
g62
I5
ssg63
g5194
sg56
(lp5201
g2338
asbasbasbag49
(g65
g51
NtRp5202
(dp5203
g54
(dp5204
sg63
g3671
sg56
(lp5205
g49
(g70
g51
NtRp5206
(dp5207
g54
(dp5208
g74
g75
ssg63
g5202
sg56
(lp5209
S'view'
p5210
asbag49
(g70
g51
NtRp5211
(dp5212
g54
(dp5213
g81
g82
ssg63
g5202
sg56
(lp5214
S':'
asbag49
(g70
g51
NtRp5215
(dp5216
g54
(dp5217
sg63
g5202
sg56
(lp5218
g49
(g50
g51
NtRp5219
(dp5220
g54
(dp5221
g62
I5
ssg63
g5215
sg56
(lp5222
S'default/add_article.html'
p5223
asbasbasbasbasbsS'locals'
p5224
(dp5225
S'read'
p5226
S'<applications.udi0312.modules.readability.Readability object at 0xa6bc050>'
p5227
sS'article'
p5228
S'None'
p5229
sS'json'
p5230
S"{u'error': True, u'messages': u'The url parameter passed does not look like a valid URL. Please check your data and try again.'}"
p5231
sg2281
S"'readability'"
p5232
sssS'traceback'
p5233
S'Traceback (most recent call last):\n  File "/users/udimilo/Documents/web2py/gluon/restricted.py", line 205, in restricted\n    exec ccode in environment\n  File "/Users/udimilo/Documents/web2py/applications/udi0312/controllers/default.py", line 134, in <module>\n  File "/users/udimilo/Documents/web2py/gluon/globals.py", line 173, in <lambda>\n    self._caller = lambda f: f()\n  File "/Users/udimilo/Documents/web2py/applications/udi0312/controllers/default.py", line 33, in add_article\n    url=json[\'url\'],\nKeyError: \'url\'\n'
p5234
s.