(dp1
S'output'
p2
S"<type 'exceptions.AttributeError'> 'module' object has no attribute 'parse'"
p3
sS'layer'
p4
S'/Users/udimilo/Documents/web2py/applications/udi0312/controllers/default.py'
p5
sS'code'
p6
S'# -*- coding: utf-8 -*-\n# this file is released under public domain and you can use without limitations\n\n#########################################################################\n## This is a samples controller\n## - index is the default action of any application\n## - user is required for authentication and authorization\n## - download is for downloading files uploaded in the db (does streaming)\n## - call exposes all registered services (none by default)\n#########################################################################\nfrom readability import Readability\nimport feedparser\nimport urlparse\n\ndef index():\n    articles = db().select(db.article.ALL)\n    categories = db().select(db.category.ALL, orderby=db.category.name)\n    boards = db(db.board.user_id==auth.user.id).select() if auth.user else []\n    return dict(items=articles, categories=categories, boards=boards)\n\ndef add_board():\n    category = db(db.category.name==request.vars.category).select().first()\n    board = db.board.insert(user_id=auth.user.id, category_id=category.id, name=request.vars.boardName)\n    return board.id\n    \ndef add_article():\n    url = request.vars.url\n    article = db(db.article.url == url).select().first()\n    if article is None:\n        r = Readability()\n        json = r.content(url)\n        article = db.article.insert(\n            height=300,\n            url=json[\'url\'],\n            readability_url=json[\'short_url\'],\n            title=json[\'title\'],\n            content=json[\'content\'],\n            domain=json[\'domain\'],\n            author=json[\'author\'],\n            excerpt=json[\'excerpt\'],\n            word_count=json[\'word_count\'],\n            total_pages=json[\'total_pages\'],\n            date_published=json[\'date_published\'],\n            next_page_id=json[\'next_page_id\'],\n            rendered_pages=json[\'rendered_pages\'],            \n            )\n    \n    board = db(db.board.name==request.vars.board).select().first()\n    \n    pin = db((db.pin.board_id == board.id) & (db.pin.article_id == article.id)).select().first()\n    if pin is None:\n        pin = db.pin.insert(board_id=board.id, article_id=article.id)\n    \n    return pin.id\n    \ndef follow_user():\n    follower = auth.user\n    followee = db.auth_user(request.vars.followee)\n    if followee is None:\n        return \'no followee\'\n        \n    rel = db((db.user_user.follower_id == follower.id) & (db.user_user.followee_id == followee.id)).select().first()\n\n    if rel is None:\n        rel = db.user_user.insert(follower_id = follower.id, followee_id = followee.id)\n        return \'added\' #http code\n        \n    return rel #http code\n\ndef unfollow_user():\n    follower = auth.user\n    followee = db.auth_user(request.vars.followee)\n    if followee is None:\n        return \'no followee\'\n        \n    rel = db((db.user_user.follower_id == follower.id) & (db.user_user.followee_id == followee.id)).select().first()\n    if rel is None:\n        return \'no rel\'\n    \n    db.user_user.remove(id == rel.id)\n    return \'deleted\'\n\ndef test():\n    url = request.vars.url\n    feed = feedparser.parse(url)\n    c = 0\n    for item in feed[\'entries\']:\n        url = item.get(\'feedburner_origlink\')\n        if url is None:\n            url = item.get(\'link\')\n        \n        domain = urlparse.parse(url).hostname\n        \n        date = item.get(\'updated\')\n        if date is None:\n            date=item.get(\'published\'),\n            \n        article = db.article.insert(\n            height=300,\n            author=item.get(\'author\'),\n            content=item.content[0].value.strip(),\n            url=url,\n            domain=domain,\n            date_published=date,\n            excerpt=item.get(\'summary\'),\n            title=item.get(\'title\'),\n            )\n    return feed\n                \ndef user():\n    """\n    exposes:\n    http://..../[app]/default/user/login\n    http://..../[app]/default/user/logout\n    http://..../[app]/default/user/register\n    http://..../[app]/default/user/profile\n    http://..../[app]/default/user/retrieve_password\n    http://..../[app]/default/user/change_password\n    use @auth.requires_login()\n        @auth.requires_membership(\'group name\')\n        @auth.requires_permission(\'read\',\'table name\',record_id)\n    to decorate functions that need access control\n    """\n    return dict(form=auth())\n\n\ndef download():\n    """\n    allows downloading of uploaded files\n    http://..../[app]/default/download/[filename]\n    """\n    return response.download(request,db)\n\n\ndef call():\n    """\n    exposes services. for example:\n    http://..../[app]/default/call/jsonrpc\n    decorate with @services.jsonrpc the functions to expose\n    supports xml, json, xmlrpc, jsonrpc, amfrpc, rss, csv\n    """\n    return service()\n\n\n@auth.requires_signature()\ndef data():\n    """\n    http://..../[app]/default/data/tables\n    http://..../[app]/default/data/create/[table]\n    http://..../[app]/default/data/read/[table]/[id]\n    http://..../[app]/default/data/update/[table]/[id]\n    http://..../[app]/default/data/delete/[table]/[id]\n    http://..../[app]/default/data/select/[table]\n    http://..../[app]/default/data/search/[table]\n    but URLs must be signed, i.e. linked with\n      A(\'table\',_href=URL(\'data/tables\',user_signature=True))\n    or with the signed load operator\n      LOAD(\'default\',\'data.load\',args=\'tables\',ajax=True,user_signature=True)\n    """\n    return dict(form=crud())\n\nresponse._vars=response._caller(test)\n'
p7
sS'snapshot'
p8
(dp9
S'exception'
p10
(dp11
S'__hash__'
p12
S"<method-wrapper '__hash__' of exceptions.AttributeError object at 0xaccf030>"
p13
sS'__setattr__'
p14
S"<method-wrapper '__setattr__' of exceptions.AttributeError object at 0xaccf030>"
p15
sS'__reduce_ex__'
p16
S'<built-in method __reduce_ex__ of exceptions.AttributeError object at 0xaccf030>'
p17
sS'__getslice__'
p18
S"<method-wrapper '__getslice__' of exceptions.AttributeError object at 0xaccf030>"
p19
sS'__getitem__'
p20
S"<method-wrapper '__getitem__' of exceptions.AttributeError object at 0xaccf030>"
p21
sS'__setstate__'
p22
S'<built-in method __setstate__ of exceptions.AttributeError object at 0xaccf030>'
p23
sS'__reduce__'
p24
S'<built-in method __reduce__ of exceptions.AttributeError object at 0xaccf030>'
p25
sS'__str__'
p26
S"<method-wrapper '__str__' of exceptions.AttributeError object at 0xaccf030>"
p27
sS'args'
p28
S'("\'module\' object has no attribute \'parse\'",)'
p29
sS'__getattribute__'
p30
S"<method-wrapper '__getattribute__' of exceptions.AttributeError object at 0xaccf030>"
p31
sS'__class__'
p32
S"<type 'exceptions.AttributeError'>"
p33
sS'__delattr__'
p34
S"<method-wrapper '__delattr__' of exceptions.AttributeError object at 0xaccf030>"
p35
sS'__repr__'
p36
S"<method-wrapper '__repr__' of exceptions.AttributeError object at 0xaccf030>"
p37
sS'__dict__'
p38
S'{}'
p39
sS'__doc__'
p40
S"'Attribute not found.'"
p41
sS'__init__'
p42
S"<method-wrapper '__init__' of exceptions.AttributeError object at 0xaccf030>"
p43
sS'__new__'
p44
S'<built-in method __new__ of type object at 0x1004a0>'
p45
ssS'evalue'
p46
S"'module' object has no attribute 'parse'"
p47
sS'request'
p48
ccopy_reg
_reconstructor
p49
(cgluon.html
BEAUTIFY
p50
c__builtin__
object
p51
NtRp52
(dp53
S'attributes'
p54
(dp55
sS'components'
p56
(lp57
g49
(cgluon.html
TABLE
p58
g51
NtRp59
(dp60
g54
(dp61
S'level'
p62
I5
ssS'parent'
p63
Nsg56
(lp64
g49
(cgluon.html
TR
p65
g51
NtRp66
(dp67
g54
(dp68
sg63
g59
sg56
(lp69
g49
(cgluon.html
TD
p70
g51
NtRp71
(dp72
g54
(dp73
S'_style'
p74
S'font-weight:bold;vertical-align:top'
p75
ssg63
g66
sg56
(lp76
S'ajax'
p77
asbag49
(g70
g51
NtRp78
(dp79
g54
(dp80
S'_valign'
p81
S'top'
p82
ssg63
g66
sg56
(lp83
S':'
asbag49
(g70
g51
NtRp84
(dp85
g54
(dp86
sg63
g66
sg56
(lp87
g49
(g50
g51
NtRp88
(dp89
g54
(dp90
g62
I5
ssg63
g84
sg56
(lp91
S'False'
p92
asbasbasbag49
(g65
g51
NtRp93
(dp94
g54
(dp95
sg63
g59
sg56
(lp96
g49
(g70
g51
NtRp97
(dp98
g54
(dp99
g74
g75
ssg63
g93
sg56
(lp100
S'application'
p101
asbag49
(g70
g51
NtRp102
(dp103
g54
(dp104
g81
g82
ssg63
g93
sg56
(lp105
S':'
asbag49
(g70
g51
NtRp106
(dp107
g54
(dp108
sg63
g93
sg56
(lp109
g49
(g50
g51
NtRp110
(dp111
g54
(dp112
g62
I5
ssg63
g106
sg56
(lp113
S'udi0312'
p114
asbasbasbag49
(g65
g51
NtRp115
(dp116
g54
(dp117
sg63
g59
sg56
(lp118
g49
(g70
g51
NtRp119
(dp120
g54
(dp121
g74
g75
ssg63
g115
sg56
(lp122
g28
asbag49
(g70
g51
NtRp123
(dp124
g54
(dp125
g81
g82
ssg63
g115
sg56
(lp126
S':'
asbag49
(g70
g51
NtRp127
(dp128
g54
(dp129
sg63
g115
sg56
(lp130
g49
(g50
g51
NtRp131
(dp132
g54
(dp133
g62
I5
ssg63
g127
sg56
(lp134
g49
(g58
g51
NtRp135
(dp136
g54
(dp137
g62
I4
ssg63
Nsg56
(lp138
sbasbasbasbag49
(g65
g51
NtRp139
(dp140
g54
(dp141
sg63
g59
sg56
(lp142
g49
(g70
g51
NtRp143
(dp144
g54
(dp145
g74
g75
ssg63
g139
sg56
(lp146
S'body'
p147
asbag49
(g70
g51
NtRp148
(dp149
g54
(dp150
g81
g82
ssg63
g139
sg56
(lp151
S':'
asbag49
(g70
g51
NtRp152
(dp153
g54
(dp154
sg63
g139
sg56
(lp155
g49
(g50
g51
NtRp156
(dp157
g54
(dp158
g62
I5
ssg63
g152
sg56
(lp159
S'<cStringIO.StringO object at 0xa76ce80>'
p160
asbasbasbag49
(g65
g51
NtRp161
(dp162
g54
(dp163
sg63
g59
sg56
(lp164
g49
(g70
g51
NtRp165
(dp166
g54
(dp167
g74
g75
ssg63
g161
sg56
(lp168
S'client'
p169
asbag49
(g70
g51
NtRp170
(dp171
g54
(dp172
g81
g82
ssg63
g161
sg56
(lp173
S':'
asbag49
(g70
g51
NtRp174
(dp175
g54
(dp176
sg63
g161
sg56
(lp177
g49
(g50
g51
NtRp178
(dp179
g54
(dp180
g62
I5
ssg63
g174
sg56
(lp181
S'127.0.0.1'
p182
asbasbasbag49
(g65
g51
NtRp183
(dp184
g54
(dp185
sg63
g59
sg56
(lp186
g49
(g70
g51
NtRp187
(dp188
g54
(dp189
g74
g75
ssg63
g183
sg56
(lp190
S'controller'
p191
asbag49
(g70
g51
NtRp192
(dp193
g54
(dp194
g81
g82
ssg63
g183
sg56
(lp195
S':'
asbag49
(g70
g51
NtRp196
(dp197
g54
(dp198
sg63
g183
sg56
(lp199
g49
(g50
g51
NtRp200
(dp201
g54
(dp202
g62
I5
ssg63
g196
sg56
(lp203
S'default'
p204
asbasbasbag49
(g65
g51
NtRp205
(dp206
g54
(dp207
sg63
g59
sg56
(lp208
g49
(g70
g51
NtRp209
(dp210
g54
(dp211
g74
g75
ssg63
g205
sg56
(lp212
S'cookies'
p213
asbag49
(g70
g51
NtRp214
(dp215
g54
(dp216
g81
g82
ssg63
g205
sg56
(lp217
S':'
asbag49
(g70
g51
NtRp218
(dp219
g54
(dp220
sg63
g205
sg56
(lp221
g49
(g50
g51
NtRp222
(dp223
g54
(dp224
g62
I5
ssg63
g218
sg56
(lp225
g49
(g58
g51
NtRp226
(dp227
g54
(dp228
g62
I4
ssg63
Nsg56
(lp229
g49
(g65
g51
NtRp230
(dp231
g54
(dp232
sg63
g226
sg56
(lp233
g49
(g70
g51
NtRp234
(dp235
g54
(dp236
g74
g75
ssg63
g230
sg56
(lp237
S'session_id_admin'
p238
asbag49
(g70
g51
NtRp239
(dp240
g54
(dp241
g81
g82
ssg63
g230
sg56
(lp242
S':'
asbag49
(g70
g51
NtRp243
(dp244
g54
(dp245
sg63
g230
sg56
(lp246
g49
(g50
g51
NtRp247
(dp248
g54
(dp249
g62
I4
ssg63
g243
sg56
(lp250
g49
(g58
g51
NtRp251
(dp252
g54
(dp253
g62
I3
ssg63
Nsg56
(lp254
g49
(g65
g51
NtRp255
(dp256
g54
(dp257
sg63
g251
sg56
(lp258
g49
(g70
g51
NtRp259
(dp260
g54
(dp261
g74
g75
ssg63
g255
sg56
(lp262
S'comment'
p263
asbag49
(g70
g51
NtRp264
(dp265
g54
(dp266
g81
g82
ssg63
g255
sg56
(lp267
S':'
asbag49
(g70
g51
NtRp268
(dp269
g54
(dp270
sg63
g255
sg56
(lp271
g49
(g50
g51
NtRp272
(dp273
g54
(dp274
g62
I3
ssg63
g268
sg56
(lp275
S''
asbasbasbag49
(g65
g51
NtRp276
(dp277
g54
(dp278
sg63
g251
sg56
(lp279
g49
(g70
g51
NtRp280
(dp281
g54
(dp282
g74
g75
ssg63
g276
sg56
(lp283
S'domain'
p284
asbag49
(g70
g51
NtRp285
(dp286
g54
(dp287
g81
g82
ssg63
g276
sg56
(lp288
S':'
asbag49
(g70
g51
NtRp289
(dp290
g54
(dp291
sg63
g276
sg56
(lp292
g49
(g50
g51
NtRp293
(dp294
g54
(dp295
g62
I3
ssg63
g289
sg56
(lp296
S''
asbasbasbag49
(g65
g51
NtRp297
(dp298
g54
(dp299
sg63
g251
sg56
(lp300
g49
(g70
g51
NtRp301
(dp302
g54
(dp303
g74
g75
ssg63
g297
sg56
(lp304
S'expires'
p305
asbag49
(g70
g51
NtRp306
(dp307
g54
(dp308
g81
g82
ssg63
g297
sg56
(lp309
S':'
asbag49
(g70
g51
NtRp310
(dp311
g54
(dp312
sg63
g297
sg56
(lp313
g49
(g50
g51
NtRp314
(dp315
g54
(dp316
g62
I3
ssg63
g310
sg56
(lp317
S''
asbasbasbag49
(g65
g51
NtRp318
(dp319
g54
(dp320
sg63
g251
sg56
(lp321
g49
(g70
g51
NtRp322
(dp323
g54
(dp324
g74
g75
ssg63
g318
sg56
(lp325
S'max-age'
p326
asbag49
(g70
g51
NtRp327
(dp328
g54
(dp329
g81
g82
ssg63
g318
sg56
(lp330
S':'
asbag49
(g70
g51
NtRp331
(dp332
g54
(dp333
sg63
g318
sg56
(lp334
g49
(g50
g51
NtRp335
(dp336
g54
(dp337
g62
I3
ssg63
g331
sg56
(lp338
S''
asbasbasbag49
(g65
g51
NtRp339
(dp340
g54
(dp341
sg63
g251
sg56
(lp342
g49
(g70
g51
NtRp343
(dp344
g54
(dp345
g74
g75
ssg63
g339
sg56
(lp346
S'path'
p347
asbag49
(g70
g51
NtRp348
(dp349
g54
(dp350
g81
g82
ssg63
g339
sg56
(lp351
S':'
asbag49
(g70
g51
NtRp352
(dp353
g54
(dp354
sg63
g339
sg56
(lp355
g49
(g50
g51
NtRp356
(dp357
g54
(dp358
g62
I3
ssg63
g352
sg56
(lp359
S''
asbasbasbag49
(g65
g51
NtRp360
(dp361
g54
(dp362
sg63
g251
sg56
(lp363
g49
(g70
g51
NtRp364
(dp365
g54
(dp366
g74
g75
ssg63
g360
sg56
(lp367
S'secure'
p368
asbag49
(g70
g51
NtRp369
(dp370
g54
(dp371
g81
g82
ssg63
g360
sg56
(lp372
S':'
asbag49
(g70
g51
NtRp373
(dp374
g54
(dp375
sg63
g360
sg56
(lp376
g49
(g50
g51
NtRp377
(dp378
g54
(dp379
g62
I3
ssg63
g373
sg56
(lp380
S''
asbasbasbag49
(g65
g51
NtRp381
(dp382
g54
(dp383
sg63
g251
sg56
(lp384
g49
(g70
g51
NtRp385
(dp386
g54
(dp387
g74
g75
ssg63
g381
sg56
(lp388
S'version'
p389
asbag49
(g70
g51
NtRp390
(dp391
g54
(dp392
g81
g82
ssg63
g381
sg56
(lp393
S':'
asbag49
(g70
g51
NtRp394
(dp395
g54
(dp396
sg63
g381
sg56
(lp397
g49
(g50
g51
NtRp398
(dp399
g54
(dp400
g62
I3
ssg63
g394
sg56
(lp401
S''
asbasbasbasbasbasbasbag49
(g65
g51
NtRp402
(dp403
g54
(dp404
sg63
g226
sg56
(lp405
g49
(g70
g51
NtRp406
(dp407
g54
(dp408
g74
g75
ssg63
g402
sg56
(lp409
S'session_id_udi0312'
p410
asbag49
(g70
g51
NtRp411
(dp412
g54
(dp413
g81
g82
ssg63
g402
sg56
(lp414
S':'
asbag49
(g70
g51
NtRp415
(dp416
g54
(dp417
sg63
g402
sg56
(lp418
g49
(g50
g51
NtRp419
(dp420
g54
(dp421
g62
I4
ssg63
g415
sg56
(lp422
g49
(g58
g51
NtRp423
(dp424
g54
(dp425
g62
I3
ssg63
Nsg56
(lp426
g49
(g65
g51
NtRp427
(dp428
g54
(dp429
sg63
g423
sg56
(lp430
g49
(g70
g51
NtRp431
(dp432
g54
(dp433
g74
g75
ssg63
g427
sg56
(lp434
g263
asbag49
(g70
g51
NtRp435
(dp436
g54
(dp437
g81
g82
ssg63
g427
sg56
(lp438
S':'
asbag49
(g70
g51
NtRp439
(dp440
g54
(dp441
sg63
g427
sg56
(lp442
g49
(g50
g51
NtRp443
(dp444
g54
(dp445
g62
I3
ssg63
g439
sg56
(lp446
S''
asbasbasbag49
(g65
g51
NtRp447
(dp448
g54
(dp449
sg63
g423
sg56
(lp450
g49
(g70
g51
NtRp451
(dp452
g54
(dp453
g74
g75
ssg63
g447
sg56
(lp454
g284
asbag49
(g70
g51
NtRp455
(dp456
g54
(dp457
g81
g82
ssg63
g447
sg56
(lp458
S':'
asbag49
(g70
g51
NtRp459
(dp460
g54
(dp461
sg63
g447
sg56
(lp462
g49
(g50
g51
NtRp463
(dp464
g54
(dp465
g62
I3
ssg63
g459
sg56
(lp466
S''
asbasbasbag49
(g65
g51
NtRp467
(dp468
g54
(dp469
sg63
g423
sg56
(lp470
g49
(g70
g51
NtRp471
(dp472
g54
(dp473
g74
g75
ssg63
g467
sg56
(lp474
g305
asbag49
(g70
g51
NtRp475
(dp476
g54
(dp477
g81
g82
ssg63
g467
sg56
(lp478
S':'
asbag49
(g70
g51
NtRp479
(dp480
g54
(dp481
sg63
g467
sg56
(lp482
g49
(g50
g51
NtRp483
(dp484
g54
(dp485
g62
I3
ssg63
g479
sg56
(lp486
S''
asbasbasbag49
(g65
g51
NtRp487
(dp488
g54
(dp489
sg63
g423
sg56
(lp490
g49
(g70
g51
NtRp491
(dp492
g54
(dp493
g74
g75
ssg63
g487
sg56
(lp494
g326
asbag49
(g70
g51
NtRp495
(dp496
g54
(dp497
g81
g82
ssg63
g487
sg56
(lp498
S':'
asbag49
(g70
g51
NtRp499
(dp500
g54
(dp501
sg63
g487
sg56
(lp502
g49
(g50
g51
NtRp503
(dp504
g54
(dp505
g62
I3
ssg63
g499
sg56
(lp506
S''
asbasbasbag49
(g65
g51
NtRp507
(dp508
g54
(dp509
sg63
g423
sg56
(lp510
g49
(g70
g51
NtRp511
(dp512
g54
(dp513
g74
g75
ssg63
g507
sg56
(lp514
g347
asbag49
(g70
g51
NtRp515
(dp516
g54
(dp517
g81
g82
ssg63
g507
sg56
(lp518
S':'
asbag49
(g70
g51
NtRp519
(dp520
g54
(dp521
sg63
g507
sg56
(lp522
g49
(g50
g51
NtRp523
(dp524
g54
(dp525
g62
I3
ssg63
g519
sg56
(lp526
S''
asbasbasbag49
(g65
g51
NtRp527
(dp528
g54
(dp529
sg63
g423
sg56
(lp530
g49
(g70
g51
NtRp531
(dp532
g54
(dp533
g74
g75
ssg63
g527
sg56
(lp534
g368
asbag49
(g70
g51
NtRp535
(dp536
g54
(dp537
g81
g82
ssg63
g527
sg56
(lp538
S':'
asbag49
(g70
g51
NtRp539
(dp540
g54
(dp541
sg63
g527
sg56
(lp542
g49
(g50
g51
NtRp543
(dp544
g54
(dp545
g62
I3
ssg63
g539
sg56
(lp546
S''
asbasbasbag49
(g65
g51
NtRp547
(dp548
g54
(dp549
sg63
g423
sg56
(lp550
g49
(g70
g51
NtRp551
(dp552
g54
(dp553
g74
g75
ssg63
g547
sg56
(lp554
g389
asbag49
(g70
g51
NtRp555
(dp556
g54
(dp557
g81
g82
ssg63
g547
sg56
(lp558
S':'
asbag49
(g70
g51
NtRp559
(dp560
g54
(dp561
sg63
g547
sg56
(lp562
g49
(g50
g51
NtRp563
(dp564
g54
(dp565
g62
I3
ssg63
g559
sg56
(lp566
S''
asbasbasbasbasbasbasbasbasbasbasbag49
(g65
g51
NtRp567
(dp568
g54
(dp569
sg63
g59
sg56
(lp570
g49
(g70
g51
NtRp571
(dp572
g54
(dp573
g74
g75
ssg63
g567
sg56
(lp574
S'env'
p575
asbag49
(g70
g51
NtRp576
(dp577
g54
(dp578
g81
g82
ssg63
g567
sg56
(lp579
S':'
asbag49
(g70
g51
NtRp580
(dp581
g54
(dp582
sg63
g567
sg56
(lp583
g49
(g50
g51
NtRp584
(dp585
g54
(dp586
g62
I5
ssg63
g580
sg56
(lp587
g49
(g58
g51
NtRp588
(dp589
g54
(dp590
g62
I4
ssg63
Nsg56
(lp591
g49
(g65
g51
NtRp592
(dp593
g54
(dp594
sg63
g588
sg56
(lp595
g49
(g70
g51
NtRp596
(dp597
g54
(dp598
g74
g75
ssg63
g592
sg56
(lp599
S'app_folders'
p600
asbag49
(g70
g51
NtRp601
(dp602
g54
(dp603
g81
g82
ssg63
g592
sg56
(lp604
S':'
asbag49
(g70
g51
NtRp605
(dp606
g54
(dp607
sg63
g592
sg56
(lp608
g49
(g50
g51
NtRp609
(dp610
g54
(dp611
g62
I4
ssg63
g605
sg56
(lp612
S"set(['/Users/udimilo/Documents/web2py/applications/udi0312/', '/Users/udimilo/Documents/web2py/applications/admin/'])"
p613
asbasbasbag49
(g65
g51
NtRp614
(dp615
g54
(dp616
sg63
g588
sg56
(lp617
g49
(g70
g51
NtRp618
(dp619
g54
(dp620
g74
g75
ssg63
g614
sg56
(lp621
S'applications_parent'
p622
asbag49
(g70
g51
NtRp623
(dp624
g54
(dp625
g81
g82
ssg63
g614
sg56
(lp626
S':'
asbag49
(g70
g51
NtRp627
(dp628
g54
(dp629
sg63
g614
sg56
(lp630
g49
(g50
g51
NtRp631
(dp632
g54
(dp633
g62
I4
ssg63
g627
sg56
(lp634
S'/Users/udimilo/Documents/web2py'
p635
asbasbasbag49
(g65
g51
NtRp636
(dp637
g54
(dp638
sg63
g588
sg56
(lp639
g49
(g70
g51
NtRp640
(dp641
g54
(dp642
g74
g75
ssg63
g636
sg56
(lp643
S'cmd_args'
p644
asbag49
(g70
g51
NtRp645
(dp646
g54
(dp647
g81
g82
ssg63
g636
sg56
(lp648
S':'
asbag49
(g70
g51
NtRp649
(dp650
g54
(dp651
sg63
g636
sg56
(lp652
g49
(g50
g51
NtRp653
(dp654
g54
(dp655
g62
I4
ssg63
g649
sg56
(lp656
g49
(g58
g51
NtRp657
(dp658
g54
(dp659
g62
I3
ssg63
Nsg56
(lp660
sbasbasbasbag49
(g65
g51
NtRp661
(dp662
g54
(dp663
sg63
g588
sg56
(lp664
g49
(g70
g51
NtRp665
(dp666
g54
(dp667
g74
g75
ssg63
g661
sg56
(lp668
S'cmd_options'
p669
asbag49
(g70
g51
NtRp670
(dp671
g54
(dp672
g81
g82
ssg63
g661
sg56
(lp673
S':'
asbag49
(g70
g51
NtRp674
(dp675
g54
(dp676
sg63
g661
sg56
(lp677
g49
(g50
g51
NtRp678
(dp679
g54
(dp680
g62
I4
ssg63
g674
sg56
(lp681
S"<Values at 0x23301c0: {'verbose': False, 'ip': '127.0.0.1', 'shutdown_timeout': 5, 'taskbar': False, 'nocron': False, 'pid_filename': 'httpserver.pid', 'maxthreads': None, 'softcron': False, 'server_name': 'udi-milos-macbook-pro.fritz.box', 'bpython': False, 'nogui': False, 'port': 8000, 'extcron': False, 'debuglevel': 30, 'test': None, 'folder': '/Users/udimilo/Documents/web2py', 'config': '', 'import_models': False, 'winservice': '', 'shell': None, 'run': '', 'log_filename': 'httpserver.log', 'args': [''], 'socket_timeout': 5, 'ssl_ca_certificate': None, 'scheduler': None, 'profiler_filename': None, 'ssl_private_key': '', 'password': '<ask>', 'request_queue_size': 5, 'ssl_certificate': '', 'cronjob': False, 'numthreads': None, 'quiet': False, 'interfaces': None, 'minthreads': None, 'timeout': 10, 'plain': False, 'nobanner': False}>"
p682
asbasbasbag49
(g65
g51
NtRp683
(dp684
g54
(dp685
sg63
g588
sg56
(lp686
g49
(g70
g51
NtRp687
(dp688
g54
(dp689
g74
g75
ssg63
g683
sg56
(lp690
S'db_sessions'
p691
asbag49
(g70
g51
NtRp692
(dp693
g54
(dp694
g81
g82
ssg63
g683
sg56
(lp695
S':'
asbag49
(g70
g51
NtRp696
(dp697
g54
(dp698
sg63
g683
sg56
(lp699
g49
(g50
g51
NtRp700
(dp701
g54
(dp702
g62
I4
ssg63
g696
sg56
(lp703
S'set([])'
p704
asbasbasbag49
(g65
g51
NtRp705
(dp706
g54
(dp707
sg63
g588
sg56
(lp708
g49
(g70
g51
NtRp709
(dp710
g54
(dp711
g74
g75
ssg63
g705
sg56
(lp712
S'debugging'
p713
asbag49
(g70
g51
NtRp714
(dp715
g54
(dp716
g81
g82
ssg63
g705
sg56
(lp717
S':'
asbag49
(g70
g51
NtRp718
(dp719
g54
(dp720
sg63
g705
sg56
(lp721
g49
(g50
g51
NtRp722
(dp723
g54
(dp724
g62
I4
ssg63
g718
sg56
(lp725
g92
asbasbasbag49
(g65
g51
NtRp726
(dp727
g54
(dp728
sg63
g588
sg56
(lp729
g49
(g70
g51
NtRp730
(dp731
g54
(dp732
g74
g75
ssg63
g726
sg56
(lp733
S'gluon_parent'
p734
asbag49
(g70
g51
NtRp735
(dp736
g54
(dp737
g81
g82
ssg63
g726
sg56
(lp738
S':'
asbag49
(g70
g51
NtRp739
(dp740
g54
(dp741
sg63
g726
sg56
(lp742
g49
(g50
g51
NtRp743
(dp744
g54
(dp745
g62
I4
ssg63
g739
sg56
(lp746
S'/Users/udimilo/Documents/web2py'
p747
asbasbasbag49
(g65
g51
NtRp748
(dp749
g54
(dp750
sg63
g588
sg56
(lp751
g49
(g70
g51
NtRp752
(dp753
g54
(dp754
g74
g75
ssg63
g748
sg56
(lp755
S'http_accept'
p756
asbag49
(g70
g51
NtRp757
(dp758
g54
(dp759
g81
g82
ssg63
g748
sg56
(lp760
S':'
asbag49
(g70
g51
NtRp761
(dp762
g54
(dp763
sg63
g748
sg56
(lp764
g49
(g50
g51
NtRp765
(dp766
g54
(dp767
g62
I4
ssg63
g761
sg56
(lp768
S'text/html,application/xhtml+xml,application/xml;q=0.9,*/*;q=0.8'
p769
asbasbasbag49
(g65
g51
NtRp770
(dp771
g54
(dp772
sg63
g588
sg56
(lp773
g49
(g70
g51
NtRp774
(dp775
g54
(dp776
g74
g75
ssg63
g770
sg56
(lp777
S'http_accept_charset'
p778
asbag49
(g70
g51
NtRp779
(dp780
g54
(dp781
g81
g82
ssg63
g770
sg56
(lp782
S':'
asbag49
(g70
g51
NtRp783
(dp784
g54
(dp785
sg63
g770
sg56
(lp786
g49
(g50
g51
NtRp787
(dp788
g54
(dp789
g62
I4
ssg63
g783
sg56
(lp790
S'ISO-8859-1,utf-8;q=0.7,*;q=0.3'
p791
asbasbasbag49
(g65
g51
NtRp792
(dp793
g54
(dp794
sg63
g588
sg56
(lp795
g49
(g70
g51
NtRp796
(dp797
g54
(dp798
g74
g75
ssg63
g792
sg56
(lp799
S'http_accept_encoding'
p800
asbag49
(g70
g51
NtRp801
(dp802
g54
(dp803
g81
g82
ssg63
g792
sg56
(lp804
S':'
asbag49
(g70
g51
NtRp805
(dp806
g54
(dp807
sg63
g792
sg56
(lp808
g49
(g50
g51
NtRp809
(dp810
g54
(dp811
g62
I4
ssg63
g805
sg56
(lp812
S'gzip,deflate,sdch'
p813
asbasbasbag49
(g65
g51
NtRp814
(dp815
g54
(dp816
sg63
g588
sg56
(lp817
g49
(g70
g51
NtRp818
(dp819
g54
(dp820
g74
g75
ssg63
g814
sg56
(lp821
S'http_accept_language'
p822
asbag49
(g70
g51
NtRp823
(dp824
g54
(dp825
g81
g82
ssg63
g814
sg56
(lp826
S':'
asbag49
(g70
g51
NtRp827
(dp828
g54
(dp829
sg63
g814
sg56
(lp830
g49
(g50
g51
NtRp831
(dp832
g54
(dp833
g62
I4
ssg63
g827
sg56
(lp834
S'en-US,en;q=0.8'
p835
asbasbasbag49
(g65
g51
NtRp836
(dp837
g54
(dp838
sg63
g588
sg56
(lp839
g49
(g70
g51
NtRp840
(dp841
g54
(dp842
g74
g75
ssg63
g836
sg56
(lp843
S'http_cache_control'
p844
asbag49
(g70
g51
NtRp845
(dp846
g54
(dp847
g81
g82
ssg63
g836
sg56
(lp848
S':'
asbag49
(g70
g51
NtRp849
(dp850
g54
(dp851
sg63
g836
sg56
(lp852
g49
(g50
g51
NtRp853
(dp854
g54
(dp855
g62
I4
ssg63
g849
sg56
(lp856
S'max-age=0'
p857
asbasbasbag49
(g65
g51
NtRp858
(dp859
g54
(dp860
sg63
g588
sg56
(lp861
g49
(g70
g51
NtRp862
(dp863
g54
(dp864
g74
g75
ssg63
g858
sg56
(lp865
S'http_connection'
p866
asbag49
(g70
g51
NtRp867
(dp868
g54
(dp869
g81
g82
ssg63
g858
sg56
(lp870
S':'
asbag49
(g70
g51
NtRp871
(dp872
g54
(dp873
sg63
g858
sg56
(lp874
g49
(g50
g51
NtRp875
(dp876
g54
(dp877
g62
I4
ssg63
g871
sg56
(lp878
S'keep-alive'
p879
asbasbasbag49
(g65
g51
NtRp880
(dp881
g54
(dp882
sg63
g588
sg56
(lp883
g49
(g70
g51
NtRp884
(dp885
g54
(dp886
g74
g75
ssg63
g880
sg56
(lp887
S'http_cookie'
p888
asbag49
(g70
g51
NtRp889
(dp890
g54
(dp891
g81
g82
ssg63
g880
sg56
(lp892
S':'
asbag49
(g70
g51
NtRp893
(dp894
g54
(dp895
sg63
g880
sg56
(lp896
g49
(g50
g51
NtRp897
(dp898
g54
(dp899
g62
I4
ssg63
g893
sg56
(lp900
S'session_id_udi0312=127.0.0.1-fcd6a577-d448-4882-b7bc-f353da84ba3b; session_id_admin=127.0.0.1-231d6959-7525-4217-bbb3-faad14511426'
p901
asbasbasbag49
(g65
g51
NtRp902
(dp903
g54
(dp904
sg63
g588
sg56
(lp905
g49
(g70
g51
NtRp906
(dp907
g54
(dp908
g74
g75
ssg63
g902
sg56
(lp909
S'http_host'
p910
asbag49
(g70
g51
NtRp911
(dp912
g54
(dp913
g81
g82
ssg63
g902
sg56
(lp914
S':'
asbag49
(g70
g51
NtRp915
(dp916
g54
(dp917
sg63
g902
sg56
(lp918
g49
(g50
g51
NtRp919
(dp920
g54
(dp921
g62
I4
ssg63
g915
sg56
(lp922
S'127.0.0.1:8000'
p923
asbasbasbag49
(g65
g51
NtRp924
(dp925
g54
(dp926
sg63
g588
sg56
(lp927
g49
(g70
g51
NtRp928
(dp929
g54
(dp930
g74
g75
ssg63
g924
sg56
(lp931
S'http_user_agent'
p932
asbag49
(g70
g51
NtRp933
(dp934
g54
(dp935
g81
g82
ssg63
g924
sg56
(lp936
S':'
asbag49
(g70
g51
NtRp937
(dp938
g54
(dp939
sg63
g924
sg56
(lp940
g49
(g50
g51
NtRp941
(dp942
g54
(dp943
g62
I4
ssg63
g937
sg56
(lp944
S'Mozilla/5.0 (Macintosh; Intel Mac OS X 10_7_3) AppleWebKit/535.11 (KHTML, like Gecko) Chrome/17.0.963.79 Safari/535.11'
p945
asbasbasbag49
(g65
g51
NtRp946
(dp947
g54
(dp948
sg63
g588
sg56
(lp949
g49
(g70
g51
NtRp950
(dp951
g54
(dp952
g74
g75
ssg63
g946
sg56
(lp953
S'is_jython'
p954
asbag49
(g70
g51
NtRp955
(dp956
g54
(dp957
g81
g82
ssg63
g946
sg56
(lp958
S':'
asbag49
(g70
g51
NtRp959
(dp960
g54
(dp961
sg63
g946
sg56
(lp962
g49
(g50
g51
NtRp963
(dp964
g54
(dp965
g62
I4
ssg63
g959
sg56
(lp966
g92
asbasbasbag49
(g65
g51
NtRp967
(dp968
g54
(dp969
sg63
g588
sg56
(lp970
g49
(g70
g51
NtRp971
(dp972
g54
(dp973
g74
g75
ssg63
g967
sg56
(lp974
S'is_pypy'
p975
asbag49
(g70
g51
NtRp976
(dp977
g54
(dp978
g81
g82
ssg63
g967
sg56
(lp979
S':'
asbag49
(g70
g51
NtRp980
(dp981
g54
(dp982
sg63
g967
sg56
(lp983
g49
(g50
g51
NtRp984
(dp985
g54
(dp986
g62
I4
ssg63
g980
sg56
(lp987
g92
asbasbasbag49
(g65
g51
NtRp988
(dp989
g54
(dp990
sg63
g588
sg56
(lp991
g49
(g70
g51
NtRp992
(dp993
g54
(dp994
g74
g75
ssg63
g988
sg56
(lp995
S'path_info'
p996
asbag49
(g70
g51
NtRp997
(dp998
g54
(dp999
g81
g82
ssg63
g988
sg56
(lp1000
S':'
asbag49
(g70
g51
NtRp1001
(dp1002
g54
(dp1003
sg63
g988
sg56
(lp1004
g49
(g50
g51
NtRp1005
(dp1006
g54
(dp1007
g62
I4
ssg63
g1001
sg56
(lp1008
S'/test'
p1009
asbasbasbag49
(g65
g51
NtRp1010
(dp1011
g54
(dp1012
sg63
g588
sg56
(lp1013
g49
(g70
g51
NtRp1014
(dp1015
g54
(dp1016
g74
g75
ssg63
g1010
sg56
(lp1017
S'query_string'
p1018
asbag49
(g70
g51
NtRp1019
(dp1020
g54
(dp1021
g81
g82
ssg63
g1010
sg56
(lp1022
S':'
asbag49
(g70
g51
NtRp1023
(dp1024
g54
(dp1025
sg63
g1010
sg56
(lp1026
g49
(g50
g51
NtRp1027
(dp1028
g54
(dp1029
g62
I4
ssg63
g1023
sg56
(lp1030
S'url=http://feeds.feedburner.com/TechCrunch/startups'
p1031
asbasbasbag49
(g65
g51
NtRp1032
(dp1033
g54
(dp1034
sg63
g588
sg56
(lp1035
g49
(g70
g51
NtRp1036
(dp1037
g54
(dp1038
g74
g75
ssg63
g1032
sg56
(lp1039
S'remote_addr'
p1040
asbag49
(g70
g51
NtRp1041
(dp1042
g54
(dp1043
g81
g82
ssg63
g1032
sg56
(lp1044
S':'
asbag49
(g70
g51
NtRp1045
(dp1046
g54
(dp1047
sg63
g1032
sg56
(lp1048
g49
(g50
g51
NtRp1049
(dp1050
g54
(dp1051
g62
I4
ssg63
g1045
sg56
(lp1052
g182
asbasbasbag49
(g65
g51
NtRp1053
(dp1054
g54
(dp1055
sg63
g588
sg56
(lp1056
g49
(g70
g51
NtRp1057
(dp1058
g54
(dp1059
g74
g75
ssg63
g1053
sg56
(lp1060
S'remote_port'
p1061
asbag49
(g70
g51
NtRp1062
(dp1063
g54
(dp1064
g81
g82
ssg63
g1053
sg56
(lp1065
S':'
asbag49
(g70
g51
NtRp1066
(dp1067
g54
(dp1068
sg63
g1053
sg56
(lp1069
g49
(g50
g51
NtRp1070
(dp1071
g54
(dp1072
g62
I4
ssg63
g1066
sg56
(lp1073
S'64624'
p1074
asbasbasbag49
(g65
g51
NtRp1075
(dp1076
g54
(dp1077
sg63
g588
sg56
(lp1078
g49
(g70
g51
NtRp1079
(dp1080
g54
(dp1081
g74
g75
ssg63
g1075
sg56
(lp1082
S'request_method'
p1083
asbag49
(g70
g51
NtRp1084
(dp1085
g54
(dp1086
g81
g82
ssg63
g1075
sg56
(lp1087
S':'
asbag49
(g70
g51
NtRp1088
(dp1089
g54
(dp1090
sg63
g1075
sg56
(lp1091
g49
(g50
g51
NtRp1092
(dp1093
g54
(dp1094
g62
I4
ssg63
g1088
sg56
(lp1095
S'GET'
p1096
asbasbasbag49
(g65
g51
NtRp1097
(dp1098
g54
(dp1099
sg63
g588
sg56
(lp1100
g49
(g70
g51
NtRp1101
(dp1102
g54
(dp1103
g74
g75
ssg63
g1097
sg56
(lp1104
S'request_uri'
p1105
asbag49
(g70
g51
NtRp1106
(dp1107
g54
(dp1108
g81
g82
ssg63
g1097
sg56
(lp1109
S':'
asbag49
(g70
g51
NtRp1110
(dp1111
g54
(dp1112
sg63
g1097
sg56
(lp1113
g49
(g50
g51
NtRp1114
(dp1115
g54
(dp1116
g62
I4
ssg63
g1110
sg56
(lp1117
S'/udi0312/default/test?url=http://feeds.feedburner.com/TechCrunch/startups'
p1118
asbasbasbag49
(g65
g51
NtRp1119
(dp1120
g54
(dp1121
sg63
g588
sg56
(lp1122
g49
(g70
g51
NtRp1123
(dp1124
g54
(dp1125
g74
g75
ssg63
g1119
sg56
(lp1126
S'script_name'
p1127
asbag49
(g70
g51
NtRp1128
(dp1129
g54
(dp1130
g81
g82
ssg63
g1119
sg56
(lp1131
S':'
asbag49
(g70
g51
NtRp1132
(dp1133
g54
(dp1134
sg63
g1119
sg56
(lp1135
g49
(g50
g51
NtRp1136
(dp1137
g54
(dp1138
g62
I4
ssg63
g1132
sg56
(lp1139
S''
asbasbasbag49
(g65
g51
NtRp1140
(dp1141
g54
(dp1142
sg63
g588
sg56
(lp1143
g49
(g70
g51
NtRp1144
(dp1145
g54
(dp1146
g74
g75
ssg63
g1140
sg56
(lp1147
S'server_name'
p1148
asbag49
(g70
g51
NtRp1149
(dp1150
g54
(dp1151
g81
g82
ssg63
g1140
sg56
(lp1152
S':'
asbag49
(g70
g51
NtRp1153
(dp1154
g54
(dp1155
sg63
g1140
sg56
(lp1156
g49
(g50
g51
NtRp1157
(dp1158
g54
(dp1159
g62
I4
ssg63
g1153
sg56
(lp1160
S'udi-milos-macbook-pro.fritz.box'
p1161
asbasbasbag49
(g65
g51
NtRp1162
(dp1163
g54
(dp1164
sg63
g588
sg56
(lp1165
g49
(g70
g51
NtRp1166
(dp1167
g54
(dp1168
g74
g75
ssg63
g1162
sg56
(lp1169
S'server_port'
p1170
asbag49
(g70
g51
NtRp1171
(dp1172
g54
(dp1173
g81
g82
ssg63
g1162
sg56
(lp1174
S':'
asbag49
(g70
g51
NtRp1175
(dp1176
g54
(dp1177
sg63
g1162
sg56
(lp1178
g49
(g50
g51
NtRp1179
(dp1180
g54
(dp1181
g62
I4
ssg63
g1175
sg56
(lp1182
S'8000'
p1183
asbasbasbag49
(g65
g51
NtRp1184
(dp1185
g54
(dp1186
sg63
g588
sg56
(lp1187
g49
(g70
g51
NtRp1188
(dp1189
g54
(dp1190
g74
g75
ssg63
g1184
sg56
(lp1191
S'server_protocol'
p1192
asbag49
(g70
g51
NtRp1193
(dp1194
g54
(dp1195
g81
g82
ssg63
g1184
sg56
(lp1196
S':'
asbag49
(g70
g51
NtRp1197
(dp1198
g54
(dp1199
sg63
g1184
sg56
(lp1200
g49
(g50
g51
NtRp1201
(dp1202
g54
(dp1203
g62
I4
ssg63
g1197
sg56
(lp1204
S'HTTP/1.1'
p1205
asbasbasbag49
(g65
g51
NtRp1206
(dp1207
g54
(dp1208
sg63
g588
sg56
(lp1209
g49
(g70
g51
NtRp1210
(dp1211
g54
(dp1212
g74
g75
ssg63
g1206
sg56
(lp1213
S'server_software'
p1214
asbag49
(g70
g51
NtRp1215
(dp1216
g54
(dp1217
g81
g82
ssg63
g1206
sg56
(lp1218
S':'
asbag49
(g70
g51
NtRp1219
(dp1220
g54
(dp1221
sg63
g1206
sg56
(lp1222
g49
(g50
g51
NtRp1223
(dp1224
g54
(dp1225
g62
I4
ssg63
g1219
sg56
(lp1226
S'Rocket 1.2.4'
p1227
asbasbasbag49
(g65
g51
NtRp1228
(dp1229
g54
(dp1230
sg63
g588
sg56
(lp1231
g49
(g70
g51
NtRp1232
(dp1233
g54
(dp1234
g74
g75
ssg63
g1228
sg56
(lp1235
S'web2py_crontype'
p1236
asbag49
(g70
g51
NtRp1237
(dp1238
g54
(dp1239
g81
g82
ssg63
g1228
sg56
(lp1240
S':'
asbag49
(g70
g51
NtRp1241
(dp1242
g54
(dp1243
sg63
g1228
sg56
(lp1244
g49
(g50
g51
NtRp1245
(dp1246
g54
(dp1247
g62
I4
ssg63
g1241
sg56
(lp1248
S'hard'
p1249
asbasbasbag49
(g65
g51
NtRp1250
(dp1251
g54
(dp1252
sg63
g588
sg56
(lp1253
g49
(g70
g51
NtRp1254
(dp1255
g54
(dp1256
g74
g75
ssg63
g1250
sg56
(lp1257
S'web2py_original_uri'
p1258
asbag49
(g70
g51
NtRp1259
(dp1260
g54
(dp1261
g81
g82
ssg63
g1250
sg56
(lp1262
S':'
asbag49
(g70
g51
NtRp1263
(dp1264
g54
(dp1265
sg63
g1250
sg56
(lp1266
g49
(g50
g51
NtRp1267
(dp1268
g54
(dp1269
g62
I4
ssg63
g1263
sg56
(lp1270
S'/test?url=http://feeds.feedburner.com/TechCrunch/startups'
p1271
asbasbasbag49
(g65
g51
NtRp1272
(dp1273
g54
(dp1274
sg63
g588
sg56
(lp1275
g49
(g70
g51
NtRp1276
(dp1277
g54
(dp1278
g74
g75
ssg63
g1272
sg56
(lp1279
S'web2py_path'
p1280
asbag49
(g70
g51
NtRp1281
(dp1282
g54
(dp1283
g81
g82
ssg63
g1272
sg56
(lp1284
S':'
asbag49
(g70
g51
NtRp1285
(dp1286
g54
(dp1287
sg63
g1272
sg56
(lp1288
g49
(g50
g51
NtRp1289
(dp1290
g54
(dp1291
g62
I4
ssg63
g1285
sg56
(lp1292
g635
asbasbasbag49
(g65
g51
NtRp1293
(dp1294
g54
(dp1295
sg63
g588
sg56
(lp1296
g49
(g70
g51
NtRp1297
(dp1298
g54
(dp1299
g74
g75
ssg63
g1293
sg56
(lp1300
S'web2py_version'
p1301
asbag49
(g70
g51
NtRp1302
(dp1303
g54
(dp1304
g81
g82
ssg63
g1293
sg56
(lp1305
S':'
asbag49
(g70
g51
NtRp1306
(dp1307
g54
(dp1308
sg63
g1293
sg56
(lp1309
g49
(g50
g51
NtRp1310
(dp1311
g54
(dp1312
g62
I4
ssg63
g1306
sg56
(lp1313
g49
(g58
g51
NtRp1314
(dp1315
g54
(dp1316
g62
I3
ssg63
Nsg56
(lp1317
g49
(g65
g51
NtRp1318
(dp1319
g54
(dp1320
sg63
g1314
sg56
(lp1321
g49
(g70
g51
NtRp1322
(dp1323
g54
(dp1324
sg63
g1318
sg56
(lp1325
g49
(g50
g51
NtRp1326
(dp1327
g54
(dp1328
g62
I3
ssg63
g1322
sg56
(lp1329
S'1'
asbasbasbag49
(g65
g51
NtRp1330
(dp1331
g54
(dp1332
sg63
g1314
sg56
(lp1333
g49
(g70
g51
NtRp1334
(dp1335
g54
(dp1336
sg63
g1330
sg56
(lp1337
g49
(g50
g51
NtRp1338
(dp1339
g54
(dp1340
g62
I3
ssg63
g1334
sg56
(lp1341
S'99'
p1342
asbasbasbag49
(g65
g51
NtRp1343
(dp1344
g54
(dp1345
sg63
g1314
sg56
(lp1346
g49
(g70
g51
NtRp1347
(dp1348
g54
(dp1349
sg63
g1343
sg56
(lp1350
g49
(g50
g51
NtRp1351
(dp1352
g54
(dp1353
g62
I3
ssg63
g1347
sg56
(lp1354
S'7'
asbasbasbag49
(g65
g51
NtRp1355
(dp1356
g54
(dp1357
sg63
g1314
sg56
(lp1358
g49
(g70
g51
NtRp1359
(dp1360
g54
(dp1361
sg63
g1355
sg56
(lp1362
g49
(g50
g51
NtRp1363
(dp1364
g54
(dp1365
g62
I3
ssg63
g1359
sg56
(lp1366
S'datetime.datetime(2012, 3, 4, 22, 12, 8)'
p1367
asbasbasbag49
(g65
g51
NtRp1368
(dp1369
g54
(dp1370
sg63
g1314
sg56
(lp1371
g49
(g70
g51
NtRp1372
(dp1373
g54
(dp1374
sg63
g1368
sg56
(lp1375
g49
(g50
g51
NtRp1376
(dp1377
g54
(dp1378
g62
I3
ssg63
g1372
sg56
(lp1379
S'stable'
p1380
asbasbasbasbasbasbasbag49
(g65
g51
NtRp1381
(dp1382
g54
(dp1383
sg63
g588
sg56
(lp1384
g49
(g70
g51
NtRp1385
(dp1386
g54
(dp1387
g74
g75
ssg63
g1381
sg56
(lp1388
S'wsgi_errors'
p1389
asbag49
(g70
g51
NtRp1390
(dp1391
g54
(dp1392
g81
g82
ssg63
g1381
sg56
(lp1393
S':'
asbag49
(g70
g51
NtRp1394
(dp1395
g54
(dp1396
sg63
g1381
sg56
(lp1397
g49
(g50
g51
NtRp1398
(dp1399
g54
(dp1400
g62
I4
ssg63
g1394
sg56
(lp1401
S"<open file '<stderr>', mode 'w' at 0x4220b0>"
p1402
asbasbasbag49
(g65
g51
NtRp1403
(dp1404
g54
(dp1405
sg63
g588
sg56
(lp1406
g49
(g70
g51
NtRp1407
(dp1408
g54
(dp1409
g74
g75
ssg63
g1403
sg56
(lp1410
S'wsgi_file_wrapper'
p1411
asbag49
(g70
g51
NtRp1412
(dp1413
g54
(dp1414
g81
g82
ssg63
g1403
sg56
(lp1415
S':'
asbag49
(g70
g51
NtRp1416
(dp1417
g54
(dp1418
sg63
g1403
sg56
(lp1419
g49
(g50
g51
NtRp1420
(dp1421
g54
(dp1422
g62
I4
ssg63
g1416
sg56
(lp1423
S'<class wsgiref.util.FileWrapper at 0x22746c0>'
p1424
asbasbasbag49
(g65
g51
NtRp1425
(dp1426
g54
(dp1427
sg63
g588
sg56
(lp1428
g49
(g70
g51
NtRp1429
(dp1430
g54
(dp1431
g74
g75
ssg63
g1425
sg56
(lp1432
S'wsgi_input'
p1433
asbag49
(g70
g51
NtRp1434
(dp1435
g54
(dp1436
g81
g82
ssg63
g1425
sg56
(lp1437
S':'
asbag49
(g70
g51
NtRp1438
(dp1439
g54
(dp1440
sg63
g1425
sg56
(lp1441
g49
(g50
g51
NtRp1442
(dp1443
g54
(dp1444
g62
I4
ssg63
g1438
sg56
(lp1445
S'<socket._fileobject object at 0x8d930b0>'
p1446
asbasbasbag49
(g65
g51
NtRp1447
(dp1448
g54
(dp1449
sg63
g588
sg56
(lp1450
g49
(g70
g51
NtRp1451
(dp1452
g54
(dp1453
g74
g75
ssg63
g1447
sg56
(lp1454
S'wsgi_multiprocess'
p1455
asbag49
(g70
g51
NtRp1456
(dp1457
g54
(dp1458
g81
g82
ssg63
g1447
sg56
(lp1459
S':'
asbag49
(g70
g51
NtRp1460
(dp1461
g54
(dp1462
sg63
g1447
sg56
(lp1463
g49
(g50
g51
NtRp1464
(dp1465
g54
(dp1466
g62
I4
ssg63
g1460
sg56
(lp1467
g92
asbasbasbag49
(g65
g51
NtRp1468
(dp1469
g54
(dp1470
sg63
g588
sg56
(lp1471
g49
(g70
g51
NtRp1472
(dp1473
g54
(dp1474
g74
g75
ssg63
g1468
sg56
(lp1475
S'wsgi_multithread'
p1476
asbag49
(g70
g51
NtRp1477
(dp1478
g54
(dp1479
g81
g82
ssg63
g1468
sg56
(lp1480
S':'
asbag49
(g70
g51
NtRp1481
(dp1482
g54
(dp1483
sg63
g1468
sg56
(lp1484
g49
(g50
g51
NtRp1485
(dp1486
g54
(dp1487
g62
I4
ssg63
g1481
sg56
(lp1488
S'True'
p1489
asbasbasbag49
(g65
g51
NtRp1490
(dp1491
g54
(dp1492
sg63
g588
sg56
(lp1493
g49
(g70
g51
NtRp1494
(dp1495
g54
(dp1496
g74
g75
ssg63
g1490
sg56
(lp1497
S'wsgi_run_once'
p1498
asbag49
(g70
g51
NtRp1499
(dp1500
g54
(dp1501
g81
g82
ssg63
g1490
sg56
(lp1502
S':'
asbag49
(g70
g51
NtRp1503
(dp1504
g54
(dp1505
sg63
g1490
sg56
(lp1506
g49
(g50
g51
NtRp1507
(dp1508
g54
(dp1509
g62
I4
ssg63
g1503
sg56
(lp1510
g92
asbasbasbag49
(g65
g51
NtRp1511
(dp1512
g54
(dp1513
sg63
g588
sg56
(lp1514
g49
(g70
g51
NtRp1515
(dp1516
g54
(dp1517
g74
g75
ssg63
g1511
sg56
(lp1518
S'wsgi_url_scheme'
p1519
asbag49
(g70
g51
NtRp1520
(dp1521
g54
(dp1522
g81
g82
ssg63
g1511
sg56
(lp1523
S':'
asbag49
(g70
g51
NtRp1524
(dp1525
g54
(dp1526
sg63
g1511
sg56
(lp1527
g49
(g50
g51
NtRp1528
(dp1529
g54
(dp1530
g62
I4
ssg63
g1524
sg56
(lp1531
S'http'
p1532
asbasbasbag49
(g65
g51
NtRp1533
(dp1534
g54
(dp1535
sg63
g588
sg56
(lp1536
g49
(g70
g51
NtRp1537
(dp1538
g54
(dp1539
g74
g75
ssg63
g1533
sg56
(lp1540
S'wsgi_version'
p1541
asbag49
(g70
g51
NtRp1542
(dp1543
g54
(dp1544
g81
g82
ssg63
g1533
sg56
(lp1545
S':'
asbag49
(g70
g51
NtRp1546
(dp1547
g54
(dp1548
sg63
g1533
sg56
(lp1549
g49
(g50
g51
NtRp1550
(dp1551
g54
(dp1552
g62
I4
ssg63
g1546
sg56
(lp1553
g49
(g58
g51
NtRp1554
(dp1555
g54
(dp1556
g62
I3
ssg63
Nsg56
(lp1557
g49
(g65
g51
NtRp1558
(dp1559
g54
(dp1560
sg63
g1554
sg56
(lp1561
g49
(g70
g51
NtRp1562
(dp1563
g54
(dp1564
sg63
g1558
sg56
(lp1565
g49
(g50
g51
NtRp1566
(dp1567
g54
(dp1568
g62
I3
ssg63
g1562
sg56
(lp1569
S'1'
asbasbasbag49
(g65
g51
NtRp1570
(dp1571
g54
(dp1572
sg63
g1554
sg56
(lp1573
g49
(g70
g51
NtRp1574
(dp1575
g54
(dp1576
sg63
g1570
sg56
(lp1577
g49
(g50
g51
NtRp1578
(dp1579
g54
(dp1580
g62
I3
ssg63
g1574
sg56
(lp1581
S'0'
asbasbasbasbasbasbasbasbasbasbasbag49
(g65
g51
NtRp1582
(dp1583
g54
(dp1584
sg63
g59
sg56
(lp1585
g49
(g70
g51
NtRp1586
(dp1587
g54
(dp1588
g74
g75
ssg63
g1582
sg56
(lp1589
S'extension'
p1590
asbag49
(g70
g51
NtRp1591
(dp1592
g54
(dp1593
g81
g82
ssg63
g1582
sg56
(lp1594
S':'
asbag49
(g70
g51
NtRp1595
(dp1596
g54
(dp1597
sg63
g1582
sg56
(lp1598
g49
(g50
g51
NtRp1599
(dp1600
g54
(dp1601
g62
I5
ssg63
g1595
sg56
(lp1602
S'html'
p1603
asbasbasbag49
(g65
g51
NtRp1604
(dp1605
g54
(dp1606
sg63
g59
sg56
(lp1607
g49
(g70
g51
NtRp1608
(dp1609
g54
(dp1610
g74
g75
ssg63
g1604
sg56
(lp1611
S'folder'
p1612
asbag49
(g70
g51
NtRp1613
(dp1614
g54
(dp1615
g81
g82
ssg63
g1604
sg56
(lp1616
S':'
asbag49
(g70
g51
NtRp1617
(dp1618
g54
(dp1619
sg63
g1604
sg56
(lp1620
g49
(g50
g51
NtRp1621
(dp1622
g54
(dp1623
g62
I5
ssg63
g1617
sg56
(lp1624
S'/Users/udimilo/Documents/web2py/applications/udi0312/'
p1625
asbasbasbag49
(g65
g51
NtRp1626
(dp1627
g54
(dp1628
sg63
g59
sg56
(lp1629
g49
(g70
g51
NtRp1630
(dp1631
g54
(dp1632
g74
g75
ssg63
g1626
sg56
(lp1633
S'function'
p1634
asbag49
(g70
g51
NtRp1635
(dp1636
g54
(dp1637
g81
g82
ssg63
g1626
sg56
(lp1638
S':'
asbag49
(g70
g51
NtRp1639
(dp1640
g54
(dp1641
sg63
g1626
sg56
(lp1642
g49
(g50
g51
NtRp1643
(dp1644
g54
(dp1645
g62
I5
ssg63
g1639
sg56
(lp1646
S'test'
p1647
asbasbasbag49
(g65
g51
NtRp1648
(dp1649
g54
(dp1650
sg63
g59
sg56
(lp1651
g49
(g70
g51
NtRp1652
(dp1653
g54
(dp1654
g74
g75
ssg63
g1648
sg56
(lp1655
S'get_vars'
p1656
asbag49
(g70
g51
NtRp1657
(dp1658
g54
(dp1659
g81
g82
ssg63
g1648
sg56
(lp1660
S':'
asbag49
(g70
g51
NtRp1661
(dp1662
g54
(dp1663
sg63
g1648
sg56
(lp1664
g49
(g50
g51
NtRp1665
(dp1666
g54
(dp1667
g62
I5
ssg63
g1661
sg56
(lp1668
g49
(g58
g51
NtRp1669
(dp1670
g54
(dp1671
g62
I4
ssg63
Nsg56
(lp1672
g49
(g65
g51
NtRp1673
(dp1674
g54
(dp1675
sg63
g1669
sg56
(lp1676
g49
(g70
g51
NtRp1677
(dp1678
g54
(dp1679
g74
g75
ssg63
g1673
sg56
(lp1680
S'url'
p1681
asbag49
(g70
g51
NtRp1682
(dp1683
g54
(dp1684
g81
g82
ssg63
g1673
sg56
(lp1685
S':'
asbag49
(g70
g51
NtRp1686
(dp1687
g54
(dp1688
sg63
g1673
sg56
(lp1689
g49
(g50
g51
NtRp1690
(dp1691
g54
(dp1692
g62
I4
ssg63
g1686
sg56
(lp1693
S'http://feeds.feedburner.com/TechCrunch/startups'
p1694
asbasbasbasbasbasbasbag49
(g65
g51
NtRp1695
(dp1696
g54
(dp1697
sg63
g59
sg56
(lp1698
g49
(g70
g51
NtRp1699
(dp1700
g54
(dp1701
g74
g75
ssg63
g1695
sg56
(lp1702
S'global_settings'
p1703
asbag49
(g70
g51
NtRp1704
(dp1705
g54
(dp1706
g81
g82
ssg63
g1695
sg56
(lp1707
S':'
asbag49
(g70
g51
NtRp1708
(dp1709
g54
(dp1710
sg63
g1695
sg56
(lp1711
g49
(g50
g51
NtRp1712
(dp1713
g54
(dp1714
g62
I5
ssg63
g1708
sg56
(lp1715
g49
(g58
g51
NtRp1716
(dp1717
g54
(dp1718
g62
I4
ssg63
Nsg56
(lp1719
g49
(g65
g51
NtRp1720
(dp1721
g54
(dp1722
sg63
g1716
sg56
(lp1723
g49
(g70
g51
NtRp1724
(dp1725
g54
(dp1726
g74
g75
ssg63
g1720
sg56
(lp1727
g600
asbag49
(g70
g51
NtRp1728
(dp1729
g54
(dp1730
g81
g82
ssg63
g1720
sg56
(lp1731
S':'
asbag49
(g70
g51
NtRp1732
(dp1733
g54
(dp1734
sg63
g1720
sg56
(lp1735
g49
(g50
g51
NtRp1736
(dp1737
g54
(dp1738
g62
I4
ssg63
g1732
sg56
(lp1739
S"set(['/Users/udimilo/Documents/web2py/applications/udi0312/', '/Users/udimilo/Documents/web2py/applications/admin/'])"
p1740
asbasbasbag49
(g65
g51
NtRp1741
(dp1742
g54
(dp1743
sg63
g1716
sg56
(lp1744
g49
(g70
g51
NtRp1745
(dp1746
g54
(dp1747
g74
g75
ssg63
g1741
sg56
(lp1748
g622
asbag49
(g70
g51
NtRp1749
(dp1750
g54
(dp1751
g81
g82
ssg63
g1741
sg56
(lp1752
S':'
asbag49
(g70
g51
NtRp1753
(dp1754
g54
(dp1755
sg63
g1741
sg56
(lp1756
g49
(g50
g51
NtRp1757
(dp1758
g54
(dp1759
g62
I4
ssg63
g1753
sg56
(lp1760
g635
asbasbasbag49
(g65
g51
NtRp1761
(dp1762
g54
(dp1763
sg63
g1716
sg56
(lp1764
g49
(g70
g51
NtRp1765
(dp1766
g54
(dp1767
g74
g75
ssg63
g1761
sg56
(lp1768
g644
asbag49
(g70
g51
NtRp1769
(dp1770
g54
(dp1771
g81
g82
ssg63
g1761
sg56
(lp1772
S':'
asbag49
(g70
g51
NtRp1773
(dp1774
g54
(dp1775
sg63
g1761
sg56
(lp1776
g49
(g50
g51
NtRp1777
(dp1778
g54
(dp1779
g62
I4
ssg63
g1773
sg56
(lp1780
g49
(g58
g51
NtRp1781
(dp1782
g54
(dp1783
g62
I3
ssg63
Nsg56
(lp1784
sbasbasbasbag49
(g65
g51
NtRp1785
(dp1786
g54
(dp1787
sg63
g1716
sg56
(lp1788
g49
(g70
g51
NtRp1789
(dp1790
g54
(dp1791
g74
g75
ssg63
g1785
sg56
(lp1792
g669
asbag49
(g70
g51
NtRp1793
(dp1794
g54
(dp1795
g81
g82
ssg63
g1785
sg56
(lp1796
S':'
asbag49
(g70
g51
NtRp1797
(dp1798
g54
(dp1799
sg63
g1785
sg56
(lp1800
g49
(g50
g51
NtRp1801
(dp1802
g54
(dp1803
g62
I4
ssg63
g1797
sg56
(lp1804
S"<Values at 0x23301c0: {'verbose': False, 'ip': '127.0.0.1', 'shutdown_timeout': 5, 'taskbar': False, 'nocron': False, 'pid_filename': 'httpserver.pid', 'maxthreads': None, 'softcron': False, 'server_name': 'udi-milos-macbook-pro.fritz.box', 'bpython': False, 'nogui': False, 'port': 8000, 'extcron': False, 'debuglevel': 30, 'test': None, 'folder': '/Users/udimilo/Documents/web2py', 'config': '', 'import_models': False, 'winservice': '', 'shell': None, 'run': '', 'log_filename': 'httpserver.log', 'args': [''], 'socket_timeout': 5, 'ssl_ca_certificate': None, 'scheduler': None, 'profiler_filename': None, 'ssl_private_key': '', 'password': '<ask>', 'request_queue_size': 5, 'ssl_certificate': '', 'cronjob': False, 'numthreads': None, 'quiet': False, 'interfaces': None, 'minthreads': None, 'timeout': 10, 'plain': False, 'nobanner': False}>"
p1805
asbasbasbag49
(g65
g51
NtRp1806
(dp1807
g54
(dp1808
sg63
g1716
sg56
(lp1809
g49
(g70
g51
NtRp1810
(dp1811
g54
(dp1812
g74
g75
ssg63
g1806
sg56
(lp1813
g691
asbag49
(g70
g51
NtRp1814
(dp1815
g54
(dp1816
g81
g82
ssg63
g1806
sg56
(lp1817
S':'
asbag49
(g70
g51
NtRp1818
(dp1819
g54
(dp1820
sg63
g1806
sg56
(lp1821
g49
(g50
g51
NtRp1822
(dp1823
g54
(dp1824
g62
I4
ssg63
g1818
sg56
(lp1825
S'set([])'
p1826
asbasbasbag49
(g65
g51
NtRp1827
(dp1828
g54
(dp1829
sg63
g1716
sg56
(lp1830
g49
(g70
g51
NtRp1831
(dp1832
g54
(dp1833
g74
g75
ssg63
g1827
sg56
(lp1834
g713
asbag49
(g70
g51
NtRp1835
(dp1836
g54
(dp1837
g81
g82
ssg63
g1827
sg56
(lp1838
S':'
asbag49
(g70
g51
NtRp1839
(dp1840
g54
(dp1841
sg63
g1827
sg56
(lp1842
g49
(g50
g51
NtRp1843
(dp1844
g54
(dp1845
g62
I4
ssg63
g1839
sg56
(lp1846
g92
asbasbasbag49
(g65
g51
NtRp1847
(dp1848
g54
(dp1849
sg63
g1716
sg56
(lp1850
g49
(g70
g51
NtRp1851
(dp1852
g54
(dp1853
g74
g75
ssg63
g1847
sg56
(lp1854
g734
asbag49
(g70
g51
NtRp1855
(dp1856
g54
(dp1857
g81
g82
ssg63
g1847
sg56
(lp1858
S':'
asbag49
(g70
g51
NtRp1859
(dp1860
g54
(dp1861
sg63
g1847
sg56
(lp1862
g49
(g50
g51
NtRp1863
(dp1864
g54
(dp1865
g62
I4
ssg63
g1859
sg56
(lp1866
g747
asbasbasbag49
(g65
g51
NtRp1867
(dp1868
g54
(dp1869
sg63
g1716
sg56
(lp1870
g49
(g70
g51
NtRp1871
(dp1872
g54
(dp1873
g74
g75
ssg63
g1867
sg56
(lp1874
g954
asbag49
(g70
g51
NtRp1875
(dp1876
g54
(dp1877
g81
g82
ssg63
g1867
sg56
(lp1878
S':'
asbag49
(g70
g51
NtRp1879
(dp1880
g54
(dp1881
sg63
g1867
sg56
(lp1882
g49
(g50
g51
NtRp1883
(dp1884
g54
(dp1885
g62
I4
ssg63
g1879
sg56
(lp1886
g92
asbasbasbag49
(g65
g51
NtRp1887
(dp1888
g54
(dp1889
sg63
g1716
sg56
(lp1890
g49
(g70
g51
NtRp1891
(dp1892
g54
(dp1893
g74
g75
ssg63
g1887
sg56
(lp1894
g975
asbag49
(g70
g51
NtRp1895
(dp1896
g54
(dp1897
g81
g82
ssg63
g1887
sg56
(lp1898
S':'
asbag49
(g70
g51
NtRp1899
(dp1900
g54
(dp1901
sg63
g1887
sg56
(lp1902
g49
(g50
g51
NtRp1903
(dp1904
g54
(dp1905
g62
I4
ssg63
g1899
sg56
(lp1906
g92
asbasbasbag49
(g65
g51
NtRp1907
(dp1908
g54
(dp1909
sg63
g1716
sg56
(lp1910
g49
(g70
g51
NtRp1911
(dp1912
g54
(dp1913
g74
g75
ssg63
g1907
sg56
(lp1914
g1236
asbag49
(g70
g51
NtRp1915
(dp1916
g54
(dp1917
g81
g82
ssg63
g1907
sg56
(lp1918
S':'
asbag49
(g70
g51
NtRp1919
(dp1920
g54
(dp1921
sg63
g1907
sg56
(lp1922
g49
(g50
g51
NtRp1923
(dp1924
g54
(dp1925
g62
I4
ssg63
g1919
sg56
(lp1926
g1249
asbasbasbag49
(g65
g51
NtRp1927
(dp1928
g54
(dp1929
sg63
g1716
sg56
(lp1930
g49
(g70
g51
NtRp1931
(dp1932
g54
(dp1933
g74
g75
ssg63
g1927
sg56
(lp1934
g1301
asbag49
(g70
g51
NtRp1935
(dp1936
g54
(dp1937
g81
g82
ssg63
g1927
sg56
(lp1938
S':'
asbag49
(g70
g51
NtRp1939
(dp1940
g54
(dp1941
sg63
g1927
sg56
(lp1942
g49
(g50
g51
NtRp1943
(dp1944
g54
(dp1945
g62
I4
ssg63
g1939
sg56
(lp1946
g49
(g58
g51
NtRp1947
(dp1948
g54
(dp1949
g62
I3
ssg63
Nsg56
(lp1950
g49
(g65
g51
NtRp1951
(dp1952
g54
(dp1953
sg63
g1947
sg56
(lp1954
g49
(g70
g51
NtRp1955
(dp1956
g54
(dp1957
sg63
g1951
sg56
(lp1958
g49
(g50
g51
NtRp1959
(dp1960
g54
(dp1961
g62
I3
ssg63
g1955
sg56
(lp1962
S'1'
asbasbasbag49
(g65
g51
NtRp1963
(dp1964
g54
(dp1965
sg63
g1947
sg56
(lp1966
g49
(g70
g51
NtRp1967
(dp1968
g54
(dp1969
sg63
g1963
sg56
(lp1970
g49
(g50
g51
NtRp1971
(dp1972
g54
(dp1973
g62
I3
ssg63
g1967
sg56
(lp1974
S'99'
p1975
asbasbasbag49
(g65
g51
NtRp1976
(dp1977
g54
(dp1978
sg63
g1947
sg56
(lp1979
g49
(g70
g51
NtRp1980
(dp1981
g54
(dp1982
sg63
g1976
sg56
(lp1983
g49
(g50
g51
NtRp1984
(dp1985
g54
(dp1986
g62
I3
ssg63
g1980
sg56
(lp1987
S'7'
asbasbasbag49
(g65
g51
NtRp1988
(dp1989
g54
(dp1990
sg63
g1947
sg56
(lp1991
g49
(g70
g51
NtRp1992
(dp1993
g54
(dp1994
sg63
g1988
sg56
(lp1995
g49
(g50
g51
NtRp1996
(dp1997
g54
(dp1998
g62
I3
ssg63
g1992
sg56
(lp1999
S'datetime.datetime(2012, 3, 4, 22, 12, 8)'
p2000
asbasbasbag49
(g65
g51
NtRp2001
(dp2002
g54
(dp2003
sg63
g1947
sg56
(lp2004
g49
(g70
g51
NtRp2005
(dp2006
g54
(dp2007
sg63
g2001
sg56
(lp2008
g49
(g50
g51
NtRp2009
(dp2010
g54
(dp2011
g62
I3
ssg63
g2005
sg56
(lp2012
g1380
asbasbasbasbasbasbasbasbasbasbasbag49
(g65
g51
NtRp2013
(dp2014
g54
(dp2015
sg63
g59
sg56
(lp2016
g49
(g70
g51
NtRp2017
(dp2018
g54
(dp2019
g74
g75
ssg63
g2013
sg56
(lp2020
S'is_https'
p2021
asbag49
(g70
g51
NtRp2022
(dp2023
g54
(dp2024
g81
g82
ssg63
g2013
sg56
(lp2025
S':'
asbag49
(g70
g51
NtRp2026
(dp2027
g54
(dp2028
sg63
g2013
sg56
(lp2029
g49
(g50
g51
NtRp2030
(dp2031
g54
(dp2032
g62
I5
ssg63
g2026
sg56
(lp2033
g92
asbasbasbag49
(g65
g51
NtRp2034
(dp2035
g54
(dp2036
sg63
g59
sg56
(lp2037
g49
(g70
g51
NtRp2038
(dp2039
g54
(dp2040
g74
g75
ssg63
g2034
sg56
(lp2041
S'is_local'
p2042
asbag49
(g70
g51
NtRp2043
(dp2044
g54
(dp2045
g81
g82
ssg63
g2034
sg56
(lp2046
S':'
asbag49
(g70
g51
NtRp2047
(dp2048
g54
(dp2049
sg63
g2034
sg56
(lp2050
g49
(g50
g51
NtRp2051
(dp2052
g54
(dp2053
g62
I5
ssg63
g2047
sg56
(lp2054
g1489
asbasbasbag49
(g65
g51
NtRp2055
(dp2056
g54
(dp2057
sg63
g59
sg56
(lp2058
g49
(g70
g51
NtRp2059
(dp2060
g54
(dp2061
g74
g75
ssg63
g2055
sg56
(lp2062
S'is_restful'
p2063
asbag49
(g70
g51
NtRp2064
(dp2065
g54
(dp2066
g81
g82
ssg63
g2055
sg56
(lp2067
S':'
asbag49
(g70
g51
NtRp2068
(dp2069
g54
(dp2070
sg63
g2055
sg56
(lp2071
g49
(g50
g51
NtRp2072
(dp2073
g54
(dp2074
g62
I5
ssg63
g2068
sg56
(lp2075
g92
asbasbasbag49
(g65
g51
NtRp2076
(dp2077
g54
(dp2078
sg63
g59
sg56
(lp2079
g49
(g70
g51
NtRp2080
(dp2081
g54
(dp2082
g74
g75
ssg63
g2076
sg56
(lp2083
S'now'
p2084
asbag49
(g70
g51
NtRp2085
(dp2086
g54
(dp2087
g81
g82
ssg63
g2076
sg56
(lp2088
S':'
asbag49
(g70
g51
NtRp2089
(dp2090
g54
(dp2091
sg63
g2076
sg56
(lp2092
g49
(g50
g51
NtRp2093
(dp2094
g54
(dp2095
g62
I5
ssg63
g2089
sg56
(lp2096
S'datetime.datetime(2012, 3, 15, 18, 8, 53, 315273)'
p2097
asbasbasbag49
(g65
g51
NtRp2098
(dp2099
g54
(dp2100
sg63
g59
sg56
(lp2101
g49
(g70
g51
NtRp2102
(dp2103
g54
(dp2104
g74
g75
ssg63
g2098
sg56
(lp2105
S'post_vars'
p2106
asbag49
(g70
g51
NtRp2107
(dp2108
g54
(dp2109
g81
g82
ssg63
g2098
sg56
(lp2110
S':'
asbag49
(g70
g51
NtRp2111
(dp2112
g54
(dp2113
sg63
g2098
sg56
(lp2114
g49
(g50
g51
NtRp2115
(dp2116
g54
(dp2117
g62
I5
ssg63
g2111
sg56
(lp2118
g49
(g58
g51
NtRp2119
(dp2120
g54
(dp2121
g62
I4
ssg63
Nsg56
(lp2122
sbasbasbasbag49
(g65
g51
NtRp2123
(dp2124
g54
(dp2125
sg63
g59
sg56
(lp2126
g49
(g70
g51
NtRp2127
(dp2128
g54
(dp2129
g74
g75
ssg63
g2123
sg56
(lp2130
S'url'
p2131
asbag49
(g70
g51
NtRp2132
(dp2133
g54
(dp2134
g81
g82
ssg63
g2123
sg56
(lp2135
S':'
asbag49
(g70
g51
NtRp2136
(dp2137
g54
(dp2138
sg63
g2123
sg56
(lp2139
g49
(g50
g51
NtRp2140
(dp2141
g54
(dp2142
g62
I5
ssg63
g2136
sg56
(lp2143
S'/test'
p2144
asbasbasbag49
(g65
g51
NtRp2145
(dp2146
g54
(dp2147
sg63
g59
sg56
(lp2148
g49
(g70
g51
NtRp2149
(dp2150
g54
(dp2151
g74
g75
ssg63
g2145
sg56
(lp2152
S'utcnow'
p2153
asbag49
(g70
g51
NtRp2154
(dp2155
g54
(dp2156
g81
g82
ssg63
g2145
sg56
(lp2157
S':'
asbag49
(g70
g51
NtRp2158
(dp2159
g54
(dp2160
sg63
g2145
sg56
(lp2161
g49
(g50
g51
NtRp2162
(dp2163
g54
(dp2164
g62
I5
ssg63
g2158
sg56
(lp2165
S'datetime.datetime(2012, 3, 15, 22, 8, 53, 315288)'
p2166
asbasbasbag49
(g65
g51
NtRp2167
(dp2168
g54
(dp2169
sg63
g59
sg56
(lp2170
g49
(g70
g51
NtRp2171
(dp2172
g54
(dp2173
g74
g75
ssg63
g2167
sg56
(lp2174
S'uuid'
p2175
asbag49
(g70
g51
NtRp2176
(dp2177
g54
(dp2178
g81
g82
ssg63
g2167
sg56
(lp2179
S':'
asbag49
(g70
g51
NtRp2180
(dp2181
g54
(dp2182
sg63
g2167
sg56
(lp2183
g49
(g50
g51
NtRp2184
(dp2185
g54
(dp2186
g62
I5
ssg63
g2180
sg56
(lp2187
S'udi0312/127.0.0.1.2012-03-15.18-08-53.15a3db88-3a5c-46b7-881c-e73f35b06b29'
p2188
asbasbasbag49
(g65
g51
NtRp2189
(dp2190
g54
(dp2191
sg63
g59
sg56
(lp2192
g49
(g70
g51
NtRp2193
(dp2194
g54
(dp2195
g74
g75
ssg63
g2189
sg56
(lp2196
S'vars'
p2197
asbag49
(g70
g51
NtRp2198
(dp2199
g54
(dp2200
g81
g82
ssg63
g2189
sg56
(lp2201
S':'
asbag49
(g70
g51
NtRp2202
(dp2203
g54
(dp2204
sg63
g2189
sg56
(lp2205
g49
(g50
g51
NtRp2206
(dp2207
g54
(dp2208
g62
I5
ssg63
g2202
sg56
(lp2209
g49
(g58
g51
NtRp2210
(dp2211
g54
(dp2212
g62
I4
ssg63
Nsg56
(lp2213
g49
(g65
g51
NtRp2214
(dp2215
g54
(dp2216
sg63
g2210
sg56
(lp2217
g49
(g70
g51
NtRp2218
(dp2219
g54
(dp2220
g74
g75
ssg63
g2214
sg56
(lp2221
g1681
asbag49
(g70
g51
NtRp2222
(dp2223
g54
(dp2224
g81
g82
ssg63
g2214
sg56
(lp2225
S':'
asbag49
(g70
g51
NtRp2226
(dp2227
g54
(dp2228
sg63
g2214
sg56
(lp2229
g49
(g50
g51
NtRp2230
(dp2231
g54
(dp2232
g62
I4
ssg63
g2226
sg56
(lp2233
g1694
asbasbasbasbasbasbasbag49
(g65
g51
NtRp2234
(dp2235
g54
(dp2236
sg63
g59
sg56
(lp2237
g49
(g70
g51
NtRp2238
(dp2239
g54
(dp2240
g74
g75
ssg63
g2234
sg56
(lp2241
S'wsgi'
p2242
asbag49
(g70
g51
NtRp2243
(dp2244
g54
(dp2245
g81
g82
ssg63
g2234
sg56
(lp2246
S':'
asbag49
(g70
g51
NtRp2247
(dp2248
g54
(dp2249
sg63
g2234
sg56
(lp2250
g49
(g50
g51
NtRp2251
(dp2252
g54
(dp2253
g62
I5
ssg63
g2247
sg56
(lp2254
g49
(g58
g51
NtRp2255
(dp2256
g54
(dp2257
g62
I4
ssg63
Nsg56
(lp2258
g49
(g65
g51
NtRp2259
(dp2260
g54
(dp2261
sg63
g2255
sg56
(lp2262
g49
(g70
g51
NtRp2263
(dp2264
g54
(dp2265
g74
g75
ssg63
g2259
sg56
(lp2266
S'environ'
p2267
asbag49
(g70
g51
NtRp2268
(dp2269
g54
(dp2270
g81
g82
ssg63
g2259
sg56
(lp2271
S':'
asbag49
(g70
g51
NtRp2272
(dp2273
g54
(dp2274
sg63
g2259
sg56
(lp2275
g49
(g50
g51
NtRp2276
(dp2277
g54
(dp2278
g62
I4
ssg63
g2272
sg56
(lp2279
g49
(g58
g51
NtRp2280
(dp2281
g54
(dp2282
g62
I3
ssg63
Nsg56
(lp2283
g49
(g65
g51
NtRp2284
(dp2285
g54
(dp2286
sg63
g2280
sg56
(lp2287
g49
(g70
g51
NtRp2288
(dp2289
g54
(dp2290
g74
g75
ssg63
g2284
sg56
(lp2291
S'HTTP_ACCEPT'
p2292
asbag49
(g70
g51
NtRp2293
(dp2294
g54
(dp2295
g81
g82
ssg63
g2284
sg56
(lp2296
S':'
asbag49
(g70
g51
NtRp2297
(dp2298
g54
(dp2299
sg63
g2284
sg56
(lp2300
g49
(g50
g51
NtRp2301
(dp2302
g54
(dp2303
g62
I3
ssg63
g2297
sg56
(lp2304
g769
asbasbasbag49
(g65
g51
NtRp2305
(dp2306
g54
(dp2307
sg63
g2280
sg56
(lp2308
g49
(g70
g51
NtRp2309
(dp2310
g54
(dp2311
g74
g75
ssg63
g2305
sg56
(lp2312
S'HTTP_ACCEPT_CHARSET'
p2313
asbag49
(g70
g51
NtRp2314
(dp2315
g54
(dp2316
g81
g82
ssg63
g2305
sg56
(lp2317
S':'
asbag49
(g70
g51
NtRp2318
(dp2319
g54
(dp2320
sg63
g2305
sg56
(lp2321
g49
(g50
g51
NtRp2322
(dp2323
g54
(dp2324
g62
I3
ssg63
g2318
sg56
(lp2325
g791
asbasbasbag49
(g65
g51
NtRp2326
(dp2327
g54
(dp2328
sg63
g2280
sg56
(lp2329
g49
(g70
g51
NtRp2330
(dp2331
g54
(dp2332
g74
g75
ssg63
g2326
sg56
(lp2333
S'HTTP_ACCEPT_ENCODING'
p2334
asbag49
(g70
g51
NtRp2335
(dp2336
g54
(dp2337
g81
g82
ssg63
g2326
sg56
(lp2338
S':'
asbag49
(g70
g51
NtRp2339
(dp2340
g54
(dp2341
sg63
g2326
sg56
(lp2342
g49
(g50
g51
NtRp2343
(dp2344
g54
(dp2345
g62
I3
ssg63
g2339
sg56
(lp2346
g813
asbasbasbag49
(g65
g51
NtRp2347
(dp2348
g54
(dp2349
sg63
g2280
sg56
(lp2350
g49
(g70
g51
NtRp2351
(dp2352
g54
(dp2353
g74
g75
ssg63
g2347
sg56
(lp2354
S'HTTP_ACCEPT_LANGUAGE'
p2355
asbag49
(g70
g51
NtRp2356
(dp2357
g54
(dp2358
g81
g82
ssg63
g2347
sg56
(lp2359
S':'
asbag49
(g70
g51
NtRp2360
(dp2361
g54
(dp2362
sg63
g2347
sg56
(lp2363
g49
(g50
g51
NtRp2364
(dp2365
g54
(dp2366
g62
I3
ssg63
g2360
sg56
(lp2367
g835
asbasbasbag49
(g65
g51
NtRp2368
(dp2369
g54
(dp2370
sg63
g2280
sg56
(lp2371
g49
(g70
g51
NtRp2372
(dp2373
g54
(dp2374
g74
g75
ssg63
g2368
sg56
(lp2375
S'HTTP_CACHE_CONTROL'
p2376
asbag49
(g70
g51
NtRp2377
(dp2378
g54
(dp2379
g81
g82
ssg63
g2368
sg56
(lp2380
S':'
asbag49
(g70
g51
NtRp2381
(dp2382
g54
(dp2383
sg63
g2368
sg56
(lp2384
g49
(g50
g51
NtRp2385
(dp2386
g54
(dp2387
g62
I3
ssg63
g2381
sg56
(lp2388
g857
asbasbasbag49
(g65
g51
NtRp2389
(dp2390
g54
(dp2391
sg63
g2280
sg56
(lp2392
g49
(g70
g51
NtRp2393
(dp2394
g54
(dp2395
g74
g75
ssg63
g2389
sg56
(lp2396
S'HTTP_CONNECTION'
p2397
asbag49
(g70
g51
NtRp2398
(dp2399
g54
(dp2400
g81
g82
ssg63
g2389
sg56
(lp2401
S':'
asbag49
(g70
g51
NtRp2402
(dp2403
g54
(dp2404
sg63
g2389
sg56
(lp2405
g49
(g50
g51
NtRp2406
(dp2407
g54
(dp2408
g62
I3
ssg63
g2402
sg56
(lp2409
g879
asbasbasbag49
(g65
g51
NtRp2410
(dp2411
g54
(dp2412
sg63
g2280
sg56
(lp2413
g49
(g70
g51
NtRp2414
(dp2415
g54
(dp2416
g74
g75
ssg63
g2410
sg56
(lp2417
S'HTTP_COOKIE'
p2418
asbag49
(g70
g51
NtRp2419
(dp2420
g54
(dp2421
g81
g82
ssg63
g2410
sg56
(lp2422
S':'
asbag49
(g70
g51
NtRp2423
(dp2424
g54
(dp2425
sg63
g2410
sg56
(lp2426
g49
(g50
g51
NtRp2427
(dp2428
g54
(dp2429
g62
I3
ssg63
g2423
sg56
(lp2430
g901
asbasbasbag49
(g65
g51
NtRp2431
(dp2432
g54
(dp2433
sg63
g2280
sg56
(lp2434
g49
(g70
g51
NtRp2435
(dp2436
g54
(dp2437
g74
g75
ssg63
g2431
sg56
(lp2438
S'HTTP_HOST'
p2439
asbag49
(g70
g51
NtRp2440
(dp2441
g54
(dp2442
g81
g82
ssg63
g2431
sg56
(lp2443
S':'
asbag49
(g70
g51
NtRp2444
(dp2445
g54
(dp2446
sg63
g2431
sg56
(lp2447
g49
(g50
g51
NtRp2448
(dp2449
g54
(dp2450
g62
I3
ssg63
g2444
sg56
(lp2451
g923
asbasbasbag49
(g65
g51
NtRp2452
(dp2453
g54
(dp2454
sg63
g2280
sg56
(lp2455
g49
(g70
g51
NtRp2456
(dp2457
g54
(dp2458
g74
g75
ssg63
g2452
sg56
(lp2459
S'HTTP_USER_AGENT'
p2460
asbag49
(g70
g51
NtRp2461
(dp2462
g54
(dp2463
g81
g82
ssg63
g2452
sg56
(lp2464
S':'
asbag49
(g70
g51
NtRp2465
(dp2466
g54
(dp2467
sg63
g2452
sg56
(lp2468
g49
(g50
g51
NtRp2469
(dp2470
g54
(dp2471
g62
I3
ssg63
g2465
sg56
(lp2472
g945
asbasbasbag49
(g65
g51
NtRp2473
(dp2474
g54
(dp2475
sg63
g2280
sg56
(lp2476
g49
(g70
g51
NtRp2477
(dp2478
g54
(dp2479
g74
g75
ssg63
g2473
sg56
(lp2480
S'PATH_INFO'
p2481
asbag49
(g70
g51
NtRp2482
(dp2483
g54
(dp2484
g81
g82
ssg63
g2473
sg56
(lp2485
S':'
asbag49
(g70
g51
NtRp2486
(dp2487
g54
(dp2488
sg63
g2473
sg56
(lp2489
g49
(g50
g51
NtRp2490
(dp2491
g54
(dp2492
g62
I3
ssg63
g2486
sg56
(lp2493
g1009
asbasbasbag49
(g65
g51
NtRp2494
(dp2495
g54
(dp2496
sg63
g2280
sg56
(lp2497
g49
(g70
g51
NtRp2498
(dp2499
g54
(dp2500
g74
g75
ssg63
g2494
sg56
(lp2501
S'QUERY_STRING'
p2502
asbag49
(g70
g51
NtRp2503
(dp2504
g54
(dp2505
g81
g82
ssg63
g2494
sg56
(lp2506
S':'
asbag49
(g70
g51
NtRp2507
(dp2508
g54
(dp2509
sg63
g2494
sg56
(lp2510
g49
(g50
g51
NtRp2511
(dp2512
g54
(dp2513
g62
I3
ssg63
g2507
sg56
(lp2514
g1031
asbasbasbag49
(g65
g51
NtRp2515
(dp2516
g54
(dp2517
sg63
g2280
sg56
(lp2518
g49
(g70
g51
NtRp2519
(dp2520
g54
(dp2521
g74
g75
ssg63
g2515
sg56
(lp2522
S'REMOTE_ADDR'
p2523
asbag49
(g70
g51
NtRp2524
(dp2525
g54
(dp2526
g81
g82
ssg63
g2515
sg56
(lp2527
S':'
asbag49
(g70
g51
NtRp2528
(dp2529
g54
(dp2530
sg63
g2515
sg56
(lp2531
g49
(g50
g51
NtRp2532
(dp2533
g54
(dp2534
g62
I3
ssg63
g2528
sg56
(lp2535
g182
asbasbasbag49
(g65
g51
NtRp2536
(dp2537
g54
(dp2538
sg63
g2280
sg56
(lp2539
g49
(g70
g51
NtRp2540
(dp2541
g54
(dp2542
g74
g75
ssg63
g2536
sg56
(lp2543
S'REMOTE_PORT'
p2544
asbag49
(g70
g51
NtRp2545
(dp2546
g54
(dp2547
g81
g82
ssg63
g2536
sg56
(lp2548
S':'
asbag49
(g70
g51
NtRp2549
(dp2550
g54
(dp2551
sg63
g2536
sg56
(lp2552
g49
(g50
g51
NtRp2553
(dp2554
g54
(dp2555
g62
I3
ssg63
g2549
sg56
(lp2556
g1074
asbasbasbag49
(g65
g51
NtRp2557
(dp2558
g54
(dp2559
sg63
g2280
sg56
(lp2560
g49
(g70
g51
NtRp2561
(dp2562
g54
(dp2563
g74
g75
ssg63
g2557
sg56
(lp2564
S'REQUEST_METHOD'
p2565
asbag49
(g70
g51
NtRp2566
(dp2567
g54
(dp2568
g81
g82
ssg63
g2557
sg56
(lp2569
S':'
asbag49
(g70
g51
NtRp2570
(dp2571
g54
(dp2572
sg63
g2557
sg56
(lp2573
g49
(g50
g51
NtRp2574
(dp2575
g54
(dp2576
g62
I3
ssg63
g2570
sg56
(lp2577
g1096
asbasbasbag49
(g65
g51
NtRp2578
(dp2579
g54
(dp2580
sg63
g2280
sg56
(lp2581
g49
(g70
g51
NtRp2582
(dp2583
g54
(dp2584
g74
g75
ssg63
g2578
sg56
(lp2585
S'REQUEST_URI'
p2586
asbag49
(g70
g51
NtRp2587
(dp2588
g54
(dp2589
g81
g82
ssg63
g2578
sg56
(lp2590
S':'
asbag49
(g70
g51
NtRp2591
(dp2592
g54
(dp2593
sg63
g2578
sg56
(lp2594
g49
(g50
g51
NtRp2595
(dp2596
g54
(dp2597
g62
I3
ssg63
g2591
sg56
(lp2598
g1118
asbasbasbag49
(g65
g51
NtRp2599
(dp2600
g54
(dp2601
sg63
g2280
sg56
(lp2602
g49
(g70
g51
NtRp2603
(dp2604
g54
(dp2605
g74
g75
ssg63
g2599
sg56
(lp2606
S'SCRIPT_NAME'
p2607
asbag49
(g70
g51
NtRp2608
(dp2609
g54
(dp2610
g81
g82
ssg63
g2599
sg56
(lp2611
S':'
asbag49
(g70
g51
NtRp2612
(dp2613
g54
(dp2614
sg63
g2599
sg56
(lp2615
g49
(g50
g51
NtRp2616
(dp2617
g54
(dp2618
g62
I3
ssg63
g2612
sg56
(lp2619
S''
asbasbasbag49
(g65
g51
NtRp2620
(dp2621
g54
(dp2622
sg63
g2280
sg56
(lp2623
g49
(g70
g51
NtRp2624
(dp2625
g54
(dp2626
g74
g75
ssg63
g2620
sg56
(lp2627
S'SERVER_NAME'
p2628
asbag49
(g70
g51
NtRp2629
(dp2630
g54
(dp2631
g81
g82
ssg63
g2620
sg56
(lp2632
S':'
asbag49
(g70
g51
NtRp2633
(dp2634
g54
(dp2635
sg63
g2620
sg56
(lp2636
g49
(g50
g51
NtRp2637
(dp2638
g54
(dp2639
g62
I3
ssg63
g2633
sg56
(lp2640
g1161
asbasbasbag49
(g65
g51
NtRp2641
(dp2642
g54
(dp2643
sg63
g2280
sg56
(lp2644
g49
(g70
g51
NtRp2645
(dp2646
g54
(dp2647
g74
g75
ssg63
g2641
sg56
(lp2648
S'SERVER_PORT'
p2649
asbag49
(g70
g51
NtRp2650
(dp2651
g54
(dp2652
g81
g82
ssg63
g2641
sg56
(lp2653
S':'
asbag49
(g70
g51
NtRp2654
(dp2655
g54
(dp2656
sg63
g2641
sg56
(lp2657
g49
(g50
g51
NtRp2658
(dp2659
g54
(dp2660
g62
I3
ssg63
g2654
sg56
(lp2661
g1183
asbasbasbag49
(g65
g51
NtRp2662
(dp2663
g54
(dp2664
sg63
g2280
sg56
(lp2665
g49
(g70
g51
NtRp2666
(dp2667
g54
(dp2668
g74
g75
ssg63
g2662
sg56
(lp2669
S'SERVER_PROTOCOL'
p2670
asbag49
(g70
g51
NtRp2671
(dp2672
g54
(dp2673
g81
g82
ssg63
g2662
sg56
(lp2674
S':'
asbag49
(g70
g51
NtRp2675
(dp2676
g54
(dp2677
sg63
g2662
sg56
(lp2678
g49
(g50
g51
NtRp2679
(dp2680
g54
(dp2681
g62
I3
ssg63
g2675
sg56
(lp2682
g1205
asbasbasbag49
(g65
g51
NtRp2683
(dp2684
g54
(dp2685
sg63
g2280
sg56
(lp2686
g49
(g70
g51
NtRp2687
(dp2688
g54
(dp2689
g74
g75
ssg63
g2683
sg56
(lp2690
S'SERVER_SOFTWARE'
p2691
asbag49
(g70
g51
NtRp2692
(dp2693
g54
(dp2694
g81
g82
ssg63
g2683
sg56
(lp2695
S':'
asbag49
(g70
g51
NtRp2696
(dp2697
g54
(dp2698
sg63
g2683
sg56
(lp2699
g49
(g50
g51
NtRp2700
(dp2701
g54
(dp2702
g62
I3
ssg63
g2696
sg56
(lp2703
g1227
asbasbasbag49
(g65
g51
NtRp2704
(dp2705
g54
(dp2706
sg63
g2280
sg56
(lp2707
g49
(g70
g51
NtRp2708
(dp2709
g54
(dp2710
g74
g75
ssg63
g2704
sg56
(lp2711
S'WEB2PY_ORIGINAL_URI'
p2712
asbag49
(g70
g51
NtRp2713
(dp2714
g54
(dp2715
g81
g82
ssg63
g2704
sg56
(lp2716
S':'
asbag49
(g70
g51
NtRp2717
(dp2718
g54
(dp2719
sg63
g2704
sg56
(lp2720
g49
(g50
g51
NtRp2721
(dp2722
g54
(dp2723
g62
I3
ssg63
g2717
sg56
(lp2724
g1271
asbasbasbag49
(g65
g51
NtRp2725
(dp2726
g54
(dp2727
sg63
g2280
sg56
(lp2728
g49
(g70
g51
NtRp2729
(dp2730
g54
(dp2731
g74
g75
ssg63
g2725
sg56
(lp2732
S'wsgi.errors'
p2733
asbag49
(g70
g51
NtRp2734
(dp2735
g54
(dp2736
g81
g82
ssg63
g2725
sg56
(lp2737
S':'
asbag49
(g70
g51
NtRp2738
(dp2739
g54
(dp2740
sg63
g2725
sg56
(lp2741
g49
(g50
g51
NtRp2742
(dp2743
g54
(dp2744
g62
I3
ssg63
g2738
sg56
(lp2745
S"<open file '<stderr>', mode 'w' at 0x4220b0>"
p2746
asbasbasbag49
(g65
g51
NtRp2747
(dp2748
g54
(dp2749
sg63
g2280
sg56
(lp2750
g49
(g70
g51
NtRp2751
(dp2752
g54
(dp2753
g74
g75
ssg63
g2747
sg56
(lp2754
S'wsgi.file_wrapper'
p2755
asbag49
(g70
g51
NtRp2756
(dp2757
g54
(dp2758
g81
g82
ssg63
g2747
sg56
(lp2759
S':'
asbag49
(g70
g51
NtRp2760
(dp2761
g54
(dp2762
sg63
g2747
sg56
(lp2763
g49
(g50
g51
NtRp2764
(dp2765
g54
(dp2766
g62
I3
ssg63
g2760
sg56
(lp2767
S'<class wsgiref.util.FileWrapper at 0x22746c0>'
p2768
asbasbasbag49
(g65
g51
NtRp2769
(dp2770
g54
(dp2771
sg63
g2280
sg56
(lp2772
g49
(g70
g51
NtRp2773
(dp2774
g54
(dp2775
g74
g75
ssg63
g2769
sg56
(lp2776
S'wsgi.input'
p2777
asbag49
(g70
g51
NtRp2778
(dp2779
g54
(dp2780
g81
g82
ssg63
g2769
sg56
(lp2781
S':'
asbag49
(g70
g51
NtRp2782
(dp2783
g54
(dp2784
sg63
g2769
sg56
(lp2785
g49
(g50
g51
NtRp2786
(dp2787
g54
(dp2788
g62
I3
ssg63
g2782
sg56
(lp2789
S'<cStringIO.StringO object at 0xa76ce80>'
p2790
asbasbasbag49
(g65
g51
NtRp2791
(dp2792
g54
(dp2793
sg63
g2280
sg56
(lp2794
g49
(g70
g51
NtRp2795
(dp2796
g54
(dp2797
g74
g75
ssg63
g2791
sg56
(lp2798
S'wsgi.multiprocess'
p2799
asbag49
(g70
g51
NtRp2800
(dp2801
g54
(dp2802
g81
g82
ssg63
g2791
sg56
(lp2803
S':'
asbag49
(g70
g51
NtRp2804
(dp2805
g54
(dp2806
sg63
g2791
sg56
(lp2807
g49
(g50
g51
NtRp2808
(dp2809
g54
(dp2810
g62
I3
ssg63
g2804
sg56
(lp2811
g92
asbasbasbag49
(g65
g51
NtRp2812
(dp2813
g54
(dp2814
sg63
g2280
sg56
(lp2815
g49
(g70
g51
NtRp2816
(dp2817
g54
(dp2818
g74
g75
ssg63
g2812
sg56
(lp2819
S'wsgi.multithread'
p2820
asbag49
(g70
g51
NtRp2821
(dp2822
g54
(dp2823
g81
g82
ssg63
g2812
sg56
(lp2824
S':'
asbag49
(g70
g51
NtRp2825
(dp2826
g54
(dp2827
sg63
g2812
sg56
(lp2828
g49
(g50
g51
NtRp2829
(dp2830
g54
(dp2831
g62
I3
ssg63
g2825
sg56
(lp2832
g1489
asbasbasbag49
(g65
g51
NtRp2833
(dp2834
g54
(dp2835
sg63
g2280
sg56
(lp2836
g49
(g70
g51
NtRp2837
(dp2838
g54
(dp2839
g74
g75
ssg63
g2833
sg56
(lp2840
S'wsgi.run_once'
p2841
asbag49
(g70
g51
NtRp2842
(dp2843
g54
(dp2844
g81
g82
ssg63
g2833
sg56
(lp2845
S':'
asbag49
(g70
g51
NtRp2846
(dp2847
g54
(dp2848
sg63
g2833
sg56
(lp2849
g49
(g50
g51
NtRp2850
(dp2851
g54
(dp2852
g62
I3
ssg63
g2846
sg56
(lp2853
g92
asbasbasbag49
(g65
g51
NtRp2854
(dp2855
g54
(dp2856
sg63
g2280
sg56
(lp2857
g49
(g70
g51
NtRp2858
(dp2859
g54
(dp2860
g74
g75
ssg63
g2854
sg56
(lp2861
S'wsgi.url_scheme'
p2862
asbag49
(g70
g51
NtRp2863
(dp2864
g54
(dp2865
g81
g82
ssg63
g2854
sg56
(lp2866
S':'
asbag49
(g70
g51
NtRp2867
(dp2868
g54
(dp2869
sg63
g2854
sg56
(lp2870
g49
(g50
g51
NtRp2871
(dp2872
g54
(dp2873
g62
I3
ssg63
g2867
sg56
(lp2874
g1532
asbasbasbag49
(g65
g51
NtRp2875
(dp2876
g54
(dp2877
sg63
g2280
sg56
(lp2878
g49
(g70
g51
NtRp2879
(dp2880
g54
(dp2881
g74
g75
ssg63
g2875
sg56
(lp2882
S'wsgi.version'
p2883
asbag49
(g70
g51
NtRp2884
(dp2885
g54
(dp2886
g81
g82
ssg63
g2875
sg56
(lp2887
S':'
asbag49
(g70
g51
NtRp2888
(dp2889
g54
(dp2890
sg63
g2875
sg56
(lp2891
g49
(g50
g51
NtRp2892
(dp2893
g54
(dp2894
g62
I3
ssg63
g2888
sg56
(lp2895
S'1'
asbasbasbasbasbasbasbasbasbasbasbasbasbsS'frames'
p2896
(lp2897
(dp2898
S'file'
p2899
S'/users/udimilo/Documents/web2py/gluon/restricted.py'
p2900
sS'dump'
p2901
(dp2902
S'environment'
p2903
S"{'A': <class 'gluon.html.A'>, 'Auth': <class 'gluon.tools.Auth'>, 'B': <class 'gluon.html.B'>, 'BEAUTIFY': <class 'gluon.html.BEAUTIFY'>, 'BODY': <class 'gluon.html.BODY'>, 'BR': <class 'gluon.html.BR'>, 'BUTTON': <class 'gluon.html.BUTTON'>, 'CAT': <class 'gluon.html.CAT'>, 'CENTER': <class 'gluon.html.CENTER'>, 'CLEANUP': <class 'gluon.validators.CLEANUP'>, ...}"
p2904
sS'ccode'
p2905
S'<code object <module> at 0xa37c218, file "/Users...cations/udi0312/controllers/default.py", line 11>'
p2906
ssS'lnum'
p2907
I205
sS'lines'
p2908
(dp2909
I200
S'    try:'
p2910
sI201
S'        if type(code) == types.CodeType:'
p2911
sI202
S'            ccode = code'
p2912
sI203
S'        else:'
p2913
sI204
S'            ccode = compile2(code,layer)'
p2914
sI205
S'        exec ccode in environment'
p2915
sI206
S'    except HTTP:'
p2916
sI207
S'        raise'
p2917
sI208
S'    except RestrictedError:'
p2918
sI209
S'        # do not encapsulate (obfuscate) the original RestrictedError'
p2919
ssS'call'
p2920
S"(code='# -*- coding: utf-8 -*-\\n# this file is released ...m=crud())\\n\\nresponse._vars=response._caller(test)\\n', environment={'A': <class 'gluon.html.A'>, 'Auth': <class 'gluon.tools.Auth'>, 'B': <class 'gluon.html.B'>, 'BEAUTIFY': <class 'gluon.html.BEAUTIFY'>, 'BODY': <class 'gluon.html.BODY'>, 'BR': <class 'gluon.html.BR'>, 'BUTTON': <class 'gluon.html.BUTTON'>, 'CAT': <class 'gluon.html.CAT'>, 'CENTER': <class 'gluon.html.CENTER'>, 'CLEANUP': <class 'gluon.validators.CLEANUP'>, ...}, layer='/Users/udimilo/Documents/web2py/applications/udi0312/controllers/default.py')"
p2921
sS'func'
p2922
S'restricted'
p2923
sa(dp2924
g2899
S'/Users/udimilo/Documents/web2py/applications/udi0312/controllers/default.py'
p2925
sg2901
(dp2926
sg2907
I162
sg2908
(dp2927
I160
S'    return dict(form=crud())'
p2928
sI151
S'    http://..../[app]/default/data/update/[table]/[id]'
p2929
sI152
S'    http://..../[app]/default/data/delete/[table]/[id]'
p2930
sI153
S'    http://..../[app]/default/data/select/[table]'
p2931
sI154
S'    http://..../[app]/default/data/search/[table]'
p2932
sI155
S'    but URLs must be signed, i.e. linked with'
p2933
sI156
S"      A('table',_href=URL('data/tables',user_signature=True))"
p2934
sI157
S'    or with the signed load operator'
p2935
sI158
S"      LOAD('default','data.load',args='tables',ajax=True,user_signature=True)"
p2936
sI159
S'    """'
p2937
ssg2920
S'()'
p2938
sg2922
S'<module>'
p2939
sa(dp2940
g2899
S'/users/udimilo/Documents/web2py/gluon/globals.py'
p2941
sg2901
(dp2942
S'self'
p2943
S'undefined'
p2944
sS'f'
S'<function test at 0xa603b70>'
p2945
ssg2907
I173
sg2908
(dp2946
I168
S'        self.menu = []             # used by the default view layout'
p2947
sI169
S'        self.files = []            # used by web2py_ajax.html'
p2948
sI170
S'        self.generic_patterns = [] # patterns to allow generic views'
p2949
sI171
S"        self.delimiters = ('{{','}}')"
p2950
sI172
S'        self._vars = None'
p2951
sI173
S'        self._caller = lambda f: f()'
p2952
sI174
S'        self._view_environment = None'
p2953
sI175
S'        self._custom_commit = None'
p2954
sI176
S'        self._custom_rollback = None'
p2955
sI177
S''
ssg2920
S'(f=<function test at 0xa603b70>)'
p2956
sg2922
S'<lambda>'
p2957
sa(dp2958
g2899
S'/Users/udimilo/Documents/web2py/applications/udi0312/controllers/default.py'
p2959
sg2901
(dp2960
S'url'
p2961
S"u'http://techcrunch.com/2012/03/15/boxcar-raises...preps-push-notifications-service-for-developers/'"
p2962
sS'urlparse.parse'
p2963
g2944
sS'domain'
p2964
g2944
sS').hostname'
p2965
g2944
sS'global urlparse'
p2966
S"<module 'urlparse' from '/Library/Frameworks/Pyt...amework/Versions/2.5/lib/python2.5/urlparse.pyc'>"
p2967
ssg2907
I92
sg2908
(dp2968
I96
S"            date=item.get('published'),"
p2969
sI87
S"    for item in feed['entries']:"
p2970
sI88
S"        url = item.get('feedburner_origlink')"
p2971
sI89
S'        if url is None:'
p2972
sI90
S"            url = item.get('link')"
p2973
sI91
S''
sI92
S'        domain = urlparse.parse(url).hostname'
p2974
sI93
S''
sI94
S"        date = item.get('updated')"
p2975
sI95
S'        if date is None:'
p2976
ssg2920
S'()'
p2977
sg2922
S'test'
p2978
sasS'pyver'
p2979
S'Python 2.5.4: /Library/Frameworks/Python.framework/Versions/2.5/Resources/Python.app/Contents/MacOS/Python'
p2980
sS'session'
p2981
g49
(g50
g51
NtRp2982
(dp2983
g54
(dp2984
sg56
(lp2985
g49
(g58
g51
NtRp2986
(dp2987
g54
(dp2988
g62
I5
ssg63
Nsg56
(lp2989
g49
(g65
g51
NtRp2990
(dp2991
g54
(dp2992
sg63
g2986
sg56
(lp2993
g49
(g70
g51
NtRp2994
(dp2995
g54
(dp2996
g74
g75
ssg63
g2990
sg56
(lp2997
S'auth'
p2998
asbag49
(g70
g51
NtRp2999
(dp3000
g54
(dp3001
g81
g82
ssg63
g2990
sg56
(lp3002
S':'
asbag49
(g70
g51
NtRp3003
(dp3004
g54
(dp3005
sg63
g2990
sg56
(lp3006
g49
(g50
g51
NtRp3007
(dp3008
g54
(dp3009
g62
I5
ssg63
g3003
sg56
(lp3010
g49
(g58
g51
NtRp3011
(dp3012
g54
(dp3013
g62
I4
ssg63
Nsg56
(lp3014
g49
(g65
g51
NtRp3015
(dp3016
g54
(dp3017
sg63
g3011
sg56
(lp3018
g49
(g70
g51
NtRp3019
(dp3020
g54
(dp3021
g74
g75
ssg63
g3015
sg56
(lp3022
S'expiration'
p3023
asbag49
(g70
g51
NtRp3024
(dp3025
g54
(dp3026
g81
g82
ssg63
g3015
sg56
(lp3027
S':'
asbag49
(g70
g51
NtRp3028
(dp3029
g54
(dp3030
sg63
g3015
sg56
(lp3031
g49
(g50
g51
NtRp3032
(dp3033
g54
(dp3034
g62
I4
ssg63
g3028
sg56
(lp3035
S'2592000'
p3036
asbasbasbag49
(g65
g51
NtRp3037
(dp3038
g54
(dp3039
sg63
g3011
sg56
(lp3040
g49
(g70
g51
NtRp3041
(dp3042
g54
(dp3043
g74
g75
ssg63
g3037
sg56
(lp3044
S'hmac_key'
p3045
asbag49
(g70
g51
NtRp3046
(dp3047
g54
(dp3048
g81
g82
ssg63
g3037
sg56
(lp3049
S':'
asbag49
(g70
g51
NtRp3050
(dp3051
g54
(dp3052
sg63
g3037
sg56
(lp3053
g49
(g50
g51
NtRp3054
(dp3055
g54
(dp3056
g62
I4
ssg63
g3050
sg56
(lp3057
S'e95fb5e0-f68d-430e-a660-5148e97bc5df'
p3058
asbasbasbag49
(g65
g51
NtRp3059
(dp3060
g54
(dp3061
sg63
g3011
sg56
(lp3062
g49
(g70
g51
NtRp3063
(dp3064
g54
(dp3065
g74
g75
ssg63
g3059
sg56
(lp3066
S'last_visit'
p3067
asbag49
(g70
g51
NtRp3068
(dp3069
g54
(dp3070
g81
g82
ssg63
g3059
sg56
(lp3071
S':'
asbag49
(g70
g51
NtRp3072
(dp3073
g54
(dp3074
sg63
g3059
sg56
(lp3075
g49
(g50
g51
NtRp3076
(dp3077
g54
(dp3078
g62
I4
ssg63
g3072
sg56
(lp3079
S'datetime.datetime(2012, 3, 8, 21, 10, 48, 287338)'
p3080
asbasbasbag49
(g65
g51
NtRp3081
(dp3082
g54
(dp3083
sg63
g3011
sg56
(lp3084
g49
(g70
g51
NtRp3085
(dp3086
g54
(dp3087
g74
g75
ssg63
g3081
sg56
(lp3088
S'remember'
p3089
asbag49
(g70
g51
NtRp3090
(dp3091
g54
(dp3092
g81
g82
ssg63
g3081
sg56
(lp3093
S':'
asbag49
(g70
g51
NtRp3094
(dp3095
g54
(dp3096
sg63
g3081
sg56
(lp3097
g49
(g50
g51
NtRp3098
(dp3099
g54
(dp3100
g62
I4
ssg63
g3094
sg56
(lp3101
g1489
asbasbasbag49
(g65
g51
NtRp3102
(dp3103
g54
(dp3104
sg63
g3011
sg56
(lp3105
g49
(g70
g51
NtRp3106
(dp3107
g54
(dp3108
g74
g75
ssg63
g3102
sg56
(lp3109
S'user'
p3110
asbag49
(g70
g51
NtRp3111
(dp3112
g54
(dp3113
g81
g82
ssg63
g3102
sg56
(lp3114
S':'
asbag49
(g70
g51
NtRp3115
(dp3116
g54
(dp3117
sg63
g3102
sg56
(lp3118
g49
(g50
g51
NtRp3119
(dp3120
g54
(dp3121
g62
I4
ssg63
g3115
sg56
(lp3122
g49
(g58
g51
NtRp3123
(dp3124
g54
(dp3125
g62
I3
ssg63
Nsg56
(lp3126
g49
(g65
g51
NtRp3127
(dp3128
g54
(dp3129
sg63
g3123
sg56
(lp3130
g49
(g70
g51
NtRp3131
(dp3132
g54
(dp3133
g74
g75
ssg63
g3127
sg56
(lp3134
S'email'
p3135
asbag49
(g70
g51
NtRp3136
(dp3137
g54
(dp3138
g81
g82
ssg63
g3127
sg56
(lp3139
S':'
asbag49
(g70
g51
NtRp3140
(dp3141
g54
(dp3142
sg63
g3127
sg56
(lp3143
g49
(g50
g51
NtRp3144
(dp3145
g54
(dp3146
g62
I3
ssg63
g3140
sg56
(lp3147
S'udimilo@gmail.com'
p3148
asbasbasbag49
(g65
g51
NtRp3149
(dp3150
g54
(dp3151
sg63
g3123
sg56
(lp3152
g49
(g70
g51
NtRp3153
(dp3154
g54
(dp3155
g74
g75
ssg63
g3149
sg56
(lp3156
S'first_name'
p3157
asbag49
(g70
g51
NtRp3158
(dp3159
g54
(dp3160
g81
g82
ssg63
g3149
sg56
(lp3161
S':'
asbag49
(g70
g51
NtRp3162
(dp3163
g54
(dp3164
sg63
g3149
sg56
(lp3165
g49
(g50
g51
NtRp3166
(dp3167
g54
(dp3168
g62
I3
ssg63
g3162
sg56
(lp3169
S'Udi'
p3170
asbasbasbag49
(g65
g51
NtRp3171
(dp3172
g54
(dp3173
sg63
g3123
sg56
(lp3174
g49
(g70
g51
NtRp3175
(dp3176
g54
(dp3177
g74
g75
ssg63
g3171
sg56
(lp3178
S'id'
p3179
asbag49
(g70
g51
NtRp3180
(dp3181
g54
(dp3182
g81
g82
ssg63
g3171
sg56
(lp3183
S':'
asbag49
(g70
g51
NtRp3184
(dp3185
g54
(dp3186
sg63
g3171
sg56
(lp3187
g49
(g50
g51
NtRp3188
(dp3189
g54
(dp3190
g62
I3
ssg63
g3184
sg56
(lp3191
S'1'
asbasbasbag49
(g65
g51
NtRp3192
(dp3193
g54
(dp3194
sg63
g3123
sg56
(lp3195
g49
(g70
g51
NtRp3196
(dp3197
g54
(dp3198
g74
g75
ssg63
g3192
sg56
(lp3199
S'last_name'
p3200
asbag49
(g70
g51
NtRp3201
(dp3202
g54
(dp3203
g81
g82
ssg63
g3192
sg56
(lp3204
S':'
asbag49
(g70
g51
NtRp3205
(dp3206
g54
(dp3207
sg63
g3192
sg56
(lp3208
g49
(g50
g51
NtRp3209
(dp3210
g54
(dp3211
g62
I3
ssg63
g3205
sg56
(lp3212
S'Milo'
p3213
asbasbasbag49
(g65
g51
NtRp3214
(dp3215
g54
(dp3216
sg63
g3123
sg56
(lp3217
g49
(g70
g51
NtRp3218
(dp3219
g54
(dp3220
g74
g75
ssg63
g3214
sg56
(lp3221
S'password'
p3222
asbag49
(g70
g51
NtRp3223
(dp3224
g54
(dp3225
g81
g82
ssg63
g3214
sg56
(lp3226
S':'
asbag49
(g70
g51
NtRp3227
(dp3228
g54
(dp3229
sg63
g3214
sg56
(lp3230
g49
(g50
g51
NtRp3231
(dp3232
g54
(dp3233
g62
I3
ssg63
g3227
sg56
(lp3234
S'7a6e3c6a68ceed66634484a3f64a3468'
p3235
asbasbasbag49
(g65
g51
NtRp3236
(dp3237
g54
(dp3238
sg63
g3123
sg56
(lp3239
g49
(g70
g51
NtRp3240
(dp3241
g54
(dp3242
g74
g75
ssg63
g3236
sg56
(lp3243
S'registration_id'
p3244
asbag49
(g70
g51
NtRp3245
(dp3246
g54
(dp3247
g81
g82
ssg63
g3236
sg56
(lp3248
S':'
asbag49
(g70
g51
NtRp3249
(dp3250
g54
(dp3251
sg63
g3236
sg56
(lp3252
g49
(g50
g51
NtRp3253
(dp3254
g54
(dp3255
g62
I3
ssg63
g3249
sg56
(lp3256
S''
asbasbasbag49
(g65
g51
NtRp3257
(dp3258
g54
(dp3259
sg63
g3123
sg56
(lp3260
g49
(g70
g51
NtRp3261
(dp3262
g54
(dp3263
g74
g75
ssg63
g3257
sg56
(lp3264
S'registration_key'
p3265
asbag49
(g70
g51
NtRp3266
(dp3267
g54
(dp3268
g81
g82
ssg63
g3257
sg56
(lp3269
S':'
asbag49
(g70
g51
NtRp3270
(dp3271
g54
(dp3272
sg63
g3257
sg56
(lp3273
g49
(g50
g51
NtRp3274
(dp3275
g54
(dp3276
g62
I3
ssg63
g3270
sg56
(lp3277
S''
asbasbasbag49
(g65
g51
NtRp3278
(dp3279
g54
(dp3280
sg63
g3123
sg56
(lp3281
g49
(g70
g51
NtRp3282
(dp3283
g54
(dp3284
g74
g75
ssg63
g3278
sg56
(lp3285
S'reset_password_key'
p3286
asbag49
(g70
g51
NtRp3287
(dp3288
g54
(dp3289
g81
g82
ssg63
g3278
sg56
(lp3290
S':'
asbag49
(g70
g51
NtRp3291
(dp3292
g54
(dp3293
sg63
g3278
sg56
(lp3294
g49
(g50
g51
NtRp3295
(dp3296
g54
(dp3297
g62
I3
ssg63
g3291
sg56
(lp3298
S''
asbasbasbasbasbasbasbag49
(g65
g51
NtRp3299
(dp3300
g54
(dp3301
sg63
g3011
sg56
(lp3302
g49
(g70
g51
NtRp3303
(dp3304
g54
(dp3305
g74
g75
ssg63
g3299
sg56
(lp3306
S'user_groups'
p3307
asbag49
(g70
g51
NtRp3308
(dp3309
g54
(dp3310
g81
g82
ssg63
g3299
sg56
(lp3311
S':'
asbag49
(g70
g51
NtRp3312
(dp3313
g54
(dp3314
sg63
g3299
sg56
(lp3315
g49
(g50
g51
NtRp3316
(dp3317
g54
(dp3318
g62
I4
ssg63
g3312
sg56
(lp3319
g49
(g58
g51
NtRp3320
(dp3321
g54
(dp3322
g62
I3
ssg63
Nsg56
(lp3323
g49
(g65
g51
NtRp3324
(dp3325
g54
(dp3326
sg63
g3320
sg56
(lp3327
g49
(g70
g51
NtRp3328
(dp3329
g54
(dp3330
g74
g75
ssg63
g3324
sg56
(lp3331
S'1'
asbag49
(g70
g51
NtRp3332
(dp3333
g54
(dp3334
g81
g82
ssg63
g3324
sg56
(lp3335
S':'
asbag49
(g70
g51
NtRp3336
(dp3337
g54
(dp3338
sg63
g3324
sg56
(lp3339
g49
(g50
g51
NtRp3340
(dp3341
g54
(dp3342
g62
I3
ssg63
g3336
sg56
(lp3343
S'user_1'
p3344
asbasbasbasbasbasbasbasbasbasbasbag49
(g65
g51
NtRp3345
(dp3346
g54
(dp3347
sg63
g2986
sg56
(lp3348
g49
(g70
g51
NtRp3349
(dp3350
g54
(dp3351
g74
g75
ssg63
g3345
sg56
(lp3352
S'last_query'
p3353
asbag49
(g70
g51
NtRp3354
(dp3355
g54
(dp3356
g81
g82
ssg63
g3345
sg56
(lp3357
S':'
asbag49
(g70
g51
NtRp3358
(dp3359
g54
(dp3360
sg63
g3345
sg56
(lp3361
g49
(g50
g51
NtRp3362
(dp3363
g54
(dp3364
g62
I5
ssg63
g3358
sg56
(lp3365
S'db.article.id>0'
p3366
asbasbasbasbasbsS'etype'
p3367
S"<type 'exceptions.AttributeError'>"
p3368
sS'date'
p3369
S'Thu Mar 15 18:08:54 2012'
p3370
sS'response'
p3371
g49
(g50
g51
NtRp3372
(dp3373
g54
(dp3374
sg56
(lp3375
g49
(g58
g51
NtRp3376
(dp3377
g54
(dp3378
g62
I5
ssg63
Nsg56
(lp3379
g49
(g65
g51
NtRp3380
(dp3381
g54
(dp3382
sg63
g3376
sg56
(lp3383
g49
(g70
g51
NtRp3384
(dp3385
g54
(dp3386
g74
g75
ssg63
g3380
sg56
(lp3387
g147
asbag49
(g70
g51
NtRp3388
(dp3389
g54
(dp3390
g81
g82
ssg63
g3380
sg56
(lp3391
S':'
asbag49
(g70
g51
NtRp3392
(dp3393
g54
(dp3394
sg63
g3380
sg56
(lp3395
g49
(g50
g51
NtRp3396
(dp3397
g54
(dp3398
g62
I5
ssg63
g3392
sg56
(lp3399
S'<cStringIO.StringO object at 0xa54dc60>'
p3400
asbasbasbag49
(g65
g51
NtRp3401
(dp3402
g54
(dp3403
sg63
g3376
sg56
(lp3404
g49
(g70
g51
NtRp3405
(dp3406
g54
(dp3407
g74
g75
ssg63
g3401
sg56
(lp3408
g213
asbag49
(g70
g51
NtRp3409
(dp3410
g54
(dp3411
g81
g82
ssg63
g3401
sg56
(lp3412
S':'
asbag49
(g70
g51
NtRp3413
(dp3414
g54
(dp3415
sg63
g3401
sg56
(lp3416
g49
(g50
g51
NtRp3417
(dp3418
g54
(dp3419
g62
I5
ssg63
g3413
sg56
(lp3420
g49
(g58
g51
NtRp3421
(dp3422
g54
(dp3423
g62
I4
ssg63
Nsg56
(lp3424
g49
(g65
g51
NtRp3425
(dp3426
g54
(dp3427
sg63
g3421
sg56
(lp3428
g49
(g70
g51
NtRp3429
(dp3430
g54
(dp3431
g74
g75
ssg63
g3425
sg56
(lp3432
S'session_id_udi0312'
p3433
asbag49
(g70
g51
NtRp3434
(dp3435
g54
(dp3436
g81
g82
ssg63
g3425
sg56
(lp3437
S':'
asbag49
(g70
g51
NtRp3438
(dp3439
g54
(dp3440
sg63
g3425
sg56
(lp3441
g49
(g50
g51
NtRp3442
(dp3443
g54
(dp3444
g62
I4
ssg63
g3438
sg56
(lp3445
g49
(g58
g51
NtRp3446
(dp3447
g54
(dp3448
g62
I3
ssg63
Nsg56
(lp3449
g49
(g65
g51
NtRp3450
(dp3451
g54
(dp3452
sg63
g3446
sg56
(lp3453
g49
(g70
g51
NtRp3454
(dp3455
g54
(dp3456
g74
g75
ssg63
g3450
sg56
(lp3457
g263
asbag49
(g70
g51
NtRp3458
(dp3459
g54
(dp3460
g81
g82
ssg63
g3450
sg56
(lp3461
S':'
asbag49
(g70
g51
NtRp3462
(dp3463
g54
(dp3464
sg63
g3450
sg56
(lp3465
g49
(g50
g51
NtRp3466
(dp3467
g54
(dp3468
g62
I3
ssg63
g3462
sg56
(lp3469
S''
asbasbasbag49
(g65
g51
NtRp3470
(dp3471
g54
(dp3472
sg63
g3446
sg56
(lp3473
g49
(g70
g51
NtRp3474
(dp3475
g54
(dp3476
g74
g75
ssg63
g3470
sg56
(lp3477
g284
asbag49
(g70
g51
NtRp3478
(dp3479
g54
(dp3480
g81
g82
ssg63
g3470
sg56
(lp3481
S':'
asbag49
(g70
g51
NtRp3482
(dp3483
g54
(dp3484
sg63
g3470
sg56
(lp3485
g49
(g50
g51
NtRp3486
(dp3487
g54
(dp3488
g62
I3
ssg63
g3482
sg56
(lp3489
S''
asbasbasbag49
(g65
g51
NtRp3490
(dp3491
g54
(dp3492
sg63
g3446
sg56
(lp3493
g49
(g70
g51
NtRp3494
(dp3495
g54
(dp3496
g74
g75
ssg63
g3490
sg56
(lp3497
g305
asbag49
(g70
g51
NtRp3498
(dp3499
g54
(dp3500
g81
g82
ssg63
g3490
sg56
(lp3501
S':'
asbag49
(g70
g51
NtRp3502
(dp3503
g54
(dp3504
sg63
g3490
sg56
(lp3505
g49
(g50
g51
NtRp3506
(dp3507
g54
(dp3508
g62
I3
ssg63
g3502
sg56
(lp3509
S'2592000'
p3510
asbasbasbag49
(g65
g51
NtRp3511
(dp3512
g54
(dp3513
sg63
g3446
sg56
(lp3514
g49
(g70
g51
NtRp3515
(dp3516
g54
(dp3517
g74
g75
ssg63
g3511
sg56
(lp3518
g326
asbag49
(g70
g51
NtRp3519
(dp3520
g54
(dp3521
g81
g82
ssg63
g3511
sg56
(lp3522
S':'
asbag49
(g70
g51
NtRp3523
(dp3524
g54
(dp3525
sg63
g3511
sg56
(lp3526
g49
(g50
g51
NtRp3527
(dp3528
g54
(dp3529
g62
I3
ssg63
g3523
sg56
(lp3530
S''
asbasbasbag49
(g65
g51
NtRp3531
(dp3532
g54
(dp3533
sg63
g3446
sg56
(lp3534
g49
(g70
g51
NtRp3535
(dp3536
g54
(dp3537
g74
g75
ssg63
g3531
sg56
(lp3538
g347
asbag49
(g70
g51
NtRp3539
(dp3540
g54
(dp3541
g81
g82
ssg63
g3531
sg56
(lp3542
S':'
asbag49
(g70
g51
NtRp3543
(dp3544
g54
(dp3545
sg63
g3531
sg56
(lp3546
g49
(g50
g51
NtRp3547
(dp3548
g54
(dp3549
g62
I3
ssg63
g3543
sg56
(lp3550
S'/'
asbasbasbag49
(g65
g51
NtRp3551
(dp3552
g54
(dp3553
sg63
g3446
sg56
(lp3554
g49
(g70
g51
NtRp3555
(dp3556
g54
(dp3557
g74
g75
ssg63
g3551
sg56
(lp3558
g368
asbag49
(g70
g51
NtRp3559
(dp3560
g54
(dp3561
g81
g82
ssg63
g3551
sg56
(lp3562
S':'
asbag49
(g70
g51
NtRp3563
(dp3564
g54
(dp3565
sg63
g3551
sg56
(lp3566
g49
(g50
g51
NtRp3567
(dp3568
g54
(dp3569
g62
I3
ssg63
g3563
sg56
(lp3570
S''
asbasbasbag49
(g65
g51
NtRp3571
(dp3572
g54
(dp3573
sg63
g3446
sg56
(lp3574
g49
(g70
g51
NtRp3575
(dp3576
g54
(dp3577
g74
g75
ssg63
g3571
sg56
(lp3578
g389
asbag49
(g70
g51
NtRp3579
(dp3580
g54
(dp3581
g81
g82
ssg63
g3571
sg56
(lp3582
S':'
asbag49
(g70
g51
NtRp3583
(dp3584
g54
(dp3585
sg63
g3571
sg56
(lp3586
g49
(g50
g51
NtRp3587
(dp3588
g54
(dp3589
g62
I3
ssg63
g3583
sg56
(lp3590
S''
asbasbasbasbasbasbasbasbasbasbasbag49
(g65
g51
NtRp3591
(dp3592
g54
(dp3593
sg63
g3376
sg56
(lp3594
g49
(g70
g51
NtRp3595
(dp3596
g54
(dp3597
g74
g75
ssg63
g3591
sg56
(lp3598
S'delimiters'
p3599
asbag49
(g70
g51
NtRp3600
(dp3601
g54
(dp3602
g81
g82
ssg63
g3591
sg56
(lp3603
S':'
asbag49
(g70
g51
NtRp3604
(dp3605
g54
(dp3606
sg63
g3591
sg56
(lp3607
g49
(g50
g51
NtRp3608
(dp3609
g54
(dp3610
g62
I5
ssg63
g3604
sg56
(lp3611
g49
(g58
g51
NtRp3612
(dp3613
g54
(dp3614
g62
I4
ssg63
Nsg56
(lp3615
g49
(g65
g51
NtRp3616
(dp3617
g54
(dp3618
sg63
g3612
sg56
(lp3619
g49
(g70
g51
NtRp3620
(dp3621
g54
(dp3622
sg63
g3616
sg56
(lp3623
g49
(g50
g51
NtRp3624
(dp3625
g54
(dp3626
g62
I4
ssg63
g3620
sg56
(lp3627
S'{{'
p3628
asbasbasbag49
(g65
g51
NtRp3629
(dp3630
g54
(dp3631
sg63
g3612
sg56
(lp3632
g49
(g70
g51
NtRp3633
(dp3634
g54
(dp3635
sg63
g3629
sg56
(lp3636
g49
(g50
g51
NtRp3637
(dp3638
g54
(dp3639
g62
I4
ssg63
g3633
sg56
(lp3640
S'}}'
p3641
asbasbasbasbasbasbasbag49
(g65
g51
NtRp3642
(dp3643
g54
(dp3644
sg63
g3376
sg56
(lp3645
g49
(g70
g51
NtRp3646
(dp3647
g54
(dp3648
g74
g75
ssg63
g3642
sg56
(lp3649
S'files'
p3650
asbag49
(g70
g51
NtRp3651
(dp3652
g54
(dp3653
g81
g82
ssg63
g3642
sg56
(lp3654
S':'
asbag49
(g70
g51
NtRp3655
(dp3656
g54
(dp3657
sg63
g3642
sg56
(lp3658
g49
(g50
g51
NtRp3659
(dp3660
g54
(dp3661
g62
I5
ssg63
g3655
sg56
(lp3662
g49
(g58
g51
NtRp3663
(dp3664
g54
(dp3665
g62
I4
ssg63
Nsg56
(lp3666
sbasbasbasbag49
(g65
g51
NtRp3667
(dp3668
g54
(dp3669
sg63
g3376
sg56
(lp3670
g49
(g70
g51
NtRp3671
(dp3672
g54
(dp3673
g74
g75
ssg63
g3667
sg56
(lp3674
S'flash'
p3675
asbag49
(g70
g51
NtRp3676
(dp3677
g54
(dp3678
g81
g82
ssg63
g3667
sg56
(lp3679
S':'
asbag49
(g70
g51
NtRp3680
(dp3681
g54
(dp3682
sg63
g3667
sg56
(lp3683
g49
(g50
g51
NtRp3684
(dp3685
g54
(dp3686
g62
I5
ssg63
g3680
sg56
(lp3687
S''
asbasbasbag49
(g65
g51
NtRp3688
(dp3689
g54
(dp3690
sg63
g3376
sg56
(lp3691
g49
(g70
g51
NtRp3692
(dp3693
g54
(dp3694
g74
g75
ssg63
g3688
sg56
(lp3695
S'generic_patterns'
p3696
asbag49
(g70
g51
NtRp3697
(dp3698
g54
(dp3699
g81
g82
ssg63
g3688
sg56
(lp3700
S':'
asbag49
(g70
g51
NtRp3701
(dp3702
g54
(dp3703
sg63
g3688
sg56
(lp3704
g49
(g50
g51
NtRp3705
(dp3706
g54
(dp3707
g62
I5
ssg63
g3701
sg56
(lp3708
g49
(g58
g51
NtRp3709
(dp3710
g54
(dp3711
g62
I4
ssg63
Nsg56
(lp3712
g49
(g65
g51
NtRp3713
(dp3714
g54
(dp3715
sg63
g3709
sg56
(lp3716
g49
(g70
g51
NtRp3717
(dp3718
g54
(dp3719
sg63
g3713
sg56
(lp3720
g49
(g50
g51
NtRp3721
(dp3722
g54
(dp3723
g62
I4
ssg63
g3717
sg56
(lp3724
S'*'
asbasbasbasbasbasbasbag49
(g65
g51
NtRp3725
(dp3726
g54
(dp3727
sg63
g3376
sg56
(lp3728
g49
(g70
g51
NtRp3729
(dp3730
g54
(dp3731
g74
g75
ssg63
g3725
sg56
(lp3732
S'headers'
p3733
asbag49
(g70
g51
NtRp3734
(dp3735
g54
(dp3736
g81
g82
ssg63
g3725
sg56
(lp3737
S':'
asbag49
(g70
g51
NtRp3738
(dp3739
g54
(dp3740
sg63
g3725
sg56
(lp3741
g49
(g50
g51
NtRp3742
(dp3743
g54
(dp3744
g62
I5
ssg63
g3738
sg56
(lp3745
g49
(g58
g51
NtRp3746
(dp3747
g54
(dp3748
g62
I4
ssg63
Nsg56
(lp3749
g49
(g65
g51
NtRp3750
(dp3751
g54
(dp3752
sg63
g3746
sg56
(lp3753
g49
(g70
g51
NtRp3754
(dp3755
g54
(dp3756
g74
g75
ssg63
g3750
sg56
(lp3757
S'Cache-Control'
p3758
asbag49
(g70
g51
NtRp3759
(dp3760
g54
(dp3761
g81
g82
ssg63
g3750
sg56
(lp3762
S':'
asbag49
(g70
g51
NtRp3763
(dp3764
g54
(dp3765
sg63
g3750
sg56
(lp3766
g49
(g50
g51
NtRp3767
(dp3768
g54
(dp3769
g62
I4
ssg63
g3763
sg56
(lp3770
S'no-store, no-cache, must-revalidate, post-check=0, pre-check=0'
p3771
asbasbasbag49
(g65
g51
NtRp3772
(dp3773
g54
(dp3774
sg63
g3746
sg56
(lp3775
g49
(g70
g51
NtRp3776
(dp3777
g54
(dp3778
g74
g75
ssg63
g3772
sg56
(lp3779
S'Content-Type'
p3780
asbag49
(g70
g51
NtRp3781
(dp3782
g54
(dp3783
g81
g82
ssg63
g3772
sg56
(lp3784
S':'
asbag49
(g70
g51
NtRp3785
(dp3786
g54
(dp3787
sg63
g3772
sg56
(lp3788
g49
(g50
g51
NtRp3789
(dp3790
g54
(dp3791
g62
I4
ssg63
g3785
sg56
(lp3792
S'text/html; charset=utf-8'
p3793
asbasbasbag49
(g65
g51
NtRp3794
(dp3795
g54
(dp3796
sg63
g3746
sg56
(lp3797
g49
(g70
g51
NtRp3798
(dp3799
g54
(dp3800
g74
g75
ssg63
g3794
sg56
(lp3801
S'Expires'
p3802
asbag49
(g70
g51
NtRp3803
(dp3804
g54
(dp3805
g81
g82
ssg63
g3794
sg56
(lp3806
S':'
asbag49
(g70
g51
NtRp3807
(dp3808
g54
(dp3809
sg63
g3794
sg56
(lp3810
g49
(g50
g51
NtRp3811
(dp3812
g54
(dp3813
g62
I4
ssg63
g3807
sg56
(lp3814
S'Thu, 15 Mar 2012 22:08:53 GMT'
p3815
asbasbasbag49
(g65
g51
NtRp3816
(dp3817
g54
(dp3818
sg63
g3746
sg56
(lp3819
g49
(g70
g51
NtRp3820
(dp3821
g54
(dp3822
g74
g75
ssg63
g3816
sg56
(lp3823
S'Pragma'
p3824
asbag49
(g70
g51
NtRp3825
(dp3826
g54
(dp3827
g81
g82
ssg63
g3816
sg56
(lp3828
S':'
asbag49
(g70
g51
NtRp3829
(dp3830
g54
(dp3831
sg63
g3816
sg56
(lp3832
g49
(g50
g51
NtRp3833
(dp3834
g54
(dp3835
g62
I4
ssg63
g3829
sg56
(lp3836
S'no-cache'
p3837
asbasbasbag49
(g65
g51
NtRp3838
(dp3839
g54
(dp3840
sg63
g3746
sg56
(lp3841
g49
(g70
g51
NtRp3842
(dp3843
g54
(dp3844
g74
g75
ssg63
g3838
sg56
(lp3845
S'X-Powered-By'
p3846
asbag49
(g70
g51
NtRp3847
(dp3848
g54
(dp3849
g81
g82
ssg63
g3838
sg56
(lp3850
S':'
asbag49
(g70
g51
NtRp3851
(dp3852
g54
(dp3853
sg63
g3838
sg56
(lp3854
g49
(g50
g51
NtRp3855
(dp3856
g54
(dp3857
g62
I4
ssg63
g3851
sg56
(lp3858
S'web2py'
p3859
asbasbasbasbasbasbasbag49
(g65
g51
NtRp3860
(dp3861
g54
(dp3862
sg63
g3376
sg56
(lp3863
g49
(g70
g51
NtRp3864
(dp3865
g54
(dp3866
g74
g75
ssg63
g3860
sg56
(lp3867
S'menu'
p3868
asbag49
(g70
g51
NtRp3869
(dp3870
g54
(dp3871
g81
g82
ssg63
g3860
sg56
(lp3872
S':'
asbag49
(g70
g51
NtRp3873
(dp3874
g54
(dp3875
sg63
g3860
sg56
(lp3876
g49
(g50
g51
NtRp3877
(dp3878
g54
(dp3879
g62
I5
ssg63
g3873
sg56
(lp3880
g49
(g58
g51
NtRp3881
(dp3882
g54
(dp3883
g62
I4
ssg63
Nsg56
(lp3884
g49
(g65
g51
NtRp3885
(dp3886
g54
(dp3887
sg63
g3881
sg56
(lp3888
g49
(g70
g51
NtRp3889
(dp3890
g54
(dp3891
sg63
g3885
sg56
(lp3892
g49
(g50
g51
NtRp3893
(dp3894
g54
(dp3895
g62
I4
ssg63
g3889
sg56
(lp3896
g49
(g58
g51
NtRp3897
(dp3898
g54
(dp3899
g62
I3
ssg63
Nsg56
(lp3900
g49
(g65
g51
NtRp3901
(dp3902
g54
(dp3903
sg63
g3897
sg56
(lp3904
g49
(g70
g51
NtRp3905
(dp3906
g54
(dp3907
sg63
g3901
sg56
(lp3908
g49
(g50
g51
NtRp3909
(dp3910
g54
(dp3911
g62
I3
ssg63
g3905
sg56
(lp3912
cgluon.languages
lazyT_unpickle
p3913
(S's\x04\x00\x00\x00Home'
tRp3914
asbasbasbag49
(g65
g51
NtRp3915
(dp3916
g54
(dp3917
sg63
g3897
sg56
(lp3918
g49
(g70
g51
NtRp3919
(dp3920
g54
(dp3921
sg63
g3915
sg56
(lp3922
g49
(g50
g51
NtRp3923
(dp3924
g54
(dp3925
g62
I3
ssg63
g3919
sg56
(lp3926
g92
asbasbasbag49
(g65
g51
NtRp3927
(dp3928
g54
(dp3929
sg63
g3897
sg56
(lp3930
g49
(g70
g51
NtRp3931
(dp3932
g54
(dp3933
sg63
g3927
sg56
(lp3934
g49
(g50
g51
NtRp3935
(dp3936
g54
(dp3937
g62
I3
ssg63
g3931
sg56
(lp3938
S'/'
asbasbasbag49
(g65
g51
NtRp3939
(dp3940
g54
(dp3941
sg63
g3897
sg56
(lp3942
g49
(g70
g51
NtRp3943
(dp3944
g54
(dp3945
sg63
g3939
sg56
(lp3946
g49
(g50
g51
NtRp3947
(dp3948
g54
(dp3949
g62
I3
ssg63
g3943
sg56
(lp3950
g49
(g58
g51
NtRp3951
(dp3952
g54
(dp3953
g62
I2
ssg63
Nsg56
(lp3954
sbasbasbasbasbasbasbasbag49
(g65
g51
NtRp3955
(dp3956
g54
(dp3957
sg63
g3881
sg56
(lp3958
g49
(g70
g51
NtRp3959
(dp3960
g54
(dp3961
sg63
g3955
sg56
(lp3962
g49
(g50
g51
NtRp3963
(dp3964
g54
(dp3965
g62
I4
ssg63
g3959
sg56
(lp3966
g49
(g58
g51
NtRp3967
(dp3968
g54
(dp3969
g62
I3
ssg63
Nsg56
(lp3970
g49
(g65
g51
NtRp3971
(dp3972
g54
(dp3973
sg63
g3967
sg56
(lp3974
g49
(g70
g51
NtRp3975
(dp3976
g54
(dp3977
sg63
g3971
sg56
(lp3978
g49
(g50
g51
NtRp3979
(dp3980
g54
(dp3981
g62
I3
ssg63
g3975
sg56
(lp3982
g49
(cgluon.html
SPAN
p3983
g51
NtRp3984
(dp3985
g54
(dp3986
g74
S'color:yellow'
p3987
ssg63
Nsg56
(lp3988
g3859
asbasbasbasbag49
(g65
g51
NtRp3989
(dp3990
g54
(dp3991
sg63
g3967
sg56
(lp3992
g49
(g70
g51
NtRp3993
(dp3994
g54
(dp3995
sg63
g3989
sg56
(lp3996
g49
(g50
g51
NtRp3997
(dp3998
g54
(dp3999
g62
I3
ssg63
g3993
sg56
(lp4000
g92
asbasbasbag49
(g65
g51
NtRp4001
(dp4002
g54
(dp4003
sg63
g3967
sg56
(lp4004
g49
(g70
g51
NtRp4005
(dp4006
g54
(dp4007
sg63
g4001
sg56
(lp4008
g49
(g50
g51
NtRp4009
(dp4010
g54
(dp4011
g62
I3
ssg63
g4005
sg56
(lp4012
S'None'
p4013
asbasbasbag49
(g65
g51
NtRp4014
(dp4015
g54
(dp4016
sg63
g3967
sg56
(lp4017
g49
(g70
g51
NtRp4018
(dp4019
g54
(dp4020
sg63
g4014
sg56
(lp4021
g49
(g50
g51
NtRp4022
(dp4023
g54
(dp4024
g62
I3
ssg63
g4018
sg56
(lp4025
g49
(g58
g51
NtRp4026
(dp4027
g54
(dp4028
g62
I2
ssg63
Nsg56
(lp4029
g49
(g65
g51
NtRp4030
(dp4031
g54
(dp4032
sg63
g4026
sg56
(lp4033
g49
(g70
g51
NtRp4034
(dp4035
g54
(dp4036
sg63
g4030
sg56
(lp4037
g49
(g50
g51
NtRp4038
(dp4039
g54
(dp4040
g62
I2
ssg63
g4034
sg56
(lp4041
g49
(g58
g51
NtRp4042
(dp4043
g54
(dp4044
g62
I1
ssg63
Nsg56
(lp4045
g49
(g65
g51
NtRp4046
(dp4047
g54
(dp4048
sg63
g4042
sg56
(lp4049
g49
(g70
g51
NtRp4050
(dp4051
g54
(dp4052
sg63
g4046
sg56
(lp4053
g49
(g50
g51
NtRp4054
(dp4055
g54
(dp4056
g62
I1
ssg63
g4050
sg56
(lp4057
g3913
(S's\x08\x00\x00\x00My Sites'
tRp4058
asbasbasbag49
(g65
g51
NtRp4059
(dp4060
g54
(dp4061
sg63
g4042
sg56
(lp4062
g49
(g70
g51
NtRp4063
(dp4064
g54
(dp4065
sg63
g4059
sg56
(lp4066
g49
(g50
g51
NtRp4067
(dp4068
g54
(dp4069
g62
I1
ssg63
g4063
sg56
(lp4070
I00
asbasbasbag49
(g65
g51
NtRp4071
(dp4072
g54
(dp4073
sg63
g4042
sg56
(lp4074
g49
(g70
g51
NtRp4075
(dp4076
g54
(dp4077
sg63
g4071
sg56
(lp4078
g49
(g50
g51
NtRp4079
(dp4080
g54
(dp4081
g62
I1
ssg63
g4075
sg56
(lp4082
S'/admin/site'
p4083
asbasbasbasbasbasbasbag49
(g65
g51
NtRp4084
(dp4085
g54
(dp4086
sg63
g4026
sg56
(lp4087
g49
(g70
g51
NtRp4088
(dp4089
g54
(dp4090
sg63
g4084
sg56
(lp4091
g49
(g50
g51
NtRp4092
(dp4093
g54
(dp4094
g62
I2
ssg63
g4088
sg56
(lp4095
g49
(g58
g51
NtRp4096
(dp4097
g54
(dp4098
g62
I1
ssg63
Nsg56
(lp4099
g49
(g65
g51
NtRp4100
(dp4101
g54
(dp4102
sg63
g4096
sg56
(lp4103
g49
(g70
g51
NtRp4104
(dp4105
g54
(dp4106
sg63
g4100
sg56
(lp4107
g49
(g50
g51
NtRp4108
(dp4109
g54
(dp4110
g62
I1
ssg63
g4104
sg56
(lp4111
g3913
(S's\x08\x00\x00\x00This App'
tRp4112
asbasbasbag49
(g65
g51
NtRp4113
(dp4114
g54
(dp4115
sg63
g4096
sg56
(lp4116
g49
(g70
g51
NtRp4117
(dp4118
g54
(dp4119
sg63
g4113
sg56
(lp4120
g49
(g50
g51
NtRp4121
(dp4122
g54
(dp4123
g62
I1
ssg63
g4117
sg56
(lp4124
I00
asbasbasbag49
(g65
g51
NtRp4125
(dp4126
g54
(dp4127
sg63
g4096
sg56
(lp4128
g49
(g70
g51
NtRp4129
(dp4130
g54
(dp4131
sg63
g4125
sg56
(lp4132
g49
(g50
g51
NtRp4133
(dp4134
g54
(dp4135
g62
I1
ssg63
g4129
sg56
(lp4136
S'/admin/design/udi0312'
p4137
asbasbasbag49
(g65
g51
NtRp4138
(dp4139
g54
(dp4140
sg63
g4096
sg56
(lp4141
g49
(g70
g51
NtRp4142
(dp4143
g54
(dp4144
sg63
g4138
sg56
(lp4145
g49
(g50
g51
NtRp4146
(dp4147
g54
(dp4148
g62
I1
ssg63
g4142
sg56
(lp4149
(lp4150
(g3913
(S's\n\x00\x00\x00Controller'
tRp4151
I00
S'/admin/edit/udi0312/controllers/default.py'
tp4152
a(g3913
(S's\x04\x00\x00\x00View'
tRp4153
I00
S'/admin/edit/udi0312/views/default/test.html'
tp4154
a(g3913
(S's\x06\x00\x00\x00Layout'
tRp4155
I00
S'/admin/edit/udi0312/views/layout.html'
tp4156
a(g3913
(S's\n\x00\x00\x00Stylesheet'
tRp4157
I00
S'/admin/edit/udi0312/static/css/web2py.css'
tp4158
a(g3913
(S's\x08\x00\x00\x00DB Model'
tRp4159
I00
S'/admin/edit/udi0312/models/db.py'
tp4160
a(g3913
(S's\n\x00\x00\x00Menu Model'
tRp4161
I00
S'/admin/edit/udi0312/models/menu.py'
tp4162
a(g3913
(S's\x08\x00\x00\x00Database'
tRp4163
I00
S'/appadmin'
tp4164
a(g3913
(S's\x06\x00\x00\x00Errors'
tRp4165
I00
S'/admin/errors/udi0312'
tp4166
a(g3913
(S's\x05\x00\x00\x00About'
tRp4167
I00
S'/admin/about/udi0312'
tp4168
aasbasbasbasbasbasbasbag49
(g65
g51
NtRp4169
(dp4170
g54
(dp4171
sg63
g4026
sg56
(lp4172
g49
(g70
g51
NtRp4173
(dp4174
g54
(dp4175
sg63
g4169
sg56
(lp4176
g49
(g50
g51
NtRp4177
(dp4178
g54
(dp4179
g62
I2
ssg63
g4173
sg56
(lp4180
g49
(g58
g51
NtRp4181
(dp4182
g54
(dp4183
g62
I1
ssg63
Nsg56
(lp4184
g49
(g65
g51
NtRp4185
(dp4186
g54
(dp4187
sg63
g4181
sg56
(lp4188
g49
(g70
g51
NtRp4189
(dp4190
g54
(dp4191
sg63
g4185
sg56
(lp4192
g49
(g50
g51
NtRp4193
(dp4194
g54
(dp4195
g62
I1
ssg63
g4189
sg56
(lp4196
S'web2py.com'
p4197
asbasbasbag49
(g65
g51
NtRp4198
(dp4199
g54
(dp4200
sg63
g4181
sg56
(lp4201
g49
(g70
g51
NtRp4202
(dp4203
g54
(dp4204
sg63
g4198
sg56
(lp4205
g49
(g50
g51
NtRp4206
(dp4207
g54
(dp4208
g62
I1
ssg63
g4202
sg56
(lp4209
I00
asbasbasbag49
(g65
g51
NtRp4210
(dp4211
g54
(dp4212
sg63
g4181
sg56
(lp4213
g49
(g70
g51
NtRp4214
(dp4215
g54
(dp4216
sg63
g4210
sg56
(lp4217
g49
(g50
g51
NtRp4218
(dp4219
g54
(dp4220
g62
I1
ssg63
g4214
sg56
(lp4221
S'http://www.web2py.com'
p4222
asbasbasbag49
(g65
g51
NtRp4223
(dp4224
g54
(dp4225
sg63
g4181
sg56
(lp4226
g49
(g70
g51
NtRp4227
(dp4228
g54
(dp4229
sg63
g4223
sg56
(lp4230
g49
(g50
g51
NtRp4231
(dp4232
g54
(dp4233
g62
I1
ssg63
g4227
sg56
(lp4234
(lp4235
(g3913
(S's\x08\x00\x00\x00Download'
tRp4236
I00
S'http://www.web2py.com/examples/default/download'
p4237
tp4238
a(g3913
(S's\x07\x00\x00\x00Support'
tRp4239
I00
S'http://www.web2py.com/examples/default/support'
p4240
tp4241
a(g3913
(S's\x04\x00\x00\x00Demo'
tRp4242
I00
S'http://web2py.com/demo_admin'
p4243
tp4244
a(g3913
(S's\x0e\x00\x00\x00Quick Examples'
tRp4245
I00
S'http://web2py.com/examples/default/examples'
p4246
tp4247
a(g3913
(S's\x03\x00\x00\x00FAQ'
tRp4248
I00
S'http://web2py.com/AlterEgo'
p4249
tp4250
a(g3913
(S's\x06\x00\x00\x00Videos'
tRp4251
I00
S'http://www.web2py.com/examples/default/videos/'
p4252
tp4253
a(g3913
(S's\x11\x00\x00\x00Free Applications'
tRp4254
I00
S'http://web2py.com/appliances'
p4255
tp4256
a(g3913
(S's\x07\x00\x00\x00Plugins'
tRp4257
I00
S'http://web2py.com/plugins'
p4258
tp4259
a(g3913
(S's\x07\x00\x00\x00Layouts'
tRp4260
I00
S'http://web2py.com/layouts'
p4261
tp4262
a(g3913
(S's\x07\x00\x00\x00Recipes'
tRp4263
I00
S'http://web2pyslices.com/'
p4264
tp4265
a(g3913
(S's\x08\x00\x00\x00Semantic'
tRp4266
I00
S'http://web2py.com/semantic'
p4267
tp4268
aasbasbasbasbasbasbasbag49
(g65
g51
NtRp4269
(dp4270
g54
(dp4271
sg63
g4026
sg56
(lp4272
g49
(g70
g51
NtRp4273
(dp4274
g54
(dp4275
sg63
g4269
sg56
(lp4276
g49
(g50
g51
NtRp4277
(dp4278
g54
(dp4279
g62
I2
ssg63
g4273
sg56
(lp4280
g49
(g58
g51
NtRp4281
(dp4282
g54
(dp4283
g62
I1
ssg63
Nsg56
(lp4284
g49
(g65
g51
NtRp4285
(dp4286
g54
(dp4287
sg63
g4281
sg56
(lp4288
g49
(g70
g51
NtRp4289
(dp4290
g54
(dp4291
sg63
g4285
sg56
(lp4292
g49
(g50
g51
NtRp4293
(dp4294
g54
(dp4295
g62
I1
ssg63
g4289
sg56
(lp4296
g3913
(S's\r\x00\x00\x00Documentation'
tRp4297
asbasbasbag49
(g65
g51
NtRp4298
(dp4299
g54
(dp4300
sg63
g4281
sg56
(lp4301
g49
(g70
g51
NtRp4302
(dp4303
g54
(dp4304
sg63
g4298
sg56
(lp4305
g49
(g50
g51
NtRp4306
(dp4307
g54
(dp4308
g62
I1
ssg63
g4302
sg56
(lp4309
I00
asbasbasbag49
(g65
g51
NtRp4310
(dp4311
g54
(dp4312
sg63
g4281
sg56
(lp4313
g49
(g70
g51
NtRp4314
(dp4315
g54
(dp4316
sg63
g4310
sg56
(lp4317
g49
(g50
g51
NtRp4318
(dp4319
g54
(dp4320
g62
I1
ssg63
g4314
sg56
(lp4321
S'http://www.web2py.com/book'
p4322
asbasbasbag49
(g65
g51
NtRp4323
(dp4324
g54
(dp4325
sg63
g4281
sg56
(lp4326
g49
(g70
g51
NtRp4327
(dp4328
g54
(dp4329
sg63
g4323
sg56
(lp4330
g49
(g50
g51
NtRp4331
(dp4332
g54
(dp4333
g62
I1
ssg63
g4327
sg56
(lp4334
(lp4335
(g3913
(S's\x07\x00\x00\x00Preface'
tRp4336
I00
S'http://www.web2py.com/book/default/chapter/00'
p4337
tp4338
a(g3913
(S's\x0c\x00\x00\x00Introduction'
tRp4339
I00
S'http://www.web2py.com/book/default/chapter/01'
p4340
tp4341
a(g3913
(S's\x06\x00\x00\x00Python'
tRp4342
I00
S'http://www.web2py.com/book/default/chapter/02'
p4343
tp4344
a(g3913
(S's\x08\x00\x00\x00Overview'
tRp4345
I00
S'http://www.web2py.com/book/default/chapter/03'
p4346
tp4347
a(g3913
(S's\x08\x00\x00\x00The Core'
tRp4348
I00
S'http://www.web2py.com/book/default/chapter/04'
p4349
tp4350
a(g3913
(S's\t\x00\x00\x00The Views'
tRp4351
I00
S'http://www.web2py.com/book/default/chapter/05'
p4352
tp4353
a(g3913
(S's\x08\x00\x00\x00Database'
tRp4354
I00
S'http://www.web2py.com/book/default/chapter/06'
p4355
tp4356
a(g3913
(S's\x14\x00\x00\x00Forms and Validators'
tRp4357
I00
S'http://www.web2py.com/book/default/chapter/07'
p4358
tp4359
a(g3913
(S's\r\x00\x00\x00Email and SMS'
tRp4360
I00
S'http://www.web2py.com/book/default/chapter/08'
p4361
tp4362
a(g3913
(S's\x0e\x00\x00\x00Access Control'
tRp4363
I00
S'http://www.web2py.com/book/default/chapter/09'
p4364
tp4365
a(g3913
(S's\x08\x00\x00\x00Services'
tRp4366
I00
S'http://www.web2py.com/book/default/chapter/10'
p4367
tp4368
a(g3913
(S's\x0c\x00\x00\x00Ajax Recipes'
tRp4369
I00
S'http://www.web2py.com/book/default/chapter/11'
p4370
tp4371
a(g3913
(S's\x16\x00\x00\x00Components and Plugins'
tRp4372
I00
S'http://www.web2py.com/book/default/chapter/12'
p4373
tp4374
a(g3913
(S's\x12\x00\x00\x00Deployment Recipes'
tRp4375
I00
S'http://www.web2py.com/book/default/chapter/13'
p4376
tp4377
a(g3913
(S's\r\x00\x00\x00Other Recipes'
tRp4378
I00
S'http://www.web2py.com/book/default/chapter/14'
p4379
tp4380
a(g3913
(S's\r\x00\x00\x00Buy this book'
tRp4381
I00
S'http://stores.lulu.com/web2py'
p4382
tp4383
aasbasbasbasbasbasbasbag49
(g65
g51
NtRp4384
(dp4385
g54
(dp4386
sg63
g4026
sg56
(lp4387
g49
(g70
g51
NtRp4388
(dp4389
g54
(dp4390
sg63
g4384
sg56
(lp4391
g49
(g50
g51
NtRp4392
(dp4393
g54
(dp4394
g62
I2
ssg63
g4388
sg56
(lp4395
g49
(g58
g51
NtRp4396
(dp4397
g54
(dp4398
g62
I1
ssg63
Nsg56
(lp4399
g49
(g65
g51
NtRp4400
(dp4401
g54
(dp4402
sg63
g4396
sg56
(lp4403
g49
(g70
g51
NtRp4404
(dp4405
g54
(dp4406
sg63
g4400
sg56
(lp4407
g49
(g50
g51
NtRp4408
(dp4409
g54
(dp4410
g62
I1
ssg63
g4404
sg56
(lp4411
g3913
(S's\t\x00\x00\x00Community'
tRp4412
asbasbasbag49
(g65
g51
NtRp4413
(dp4414
g54
(dp4415
sg63
g4396
sg56
(lp4416
g49
(g70
g51
NtRp4417
(dp4418
g54
(dp4419
sg63
g4413
sg56
(lp4420
g49
(g50
g51
NtRp4421
(dp4422
g54
(dp4423
g62
I1
ssg63
g4417
sg56
(lp4424
I00
asbasbasbag49
(g65
g51
NtRp4425
(dp4426
g54
(dp4427
sg63
g4396
sg56
(lp4428
g49
(g70
g51
NtRp4429
(dp4430
g54
(dp4431
sg63
g4425
sg56
(lp4432
g49
(g50
g51
NtRp4433
(dp4434
g54
(dp4435
g62
I1
ssg63
g4429
sg56
(lp4436
Nasbasbasbag49
(g65
g51
NtRp4437
(dp4438
g54
(dp4439
sg63
g4396
sg56
(lp4440
g49
(g70
g51
NtRp4441
(dp4442
g54
(dp4443
sg63
g4437
sg56
(lp4444
g49
(g50
g51
NtRp4445
(dp4446
g54
(dp4447
g62
I1
ssg63
g4441
sg56
(lp4448
(lp4449
(g3913
(S's\x06\x00\x00\x00Groups'
tRp4450
I00
S'http://www.web2py.com/examples/default/usergroups'
p4451
tp4452
a(g3913
(S's\x07\x00\x00\x00Twitter'
tRp4453
I00
S'http://twitter.com/web2py'
p4454
tp4455
a(g3913
(S's\t\x00\x00\x00Live Chat'
tRp4456
I00
S'http://webchat.freenode.net/?channels=web2py'
p4457
tp4458
aasbasbasbasbasbasbasbag49
(g65
g51
NtRp4459
(dp4460
g54
(dp4461
sg63
g4026
sg56
(lp4462
g49
(g70
g51
NtRp4463
(dp4464
g54
(dp4465
sg63
g4459
sg56
(lp4466
g49
(g50
g51
NtRp4467
(dp4468
g54
(dp4469
g62
I2
ssg63
g4463
sg56
(lp4470
g49
(g58
g51
NtRp4471
(dp4472
g54
(dp4473
g62
I1
ssg63
Nsg56
(lp4474
g49
(g65
g51
NtRp4475
(dp4476
g54
(dp4477
sg63
g4471
sg56
(lp4478
g49
(g70
g51
NtRp4479
(dp4480
g54
(dp4481
sg63
g4475
sg56
(lp4482
g49
(g50
g51
NtRp4483
(dp4484
g54
(dp4485
g62
I1
ssg63
g4479
sg56
(lp4486
g3913
(S's\x07\x00\x00\x00Plugins'
tRp4487
asbasbasbag49
(g65
g51
NtRp4488
(dp4489
g54
(dp4490
sg63
g4471
sg56
(lp4491
g49
(g70
g51
NtRp4492
(dp4493
g54
(dp4494
sg63
g4488
sg56
(lp4495
g49
(g50
g51
NtRp4496
(dp4497
g54
(dp4498
g62
I1
ssg63
g4492
sg56
(lp4499
I00
asbasbasbag49
(g65
g51
NtRp4500
(dp4501
g54
(dp4502
sg63
g4471
sg56
(lp4503
g49
(g70
g51
NtRp4504
(dp4505
g54
(dp4506
sg63
g4500
sg56
(lp4507
g49
(g50
g51
NtRp4508
(dp4509
g54
(dp4510
g62
I1
ssg63
g4504
sg56
(lp4511
Nasbasbasbag49
(g65
g51
NtRp4512
(dp4513
g54
(dp4514
sg63
g4471
sg56
(lp4515
g49
(g70
g51
NtRp4516
(dp4517
g54
(dp4518
sg63
g4512
sg56
(lp4519
g49
(g50
g51
NtRp4520
(dp4521
g54
(dp4522
g62
I1
ssg63
g4516
sg56
(lp4523
(lp4524
(S'plugin_wiki'
p4525
I00
S'http://web2py.com/examples/default/download'
p4526
tp4527
a(g3913
(S's\r\x00\x00\x00Other Plugins'
tRp4528
I00
g4258
tp4529
a(g3913
(S's\x0e\x00\x00\x00Layout Plugins'
tRp4530
I00
g4261
tp4531
aasbasbasbasbasbasbasbasbasbasbasbasbasbasbasbasbasbasbasbag49
(g65
g51
NtRp4532
(dp4533
g54
(dp4534
sg63
g3376
sg56
(lp4535
g49
(g70
g51
NtRp4536
(dp4537
g54
(dp4538
g74
g75
ssg63
g4532
sg56
(lp4539
S'meta'
p4540
asbag49
(g70
g51
NtRp4541
(dp4542
g54
(dp4543
g81
g82
ssg63
g4532
sg56
(lp4544
S':'
asbag49
(g70
g51
NtRp4545
(dp4546
g54
(dp4547
sg63
g4532
sg56
(lp4548
g49
(g50
g51
NtRp4549
(dp4550
g54
(dp4551
g62
I5
ssg63
g4545
sg56
(lp4552
g49
(g58
g51
NtRp4553
(dp4554
g54
(dp4555
g62
I4
ssg63
Nsg56
(lp4556
g49
(g65
g51
NtRp4557
(dp4558
g54
(dp4559
sg63
g4553
sg56
(lp4560
g49
(g70
g51
NtRp4561
(dp4562
g54
(dp4563
g74
g75
ssg63
g4557
sg56
(lp4564
S'author'
p4565
asbag49
(g70
g51
NtRp4566
(dp4567
g54
(dp4568
g81
g82
ssg63
g4557
sg56
(lp4569
S':'
asbag49
(g70
g51
NtRp4570
(dp4571
g54
(dp4572
sg63
g4557
sg56
(lp4573
g49
(g50
g51
NtRp4574
(dp4575
g54
(dp4576
g62
I4
ssg63
g4570
sg56
(lp4577
S'Your Name <you@example.com>'
p4578
asbasbasbag49
(g65
g51
NtRp4579
(dp4580
g54
(dp4581
sg63
g4553
sg56
(lp4582
g49
(g70
g51
NtRp4583
(dp4584
g54
(dp4585
g74
g75
ssg63
g4579
sg56
(lp4586
S'copyright'
p4587
asbag49
(g70
g51
NtRp4588
(dp4589
g54
(dp4590
g81
g82
ssg63
g4579
sg56
(lp4591
S':'
asbag49
(g70
g51
NtRp4592
(dp4593
g54
(dp4594
sg63
g4579
sg56
(lp4595
g49
(g50
g51
NtRp4596
(dp4597
g54
(dp4598
g62
I4
ssg63
g4592
sg56
(lp4599
S'Copyright 2011'
p4600
asbasbasbag49
(g65
g51
NtRp4601
(dp4602
g54
(dp4603
sg63
g4553
sg56
(lp4604
g49
(g70
g51
NtRp4605
(dp4606
g54
(dp4607
g74
g75
ssg63
g4601
sg56
(lp4608
S'description'
p4609
asbag49
(g70
g51
NtRp4610
(dp4611
g54
(dp4612
g81
g82
ssg63
g4601
sg56
(lp4613
S':'
asbag49
(g70
g51
NtRp4614
(dp4615
g54
(dp4616
sg63
g4601
sg56
(lp4617
g49
(g50
g51
NtRp4618
(dp4619
g54
(dp4620
g62
I4
ssg63
g4614
sg56
(lp4621
S'a cool new app'
p4622
asbasbasbag49
(g65
g51
NtRp4623
(dp4624
g54
(dp4625
sg63
g4553
sg56
(lp4626
g49
(g70
g51
NtRp4627
(dp4628
g54
(dp4629
g74
g75
ssg63
g4623
sg56
(lp4630
S'generator'
p4631
asbag49
(g70
g51
NtRp4632
(dp4633
g54
(dp4634
g81
g82
ssg63
g4623
sg56
(lp4635
S':'
asbag49
(g70
g51
NtRp4636
(dp4637
g54
(dp4638
sg63
g4623
sg56
(lp4639
g49
(g50
g51
NtRp4640
(dp4641
g54
(dp4642
g62
I4
ssg63
g4636
sg56
(lp4643
S'Web2py Web Framework'
p4644
asbasbasbag49
(g65
g51
NtRp4645
(dp4646
g54
(dp4647
sg63
g4553
sg56
(lp4648
g49
(g70
g51
NtRp4649
(dp4650
g54
(dp4651
g74
g75
ssg63
g4645
sg56
(lp4652
S'keywords'
p4653
asbag49
(g70
g51
NtRp4654
(dp4655
g54
(dp4656
g81
g82
ssg63
g4645
sg56
(lp4657
S':'
asbag49
(g70
g51
NtRp4658
(dp4659
g54
(dp4660
sg63
g4645
sg56
(lp4661
g49
(g50
g51
NtRp4662
(dp4663
g54
(dp4664
g62
I4
ssg63
g4658
sg56
(lp4665
S'web2py, python, framework'
p4666
asbasbasbasbasbasbasbag49
(g65
g51
NtRp4667
(dp4668
g54
(dp4669
sg63
g3376
sg56
(lp4670
g49
(g70
g51
NtRp4671
(dp4672
g54
(dp4673
g74
g75
ssg63
g4667
sg56
(lp4674
S'postprocessing'
p4675
asbag49
(g70
g51
NtRp4676
(dp4677
g54
(dp4678
g81
g82
ssg63
g4667
sg56
(lp4679
S':'
asbag49
(g70
g51
NtRp4680
(dp4681
g54
(dp4682
sg63
g4667
sg56
(lp4683
g49
(g50
g51
NtRp4684
(dp4685
g54
(dp4686
g62
I5
ssg63
g4680
sg56
(lp4687
g49
(g58
g51
NtRp4688
(dp4689
g54
(dp4690
g62
I4
ssg63
Nsg56
(lp4691
sbasbasbasbag49
(g65
g51
NtRp4692
(dp4693
g54
(dp4694
sg63
g3376
sg56
(lp4695
g49
(g70
g51
NtRp4696
(dp4697
g54
(dp4698
g74
g75
ssg63
g4692
sg56
(lp4699
S'session_file'
p4700
asbag49
(g70
g51
NtRp4701
(dp4702
g54
(dp4703
g81
g82
ssg63
g4692
sg56
(lp4704
S':'
asbag49
(g70
g51
NtRp4705
(dp4706
g54
(dp4707
sg63
g4692
sg56
(lp4708
g49
(g50
g51
NtRp4709
(dp4710
g54
(dp4711
g62
I5
ssg63
g4705
sg56
(lp4712
S"<open file '/Users/udimilo/Documents/web2py/applications/udi0312/sessions/127.0.0.1-fcd6a577-d448-4882-b7bc-f353da84ba3b', mode 'rb+' at 0xa374848>"
p4713
asbasbasbag49
(g65
g51
NtRp4714
(dp4715
g54
(dp4716
sg63
g3376
sg56
(lp4717
g49
(g70
g51
NtRp4718
(dp4719
g54
(dp4720
g74
g75
ssg63
g4714
sg56
(lp4721
S'session_filename'
p4722
asbag49
(g70
g51
NtRp4723
(dp4724
g54
(dp4725
g81
g82
ssg63
g4714
sg56
(lp4726
S':'
asbag49
(g70
g51
NtRp4727
(dp4728
g54
(dp4729
sg63
g4714
sg56
(lp4730
g49
(g50
g51
NtRp4731
(dp4732
g54
(dp4733
g62
I5
ssg63
g4727
sg56
(lp4734
S'/Users/udimilo/Documents/web2py/applications/udi0312/sessions/127.0.0.1-fcd6a577-d448-4882-b7bc-f353da84ba3b'
p4735
asbasbasbag49
(g65
g51
NtRp4736
(dp4737
g54
(dp4738
sg63
g3376
sg56
(lp4739
g49
(g70
g51
NtRp4740
(dp4741
g54
(dp4742
g74
g75
ssg63
g4736
sg56
(lp4743
S'session_id'
p4744
asbag49
(g70
g51
NtRp4745
(dp4746
g54
(dp4747
g81
g82
ssg63
g4736
sg56
(lp4748
S':'
asbag49
(g70
g51
NtRp4749
(dp4750
g54
(dp4751
sg63
g4736
sg56
(lp4752
g49
(g50
g51
NtRp4753
(dp4754
g54
(dp4755
g62
I5
ssg63
g4749
sg56
(lp4756
S'127.0.0.1-fcd6a577-d448-4882-b7bc-f353da84ba3b'
p4757
asbasbasbag49
(g65
g51
NtRp4758
(dp4759
g54
(dp4760
sg63
g3376
sg56
(lp4761
g49
(g70
g51
NtRp4762
(dp4763
g54
(dp4764
g74
g75
ssg63
g4758
sg56
(lp4765
S'session_id_name'
p4766
asbag49
(g70
g51
NtRp4767
(dp4768
g54
(dp4769
g81
g82
ssg63
g4758
sg56
(lp4770
S':'
asbag49
(g70
g51
NtRp4771
(dp4772
g54
(dp4773
sg63
g4758
sg56
(lp4774
g49
(g50
g51
NtRp4775
(dp4776
g54
(dp4777
g62
I5
ssg63
g4771
sg56
(lp4778
g3433
asbasbasbag49
(g65
g51
NtRp4779
(dp4780
g54
(dp4781
sg63
g3376
sg56
(lp4782
g49
(g70
g51
NtRp4783
(dp4784
g54
(dp4785
g74
g75
ssg63
g4779
sg56
(lp4786
S'session_locked'
p4787
asbag49
(g70
g51
NtRp4788
(dp4789
g54
(dp4790
g81
g82
ssg63
g4779
sg56
(lp4791
S':'
asbag49
(g70
g51
NtRp4792
(dp4793
g54
(dp4794
sg63
g4779
sg56
(lp4795
g49
(g50
g51
NtRp4796
(dp4797
g54
(dp4798
g62
I5
ssg63
g4792
sg56
(lp4799
g1489
asbasbasbag49
(g65
g51
NtRp4800
(dp4801
g54
(dp4802
sg63
g3376
sg56
(lp4803
g49
(g70
g51
NtRp4804
(dp4805
g54
(dp4806
g74
g75
ssg63
g4800
sg56
(lp4807
S'session_new'
p4808
asbag49
(g70
g51
NtRp4809
(dp4810
g54
(dp4811
g81
g82
ssg63
g4800
sg56
(lp4812
S':'
asbag49
(g70
g51
NtRp4813
(dp4814
g54
(dp4815
sg63
g4800
sg56
(lp4816
g49
(g50
g51
NtRp4817
(dp4818
g54
(dp4819
g62
I5
ssg63
g4813
sg56
(lp4820
g92
asbasbasbag49
(g65
g51
NtRp4821
(dp4822
g54
(dp4823
sg63
g3376
sg56
(lp4824
g49
(g70
g51
NtRp4825
(dp4826
g54
(dp4827
g74
g75
ssg63
g4821
sg56
(lp4828
S'status'
p4829
asbag49
(g70
g51
NtRp4830
(dp4831
g54
(dp4832
g81
g82
ssg63
g4821
sg56
(lp4833
S':'
asbag49
(g70
g51
NtRp4834
(dp4835
g54
(dp4836
sg63
g4821
sg56
(lp4837
g49
(g50
g51
NtRp4838
(dp4839
g54
(dp4840
g62
I5
ssg63
g4834
sg56
(lp4841
S'200'
p4842
asbasbasbag49
(g65
g51
NtRp4843
(dp4844
g54
(dp4845
sg63
g3376
sg56
(lp4846
g49
(g70
g51
NtRp4847
(dp4848
g54
(dp4849
g74
g75
ssg63
g4843
sg56
(lp4850
S'subtitle'
p4851
asbag49
(g70
g51
NtRp4852
(dp4853
g54
(dp4854
g81
g82
ssg63
g4843
sg56
(lp4855
S':'
asbag49
(g70
g51
NtRp4856
(dp4857
g54
(dp4858
sg63
g4843
sg56
(lp4859
g49
(g50
g51
NtRp4860
(dp4861
g54
(dp4862
g62
I5
ssg63
g4856
sg56
(lp4863
g3913
(S's\r\x00\x00\x00customize me!'
tRp4864
asbasbasbag49
(g65
g51
NtRp4865
(dp4866
g54
(dp4867
sg63
g3376
sg56
(lp4868
g49
(g70
g51
NtRp4869
(dp4870
g54
(dp4871
g74
g75
ssg63
g4865
sg56
(lp4872
S'title'
p4873
asbag49
(g70
g51
NtRp4874
(dp4875
g54
(dp4876
g81
g82
ssg63
g4865
sg56
(lp4877
S':'
asbag49
(g70
g51
NtRp4878
(dp4879
g54
(dp4880
sg63
g4865
sg56
(lp4881
g49
(g50
g51
NtRp4882
(dp4883
g54
(dp4884
g62
I5
ssg63
g4878
sg56
(lp4885
S'Udi0312'
p4886
asbasbasbag49
(g65
g51
NtRp4887
(dp4888
g54
(dp4889
sg63
g3376
sg56
(lp4890
g49
(g70
g51
NtRp4891
(dp4892
g54
(dp4893
g74
g75
ssg63
g4887
sg56
(lp4894
g2175
asbag49
(g70
g51
NtRp4895
(dp4896
g54
(dp4897
g81
g82
ssg63
g4887
sg56
(lp4898
S':'
asbag49
(g70
g51
NtRp4899
(dp4900
g54
(dp4901
sg63
g4887
sg56
(lp4902
g49
(g50
g51
NtRp4903
(dp4904
g54
(dp4905
g62
I5
ssg63
g4899
sg56
(lp4906
g2188
asbasbasbag49
(g65
g51
NtRp4907
(dp4908
g54
(dp4909
sg63
g3376
sg56
(lp4910
g49
(g70
g51
NtRp4911
(dp4912
g54
(dp4913
g74
g75
ssg63
g4907
sg56
(lp4914
S'view'
p4915
asbag49
(g70
g51
NtRp4916
(dp4917
g54
(dp4918
g81
g82
ssg63
g4907
sg56
(lp4919
S':'
asbag49
(g70
g51
NtRp4920
(dp4921
g54
(dp4922
sg63
g4907
sg56
(lp4923
g49
(g50
g51
NtRp4924
(dp4925
g54
(dp4926
g62
I5
ssg63
g4920
sg56
(lp4927
S'default/test.html'
p4928
asbasbasbasbasbsS'locals'
p4929
(dp4930
S'feed'
p4931
S"{'feed': {'updated': u'Thu, 15 Mar 2012 21:57:57... 'wfw': u'http://wellformedweb.org/CommentAPI/'}}"
p4932
sS'item'
p4933
S"{'updated_parsed': (2012, 3, 16, 3, 54, 23, 4, 7...r mobile developers\\' use.', 'guidislink': False}"
p4934
sS'c'
S'0'
sg2131
S"u'http://techcrunch.com/2012/03/15/boxcar-raises...preps-push-notifications-service-for-developers/'"
p4935
sssS'traceback'
p4936
S'Traceback (most recent call last):\n  File "/users/udimilo/Documents/web2py/gluon/restricted.py", line 205, in restricted\n    exec ccode in environment\n  File "/Users/udimilo/Documents/web2py/applications/udi0312/controllers/default.py", line 162, in <module>\n  File "/users/udimilo/Documents/web2py/gluon/globals.py", line 173, in <lambda>\n    self._caller = lambda f: f()\n  File "/Users/udimilo/Documents/web2py/applications/udi0312/controllers/default.py", line 92, in test\n    domain = urlparse.parse(url).hostname\nAttributeError: \'module\' object has no attribute \'parse\'\n'
p4937
s.