(dp1
S'output'
p2
S"<type 'exceptions.ImportError'> No module named Readability"
p3
sS'layer'
p4
S'/Users/udimilo/Documents/web2py/applications/udi0312/controllers/default.py'
p5
sS'code'
p6
S'# -*- coding: utf-8 -*-\n# this file is released under public domain and you can use without limitations\n\n#########################################################################\n## This is a samples controller\n## - index is the default action of any application\n## - user is required for authentication and authorization\n## - download is for downloading files uploaded in the db (does streaming)\n## - call exposes all registered services (none by default)\n#########################################################################\n#from readability import Readability\nimport Readability\n\ndef index():\n    articles = db().select(db.article.ALL)\n    categories = db().select(db.category.ALL, orderby=db.category.name)\n    boards = db(db.board.user_id==auth.user.id).select() if auth.user else []\n    return dict(items=articles, categories=categories, boards=boards)\n\ndef add_board():\n    category = db(db.category.name==request.vars.category).select().first()\n    board = db.board.insert(user_id=auth.user.id, category_id=category.id, name=request.vars.boardName)\n    return board.id\n\ndef add_article():\n    url = request.vars.url\n    article = db(db.article.url == url).select().first()\n    if article is None:\n        read = Readability()\n        json = read.content(url)\n        article = db.article.insert(\n            height=300,\n            url=json[\'url\'],\n            readability_url=json[\'short_url\'],\n            title=json[\'title\'],\n            content=json[\'content\'],\n            domain=json[\'domain\'],\n            author=json[\'author\'],\n            excerpt=json[\'excerpt\'],\n            word_count=json[\'word_count\'],\n            total_pages=json[\'total_pages\'],\n            date_published=json[\'date_published\'],\n            next_page_id=json[\'next_page_id\'],\n            rendered_pages=json[\'rendered_pages\'],            \n            )\n    \n    board = db(db.board.name==request.vars.board).select().first()\n    \n    pin = db((db.pin.board_id == board.id) & (db.pin.article_id == article.id)).select().first()\n    if pin is None:\n        pin = db.pin.insert(board_id=board.id, article_id=article.id)\n    \n    return pin.id\n    \ndef follow_user():\n    follower = auth.user\n    followee = db.auth_user(request.vars.followee)\n    if followee is None:\n        return \'no followee\'\n        \n    rel = db((db.user_user.follower_id == follower.id) & (db.user_user.followee_id == followee.id)).select().first()\n\n    if rel is None:\n        rel = db.user_user.insert(follower_id = follower.id, followee_id = followee.id)\n        return \'added\' #http code\n        \n    return rel #http code\n\ndef unfollow_user():\n    follower = auth.user\n    followee = db.auth_user(request.vars.followee)\n    if followee is None:\n        return \'no followee\'\n        \n    rel = db((db.user_user.follower_id == follower.id) & (db.user_user.followee_id == followee.id)).select().first()\n    if rel is None:\n        return \'no rel\'\n    \n    db.user_user.remove(id == rel.id)\n    return \'deleted\'\n            \ndef user():\n    """\n    exposes:\n    http://..../[app]/default/user/login\n    http://..../[app]/default/user/logout\n    http://..../[app]/default/user/register\n    http://..../[app]/default/user/profile\n    http://..../[app]/default/user/retrieve_password\n    http://..../[app]/default/user/change_password\n    use @auth.requires_login()\n        @auth.requires_membership(\'group name\')\n        @auth.requires_permission(\'read\',\'table name\',record_id)\n    to decorate functions that need access control\n    """\n    return dict(form=auth())\n\n\ndef download():\n    """\n    allows downloading of uploaded files\n    http://..../[app]/default/download/[filename]\n    """\n    return response.download(request,db)\n\n\ndef call():\n    """\n    exposes services. for example:\n    http://..../[app]/default/call/jsonrpc\n    decorate with @services.jsonrpc the functions to expose\n    supports xml, json, xmlrpc, jsonrpc, amfrpc, rss, csv\n    """\n    return service()\n\n\n@auth.requires_signature()\ndef data():\n    """\n    http://..../[app]/default/data/tables\n    http://..../[app]/default/data/create/[table]\n    http://..../[app]/default/data/read/[table]/[id]\n    http://..../[app]/default/data/update/[table]/[id]\n    http://..../[app]/default/data/delete/[table]/[id]\n    http://..../[app]/default/data/select/[table]\n    http://..../[app]/default/data/search/[table]\n    but URLs must be signed, i.e. linked with\n      A(\'table\',_href=URL(\'data/tables\',user_signature=True))\n    or with the signed load operator\n      LOAD(\'default\',\'data.load\',args=\'tables\',ajax=True,user_signature=True)\n    """\n    return dict(form=crud())\n\nresponse._vars=response._caller(index)\n'
p7
sS'snapshot'
p8
(dp9
S'exception'
p10
(dp11
S'__hash__'
p12
S"<method-wrapper '__hash__' of exceptions.ImportError object at 0x8e0c738>"
p13
sS'__setattr__'
p14
S"<method-wrapper '__setattr__' of exceptions.ImportError object at 0x8e0c738>"
p15
sS'__reduce_ex__'
p16
S'<built-in method __reduce_ex__ of exceptions.ImportError object at 0x8e0c738>'
p17
sS'__getslice__'
p18
S"<method-wrapper '__getslice__' of exceptions.ImportError object at 0x8e0c738>"
p19
sS'__getitem__'
p20
S"<method-wrapper '__getitem__' of exceptions.ImportError object at 0x8e0c738>"
p21
sS'__setstate__'
p22
S'<built-in method __setstate__ of exceptions.ImportError object at 0x8e0c738>'
p23
sS'__reduce__'
p24
S'<built-in method __reduce__ of exceptions.ImportError object at 0x8e0c738>'
p25
sS'__str__'
p26
S"<method-wrapper '__str__' of exceptions.ImportError object at 0x8e0c738>"
p27
sS'args'
p28
S"('No module named Readability',)"
p29
sS'__getattribute__'
p30
S"<method-wrapper '__getattribute__' of exceptions.ImportError object at 0x8e0c738>"
p31
sS'__class__'
p32
S"<type 'exceptions.ImportError'>"
p33
sS'__delattr__'
p34
S"<method-wrapper '__delattr__' of exceptions.ImportError object at 0x8e0c738>"
p35
sS'__repr__'
p36
S"<method-wrapper '__repr__' of exceptions.ImportError object at 0x8e0c738>"
p37
sS'__dict__'
p38
S'{}'
p39
sS'__doc__'
p40
S'"Import can\'t find module, or can\'t find name in module."'
p41
sS'__init__'
p42
S"<method-wrapper '__init__' of exceptions.ImportError object at 0x8e0c738>"
p43
sS'__new__'
p44
S'<built-in method __new__ of type object at 0x100cc0>'
p45
ssS'evalue'
p46
S'No module named Readability'
p47
sS'request'
p48
ccopy_reg
_reconstructor
p49
(cgluon.html
BEAUTIFY
p50
c__builtin__
object
p51
NtRp52
(dp53
S'attributes'
p54
(dp55
sS'components'
p56
(lp57
g49
(cgluon.html
TABLE
p58
g51
NtRp59
(dp60
g54
(dp61
S'level'
p62
I5
ssS'parent'
p63
Nsg56
(lp64
g49
(cgluon.html
TR
p65
g51
NtRp66
(dp67
g54
(dp68
sg63
g59
sg56
(lp69
g49
(cgluon.html
TD
p70
g51
NtRp71
(dp72
g54
(dp73
S'_style'
p74
S'font-weight:bold;vertical-align:top'
p75
ssg63
g66
sg56
(lp76
S'ajax'
p77
asbag49
(g70
g51
NtRp78
(dp79
g54
(dp80
S'_valign'
p81
S'top'
p82
ssg63
g66
sg56
(lp83
S':'
asbag49
(g70
g51
NtRp84
(dp85
g54
(dp86
sg63
g66
sg56
(lp87
g49
(g50
g51
NtRp88
(dp89
g54
(dp90
g62
I5
ssg63
g84
sg56
(lp91
S'False'
p92
asbasbasbag49
(g65
g51
NtRp93
(dp94
g54
(dp95
sg63
g59
sg56
(lp96
g49
(g70
g51
NtRp97
(dp98
g54
(dp99
g74
g75
ssg63
g93
sg56
(lp100
S'application'
p101
asbag49
(g70
g51
NtRp102
(dp103
g54
(dp104
g81
g82
ssg63
g93
sg56
(lp105
S':'
asbag49
(g70
g51
NtRp106
(dp107
g54
(dp108
sg63
g93
sg56
(lp109
g49
(g50
g51
NtRp110
(dp111
g54
(dp112
g62
I5
ssg63
g106
sg56
(lp113
S'udi0312'
p114
asbasbasbag49
(g65
g51
NtRp115
(dp116
g54
(dp117
sg63
g59
sg56
(lp118
g49
(g70
g51
NtRp119
(dp120
g54
(dp121
g74
g75
ssg63
g115
sg56
(lp122
g28
asbag49
(g70
g51
NtRp123
(dp124
g54
(dp125
g81
g82
ssg63
g115
sg56
(lp126
S':'
asbag49
(g70
g51
NtRp127
(dp128
g54
(dp129
sg63
g115
sg56
(lp130
g49
(g50
g51
NtRp131
(dp132
g54
(dp133
g62
I5
ssg63
g127
sg56
(lp134
g49
(g58
g51
NtRp135
(dp136
g54
(dp137
g62
I4
ssg63
Nsg56
(lp138
sbasbasbasbag49
(g65
g51
NtRp139
(dp140
g54
(dp141
sg63
g59
sg56
(lp142
g49
(g70
g51
NtRp143
(dp144
g54
(dp145
g74
g75
ssg63
g139
sg56
(lp146
S'body'
p147
asbag49
(g70
g51
NtRp148
(dp149
g54
(dp150
g81
g82
ssg63
g139
sg56
(lp151
S':'
asbag49
(g70
g51
NtRp152
(dp153
g54
(dp154
sg63
g139
sg56
(lp155
g49
(g50
g51
NtRp156
(dp157
g54
(dp158
g62
I5
ssg63
g152
sg56
(lp159
S'<cStringIO.StringO object at 0xa34b180>'
p160
asbasbasbag49
(g65
g51
NtRp161
(dp162
g54
(dp163
sg63
g59
sg56
(lp164
g49
(g70
g51
NtRp165
(dp166
g54
(dp167
g74
g75
ssg63
g161
sg56
(lp168
S'client'
p169
asbag49
(g70
g51
NtRp170
(dp171
g54
(dp172
g81
g82
ssg63
g161
sg56
(lp173
S':'
asbag49
(g70
g51
NtRp174
(dp175
g54
(dp176
sg63
g161
sg56
(lp177
g49
(g50
g51
NtRp178
(dp179
g54
(dp180
g62
I5
ssg63
g174
sg56
(lp181
S'127.0.0.1'
p182
asbasbasbag49
(g65
g51
NtRp183
(dp184
g54
(dp185
sg63
g59
sg56
(lp186
g49
(g70
g51
NtRp187
(dp188
g54
(dp189
g74
g75
ssg63
g183
sg56
(lp190
S'controller'
p191
asbag49
(g70
g51
NtRp192
(dp193
g54
(dp194
g81
g82
ssg63
g183
sg56
(lp195
S':'
asbag49
(g70
g51
NtRp196
(dp197
g54
(dp198
sg63
g183
sg56
(lp199
g49
(g50
g51
NtRp200
(dp201
g54
(dp202
g62
I5
ssg63
g196
sg56
(lp203
S'default'
p204
asbasbasbag49
(g65
g51
NtRp205
(dp206
g54
(dp207
sg63
g59
sg56
(lp208
g49
(g70
g51
NtRp209
(dp210
g54
(dp211
g74
g75
ssg63
g205
sg56
(lp212
S'cookies'
p213
asbag49
(g70
g51
NtRp214
(dp215
g54
(dp216
g81
g82
ssg63
g205
sg56
(lp217
S':'
asbag49
(g70
g51
NtRp218
(dp219
g54
(dp220
sg63
g205
sg56
(lp221
g49
(g50
g51
NtRp222
(dp223
g54
(dp224
g62
I5
ssg63
g218
sg56
(lp225
g49
(g58
g51
NtRp226
(dp227
g54
(dp228
g62
I4
ssg63
Nsg56
(lp229
g49
(g65
g51
NtRp230
(dp231
g54
(dp232
sg63
g226
sg56
(lp233
g49
(g70
g51
NtRp234
(dp235
g54
(dp236
g74
g75
ssg63
g230
sg56
(lp237
S'session_id_admin'
p238
asbag49
(g70
g51
NtRp239
(dp240
g54
(dp241
g81
g82
ssg63
g230
sg56
(lp242
S':'
asbag49
(g70
g51
NtRp243
(dp244
g54
(dp245
sg63
g230
sg56
(lp246
g49
(g50
g51
NtRp247
(dp248
g54
(dp249
g62
I4
ssg63
g243
sg56
(lp250
g49
(g58
g51
NtRp251
(dp252
g54
(dp253
g62
I3
ssg63
Nsg56
(lp254
g49
(g65
g51
NtRp255
(dp256
g54
(dp257
sg63
g251
sg56
(lp258
g49
(g70
g51
NtRp259
(dp260
g54
(dp261
g74
g75
ssg63
g255
sg56
(lp262
S'comment'
p263
asbag49
(g70
g51
NtRp264
(dp265
g54
(dp266
g81
g82
ssg63
g255
sg56
(lp267
S':'
asbag49
(g70
g51
NtRp268
(dp269
g54
(dp270
sg63
g255
sg56
(lp271
g49
(g50
g51
NtRp272
(dp273
g54
(dp274
g62
I3
ssg63
g268
sg56
(lp275
S''
asbasbasbag49
(g65
g51
NtRp276
(dp277
g54
(dp278
sg63
g251
sg56
(lp279
g49
(g70
g51
NtRp280
(dp281
g54
(dp282
g74
g75
ssg63
g276
sg56
(lp283
S'domain'
p284
asbag49
(g70
g51
NtRp285
(dp286
g54
(dp287
g81
g82
ssg63
g276
sg56
(lp288
S':'
asbag49
(g70
g51
NtRp289
(dp290
g54
(dp291
sg63
g276
sg56
(lp292
g49
(g50
g51
NtRp293
(dp294
g54
(dp295
g62
I3
ssg63
g289
sg56
(lp296
S''
asbasbasbag49
(g65
g51
NtRp297
(dp298
g54
(dp299
sg63
g251
sg56
(lp300
g49
(g70
g51
NtRp301
(dp302
g54
(dp303
g74
g75
ssg63
g297
sg56
(lp304
S'expires'
p305
asbag49
(g70
g51
NtRp306
(dp307
g54
(dp308
g81
g82
ssg63
g297
sg56
(lp309
S':'
asbag49
(g70
g51
NtRp310
(dp311
g54
(dp312
sg63
g297
sg56
(lp313
g49
(g50
g51
NtRp314
(dp315
g54
(dp316
g62
I3
ssg63
g310
sg56
(lp317
S''
asbasbasbag49
(g65
g51
NtRp318
(dp319
g54
(dp320
sg63
g251
sg56
(lp321
g49
(g70
g51
NtRp322
(dp323
g54
(dp324
g74
g75
ssg63
g318
sg56
(lp325
S'max-age'
p326
asbag49
(g70
g51
NtRp327
(dp328
g54
(dp329
g81
g82
ssg63
g318
sg56
(lp330
S':'
asbag49
(g70
g51
NtRp331
(dp332
g54
(dp333
sg63
g318
sg56
(lp334
g49
(g50
g51
NtRp335
(dp336
g54
(dp337
g62
I3
ssg63
g331
sg56
(lp338
S''
asbasbasbag49
(g65
g51
NtRp339
(dp340
g54
(dp341
sg63
g251
sg56
(lp342
g49
(g70
g51
NtRp343
(dp344
g54
(dp345
g74
g75
ssg63
g339
sg56
(lp346
S'path'
p347
asbag49
(g70
g51
NtRp348
(dp349
g54
(dp350
g81
g82
ssg63
g339
sg56
(lp351
S':'
asbag49
(g70
g51
NtRp352
(dp353
g54
(dp354
sg63
g339
sg56
(lp355
g49
(g50
g51
NtRp356
(dp357
g54
(dp358
g62
I3
ssg63
g352
sg56
(lp359
S''
asbasbasbag49
(g65
g51
NtRp360
(dp361
g54
(dp362
sg63
g251
sg56
(lp363
g49
(g70
g51
NtRp364
(dp365
g54
(dp366
g74
g75
ssg63
g360
sg56
(lp367
S'secure'
p368
asbag49
(g70
g51
NtRp369
(dp370
g54
(dp371
g81
g82
ssg63
g360
sg56
(lp372
S':'
asbag49
(g70
g51
NtRp373
(dp374
g54
(dp375
sg63
g360
sg56
(lp376
g49
(g50
g51
NtRp377
(dp378
g54
(dp379
g62
I3
ssg63
g373
sg56
(lp380
S''
asbasbasbag49
(g65
g51
NtRp381
(dp382
g54
(dp383
sg63
g251
sg56
(lp384
g49
(g70
g51
NtRp385
(dp386
g54
(dp387
g74
g75
ssg63
g381
sg56
(lp388
S'version'
p389
asbag49
(g70
g51
NtRp390
(dp391
g54
(dp392
g81
g82
ssg63
g381
sg56
(lp393
S':'
asbag49
(g70
g51
NtRp394
(dp395
g54
(dp396
sg63
g381
sg56
(lp397
g49
(g50
g51
NtRp398
(dp399
g54
(dp400
g62
I3
ssg63
g394
sg56
(lp401
S''
asbasbasbasbasbasbasbag49
(g65
g51
NtRp402
(dp403
g54
(dp404
sg63
g226
sg56
(lp405
g49
(g70
g51
NtRp406
(dp407
g54
(dp408
g74
g75
ssg63
g402
sg56
(lp409
S'session_id_udi0312'
p410
asbag49
(g70
g51
NtRp411
(dp412
g54
(dp413
g81
g82
ssg63
g402
sg56
(lp414
S':'
asbag49
(g70
g51
NtRp415
(dp416
g54
(dp417
sg63
g402
sg56
(lp418
g49
(g50
g51
NtRp419
(dp420
g54
(dp421
g62
I4
ssg63
g415
sg56
(lp422
g49
(g58
g51
NtRp423
(dp424
g54
(dp425
g62
I3
ssg63
Nsg56
(lp426
g49
(g65
g51
NtRp427
(dp428
g54
(dp429
sg63
g423
sg56
(lp430
g49
(g70
g51
NtRp431
(dp432
g54
(dp433
g74
g75
ssg63
g427
sg56
(lp434
g263
asbag49
(g70
g51
NtRp435
(dp436
g54
(dp437
g81
g82
ssg63
g427
sg56
(lp438
S':'
asbag49
(g70
g51
NtRp439
(dp440
g54
(dp441
sg63
g427
sg56
(lp442
g49
(g50
g51
NtRp443
(dp444
g54
(dp445
g62
I3
ssg63
g439
sg56
(lp446
S''
asbasbasbag49
(g65
g51
NtRp447
(dp448
g54
(dp449
sg63
g423
sg56
(lp450
g49
(g70
g51
NtRp451
(dp452
g54
(dp453
g74
g75
ssg63
g447
sg56
(lp454
g284
asbag49
(g70
g51
NtRp455
(dp456
g54
(dp457
g81
g82
ssg63
g447
sg56
(lp458
S':'
asbag49
(g70
g51
NtRp459
(dp460
g54
(dp461
sg63
g447
sg56
(lp462
g49
(g50
g51
NtRp463
(dp464
g54
(dp465
g62
I3
ssg63
g459
sg56
(lp466
S''
asbasbasbag49
(g65
g51
NtRp467
(dp468
g54
(dp469
sg63
g423
sg56
(lp470
g49
(g70
g51
NtRp471
(dp472
g54
(dp473
g74
g75
ssg63
g467
sg56
(lp474
g305
asbag49
(g70
g51
NtRp475
(dp476
g54
(dp477
g81
g82
ssg63
g467
sg56
(lp478
S':'
asbag49
(g70
g51
NtRp479
(dp480
g54
(dp481
sg63
g467
sg56
(lp482
g49
(g50
g51
NtRp483
(dp484
g54
(dp485
g62
I3
ssg63
g479
sg56
(lp486
S''
asbasbasbag49
(g65
g51
NtRp487
(dp488
g54
(dp489
sg63
g423
sg56
(lp490
g49
(g70
g51
NtRp491
(dp492
g54
(dp493
g74
g75
ssg63
g487
sg56
(lp494
g326
asbag49
(g70
g51
NtRp495
(dp496
g54
(dp497
g81
g82
ssg63
g487
sg56
(lp498
S':'
asbag49
(g70
g51
NtRp499
(dp500
g54
(dp501
sg63
g487
sg56
(lp502
g49
(g50
g51
NtRp503
(dp504
g54
(dp505
g62
I3
ssg63
g499
sg56
(lp506
S''
asbasbasbag49
(g65
g51
NtRp507
(dp508
g54
(dp509
sg63
g423
sg56
(lp510
g49
(g70
g51
NtRp511
(dp512
g54
(dp513
g74
g75
ssg63
g507
sg56
(lp514
g347
asbag49
(g70
g51
NtRp515
(dp516
g54
(dp517
g81
g82
ssg63
g507
sg56
(lp518
S':'
asbag49
(g70
g51
NtRp519
(dp520
g54
(dp521
sg63
g507
sg56
(lp522
g49
(g50
g51
NtRp523
(dp524
g54
(dp525
g62
I3
ssg63
g519
sg56
(lp526
S''
asbasbasbag49
(g65
g51
NtRp527
(dp528
g54
(dp529
sg63
g423
sg56
(lp530
g49
(g70
g51
NtRp531
(dp532
g54
(dp533
g74
g75
ssg63
g527
sg56
(lp534
g368
asbag49
(g70
g51
NtRp535
(dp536
g54
(dp537
g81
g82
ssg63
g527
sg56
(lp538
S':'
asbag49
(g70
g51
NtRp539
(dp540
g54
(dp541
sg63
g527
sg56
(lp542
g49
(g50
g51
NtRp543
(dp544
g54
(dp545
g62
I3
ssg63
g539
sg56
(lp546
S''
asbasbasbag49
(g65
g51
NtRp547
(dp548
g54
(dp549
sg63
g423
sg56
(lp550
g49
(g70
g51
NtRp551
(dp552
g54
(dp553
g74
g75
ssg63
g547
sg56
(lp554
g389
asbag49
(g70
g51
NtRp555
(dp556
g54
(dp557
g81
g82
ssg63
g547
sg56
(lp558
S':'
asbag49
(g70
g51
NtRp559
(dp560
g54
(dp561
sg63
g547
sg56
(lp562
g49
(g50
g51
NtRp563
(dp564
g54
(dp565
g62
I3
ssg63
g559
sg56
(lp566
S''
asbasbasbasbasbasbasbasbasbasbasbag49
(g65
g51
NtRp567
(dp568
g54
(dp569
sg63
g59
sg56
(lp570
g49
(g70
g51
NtRp571
(dp572
g54
(dp573
g74
g75
ssg63
g567
sg56
(lp574
S'env'
p575
asbag49
(g70
g51
NtRp576
(dp577
g54
(dp578
g81
g82
ssg63
g567
sg56
(lp579
S':'
asbag49
(g70
g51
NtRp580
(dp581
g54
(dp582
sg63
g567
sg56
(lp583
g49
(g50
g51
NtRp584
(dp585
g54
(dp586
g62
I5
ssg63
g580
sg56
(lp587
g49
(g58
g51
NtRp588
(dp589
g54
(dp590
g62
I4
ssg63
Nsg56
(lp591
g49
(g65
g51
NtRp592
(dp593
g54
(dp594
sg63
g588
sg56
(lp595
g49
(g70
g51
NtRp596
(dp597
g54
(dp598
g74
g75
ssg63
g592
sg56
(lp599
S'app_folders'
p600
asbag49
(g70
g51
NtRp601
(dp602
g54
(dp603
g81
g82
ssg63
g592
sg56
(lp604
S':'
asbag49
(g70
g51
NtRp605
(dp606
g54
(dp607
sg63
g592
sg56
(lp608
g49
(g50
g51
NtRp609
(dp610
g54
(dp611
g62
I4
ssg63
g605
sg56
(lp612
S"set(['/Users/udimilo/Documents/web2py/applications/udi0312/', '/Users/udimilo/Documents/web2py/applications/admin/'])"
p613
asbasbasbag49
(g65
g51
NtRp614
(dp615
g54
(dp616
sg63
g588
sg56
(lp617
g49
(g70
g51
NtRp618
(dp619
g54
(dp620
g74
g75
ssg63
g614
sg56
(lp621
S'applications_parent'
p622
asbag49
(g70
g51
NtRp623
(dp624
g54
(dp625
g81
g82
ssg63
g614
sg56
(lp626
S':'
asbag49
(g70
g51
NtRp627
(dp628
g54
(dp629
sg63
g614
sg56
(lp630
g49
(g50
g51
NtRp631
(dp632
g54
(dp633
g62
I4
ssg63
g627
sg56
(lp634
S'/Users/udimilo/Documents/web2py'
p635
asbasbasbag49
(g65
g51
NtRp636
(dp637
g54
(dp638
sg63
g588
sg56
(lp639
g49
(g70
g51
NtRp640
(dp641
g54
(dp642
g74
g75
ssg63
g636
sg56
(lp643
S'cmd_args'
p644
asbag49
(g70
g51
NtRp645
(dp646
g54
(dp647
g81
g82
ssg63
g636
sg56
(lp648
S':'
asbag49
(g70
g51
NtRp649
(dp650
g54
(dp651
sg63
g636
sg56
(lp652
g49
(g50
g51
NtRp653
(dp654
g54
(dp655
g62
I4
ssg63
g649
sg56
(lp656
g49
(g58
g51
NtRp657
(dp658
g54
(dp659
g62
I3
ssg63
Nsg56
(lp660
sbasbasbasbag49
(g65
g51
NtRp661
(dp662
g54
(dp663
sg63
g588
sg56
(lp664
g49
(g70
g51
NtRp665
(dp666
g54
(dp667
g74
g75
ssg63
g661
sg56
(lp668
S'cmd_options'
p669
asbag49
(g70
g51
NtRp670
(dp671
g54
(dp672
g81
g82
ssg63
g661
sg56
(lp673
S':'
asbag49
(g70
g51
NtRp674
(dp675
g54
(dp676
sg63
g661
sg56
(lp677
g49
(g50
g51
NtRp678
(dp679
g54
(dp680
g62
I4
ssg63
g674
sg56
(lp681
S"<Values at 0x23301c0: {'verbose': False, 'ip': '127.0.0.1', 'shutdown_timeout': 5, 'taskbar': False, 'nocron': False, 'pid_filename': 'httpserver.pid', 'maxthreads': None, 'softcron': False, 'server_name': 'udi-milos-macbook-pro.fritz.box', 'bpython': False, 'nogui': False, 'port': 8000, 'extcron': False, 'debuglevel': 30, 'test': None, 'folder': '/Users/udimilo/Documents/web2py', 'config': '', 'import_models': False, 'winservice': '', 'shell': None, 'run': '', 'log_filename': 'httpserver.log', 'args': [''], 'socket_timeout': 5, 'ssl_ca_certificate': None, 'scheduler': None, 'profiler_filename': None, 'ssl_private_key': '', 'password': '<ask>', 'request_queue_size': 5, 'ssl_certificate': '', 'cronjob': False, 'numthreads': None, 'quiet': False, 'interfaces': None, 'minthreads': None, 'timeout': 10, 'plain': False, 'nobanner': False}>"
p682
asbasbasbag49
(g65
g51
NtRp683
(dp684
g54
(dp685
sg63
g588
sg56
(lp686
g49
(g70
g51
NtRp687
(dp688
g54
(dp689
g74
g75
ssg63
g683
sg56
(lp690
S'db_sessions'
p691
asbag49
(g70
g51
NtRp692
(dp693
g54
(dp694
g81
g82
ssg63
g683
sg56
(lp695
S':'
asbag49
(g70
g51
NtRp696
(dp697
g54
(dp698
sg63
g683
sg56
(lp699
g49
(g50
g51
NtRp700
(dp701
g54
(dp702
g62
I4
ssg63
g696
sg56
(lp703
S'set([])'
p704
asbasbasbag49
(g65
g51
NtRp705
(dp706
g54
(dp707
sg63
g588
sg56
(lp708
g49
(g70
g51
NtRp709
(dp710
g54
(dp711
g74
g75
ssg63
g705
sg56
(lp712
S'debugging'
p713
asbag49
(g70
g51
NtRp714
(dp715
g54
(dp716
g81
g82
ssg63
g705
sg56
(lp717
S':'
asbag49
(g70
g51
NtRp718
(dp719
g54
(dp720
sg63
g705
sg56
(lp721
g49
(g50
g51
NtRp722
(dp723
g54
(dp724
g62
I4
ssg63
g718
sg56
(lp725
g92
asbasbasbag49
(g65
g51
NtRp726
(dp727
g54
(dp728
sg63
g588
sg56
(lp729
g49
(g70
g51
NtRp730
(dp731
g54
(dp732
g74
g75
ssg63
g726
sg56
(lp733
S'gluon_parent'
p734
asbag49
(g70
g51
NtRp735
(dp736
g54
(dp737
g81
g82
ssg63
g726
sg56
(lp738
S':'
asbag49
(g70
g51
NtRp739
(dp740
g54
(dp741
sg63
g726
sg56
(lp742
g49
(g50
g51
NtRp743
(dp744
g54
(dp745
g62
I4
ssg63
g739
sg56
(lp746
S'/Users/udimilo/Documents/web2py'
p747
asbasbasbag49
(g65
g51
NtRp748
(dp749
g54
(dp750
sg63
g588
sg56
(lp751
g49
(g70
g51
NtRp752
(dp753
g54
(dp754
g74
g75
ssg63
g748
sg56
(lp755
S'http_accept'
p756
asbag49
(g70
g51
NtRp757
(dp758
g54
(dp759
g81
g82
ssg63
g748
sg56
(lp760
S':'
asbag49
(g70
g51
NtRp761
(dp762
g54
(dp763
sg63
g748
sg56
(lp764
g49
(g50
g51
NtRp765
(dp766
g54
(dp767
g62
I4
ssg63
g761
sg56
(lp768
S'text/html,application/xhtml+xml,application/xml;q=0.9,*/*;q=0.8'
p769
asbasbasbag49
(g65
g51
NtRp770
(dp771
g54
(dp772
sg63
g588
sg56
(lp773
g49
(g70
g51
NtRp774
(dp775
g54
(dp776
g74
g75
ssg63
g770
sg56
(lp777
S'http_accept_charset'
p778
asbag49
(g70
g51
NtRp779
(dp780
g54
(dp781
g81
g82
ssg63
g770
sg56
(lp782
S':'
asbag49
(g70
g51
NtRp783
(dp784
g54
(dp785
sg63
g770
sg56
(lp786
g49
(g50
g51
NtRp787
(dp788
g54
(dp789
g62
I4
ssg63
g783
sg56
(lp790
S'ISO-8859-1,utf-8;q=0.7,*;q=0.3'
p791
asbasbasbag49
(g65
g51
NtRp792
(dp793
g54
(dp794
sg63
g588
sg56
(lp795
g49
(g70
g51
NtRp796
(dp797
g54
(dp798
g74
g75
ssg63
g792
sg56
(lp799
S'http_accept_encoding'
p800
asbag49
(g70
g51
NtRp801
(dp802
g54
(dp803
g81
g82
ssg63
g792
sg56
(lp804
S':'
asbag49
(g70
g51
NtRp805
(dp806
g54
(dp807
sg63
g792
sg56
(lp808
g49
(g50
g51
NtRp809
(dp810
g54
(dp811
g62
I4
ssg63
g805
sg56
(lp812
S'gzip,deflate,sdch'
p813
asbasbasbag49
(g65
g51
NtRp814
(dp815
g54
(dp816
sg63
g588
sg56
(lp817
g49
(g70
g51
NtRp818
(dp819
g54
(dp820
g74
g75
ssg63
g814
sg56
(lp821
S'http_accept_language'
p822
asbag49
(g70
g51
NtRp823
(dp824
g54
(dp825
g81
g82
ssg63
g814
sg56
(lp826
S':'
asbag49
(g70
g51
NtRp827
(dp828
g54
(dp829
sg63
g814
sg56
(lp830
g49
(g50
g51
NtRp831
(dp832
g54
(dp833
g62
I4
ssg63
g827
sg56
(lp834
S'en-US,en;q=0.8'
p835
asbasbasbag49
(g65
g51
NtRp836
(dp837
g54
(dp838
sg63
g588
sg56
(lp839
g49
(g70
g51
NtRp840
(dp841
g54
(dp842
g74
g75
ssg63
g836
sg56
(lp843
S'http_cache_control'
p844
asbag49
(g70
g51
NtRp845
(dp846
g54
(dp847
g81
g82
ssg63
g836
sg56
(lp848
S':'
asbag49
(g70
g51
NtRp849
(dp850
g54
(dp851
sg63
g836
sg56
(lp852
g49
(g50
g51
NtRp853
(dp854
g54
(dp855
g62
I4
ssg63
g849
sg56
(lp856
S'max-age=0'
p857
asbasbasbag49
(g65
g51
NtRp858
(dp859
g54
(dp860
sg63
g588
sg56
(lp861
g49
(g70
g51
NtRp862
(dp863
g54
(dp864
g74
g75
ssg63
g858
sg56
(lp865
S'http_connection'
p866
asbag49
(g70
g51
NtRp867
(dp868
g54
(dp869
g81
g82
ssg63
g858
sg56
(lp870
S':'
asbag49
(g70
g51
NtRp871
(dp872
g54
(dp873
sg63
g858
sg56
(lp874
g49
(g50
g51
NtRp875
(dp876
g54
(dp877
g62
I4
ssg63
g871
sg56
(lp878
S'keep-alive'
p879
asbasbasbag49
(g65
g51
NtRp880
(dp881
g54
(dp882
sg63
g588
sg56
(lp883
g49
(g70
g51
NtRp884
(dp885
g54
(dp886
g74
g75
ssg63
g880
sg56
(lp887
S'http_cookie'
p888
asbag49
(g70
g51
NtRp889
(dp890
g54
(dp891
g81
g82
ssg63
g880
sg56
(lp892
S':'
asbag49
(g70
g51
NtRp893
(dp894
g54
(dp895
sg63
g880
sg56
(lp896
g49
(g50
g51
NtRp897
(dp898
g54
(dp899
g62
I4
ssg63
g893
sg56
(lp900
S'session_id_udi0312=127.0.0.1-fcd6a577-d448-4882-b7bc-f353da84ba3b; session_id_admin=127.0.0.1-1c2f8ac3-a0a0-4841-86df-ee9dcb829652'
p901
asbasbasbag49
(g65
g51
NtRp902
(dp903
g54
(dp904
sg63
g588
sg56
(lp905
g49
(g70
g51
NtRp906
(dp907
g54
(dp908
g74
g75
ssg63
g902
sg56
(lp909
S'http_host'
p910
asbag49
(g70
g51
NtRp911
(dp912
g54
(dp913
g81
g82
ssg63
g902
sg56
(lp914
S':'
asbag49
(g70
g51
NtRp915
(dp916
g54
(dp917
sg63
g902
sg56
(lp918
g49
(g50
g51
NtRp919
(dp920
g54
(dp921
g62
I4
ssg63
g915
sg56
(lp922
S'127.0.0.1:8000'
p923
asbasbasbag49
(g65
g51
NtRp924
(dp925
g54
(dp926
sg63
g588
sg56
(lp927
g49
(g70
g51
NtRp928
(dp929
g54
(dp930
g74
g75
ssg63
g924
sg56
(lp931
S'http_user_agent'
p932
asbag49
(g70
g51
NtRp933
(dp934
g54
(dp935
g81
g82
ssg63
g924
sg56
(lp936
S':'
asbag49
(g70
g51
NtRp937
(dp938
g54
(dp939
sg63
g924
sg56
(lp940
g49
(g50
g51
NtRp941
(dp942
g54
(dp943
g62
I4
ssg63
g937
sg56
(lp944
S'Mozilla/5.0 (Macintosh; Intel Mac OS X 10_7_3) AppleWebKit/535.11 (KHTML, like Gecko) Chrome/17.0.963.78 Safari/535.11'
p945
asbasbasbag49
(g65
g51
NtRp946
(dp947
g54
(dp948
sg63
g588
sg56
(lp949
g49
(g70
g51
NtRp950
(dp951
g54
(dp952
g74
g75
ssg63
g946
sg56
(lp953
S'is_jython'
p954
asbag49
(g70
g51
NtRp955
(dp956
g54
(dp957
g81
g82
ssg63
g946
sg56
(lp958
S':'
asbag49
(g70
g51
NtRp959
(dp960
g54
(dp961
sg63
g946
sg56
(lp962
g49
(g50
g51
NtRp963
(dp964
g54
(dp965
g62
I4
ssg63
g959
sg56
(lp966
g92
asbasbasbag49
(g65
g51
NtRp967
(dp968
g54
(dp969
sg63
g588
sg56
(lp970
g49
(g70
g51
NtRp971
(dp972
g54
(dp973
g74
g75
ssg63
g967
sg56
(lp974
S'is_pypy'
p975
asbag49
(g70
g51
NtRp976
(dp977
g54
(dp978
g81
g82
ssg63
g967
sg56
(lp979
S':'
asbag49
(g70
g51
NtRp980
(dp981
g54
(dp982
sg63
g967
sg56
(lp983
g49
(g50
g51
NtRp984
(dp985
g54
(dp986
g62
I4
ssg63
g980
sg56
(lp987
g92
asbasbasbag49
(g65
g51
NtRp988
(dp989
g54
(dp990
sg63
g588
sg56
(lp991
g49
(g70
g51
NtRp992
(dp993
g54
(dp994
g74
g75
ssg63
g988
sg56
(lp995
S'path_info'
p996
asbag49
(g70
g51
NtRp997
(dp998
g54
(dp999
g81
g82
ssg63
g988
sg56
(lp1000
S':'
asbag49
(g70
g51
NtRp1001
(dp1002
g54
(dp1003
sg63
g988
sg56
(lp1004
g49
(g50
g51
NtRp1005
(dp1006
g54
(dp1007
g62
I4
ssg63
g1001
sg56
(lp1008
S'/'
asbasbasbag49
(g65
g51
NtRp1009
(dp1010
g54
(dp1011
sg63
g588
sg56
(lp1012
g49
(g70
g51
NtRp1013
(dp1014
g54
(dp1015
g74
g75
ssg63
g1009
sg56
(lp1016
S'query_string'
p1017
asbag49
(g70
g51
NtRp1018
(dp1019
g54
(dp1020
g81
g82
ssg63
g1009
sg56
(lp1021
S':'
asbag49
(g70
g51
NtRp1022
(dp1023
g54
(dp1024
sg63
g1009
sg56
(lp1025
g49
(g50
g51
NtRp1026
(dp1027
g54
(dp1028
g62
I4
ssg63
g1022
sg56
(lp1029
S''
asbasbasbag49
(g65
g51
NtRp1030
(dp1031
g54
(dp1032
sg63
g588
sg56
(lp1033
g49
(g70
g51
NtRp1034
(dp1035
g54
(dp1036
g74
g75
ssg63
g1030
sg56
(lp1037
S'remote_addr'
p1038
asbag49
(g70
g51
NtRp1039
(dp1040
g54
(dp1041
g81
g82
ssg63
g1030
sg56
(lp1042
S':'
asbag49
(g70
g51
NtRp1043
(dp1044
g54
(dp1045
sg63
g1030
sg56
(lp1046
g49
(g50
g51
NtRp1047
(dp1048
g54
(dp1049
g62
I4
ssg63
g1043
sg56
(lp1050
g182
asbasbasbag49
(g65
g51
NtRp1051
(dp1052
g54
(dp1053
sg63
g588
sg56
(lp1054
g49
(g70
g51
NtRp1055
(dp1056
g54
(dp1057
g74
g75
ssg63
g1051
sg56
(lp1058
S'remote_port'
p1059
asbag49
(g70
g51
NtRp1060
(dp1061
g54
(dp1062
g81
g82
ssg63
g1051
sg56
(lp1063
S':'
asbag49
(g70
g51
NtRp1064
(dp1065
g54
(dp1066
sg63
g1051
sg56
(lp1067
g49
(g50
g51
NtRp1068
(dp1069
g54
(dp1070
g62
I4
ssg63
g1064
sg56
(lp1071
S'51332'
p1072
asbasbasbag49
(g65
g51
NtRp1073
(dp1074
g54
(dp1075
sg63
g588
sg56
(lp1076
g49
(g70
g51
NtRp1077
(dp1078
g54
(dp1079
g74
g75
ssg63
g1073
sg56
(lp1080
S'request_method'
p1081
asbag49
(g70
g51
NtRp1082
(dp1083
g54
(dp1084
g81
g82
ssg63
g1073
sg56
(lp1085
S':'
asbag49
(g70
g51
NtRp1086
(dp1087
g54
(dp1088
sg63
g1073
sg56
(lp1089
g49
(g50
g51
NtRp1090
(dp1091
g54
(dp1092
g62
I4
ssg63
g1086
sg56
(lp1093
S'GET'
p1094
asbasbasbag49
(g65
g51
NtRp1095
(dp1096
g54
(dp1097
sg63
g588
sg56
(lp1098
g49
(g70
g51
NtRp1099
(dp1100
g54
(dp1101
g74
g75
ssg63
g1095
sg56
(lp1102
S'request_uri'
p1103
asbag49
(g70
g51
NtRp1104
(dp1105
g54
(dp1106
g81
g82
ssg63
g1095
sg56
(lp1107
S':'
asbag49
(g70
g51
NtRp1108
(dp1109
g54
(dp1110
sg63
g1095
sg56
(lp1111
g49
(g50
g51
NtRp1112
(dp1113
g54
(dp1114
g62
I4
ssg63
g1108
sg56
(lp1115
S'/udi0312/default/index'
p1116
asbasbasbag49
(g65
g51
NtRp1117
(dp1118
g54
(dp1119
sg63
g588
sg56
(lp1120
g49
(g70
g51
NtRp1121
(dp1122
g54
(dp1123
g74
g75
ssg63
g1117
sg56
(lp1124
S'script_name'
p1125
asbag49
(g70
g51
NtRp1126
(dp1127
g54
(dp1128
g81
g82
ssg63
g1117
sg56
(lp1129
S':'
asbag49
(g70
g51
NtRp1130
(dp1131
g54
(dp1132
sg63
g1117
sg56
(lp1133
g49
(g50
g51
NtRp1134
(dp1135
g54
(dp1136
g62
I4
ssg63
g1130
sg56
(lp1137
S''
asbasbasbag49
(g65
g51
NtRp1138
(dp1139
g54
(dp1140
sg63
g588
sg56
(lp1141
g49
(g70
g51
NtRp1142
(dp1143
g54
(dp1144
g74
g75
ssg63
g1138
sg56
(lp1145
S'server_name'
p1146
asbag49
(g70
g51
NtRp1147
(dp1148
g54
(dp1149
g81
g82
ssg63
g1138
sg56
(lp1150
S':'
asbag49
(g70
g51
NtRp1151
(dp1152
g54
(dp1153
sg63
g1138
sg56
(lp1154
g49
(g50
g51
NtRp1155
(dp1156
g54
(dp1157
g62
I4
ssg63
g1151
sg56
(lp1158
S'udi-milos-macbook-pro.fritz.box'
p1159
asbasbasbag49
(g65
g51
NtRp1160
(dp1161
g54
(dp1162
sg63
g588
sg56
(lp1163
g49
(g70
g51
NtRp1164
(dp1165
g54
(dp1166
g74
g75
ssg63
g1160
sg56
(lp1167
S'server_port'
p1168
asbag49
(g70
g51
NtRp1169
(dp1170
g54
(dp1171
g81
g82
ssg63
g1160
sg56
(lp1172
S':'
asbag49
(g70
g51
NtRp1173
(dp1174
g54
(dp1175
sg63
g1160
sg56
(lp1176
g49
(g50
g51
NtRp1177
(dp1178
g54
(dp1179
g62
I4
ssg63
g1173
sg56
(lp1180
S'8000'
p1181
asbasbasbag49
(g65
g51
NtRp1182
(dp1183
g54
(dp1184
sg63
g588
sg56
(lp1185
g49
(g70
g51
NtRp1186
(dp1187
g54
(dp1188
g74
g75
ssg63
g1182
sg56
(lp1189
S'server_protocol'
p1190
asbag49
(g70
g51
NtRp1191
(dp1192
g54
(dp1193
g81
g82
ssg63
g1182
sg56
(lp1194
S':'
asbag49
(g70
g51
NtRp1195
(dp1196
g54
(dp1197
sg63
g1182
sg56
(lp1198
g49
(g50
g51
NtRp1199
(dp1200
g54
(dp1201
g62
I4
ssg63
g1195
sg56
(lp1202
S'HTTP/1.1'
p1203
asbasbasbag49
(g65
g51
NtRp1204
(dp1205
g54
(dp1206
sg63
g588
sg56
(lp1207
g49
(g70
g51
NtRp1208
(dp1209
g54
(dp1210
g74
g75
ssg63
g1204
sg56
(lp1211
S'server_software'
p1212
asbag49
(g70
g51
NtRp1213
(dp1214
g54
(dp1215
g81
g82
ssg63
g1204
sg56
(lp1216
S':'
asbag49
(g70
g51
NtRp1217
(dp1218
g54
(dp1219
sg63
g1204
sg56
(lp1220
g49
(g50
g51
NtRp1221
(dp1222
g54
(dp1223
g62
I4
ssg63
g1217
sg56
(lp1224
S'Rocket 1.2.4'
p1225
asbasbasbag49
(g65
g51
NtRp1226
(dp1227
g54
(dp1228
sg63
g588
sg56
(lp1229
g49
(g70
g51
NtRp1230
(dp1231
g54
(dp1232
g74
g75
ssg63
g1226
sg56
(lp1233
S'web2py_crontype'
p1234
asbag49
(g70
g51
NtRp1235
(dp1236
g54
(dp1237
g81
g82
ssg63
g1226
sg56
(lp1238
S':'
asbag49
(g70
g51
NtRp1239
(dp1240
g54
(dp1241
sg63
g1226
sg56
(lp1242
g49
(g50
g51
NtRp1243
(dp1244
g54
(dp1245
g62
I4
ssg63
g1239
sg56
(lp1246
S'hard'
p1247
asbasbasbag49
(g65
g51
NtRp1248
(dp1249
g54
(dp1250
sg63
g588
sg56
(lp1251
g49
(g70
g51
NtRp1252
(dp1253
g54
(dp1254
g74
g75
ssg63
g1248
sg56
(lp1255
S'web2py_original_uri'
p1256
asbag49
(g70
g51
NtRp1257
(dp1258
g54
(dp1259
g81
g82
ssg63
g1248
sg56
(lp1260
S':'
asbag49
(g70
g51
NtRp1261
(dp1262
g54
(dp1263
sg63
g1248
sg56
(lp1264
g49
(g50
g51
NtRp1265
(dp1266
g54
(dp1267
g62
I4
ssg63
g1261
sg56
(lp1268
S'/'
asbasbasbag49
(g65
g51
NtRp1269
(dp1270
g54
(dp1271
sg63
g588
sg56
(lp1272
g49
(g70
g51
NtRp1273
(dp1274
g54
(dp1275
g74
g75
ssg63
g1269
sg56
(lp1276
S'web2py_path'
p1277
asbag49
(g70
g51
NtRp1278
(dp1279
g54
(dp1280
g81
g82
ssg63
g1269
sg56
(lp1281
S':'
asbag49
(g70
g51
NtRp1282
(dp1283
g54
(dp1284
sg63
g1269
sg56
(lp1285
g49
(g50
g51
NtRp1286
(dp1287
g54
(dp1288
g62
I4
ssg63
g1282
sg56
(lp1289
g635
asbasbasbag49
(g65
g51
NtRp1290
(dp1291
g54
(dp1292
sg63
g588
sg56
(lp1293
g49
(g70
g51
NtRp1294
(dp1295
g54
(dp1296
g74
g75
ssg63
g1290
sg56
(lp1297
S'web2py_version'
p1298
asbag49
(g70
g51
NtRp1299
(dp1300
g54
(dp1301
g81
g82
ssg63
g1290
sg56
(lp1302
S':'
asbag49
(g70
g51
NtRp1303
(dp1304
g54
(dp1305
sg63
g1290
sg56
(lp1306
g49
(g50
g51
NtRp1307
(dp1308
g54
(dp1309
g62
I4
ssg63
g1303
sg56
(lp1310
g49
(g58
g51
NtRp1311
(dp1312
g54
(dp1313
g62
I3
ssg63
Nsg56
(lp1314
g49
(g65
g51
NtRp1315
(dp1316
g54
(dp1317
sg63
g1311
sg56
(lp1318
g49
(g70
g51
NtRp1319
(dp1320
g54
(dp1321
sg63
g1315
sg56
(lp1322
g49
(g50
g51
NtRp1323
(dp1324
g54
(dp1325
g62
I3
ssg63
g1319
sg56
(lp1326
S'1'
asbasbasbag49
(g65
g51
NtRp1327
(dp1328
g54
(dp1329
sg63
g1311
sg56
(lp1330
g49
(g70
g51
NtRp1331
(dp1332
g54
(dp1333
sg63
g1327
sg56
(lp1334
g49
(g50
g51
NtRp1335
(dp1336
g54
(dp1337
g62
I3
ssg63
g1331
sg56
(lp1338
S'99'
p1339
asbasbasbag49
(g65
g51
NtRp1340
(dp1341
g54
(dp1342
sg63
g1311
sg56
(lp1343
g49
(g70
g51
NtRp1344
(dp1345
g54
(dp1346
sg63
g1340
sg56
(lp1347
g49
(g50
g51
NtRp1348
(dp1349
g54
(dp1350
g62
I3
ssg63
g1344
sg56
(lp1351
S'7'
asbasbasbag49
(g65
g51
NtRp1352
(dp1353
g54
(dp1354
sg63
g1311
sg56
(lp1355
g49
(g70
g51
NtRp1356
(dp1357
g54
(dp1358
sg63
g1352
sg56
(lp1359
g49
(g50
g51
NtRp1360
(dp1361
g54
(dp1362
g62
I3
ssg63
g1356
sg56
(lp1363
S'datetime.datetime(2012, 3, 4, 22, 12, 8)'
p1364
asbasbasbag49
(g65
g51
NtRp1365
(dp1366
g54
(dp1367
sg63
g1311
sg56
(lp1368
g49
(g70
g51
NtRp1369
(dp1370
g54
(dp1371
sg63
g1365
sg56
(lp1372
g49
(g50
g51
NtRp1373
(dp1374
g54
(dp1375
g62
I3
ssg63
g1369
sg56
(lp1376
S'stable'
p1377
asbasbasbasbasbasbasbag49
(g65
g51
NtRp1378
(dp1379
g54
(dp1380
sg63
g588
sg56
(lp1381
g49
(g70
g51
NtRp1382
(dp1383
g54
(dp1384
g74
g75
ssg63
g1378
sg56
(lp1385
S'wsgi_errors'
p1386
asbag49
(g70
g51
NtRp1387
(dp1388
g54
(dp1389
g81
g82
ssg63
g1378
sg56
(lp1390
S':'
asbag49
(g70
g51
NtRp1391
(dp1392
g54
(dp1393
sg63
g1378
sg56
(lp1394
g49
(g50
g51
NtRp1395
(dp1396
g54
(dp1397
g62
I4
ssg63
g1391
sg56
(lp1398
S"<open file '<stderr>', mode 'w' at 0x4220b0>"
p1399
asbasbasbag49
(g65
g51
NtRp1400
(dp1401
g54
(dp1402
sg63
g588
sg56
(lp1403
g49
(g70
g51
NtRp1404
(dp1405
g54
(dp1406
g74
g75
ssg63
g1400
sg56
(lp1407
S'wsgi_file_wrapper'
p1408
asbag49
(g70
g51
NtRp1409
(dp1410
g54
(dp1411
g81
g82
ssg63
g1400
sg56
(lp1412
S':'
asbag49
(g70
g51
NtRp1413
(dp1414
g54
(dp1415
sg63
g1400
sg56
(lp1416
g49
(g50
g51
NtRp1417
(dp1418
g54
(dp1419
g62
I4
ssg63
g1413
sg56
(lp1420
S'<class wsgiref.util.FileWrapper at 0x22746c0>'
p1421
asbasbasbag49
(g65
g51
NtRp1422
(dp1423
g54
(dp1424
sg63
g588
sg56
(lp1425
g49
(g70
g51
NtRp1426
(dp1427
g54
(dp1428
g74
g75
ssg63
g1422
sg56
(lp1429
S'wsgi_input'
p1430
asbag49
(g70
g51
NtRp1431
(dp1432
g54
(dp1433
g81
g82
ssg63
g1422
sg56
(lp1434
S':'
asbag49
(g70
g51
NtRp1435
(dp1436
g54
(dp1437
sg63
g1422
sg56
(lp1438
g49
(g50
g51
NtRp1439
(dp1440
g54
(dp1441
g62
I4
ssg63
g1435
sg56
(lp1442
S'<socket._fileobject object at 0xa212070>'
p1443
asbasbasbag49
(g65
g51
NtRp1444
(dp1445
g54
(dp1446
sg63
g588
sg56
(lp1447
g49
(g70
g51
NtRp1448
(dp1449
g54
(dp1450
g74
g75
ssg63
g1444
sg56
(lp1451
S'wsgi_multiprocess'
p1452
asbag49
(g70
g51
NtRp1453
(dp1454
g54
(dp1455
g81
g82
ssg63
g1444
sg56
(lp1456
S':'
asbag49
(g70
g51
NtRp1457
(dp1458
g54
(dp1459
sg63
g1444
sg56
(lp1460
g49
(g50
g51
NtRp1461
(dp1462
g54
(dp1463
g62
I4
ssg63
g1457
sg56
(lp1464
g92
asbasbasbag49
(g65
g51
NtRp1465
(dp1466
g54
(dp1467
sg63
g588
sg56
(lp1468
g49
(g70
g51
NtRp1469
(dp1470
g54
(dp1471
g74
g75
ssg63
g1465
sg56
(lp1472
S'wsgi_multithread'
p1473
asbag49
(g70
g51
NtRp1474
(dp1475
g54
(dp1476
g81
g82
ssg63
g1465
sg56
(lp1477
S':'
asbag49
(g70
g51
NtRp1478
(dp1479
g54
(dp1480
sg63
g1465
sg56
(lp1481
g49
(g50
g51
NtRp1482
(dp1483
g54
(dp1484
g62
I4
ssg63
g1478
sg56
(lp1485
S'True'
p1486
asbasbasbag49
(g65
g51
NtRp1487
(dp1488
g54
(dp1489
sg63
g588
sg56
(lp1490
g49
(g70
g51
NtRp1491
(dp1492
g54
(dp1493
g74
g75
ssg63
g1487
sg56
(lp1494
S'wsgi_run_once'
p1495
asbag49
(g70
g51
NtRp1496
(dp1497
g54
(dp1498
g81
g82
ssg63
g1487
sg56
(lp1499
S':'
asbag49
(g70
g51
NtRp1500
(dp1501
g54
(dp1502
sg63
g1487
sg56
(lp1503
g49
(g50
g51
NtRp1504
(dp1505
g54
(dp1506
g62
I4
ssg63
g1500
sg56
(lp1507
g92
asbasbasbag49
(g65
g51
NtRp1508
(dp1509
g54
(dp1510
sg63
g588
sg56
(lp1511
g49
(g70
g51
NtRp1512
(dp1513
g54
(dp1514
g74
g75
ssg63
g1508
sg56
(lp1515
S'wsgi_url_scheme'
p1516
asbag49
(g70
g51
NtRp1517
(dp1518
g54
(dp1519
g81
g82
ssg63
g1508
sg56
(lp1520
S':'
asbag49
(g70
g51
NtRp1521
(dp1522
g54
(dp1523
sg63
g1508
sg56
(lp1524
g49
(g50
g51
NtRp1525
(dp1526
g54
(dp1527
g62
I4
ssg63
g1521
sg56
(lp1528
S'http'
p1529
asbasbasbag49
(g65
g51
NtRp1530
(dp1531
g54
(dp1532
sg63
g588
sg56
(lp1533
g49
(g70
g51
NtRp1534
(dp1535
g54
(dp1536
g74
g75
ssg63
g1530
sg56
(lp1537
S'wsgi_version'
p1538
asbag49
(g70
g51
NtRp1539
(dp1540
g54
(dp1541
g81
g82
ssg63
g1530
sg56
(lp1542
S':'
asbag49
(g70
g51
NtRp1543
(dp1544
g54
(dp1545
sg63
g1530
sg56
(lp1546
g49
(g50
g51
NtRp1547
(dp1548
g54
(dp1549
g62
I4
ssg63
g1543
sg56
(lp1550
g49
(g58
g51
NtRp1551
(dp1552
g54
(dp1553
g62
I3
ssg63
Nsg56
(lp1554
g49
(g65
g51
NtRp1555
(dp1556
g54
(dp1557
sg63
g1551
sg56
(lp1558
g49
(g70
g51
NtRp1559
(dp1560
g54
(dp1561
sg63
g1555
sg56
(lp1562
g49
(g50
g51
NtRp1563
(dp1564
g54
(dp1565
g62
I3
ssg63
g1559
sg56
(lp1566
S'1'
asbasbasbag49
(g65
g51
NtRp1567
(dp1568
g54
(dp1569
sg63
g1551
sg56
(lp1570
g49
(g70
g51
NtRp1571
(dp1572
g54
(dp1573
sg63
g1567
sg56
(lp1574
g49
(g50
g51
NtRp1575
(dp1576
g54
(dp1577
g62
I3
ssg63
g1571
sg56
(lp1578
S'0'
asbasbasbasbasbasbasbasbasbasbasbag49
(g65
g51
NtRp1579
(dp1580
g54
(dp1581
sg63
g59
sg56
(lp1582
g49
(g70
g51
NtRp1583
(dp1584
g54
(dp1585
g74
g75
ssg63
g1579
sg56
(lp1586
S'extension'
p1587
asbag49
(g70
g51
NtRp1588
(dp1589
g54
(dp1590
g81
g82
ssg63
g1579
sg56
(lp1591
S':'
asbag49
(g70
g51
NtRp1592
(dp1593
g54
(dp1594
sg63
g1579
sg56
(lp1595
g49
(g50
g51
NtRp1596
(dp1597
g54
(dp1598
g62
I5
ssg63
g1592
sg56
(lp1599
S'html'
p1600
asbasbasbag49
(g65
g51
NtRp1601
(dp1602
g54
(dp1603
sg63
g59
sg56
(lp1604
g49
(g70
g51
NtRp1605
(dp1606
g54
(dp1607
g74
g75
ssg63
g1601
sg56
(lp1608
S'folder'
p1609
asbag49
(g70
g51
NtRp1610
(dp1611
g54
(dp1612
g81
g82
ssg63
g1601
sg56
(lp1613
S':'
asbag49
(g70
g51
NtRp1614
(dp1615
g54
(dp1616
sg63
g1601
sg56
(lp1617
g49
(g50
g51
NtRp1618
(dp1619
g54
(dp1620
g62
I5
ssg63
g1614
sg56
(lp1621
S'/Users/udimilo/Documents/web2py/applications/udi0312/'
p1622
asbasbasbag49
(g65
g51
NtRp1623
(dp1624
g54
(dp1625
sg63
g59
sg56
(lp1626
g49
(g70
g51
NtRp1627
(dp1628
g54
(dp1629
g74
g75
ssg63
g1623
sg56
(lp1630
S'function'
p1631
asbag49
(g70
g51
NtRp1632
(dp1633
g54
(dp1634
g81
g82
ssg63
g1623
sg56
(lp1635
S':'
asbag49
(g70
g51
NtRp1636
(dp1637
g54
(dp1638
sg63
g1623
sg56
(lp1639
g49
(g50
g51
NtRp1640
(dp1641
g54
(dp1642
g62
I5
ssg63
g1636
sg56
(lp1643
S'index'
p1644
asbasbasbag49
(g65
g51
NtRp1645
(dp1646
g54
(dp1647
sg63
g59
sg56
(lp1648
g49
(g70
g51
NtRp1649
(dp1650
g54
(dp1651
g74
g75
ssg63
g1645
sg56
(lp1652
S'get_vars'
p1653
asbag49
(g70
g51
NtRp1654
(dp1655
g54
(dp1656
g81
g82
ssg63
g1645
sg56
(lp1657
S':'
asbag49
(g70
g51
NtRp1658
(dp1659
g54
(dp1660
sg63
g1645
sg56
(lp1661
g49
(g50
g51
NtRp1662
(dp1663
g54
(dp1664
g62
I5
ssg63
g1658
sg56
(lp1665
g49
(g58
g51
NtRp1666
(dp1667
g54
(dp1668
g62
I4
ssg63
Nsg56
(lp1669
sbasbasbasbag49
(g65
g51
NtRp1670
(dp1671
g54
(dp1672
sg63
g59
sg56
(lp1673
g49
(g70
g51
NtRp1674
(dp1675
g54
(dp1676
g74
g75
ssg63
g1670
sg56
(lp1677
S'global_settings'
p1678
asbag49
(g70
g51
NtRp1679
(dp1680
g54
(dp1681
g81
g82
ssg63
g1670
sg56
(lp1682
S':'
asbag49
(g70
g51
NtRp1683
(dp1684
g54
(dp1685
sg63
g1670
sg56
(lp1686
g49
(g50
g51
NtRp1687
(dp1688
g54
(dp1689
g62
I5
ssg63
g1683
sg56
(lp1690
g49
(g58
g51
NtRp1691
(dp1692
g54
(dp1693
g62
I4
ssg63
Nsg56
(lp1694
g49
(g65
g51
NtRp1695
(dp1696
g54
(dp1697
sg63
g1691
sg56
(lp1698
g49
(g70
g51
NtRp1699
(dp1700
g54
(dp1701
g74
g75
ssg63
g1695
sg56
(lp1702
g600
asbag49
(g70
g51
NtRp1703
(dp1704
g54
(dp1705
g81
g82
ssg63
g1695
sg56
(lp1706
S':'
asbag49
(g70
g51
NtRp1707
(dp1708
g54
(dp1709
sg63
g1695
sg56
(lp1710
g49
(g50
g51
NtRp1711
(dp1712
g54
(dp1713
g62
I4
ssg63
g1707
sg56
(lp1714
S"set(['/Users/udimilo/Documents/web2py/applications/udi0312/', '/Users/udimilo/Documents/web2py/applications/admin/'])"
p1715
asbasbasbag49
(g65
g51
NtRp1716
(dp1717
g54
(dp1718
sg63
g1691
sg56
(lp1719
g49
(g70
g51
NtRp1720
(dp1721
g54
(dp1722
g74
g75
ssg63
g1716
sg56
(lp1723
g622
asbag49
(g70
g51
NtRp1724
(dp1725
g54
(dp1726
g81
g82
ssg63
g1716
sg56
(lp1727
S':'
asbag49
(g70
g51
NtRp1728
(dp1729
g54
(dp1730
sg63
g1716
sg56
(lp1731
g49
(g50
g51
NtRp1732
(dp1733
g54
(dp1734
g62
I4
ssg63
g1728
sg56
(lp1735
g635
asbasbasbag49
(g65
g51
NtRp1736
(dp1737
g54
(dp1738
sg63
g1691
sg56
(lp1739
g49
(g70
g51
NtRp1740
(dp1741
g54
(dp1742
g74
g75
ssg63
g1736
sg56
(lp1743
g644
asbag49
(g70
g51
NtRp1744
(dp1745
g54
(dp1746
g81
g82
ssg63
g1736
sg56
(lp1747
S':'
asbag49
(g70
g51
NtRp1748
(dp1749
g54
(dp1750
sg63
g1736
sg56
(lp1751
g49
(g50
g51
NtRp1752
(dp1753
g54
(dp1754
g62
I4
ssg63
g1748
sg56
(lp1755
g49
(g58
g51
NtRp1756
(dp1757
g54
(dp1758
g62
I3
ssg63
Nsg56
(lp1759
sbasbasbasbag49
(g65
g51
NtRp1760
(dp1761
g54
(dp1762
sg63
g1691
sg56
(lp1763
g49
(g70
g51
NtRp1764
(dp1765
g54
(dp1766
g74
g75
ssg63
g1760
sg56
(lp1767
g669
asbag49
(g70
g51
NtRp1768
(dp1769
g54
(dp1770
g81
g82
ssg63
g1760
sg56
(lp1771
S':'
asbag49
(g70
g51
NtRp1772
(dp1773
g54
(dp1774
sg63
g1760
sg56
(lp1775
g49
(g50
g51
NtRp1776
(dp1777
g54
(dp1778
g62
I4
ssg63
g1772
sg56
(lp1779
S"<Values at 0x23301c0: {'verbose': False, 'ip': '127.0.0.1', 'shutdown_timeout': 5, 'taskbar': False, 'nocron': False, 'pid_filename': 'httpserver.pid', 'maxthreads': None, 'softcron': False, 'server_name': 'udi-milos-macbook-pro.fritz.box', 'bpython': False, 'nogui': False, 'port': 8000, 'extcron': False, 'debuglevel': 30, 'test': None, 'folder': '/Users/udimilo/Documents/web2py', 'config': '', 'import_models': False, 'winservice': '', 'shell': None, 'run': '', 'log_filename': 'httpserver.log', 'args': [''], 'socket_timeout': 5, 'ssl_ca_certificate': None, 'scheduler': None, 'profiler_filename': None, 'ssl_private_key': '', 'password': '<ask>', 'request_queue_size': 5, 'ssl_certificate': '', 'cronjob': False, 'numthreads': None, 'quiet': False, 'interfaces': None, 'minthreads': None, 'timeout': 10, 'plain': False, 'nobanner': False}>"
p1780
asbasbasbag49
(g65
g51
NtRp1781
(dp1782
g54
(dp1783
sg63
g1691
sg56
(lp1784
g49
(g70
g51
NtRp1785
(dp1786
g54
(dp1787
g74
g75
ssg63
g1781
sg56
(lp1788
g691
asbag49
(g70
g51
NtRp1789
(dp1790
g54
(dp1791
g81
g82
ssg63
g1781
sg56
(lp1792
S':'
asbag49
(g70
g51
NtRp1793
(dp1794
g54
(dp1795
sg63
g1781
sg56
(lp1796
g49
(g50
g51
NtRp1797
(dp1798
g54
(dp1799
g62
I4
ssg63
g1793
sg56
(lp1800
S'set([])'
p1801
asbasbasbag49
(g65
g51
NtRp1802
(dp1803
g54
(dp1804
sg63
g1691
sg56
(lp1805
g49
(g70
g51
NtRp1806
(dp1807
g54
(dp1808
g74
g75
ssg63
g1802
sg56
(lp1809
g713
asbag49
(g70
g51
NtRp1810
(dp1811
g54
(dp1812
g81
g82
ssg63
g1802
sg56
(lp1813
S':'
asbag49
(g70
g51
NtRp1814
(dp1815
g54
(dp1816
sg63
g1802
sg56
(lp1817
g49
(g50
g51
NtRp1818
(dp1819
g54
(dp1820
g62
I4
ssg63
g1814
sg56
(lp1821
g92
asbasbasbag49
(g65
g51
NtRp1822
(dp1823
g54
(dp1824
sg63
g1691
sg56
(lp1825
g49
(g70
g51
NtRp1826
(dp1827
g54
(dp1828
g74
g75
ssg63
g1822
sg56
(lp1829
g734
asbag49
(g70
g51
NtRp1830
(dp1831
g54
(dp1832
g81
g82
ssg63
g1822
sg56
(lp1833
S':'
asbag49
(g70
g51
NtRp1834
(dp1835
g54
(dp1836
sg63
g1822
sg56
(lp1837
g49
(g50
g51
NtRp1838
(dp1839
g54
(dp1840
g62
I4
ssg63
g1834
sg56
(lp1841
g747
asbasbasbag49
(g65
g51
NtRp1842
(dp1843
g54
(dp1844
sg63
g1691
sg56
(lp1845
g49
(g70
g51
NtRp1846
(dp1847
g54
(dp1848
g74
g75
ssg63
g1842
sg56
(lp1849
g954
asbag49
(g70
g51
NtRp1850
(dp1851
g54
(dp1852
g81
g82
ssg63
g1842
sg56
(lp1853
S':'
asbag49
(g70
g51
NtRp1854
(dp1855
g54
(dp1856
sg63
g1842
sg56
(lp1857
g49
(g50
g51
NtRp1858
(dp1859
g54
(dp1860
g62
I4
ssg63
g1854
sg56
(lp1861
g92
asbasbasbag49
(g65
g51
NtRp1862
(dp1863
g54
(dp1864
sg63
g1691
sg56
(lp1865
g49
(g70
g51
NtRp1866
(dp1867
g54
(dp1868
g74
g75
ssg63
g1862
sg56
(lp1869
g975
asbag49
(g70
g51
NtRp1870
(dp1871
g54
(dp1872
g81
g82
ssg63
g1862
sg56
(lp1873
S':'
asbag49
(g70
g51
NtRp1874
(dp1875
g54
(dp1876
sg63
g1862
sg56
(lp1877
g49
(g50
g51
NtRp1878
(dp1879
g54
(dp1880
g62
I4
ssg63
g1874
sg56
(lp1881
g92
asbasbasbag49
(g65
g51
NtRp1882
(dp1883
g54
(dp1884
sg63
g1691
sg56
(lp1885
g49
(g70
g51
NtRp1886
(dp1887
g54
(dp1888
g74
g75
ssg63
g1882
sg56
(lp1889
g1234
asbag49
(g70
g51
NtRp1890
(dp1891
g54
(dp1892
g81
g82
ssg63
g1882
sg56
(lp1893
S':'
asbag49
(g70
g51
NtRp1894
(dp1895
g54
(dp1896
sg63
g1882
sg56
(lp1897
g49
(g50
g51
NtRp1898
(dp1899
g54
(dp1900
g62
I4
ssg63
g1894
sg56
(lp1901
g1247
asbasbasbag49
(g65
g51
NtRp1902
(dp1903
g54
(dp1904
sg63
g1691
sg56
(lp1905
g49
(g70
g51
NtRp1906
(dp1907
g54
(dp1908
g74
g75
ssg63
g1902
sg56
(lp1909
g1298
asbag49
(g70
g51
NtRp1910
(dp1911
g54
(dp1912
g81
g82
ssg63
g1902
sg56
(lp1913
S':'
asbag49
(g70
g51
NtRp1914
(dp1915
g54
(dp1916
sg63
g1902
sg56
(lp1917
g49
(g50
g51
NtRp1918
(dp1919
g54
(dp1920
g62
I4
ssg63
g1914
sg56
(lp1921
g49
(g58
g51
NtRp1922
(dp1923
g54
(dp1924
g62
I3
ssg63
Nsg56
(lp1925
g49
(g65
g51
NtRp1926
(dp1927
g54
(dp1928
sg63
g1922
sg56
(lp1929
g49
(g70
g51
NtRp1930
(dp1931
g54
(dp1932
sg63
g1926
sg56
(lp1933
g49
(g50
g51
NtRp1934
(dp1935
g54
(dp1936
g62
I3
ssg63
g1930
sg56
(lp1937
S'1'
asbasbasbag49
(g65
g51
NtRp1938
(dp1939
g54
(dp1940
sg63
g1922
sg56
(lp1941
g49
(g70
g51
NtRp1942
(dp1943
g54
(dp1944
sg63
g1938
sg56
(lp1945
g49
(g50
g51
NtRp1946
(dp1947
g54
(dp1948
g62
I3
ssg63
g1942
sg56
(lp1949
S'99'
p1950
asbasbasbag49
(g65
g51
NtRp1951
(dp1952
g54
(dp1953
sg63
g1922
sg56
(lp1954
g49
(g70
g51
NtRp1955
(dp1956
g54
(dp1957
sg63
g1951
sg56
(lp1958
g49
(g50
g51
NtRp1959
(dp1960
g54
(dp1961
g62
I3
ssg63
g1955
sg56
(lp1962
S'7'
asbasbasbag49
(g65
g51
NtRp1963
(dp1964
g54
(dp1965
sg63
g1922
sg56
(lp1966
g49
(g70
g51
NtRp1967
(dp1968
g54
(dp1969
sg63
g1963
sg56
(lp1970
g49
(g50
g51
NtRp1971
(dp1972
g54
(dp1973
g62
I3
ssg63
g1967
sg56
(lp1974
S'datetime.datetime(2012, 3, 4, 22, 12, 8)'
p1975
asbasbasbag49
(g65
g51
NtRp1976
(dp1977
g54
(dp1978
sg63
g1922
sg56
(lp1979
g49
(g70
g51
NtRp1980
(dp1981
g54
(dp1982
sg63
g1976
sg56
(lp1983
g49
(g50
g51
NtRp1984
(dp1985
g54
(dp1986
g62
I3
ssg63
g1980
sg56
(lp1987
g1377
asbasbasbasbasbasbasbasbasbasbasbag49
(g65
g51
NtRp1988
(dp1989
g54
(dp1990
sg63
g59
sg56
(lp1991
g49
(g70
g51
NtRp1992
(dp1993
g54
(dp1994
g74
g75
ssg63
g1988
sg56
(lp1995
S'is_https'
p1996
asbag49
(g70
g51
NtRp1997
(dp1998
g54
(dp1999
g81
g82
ssg63
g1988
sg56
(lp2000
S':'
asbag49
(g70
g51
NtRp2001
(dp2002
g54
(dp2003
sg63
g1988
sg56
(lp2004
g49
(g50
g51
NtRp2005
(dp2006
g54
(dp2007
g62
I5
ssg63
g2001
sg56
(lp2008
g92
asbasbasbag49
(g65
g51
NtRp2009
(dp2010
g54
(dp2011
sg63
g59
sg56
(lp2012
g49
(g70
g51
NtRp2013
(dp2014
g54
(dp2015
g74
g75
ssg63
g2009
sg56
(lp2016
S'is_local'
p2017
asbag49
(g70
g51
NtRp2018
(dp2019
g54
(dp2020
g81
g82
ssg63
g2009
sg56
(lp2021
S':'
asbag49
(g70
g51
NtRp2022
(dp2023
g54
(dp2024
sg63
g2009
sg56
(lp2025
g49
(g50
g51
NtRp2026
(dp2027
g54
(dp2028
g62
I5
ssg63
g2022
sg56
(lp2029
g1486
asbasbasbag49
(g65
g51
NtRp2030
(dp2031
g54
(dp2032
sg63
g59
sg56
(lp2033
g49
(g70
g51
NtRp2034
(dp2035
g54
(dp2036
g74
g75
ssg63
g2030
sg56
(lp2037
S'is_restful'
p2038
asbag49
(g70
g51
NtRp2039
(dp2040
g54
(dp2041
g81
g82
ssg63
g2030
sg56
(lp2042
S':'
asbag49
(g70
g51
NtRp2043
(dp2044
g54
(dp2045
sg63
g2030
sg56
(lp2046
g49
(g50
g51
NtRp2047
(dp2048
g54
(dp2049
g62
I5
ssg63
g2043
sg56
(lp2050
g92
asbasbasbag49
(g65
g51
NtRp2051
(dp2052
g54
(dp2053
sg63
g59
sg56
(lp2054
g49
(g70
g51
NtRp2055
(dp2056
g54
(dp2057
g74
g75
ssg63
g2051
sg56
(lp2058
S'now'
p2059
asbag49
(g70
g51
NtRp2060
(dp2061
g54
(dp2062
g81
g82
ssg63
g2051
sg56
(lp2063
S':'
asbag49
(g70
g51
NtRp2064
(dp2065
g54
(dp2066
sg63
g2051
sg56
(lp2067
g49
(g50
g51
NtRp2068
(dp2069
g54
(dp2070
g62
I5
ssg63
g2064
sg56
(lp2071
S'datetime.datetime(2012, 3, 14, 23, 36, 29, 959984)'
p2072
asbasbasbag49
(g65
g51
NtRp2073
(dp2074
g54
(dp2075
sg63
g59
sg56
(lp2076
g49
(g70
g51
NtRp2077
(dp2078
g54
(dp2079
g74
g75
ssg63
g2073
sg56
(lp2080
S'post_vars'
p2081
asbag49
(g70
g51
NtRp2082
(dp2083
g54
(dp2084
g81
g82
ssg63
g2073
sg56
(lp2085
S':'
asbag49
(g70
g51
NtRp2086
(dp2087
g54
(dp2088
sg63
g2073
sg56
(lp2089
g49
(g50
g51
NtRp2090
(dp2091
g54
(dp2092
g62
I5
ssg63
g2086
sg56
(lp2093
g49
(g58
g51
NtRp2094
(dp2095
g54
(dp2096
g62
I4
ssg63
Nsg56
(lp2097
sbasbasbasbag49
(g65
g51
NtRp2098
(dp2099
g54
(dp2100
sg63
g59
sg56
(lp2101
g49
(g70
g51
NtRp2102
(dp2103
g54
(dp2104
g74
g75
ssg63
g2098
sg56
(lp2105
S'url'
p2106
asbag49
(g70
g51
NtRp2107
(dp2108
g54
(dp2109
g81
g82
ssg63
g2098
sg56
(lp2110
S':'
asbag49
(g70
g51
NtRp2111
(dp2112
g54
(dp2113
sg63
g2098
sg56
(lp2114
g49
(g50
g51
NtRp2115
(dp2116
g54
(dp2117
g62
I5
ssg63
g2111
sg56
(lp2118
S'/'
asbasbasbag49
(g65
g51
NtRp2119
(dp2120
g54
(dp2121
sg63
g59
sg56
(lp2122
g49
(g70
g51
NtRp2123
(dp2124
g54
(dp2125
g74
g75
ssg63
g2119
sg56
(lp2126
S'utcnow'
p2127
asbag49
(g70
g51
NtRp2128
(dp2129
g54
(dp2130
g81
g82
ssg63
g2119
sg56
(lp2131
S':'
asbag49
(g70
g51
NtRp2132
(dp2133
g54
(dp2134
sg63
g2119
sg56
(lp2135
g49
(g50
g51
NtRp2136
(dp2137
g54
(dp2138
g62
I5
ssg63
g2132
sg56
(lp2139
S'datetime.datetime(2012, 3, 15, 3, 36, 29, 960002)'
p2140
asbasbasbag49
(g65
g51
NtRp2141
(dp2142
g54
(dp2143
sg63
g59
sg56
(lp2144
g49
(g70
g51
NtRp2145
(dp2146
g54
(dp2147
g74
g75
ssg63
g2141
sg56
(lp2148
S'uuid'
p2149
asbag49
(g70
g51
NtRp2150
(dp2151
g54
(dp2152
g81
g82
ssg63
g2141
sg56
(lp2153
S':'
asbag49
(g70
g51
NtRp2154
(dp2155
g54
(dp2156
sg63
g2141
sg56
(lp2157
g49
(g50
g51
NtRp2158
(dp2159
g54
(dp2160
g62
I5
ssg63
g2154
sg56
(lp2161
S'udi0312/127.0.0.1.2012-03-14.23-36-29.62a14e38-3d9d-4d54-a1f1-5897675da996'
p2162
asbasbasbag49
(g65
g51
NtRp2163
(dp2164
g54
(dp2165
sg63
g59
sg56
(lp2166
g49
(g70
g51
NtRp2167
(dp2168
g54
(dp2169
g74
g75
ssg63
g2163
sg56
(lp2170
S'vars'
p2171
asbag49
(g70
g51
NtRp2172
(dp2173
g54
(dp2174
g81
g82
ssg63
g2163
sg56
(lp2175
S':'
asbag49
(g70
g51
NtRp2176
(dp2177
g54
(dp2178
sg63
g2163
sg56
(lp2179
g49
(g50
g51
NtRp2180
(dp2181
g54
(dp2182
g62
I5
ssg63
g2176
sg56
(lp2183
g49
(g58
g51
NtRp2184
(dp2185
g54
(dp2186
g62
I4
ssg63
Nsg56
(lp2187
sbasbasbasbag49
(g65
g51
NtRp2188
(dp2189
g54
(dp2190
sg63
g59
sg56
(lp2191
g49
(g70
g51
NtRp2192
(dp2193
g54
(dp2194
g74
g75
ssg63
g2188
sg56
(lp2195
S'wsgi'
p2196
asbag49
(g70
g51
NtRp2197
(dp2198
g54
(dp2199
g81
g82
ssg63
g2188
sg56
(lp2200
S':'
asbag49
(g70
g51
NtRp2201
(dp2202
g54
(dp2203
sg63
g2188
sg56
(lp2204
g49
(g50
g51
NtRp2205
(dp2206
g54
(dp2207
g62
I5
ssg63
g2201
sg56
(lp2208
g49
(g58
g51
NtRp2209
(dp2210
g54
(dp2211
g62
I4
ssg63
Nsg56
(lp2212
g49
(g65
g51
NtRp2213
(dp2214
g54
(dp2215
sg63
g2209
sg56
(lp2216
g49
(g70
g51
NtRp2217
(dp2218
g54
(dp2219
g74
g75
ssg63
g2213
sg56
(lp2220
S'environ'
p2221
asbag49
(g70
g51
NtRp2222
(dp2223
g54
(dp2224
g81
g82
ssg63
g2213
sg56
(lp2225
S':'
asbag49
(g70
g51
NtRp2226
(dp2227
g54
(dp2228
sg63
g2213
sg56
(lp2229
g49
(g50
g51
NtRp2230
(dp2231
g54
(dp2232
g62
I4
ssg63
g2226
sg56
(lp2233
g49
(g58
g51
NtRp2234
(dp2235
g54
(dp2236
g62
I3
ssg63
Nsg56
(lp2237
g49
(g65
g51
NtRp2238
(dp2239
g54
(dp2240
sg63
g2234
sg56
(lp2241
g49
(g70
g51
NtRp2242
(dp2243
g54
(dp2244
g74
g75
ssg63
g2238
sg56
(lp2245
S'HTTP_ACCEPT'
p2246
asbag49
(g70
g51
NtRp2247
(dp2248
g54
(dp2249
g81
g82
ssg63
g2238
sg56
(lp2250
S':'
asbag49
(g70
g51
NtRp2251
(dp2252
g54
(dp2253
sg63
g2238
sg56
(lp2254
g49
(g50
g51
NtRp2255
(dp2256
g54
(dp2257
g62
I3
ssg63
g2251
sg56
(lp2258
g769
asbasbasbag49
(g65
g51
NtRp2259
(dp2260
g54
(dp2261
sg63
g2234
sg56
(lp2262
g49
(g70
g51
NtRp2263
(dp2264
g54
(dp2265
g74
g75
ssg63
g2259
sg56
(lp2266
S'HTTP_ACCEPT_CHARSET'
p2267
asbag49
(g70
g51
NtRp2268
(dp2269
g54
(dp2270
g81
g82
ssg63
g2259
sg56
(lp2271
S':'
asbag49
(g70
g51
NtRp2272
(dp2273
g54
(dp2274
sg63
g2259
sg56
(lp2275
g49
(g50
g51
NtRp2276
(dp2277
g54
(dp2278
g62
I3
ssg63
g2272
sg56
(lp2279
g791
asbasbasbag49
(g65
g51
NtRp2280
(dp2281
g54
(dp2282
sg63
g2234
sg56
(lp2283
g49
(g70
g51
NtRp2284
(dp2285
g54
(dp2286
g74
g75
ssg63
g2280
sg56
(lp2287
S'HTTP_ACCEPT_ENCODING'
p2288
asbag49
(g70
g51
NtRp2289
(dp2290
g54
(dp2291
g81
g82
ssg63
g2280
sg56
(lp2292
S':'
asbag49
(g70
g51
NtRp2293
(dp2294
g54
(dp2295
sg63
g2280
sg56
(lp2296
g49
(g50
g51
NtRp2297
(dp2298
g54
(dp2299
g62
I3
ssg63
g2293
sg56
(lp2300
g813
asbasbasbag49
(g65
g51
NtRp2301
(dp2302
g54
(dp2303
sg63
g2234
sg56
(lp2304
g49
(g70
g51
NtRp2305
(dp2306
g54
(dp2307
g74
g75
ssg63
g2301
sg56
(lp2308
S'HTTP_ACCEPT_LANGUAGE'
p2309
asbag49
(g70
g51
NtRp2310
(dp2311
g54
(dp2312
g81
g82
ssg63
g2301
sg56
(lp2313
S':'
asbag49
(g70
g51
NtRp2314
(dp2315
g54
(dp2316
sg63
g2301
sg56
(lp2317
g49
(g50
g51
NtRp2318
(dp2319
g54
(dp2320
g62
I3
ssg63
g2314
sg56
(lp2321
g835
asbasbasbag49
(g65
g51
NtRp2322
(dp2323
g54
(dp2324
sg63
g2234
sg56
(lp2325
g49
(g70
g51
NtRp2326
(dp2327
g54
(dp2328
g74
g75
ssg63
g2322
sg56
(lp2329
S'HTTP_CACHE_CONTROL'
p2330
asbag49
(g70
g51
NtRp2331
(dp2332
g54
(dp2333
g81
g82
ssg63
g2322
sg56
(lp2334
S':'
asbag49
(g70
g51
NtRp2335
(dp2336
g54
(dp2337
sg63
g2322
sg56
(lp2338
g49
(g50
g51
NtRp2339
(dp2340
g54
(dp2341
g62
I3
ssg63
g2335
sg56
(lp2342
g857
asbasbasbag49
(g65
g51
NtRp2343
(dp2344
g54
(dp2345
sg63
g2234
sg56
(lp2346
g49
(g70
g51
NtRp2347
(dp2348
g54
(dp2349
g74
g75
ssg63
g2343
sg56
(lp2350
S'HTTP_CONNECTION'
p2351
asbag49
(g70
g51
NtRp2352
(dp2353
g54
(dp2354
g81
g82
ssg63
g2343
sg56
(lp2355
S':'
asbag49
(g70
g51
NtRp2356
(dp2357
g54
(dp2358
sg63
g2343
sg56
(lp2359
g49
(g50
g51
NtRp2360
(dp2361
g54
(dp2362
g62
I3
ssg63
g2356
sg56
(lp2363
g879
asbasbasbag49
(g65
g51
NtRp2364
(dp2365
g54
(dp2366
sg63
g2234
sg56
(lp2367
g49
(g70
g51
NtRp2368
(dp2369
g54
(dp2370
g74
g75
ssg63
g2364
sg56
(lp2371
S'HTTP_COOKIE'
p2372
asbag49
(g70
g51
NtRp2373
(dp2374
g54
(dp2375
g81
g82
ssg63
g2364
sg56
(lp2376
S':'
asbag49
(g70
g51
NtRp2377
(dp2378
g54
(dp2379
sg63
g2364
sg56
(lp2380
g49
(g50
g51
NtRp2381
(dp2382
g54
(dp2383
g62
I3
ssg63
g2377
sg56
(lp2384
g901
asbasbasbag49
(g65
g51
NtRp2385
(dp2386
g54
(dp2387
sg63
g2234
sg56
(lp2388
g49
(g70
g51
NtRp2389
(dp2390
g54
(dp2391
g74
g75
ssg63
g2385
sg56
(lp2392
S'HTTP_HOST'
p2393
asbag49
(g70
g51
NtRp2394
(dp2395
g54
(dp2396
g81
g82
ssg63
g2385
sg56
(lp2397
S':'
asbag49
(g70
g51
NtRp2398
(dp2399
g54
(dp2400
sg63
g2385
sg56
(lp2401
g49
(g50
g51
NtRp2402
(dp2403
g54
(dp2404
g62
I3
ssg63
g2398
sg56
(lp2405
g923
asbasbasbag49
(g65
g51
NtRp2406
(dp2407
g54
(dp2408
sg63
g2234
sg56
(lp2409
g49
(g70
g51
NtRp2410
(dp2411
g54
(dp2412
g74
g75
ssg63
g2406
sg56
(lp2413
S'HTTP_USER_AGENT'
p2414
asbag49
(g70
g51
NtRp2415
(dp2416
g54
(dp2417
g81
g82
ssg63
g2406
sg56
(lp2418
S':'
asbag49
(g70
g51
NtRp2419
(dp2420
g54
(dp2421
sg63
g2406
sg56
(lp2422
g49
(g50
g51
NtRp2423
(dp2424
g54
(dp2425
g62
I3
ssg63
g2419
sg56
(lp2426
g945
asbasbasbag49
(g65
g51
NtRp2427
(dp2428
g54
(dp2429
sg63
g2234
sg56
(lp2430
g49
(g70
g51
NtRp2431
(dp2432
g54
(dp2433
g74
g75
ssg63
g2427
sg56
(lp2434
S'PATH_INFO'
p2435
asbag49
(g70
g51
NtRp2436
(dp2437
g54
(dp2438
g81
g82
ssg63
g2427
sg56
(lp2439
S':'
asbag49
(g70
g51
NtRp2440
(dp2441
g54
(dp2442
sg63
g2427
sg56
(lp2443
g49
(g50
g51
NtRp2444
(dp2445
g54
(dp2446
g62
I3
ssg63
g2440
sg56
(lp2447
S'/'
asbasbasbag49
(g65
g51
NtRp2448
(dp2449
g54
(dp2450
sg63
g2234
sg56
(lp2451
g49
(g70
g51
NtRp2452
(dp2453
g54
(dp2454
g74
g75
ssg63
g2448
sg56
(lp2455
S'QUERY_STRING'
p2456
asbag49
(g70
g51
NtRp2457
(dp2458
g54
(dp2459
g81
g82
ssg63
g2448
sg56
(lp2460
S':'
asbag49
(g70
g51
NtRp2461
(dp2462
g54
(dp2463
sg63
g2448
sg56
(lp2464
g49
(g50
g51
NtRp2465
(dp2466
g54
(dp2467
g62
I3
ssg63
g2461
sg56
(lp2468
S''
asbasbasbag49
(g65
g51
NtRp2469
(dp2470
g54
(dp2471
sg63
g2234
sg56
(lp2472
g49
(g70
g51
NtRp2473
(dp2474
g54
(dp2475
g74
g75
ssg63
g2469
sg56
(lp2476
S'REMOTE_ADDR'
p2477
asbag49
(g70
g51
NtRp2478
(dp2479
g54
(dp2480
g81
g82
ssg63
g2469
sg56
(lp2481
S':'
asbag49
(g70
g51
NtRp2482
(dp2483
g54
(dp2484
sg63
g2469
sg56
(lp2485
g49
(g50
g51
NtRp2486
(dp2487
g54
(dp2488
g62
I3
ssg63
g2482
sg56
(lp2489
g182
asbasbasbag49
(g65
g51
NtRp2490
(dp2491
g54
(dp2492
sg63
g2234
sg56
(lp2493
g49
(g70
g51
NtRp2494
(dp2495
g54
(dp2496
g74
g75
ssg63
g2490
sg56
(lp2497
S'REMOTE_PORT'
p2498
asbag49
(g70
g51
NtRp2499
(dp2500
g54
(dp2501
g81
g82
ssg63
g2490
sg56
(lp2502
S':'
asbag49
(g70
g51
NtRp2503
(dp2504
g54
(dp2505
sg63
g2490
sg56
(lp2506
g49
(g50
g51
NtRp2507
(dp2508
g54
(dp2509
g62
I3
ssg63
g2503
sg56
(lp2510
g1072
asbasbasbag49
(g65
g51
NtRp2511
(dp2512
g54
(dp2513
sg63
g2234
sg56
(lp2514
g49
(g70
g51
NtRp2515
(dp2516
g54
(dp2517
g74
g75
ssg63
g2511
sg56
(lp2518
S'REQUEST_METHOD'
p2519
asbag49
(g70
g51
NtRp2520
(dp2521
g54
(dp2522
g81
g82
ssg63
g2511
sg56
(lp2523
S':'
asbag49
(g70
g51
NtRp2524
(dp2525
g54
(dp2526
sg63
g2511
sg56
(lp2527
g49
(g50
g51
NtRp2528
(dp2529
g54
(dp2530
g62
I3
ssg63
g2524
sg56
(lp2531
g1094
asbasbasbag49
(g65
g51
NtRp2532
(dp2533
g54
(dp2534
sg63
g2234
sg56
(lp2535
g49
(g70
g51
NtRp2536
(dp2537
g54
(dp2538
g74
g75
ssg63
g2532
sg56
(lp2539
S'REQUEST_URI'
p2540
asbag49
(g70
g51
NtRp2541
(dp2542
g54
(dp2543
g81
g82
ssg63
g2532
sg56
(lp2544
S':'
asbag49
(g70
g51
NtRp2545
(dp2546
g54
(dp2547
sg63
g2532
sg56
(lp2548
g49
(g50
g51
NtRp2549
(dp2550
g54
(dp2551
g62
I3
ssg63
g2545
sg56
(lp2552
g1116
asbasbasbag49
(g65
g51
NtRp2553
(dp2554
g54
(dp2555
sg63
g2234
sg56
(lp2556
g49
(g70
g51
NtRp2557
(dp2558
g54
(dp2559
g74
g75
ssg63
g2553
sg56
(lp2560
S'SCRIPT_NAME'
p2561
asbag49
(g70
g51
NtRp2562
(dp2563
g54
(dp2564
g81
g82
ssg63
g2553
sg56
(lp2565
S':'
asbag49
(g70
g51
NtRp2566
(dp2567
g54
(dp2568
sg63
g2553
sg56
(lp2569
g49
(g50
g51
NtRp2570
(dp2571
g54
(dp2572
g62
I3
ssg63
g2566
sg56
(lp2573
S''
asbasbasbag49
(g65
g51
NtRp2574
(dp2575
g54
(dp2576
sg63
g2234
sg56
(lp2577
g49
(g70
g51
NtRp2578
(dp2579
g54
(dp2580
g74
g75
ssg63
g2574
sg56
(lp2581
S'SERVER_NAME'
p2582
asbag49
(g70
g51
NtRp2583
(dp2584
g54
(dp2585
g81
g82
ssg63
g2574
sg56
(lp2586
S':'
asbag49
(g70
g51
NtRp2587
(dp2588
g54
(dp2589
sg63
g2574
sg56
(lp2590
g49
(g50
g51
NtRp2591
(dp2592
g54
(dp2593
g62
I3
ssg63
g2587
sg56
(lp2594
g1159
asbasbasbag49
(g65
g51
NtRp2595
(dp2596
g54
(dp2597
sg63
g2234
sg56
(lp2598
g49
(g70
g51
NtRp2599
(dp2600
g54
(dp2601
g74
g75
ssg63
g2595
sg56
(lp2602
S'SERVER_PORT'
p2603
asbag49
(g70
g51
NtRp2604
(dp2605
g54
(dp2606
g81
g82
ssg63
g2595
sg56
(lp2607
S':'
asbag49
(g70
g51
NtRp2608
(dp2609
g54
(dp2610
sg63
g2595
sg56
(lp2611
g49
(g50
g51
NtRp2612
(dp2613
g54
(dp2614
g62
I3
ssg63
g2608
sg56
(lp2615
g1181
asbasbasbag49
(g65
g51
NtRp2616
(dp2617
g54
(dp2618
sg63
g2234
sg56
(lp2619
g49
(g70
g51
NtRp2620
(dp2621
g54
(dp2622
g74
g75
ssg63
g2616
sg56
(lp2623
S'SERVER_PROTOCOL'
p2624
asbag49
(g70
g51
NtRp2625
(dp2626
g54
(dp2627
g81
g82
ssg63
g2616
sg56
(lp2628
S':'
asbag49
(g70
g51
NtRp2629
(dp2630
g54
(dp2631
sg63
g2616
sg56
(lp2632
g49
(g50
g51
NtRp2633
(dp2634
g54
(dp2635
g62
I3
ssg63
g2629
sg56
(lp2636
g1203
asbasbasbag49
(g65
g51
NtRp2637
(dp2638
g54
(dp2639
sg63
g2234
sg56
(lp2640
g49
(g70
g51
NtRp2641
(dp2642
g54
(dp2643
g74
g75
ssg63
g2637
sg56
(lp2644
S'SERVER_SOFTWARE'
p2645
asbag49
(g70
g51
NtRp2646
(dp2647
g54
(dp2648
g81
g82
ssg63
g2637
sg56
(lp2649
S':'
asbag49
(g70
g51
NtRp2650
(dp2651
g54
(dp2652
sg63
g2637
sg56
(lp2653
g49
(g50
g51
NtRp2654
(dp2655
g54
(dp2656
g62
I3
ssg63
g2650
sg56
(lp2657
g1225
asbasbasbag49
(g65
g51
NtRp2658
(dp2659
g54
(dp2660
sg63
g2234
sg56
(lp2661
g49
(g70
g51
NtRp2662
(dp2663
g54
(dp2664
g74
g75
ssg63
g2658
sg56
(lp2665
S'WEB2PY_ORIGINAL_URI'
p2666
asbag49
(g70
g51
NtRp2667
(dp2668
g54
(dp2669
g81
g82
ssg63
g2658
sg56
(lp2670
S':'
asbag49
(g70
g51
NtRp2671
(dp2672
g54
(dp2673
sg63
g2658
sg56
(lp2674
g49
(g50
g51
NtRp2675
(dp2676
g54
(dp2677
g62
I3
ssg63
g2671
sg56
(lp2678
S'/'
asbasbasbag49
(g65
g51
NtRp2679
(dp2680
g54
(dp2681
sg63
g2234
sg56
(lp2682
g49
(g70
g51
NtRp2683
(dp2684
g54
(dp2685
g74
g75
ssg63
g2679
sg56
(lp2686
S'wsgi.errors'
p2687
asbag49
(g70
g51
NtRp2688
(dp2689
g54
(dp2690
g81
g82
ssg63
g2679
sg56
(lp2691
S':'
asbag49
(g70
g51
NtRp2692
(dp2693
g54
(dp2694
sg63
g2679
sg56
(lp2695
g49
(g50
g51
NtRp2696
(dp2697
g54
(dp2698
g62
I3
ssg63
g2692
sg56
(lp2699
S"<open file '<stderr>', mode 'w' at 0x4220b0>"
p2700
asbasbasbag49
(g65
g51
NtRp2701
(dp2702
g54
(dp2703
sg63
g2234
sg56
(lp2704
g49
(g70
g51
NtRp2705
(dp2706
g54
(dp2707
g74
g75
ssg63
g2701
sg56
(lp2708
S'wsgi.file_wrapper'
p2709
asbag49
(g70
g51
NtRp2710
(dp2711
g54
(dp2712
g81
g82
ssg63
g2701
sg56
(lp2713
S':'
asbag49
(g70
g51
NtRp2714
(dp2715
g54
(dp2716
sg63
g2701
sg56
(lp2717
g49
(g50
g51
NtRp2718
(dp2719
g54
(dp2720
g62
I3
ssg63
g2714
sg56
(lp2721
S'<class wsgiref.util.FileWrapper at 0x22746c0>'
p2722
asbasbasbag49
(g65
g51
NtRp2723
(dp2724
g54
(dp2725
sg63
g2234
sg56
(lp2726
g49
(g70
g51
NtRp2727
(dp2728
g54
(dp2729
g74
g75
ssg63
g2723
sg56
(lp2730
S'wsgi.input'
p2731
asbag49
(g70
g51
NtRp2732
(dp2733
g54
(dp2734
g81
g82
ssg63
g2723
sg56
(lp2735
S':'
asbag49
(g70
g51
NtRp2736
(dp2737
g54
(dp2738
sg63
g2723
sg56
(lp2739
g49
(g50
g51
NtRp2740
(dp2741
g54
(dp2742
g62
I3
ssg63
g2736
sg56
(lp2743
S'<cStringIO.StringO object at 0xa34b180>'
p2744
asbasbasbag49
(g65
g51
NtRp2745
(dp2746
g54
(dp2747
sg63
g2234
sg56
(lp2748
g49
(g70
g51
NtRp2749
(dp2750
g54
(dp2751
g74
g75
ssg63
g2745
sg56
(lp2752
S'wsgi.multiprocess'
p2753
asbag49
(g70
g51
NtRp2754
(dp2755
g54
(dp2756
g81
g82
ssg63
g2745
sg56
(lp2757
S':'
asbag49
(g70
g51
NtRp2758
(dp2759
g54
(dp2760
sg63
g2745
sg56
(lp2761
g49
(g50
g51
NtRp2762
(dp2763
g54
(dp2764
g62
I3
ssg63
g2758
sg56
(lp2765
g92
asbasbasbag49
(g65
g51
NtRp2766
(dp2767
g54
(dp2768
sg63
g2234
sg56
(lp2769
g49
(g70
g51
NtRp2770
(dp2771
g54
(dp2772
g74
g75
ssg63
g2766
sg56
(lp2773
S'wsgi.multithread'
p2774
asbag49
(g70
g51
NtRp2775
(dp2776
g54
(dp2777
g81
g82
ssg63
g2766
sg56
(lp2778
S':'
asbag49
(g70
g51
NtRp2779
(dp2780
g54
(dp2781
sg63
g2766
sg56
(lp2782
g49
(g50
g51
NtRp2783
(dp2784
g54
(dp2785
g62
I3
ssg63
g2779
sg56
(lp2786
g1486
asbasbasbag49
(g65
g51
NtRp2787
(dp2788
g54
(dp2789
sg63
g2234
sg56
(lp2790
g49
(g70
g51
NtRp2791
(dp2792
g54
(dp2793
g74
g75
ssg63
g2787
sg56
(lp2794
S'wsgi.run_once'
p2795
asbag49
(g70
g51
NtRp2796
(dp2797
g54
(dp2798
g81
g82
ssg63
g2787
sg56
(lp2799
S':'
asbag49
(g70
g51
NtRp2800
(dp2801
g54
(dp2802
sg63
g2787
sg56
(lp2803
g49
(g50
g51
NtRp2804
(dp2805
g54
(dp2806
g62
I3
ssg63
g2800
sg56
(lp2807
g92
asbasbasbag49
(g65
g51
NtRp2808
(dp2809
g54
(dp2810
sg63
g2234
sg56
(lp2811
g49
(g70
g51
NtRp2812
(dp2813
g54
(dp2814
g74
g75
ssg63
g2808
sg56
(lp2815
S'wsgi.url_scheme'
p2816
asbag49
(g70
g51
NtRp2817
(dp2818
g54
(dp2819
g81
g82
ssg63
g2808
sg56
(lp2820
S':'
asbag49
(g70
g51
NtRp2821
(dp2822
g54
(dp2823
sg63
g2808
sg56
(lp2824
g49
(g50
g51
NtRp2825
(dp2826
g54
(dp2827
g62
I3
ssg63
g2821
sg56
(lp2828
g1529
asbasbasbag49
(g65
g51
NtRp2829
(dp2830
g54
(dp2831
sg63
g2234
sg56
(lp2832
g49
(g70
g51
NtRp2833
(dp2834
g54
(dp2835
g74
g75
ssg63
g2829
sg56
(lp2836
S'wsgi.version'
p2837
asbag49
(g70
g51
NtRp2838
(dp2839
g54
(dp2840
g81
g82
ssg63
g2829
sg56
(lp2841
S':'
asbag49
(g70
g51
NtRp2842
(dp2843
g54
(dp2844
sg63
g2829
sg56
(lp2845
g49
(g50
g51
NtRp2846
(dp2847
g54
(dp2848
g62
I3
ssg63
g2842
sg56
(lp2849
S'1'
asbasbasbasbasbasbasbasbasbasbasbasbasbsS'frames'
p2850
(lp2851
(dp2852
S'file'
p2853
S'/users/udimilo/Documents/web2py/gluon/restricted.py'
p2854
sS'dump'
p2855
(dp2856
S'environment'
p2857
S"{'A': <class 'gluon.html.A'>, 'Auth': <class 'gluon.tools.Auth'>, 'B': <class 'gluon.html.B'>, 'BEAUTIFY': <class 'gluon.html.BEAUTIFY'>, 'BODY': <class 'gluon.html.BODY'>, 'BR': <class 'gluon.html.BR'>, 'BUTTON': <class 'gluon.html.BUTTON'>, 'CAT': <class 'gluon.html.CAT'>, 'CENTER': <class 'gluon.html.CENTER'>, 'CLEANUP': <class 'gluon.validators.CLEANUP'>, ...}"
p2858
sS'ccode'
p2859
S'<code object <module> at 0x9f6e3c8, file "/Users...cations/udi0312/controllers/default.py", line 12>'
p2860
ssS'lnum'
p2861
I205
sS'lines'
p2862
(dp2863
I200
S'    try:'
p2864
sI201
S'        if type(code) == types.CodeType:'
p2865
sI202
S'            ccode = code'
p2866
sI203
S'        else:'
p2867
sI204
S'            ccode = compile2(code,layer)'
p2868
sI205
S'        exec ccode in environment'
p2869
sI206
S'    except HTTP:'
p2870
sI207
S'        raise'
p2871
sI208
S'    except RestrictedError:'
p2872
sI209
S'        # do not encapsulate (obfuscate) the original RestrictedError'
p2873
ssS'call'
p2874
S"(code='# -*- coding: utf-8 -*-\\n# this file is released ...=crud())\\n\\nresponse._vars=response._caller(index)\\n', environment={'A': <class 'gluon.html.A'>, 'Auth': <class 'gluon.tools.Auth'>, 'B': <class 'gluon.html.B'>, 'BEAUTIFY': <class 'gluon.html.BEAUTIFY'>, 'BODY': <class 'gluon.html.BODY'>, 'BR': <class 'gluon.html.BR'>, 'BUTTON': <class 'gluon.html.BUTTON'>, 'CAT': <class 'gluon.html.CAT'>, 'CENTER': <class 'gluon.html.CENTER'>, 'CLEANUP': <class 'gluon.validators.CLEANUP'>, ...}, layer='/Users/udimilo/Documents/web2py/applications/udi0312/controllers/default.py')"
p2875
sS'func'
p2876
S'restricted'
p2877
sa(dp2878
g2853
S'/Users/udimilo/Documents/web2py/applications/udi0312/controllers/default.py'
p2879
sg2855
(dp2880
S'Readability'
p2881
S'undefined'
p2882
ssg2861
I12
sg2862
(dp2883
I7
S'## - user is required for authentication and authorization'
p2884
sI8
S'## - download is for downloading files uploaded in the db (does streaming)'
p2885
sI9
S'## - call exposes all registered services (none by default)'
p2886
sI10
S'#########################################################################'
p2887
sI11
S'#from readability import Readability'
p2888
sI12
S'import Readability'
p2889
sI13
S''
sI14
S'def index():'
p2890
sI15
S'    articles = db().select(db.article.ALL)'
p2891
sI16
S'    categories = db().select(db.category.ALL, orderby=db.category.name)'
p2892
ssg2874
S'()'
p2893
sg2876
S'<module>'
p2894
sa(dp2895
g2853
S'/users/udimilo/Documents/web2py/gluon/custom_import.py'
p2896
sg2855
(dp2897
S'fromlist'
p2898
S'[]'
p2899
sS'level'
p2900
S'-1'
p2901
ssg2861
I293
sg2862
(dp2902
I288
S'                            .__call__(modules_prefix+"."+name,'
p2903
sI289
S'                                    globals, locals, fromlist, level)'
p2904
sI290
S'                except ImportError:'
p2905
sI291
S'                    pass'
p2906
sI292
S'        return super(_Web2pyImporter, self).__call__(name, globals, locals,'
p2907
sI293
S'                                                    fromlist, level)'
p2908
sI294
S'        #except Exception, e:'
p2909
sI295
S"        #    raise e  # Don't hide something that went wrong"
p2910
sI296
S'        #finally:'
p2911
sI297
S'        self.end()'
p2912
ssg2874
S"(self=<gluon.custom_import._Web2pyDateTrackerImporter object at 0xa6f69b0>, name='Readability', globals={'A': <class 'gluon.html.A'>, 'Auth': <class 'gluon.tools.Auth'>, 'B': <class 'gluon.html.B'>, 'BEAUTIFY': <class 'gluon.html.BEAUTIFY'>, 'BODY': <class 'gluon.html.BODY'>, 'BR': <class 'gluon.html.BR'>, 'BUTTON': <class 'gluon.html.BUTTON'>, 'CAT': <class 'gluon.html.CAT'>, 'CENTER': <class 'gluon.html.CENTER'>, 'CLEANUP': <class 'gluon.validators.CLEANUP'>, ...}, locals={'A': <class 'gluon.html.A'>, 'Auth': <class 'gluon.tools.Auth'>, 'B': <class 'gluon.html.B'>, 'BEAUTIFY': <class 'gluon.html.BEAUTIFY'>, 'BODY': <class 'gluon.html.BODY'>, 'BR': <class 'gluon.html.BR'>, 'BUTTON': <class 'gluon.html.BUTTON'>, 'CAT': <class 'gluon.html.CAT'>, 'CENTER': <class 'gluon.html.CENTER'>, 'CLEANUP': <class 'gluon.validators.CLEANUP'>, ...}, fromlist=[], level=-1)"
p2913
sg2876
S'__call__'
p2914
sa(dp2915
g2853
S'/users/udimilo/Documents/web2py/gluon/custom_import.py'
p2916
sg2855
(dp2917
S'e'
S"ImportError('No module named Readability',)"
p2918
ssg2861
I132
sg2862
(dp2919
I128
S'            # Module maybe loaded for the 1st time so we need to set the date'
p2920
sI129
S'            self._update_dates(name, fromlist)'
p2921
sI130
S'            return result'
p2922
sI131
S'        except Exception, e:'
p2923
sI132
S"            raise e  # Don't hide something that went wrong"
p2924
sI133
S'        finally:'
p2925
sI134
S'            if call_begin_end:'
p2926
sI135
S'                self.end()'
p2927
sI136
S''
sI127
S'              .__call__(name, globals, locals, fromlist, level)'
p2928
ssg2874
S"(self=<gluon.custom_import._Web2pyDateTrackerImporter object at 0xa6f69b0>, name='Readability', globals={'A': <class 'gluon.html.A'>, 'Auth': <class 'gluon.tools.Auth'>, 'B': <class 'gluon.html.B'>, 'BEAUTIFY': <class 'gluon.html.BEAUTIFY'>, 'BODY': <class 'gluon.html.BODY'>, 'BR': <class 'gluon.html.BR'>, 'BUTTON': <class 'gluon.html.BUTTON'>, 'CAT': <class 'gluon.html.CAT'>, 'CENTER': <class 'gluon.html.CENTER'>, 'CLEANUP': <class 'gluon.validators.CLEANUP'>, ...}, locals={'A': <class 'gluon.html.A'>, 'Auth': <class 'gluon.tools.Auth'>, 'B': <class 'gluon.html.B'>, 'BEAUTIFY': <class 'gluon.html.BEAUTIFY'>, 'BODY': <class 'gluon.html.BODY'>, 'BR': <class 'gluon.html.BR'>, 'BUTTON': <class 'gluon.html.BUTTON'>, 'CAT': <class 'gluon.html.CAT'>, 'CENTER': <class 'gluon.html.CENTER'>, 'CLEANUP': <class 'gluon.validators.CLEANUP'>, ...}, fromlist=[], level=-1)"
p2929
sg2876
g2914
sasS'pyver'
p2930
S'Python 2.5.4: /Library/Frameworks/Python.framework/Versions/2.5/Resources/Python.app/Contents/MacOS/Python'
p2931
sS'session'
p2932
g49
(g50
g51
NtRp2933
(dp2934
g54
(dp2935
sg56
(lp2936
g49
(g58
g51
NtRp2937
(dp2938
g54
(dp2939
g62
I5
ssg63
Nsg56
(lp2940
g49
(g65
g51
NtRp2941
(dp2942
g54
(dp2943
sg63
g2937
sg56
(lp2944
g49
(g70
g51
NtRp2945
(dp2946
g54
(dp2947
g74
g75
ssg63
g2941
sg56
(lp2948
S'auth'
p2949
asbag49
(g70
g51
NtRp2950
(dp2951
g54
(dp2952
g81
g82
ssg63
g2941
sg56
(lp2953
S':'
asbag49
(g70
g51
NtRp2954
(dp2955
g54
(dp2956
sg63
g2941
sg56
(lp2957
g49
(g50
g51
NtRp2958
(dp2959
g54
(dp2960
g62
I5
ssg63
g2954
sg56
(lp2961
g49
(g58
g51
NtRp2962
(dp2963
g54
(dp2964
g62
I4
ssg63
Nsg56
(lp2965
g49
(g65
g51
NtRp2966
(dp2967
g54
(dp2968
sg63
g2962
sg56
(lp2969
g49
(g70
g51
NtRp2970
(dp2971
g54
(dp2972
g74
g75
ssg63
g2966
sg56
(lp2973
S'expiration'
p2974
asbag49
(g70
g51
NtRp2975
(dp2976
g54
(dp2977
g81
g82
ssg63
g2966
sg56
(lp2978
S':'
asbag49
(g70
g51
NtRp2979
(dp2980
g54
(dp2981
sg63
g2966
sg56
(lp2982
g49
(g50
g51
NtRp2983
(dp2984
g54
(dp2985
g62
I4
ssg63
g2979
sg56
(lp2986
S'2592000'
p2987
asbasbasbag49
(g65
g51
NtRp2988
(dp2989
g54
(dp2990
sg63
g2962
sg56
(lp2991
g49
(g70
g51
NtRp2992
(dp2993
g54
(dp2994
g74
g75
ssg63
g2988
sg56
(lp2995
S'hmac_key'
p2996
asbag49
(g70
g51
NtRp2997
(dp2998
g54
(dp2999
g81
g82
ssg63
g2988
sg56
(lp3000
S':'
asbag49
(g70
g51
NtRp3001
(dp3002
g54
(dp3003
sg63
g2988
sg56
(lp3004
g49
(g50
g51
NtRp3005
(dp3006
g54
(dp3007
g62
I4
ssg63
g3001
sg56
(lp3008
S'e95fb5e0-f68d-430e-a660-5148e97bc5df'
p3009
asbasbasbag49
(g65
g51
NtRp3010
(dp3011
g54
(dp3012
sg63
g2962
sg56
(lp3013
g49
(g70
g51
NtRp3014
(dp3015
g54
(dp3016
g74
g75
ssg63
g3010
sg56
(lp3017
S'last_visit'
p3018
asbag49
(g70
g51
NtRp3019
(dp3020
g54
(dp3021
g81
g82
ssg63
g3010
sg56
(lp3022
S':'
asbag49
(g70
g51
NtRp3023
(dp3024
g54
(dp3025
sg63
g3010
sg56
(lp3026
g49
(g50
g51
NtRp3027
(dp3028
g54
(dp3029
g62
I4
ssg63
g3023
sg56
(lp3030
S'datetime.datetime(2012, 3, 8, 21, 10, 48, 287338)'
p3031
asbasbasbag49
(g65
g51
NtRp3032
(dp3033
g54
(dp3034
sg63
g2962
sg56
(lp3035
g49
(g70
g51
NtRp3036
(dp3037
g54
(dp3038
g74
g75
ssg63
g3032
sg56
(lp3039
S'remember'
p3040
asbag49
(g70
g51
NtRp3041
(dp3042
g54
(dp3043
g81
g82
ssg63
g3032
sg56
(lp3044
S':'
asbag49
(g70
g51
NtRp3045
(dp3046
g54
(dp3047
sg63
g3032
sg56
(lp3048
g49
(g50
g51
NtRp3049
(dp3050
g54
(dp3051
g62
I4
ssg63
g3045
sg56
(lp3052
g1486
asbasbasbag49
(g65
g51
NtRp3053
(dp3054
g54
(dp3055
sg63
g2962
sg56
(lp3056
g49
(g70
g51
NtRp3057
(dp3058
g54
(dp3059
g74
g75
ssg63
g3053
sg56
(lp3060
S'user'
p3061
asbag49
(g70
g51
NtRp3062
(dp3063
g54
(dp3064
g81
g82
ssg63
g3053
sg56
(lp3065
S':'
asbag49
(g70
g51
NtRp3066
(dp3067
g54
(dp3068
sg63
g3053
sg56
(lp3069
g49
(g50
g51
NtRp3070
(dp3071
g54
(dp3072
g62
I4
ssg63
g3066
sg56
(lp3073
g49
(g58
g51
NtRp3074
(dp3075
g54
(dp3076
g62
I3
ssg63
Nsg56
(lp3077
g49
(g65
g51
NtRp3078
(dp3079
g54
(dp3080
sg63
g3074
sg56
(lp3081
g49
(g70
g51
NtRp3082
(dp3083
g54
(dp3084
g74
g75
ssg63
g3078
sg56
(lp3085
S'email'
p3086
asbag49
(g70
g51
NtRp3087
(dp3088
g54
(dp3089
g81
g82
ssg63
g3078
sg56
(lp3090
S':'
asbag49
(g70
g51
NtRp3091
(dp3092
g54
(dp3093
sg63
g3078
sg56
(lp3094
g49
(g50
g51
NtRp3095
(dp3096
g54
(dp3097
g62
I3
ssg63
g3091
sg56
(lp3098
S'udimilo@gmail.com'
p3099
asbasbasbag49
(g65
g51
NtRp3100
(dp3101
g54
(dp3102
sg63
g3074
sg56
(lp3103
g49
(g70
g51
NtRp3104
(dp3105
g54
(dp3106
g74
g75
ssg63
g3100
sg56
(lp3107
S'first_name'
p3108
asbag49
(g70
g51
NtRp3109
(dp3110
g54
(dp3111
g81
g82
ssg63
g3100
sg56
(lp3112
S':'
asbag49
(g70
g51
NtRp3113
(dp3114
g54
(dp3115
sg63
g3100
sg56
(lp3116
g49
(g50
g51
NtRp3117
(dp3118
g54
(dp3119
g62
I3
ssg63
g3113
sg56
(lp3120
S'Udi'
p3121
asbasbasbag49
(g65
g51
NtRp3122
(dp3123
g54
(dp3124
sg63
g3074
sg56
(lp3125
g49
(g70
g51
NtRp3126
(dp3127
g54
(dp3128
g74
g75
ssg63
g3122
sg56
(lp3129
S'id'
p3130
asbag49
(g70
g51
NtRp3131
(dp3132
g54
(dp3133
g81
g82
ssg63
g3122
sg56
(lp3134
S':'
asbag49
(g70
g51
NtRp3135
(dp3136
g54
(dp3137
sg63
g3122
sg56
(lp3138
g49
(g50
g51
NtRp3139
(dp3140
g54
(dp3141
g62
I3
ssg63
g3135
sg56
(lp3142
S'1'
asbasbasbag49
(g65
g51
NtRp3143
(dp3144
g54
(dp3145
sg63
g3074
sg56
(lp3146
g49
(g70
g51
NtRp3147
(dp3148
g54
(dp3149
g74
g75
ssg63
g3143
sg56
(lp3150
S'last_name'
p3151
asbag49
(g70
g51
NtRp3152
(dp3153
g54
(dp3154
g81
g82
ssg63
g3143
sg56
(lp3155
S':'
asbag49
(g70
g51
NtRp3156
(dp3157
g54
(dp3158
sg63
g3143
sg56
(lp3159
g49
(g50
g51
NtRp3160
(dp3161
g54
(dp3162
g62
I3
ssg63
g3156
sg56
(lp3163
S'Milo'
p3164
asbasbasbag49
(g65
g51
NtRp3165
(dp3166
g54
(dp3167
sg63
g3074
sg56
(lp3168
g49
(g70
g51
NtRp3169
(dp3170
g54
(dp3171
g74
g75
ssg63
g3165
sg56
(lp3172
S'password'
p3173
asbag49
(g70
g51
NtRp3174
(dp3175
g54
(dp3176
g81
g82
ssg63
g3165
sg56
(lp3177
S':'
asbag49
(g70
g51
NtRp3178
(dp3179
g54
(dp3180
sg63
g3165
sg56
(lp3181
g49
(g50
g51
NtRp3182
(dp3183
g54
(dp3184
g62
I3
ssg63
g3178
sg56
(lp3185
S'7a6e3c6a68ceed66634484a3f64a3468'
p3186
asbasbasbag49
(g65
g51
NtRp3187
(dp3188
g54
(dp3189
sg63
g3074
sg56
(lp3190
g49
(g70
g51
NtRp3191
(dp3192
g54
(dp3193
g74
g75
ssg63
g3187
sg56
(lp3194
S'registration_id'
p3195
asbag49
(g70
g51
NtRp3196
(dp3197
g54
(dp3198
g81
g82
ssg63
g3187
sg56
(lp3199
S':'
asbag49
(g70
g51
NtRp3200
(dp3201
g54
(dp3202
sg63
g3187
sg56
(lp3203
g49
(g50
g51
NtRp3204
(dp3205
g54
(dp3206
g62
I3
ssg63
g3200
sg56
(lp3207
S''
asbasbasbag49
(g65
g51
NtRp3208
(dp3209
g54
(dp3210
sg63
g3074
sg56
(lp3211
g49
(g70
g51
NtRp3212
(dp3213
g54
(dp3214
g74
g75
ssg63
g3208
sg56
(lp3215
S'registration_key'
p3216
asbag49
(g70
g51
NtRp3217
(dp3218
g54
(dp3219
g81
g82
ssg63
g3208
sg56
(lp3220
S':'
asbag49
(g70
g51
NtRp3221
(dp3222
g54
(dp3223
sg63
g3208
sg56
(lp3224
g49
(g50
g51
NtRp3225
(dp3226
g54
(dp3227
g62
I3
ssg63
g3221
sg56
(lp3228
S''
asbasbasbag49
(g65
g51
NtRp3229
(dp3230
g54
(dp3231
sg63
g3074
sg56
(lp3232
g49
(g70
g51
NtRp3233
(dp3234
g54
(dp3235
g74
g75
ssg63
g3229
sg56
(lp3236
S'reset_password_key'
p3237
asbag49
(g70
g51
NtRp3238
(dp3239
g54
(dp3240
g81
g82
ssg63
g3229
sg56
(lp3241
S':'
asbag49
(g70
g51
NtRp3242
(dp3243
g54
(dp3244
sg63
g3229
sg56
(lp3245
g49
(g50
g51
NtRp3246
(dp3247
g54
(dp3248
g62
I3
ssg63
g3242
sg56
(lp3249
S''
asbasbasbasbasbasbasbag49
(g65
g51
NtRp3250
(dp3251
g54
(dp3252
sg63
g2962
sg56
(lp3253
g49
(g70
g51
NtRp3254
(dp3255
g54
(dp3256
g74
g75
ssg63
g3250
sg56
(lp3257
S'user_groups'
p3258
asbag49
(g70
g51
NtRp3259
(dp3260
g54
(dp3261
g81
g82
ssg63
g3250
sg56
(lp3262
S':'
asbag49
(g70
g51
NtRp3263
(dp3264
g54
(dp3265
sg63
g3250
sg56
(lp3266
g49
(g50
g51
NtRp3267
(dp3268
g54
(dp3269
g62
I4
ssg63
g3263
sg56
(lp3270
g49
(g58
g51
NtRp3271
(dp3272
g54
(dp3273
g62
I3
ssg63
Nsg56
(lp3274
g49
(g65
g51
NtRp3275
(dp3276
g54
(dp3277
sg63
g3271
sg56
(lp3278
g49
(g70
g51
NtRp3279
(dp3280
g54
(dp3281
g74
g75
ssg63
g3275
sg56
(lp3282
S'1'
asbag49
(g70
g51
NtRp3283
(dp3284
g54
(dp3285
g81
g82
ssg63
g3275
sg56
(lp3286
S':'
asbag49
(g70
g51
NtRp3287
(dp3288
g54
(dp3289
sg63
g3275
sg56
(lp3290
g49
(g50
g51
NtRp3291
(dp3292
g54
(dp3293
g62
I3
ssg63
g3287
sg56
(lp3294
S'user_1'
p3295
asbasbasbasbasbasbasbasbasbasbasbag49
(g65
g51
NtRp3296
(dp3297
g54
(dp3298
sg63
g2937
sg56
(lp3299
g49
(g70
g51
NtRp3300
(dp3301
g54
(dp3302
g74
g75
ssg63
g3296
sg56
(lp3303
S'last_query'
p3304
asbag49
(g70
g51
NtRp3305
(dp3306
g54
(dp3307
g81
g82
ssg63
g3296
sg56
(lp3308
S':'
asbag49
(g70
g51
NtRp3309
(dp3310
g54
(dp3311
sg63
g3296
sg56
(lp3312
g49
(g50
g51
NtRp3313
(dp3314
g54
(dp3315
g62
I5
ssg63
g3309
sg56
(lp3316
S'db.pin.id>0'
p3317
asbasbasbasbasbsS'etype'
p3318
S"<type 'exceptions.ImportError'>"
p3319
sS'date'
p3320
S'Wed Mar 14 23:36:30 2012'
p3321
sS'response'
p3322
g49
(g50
g51
NtRp3323
(dp3324
g54
(dp3325
sg56
(lp3326
g49
(g58
g51
NtRp3327
(dp3328
g54
(dp3329
g62
I5
ssg63
Nsg56
(lp3330
g49
(g65
g51
NtRp3331
(dp3332
g54
(dp3333
sg63
g3327
sg56
(lp3334
g49
(g70
g51
NtRp3335
(dp3336
g54
(dp3337
g74
g75
ssg63
g3331
sg56
(lp3338
g147
asbag49
(g70
g51
NtRp3339
(dp3340
g54
(dp3341
g81
g82
ssg63
g3331
sg56
(lp3342
S':'
asbag49
(g70
g51
NtRp3343
(dp3344
g54
(dp3345
sg63
g3331
sg56
(lp3346
g49
(g50
g51
NtRp3347
(dp3348
g54
(dp3349
g62
I5
ssg63
g3343
sg56
(lp3350
S'<cStringIO.StringO object at 0xa34b340>'
p3351
asbasbasbag49
(g65
g51
NtRp3352
(dp3353
g54
(dp3354
sg63
g3327
sg56
(lp3355
g49
(g70
g51
NtRp3356
(dp3357
g54
(dp3358
g74
g75
ssg63
g3352
sg56
(lp3359
g213
asbag49
(g70
g51
NtRp3360
(dp3361
g54
(dp3362
g81
g82
ssg63
g3352
sg56
(lp3363
S':'
asbag49
(g70
g51
NtRp3364
(dp3365
g54
(dp3366
sg63
g3352
sg56
(lp3367
g49
(g50
g51
NtRp3368
(dp3369
g54
(dp3370
g62
I5
ssg63
g3364
sg56
(lp3371
g49
(g58
g51
NtRp3372
(dp3373
g54
(dp3374
g62
I4
ssg63
Nsg56
(lp3375
g49
(g65
g51
NtRp3376
(dp3377
g54
(dp3378
sg63
g3372
sg56
(lp3379
g49
(g70
g51
NtRp3380
(dp3381
g54
(dp3382
g74
g75
ssg63
g3376
sg56
(lp3383
S'session_id_udi0312'
p3384
asbag49
(g70
g51
NtRp3385
(dp3386
g54
(dp3387
g81
g82
ssg63
g3376
sg56
(lp3388
S':'
asbag49
(g70
g51
NtRp3389
(dp3390
g54
(dp3391
sg63
g3376
sg56
(lp3392
g49
(g50
g51
NtRp3393
(dp3394
g54
(dp3395
g62
I4
ssg63
g3389
sg56
(lp3396
g49
(g58
g51
NtRp3397
(dp3398
g54
(dp3399
g62
I3
ssg63
Nsg56
(lp3400
g49
(g65
g51
NtRp3401
(dp3402
g54
(dp3403
sg63
g3397
sg56
(lp3404
g49
(g70
g51
NtRp3405
(dp3406
g54
(dp3407
g74
g75
ssg63
g3401
sg56
(lp3408
g263
asbag49
(g70
g51
NtRp3409
(dp3410
g54
(dp3411
g81
g82
ssg63
g3401
sg56
(lp3412
S':'
asbag49
(g70
g51
NtRp3413
(dp3414
g54
(dp3415
sg63
g3401
sg56
(lp3416
g49
(g50
g51
NtRp3417
(dp3418
g54
(dp3419
g62
I3
ssg63
g3413
sg56
(lp3420
S''
asbasbasbag49
(g65
g51
NtRp3421
(dp3422
g54
(dp3423
sg63
g3397
sg56
(lp3424
g49
(g70
g51
NtRp3425
(dp3426
g54
(dp3427
g74
g75
ssg63
g3421
sg56
(lp3428
g284
asbag49
(g70
g51
NtRp3429
(dp3430
g54
(dp3431
g81
g82
ssg63
g3421
sg56
(lp3432
S':'
asbag49
(g70
g51
NtRp3433
(dp3434
g54
(dp3435
sg63
g3421
sg56
(lp3436
g49
(g50
g51
NtRp3437
(dp3438
g54
(dp3439
g62
I3
ssg63
g3433
sg56
(lp3440
S''
asbasbasbag49
(g65
g51
NtRp3441
(dp3442
g54
(dp3443
sg63
g3397
sg56
(lp3444
g49
(g70
g51
NtRp3445
(dp3446
g54
(dp3447
g74
g75
ssg63
g3441
sg56
(lp3448
g305
asbag49
(g70
g51
NtRp3449
(dp3450
g54
(dp3451
g81
g82
ssg63
g3441
sg56
(lp3452
S':'
asbag49
(g70
g51
NtRp3453
(dp3454
g54
(dp3455
sg63
g3441
sg56
(lp3456
g49
(g50
g51
NtRp3457
(dp3458
g54
(dp3459
g62
I3
ssg63
g3453
sg56
(lp3460
S'2592000'
p3461
asbasbasbag49
(g65
g51
NtRp3462
(dp3463
g54
(dp3464
sg63
g3397
sg56
(lp3465
g49
(g70
g51
NtRp3466
(dp3467
g54
(dp3468
g74
g75
ssg63
g3462
sg56
(lp3469
g326
asbag49
(g70
g51
NtRp3470
(dp3471
g54
(dp3472
g81
g82
ssg63
g3462
sg56
(lp3473
S':'
asbag49
(g70
g51
NtRp3474
(dp3475
g54
(dp3476
sg63
g3462
sg56
(lp3477
g49
(g50
g51
NtRp3478
(dp3479
g54
(dp3480
g62
I3
ssg63
g3474
sg56
(lp3481
S''
asbasbasbag49
(g65
g51
NtRp3482
(dp3483
g54
(dp3484
sg63
g3397
sg56
(lp3485
g49
(g70
g51
NtRp3486
(dp3487
g54
(dp3488
g74
g75
ssg63
g3482
sg56
(lp3489
g347
asbag49
(g70
g51
NtRp3490
(dp3491
g54
(dp3492
g81
g82
ssg63
g3482
sg56
(lp3493
S':'
asbag49
(g70
g51
NtRp3494
(dp3495
g54
(dp3496
sg63
g3482
sg56
(lp3497
g49
(g50
g51
NtRp3498
(dp3499
g54
(dp3500
g62
I3
ssg63
g3494
sg56
(lp3501
S'/'
asbasbasbag49
(g65
g51
NtRp3502
(dp3503
g54
(dp3504
sg63
g3397
sg56
(lp3505
g49
(g70
g51
NtRp3506
(dp3507
g54
(dp3508
g74
g75
ssg63
g3502
sg56
(lp3509
g368
asbag49
(g70
g51
NtRp3510
(dp3511
g54
(dp3512
g81
g82
ssg63
g3502
sg56
(lp3513
S':'
asbag49
(g70
g51
NtRp3514
(dp3515
g54
(dp3516
sg63
g3502
sg56
(lp3517
g49
(g50
g51
NtRp3518
(dp3519
g54
(dp3520
g62
I3
ssg63
g3514
sg56
(lp3521
S''
asbasbasbag49
(g65
g51
NtRp3522
(dp3523
g54
(dp3524
sg63
g3397
sg56
(lp3525
g49
(g70
g51
NtRp3526
(dp3527
g54
(dp3528
g74
g75
ssg63
g3522
sg56
(lp3529
g389
asbag49
(g70
g51
NtRp3530
(dp3531
g54
(dp3532
g81
g82
ssg63
g3522
sg56
(lp3533
S':'
asbag49
(g70
g51
NtRp3534
(dp3535
g54
(dp3536
sg63
g3522
sg56
(lp3537
g49
(g50
g51
NtRp3538
(dp3539
g54
(dp3540
g62
I3
ssg63
g3534
sg56
(lp3541
S''
asbasbasbasbasbasbasbasbasbasbasbag49
(g65
g51
NtRp3542
(dp3543
g54
(dp3544
sg63
g3327
sg56
(lp3545
g49
(g70
g51
NtRp3546
(dp3547
g54
(dp3548
g74
g75
ssg63
g3542
sg56
(lp3549
S'delimiters'
p3550
asbag49
(g70
g51
NtRp3551
(dp3552
g54
(dp3553
g81
g82
ssg63
g3542
sg56
(lp3554
S':'
asbag49
(g70
g51
NtRp3555
(dp3556
g54
(dp3557
sg63
g3542
sg56
(lp3558
g49
(g50
g51
NtRp3559
(dp3560
g54
(dp3561
g62
I5
ssg63
g3555
sg56
(lp3562
g49
(g58
g51
NtRp3563
(dp3564
g54
(dp3565
g62
I4
ssg63
Nsg56
(lp3566
g49
(g65
g51
NtRp3567
(dp3568
g54
(dp3569
sg63
g3563
sg56
(lp3570
g49
(g70
g51
NtRp3571
(dp3572
g54
(dp3573
sg63
g3567
sg56
(lp3574
g49
(g50
g51
NtRp3575
(dp3576
g54
(dp3577
g62
I4
ssg63
g3571
sg56
(lp3578
S'{{'
p3579
asbasbasbag49
(g65
g51
NtRp3580
(dp3581
g54
(dp3582
sg63
g3563
sg56
(lp3583
g49
(g70
g51
NtRp3584
(dp3585
g54
(dp3586
sg63
g3580
sg56
(lp3587
g49
(g50
g51
NtRp3588
(dp3589
g54
(dp3590
g62
I4
ssg63
g3584
sg56
(lp3591
S'}}'
p3592
asbasbasbasbasbasbasbag49
(g65
g51
NtRp3593
(dp3594
g54
(dp3595
sg63
g3327
sg56
(lp3596
g49
(g70
g51
NtRp3597
(dp3598
g54
(dp3599
g74
g75
ssg63
g3593
sg56
(lp3600
S'files'
p3601
asbag49
(g70
g51
NtRp3602
(dp3603
g54
(dp3604
g81
g82
ssg63
g3593
sg56
(lp3605
S':'
asbag49
(g70
g51
NtRp3606
(dp3607
g54
(dp3608
sg63
g3593
sg56
(lp3609
g49
(g50
g51
NtRp3610
(dp3611
g54
(dp3612
g62
I5
ssg63
g3606
sg56
(lp3613
g49
(g58
g51
NtRp3614
(dp3615
g54
(dp3616
g62
I4
ssg63
Nsg56
(lp3617
sbasbasbasbag49
(g65
g51
NtRp3618
(dp3619
g54
(dp3620
sg63
g3327
sg56
(lp3621
g49
(g70
g51
NtRp3622
(dp3623
g54
(dp3624
g74
g75
ssg63
g3618
sg56
(lp3625
S'flash'
p3626
asbag49
(g70
g51
NtRp3627
(dp3628
g54
(dp3629
g81
g82
ssg63
g3618
sg56
(lp3630
S':'
asbag49
(g70
g51
NtRp3631
(dp3632
g54
(dp3633
sg63
g3618
sg56
(lp3634
g49
(g50
g51
NtRp3635
(dp3636
g54
(dp3637
g62
I5
ssg63
g3631
sg56
(lp3638
S''
asbasbasbag49
(g65
g51
NtRp3639
(dp3640
g54
(dp3641
sg63
g3327
sg56
(lp3642
g49
(g70
g51
NtRp3643
(dp3644
g54
(dp3645
g74
g75
ssg63
g3639
sg56
(lp3646
S'generic_patterns'
p3647
asbag49
(g70
g51
NtRp3648
(dp3649
g54
(dp3650
g81
g82
ssg63
g3639
sg56
(lp3651
S':'
asbag49
(g70
g51
NtRp3652
(dp3653
g54
(dp3654
sg63
g3639
sg56
(lp3655
g49
(g50
g51
NtRp3656
(dp3657
g54
(dp3658
g62
I5
ssg63
g3652
sg56
(lp3659
g49
(g58
g51
NtRp3660
(dp3661
g54
(dp3662
g62
I4
ssg63
Nsg56
(lp3663
g49
(g65
g51
NtRp3664
(dp3665
g54
(dp3666
sg63
g3660
sg56
(lp3667
g49
(g70
g51
NtRp3668
(dp3669
g54
(dp3670
sg63
g3664
sg56
(lp3671
g49
(g50
g51
NtRp3672
(dp3673
g54
(dp3674
g62
I4
ssg63
g3668
sg56
(lp3675
S'*'
asbasbasbasbasbasbasbag49
(g65
g51
NtRp3676
(dp3677
g54
(dp3678
sg63
g3327
sg56
(lp3679
g49
(g70
g51
NtRp3680
(dp3681
g54
(dp3682
g74
g75
ssg63
g3676
sg56
(lp3683
S'headers'
p3684
asbag49
(g70
g51
NtRp3685
(dp3686
g54
(dp3687
g81
g82
ssg63
g3676
sg56
(lp3688
S':'
asbag49
(g70
g51
NtRp3689
(dp3690
g54
(dp3691
sg63
g3676
sg56
(lp3692
g49
(g50
g51
NtRp3693
(dp3694
g54
(dp3695
g62
I5
ssg63
g3689
sg56
(lp3696
g49
(g58
g51
NtRp3697
(dp3698
g54
(dp3699
g62
I4
ssg63
Nsg56
(lp3700
g49
(g65
g51
NtRp3701
(dp3702
g54
(dp3703
sg63
g3697
sg56
(lp3704
g49
(g70
g51
NtRp3705
(dp3706
g54
(dp3707
g74
g75
ssg63
g3701
sg56
(lp3708
S'Cache-Control'
p3709
asbag49
(g70
g51
NtRp3710
(dp3711
g54
(dp3712
g81
g82
ssg63
g3701
sg56
(lp3713
S':'
asbag49
(g70
g51
NtRp3714
(dp3715
g54
(dp3716
sg63
g3701
sg56
(lp3717
g49
(g50
g51
NtRp3718
(dp3719
g54
(dp3720
g62
I4
ssg63
g3714
sg56
(lp3721
S'no-store, no-cache, must-revalidate, post-check=0, pre-check=0'
p3722
asbasbasbag49
(g65
g51
NtRp3723
(dp3724
g54
(dp3725
sg63
g3697
sg56
(lp3726
g49
(g70
g51
NtRp3727
(dp3728
g54
(dp3729
g74
g75
ssg63
g3723
sg56
(lp3730
S'Content-Type'
p3731
asbag49
(g70
g51
NtRp3732
(dp3733
g54
(dp3734
g81
g82
ssg63
g3723
sg56
(lp3735
S':'
asbag49
(g70
g51
NtRp3736
(dp3737
g54
(dp3738
sg63
g3723
sg56
(lp3739
g49
(g50
g51
NtRp3740
(dp3741
g54
(dp3742
g62
I4
ssg63
g3736
sg56
(lp3743
S'text/html; charset=utf-8'
p3744
asbasbasbag49
(g65
g51
NtRp3745
(dp3746
g54
(dp3747
sg63
g3697
sg56
(lp3748
g49
(g70
g51
NtRp3749
(dp3750
g54
(dp3751
g74
g75
ssg63
g3745
sg56
(lp3752
S'Expires'
p3753
asbag49
(g70
g51
NtRp3754
(dp3755
g54
(dp3756
g81
g82
ssg63
g3745
sg56
(lp3757
S':'
asbag49
(g70
g51
NtRp3758
(dp3759
g54
(dp3760
sg63
g3745
sg56
(lp3761
g49
(g50
g51
NtRp3762
(dp3763
g54
(dp3764
g62
I4
ssg63
g3758
sg56
(lp3765
S'Thu, 15 Mar 2012 03:36:29 GMT'
p3766
asbasbasbag49
(g65
g51
NtRp3767
(dp3768
g54
(dp3769
sg63
g3697
sg56
(lp3770
g49
(g70
g51
NtRp3771
(dp3772
g54
(dp3773
g74
g75
ssg63
g3767
sg56
(lp3774
S'Pragma'
p3775
asbag49
(g70
g51
NtRp3776
(dp3777
g54
(dp3778
g81
g82
ssg63
g3767
sg56
(lp3779
S':'
asbag49
(g70
g51
NtRp3780
(dp3781
g54
(dp3782
sg63
g3767
sg56
(lp3783
g49
(g50
g51
NtRp3784
(dp3785
g54
(dp3786
g62
I4
ssg63
g3780
sg56
(lp3787
S'no-cache'
p3788
asbasbasbag49
(g65
g51
NtRp3789
(dp3790
g54
(dp3791
sg63
g3697
sg56
(lp3792
g49
(g70
g51
NtRp3793
(dp3794
g54
(dp3795
g74
g75
ssg63
g3789
sg56
(lp3796
S'X-Powered-By'
p3797
asbag49
(g70
g51
NtRp3798
(dp3799
g54
(dp3800
g81
g82
ssg63
g3789
sg56
(lp3801
S':'
asbag49
(g70
g51
NtRp3802
(dp3803
g54
(dp3804
sg63
g3789
sg56
(lp3805
g49
(g50
g51
NtRp3806
(dp3807
g54
(dp3808
g62
I4
ssg63
g3802
sg56
(lp3809
S'web2py'
p3810
asbasbasbasbasbasbasbag49
(g65
g51
NtRp3811
(dp3812
g54
(dp3813
sg63
g3327
sg56
(lp3814
g49
(g70
g51
NtRp3815
(dp3816
g54
(dp3817
g74
g75
ssg63
g3811
sg56
(lp3818
S'menu'
p3819
asbag49
(g70
g51
NtRp3820
(dp3821
g54
(dp3822
g81
g82
ssg63
g3811
sg56
(lp3823
S':'
asbag49
(g70
g51
NtRp3824
(dp3825
g54
(dp3826
sg63
g3811
sg56
(lp3827
g49
(g50
g51
NtRp3828
(dp3829
g54
(dp3830
g62
I5
ssg63
g3824
sg56
(lp3831
g49
(g58
g51
NtRp3832
(dp3833
g54
(dp3834
g62
I4
ssg63
Nsg56
(lp3835
g49
(g65
g51
NtRp3836
(dp3837
g54
(dp3838
sg63
g3832
sg56
(lp3839
g49
(g70
g51
NtRp3840
(dp3841
g54
(dp3842
sg63
g3836
sg56
(lp3843
g49
(g50
g51
NtRp3844
(dp3845
g54
(dp3846
g62
I4
ssg63
g3840
sg56
(lp3847
g49
(g58
g51
NtRp3848
(dp3849
g54
(dp3850
g62
I3
ssg63
Nsg56
(lp3851
g49
(g65
g51
NtRp3852
(dp3853
g54
(dp3854
sg63
g3848
sg56
(lp3855
g49
(g70
g51
NtRp3856
(dp3857
g54
(dp3858
sg63
g3852
sg56
(lp3859
g49
(g50
g51
NtRp3860
(dp3861
g54
(dp3862
g62
I3
ssg63
g3856
sg56
(lp3863
cgluon.languages
lazyT_unpickle
p3864
(S's\x04\x00\x00\x00Home'
tRp3865
asbasbasbag49
(g65
g51
NtRp3866
(dp3867
g54
(dp3868
sg63
g3848
sg56
(lp3869
g49
(g70
g51
NtRp3870
(dp3871
g54
(dp3872
sg63
g3866
sg56
(lp3873
g49
(g50
g51
NtRp3874
(dp3875
g54
(dp3876
g62
I3
ssg63
g3870
sg56
(lp3877
g92
asbasbasbag49
(g65
g51
NtRp3878
(dp3879
g54
(dp3880
sg63
g3848
sg56
(lp3881
g49
(g70
g51
NtRp3882
(dp3883
g54
(dp3884
sg63
g3878
sg56
(lp3885
g49
(g50
g51
NtRp3886
(dp3887
g54
(dp3888
g62
I3
ssg63
g3882
sg56
(lp3889
S'/'
asbasbasbag49
(g65
g51
NtRp3890
(dp3891
g54
(dp3892
sg63
g3848
sg56
(lp3893
g49
(g70
g51
NtRp3894
(dp3895
g54
(dp3896
sg63
g3890
sg56
(lp3897
g49
(g50
g51
NtRp3898
(dp3899
g54
(dp3900
g62
I3
ssg63
g3894
sg56
(lp3901
g49
(g58
g51
NtRp3902
(dp3903
g54
(dp3904
g62
I2
ssg63
Nsg56
(lp3905
sbasbasbasbasbasbasbasbag49
(g65
g51
NtRp3906
(dp3907
g54
(dp3908
sg63
g3832
sg56
(lp3909
g49
(g70
g51
NtRp3910
(dp3911
g54
(dp3912
sg63
g3906
sg56
(lp3913
g49
(g50
g51
NtRp3914
(dp3915
g54
(dp3916
g62
I4
ssg63
g3910
sg56
(lp3917
g49
(g58
g51
NtRp3918
(dp3919
g54
(dp3920
g62
I3
ssg63
Nsg56
(lp3921
g49
(g65
g51
NtRp3922
(dp3923
g54
(dp3924
sg63
g3918
sg56
(lp3925
g49
(g70
g51
NtRp3926
(dp3927
g54
(dp3928
sg63
g3922
sg56
(lp3929
g49
(g50
g51
NtRp3930
(dp3931
g54
(dp3932
g62
I3
ssg63
g3926
sg56
(lp3933
g49
(cgluon.html
SPAN
p3934
g51
NtRp3935
(dp3936
g54
(dp3937
g74
S'color:yellow'
p3938
ssg63
Nsg56
(lp3939
g3810
asbasbasbasbag49
(g65
g51
NtRp3940
(dp3941
g54
(dp3942
sg63
g3918
sg56
(lp3943
g49
(g70
g51
NtRp3944
(dp3945
g54
(dp3946
sg63
g3940
sg56
(lp3947
g49
(g50
g51
NtRp3948
(dp3949
g54
(dp3950
g62
I3
ssg63
g3944
sg56
(lp3951
g92
asbasbasbag49
(g65
g51
NtRp3952
(dp3953
g54
(dp3954
sg63
g3918
sg56
(lp3955
g49
(g70
g51
NtRp3956
(dp3957
g54
(dp3958
sg63
g3952
sg56
(lp3959
g49
(g50
g51
NtRp3960
(dp3961
g54
(dp3962
g62
I3
ssg63
g3956
sg56
(lp3963
S'None'
p3964
asbasbasbag49
(g65
g51
NtRp3965
(dp3966
g54
(dp3967
sg63
g3918
sg56
(lp3968
g49
(g70
g51
NtRp3969
(dp3970
g54
(dp3971
sg63
g3965
sg56
(lp3972
g49
(g50
g51
NtRp3973
(dp3974
g54
(dp3975
g62
I3
ssg63
g3969
sg56
(lp3976
g49
(g58
g51
NtRp3977
(dp3978
g54
(dp3979
g62
I2
ssg63
Nsg56
(lp3980
g49
(g65
g51
NtRp3981
(dp3982
g54
(dp3983
sg63
g3977
sg56
(lp3984
g49
(g70
g51
NtRp3985
(dp3986
g54
(dp3987
sg63
g3981
sg56
(lp3988
g49
(g50
g51
NtRp3989
(dp3990
g54
(dp3991
g62
I2
ssg63
g3985
sg56
(lp3992
g49
(g58
g51
NtRp3993
(dp3994
g54
(dp3995
g62
I1
ssg63
Nsg56
(lp3996
g49
(g65
g51
NtRp3997
(dp3998
g54
(dp3999
sg63
g3993
sg56
(lp4000
g49
(g70
g51
NtRp4001
(dp4002
g54
(dp4003
sg63
g3997
sg56
(lp4004
g49
(g50
g51
NtRp4005
(dp4006
g54
(dp4007
g62
I1
ssg63
g4001
sg56
(lp4008
g3864
(S's\x08\x00\x00\x00My Sites'
tRp4009
asbasbasbag49
(g65
g51
NtRp4010
(dp4011
g54
(dp4012
sg63
g3993
sg56
(lp4013
g49
(g70
g51
NtRp4014
(dp4015
g54
(dp4016
sg63
g4010
sg56
(lp4017
g49
(g50
g51
NtRp4018
(dp4019
g54
(dp4020
g62
I1
ssg63
g4014
sg56
(lp4021
I00
asbasbasbag49
(g65
g51
NtRp4022
(dp4023
g54
(dp4024
sg63
g3993
sg56
(lp4025
g49
(g70
g51
NtRp4026
(dp4027
g54
(dp4028
sg63
g4022
sg56
(lp4029
g49
(g50
g51
NtRp4030
(dp4031
g54
(dp4032
g62
I1
ssg63
g4026
sg56
(lp4033
S'/admin/site'
p4034
asbasbasbasbasbasbasbag49
(g65
g51
NtRp4035
(dp4036
g54
(dp4037
sg63
g3977
sg56
(lp4038
g49
(g70
g51
NtRp4039
(dp4040
g54
(dp4041
sg63
g4035
sg56
(lp4042
g49
(g50
g51
NtRp4043
(dp4044
g54
(dp4045
g62
I2
ssg63
g4039
sg56
(lp4046
g49
(g58
g51
NtRp4047
(dp4048
g54
(dp4049
g62
I1
ssg63
Nsg56
(lp4050
g49
(g65
g51
NtRp4051
(dp4052
g54
(dp4053
sg63
g4047
sg56
(lp4054
g49
(g70
g51
NtRp4055
(dp4056
g54
(dp4057
sg63
g4051
sg56
(lp4058
g49
(g50
g51
NtRp4059
(dp4060
g54
(dp4061
g62
I1
ssg63
g4055
sg56
(lp4062
g3864
(S's\x08\x00\x00\x00This App'
tRp4063
asbasbasbag49
(g65
g51
NtRp4064
(dp4065
g54
(dp4066
sg63
g4047
sg56
(lp4067
g49
(g70
g51
NtRp4068
(dp4069
g54
(dp4070
sg63
g4064
sg56
(lp4071
g49
(g50
g51
NtRp4072
(dp4073
g54
(dp4074
g62
I1
ssg63
g4068
sg56
(lp4075
I00
asbasbasbag49
(g65
g51
NtRp4076
(dp4077
g54
(dp4078
sg63
g4047
sg56
(lp4079
g49
(g70
g51
NtRp4080
(dp4081
g54
(dp4082
sg63
g4076
sg56
(lp4083
g49
(g50
g51
NtRp4084
(dp4085
g54
(dp4086
g62
I1
ssg63
g4080
sg56
(lp4087
S'/admin/design/udi0312'
p4088
asbasbasbag49
(g65
g51
NtRp4089
(dp4090
g54
(dp4091
sg63
g4047
sg56
(lp4092
g49
(g70
g51
NtRp4093
(dp4094
g54
(dp4095
sg63
g4089
sg56
(lp4096
g49
(g50
g51
NtRp4097
(dp4098
g54
(dp4099
g62
I1
ssg63
g4093
sg56
(lp4100
(lp4101
(g3864
(S's\n\x00\x00\x00Controller'
tRp4102
I00
S'/admin/edit/udi0312/controllers/default.py'
tp4103
a(g3864
(S's\x04\x00\x00\x00View'
tRp4104
I00
S'/admin/edit/udi0312/views/default/index.html'
tp4105
a(g3864
(S's\x06\x00\x00\x00Layout'
tRp4106
I00
S'/admin/edit/udi0312/views/layout.html'
tp4107
a(g3864
(S's\n\x00\x00\x00Stylesheet'
tRp4108
I00
S'/admin/edit/udi0312/static/css/web2py.css'
tp4109
a(g3864
(S's\x08\x00\x00\x00DB Model'
tRp4110
I00
S'/admin/edit/udi0312/models/db.py'
tp4111
a(g3864
(S's\n\x00\x00\x00Menu Model'
tRp4112
I00
S'/admin/edit/udi0312/models/menu.py'
tp4113
a(g3864
(S's\x08\x00\x00\x00Database'
tRp4114
I00
S'/appadmin'
tp4115
a(g3864
(S's\x06\x00\x00\x00Errors'
tRp4116
I00
S'/admin/errors/udi0312'
tp4117
a(g3864
(S's\x05\x00\x00\x00About'
tRp4118
I00
S'/admin/about/udi0312'
tp4119
aasbasbasbasbasbasbasbag49
(g65
g51
NtRp4120
(dp4121
g54
(dp4122
sg63
g3977
sg56
(lp4123
g49
(g70
g51
NtRp4124
(dp4125
g54
(dp4126
sg63
g4120
sg56
(lp4127
g49
(g50
g51
NtRp4128
(dp4129
g54
(dp4130
g62
I2
ssg63
g4124
sg56
(lp4131
g49
(g58
g51
NtRp4132
(dp4133
g54
(dp4134
g62
I1
ssg63
Nsg56
(lp4135
g49
(g65
g51
NtRp4136
(dp4137
g54
(dp4138
sg63
g4132
sg56
(lp4139
g49
(g70
g51
NtRp4140
(dp4141
g54
(dp4142
sg63
g4136
sg56
(lp4143
g49
(g50
g51
NtRp4144
(dp4145
g54
(dp4146
g62
I1
ssg63
g4140
sg56
(lp4147
S'web2py.com'
p4148
asbasbasbag49
(g65
g51
NtRp4149
(dp4150
g54
(dp4151
sg63
g4132
sg56
(lp4152
g49
(g70
g51
NtRp4153
(dp4154
g54
(dp4155
sg63
g4149
sg56
(lp4156
g49
(g50
g51
NtRp4157
(dp4158
g54
(dp4159
g62
I1
ssg63
g4153
sg56
(lp4160
I00
asbasbasbag49
(g65
g51
NtRp4161
(dp4162
g54
(dp4163
sg63
g4132
sg56
(lp4164
g49
(g70
g51
NtRp4165
(dp4166
g54
(dp4167
sg63
g4161
sg56
(lp4168
g49
(g50
g51
NtRp4169
(dp4170
g54
(dp4171
g62
I1
ssg63
g4165
sg56
(lp4172
S'http://www.web2py.com'
p4173
asbasbasbag49
(g65
g51
NtRp4174
(dp4175
g54
(dp4176
sg63
g4132
sg56
(lp4177
g49
(g70
g51
NtRp4178
(dp4179
g54
(dp4180
sg63
g4174
sg56
(lp4181
g49
(g50
g51
NtRp4182
(dp4183
g54
(dp4184
g62
I1
ssg63
g4178
sg56
(lp4185
(lp4186
(g3864
(S's\x08\x00\x00\x00Download'
tRp4187
I00
S'http://www.web2py.com/examples/default/download'
p4188
tp4189
a(g3864
(S's\x07\x00\x00\x00Support'
tRp4190
I00
S'http://www.web2py.com/examples/default/support'
p4191
tp4192
a(g3864
(S's\x04\x00\x00\x00Demo'
tRp4193
I00
S'http://web2py.com/demo_admin'
p4194
tp4195
a(g3864
(S's\x0e\x00\x00\x00Quick Examples'
tRp4196
I00
S'http://web2py.com/examples/default/examples'
p4197
tp4198
a(g3864
(S's\x03\x00\x00\x00FAQ'
tRp4199
I00
S'http://web2py.com/AlterEgo'
p4200
tp4201
a(g3864
(S's\x06\x00\x00\x00Videos'
tRp4202
I00
S'http://www.web2py.com/examples/default/videos/'
p4203
tp4204
a(g3864
(S's\x11\x00\x00\x00Free Applications'
tRp4205
I00
S'http://web2py.com/appliances'
p4206
tp4207
a(g3864
(S's\x07\x00\x00\x00Plugins'
tRp4208
I00
S'http://web2py.com/plugins'
p4209
tp4210
a(g3864
(S's\x07\x00\x00\x00Layouts'
tRp4211
I00
S'http://web2py.com/layouts'
p4212
tp4213
a(g3864
(S's\x07\x00\x00\x00Recipes'
tRp4214
I00
S'http://web2pyslices.com/'
p4215
tp4216
a(g3864
(S's\x08\x00\x00\x00Semantic'
tRp4217
I00
S'http://web2py.com/semantic'
p4218
tp4219
aasbasbasbasbasbasbasbag49
(g65
g51
NtRp4220
(dp4221
g54
(dp4222
sg63
g3977
sg56
(lp4223
g49
(g70
g51
NtRp4224
(dp4225
g54
(dp4226
sg63
g4220
sg56
(lp4227
g49
(g50
g51
NtRp4228
(dp4229
g54
(dp4230
g62
I2
ssg63
g4224
sg56
(lp4231
g49
(g58
g51
NtRp4232
(dp4233
g54
(dp4234
g62
I1
ssg63
Nsg56
(lp4235
g49
(g65
g51
NtRp4236
(dp4237
g54
(dp4238
sg63
g4232
sg56
(lp4239
g49
(g70
g51
NtRp4240
(dp4241
g54
(dp4242
sg63
g4236
sg56
(lp4243
g49
(g50
g51
NtRp4244
(dp4245
g54
(dp4246
g62
I1
ssg63
g4240
sg56
(lp4247
g3864
(S's\r\x00\x00\x00Documentation'
tRp4248
asbasbasbag49
(g65
g51
NtRp4249
(dp4250
g54
(dp4251
sg63
g4232
sg56
(lp4252
g49
(g70
g51
NtRp4253
(dp4254
g54
(dp4255
sg63
g4249
sg56
(lp4256
g49
(g50
g51
NtRp4257
(dp4258
g54
(dp4259
g62
I1
ssg63
g4253
sg56
(lp4260
I00
asbasbasbag49
(g65
g51
NtRp4261
(dp4262
g54
(dp4263
sg63
g4232
sg56
(lp4264
g49
(g70
g51
NtRp4265
(dp4266
g54
(dp4267
sg63
g4261
sg56
(lp4268
g49
(g50
g51
NtRp4269
(dp4270
g54
(dp4271
g62
I1
ssg63
g4265
sg56
(lp4272
S'http://www.web2py.com/book'
p4273
asbasbasbag49
(g65
g51
NtRp4274
(dp4275
g54
(dp4276
sg63
g4232
sg56
(lp4277
g49
(g70
g51
NtRp4278
(dp4279
g54
(dp4280
sg63
g4274
sg56
(lp4281
g49
(g50
g51
NtRp4282
(dp4283
g54
(dp4284
g62
I1
ssg63
g4278
sg56
(lp4285
(lp4286
(g3864
(S's\x07\x00\x00\x00Preface'
tRp4287
I00
S'http://www.web2py.com/book/default/chapter/00'
p4288
tp4289
a(g3864
(S's\x0c\x00\x00\x00Introduction'
tRp4290
I00
S'http://www.web2py.com/book/default/chapter/01'
p4291
tp4292
a(g3864
(S's\x06\x00\x00\x00Python'
tRp4293
I00
S'http://www.web2py.com/book/default/chapter/02'
p4294
tp4295
a(g3864
(S's\x08\x00\x00\x00Overview'
tRp4296
I00
S'http://www.web2py.com/book/default/chapter/03'
p4297
tp4298
a(g3864
(S's\x08\x00\x00\x00The Core'
tRp4299
I00
S'http://www.web2py.com/book/default/chapter/04'
p4300
tp4301
a(g3864
(S's\t\x00\x00\x00The Views'
tRp4302
I00
S'http://www.web2py.com/book/default/chapter/05'
p4303
tp4304
a(g3864
(S's\x08\x00\x00\x00Database'
tRp4305
I00
S'http://www.web2py.com/book/default/chapter/06'
p4306
tp4307
a(g3864
(S's\x14\x00\x00\x00Forms and Validators'
tRp4308
I00
S'http://www.web2py.com/book/default/chapter/07'
p4309
tp4310
a(g3864
(S's\r\x00\x00\x00Email and SMS'
tRp4311
I00
S'http://www.web2py.com/book/default/chapter/08'
p4312
tp4313
a(g3864
(S's\x0e\x00\x00\x00Access Control'
tRp4314
I00
S'http://www.web2py.com/book/default/chapter/09'
p4315
tp4316
a(g3864
(S's\x08\x00\x00\x00Services'
tRp4317
I00
S'http://www.web2py.com/book/default/chapter/10'
p4318
tp4319
a(g3864
(S's\x0c\x00\x00\x00Ajax Recipes'
tRp4320
I00
S'http://www.web2py.com/book/default/chapter/11'
p4321
tp4322
a(g3864
(S's\x16\x00\x00\x00Components and Plugins'
tRp4323
I00
S'http://www.web2py.com/book/default/chapter/12'
p4324
tp4325
a(g3864
(S's\x12\x00\x00\x00Deployment Recipes'
tRp4326
I00
S'http://www.web2py.com/book/default/chapter/13'
p4327
tp4328
a(g3864
(S's\r\x00\x00\x00Other Recipes'
tRp4329
I00
S'http://www.web2py.com/book/default/chapter/14'
p4330
tp4331
a(g3864
(S's\r\x00\x00\x00Buy this book'
tRp4332
I00
S'http://stores.lulu.com/web2py'
p4333
tp4334
aasbasbasbasbasbasbasbag49
(g65
g51
NtRp4335
(dp4336
g54
(dp4337
sg63
g3977
sg56
(lp4338
g49
(g70
g51
NtRp4339
(dp4340
g54
(dp4341
sg63
g4335
sg56
(lp4342
g49
(g50
g51
NtRp4343
(dp4344
g54
(dp4345
g62
I2
ssg63
g4339
sg56
(lp4346
g49
(g58
g51
NtRp4347
(dp4348
g54
(dp4349
g62
I1
ssg63
Nsg56
(lp4350
g49
(g65
g51
NtRp4351
(dp4352
g54
(dp4353
sg63
g4347
sg56
(lp4354
g49
(g70
g51
NtRp4355
(dp4356
g54
(dp4357
sg63
g4351
sg56
(lp4358
g49
(g50
g51
NtRp4359
(dp4360
g54
(dp4361
g62
I1
ssg63
g4355
sg56
(lp4362
g3864
(S's\t\x00\x00\x00Community'
tRp4363
asbasbasbag49
(g65
g51
NtRp4364
(dp4365
g54
(dp4366
sg63
g4347
sg56
(lp4367
g49
(g70
g51
NtRp4368
(dp4369
g54
(dp4370
sg63
g4364
sg56
(lp4371
g49
(g50
g51
NtRp4372
(dp4373
g54
(dp4374
g62
I1
ssg63
g4368
sg56
(lp4375
I00
asbasbasbag49
(g65
g51
NtRp4376
(dp4377
g54
(dp4378
sg63
g4347
sg56
(lp4379
g49
(g70
g51
NtRp4380
(dp4381
g54
(dp4382
sg63
g4376
sg56
(lp4383
g49
(g50
g51
NtRp4384
(dp4385
g54
(dp4386
g62
I1
ssg63
g4380
sg56
(lp4387
Nasbasbasbag49
(g65
g51
NtRp4388
(dp4389
g54
(dp4390
sg63
g4347
sg56
(lp4391
g49
(g70
g51
NtRp4392
(dp4393
g54
(dp4394
sg63
g4388
sg56
(lp4395
g49
(g50
g51
NtRp4396
(dp4397
g54
(dp4398
g62
I1
ssg63
g4392
sg56
(lp4399
(lp4400
(g3864
(S's\x06\x00\x00\x00Groups'
tRp4401
I00
S'http://www.web2py.com/examples/default/usergroups'
p4402
tp4403
a(g3864
(S's\x07\x00\x00\x00Twitter'
tRp4404
I00
S'http://twitter.com/web2py'
p4405
tp4406
a(g3864
(S's\t\x00\x00\x00Live Chat'
tRp4407
I00
S'http://webchat.freenode.net/?channels=web2py'
p4408
tp4409
aasbasbasbasbasbasbasbag49
(g65
g51
NtRp4410
(dp4411
g54
(dp4412
sg63
g3977
sg56
(lp4413
g49
(g70
g51
NtRp4414
(dp4415
g54
(dp4416
sg63
g4410
sg56
(lp4417
g49
(g50
g51
NtRp4418
(dp4419
g54
(dp4420
g62
I2
ssg63
g4414
sg56
(lp4421
g49
(g58
g51
NtRp4422
(dp4423
g54
(dp4424
g62
I1
ssg63
Nsg56
(lp4425
g49
(g65
g51
NtRp4426
(dp4427
g54
(dp4428
sg63
g4422
sg56
(lp4429
g49
(g70
g51
NtRp4430
(dp4431
g54
(dp4432
sg63
g4426
sg56
(lp4433
g49
(g50
g51
NtRp4434
(dp4435
g54
(dp4436
g62
I1
ssg63
g4430
sg56
(lp4437
g3864
(S's\x07\x00\x00\x00Plugins'
tRp4438
asbasbasbag49
(g65
g51
NtRp4439
(dp4440
g54
(dp4441
sg63
g4422
sg56
(lp4442
g49
(g70
g51
NtRp4443
(dp4444
g54
(dp4445
sg63
g4439
sg56
(lp4446
g49
(g50
g51
NtRp4447
(dp4448
g54
(dp4449
g62
I1
ssg63
g4443
sg56
(lp4450
I00
asbasbasbag49
(g65
g51
NtRp4451
(dp4452
g54
(dp4453
sg63
g4422
sg56
(lp4454
g49
(g70
g51
NtRp4455
(dp4456
g54
(dp4457
sg63
g4451
sg56
(lp4458
g49
(g50
g51
NtRp4459
(dp4460
g54
(dp4461
g62
I1
ssg63
g4455
sg56
(lp4462
Nasbasbasbag49
(g65
g51
NtRp4463
(dp4464
g54
(dp4465
sg63
g4422
sg56
(lp4466
g49
(g70
g51
NtRp4467
(dp4468
g54
(dp4469
sg63
g4463
sg56
(lp4470
g49
(g50
g51
NtRp4471
(dp4472
g54
(dp4473
g62
I1
ssg63
g4467
sg56
(lp4474
(lp4475
(S'plugin_wiki'
p4476
I00
S'http://web2py.com/examples/default/download'
p4477
tp4478
a(g3864
(S's\r\x00\x00\x00Other Plugins'
tRp4479
I00
g4209
tp4480
a(g3864
(S's\x0e\x00\x00\x00Layout Plugins'
tRp4481
I00
g4212
tp4482
aasbasbasbasbasbasbasbasbasbasbasbasbasbasbasbasbasbasbasbag49
(g65
g51
NtRp4483
(dp4484
g54
(dp4485
sg63
g3327
sg56
(lp4486
g49
(g70
g51
NtRp4487
(dp4488
g54
(dp4489
g74
g75
ssg63
g4483
sg56
(lp4490
S'meta'
p4491
asbag49
(g70
g51
NtRp4492
(dp4493
g54
(dp4494
g81
g82
ssg63
g4483
sg56
(lp4495
S':'
asbag49
(g70
g51
NtRp4496
(dp4497
g54
(dp4498
sg63
g4483
sg56
(lp4499
g49
(g50
g51
NtRp4500
(dp4501
g54
(dp4502
g62
I5
ssg63
g4496
sg56
(lp4503
g49
(g58
g51
NtRp4504
(dp4505
g54
(dp4506
g62
I4
ssg63
Nsg56
(lp4507
g49
(g65
g51
NtRp4508
(dp4509
g54
(dp4510
sg63
g4504
sg56
(lp4511
g49
(g70
g51
NtRp4512
(dp4513
g54
(dp4514
g74
g75
ssg63
g4508
sg56
(lp4515
S'author'
p4516
asbag49
(g70
g51
NtRp4517
(dp4518
g54
(dp4519
g81
g82
ssg63
g4508
sg56
(lp4520
S':'
asbag49
(g70
g51
NtRp4521
(dp4522
g54
(dp4523
sg63
g4508
sg56
(lp4524
g49
(g50
g51
NtRp4525
(dp4526
g54
(dp4527
g62
I4
ssg63
g4521
sg56
(lp4528
S'Your Name <you@example.com>'
p4529
asbasbasbag49
(g65
g51
NtRp4530
(dp4531
g54
(dp4532
sg63
g4504
sg56
(lp4533
g49
(g70
g51
NtRp4534
(dp4535
g54
(dp4536
g74
g75
ssg63
g4530
sg56
(lp4537
S'copyright'
p4538
asbag49
(g70
g51
NtRp4539
(dp4540
g54
(dp4541
g81
g82
ssg63
g4530
sg56
(lp4542
S':'
asbag49
(g70
g51
NtRp4543
(dp4544
g54
(dp4545
sg63
g4530
sg56
(lp4546
g49
(g50
g51
NtRp4547
(dp4548
g54
(dp4549
g62
I4
ssg63
g4543
sg56
(lp4550
S'Copyright 2011'
p4551
asbasbasbag49
(g65
g51
NtRp4552
(dp4553
g54
(dp4554
sg63
g4504
sg56
(lp4555
g49
(g70
g51
NtRp4556
(dp4557
g54
(dp4558
g74
g75
ssg63
g4552
sg56
(lp4559
S'description'
p4560
asbag49
(g70
g51
NtRp4561
(dp4562
g54
(dp4563
g81
g82
ssg63
g4552
sg56
(lp4564
S':'
asbag49
(g70
g51
NtRp4565
(dp4566
g54
(dp4567
sg63
g4552
sg56
(lp4568
g49
(g50
g51
NtRp4569
(dp4570
g54
(dp4571
g62
I4
ssg63
g4565
sg56
(lp4572
S'a cool new app'
p4573
asbasbasbag49
(g65
g51
NtRp4574
(dp4575
g54
(dp4576
sg63
g4504
sg56
(lp4577
g49
(g70
g51
NtRp4578
(dp4579
g54
(dp4580
g74
g75
ssg63
g4574
sg56
(lp4581
S'generator'
p4582
asbag49
(g70
g51
NtRp4583
(dp4584
g54
(dp4585
g81
g82
ssg63
g4574
sg56
(lp4586
S':'
asbag49
(g70
g51
NtRp4587
(dp4588
g54
(dp4589
sg63
g4574
sg56
(lp4590
g49
(g50
g51
NtRp4591
(dp4592
g54
(dp4593
g62
I4
ssg63
g4587
sg56
(lp4594
S'Web2py Web Framework'
p4595
asbasbasbag49
(g65
g51
NtRp4596
(dp4597
g54
(dp4598
sg63
g4504
sg56
(lp4599
g49
(g70
g51
NtRp4600
(dp4601
g54
(dp4602
g74
g75
ssg63
g4596
sg56
(lp4603
S'keywords'
p4604
asbag49
(g70
g51
NtRp4605
(dp4606
g54
(dp4607
g81
g82
ssg63
g4596
sg56
(lp4608
S':'
asbag49
(g70
g51
NtRp4609
(dp4610
g54
(dp4611
sg63
g4596
sg56
(lp4612
g49
(g50
g51
NtRp4613
(dp4614
g54
(dp4615
g62
I4
ssg63
g4609
sg56
(lp4616
S'web2py, python, framework'
p4617
asbasbasbasbasbasbasbag49
(g65
g51
NtRp4618
(dp4619
g54
(dp4620
sg63
g3327
sg56
(lp4621
g49
(g70
g51
NtRp4622
(dp4623
g54
(dp4624
g74
g75
ssg63
g4618
sg56
(lp4625
S'postprocessing'
p4626
asbag49
(g70
g51
NtRp4627
(dp4628
g54
(dp4629
g81
g82
ssg63
g4618
sg56
(lp4630
S':'
asbag49
(g70
g51
NtRp4631
(dp4632
g54
(dp4633
sg63
g4618
sg56
(lp4634
g49
(g50
g51
NtRp4635
(dp4636
g54
(dp4637
g62
I5
ssg63
g4631
sg56
(lp4638
g49
(g58
g51
NtRp4639
(dp4640
g54
(dp4641
g62
I4
ssg63
Nsg56
(lp4642
sbasbasbasbag49
(g65
g51
NtRp4643
(dp4644
g54
(dp4645
sg63
g3327
sg56
(lp4646
g49
(g70
g51
NtRp4647
(dp4648
g54
(dp4649
g74
g75
ssg63
g4643
sg56
(lp4650
S'session_file'
p4651
asbag49
(g70
g51
NtRp4652
(dp4653
g54
(dp4654
g81
g82
ssg63
g4643
sg56
(lp4655
S':'
asbag49
(g70
g51
NtRp4656
(dp4657
g54
(dp4658
sg63
g4643
sg56
(lp4659
g49
(g50
g51
NtRp4660
(dp4661
g54
(dp4662
g62
I5
ssg63
g4656
sg56
(lp4663
S"<open file '/Users/udimilo/Documents/web2py/applications/udi0312/sessions/127.0.0.1-fcd6a577-d448-4882-b7bc-f353da84ba3b', mode 'rb+' at 0xa3ad9b0>"
p4664
asbasbasbag49
(g65
g51
NtRp4665
(dp4666
g54
(dp4667
sg63
g3327
sg56
(lp4668
g49
(g70
g51
NtRp4669
(dp4670
g54
(dp4671
g74
g75
ssg63
g4665
sg56
(lp4672
S'session_filename'
p4673
asbag49
(g70
g51
NtRp4674
(dp4675
g54
(dp4676
g81
g82
ssg63
g4665
sg56
(lp4677
S':'
asbag49
(g70
g51
NtRp4678
(dp4679
g54
(dp4680
sg63
g4665
sg56
(lp4681
g49
(g50
g51
NtRp4682
(dp4683
g54
(dp4684
g62
I5
ssg63
g4678
sg56
(lp4685
S'/Users/udimilo/Documents/web2py/applications/udi0312/sessions/127.0.0.1-fcd6a577-d448-4882-b7bc-f353da84ba3b'
p4686
asbasbasbag49
(g65
g51
NtRp4687
(dp4688
g54
(dp4689
sg63
g3327
sg56
(lp4690
g49
(g70
g51
NtRp4691
(dp4692
g54
(dp4693
g74
g75
ssg63
g4687
sg56
(lp4694
S'session_id'
p4695
asbag49
(g70
g51
NtRp4696
(dp4697
g54
(dp4698
g81
g82
ssg63
g4687
sg56
(lp4699
S':'
asbag49
(g70
g51
NtRp4700
(dp4701
g54
(dp4702
sg63
g4687
sg56
(lp4703
g49
(g50
g51
NtRp4704
(dp4705
g54
(dp4706
g62
I5
ssg63
g4700
sg56
(lp4707
S'127.0.0.1-fcd6a577-d448-4882-b7bc-f353da84ba3b'
p4708
asbasbasbag49
(g65
g51
NtRp4709
(dp4710
g54
(dp4711
sg63
g3327
sg56
(lp4712
g49
(g70
g51
NtRp4713
(dp4714
g54
(dp4715
g74
g75
ssg63
g4709
sg56
(lp4716
S'session_id_name'
p4717
asbag49
(g70
g51
NtRp4718
(dp4719
g54
(dp4720
g81
g82
ssg63
g4709
sg56
(lp4721
S':'
asbag49
(g70
g51
NtRp4722
(dp4723
g54
(dp4724
sg63
g4709
sg56
(lp4725
g49
(g50
g51
NtRp4726
(dp4727
g54
(dp4728
g62
I5
ssg63
g4722
sg56
(lp4729
g3384
asbasbasbag49
(g65
g51
NtRp4730
(dp4731
g54
(dp4732
sg63
g3327
sg56
(lp4733
g49
(g70
g51
NtRp4734
(dp4735
g54
(dp4736
g74
g75
ssg63
g4730
sg56
(lp4737
S'session_locked'
p4738
asbag49
(g70
g51
NtRp4739
(dp4740
g54
(dp4741
g81
g82
ssg63
g4730
sg56
(lp4742
S':'
asbag49
(g70
g51
NtRp4743
(dp4744
g54
(dp4745
sg63
g4730
sg56
(lp4746
g49
(g50
g51
NtRp4747
(dp4748
g54
(dp4749
g62
I5
ssg63
g4743
sg56
(lp4750
g1486
asbasbasbag49
(g65
g51
NtRp4751
(dp4752
g54
(dp4753
sg63
g3327
sg56
(lp4754
g49
(g70
g51
NtRp4755
(dp4756
g54
(dp4757
g74
g75
ssg63
g4751
sg56
(lp4758
S'session_new'
p4759
asbag49
(g70
g51
NtRp4760
(dp4761
g54
(dp4762
g81
g82
ssg63
g4751
sg56
(lp4763
S':'
asbag49
(g70
g51
NtRp4764
(dp4765
g54
(dp4766
sg63
g4751
sg56
(lp4767
g49
(g50
g51
NtRp4768
(dp4769
g54
(dp4770
g62
I5
ssg63
g4764
sg56
(lp4771
g92
asbasbasbag49
(g65
g51
NtRp4772
(dp4773
g54
(dp4774
sg63
g3327
sg56
(lp4775
g49
(g70
g51
NtRp4776
(dp4777
g54
(dp4778
g74
g75
ssg63
g4772
sg56
(lp4779
S'status'
p4780
asbag49
(g70
g51
NtRp4781
(dp4782
g54
(dp4783
g81
g82
ssg63
g4772
sg56
(lp4784
S':'
asbag49
(g70
g51
NtRp4785
(dp4786
g54
(dp4787
sg63
g4772
sg56
(lp4788
g49
(g50
g51
NtRp4789
(dp4790
g54
(dp4791
g62
I5
ssg63
g4785
sg56
(lp4792
S'200'
p4793
asbasbasbag49
(g65
g51
NtRp4794
(dp4795
g54
(dp4796
sg63
g3327
sg56
(lp4797
g49
(g70
g51
NtRp4798
(dp4799
g54
(dp4800
g74
g75
ssg63
g4794
sg56
(lp4801
S'subtitle'
p4802
asbag49
(g70
g51
NtRp4803
(dp4804
g54
(dp4805
g81
g82
ssg63
g4794
sg56
(lp4806
S':'
asbag49
(g70
g51
NtRp4807
(dp4808
g54
(dp4809
sg63
g4794
sg56
(lp4810
g49
(g50
g51
NtRp4811
(dp4812
g54
(dp4813
g62
I5
ssg63
g4807
sg56
(lp4814
g3864
(S's\r\x00\x00\x00customize me!'
tRp4815
asbasbasbag49
(g65
g51
NtRp4816
(dp4817
g54
(dp4818
sg63
g3327
sg56
(lp4819
g49
(g70
g51
NtRp4820
(dp4821
g54
(dp4822
g74
g75
ssg63
g4816
sg56
(lp4823
S'title'
p4824
asbag49
(g70
g51
NtRp4825
(dp4826
g54
(dp4827
g81
g82
ssg63
g4816
sg56
(lp4828
S':'
asbag49
(g70
g51
NtRp4829
(dp4830
g54
(dp4831
sg63
g4816
sg56
(lp4832
g49
(g50
g51
NtRp4833
(dp4834
g54
(dp4835
g62
I5
ssg63
g4829
sg56
(lp4836
S'Udi0312'
p4837
asbasbasbag49
(g65
g51
NtRp4838
(dp4839
g54
(dp4840
sg63
g3327
sg56
(lp4841
g49
(g70
g51
NtRp4842
(dp4843
g54
(dp4844
g74
g75
ssg63
g4838
sg56
(lp4845
g2149
asbag49
(g70
g51
NtRp4846
(dp4847
g54
(dp4848
g81
g82
ssg63
g4838
sg56
(lp4849
S':'
asbag49
(g70
g51
NtRp4850
(dp4851
g54
(dp4852
sg63
g4838
sg56
(lp4853
g49
(g50
g51
NtRp4854
(dp4855
g54
(dp4856
g62
I5
ssg63
g4850
sg56
(lp4857
g2162
asbasbasbag49
(g65
g51
NtRp4858
(dp4859
g54
(dp4860
sg63
g3327
sg56
(lp4861
g49
(g70
g51
NtRp4862
(dp4863
g54
(dp4864
g74
g75
ssg63
g4858
sg56
(lp4865
S'view'
p4866
asbag49
(g70
g51
NtRp4867
(dp4868
g54
(dp4869
g81
g82
ssg63
g4858
sg56
(lp4870
S':'
asbag49
(g70
g51
NtRp4871
(dp4872
g54
(dp4873
sg63
g4858
sg56
(lp4874
g49
(g50
g51
NtRp4875
(dp4876
g54
(dp4877
g62
I5
ssg63
g4871
sg56
(lp4878
S'default/index.html'
p4879
asbasbasbasbasbsS'locals'
p4880
(dp4881
S'fromlist'
p4882
S'[]'
p4883
sS'e'
S"ImportError('No module named Readability',)"
p4884
sS'name'
p4885
S"'Readability'"
p4886
sg62
S'-1'
p4887
sS'self'
p4888
S'<gluon.custom_import._Web2pyDateTrackerImporter object at 0xa6f69b0>'
p4889
sS'globals'
p4890
S"{'A': <class 'gluon.html.A'>, 'Auth': <class 'gluon.tools.Auth'>, 'B': <class 'gluon.html.B'>, 'BEAUTIFY': <class 'gluon.html.BEAUTIFY'>, 'BODY': <class 'gluon.html.BODY'>, 'BR': <class 'gluon.html.BR'>, 'BUTTON': <class 'gluon.html.BUTTON'>, 'CAT': <class 'gluon.html.CAT'>, 'CENTER': <class 'gluon.html.CENTER'>, 'CLEANUP': <class 'gluon.validators.CLEANUP'>, ...}"
p4891
sS'call_begin_end'
p4892
g92
sg4880
S"{'A': <class 'gluon.html.A'>, 'Auth': <class 'gluon.tools.Auth'>, 'B': <class 'gluon.html.B'>, 'BEAUTIFY': <class 'gluon.html.BEAUTIFY'>, 'BODY': <class 'gluon.html.BODY'>, 'BR': <class 'gluon.html.BR'>, 'BUTTON': <class 'gluon.html.BUTTON'>, 'CAT': <class 'gluon.html.CAT'>, 'CENTER': <class 'gluon.html.CENTER'>, 'CLEANUP': <class 'gluon.validators.CLEANUP'>, ...}"
p4893
sssS'traceback'
p4894
S'Traceback (most recent call last):\n  File "/users/udimilo/Documents/web2py/gluon/restricted.py", line 205, in restricted\n    exec ccode in environment\n  File "/Users/udimilo/Documents/web2py/applications/udi0312/controllers/default.py", line 12, in <module>\n    import Readability\n  File "/users/udimilo/Documents/web2py/gluon/custom_import.py", line 293, in __call__\n    fromlist, level)\n  File "/users/udimilo/Documents/web2py/gluon/custom_import.py", line 132, in __call__\n    raise e  # Don\'t hide something that went wrong\nImportError: No module named Readability\n'
p4895
s.