(dp1
S'output'
p2
S"<type 'exceptions.AttributeError'> 'str' object has no attribute 'name'"
p3
sS'layer'
p4
S'/Users/udimilo/Documents/web2py/applications/udi0312/views/default/index.html'
p5
sS'code'
p6
S'response.write(\'<html lan="en">\\n<head>\\n    <title>Biz</title>\\n    <script type="text/javascript" src="http://ajax.googleapis.com/ajax/libs/jquery/1.7.1/jquery.min.js"></script>\\n    <script type="text/javascript" src="/udi0312/static/js/jquery.wookmark.js"></script>\\n    <script type="text/javascript" src="/udi0312/static/js/web2py.js"></script>\\n    <link href=\\\'http://fonts.googleapis.com/css?family=PT+Sans\\\' rel=\\\'stylesheet\\\' type=\\\'text/css\\\'>\\n    <link href=\\\'/udi0312/static/css/site.css\\\' rel=\\\'stylesheet\\\' type=\\\'text/css\\\'>\\n</head>\\n<body>\\n    <div id="header">\\n        <div id="search">\\n            <input type="text" id="query" size="27" value="Search">\\n            <a id="query_button" href="#" class="lg"><img src="http://passets-cdn.pinterest.com/images/search.gif" alt=""></a>\\n        </div>\\n        <a id="logo" href="/"><img src="http://press.linkedin.com/sites/all/themes/presslinkedin/images/LinkedIn_IN_Icon_25px.png"/><span>formation</span></a>\\n        <ul id="navigation">\\n            <li>\', escape=False)\nresponse.write(\'auth\' in globals() and auth.navbar(separators=(\' \',\' | \',\'\')))\nresponse.write(\'</li>\\n        </ul>\\n    </div>\\n    <div id="showItem">\\n        <div id="itemHeader" class="clearfix">\\n            <div id="itemCreator">\\n                <div id="showItemClose"></div>\\n                <img src="http://profile.ak.fbcdn.net/hprofile-ak-snc4/373721_202953045644_22849796_q.jpg" />\\n                <div id="creatorName">Neytiri</div>\\n                <div id="creatorStats">Pinned 1 hour ago from TechCrunch.com</div>\\n            </div>\\n        </div>\\n        <div id="showItemContent" class="clearfix"></div>\\n    </div>\\n\', escape=False)\nresponse.write(\'\\n\', escape=False)\nresponse.write(\'\\n<div id="addBar">\\n    <div class="picker">\\n        <a href="#">switch page and board</a>\\n    </div>\\n    <div class="add" id="addPage">\\n        <form onsubmit="ajax(\\\'\', escape=False)\nresponse.write(URL(\'addPage\'))\nresponse.write(\'\\\', [\\\'url\\\',\\\'board\\\'], \\\'addBarMsg\\\');return false;">\\n            <ul>\\n                <li><span>URL</span><input name="url" /></li>\\n                <li>\\n                    <select name="board">\\n                    \', escape=False)\nfor board in boards:\n    response.write(\'\\n                        <option>\', escape=False)\n    response.write(board.name)\n    response.write(\'</option>\\n                    \', escape=False)\n    pass\nresponse.write(\'                \\n                    </select>        \\n                </li>\\n                <li><input type="submit" /></li>\\n            </ul>\\n        </form>\\n    </div>\\n    <div class="add" id="addBoard" style="display:none;">\\n        <form onsubmit="ajax(\\\'\', escape=False)\nresponse.write(URL(\'addBoard\'))\nresponse.write(\'\\\', [\\\'boardName\\\',\\\'category\\\'], \\\'addBarMsg\\\');return false;">\\n            <ul>\\n                <li><span>Board</span><input name="boardName" /></li>\\n                <li>\\n                    <select name="category">\\n                    \', escape=False)\nfor cat in categories:\n    response.write(\'\\n                        <option>\', escape=False)\n    response.write(cat.name)\n    response.write(\'</option>\\n                    \', escape=False)\n    pass\nresponse.write(\'                \\n                    </select>        \\n                </li>\\n                <li><input type="submit" /></li>\\n            </ul>\\n        </form>\\n    </div>\\n    <div id="addBarMsg"></div>\\n</div>\\n<div id="categoriesBar">\\n    <ul id="categoriesNav">\\n        <li><b>Info you follow</b></li>\\n        <li><a href="#">Everything</a></li>\\n        <li><a href="#">Popular</a></li>\\n        <li><a href="#">Recommended</a></li>\\n        <li><a href="#" id="addButton">Add +</a></li>\\n    </ul>\\n</div>\\n\\n<div id="wrapper">\\n    <ul id="example">\\n        \', escape=False)\nfor item in items:\n    response.write(\'\\n            <li style="height:\', escape=False)\n    response.write(item[\'height\'])\n    response.write(\'px">\\n                <div class="itemWrapper">\\n                    <div class="actions">\\n                        <a href="#" class="whiteButton repinButton"><em></em><strong>Repin</strong></a>\\n                        <a href="#" class="whiteButton likeButton"><em></em><strong>Like</strong></a>\\n                        <a href="#" class="whiteButton commentButton"><em></em><strong>Comment</strong></a>\\n                    </div>\\n                    <h1 class="itemTitle"><a href="\', escape=False)\n    response.write(item[\'url\'])\n    response.write(\'">\', escape=False)\n    response.write(item[\'title\'])\n    response.write(\'</a></h1>\\n                    <h2 class="itemSubtitle">\\n                        <a href="#">\\n                            <img src="\', escape=False)\n    response.write(item[\'iconURL\'])\n    response.write(\'"/>\\n                            <span>\', escape=False)\n    response.write(item[\'source\'])\n    response.write(\'<span>\\n                        </a>\\n                        <label class="itemTime">3 hours ago</label>\\n                    </h2>\\n                    <div class="itemContent">\\n                        <img src="\', escape=False)\n    response.write(item[\'imgURL\'])\n    response.write(\'" />\\n                        <label class="itemText" />\\n                    </div>\\n                </div>\\n            </li>\\n        \', escape=False)\n    pass\nresponse.write(\'\\n    </ul>\\n</div>\\n\', escape=False)\nresponse.write(\'\\n\', escape=False)\nresponse.write(\'\\n    <script type="text/javascript" src="/udi0312/static/js/site.js"></script>\\n</body>\\n</html>\\n\', escape=False)'
p7
sS'snapshot'
p8
(dp9
S'exception'
p10
(dp11
S'__hash__'
p12
S"<method-wrapper '__hash__' of exceptions.AttributeError object at 0xa9503c8>"
p13
sS'__setattr__'
p14
S"<method-wrapper '__setattr__' of exceptions.AttributeError object at 0xa9503c8>"
p15
sS'__reduce_ex__'
p16
S'<built-in method __reduce_ex__ of exceptions.AttributeError object at 0xa9503c8>'
p17
sS'__getslice__'
p18
S"<method-wrapper '__getslice__' of exceptions.AttributeError object at 0xa9503c8>"
p19
sS'__getitem__'
p20
S"<method-wrapper '__getitem__' of exceptions.AttributeError object at 0xa9503c8>"
p21
sS'__setstate__'
p22
S'<built-in method __setstate__ of exceptions.AttributeError object at 0xa9503c8>'
p23
sS'__reduce__'
p24
S'<built-in method __reduce__ of exceptions.AttributeError object at 0xa9503c8>'
p25
sS'__str__'
p26
S"<method-wrapper '__str__' of exceptions.AttributeError object at 0xa9503c8>"
p27
sS'args'
p28
S'("\'str\' object has no attribute \'name\'",)'
p29
sS'__getattribute__'
p30
S"<method-wrapper '__getattribute__' of exceptions.AttributeError object at 0xa9503c8>"
p31
sS'__class__'
p32
S"<type 'exceptions.AttributeError'>"
p33
sS'__delattr__'
p34
S"<method-wrapper '__delattr__' of exceptions.AttributeError object at 0xa9503c8>"
p35
sS'__repr__'
p36
S"<method-wrapper '__repr__' of exceptions.AttributeError object at 0xa9503c8>"
p37
sS'__dict__'
p38
S'{}'
p39
sS'__doc__'
p40
S"'Attribute not found.'"
p41
sS'__init__'
p42
S"<method-wrapper '__init__' of exceptions.AttributeError object at 0xa9503c8>"
p43
sS'__new__'
p44
S'<built-in method __new__ of type object at 0x1004a0>'
p45
ssS'evalue'
p46
S"'str' object has no attribute 'name'"
p47
sS'request'
p48
ccopy_reg
_reconstructor
p49
(cgluon.html
BEAUTIFY
p50
c__builtin__
object
p51
NtRp52
(dp53
S'attributes'
p54
(dp55
sS'components'
p56
(lp57
g49
(cgluon.html
TABLE
p58
g51
NtRp59
(dp60
g54
(dp61
S'level'
p62
I5
ssS'parent'
p63
Nsg56
(lp64
g49
(cgluon.html
TR
p65
g51
NtRp66
(dp67
g54
(dp68
sg63
g59
sg56
(lp69
g49
(cgluon.html
TD
p70
g51
NtRp71
(dp72
g54
(dp73
S'_style'
p74
S'font-weight:bold;vertical-align:top'
p75
ssg63
g66
sg56
(lp76
S'ajax'
p77
asbag49
(g70
g51
NtRp78
(dp79
g54
(dp80
S'_valign'
p81
S'top'
p82
ssg63
g66
sg56
(lp83
S':'
asbag49
(g70
g51
NtRp84
(dp85
g54
(dp86
sg63
g66
sg56
(lp87
g49
(g50
g51
NtRp88
(dp89
g54
(dp90
g62
I5
ssg63
g84
sg56
(lp91
S'False'
p92
asbasbasbag49
(g65
g51
NtRp93
(dp94
g54
(dp95
sg63
g59
sg56
(lp96
g49
(g70
g51
NtRp97
(dp98
g54
(dp99
g74
g75
ssg63
g93
sg56
(lp100
S'application'
p101
asbag49
(g70
g51
NtRp102
(dp103
g54
(dp104
g81
g82
ssg63
g93
sg56
(lp105
S':'
asbag49
(g70
g51
NtRp106
(dp107
g54
(dp108
sg63
g93
sg56
(lp109
g49
(g50
g51
NtRp110
(dp111
g54
(dp112
g62
I5
ssg63
g106
sg56
(lp113
S'udi0312'
p114
asbasbasbag49
(g65
g51
NtRp115
(dp116
g54
(dp117
sg63
g59
sg56
(lp118
g49
(g70
g51
NtRp119
(dp120
g54
(dp121
g74
g75
ssg63
g115
sg56
(lp122
g28
asbag49
(g70
g51
NtRp123
(dp124
g54
(dp125
g81
g82
ssg63
g115
sg56
(lp126
S':'
asbag49
(g70
g51
NtRp127
(dp128
g54
(dp129
sg63
g115
sg56
(lp130
g49
(g50
g51
NtRp131
(dp132
g54
(dp133
g62
I5
ssg63
g127
sg56
(lp134
g49
(g58
g51
NtRp135
(dp136
g54
(dp137
g62
I4
ssg63
Nsg56
(lp138
sbasbasbasbag49
(g65
g51
NtRp139
(dp140
g54
(dp141
sg63
g59
sg56
(lp142
g49
(g70
g51
NtRp143
(dp144
g54
(dp145
g74
g75
ssg63
g139
sg56
(lp146
S'body'
p147
asbag49
(g70
g51
NtRp148
(dp149
g54
(dp150
g81
g82
ssg63
g139
sg56
(lp151
S':'
asbag49
(g70
g51
NtRp152
(dp153
g54
(dp154
sg63
g139
sg56
(lp155
g49
(g50
g51
NtRp156
(dp157
g54
(dp158
g62
I5
ssg63
g152
sg56
(lp159
S'<cStringIO.StringO object at 0xa4a0800>'
p160
asbasbasbag49
(g65
g51
NtRp161
(dp162
g54
(dp163
sg63
g59
sg56
(lp164
g49
(g70
g51
NtRp165
(dp166
g54
(dp167
g74
g75
ssg63
g161
sg56
(lp168
S'client'
p169
asbag49
(g70
g51
NtRp170
(dp171
g54
(dp172
g81
g82
ssg63
g161
sg56
(lp173
S':'
asbag49
(g70
g51
NtRp174
(dp175
g54
(dp176
sg63
g161
sg56
(lp177
g49
(g50
g51
NtRp178
(dp179
g54
(dp180
g62
I5
ssg63
g174
sg56
(lp181
S'127.0.0.1'
p182
asbasbasbag49
(g65
g51
NtRp183
(dp184
g54
(dp185
sg63
g59
sg56
(lp186
g49
(g70
g51
NtRp187
(dp188
g54
(dp189
g74
g75
ssg63
g183
sg56
(lp190
S'controller'
p191
asbag49
(g70
g51
NtRp192
(dp193
g54
(dp194
g81
g82
ssg63
g183
sg56
(lp195
S':'
asbag49
(g70
g51
NtRp196
(dp197
g54
(dp198
sg63
g183
sg56
(lp199
g49
(g50
g51
NtRp200
(dp201
g54
(dp202
g62
I5
ssg63
g196
sg56
(lp203
S'default'
p204
asbasbasbag49
(g65
g51
NtRp205
(dp206
g54
(dp207
sg63
g59
sg56
(lp208
g49
(g70
g51
NtRp209
(dp210
g54
(dp211
g74
g75
ssg63
g205
sg56
(lp212
S'cookies'
p213
asbag49
(g70
g51
NtRp214
(dp215
g54
(dp216
g81
g82
ssg63
g205
sg56
(lp217
S':'
asbag49
(g70
g51
NtRp218
(dp219
g54
(dp220
sg63
g205
sg56
(lp221
g49
(g50
g51
NtRp222
(dp223
g54
(dp224
g62
I5
ssg63
g218
sg56
(lp225
g49
(g58
g51
NtRp226
(dp227
g54
(dp228
g62
I4
ssg63
Nsg56
(lp229
g49
(g65
g51
NtRp230
(dp231
g54
(dp232
sg63
g226
sg56
(lp233
g49
(g70
g51
NtRp234
(dp235
g54
(dp236
g74
g75
ssg63
g230
sg56
(lp237
S'session_id_admin'
p238
asbag49
(g70
g51
NtRp239
(dp240
g54
(dp241
g81
g82
ssg63
g230
sg56
(lp242
S':'
asbag49
(g70
g51
NtRp243
(dp244
g54
(dp245
sg63
g230
sg56
(lp246
g49
(g50
g51
NtRp247
(dp248
g54
(dp249
g62
I4
ssg63
g243
sg56
(lp250
g49
(g58
g51
NtRp251
(dp252
g54
(dp253
g62
I3
ssg63
Nsg56
(lp254
g49
(g65
g51
NtRp255
(dp256
g54
(dp257
sg63
g251
sg56
(lp258
g49
(g70
g51
NtRp259
(dp260
g54
(dp261
g74
g75
ssg63
g255
sg56
(lp262
S'comment'
p263
asbag49
(g70
g51
NtRp264
(dp265
g54
(dp266
g81
g82
ssg63
g255
sg56
(lp267
S':'
asbag49
(g70
g51
NtRp268
(dp269
g54
(dp270
sg63
g255
sg56
(lp271
g49
(g50
g51
NtRp272
(dp273
g54
(dp274
g62
I3
ssg63
g268
sg56
(lp275
S''
asbasbasbag49
(g65
g51
NtRp276
(dp277
g54
(dp278
sg63
g251
sg56
(lp279
g49
(g70
g51
NtRp280
(dp281
g54
(dp282
g74
g75
ssg63
g276
sg56
(lp283
S'domain'
p284
asbag49
(g70
g51
NtRp285
(dp286
g54
(dp287
g81
g82
ssg63
g276
sg56
(lp288
S':'
asbag49
(g70
g51
NtRp289
(dp290
g54
(dp291
sg63
g276
sg56
(lp292
g49
(g50
g51
NtRp293
(dp294
g54
(dp295
g62
I3
ssg63
g289
sg56
(lp296
S''
asbasbasbag49
(g65
g51
NtRp297
(dp298
g54
(dp299
sg63
g251
sg56
(lp300
g49
(g70
g51
NtRp301
(dp302
g54
(dp303
g74
g75
ssg63
g297
sg56
(lp304
S'expires'
p305
asbag49
(g70
g51
NtRp306
(dp307
g54
(dp308
g81
g82
ssg63
g297
sg56
(lp309
S':'
asbag49
(g70
g51
NtRp310
(dp311
g54
(dp312
sg63
g297
sg56
(lp313
g49
(g50
g51
NtRp314
(dp315
g54
(dp316
g62
I3
ssg63
g310
sg56
(lp317
S''
asbasbasbag49
(g65
g51
NtRp318
(dp319
g54
(dp320
sg63
g251
sg56
(lp321
g49
(g70
g51
NtRp322
(dp323
g54
(dp324
g74
g75
ssg63
g318
sg56
(lp325
S'max-age'
p326
asbag49
(g70
g51
NtRp327
(dp328
g54
(dp329
g81
g82
ssg63
g318
sg56
(lp330
S':'
asbag49
(g70
g51
NtRp331
(dp332
g54
(dp333
sg63
g318
sg56
(lp334
g49
(g50
g51
NtRp335
(dp336
g54
(dp337
g62
I3
ssg63
g331
sg56
(lp338
S''
asbasbasbag49
(g65
g51
NtRp339
(dp340
g54
(dp341
sg63
g251
sg56
(lp342
g49
(g70
g51
NtRp343
(dp344
g54
(dp345
g74
g75
ssg63
g339
sg56
(lp346
S'path'
p347
asbag49
(g70
g51
NtRp348
(dp349
g54
(dp350
g81
g82
ssg63
g339
sg56
(lp351
S':'
asbag49
(g70
g51
NtRp352
(dp353
g54
(dp354
sg63
g339
sg56
(lp355
g49
(g50
g51
NtRp356
(dp357
g54
(dp358
g62
I3
ssg63
g352
sg56
(lp359
S''
asbasbasbag49
(g65
g51
NtRp360
(dp361
g54
(dp362
sg63
g251
sg56
(lp363
g49
(g70
g51
NtRp364
(dp365
g54
(dp366
g74
g75
ssg63
g360
sg56
(lp367
S'secure'
p368
asbag49
(g70
g51
NtRp369
(dp370
g54
(dp371
g81
g82
ssg63
g360
sg56
(lp372
S':'
asbag49
(g70
g51
NtRp373
(dp374
g54
(dp375
sg63
g360
sg56
(lp376
g49
(g50
g51
NtRp377
(dp378
g54
(dp379
g62
I3
ssg63
g373
sg56
(lp380
S''
asbasbasbag49
(g65
g51
NtRp381
(dp382
g54
(dp383
sg63
g251
sg56
(lp384
g49
(g70
g51
NtRp385
(dp386
g54
(dp387
g74
g75
ssg63
g381
sg56
(lp388
S'version'
p389
asbag49
(g70
g51
NtRp390
(dp391
g54
(dp392
g81
g82
ssg63
g381
sg56
(lp393
S':'
asbag49
(g70
g51
NtRp394
(dp395
g54
(dp396
sg63
g381
sg56
(lp397
g49
(g50
g51
NtRp398
(dp399
g54
(dp400
g62
I3
ssg63
g394
sg56
(lp401
S''
asbasbasbasbasbasbasbag49
(g65
g51
NtRp402
(dp403
g54
(dp404
sg63
g226
sg56
(lp405
g49
(g70
g51
NtRp406
(dp407
g54
(dp408
g74
g75
ssg63
g402
sg56
(lp409
S'session_id_udi0312'
p410
asbag49
(g70
g51
NtRp411
(dp412
g54
(dp413
g81
g82
ssg63
g402
sg56
(lp414
S':'
asbag49
(g70
g51
NtRp415
(dp416
g54
(dp417
sg63
g402
sg56
(lp418
g49
(g50
g51
NtRp419
(dp420
g54
(dp421
g62
I4
ssg63
g415
sg56
(lp422
g49
(g58
g51
NtRp423
(dp424
g54
(dp425
g62
I3
ssg63
Nsg56
(lp426
g49
(g65
g51
NtRp427
(dp428
g54
(dp429
sg63
g423
sg56
(lp430
g49
(g70
g51
NtRp431
(dp432
g54
(dp433
g74
g75
ssg63
g427
sg56
(lp434
g263
asbag49
(g70
g51
NtRp435
(dp436
g54
(dp437
g81
g82
ssg63
g427
sg56
(lp438
S':'
asbag49
(g70
g51
NtRp439
(dp440
g54
(dp441
sg63
g427
sg56
(lp442
g49
(g50
g51
NtRp443
(dp444
g54
(dp445
g62
I3
ssg63
g439
sg56
(lp446
S''
asbasbasbag49
(g65
g51
NtRp447
(dp448
g54
(dp449
sg63
g423
sg56
(lp450
g49
(g70
g51
NtRp451
(dp452
g54
(dp453
g74
g75
ssg63
g447
sg56
(lp454
g284
asbag49
(g70
g51
NtRp455
(dp456
g54
(dp457
g81
g82
ssg63
g447
sg56
(lp458
S':'
asbag49
(g70
g51
NtRp459
(dp460
g54
(dp461
sg63
g447
sg56
(lp462
g49
(g50
g51
NtRp463
(dp464
g54
(dp465
g62
I3
ssg63
g459
sg56
(lp466
S''
asbasbasbag49
(g65
g51
NtRp467
(dp468
g54
(dp469
sg63
g423
sg56
(lp470
g49
(g70
g51
NtRp471
(dp472
g54
(dp473
g74
g75
ssg63
g467
sg56
(lp474
g305
asbag49
(g70
g51
NtRp475
(dp476
g54
(dp477
g81
g82
ssg63
g467
sg56
(lp478
S':'
asbag49
(g70
g51
NtRp479
(dp480
g54
(dp481
sg63
g467
sg56
(lp482
g49
(g50
g51
NtRp483
(dp484
g54
(dp485
g62
I3
ssg63
g479
sg56
(lp486
S''
asbasbasbag49
(g65
g51
NtRp487
(dp488
g54
(dp489
sg63
g423
sg56
(lp490
g49
(g70
g51
NtRp491
(dp492
g54
(dp493
g74
g75
ssg63
g487
sg56
(lp494
g326
asbag49
(g70
g51
NtRp495
(dp496
g54
(dp497
g81
g82
ssg63
g487
sg56
(lp498
S':'
asbag49
(g70
g51
NtRp499
(dp500
g54
(dp501
sg63
g487
sg56
(lp502
g49
(g50
g51
NtRp503
(dp504
g54
(dp505
g62
I3
ssg63
g499
sg56
(lp506
S''
asbasbasbag49
(g65
g51
NtRp507
(dp508
g54
(dp509
sg63
g423
sg56
(lp510
g49
(g70
g51
NtRp511
(dp512
g54
(dp513
g74
g75
ssg63
g507
sg56
(lp514
g347
asbag49
(g70
g51
NtRp515
(dp516
g54
(dp517
g81
g82
ssg63
g507
sg56
(lp518
S':'
asbag49
(g70
g51
NtRp519
(dp520
g54
(dp521
sg63
g507
sg56
(lp522
g49
(g50
g51
NtRp523
(dp524
g54
(dp525
g62
I3
ssg63
g519
sg56
(lp526
S''
asbasbasbag49
(g65
g51
NtRp527
(dp528
g54
(dp529
sg63
g423
sg56
(lp530
g49
(g70
g51
NtRp531
(dp532
g54
(dp533
g74
g75
ssg63
g527
sg56
(lp534
g368
asbag49
(g70
g51
NtRp535
(dp536
g54
(dp537
g81
g82
ssg63
g527
sg56
(lp538
S':'
asbag49
(g70
g51
NtRp539
(dp540
g54
(dp541
sg63
g527
sg56
(lp542
g49
(g50
g51
NtRp543
(dp544
g54
(dp545
g62
I3
ssg63
g539
sg56
(lp546
S''
asbasbasbag49
(g65
g51
NtRp547
(dp548
g54
(dp549
sg63
g423
sg56
(lp550
g49
(g70
g51
NtRp551
(dp552
g54
(dp553
g74
g75
ssg63
g547
sg56
(lp554
g389
asbag49
(g70
g51
NtRp555
(dp556
g54
(dp557
g81
g82
ssg63
g547
sg56
(lp558
S':'
asbag49
(g70
g51
NtRp559
(dp560
g54
(dp561
sg63
g547
sg56
(lp562
g49
(g50
g51
NtRp563
(dp564
g54
(dp565
g62
I3
ssg63
g559
sg56
(lp566
S''
asbasbasbasbasbasbasbag49
(g65
g51
NtRp567
(dp568
g54
(dp569
sg63
g226
sg56
(lp570
g49
(g70
g51
NtRp571
(dp572
g54
(dp573
g74
g75
ssg63
g567
sg56
(lp574
S'session_id_welcome'
p575
asbag49
(g70
g51
NtRp576
(dp577
g54
(dp578
g81
g82
ssg63
g567
sg56
(lp579
S':'
asbag49
(g70
g51
NtRp580
(dp581
g54
(dp582
sg63
g567
sg56
(lp583
g49
(g50
g51
NtRp584
(dp585
g54
(dp586
g62
I4
ssg63
g580
sg56
(lp587
g49
(g58
g51
NtRp588
(dp589
g54
(dp590
g62
I3
ssg63
Nsg56
(lp591
g49
(g65
g51
NtRp592
(dp593
g54
(dp594
sg63
g588
sg56
(lp595
g49
(g70
g51
NtRp596
(dp597
g54
(dp598
g74
g75
ssg63
g592
sg56
(lp599
g263
asbag49
(g70
g51
NtRp600
(dp601
g54
(dp602
g81
g82
ssg63
g592
sg56
(lp603
S':'
asbag49
(g70
g51
NtRp604
(dp605
g54
(dp606
sg63
g592
sg56
(lp607
g49
(g50
g51
NtRp608
(dp609
g54
(dp610
g62
I3
ssg63
g604
sg56
(lp611
S''
asbasbasbag49
(g65
g51
NtRp612
(dp613
g54
(dp614
sg63
g588
sg56
(lp615
g49
(g70
g51
NtRp616
(dp617
g54
(dp618
g74
g75
ssg63
g612
sg56
(lp619
g284
asbag49
(g70
g51
NtRp620
(dp621
g54
(dp622
g81
g82
ssg63
g612
sg56
(lp623
S':'
asbag49
(g70
g51
NtRp624
(dp625
g54
(dp626
sg63
g612
sg56
(lp627
g49
(g50
g51
NtRp628
(dp629
g54
(dp630
g62
I3
ssg63
g624
sg56
(lp631
S''
asbasbasbag49
(g65
g51
NtRp632
(dp633
g54
(dp634
sg63
g588
sg56
(lp635
g49
(g70
g51
NtRp636
(dp637
g54
(dp638
g74
g75
ssg63
g632
sg56
(lp639
g305
asbag49
(g70
g51
NtRp640
(dp641
g54
(dp642
g81
g82
ssg63
g632
sg56
(lp643
S':'
asbag49
(g70
g51
NtRp644
(dp645
g54
(dp646
sg63
g632
sg56
(lp647
g49
(g50
g51
NtRp648
(dp649
g54
(dp650
g62
I3
ssg63
g644
sg56
(lp651
S''
asbasbasbag49
(g65
g51
NtRp652
(dp653
g54
(dp654
sg63
g588
sg56
(lp655
g49
(g70
g51
NtRp656
(dp657
g54
(dp658
g74
g75
ssg63
g652
sg56
(lp659
g326
asbag49
(g70
g51
NtRp660
(dp661
g54
(dp662
g81
g82
ssg63
g652
sg56
(lp663
S':'
asbag49
(g70
g51
NtRp664
(dp665
g54
(dp666
sg63
g652
sg56
(lp667
g49
(g50
g51
NtRp668
(dp669
g54
(dp670
g62
I3
ssg63
g664
sg56
(lp671
S''
asbasbasbag49
(g65
g51
NtRp672
(dp673
g54
(dp674
sg63
g588
sg56
(lp675
g49
(g70
g51
NtRp676
(dp677
g54
(dp678
g74
g75
ssg63
g672
sg56
(lp679
g347
asbag49
(g70
g51
NtRp680
(dp681
g54
(dp682
g81
g82
ssg63
g672
sg56
(lp683
S':'
asbag49
(g70
g51
NtRp684
(dp685
g54
(dp686
sg63
g672
sg56
(lp687
g49
(g50
g51
NtRp688
(dp689
g54
(dp690
g62
I3
ssg63
g684
sg56
(lp691
S''
asbasbasbag49
(g65
g51
NtRp692
(dp693
g54
(dp694
sg63
g588
sg56
(lp695
g49
(g70
g51
NtRp696
(dp697
g54
(dp698
g74
g75
ssg63
g692
sg56
(lp699
g368
asbag49
(g70
g51
NtRp700
(dp701
g54
(dp702
g81
g82
ssg63
g692
sg56
(lp703
S':'
asbag49
(g70
g51
NtRp704
(dp705
g54
(dp706
sg63
g692
sg56
(lp707
g49
(g50
g51
NtRp708
(dp709
g54
(dp710
g62
I3
ssg63
g704
sg56
(lp711
S''
asbasbasbag49
(g65
g51
NtRp712
(dp713
g54
(dp714
sg63
g588
sg56
(lp715
g49
(g70
g51
NtRp716
(dp717
g54
(dp718
g74
g75
ssg63
g712
sg56
(lp719
g389
asbag49
(g70
g51
NtRp720
(dp721
g54
(dp722
g81
g82
ssg63
g712
sg56
(lp723
S':'
asbag49
(g70
g51
NtRp724
(dp725
g54
(dp726
sg63
g712
sg56
(lp727
g49
(g50
g51
NtRp728
(dp729
g54
(dp730
g62
I3
ssg63
g724
sg56
(lp731
S''
asbasbasbasbasbasbasbasbasbasbasbag49
(g65
g51
NtRp732
(dp733
g54
(dp734
sg63
g59
sg56
(lp735
g49
(g70
g51
NtRp736
(dp737
g54
(dp738
g74
g75
ssg63
g732
sg56
(lp739
S'env'
p740
asbag49
(g70
g51
NtRp741
(dp742
g54
(dp743
g81
g82
ssg63
g732
sg56
(lp744
S':'
asbag49
(g70
g51
NtRp745
(dp746
g54
(dp747
sg63
g732
sg56
(lp748
g49
(g50
g51
NtRp749
(dp750
g54
(dp751
g62
I5
ssg63
g745
sg56
(lp752
g49
(g58
g51
NtRp753
(dp754
g54
(dp755
g62
I4
ssg63
Nsg56
(lp756
g49
(g65
g51
NtRp757
(dp758
g54
(dp759
sg63
g753
sg56
(lp760
g49
(g70
g51
NtRp761
(dp762
g54
(dp763
g74
g75
ssg63
g757
sg56
(lp764
S'app_folders'
p765
asbag49
(g70
g51
NtRp766
(dp767
g54
(dp768
g81
g82
ssg63
g757
sg56
(lp769
S':'
asbag49
(g70
g51
NtRp770
(dp771
g54
(dp772
sg63
g757
sg56
(lp773
g49
(g50
g51
NtRp774
(dp775
g54
(dp776
g62
I4
ssg63
g770
sg56
(lp777
S"set(['/Users/udimilo/Documents/web2py/applications/udi0312/', '/Users/udimilo/Documents/web2py/applications/admin/'])"
p778
asbasbasbag49
(g65
g51
NtRp779
(dp780
g54
(dp781
sg63
g753
sg56
(lp782
g49
(g70
g51
NtRp783
(dp784
g54
(dp785
g74
g75
ssg63
g779
sg56
(lp786
S'applications_parent'
p787
asbag49
(g70
g51
NtRp788
(dp789
g54
(dp790
g81
g82
ssg63
g779
sg56
(lp791
S':'
asbag49
(g70
g51
NtRp792
(dp793
g54
(dp794
sg63
g779
sg56
(lp795
g49
(g50
g51
NtRp796
(dp797
g54
(dp798
g62
I4
ssg63
g792
sg56
(lp799
S'/Users/udimilo/Documents/web2py'
p800
asbasbasbag49
(g65
g51
NtRp801
(dp802
g54
(dp803
sg63
g753
sg56
(lp804
g49
(g70
g51
NtRp805
(dp806
g54
(dp807
g74
g75
ssg63
g801
sg56
(lp808
S'cmd_args'
p809
asbag49
(g70
g51
NtRp810
(dp811
g54
(dp812
g81
g82
ssg63
g801
sg56
(lp813
S':'
asbag49
(g70
g51
NtRp814
(dp815
g54
(dp816
sg63
g801
sg56
(lp817
g49
(g50
g51
NtRp818
(dp819
g54
(dp820
g62
I4
ssg63
g814
sg56
(lp821
g49
(g58
g51
NtRp822
(dp823
g54
(dp824
g62
I3
ssg63
Nsg56
(lp825
sbasbasbasbag49
(g65
g51
NtRp826
(dp827
g54
(dp828
sg63
g753
sg56
(lp829
g49
(g70
g51
NtRp830
(dp831
g54
(dp832
g74
g75
ssg63
g826
sg56
(lp833
S'cmd_options'
p834
asbag49
(g70
g51
NtRp835
(dp836
g54
(dp837
g81
g82
ssg63
g826
sg56
(lp838
S':'
asbag49
(g70
g51
NtRp839
(dp840
g54
(dp841
sg63
g826
sg56
(lp842
g49
(g50
g51
NtRp843
(dp844
g54
(dp845
g62
I4
ssg63
g839
sg56
(lp846
S"<Values at 0x2c16058: {'verbose': False, 'ip': '127.0.0.1', 'shutdown_timeout': 5, 'taskbar': False, 'nocron': False, 'pid_filename': 'httpserver.pid', 'maxthreads': None, 'softcron': False, 'server_name': 'Udi-Milos-MacBook-Pro.local', 'bpython': False, 'nogui': False, 'port': 8000, 'extcron': False, 'debuglevel': 30, 'test': None, 'folder': '/Users/udimilo/Documents/web2py', 'config': '', 'import_models': False, 'winservice': '', 'shell': None, 'run': '', 'log_filename': 'httpserver.log', 'args': [''], 'socket_timeout': 5, 'ssl_ca_certificate': None, 'scheduler': None, 'profiler_filename': None, 'ssl_private_key': '', 'password': '<ask>', 'request_queue_size': 5, 'ssl_certificate': '', 'cronjob': False, 'numthreads': None, 'quiet': False, 'interfaces': None, 'minthreads': None, 'timeout': 10, 'plain': False, 'nobanner': False}>"
p847
asbasbasbag49
(g65
g51
NtRp848
(dp849
g54
(dp850
sg63
g753
sg56
(lp851
g49
(g70
g51
NtRp852
(dp853
g54
(dp854
g74
g75
ssg63
g848
sg56
(lp855
S'db_sessions'
p856
asbag49
(g70
g51
NtRp857
(dp858
g54
(dp859
g81
g82
ssg63
g848
sg56
(lp860
S':'
asbag49
(g70
g51
NtRp861
(dp862
g54
(dp863
sg63
g848
sg56
(lp864
g49
(g50
g51
NtRp865
(dp866
g54
(dp867
g62
I4
ssg63
g861
sg56
(lp868
S'set([])'
p869
asbasbasbag49
(g65
g51
NtRp870
(dp871
g54
(dp872
sg63
g753
sg56
(lp873
g49
(g70
g51
NtRp874
(dp875
g54
(dp876
g74
g75
ssg63
g870
sg56
(lp877
S'debugging'
p878
asbag49
(g70
g51
NtRp879
(dp880
g54
(dp881
g81
g82
ssg63
g870
sg56
(lp882
S':'
asbag49
(g70
g51
NtRp883
(dp884
g54
(dp885
sg63
g870
sg56
(lp886
g49
(g50
g51
NtRp887
(dp888
g54
(dp889
g62
I4
ssg63
g883
sg56
(lp890
g92
asbasbasbag49
(g65
g51
NtRp891
(dp892
g54
(dp893
sg63
g753
sg56
(lp894
g49
(g70
g51
NtRp895
(dp896
g54
(dp897
g74
g75
ssg63
g891
sg56
(lp898
S'gluon_parent'
p899
asbag49
(g70
g51
NtRp900
(dp901
g54
(dp902
g81
g82
ssg63
g891
sg56
(lp903
S':'
asbag49
(g70
g51
NtRp904
(dp905
g54
(dp906
sg63
g891
sg56
(lp907
g49
(g50
g51
NtRp908
(dp909
g54
(dp910
g62
I4
ssg63
g904
sg56
(lp911
S'/Users/udimilo/Documents/web2py'
p912
asbasbasbag49
(g65
g51
NtRp913
(dp914
g54
(dp915
sg63
g753
sg56
(lp916
g49
(g70
g51
NtRp917
(dp918
g54
(dp919
g74
g75
ssg63
g913
sg56
(lp920
S'http_accept'
p921
asbag49
(g70
g51
NtRp922
(dp923
g54
(dp924
g81
g82
ssg63
g913
sg56
(lp925
S':'
asbag49
(g70
g51
NtRp926
(dp927
g54
(dp928
sg63
g913
sg56
(lp929
g49
(g50
g51
NtRp930
(dp931
g54
(dp932
g62
I4
ssg63
g926
sg56
(lp933
S'text/html,application/xhtml+xml,application/xml;q=0.9,*/*;q=0.8'
p934
asbasbasbag49
(g65
g51
NtRp935
(dp936
g54
(dp937
sg63
g753
sg56
(lp938
g49
(g70
g51
NtRp939
(dp940
g54
(dp941
g74
g75
ssg63
g935
sg56
(lp942
S'http_accept_charset'
p943
asbag49
(g70
g51
NtRp944
(dp945
g54
(dp946
g81
g82
ssg63
g935
sg56
(lp947
S':'
asbag49
(g70
g51
NtRp948
(dp949
g54
(dp950
sg63
g935
sg56
(lp951
g49
(g50
g51
NtRp952
(dp953
g54
(dp954
g62
I4
ssg63
g948
sg56
(lp955
S'ISO-8859-1,utf-8;q=0.7,*;q=0.3'
p956
asbasbasbag49
(g65
g51
NtRp957
(dp958
g54
(dp959
sg63
g753
sg56
(lp960
g49
(g70
g51
NtRp961
(dp962
g54
(dp963
g74
g75
ssg63
g957
sg56
(lp964
S'http_accept_encoding'
p965
asbag49
(g70
g51
NtRp966
(dp967
g54
(dp968
g81
g82
ssg63
g957
sg56
(lp969
S':'
asbag49
(g70
g51
NtRp970
(dp971
g54
(dp972
sg63
g957
sg56
(lp973
g49
(g50
g51
NtRp974
(dp975
g54
(dp976
g62
I4
ssg63
g970
sg56
(lp977
S'gzip,deflate,sdch'
p978
asbasbasbag49
(g65
g51
NtRp979
(dp980
g54
(dp981
sg63
g753
sg56
(lp982
g49
(g70
g51
NtRp983
(dp984
g54
(dp985
g74
g75
ssg63
g979
sg56
(lp986
S'http_accept_language'
p987
asbag49
(g70
g51
NtRp988
(dp989
g54
(dp990
g81
g82
ssg63
g979
sg56
(lp991
S':'
asbag49
(g70
g51
NtRp992
(dp993
g54
(dp994
sg63
g979
sg56
(lp995
g49
(g50
g51
NtRp996
(dp997
g54
(dp998
g62
I4
ssg63
g992
sg56
(lp999
S'en-US,en;q=0.8'
p1000
asbasbasbag49
(g65
g51
NtRp1001
(dp1002
g54
(dp1003
sg63
g753
sg56
(lp1004
g49
(g70
g51
NtRp1005
(dp1006
g54
(dp1007
g74
g75
ssg63
g1001
sg56
(lp1008
S'http_cache_control'
p1009
asbag49
(g70
g51
NtRp1010
(dp1011
g54
(dp1012
g81
g82
ssg63
g1001
sg56
(lp1013
S':'
asbag49
(g70
g51
NtRp1014
(dp1015
g54
(dp1016
sg63
g1001
sg56
(lp1017
g49
(g50
g51
NtRp1018
(dp1019
g54
(dp1020
g62
I4
ssg63
g1014
sg56
(lp1021
S'max-age=0'
p1022
asbasbasbag49
(g65
g51
NtRp1023
(dp1024
g54
(dp1025
sg63
g753
sg56
(lp1026
g49
(g70
g51
NtRp1027
(dp1028
g54
(dp1029
g74
g75
ssg63
g1023
sg56
(lp1030
S'http_connection'
p1031
asbag49
(g70
g51
NtRp1032
(dp1033
g54
(dp1034
g81
g82
ssg63
g1023
sg56
(lp1035
S':'
asbag49
(g70
g51
NtRp1036
(dp1037
g54
(dp1038
sg63
g1023
sg56
(lp1039
g49
(g50
g51
NtRp1040
(dp1041
g54
(dp1042
g62
I4
ssg63
g1036
sg56
(lp1043
S'keep-alive'
p1044
asbasbasbag49
(g65
g51
NtRp1045
(dp1046
g54
(dp1047
sg63
g753
sg56
(lp1048
g49
(g70
g51
NtRp1049
(dp1050
g54
(dp1051
g74
g75
ssg63
g1045
sg56
(lp1052
S'http_cookie'
p1053
asbag49
(g70
g51
NtRp1054
(dp1055
g54
(dp1056
g81
g82
ssg63
g1045
sg56
(lp1057
S':'
asbag49
(g70
g51
NtRp1058
(dp1059
g54
(dp1060
sg63
g1045
sg56
(lp1061
g49
(g50
g51
NtRp1062
(dp1063
g54
(dp1064
g62
I4
ssg63
g1058
sg56
(lp1065
S'session_id_welcome=127.0.0.1-a504b24f-4d61-4d9a-9b5b-4625969b9aa0; session_id_udi0312=127.0.0.1-fcd6a577-d448-4882-b7bc-f353da84ba3b; session_id_admin=127.0.0.1-c37d4097-328c-4376-a48b-6f3b5af77d17'
p1066
asbasbasbag49
(g65
g51
NtRp1067
(dp1068
g54
(dp1069
sg63
g753
sg56
(lp1070
g49
(g70
g51
NtRp1071
(dp1072
g54
(dp1073
g74
g75
ssg63
g1067
sg56
(lp1074
S'http_host'
p1075
asbag49
(g70
g51
NtRp1076
(dp1077
g54
(dp1078
g81
g82
ssg63
g1067
sg56
(lp1079
S':'
asbag49
(g70
g51
NtRp1080
(dp1081
g54
(dp1082
sg63
g1067
sg56
(lp1083
g49
(g50
g51
NtRp1084
(dp1085
g54
(dp1086
g62
I4
ssg63
g1080
sg56
(lp1087
S'127.0.0.1:8000'
p1088
asbasbasbag49
(g65
g51
NtRp1089
(dp1090
g54
(dp1091
sg63
g753
sg56
(lp1092
g49
(g70
g51
NtRp1093
(dp1094
g54
(dp1095
g74
g75
ssg63
g1089
sg56
(lp1096
S'http_user_agent'
p1097
asbag49
(g70
g51
NtRp1098
(dp1099
g54
(dp1100
g81
g82
ssg63
g1089
sg56
(lp1101
S':'
asbag49
(g70
g51
NtRp1102
(dp1103
g54
(dp1104
sg63
g1089
sg56
(lp1105
g49
(g50
g51
NtRp1106
(dp1107
g54
(dp1108
g62
I4
ssg63
g1102
sg56
(lp1109
S'Mozilla/5.0 (Macintosh; Intel Mac OS X 10_7_3) AppleWebKit/535.11 (KHTML, like Gecko) Chrome/17.0.963.65 Safari/535.11'
p1110
asbasbasbag49
(g65
g51
NtRp1111
(dp1112
g54
(dp1113
sg63
g753
sg56
(lp1114
g49
(g70
g51
NtRp1115
(dp1116
g54
(dp1117
g74
g75
ssg63
g1111
sg56
(lp1118
S'is_jython'
p1119
asbag49
(g70
g51
NtRp1120
(dp1121
g54
(dp1122
g81
g82
ssg63
g1111
sg56
(lp1123
S':'
asbag49
(g70
g51
NtRp1124
(dp1125
g54
(dp1126
sg63
g1111
sg56
(lp1127
g49
(g50
g51
NtRp1128
(dp1129
g54
(dp1130
g62
I4
ssg63
g1124
sg56
(lp1131
g92
asbasbasbag49
(g65
g51
NtRp1132
(dp1133
g54
(dp1134
sg63
g753
sg56
(lp1135
g49
(g70
g51
NtRp1136
(dp1137
g54
(dp1138
g74
g75
ssg63
g1132
sg56
(lp1139
S'is_pypy'
p1140
asbag49
(g70
g51
NtRp1141
(dp1142
g54
(dp1143
g81
g82
ssg63
g1132
sg56
(lp1144
S':'
asbag49
(g70
g51
NtRp1145
(dp1146
g54
(dp1147
sg63
g1132
sg56
(lp1148
g49
(g50
g51
NtRp1149
(dp1150
g54
(dp1151
g62
I4
ssg63
g1145
sg56
(lp1152
g92
asbasbasbag49
(g65
g51
NtRp1153
(dp1154
g54
(dp1155
sg63
g753
sg56
(lp1156
g49
(g70
g51
NtRp1157
(dp1158
g54
(dp1159
g74
g75
ssg63
g1153
sg56
(lp1160
S'path_info'
p1161
asbag49
(g70
g51
NtRp1162
(dp1163
g54
(dp1164
g81
g82
ssg63
g1153
sg56
(lp1165
S':'
asbag49
(g70
g51
NtRp1166
(dp1167
g54
(dp1168
sg63
g1153
sg56
(lp1169
g49
(g50
g51
NtRp1170
(dp1171
g54
(dp1172
g62
I4
ssg63
g1166
sg56
(lp1173
S'/'
asbasbasbag49
(g65
g51
NtRp1174
(dp1175
g54
(dp1176
sg63
g753
sg56
(lp1177
g49
(g70
g51
NtRp1178
(dp1179
g54
(dp1180
g74
g75
ssg63
g1174
sg56
(lp1181
S'query_string'
p1182
asbag49
(g70
g51
NtRp1183
(dp1184
g54
(dp1185
g81
g82
ssg63
g1174
sg56
(lp1186
S':'
asbag49
(g70
g51
NtRp1187
(dp1188
g54
(dp1189
sg63
g1174
sg56
(lp1190
g49
(g50
g51
NtRp1191
(dp1192
g54
(dp1193
g62
I4
ssg63
g1187
sg56
(lp1194
S''
asbasbasbag49
(g65
g51
NtRp1195
(dp1196
g54
(dp1197
sg63
g753
sg56
(lp1198
g49
(g70
g51
NtRp1199
(dp1200
g54
(dp1201
g74
g75
ssg63
g1195
sg56
(lp1202
S'remote_addr'
p1203
asbag49
(g70
g51
NtRp1204
(dp1205
g54
(dp1206
g81
g82
ssg63
g1195
sg56
(lp1207
S':'
asbag49
(g70
g51
NtRp1208
(dp1209
g54
(dp1210
sg63
g1195
sg56
(lp1211
g49
(g50
g51
NtRp1212
(dp1213
g54
(dp1214
g62
I4
ssg63
g1208
sg56
(lp1215
g182
asbasbasbag49
(g65
g51
NtRp1216
(dp1217
g54
(dp1218
sg63
g753
sg56
(lp1219
g49
(g70
g51
NtRp1220
(dp1221
g54
(dp1222
g74
g75
ssg63
g1216
sg56
(lp1223
S'remote_port'
p1224
asbag49
(g70
g51
NtRp1225
(dp1226
g54
(dp1227
g81
g82
ssg63
g1216
sg56
(lp1228
S':'
asbag49
(g70
g51
NtRp1229
(dp1230
g54
(dp1231
sg63
g1216
sg56
(lp1232
g49
(g50
g51
NtRp1233
(dp1234
g54
(dp1235
g62
I4
ssg63
g1229
sg56
(lp1236
S'57557'
p1237
asbasbasbag49
(g65
g51
NtRp1238
(dp1239
g54
(dp1240
sg63
g753
sg56
(lp1241
g49
(g70
g51
NtRp1242
(dp1243
g54
(dp1244
g74
g75
ssg63
g1238
sg56
(lp1245
S'request_method'
p1246
asbag49
(g70
g51
NtRp1247
(dp1248
g54
(dp1249
g81
g82
ssg63
g1238
sg56
(lp1250
S':'
asbag49
(g70
g51
NtRp1251
(dp1252
g54
(dp1253
sg63
g1238
sg56
(lp1254
g49
(g50
g51
NtRp1255
(dp1256
g54
(dp1257
g62
I4
ssg63
g1251
sg56
(lp1258
S'GET'
p1259
asbasbasbag49
(g65
g51
NtRp1260
(dp1261
g54
(dp1262
sg63
g753
sg56
(lp1263
g49
(g70
g51
NtRp1264
(dp1265
g54
(dp1266
g74
g75
ssg63
g1260
sg56
(lp1267
S'request_uri'
p1268
asbag49
(g70
g51
NtRp1269
(dp1270
g54
(dp1271
g81
g82
ssg63
g1260
sg56
(lp1272
S':'
asbag49
(g70
g51
NtRp1273
(dp1274
g54
(dp1275
sg63
g1260
sg56
(lp1276
g49
(g50
g51
NtRp1277
(dp1278
g54
(dp1279
g62
I4
ssg63
g1273
sg56
(lp1280
S'/udi0312/default/index'
p1281
asbasbasbag49
(g65
g51
NtRp1282
(dp1283
g54
(dp1284
sg63
g753
sg56
(lp1285
g49
(g70
g51
NtRp1286
(dp1287
g54
(dp1288
g74
g75
ssg63
g1282
sg56
(lp1289
S'script_name'
p1290
asbag49
(g70
g51
NtRp1291
(dp1292
g54
(dp1293
g81
g82
ssg63
g1282
sg56
(lp1294
S':'
asbag49
(g70
g51
NtRp1295
(dp1296
g54
(dp1297
sg63
g1282
sg56
(lp1298
g49
(g50
g51
NtRp1299
(dp1300
g54
(dp1301
g62
I4
ssg63
g1295
sg56
(lp1302
S''
asbasbasbag49
(g65
g51
NtRp1303
(dp1304
g54
(dp1305
sg63
g753
sg56
(lp1306
g49
(g70
g51
NtRp1307
(dp1308
g54
(dp1309
g74
g75
ssg63
g1303
sg56
(lp1310
S'server_name'
p1311
asbag49
(g70
g51
NtRp1312
(dp1313
g54
(dp1314
g81
g82
ssg63
g1303
sg56
(lp1315
S':'
asbag49
(g70
g51
NtRp1316
(dp1317
g54
(dp1318
sg63
g1303
sg56
(lp1319
g49
(g50
g51
NtRp1320
(dp1321
g54
(dp1322
g62
I4
ssg63
g1316
sg56
(lp1323
S'Udi-Milos-MacBook-Pro.local'
p1324
asbasbasbag49
(g65
g51
NtRp1325
(dp1326
g54
(dp1327
sg63
g753
sg56
(lp1328
g49
(g70
g51
NtRp1329
(dp1330
g54
(dp1331
g74
g75
ssg63
g1325
sg56
(lp1332
S'server_port'
p1333
asbag49
(g70
g51
NtRp1334
(dp1335
g54
(dp1336
g81
g82
ssg63
g1325
sg56
(lp1337
S':'
asbag49
(g70
g51
NtRp1338
(dp1339
g54
(dp1340
sg63
g1325
sg56
(lp1341
g49
(g50
g51
NtRp1342
(dp1343
g54
(dp1344
g62
I4
ssg63
g1338
sg56
(lp1345
S'8000'
p1346
asbasbasbag49
(g65
g51
NtRp1347
(dp1348
g54
(dp1349
sg63
g753
sg56
(lp1350
g49
(g70
g51
NtRp1351
(dp1352
g54
(dp1353
g74
g75
ssg63
g1347
sg56
(lp1354
S'server_protocol'
p1355
asbag49
(g70
g51
NtRp1356
(dp1357
g54
(dp1358
g81
g82
ssg63
g1347
sg56
(lp1359
S':'
asbag49
(g70
g51
NtRp1360
(dp1361
g54
(dp1362
sg63
g1347
sg56
(lp1363
g49
(g50
g51
NtRp1364
(dp1365
g54
(dp1366
g62
I4
ssg63
g1360
sg56
(lp1367
S'HTTP/1.1'
p1368
asbasbasbag49
(g65
g51
NtRp1369
(dp1370
g54
(dp1371
sg63
g753
sg56
(lp1372
g49
(g70
g51
NtRp1373
(dp1374
g54
(dp1375
g74
g75
ssg63
g1369
sg56
(lp1376
S'server_software'
p1377
asbag49
(g70
g51
NtRp1378
(dp1379
g54
(dp1380
g81
g82
ssg63
g1369
sg56
(lp1381
S':'
asbag49
(g70
g51
NtRp1382
(dp1383
g54
(dp1384
sg63
g1369
sg56
(lp1385
g49
(g50
g51
NtRp1386
(dp1387
g54
(dp1388
g62
I4
ssg63
g1382
sg56
(lp1389
S'Rocket 1.2.4'
p1390
asbasbasbag49
(g65
g51
NtRp1391
(dp1392
g54
(dp1393
sg63
g753
sg56
(lp1394
g49
(g70
g51
NtRp1395
(dp1396
g54
(dp1397
g74
g75
ssg63
g1391
sg56
(lp1398
S'web2py_crontype'
p1399
asbag49
(g70
g51
NtRp1400
(dp1401
g54
(dp1402
g81
g82
ssg63
g1391
sg56
(lp1403
S':'
asbag49
(g70
g51
NtRp1404
(dp1405
g54
(dp1406
sg63
g1391
sg56
(lp1407
g49
(g50
g51
NtRp1408
(dp1409
g54
(dp1410
g62
I4
ssg63
g1404
sg56
(lp1411
S'hard'
p1412
asbasbasbag49
(g65
g51
NtRp1413
(dp1414
g54
(dp1415
sg63
g753
sg56
(lp1416
g49
(g70
g51
NtRp1417
(dp1418
g54
(dp1419
g74
g75
ssg63
g1413
sg56
(lp1420
S'web2py_original_uri'
p1421
asbag49
(g70
g51
NtRp1422
(dp1423
g54
(dp1424
g81
g82
ssg63
g1413
sg56
(lp1425
S':'
asbag49
(g70
g51
NtRp1426
(dp1427
g54
(dp1428
sg63
g1413
sg56
(lp1429
g49
(g50
g51
NtRp1430
(dp1431
g54
(dp1432
g62
I4
ssg63
g1426
sg56
(lp1433
S'/'
asbasbasbag49
(g65
g51
NtRp1434
(dp1435
g54
(dp1436
sg63
g753
sg56
(lp1437
g49
(g70
g51
NtRp1438
(dp1439
g54
(dp1440
g74
g75
ssg63
g1434
sg56
(lp1441
S'web2py_path'
p1442
asbag49
(g70
g51
NtRp1443
(dp1444
g54
(dp1445
g81
g82
ssg63
g1434
sg56
(lp1446
S':'
asbag49
(g70
g51
NtRp1447
(dp1448
g54
(dp1449
sg63
g1434
sg56
(lp1450
g49
(g50
g51
NtRp1451
(dp1452
g54
(dp1453
g62
I4
ssg63
g1447
sg56
(lp1454
g800
asbasbasbag49
(g65
g51
NtRp1455
(dp1456
g54
(dp1457
sg63
g753
sg56
(lp1458
g49
(g70
g51
NtRp1459
(dp1460
g54
(dp1461
g74
g75
ssg63
g1455
sg56
(lp1462
S'web2py_version'
p1463
asbag49
(g70
g51
NtRp1464
(dp1465
g54
(dp1466
g81
g82
ssg63
g1455
sg56
(lp1467
S':'
asbag49
(g70
g51
NtRp1468
(dp1469
g54
(dp1470
sg63
g1455
sg56
(lp1471
g49
(g50
g51
NtRp1472
(dp1473
g54
(dp1474
g62
I4
ssg63
g1468
sg56
(lp1475
g49
(g58
g51
NtRp1476
(dp1477
g54
(dp1478
g62
I3
ssg63
Nsg56
(lp1479
g49
(g65
g51
NtRp1480
(dp1481
g54
(dp1482
sg63
g1476
sg56
(lp1483
g49
(g70
g51
NtRp1484
(dp1485
g54
(dp1486
sg63
g1480
sg56
(lp1487
g49
(g50
g51
NtRp1488
(dp1489
g54
(dp1490
g62
I3
ssg63
g1484
sg56
(lp1491
S'1'
asbasbasbag49
(g65
g51
NtRp1492
(dp1493
g54
(dp1494
sg63
g1476
sg56
(lp1495
g49
(g70
g51
NtRp1496
(dp1497
g54
(dp1498
sg63
g1492
sg56
(lp1499
g49
(g50
g51
NtRp1500
(dp1501
g54
(dp1502
g62
I3
ssg63
g1496
sg56
(lp1503
S'99'
p1504
asbasbasbag49
(g65
g51
NtRp1505
(dp1506
g54
(dp1507
sg63
g1476
sg56
(lp1508
g49
(g70
g51
NtRp1509
(dp1510
g54
(dp1511
sg63
g1505
sg56
(lp1512
g49
(g50
g51
NtRp1513
(dp1514
g54
(dp1515
g62
I3
ssg63
g1509
sg56
(lp1516
S'7'
asbasbasbag49
(g65
g51
NtRp1517
(dp1518
g54
(dp1519
sg63
g1476
sg56
(lp1520
g49
(g70
g51
NtRp1521
(dp1522
g54
(dp1523
sg63
g1517
sg56
(lp1524
g49
(g50
g51
NtRp1525
(dp1526
g54
(dp1527
g62
I3
ssg63
g1521
sg56
(lp1528
S'datetime.datetime(2012, 3, 4, 22, 12, 8)'
p1529
asbasbasbag49
(g65
g51
NtRp1530
(dp1531
g54
(dp1532
sg63
g1476
sg56
(lp1533
g49
(g70
g51
NtRp1534
(dp1535
g54
(dp1536
sg63
g1530
sg56
(lp1537
g49
(g50
g51
NtRp1538
(dp1539
g54
(dp1540
g62
I3
ssg63
g1534
sg56
(lp1541
S'stable'
p1542
asbasbasbasbasbasbasbag49
(g65
g51
NtRp1543
(dp1544
g54
(dp1545
sg63
g753
sg56
(lp1546
g49
(g70
g51
NtRp1547
(dp1548
g54
(dp1549
g74
g75
ssg63
g1543
sg56
(lp1550
S'wsgi_errors'
p1551
asbag49
(g70
g51
NtRp1552
(dp1553
g54
(dp1554
g81
g82
ssg63
g1543
sg56
(lp1555
S':'
asbag49
(g70
g51
NtRp1556
(dp1557
g54
(dp1558
sg63
g1543
sg56
(lp1559
g49
(g50
g51
NtRp1560
(dp1561
g54
(dp1562
g62
I4
ssg63
g1556
sg56
(lp1563
S"<open file '<stderr>', mode 'w' at 0x4220b0>"
p1564
asbasbasbag49
(g65
g51
NtRp1565
(dp1566
g54
(dp1567
sg63
g753
sg56
(lp1568
g49
(g70
g51
NtRp1569
(dp1570
g54
(dp1571
g74
g75
ssg63
g1565
sg56
(lp1572
S'wsgi_file_wrapper'
p1573
asbag49
(g70
g51
NtRp1574
(dp1575
g54
(dp1576
g81
g82
ssg63
g1565
sg56
(lp1577
S':'
asbag49
(g70
g51
NtRp1578
(dp1579
g54
(dp1580
sg63
g1565
sg56
(lp1581
g49
(g50
g51
NtRp1582
(dp1583
g54
(dp1584
g62
I4
ssg63
g1578
sg56
(lp1585
S'<class wsgiref.util.FileWrapper at 0x2b60450>'
p1586
asbasbasbag49
(g65
g51
NtRp1587
(dp1588
g54
(dp1589
sg63
g753
sg56
(lp1590
g49
(g70
g51
NtRp1591
(dp1592
g54
(dp1593
g74
g75
ssg63
g1587
sg56
(lp1594
S'wsgi_input'
p1595
asbag49
(g70
g51
NtRp1596
(dp1597
g54
(dp1598
g81
g82
ssg63
g1587
sg56
(lp1599
S':'
asbag49
(g70
g51
NtRp1600
(dp1601
g54
(dp1602
sg63
g1587
sg56
(lp1603
g49
(g50
g51
NtRp1604
(dp1605
g54
(dp1606
g62
I4
ssg63
g1600
sg56
(lp1607
S'<socket._fileobject object at 0x8dde030>'
p1608
asbasbasbag49
(g65
g51
NtRp1609
(dp1610
g54
(dp1611
sg63
g753
sg56
(lp1612
g49
(g70
g51
NtRp1613
(dp1614
g54
(dp1615
g74
g75
ssg63
g1609
sg56
(lp1616
S'wsgi_multiprocess'
p1617
asbag49
(g70
g51
NtRp1618
(dp1619
g54
(dp1620
g81
g82
ssg63
g1609
sg56
(lp1621
S':'
asbag49
(g70
g51
NtRp1622
(dp1623
g54
(dp1624
sg63
g1609
sg56
(lp1625
g49
(g50
g51
NtRp1626
(dp1627
g54
(dp1628
g62
I4
ssg63
g1622
sg56
(lp1629
g92
asbasbasbag49
(g65
g51
NtRp1630
(dp1631
g54
(dp1632
sg63
g753
sg56
(lp1633
g49
(g70
g51
NtRp1634
(dp1635
g54
(dp1636
g74
g75
ssg63
g1630
sg56
(lp1637
S'wsgi_multithread'
p1638
asbag49
(g70
g51
NtRp1639
(dp1640
g54
(dp1641
g81
g82
ssg63
g1630
sg56
(lp1642
S':'
asbag49
(g70
g51
NtRp1643
(dp1644
g54
(dp1645
sg63
g1630
sg56
(lp1646
g49
(g50
g51
NtRp1647
(dp1648
g54
(dp1649
g62
I4
ssg63
g1643
sg56
(lp1650
S'True'
p1651
asbasbasbag49
(g65
g51
NtRp1652
(dp1653
g54
(dp1654
sg63
g753
sg56
(lp1655
g49
(g70
g51
NtRp1656
(dp1657
g54
(dp1658
g74
g75
ssg63
g1652
sg56
(lp1659
S'wsgi_run_once'
p1660
asbag49
(g70
g51
NtRp1661
(dp1662
g54
(dp1663
g81
g82
ssg63
g1652
sg56
(lp1664
S':'
asbag49
(g70
g51
NtRp1665
(dp1666
g54
(dp1667
sg63
g1652
sg56
(lp1668
g49
(g50
g51
NtRp1669
(dp1670
g54
(dp1671
g62
I4
ssg63
g1665
sg56
(lp1672
g92
asbasbasbag49
(g65
g51
NtRp1673
(dp1674
g54
(dp1675
sg63
g753
sg56
(lp1676
g49
(g70
g51
NtRp1677
(dp1678
g54
(dp1679
g74
g75
ssg63
g1673
sg56
(lp1680
S'wsgi_url_scheme'
p1681
asbag49
(g70
g51
NtRp1682
(dp1683
g54
(dp1684
g81
g82
ssg63
g1673
sg56
(lp1685
S':'
asbag49
(g70
g51
NtRp1686
(dp1687
g54
(dp1688
sg63
g1673
sg56
(lp1689
g49
(g50
g51
NtRp1690
(dp1691
g54
(dp1692
g62
I4
ssg63
g1686
sg56
(lp1693
S'http'
p1694
asbasbasbag49
(g65
g51
NtRp1695
(dp1696
g54
(dp1697
sg63
g753
sg56
(lp1698
g49
(g70
g51
NtRp1699
(dp1700
g54
(dp1701
g74
g75
ssg63
g1695
sg56
(lp1702
S'wsgi_version'
p1703
asbag49
(g70
g51
NtRp1704
(dp1705
g54
(dp1706
g81
g82
ssg63
g1695
sg56
(lp1707
S':'
asbag49
(g70
g51
NtRp1708
(dp1709
g54
(dp1710
sg63
g1695
sg56
(lp1711
g49
(g50
g51
NtRp1712
(dp1713
g54
(dp1714
g62
I4
ssg63
g1708
sg56
(lp1715
g49
(g58
g51
NtRp1716
(dp1717
g54
(dp1718
g62
I3
ssg63
Nsg56
(lp1719
g49
(g65
g51
NtRp1720
(dp1721
g54
(dp1722
sg63
g1716
sg56
(lp1723
g49
(g70
g51
NtRp1724
(dp1725
g54
(dp1726
sg63
g1720
sg56
(lp1727
g49
(g50
g51
NtRp1728
(dp1729
g54
(dp1730
g62
I3
ssg63
g1724
sg56
(lp1731
S'1'
asbasbasbag49
(g65
g51
NtRp1732
(dp1733
g54
(dp1734
sg63
g1716
sg56
(lp1735
g49
(g70
g51
NtRp1736
(dp1737
g54
(dp1738
sg63
g1732
sg56
(lp1739
g49
(g50
g51
NtRp1740
(dp1741
g54
(dp1742
g62
I3
ssg63
g1736
sg56
(lp1743
S'0'
asbasbasbasbasbasbasbasbasbasbasbag49
(g65
g51
NtRp1744
(dp1745
g54
(dp1746
sg63
g59
sg56
(lp1747
g49
(g70
g51
NtRp1748
(dp1749
g54
(dp1750
g74
g75
ssg63
g1744
sg56
(lp1751
S'extension'
p1752
asbag49
(g70
g51
NtRp1753
(dp1754
g54
(dp1755
g81
g82
ssg63
g1744
sg56
(lp1756
S':'
asbag49
(g70
g51
NtRp1757
(dp1758
g54
(dp1759
sg63
g1744
sg56
(lp1760
g49
(g50
g51
NtRp1761
(dp1762
g54
(dp1763
g62
I5
ssg63
g1757
sg56
(lp1764
S'html'
p1765
asbasbasbag49
(g65
g51
NtRp1766
(dp1767
g54
(dp1768
sg63
g59
sg56
(lp1769
g49
(g70
g51
NtRp1770
(dp1771
g54
(dp1772
g74
g75
ssg63
g1766
sg56
(lp1773
S'folder'
p1774
asbag49
(g70
g51
NtRp1775
(dp1776
g54
(dp1777
g81
g82
ssg63
g1766
sg56
(lp1778
S':'
asbag49
(g70
g51
NtRp1779
(dp1780
g54
(dp1781
sg63
g1766
sg56
(lp1782
g49
(g50
g51
NtRp1783
(dp1784
g54
(dp1785
g62
I5
ssg63
g1779
sg56
(lp1786
S'/Users/udimilo/Documents/web2py/applications/udi0312/'
p1787
asbasbasbag49
(g65
g51
NtRp1788
(dp1789
g54
(dp1790
sg63
g59
sg56
(lp1791
g49
(g70
g51
NtRp1792
(dp1793
g54
(dp1794
g74
g75
ssg63
g1788
sg56
(lp1795
S'function'
p1796
asbag49
(g70
g51
NtRp1797
(dp1798
g54
(dp1799
g81
g82
ssg63
g1788
sg56
(lp1800
S':'
asbag49
(g70
g51
NtRp1801
(dp1802
g54
(dp1803
sg63
g1788
sg56
(lp1804
g49
(g50
g51
NtRp1805
(dp1806
g54
(dp1807
g62
I5
ssg63
g1801
sg56
(lp1808
S'index'
p1809
asbasbasbag49
(g65
g51
NtRp1810
(dp1811
g54
(dp1812
sg63
g59
sg56
(lp1813
g49
(g70
g51
NtRp1814
(dp1815
g54
(dp1816
g74
g75
ssg63
g1810
sg56
(lp1817
S'get_vars'
p1818
asbag49
(g70
g51
NtRp1819
(dp1820
g54
(dp1821
g81
g82
ssg63
g1810
sg56
(lp1822
S':'
asbag49
(g70
g51
NtRp1823
(dp1824
g54
(dp1825
sg63
g1810
sg56
(lp1826
g49
(g50
g51
NtRp1827
(dp1828
g54
(dp1829
g62
I5
ssg63
g1823
sg56
(lp1830
g49
(g58
g51
NtRp1831
(dp1832
g54
(dp1833
g62
I4
ssg63
Nsg56
(lp1834
sbasbasbasbag49
(g65
g51
NtRp1835
(dp1836
g54
(dp1837
sg63
g59
sg56
(lp1838
g49
(g70
g51
NtRp1839
(dp1840
g54
(dp1841
g74
g75
ssg63
g1835
sg56
(lp1842
S'global_settings'
p1843
asbag49
(g70
g51
NtRp1844
(dp1845
g54
(dp1846
g81
g82
ssg63
g1835
sg56
(lp1847
S':'
asbag49
(g70
g51
NtRp1848
(dp1849
g54
(dp1850
sg63
g1835
sg56
(lp1851
g49
(g50
g51
NtRp1852
(dp1853
g54
(dp1854
g62
I5
ssg63
g1848
sg56
(lp1855
g49
(g58
g51
NtRp1856
(dp1857
g54
(dp1858
g62
I4
ssg63
Nsg56
(lp1859
g49
(g65
g51
NtRp1860
(dp1861
g54
(dp1862
sg63
g1856
sg56
(lp1863
g49
(g70
g51
NtRp1864
(dp1865
g54
(dp1866
g74
g75
ssg63
g1860
sg56
(lp1867
g765
asbag49
(g70
g51
NtRp1868
(dp1869
g54
(dp1870
g81
g82
ssg63
g1860
sg56
(lp1871
S':'
asbag49
(g70
g51
NtRp1872
(dp1873
g54
(dp1874
sg63
g1860
sg56
(lp1875
g49
(g50
g51
NtRp1876
(dp1877
g54
(dp1878
g62
I4
ssg63
g1872
sg56
(lp1879
S"set(['/Users/udimilo/Documents/web2py/applications/udi0312/', '/Users/udimilo/Documents/web2py/applications/admin/'])"
p1880
asbasbasbag49
(g65
g51
NtRp1881
(dp1882
g54
(dp1883
sg63
g1856
sg56
(lp1884
g49
(g70
g51
NtRp1885
(dp1886
g54
(dp1887
g74
g75
ssg63
g1881
sg56
(lp1888
g787
asbag49
(g70
g51
NtRp1889
(dp1890
g54
(dp1891
g81
g82
ssg63
g1881
sg56
(lp1892
S':'
asbag49
(g70
g51
NtRp1893
(dp1894
g54
(dp1895
sg63
g1881
sg56
(lp1896
g49
(g50
g51
NtRp1897
(dp1898
g54
(dp1899
g62
I4
ssg63
g1893
sg56
(lp1900
g800
asbasbasbag49
(g65
g51
NtRp1901
(dp1902
g54
(dp1903
sg63
g1856
sg56
(lp1904
g49
(g70
g51
NtRp1905
(dp1906
g54
(dp1907
g74
g75
ssg63
g1901
sg56
(lp1908
g809
asbag49
(g70
g51
NtRp1909
(dp1910
g54
(dp1911
g81
g82
ssg63
g1901
sg56
(lp1912
S':'
asbag49
(g70
g51
NtRp1913
(dp1914
g54
(dp1915
sg63
g1901
sg56
(lp1916
g49
(g50
g51
NtRp1917
(dp1918
g54
(dp1919
g62
I4
ssg63
g1913
sg56
(lp1920
g49
(g58
g51
NtRp1921
(dp1922
g54
(dp1923
g62
I3
ssg63
Nsg56
(lp1924
sbasbasbasbag49
(g65
g51
NtRp1925
(dp1926
g54
(dp1927
sg63
g1856
sg56
(lp1928
g49
(g70
g51
NtRp1929
(dp1930
g54
(dp1931
g74
g75
ssg63
g1925
sg56
(lp1932
g834
asbag49
(g70
g51
NtRp1933
(dp1934
g54
(dp1935
g81
g82
ssg63
g1925
sg56
(lp1936
S':'
asbag49
(g70
g51
NtRp1937
(dp1938
g54
(dp1939
sg63
g1925
sg56
(lp1940
g49
(g50
g51
NtRp1941
(dp1942
g54
(dp1943
g62
I4
ssg63
g1937
sg56
(lp1944
S"<Values at 0x2c16058: {'verbose': False, 'ip': '127.0.0.1', 'shutdown_timeout': 5, 'taskbar': False, 'nocron': False, 'pid_filename': 'httpserver.pid', 'maxthreads': None, 'softcron': False, 'server_name': 'Udi-Milos-MacBook-Pro.local', 'bpython': False, 'nogui': False, 'port': 8000, 'extcron': False, 'debuglevel': 30, 'test': None, 'folder': '/Users/udimilo/Documents/web2py', 'config': '', 'import_models': False, 'winservice': '', 'shell': None, 'run': '', 'log_filename': 'httpserver.log', 'args': [''], 'socket_timeout': 5, 'ssl_ca_certificate': None, 'scheduler': None, 'profiler_filename': None, 'ssl_private_key': '', 'password': '<ask>', 'request_queue_size': 5, 'ssl_certificate': '', 'cronjob': False, 'numthreads': None, 'quiet': False, 'interfaces': None, 'minthreads': None, 'timeout': 10, 'plain': False, 'nobanner': False}>"
p1945
asbasbasbag49
(g65
g51
NtRp1946
(dp1947
g54
(dp1948
sg63
g1856
sg56
(lp1949
g49
(g70
g51
NtRp1950
(dp1951
g54
(dp1952
g74
g75
ssg63
g1946
sg56
(lp1953
g856
asbag49
(g70
g51
NtRp1954
(dp1955
g54
(dp1956
g81
g82
ssg63
g1946
sg56
(lp1957
S':'
asbag49
(g70
g51
NtRp1958
(dp1959
g54
(dp1960
sg63
g1946
sg56
(lp1961
g49
(g50
g51
NtRp1962
(dp1963
g54
(dp1964
g62
I4
ssg63
g1958
sg56
(lp1965
S'set([])'
p1966
asbasbasbag49
(g65
g51
NtRp1967
(dp1968
g54
(dp1969
sg63
g1856
sg56
(lp1970
g49
(g70
g51
NtRp1971
(dp1972
g54
(dp1973
g74
g75
ssg63
g1967
sg56
(lp1974
g878
asbag49
(g70
g51
NtRp1975
(dp1976
g54
(dp1977
g81
g82
ssg63
g1967
sg56
(lp1978
S':'
asbag49
(g70
g51
NtRp1979
(dp1980
g54
(dp1981
sg63
g1967
sg56
(lp1982
g49
(g50
g51
NtRp1983
(dp1984
g54
(dp1985
g62
I4
ssg63
g1979
sg56
(lp1986
g92
asbasbasbag49
(g65
g51
NtRp1987
(dp1988
g54
(dp1989
sg63
g1856
sg56
(lp1990
g49
(g70
g51
NtRp1991
(dp1992
g54
(dp1993
g74
g75
ssg63
g1987
sg56
(lp1994
g899
asbag49
(g70
g51
NtRp1995
(dp1996
g54
(dp1997
g81
g82
ssg63
g1987
sg56
(lp1998
S':'
asbag49
(g70
g51
NtRp1999
(dp2000
g54
(dp2001
sg63
g1987
sg56
(lp2002
g49
(g50
g51
NtRp2003
(dp2004
g54
(dp2005
g62
I4
ssg63
g1999
sg56
(lp2006
g912
asbasbasbag49
(g65
g51
NtRp2007
(dp2008
g54
(dp2009
sg63
g1856
sg56
(lp2010
g49
(g70
g51
NtRp2011
(dp2012
g54
(dp2013
g74
g75
ssg63
g2007
sg56
(lp2014
g1119
asbag49
(g70
g51
NtRp2015
(dp2016
g54
(dp2017
g81
g82
ssg63
g2007
sg56
(lp2018
S':'
asbag49
(g70
g51
NtRp2019
(dp2020
g54
(dp2021
sg63
g2007
sg56
(lp2022
g49
(g50
g51
NtRp2023
(dp2024
g54
(dp2025
g62
I4
ssg63
g2019
sg56
(lp2026
g92
asbasbasbag49
(g65
g51
NtRp2027
(dp2028
g54
(dp2029
sg63
g1856
sg56
(lp2030
g49
(g70
g51
NtRp2031
(dp2032
g54
(dp2033
g74
g75
ssg63
g2027
sg56
(lp2034
g1140
asbag49
(g70
g51
NtRp2035
(dp2036
g54
(dp2037
g81
g82
ssg63
g2027
sg56
(lp2038
S':'
asbag49
(g70
g51
NtRp2039
(dp2040
g54
(dp2041
sg63
g2027
sg56
(lp2042
g49
(g50
g51
NtRp2043
(dp2044
g54
(dp2045
g62
I4
ssg63
g2039
sg56
(lp2046
g92
asbasbasbag49
(g65
g51
NtRp2047
(dp2048
g54
(dp2049
sg63
g1856
sg56
(lp2050
g49
(g70
g51
NtRp2051
(dp2052
g54
(dp2053
g74
g75
ssg63
g2047
sg56
(lp2054
g1399
asbag49
(g70
g51
NtRp2055
(dp2056
g54
(dp2057
g81
g82
ssg63
g2047
sg56
(lp2058
S':'
asbag49
(g70
g51
NtRp2059
(dp2060
g54
(dp2061
sg63
g2047
sg56
(lp2062
g49
(g50
g51
NtRp2063
(dp2064
g54
(dp2065
g62
I4
ssg63
g2059
sg56
(lp2066
g1412
asbasbasbag49
(g65
g51
NtRp2067
(dp2068
g54
(dp2069
sg63
g1856
sg56
(lp2070
g49
(g70
g51
NtRp2071
(dp2072
g54
(dp2073
g74
g75
ssg63
g2067
sg56
(lp2074
g1463
asbag49
(g70
g51
NtRp2075
(dp2076
g54
(dp2077
g81
g82
ssg63
g2067
sg56
(lp2078
S':'
asbag49
(g70
g51
NtRp2079
(dp2080
g54
(dp2081
sg63
g2067
sg56
(lp2082
g49
(g50
g51
NtRp2083
(dp2084
g54
(dp2085
g62
I4
ssg63
g2079
sg56
(lp2086
g49
(g58
g51
NtRp2087
(dp2088
g54
(dp2089
g62
I3
ssg63
Nsg56
(lp2090
g49
(g65
g51
NtRp2091
(dp2092
g54
(dp2093
sg63
g2087
sg56
(lp2094
g49
(g70
g51
NtRp2095
(dp2096
g54
(dp2097
sg63
g2091
sg56
(lp2098
g49
(g50
g51
NtRp2099
(dp2100
g54
(dp2101
g62
I3
ssg63
g2095
sg56
(lp2102
S'1'
asbasbasbag49
(g65
g51
NtRp2103
(dp2104
g54
(dp2105
sg63
g2087
sg56
(lp2106
g49
(g70
g51
NtRp2107
(dp2108
g54
(dp2109
sg63
g2103
sg56
(lp2110
g49
(g50
g51
NtRp2111
(dp2112
g54
(dp2113
g62
I3
ssg63
g2107
sg56
(lp2114
S'99'
p2115
asbasbasbag49
(g65
g51
NtRp2116
(dp2117
g54
(dp2118
sg63
g2087
sg56
(lp2119
g49
(g70
g51
NtRp2120
(dp2121
g54
(dp2122
sg63
g2116
sg56
(lp2123
g49
(g50
g51
NtRp2124
(dp2125
g54
(dp2126
g62
I3
ssg63
g2120
sg56
(lp2127
S'7'
asbasbasbag49
(g65
g51
NtRp2128
(dp2129
g54
(dp2130
sg63
g2087
sg56
(lp2131
g49
(g70
g51
NtRp2132
(dp2133
g54
(dp2134
sg63
g2128
sg56
(lp2135
g49
(g50
g51
NtRp2136
(dp2137
g54
(dp2138
g62
I3
ssg63
g2132
sg56
(lp2139
S'datetime.datetime(2012, 3, 4, 22, 12, 8)'
p2140
asbasbasbag49
(g65
g51
NtRp2141
(dp2142
g54
(dp2143
sg63
g2087
sg56
(lp2144
g49
(g70
g51
NtRp2145
(dp2146
g54
(dp2147
sg63
g2141
sg56
(lp2148
g49
(g50
g51
NtRp2149
(dp2150
g54
(dp2151
g62
I3
ssg63
g2145
sg56
(lp2152
g1542
asbasbasbasbasbasbasbasbasbasbasbag49
(g65
g51
NtRp2153
(dp2154
g54
(dp2155
sg63
g59
sg56
(lp2156
g49
(g70
g51
NtRp2157
(dp2158
g54
(dp2159
g74
g75
ssg63
g2153
sg56
(lp2160
S'is_https'
p2161
asbag49
(g70
g51
NtRp2162
(dp2163
g54
(dp2164
g81
g82
ssg63
g2153
sg56
(lp2165
S':'
asbag49
(g70
g51
NtRp2166
(dp2167
g54
(dp2168
sg63
g2153
sg56
(lp2169
g49
(g50
g51
NtRp2170
(dp2171
g54
(dp2172
g62
I5
ssg63
g2166
sg56
(lp2173
g92
asbasbasbag49
(g65
g51
NtRp2174
(dp2175
g54
(dp2176
sg63
g59
sg56
(lp2177
g49
(g70
g51
NtRp2178
(dp2179
g54
(dp2180
g74
g75
ssg63
g2174
sg56
(lp2181
S'is_local'
p2182
asbag49
(g70
g51
NtRp2183
(dp2184
g54
(dp2185
g81
g82
ssg63
g2174
sg56
(lp2186
S':'
asbag49
(g70
g51
NtRp2187
(dp2188
g54
(dp2189
sg63
g2174
sg56
(lp2190
g49
(g50
g51
NtRp2191
(dp2192
g54
(dp2193
g62
I5
ssg63
g2187
sg56
(lp2194
g1651
asbasbasbag49
(g65
g51
NtRp2195
(dp2196
g54
(dp2197
sg63
g59
sg56
(lp2198
g49
(g70
g51
NtRp2199
(dp2200
g54
(dp2201
g74
g75
ssg63
g2195
sg56
(lp2202
S'is_restful'
p2203
asbag49
(g70
g51
NtRp2204
(dp2205
g54
(dp2206
g81
g82
ssg63
g2195
sg56
(lp2207
S':'
asbag49
(g70
g51
NtRp2208
(dp2209
g54
(dp2210
sg63
g2195
sg56
(lp2211
g49
(g50
g51
NtRp2212
(dp2213
g54
(dp2214
g62
I5
ssg63
g2208
sg56
(lp2215
g92
asbasbasbag49
(g65
g51
NtRp2216
(dp2217
g54
(dp2218
sg63
g59
sg56
(lp2219
g49
(g70
g51
NtRp2220
(dp2221
g54
(dp2222
g74
g75
ssg63
g2216
sg56
(lp2223
S'now'
p2224
asbag49
(g70
g51
NtRp2225
(dp2226
g54
(dp2227
g81
g82
ssg63
g2216
sg56
(lp2228
S':'
asbag49
(g70
g51
NtRp2229
(dp2230
g54
(dp2231
sg63
g2216
sg56
(lp2232
g49
(g50
g51
NtRp2233
(dp2234
g54
(dp2235
g62
I5
ssg63
g2229
sg56
(lp2236
S'datetime.datetime(2012, 3, 8, 21, 6, 32, 794111)'
p2237
asbasbasbag49
(g65
g51
NtRp2238
(dp2239
g54
(dp2240
sg63
g59
sg56
(lp2241
g49
(g70
g51
NtRp2242
(dp2243
g54
(dp2244
g74
g75
ssg63
g2238
sg56
(lp2245
S'post_vars'
p2246
asbag49
(g70
g51
NtRp2247
(dp2248
g54
(dp2249
g81
g82
ssg63
g2238
sg56
(lp2250
S':'
asbag49
(g70
g51
NtRp2251
(dp2252
g54
(dp2253
sg63
g2238
sg56
(lp2254
g49
(g50
g51
NtRp2255
(dp2256
g54
(dp2257
g62
I5
ssg63
g2251
sg56
(lp2258
g49
(g58
g51
NtRp2259
(dp2260
g54
(dp2261
g62
I4
ssg63
Nsg56
(lp2262
sbasbasbasbag49
(g65
g51
NtRp2263
(dp2264
g54
(dp2265
sg63
g59
sg56
(lp2266
g49
(g70
g51
NtRp2267
(dp2268
g54
(dp2269
g74
g75
ssg63
g2263
sg56
(lp2270
S'url'
p2271
asbag49
(g70
g51
NtRp2272
(dp2273
g54
(dp2274
g81
g82
ssg63
g2263
sg56
(lp2275
S':'
asbag49
(g70
g51
NtRp2276
(dp2277
g54
(dp2278
sg63
g2263
sg56
(lp2279
g49
(g50
g51
NtRp2280
(dp2281
g54
(dp2282
g62
I5
ssg63
g2276
sg56
(lp2283
S'/'
asbasbasbag49
(g65
g51
NtRp2284
(dp2285
g54
(dp2286
sg63
g59
sg56
(lp2287
g49
(g70
g51
NtRp2288
(dp2289
g54
(dp2290
g74
g75
ssg63
g2284
sg56
(lp2291
S'utcnow'
p2292
asbag49
(g70
g51
NtRp2293
(dp2294
g54
(dp2295
g81
g82
ssg63
g2284
sg56
(lp2296
S':'
asbag49
(g70
g51
NtRp2297
(dp2298
g54
(dp2299
sg63
g2284
sg56
(lp2300
g49
(g50
g51
NtRp2301
(dp2302
g54
(dp2303
g62
I5
ssg63
g2297
sg56
(lp2304
S'datetime.datetime(2012, 3, 9, 2, 6, 32, 794124)'
p2305
asbasbasbag49
(g65
g51
NtRp2306
(dp2307
g54
(dp2308
sg63
g59
sg56
(lp2309
g49
(g70
g51
NtRp2310
(dp2311
g54
(dp2312
g74
g75
ssg63
g2306
sg56
(lp2313
S'uuid'
p2314
asbag49
(g70
g51
NtRp2315
(dp2316
g54
(dp2317
g81
g82
ssg63
g2306
sg56
(lp2318
S':'
asbag49
(g70
g51
NtRp2319
(dp2320
g54
(dp2321
sg63
g2306
sg56
(lp2322
g49
(g50
g51
NtRp2323
(dp2324
g54
(dp2325
g62
I5
ssg63
g2319
sg56
(lp2326
S'udi0312/127.0.0.1.2012-03-08.21-06-32.a23d083e-d611-4760-bb60-e23b6a25cb6d'
p2327
asbasbasbag49
(g65
g51
NtRp2328
(dp2329
g54
(dp2330
sg63
g59
sg56
(lp2331
g49
(g70
g51
NtRp2332
(dp2333
g54
(dp2334
g74
g75
ssg63
g2328
sg56
(lp2335
S'vars'
p2336
asbag49
(g70
g51
NtRp2337
(dp2338
g54
(dp2339
g81
g82
ssg63
g2328
sg56
(lp2340
S':'
asbag49
(g70
g51
NtRp2341
(dp2342
g54
(dp2343
sg63
g2328
sg56
(lp2344
g49
(g50
g51
NtRp2345
(dp2346
g54
(dp2347
g62
I5
ssg63
g2341
sg56
(lp2348
g49
(g58
g51
NtRp2349
(dp2350
g54
(dp2351
g62
I4
ssg63
Nsg56
(lp2352
sbasbasbasbag49
(g65
g51
NtRp2353
(dp2354
g54
(dp2355
sg63
g59
sg56
(lp2356
g49
(g70
g51
NtRp2357
(dp2358
g54
(dp2359
g74
g75
ssg63
g2353
sg56
(lp2360
S'wsgi'
p2361
asbag49
(g70
g51
NtRp2362
(dp2363
g54
(dp2364
g81
g82
ssg63
g2353
sg56
(lp2365
S':'
asbag49
(g70
g51
NtRp2366
(dp2367
g54
(dp2368
sg63
g2353
sg56
(lp2369
g49
(g50
g51
NtRp2370
(dp2371
g54
(dp2372
g62
I5
ssg63
g2366
sg56
(lp2373
g49
(g58
g51
NtRp2374
(dp2375
g54
(dp2376
g62
I4
ssg63
Nsg56
(lp2377
g49
(g65
g51
NtRp2378
(dp2379
g54
(dp2380
sg63
g2374
sg56
(lp2381
g49
(g70
g51
NtRp2382
(dp2383
g54
(dp2384
g74
g75
ssg63
g2378
sg56
(lp2385
S'environ'
p2386
asbag49
(g70
g51
NtRp2387
(dp2388
g54
(dp2389
g81
g82
ssg63
g2378
sg56
(lp2390
S':'
asbag49
(g70
g51
NtRp2391
(dp2392
g54
(dp2393
sg63
g2378
sg56
(lp2394
g49
(g50
g51
NtRp2395
(dp2396
g54
(dp2397
g62
I4
ssg63
g2391
sg56
(lp2398
g49
(g58
g51
NtRp2399
(dp2400
g54
(dp2401
g62
I3
ssg63
Nsg56
(lp2402
g49
(g65
g51
NtRp2403
(dp2404
g54
(dp2405
sg63
g2399
sg56
(lp2406
g49
(g70
g51
NtRp2407
(dp2408
g54
(dp2409
g74
g75
ssg63
g2403
sg56
(lp2410
S'HTTP_ACCEPT'
p2411
asbag49
(g70
g51
NtRp2412
(dp2413
g54
(dp2414
g81
g82
ssg63
g2403
sg56
(lp2415
S':'
asbag49
(g70
g51
NtRp2416
(dp2417
g54
(dp2418
sg63
g2403
sg56
(lp2419
g49
(g50
g51
NtRp2420
(dp2421
g54
(dp2422
g62
I3
ssg63
g2416
sg56
(lp2423
g934
asbasbasbag49
(g65
g51
NtRp2424
(dp2425
g54
(dp2426
sg63
g2399
sg56
(lp2427
g49
(g70
g51
NtRp2428
(dp2429
g54
(dp2430
g74
g75
ssg63
g2424
sg56
(lp2431
S'HTTP_ACCEPT_CHARSET'
p2432
asbag49
(g70
g51
NtRp2433
(dp2434
g54
(dp2435
g81
g82
ssg63
g2424
sg56
(lp2436
S':'
asbag49
(g70
g51
NtRp2437
(dp2438
g54
(dp2439
sg63
g2424
sg56
(lp2440
g49
(g50
g51
NtRp2441
(dp2442
g54
(dp2443
g62
I3
ssg63
g2437
sg56
(lp2444
g956
asbasbasbag49
(g65
g51
NtRp2445
(dp2446
g54
(dp2447
sg63
g2399
sg56
(lp2448
g49
(g70
g51
NtRp2449
(dp2450
g54
(dp2451
g74
g75
ssg63
g2445
sg56
(lp2452
S'HTTP_ACCEPT_ENCODING'
p2453
asbag49
(g70
g51
NtRp2454
(dp2455
g54
(dp2456
g81
g82
ssg63
g2445
sg56
(lp2457
S':'
asbag49
(g70
g51
NtRp2458
(dp2459
g54
(dp2460
sg63
g2445
sg56
(lp2461
g49
(g50
g51
NtRp2462
(dp2463
g54
(dp2464
g62
I3
ssg63
g2458
sg56
(lp2465
g978
asbasbasbag49
(g65
g51
NtRp2466
(dp2467
g54
(dp2468
sg63
g2399
sg56
(lp2469
g49
(g70
g51
NtRp2470
(dp2471
g54
(dp2472
g74
g75
ssg63
g2466
sg56
(lp2473
S'HTTP_ACCEPT_LANGUAGE'
p2474
asbag49
(g70
g51
NtRp2475
(dp2476
g54
(dp2477
g81
g82
ssg63
g2466
sg56
(lp2478
S':'
asbag49
(g70
g51
NtRp2479
(dp2480
g54
(dp2481
sg63
g2466
sg56
(lp2482
g49
(g50
g51
NtRp2483
(dp2484
g54
(dp2485
g62
I3
ssg63
g2479
sg56
(lp2486
g1000
asbasbasbag49
(g65
g51
NtRp2487
(dp2488
g54
(dp2489
sg63
g2399
sg56
(lp2490
g49
(g70
g51
NtRp2491
(dp2492
g54
(dp2493
g74
g75
ssg63
g2487
sg56
(lp2494
S'HTTP_CACHE_CONTROL'
p2495
asbag49
(g70
g51
NtRp2496
(dp2497
g54
(dp2498
g81
g82
ssg63
g2487
sg56
(lp2499
S':'
asbag49
(g70
g51
NtRp2500
(dp2501
g54
(dp2502
sg63
g2487
sg56
(lp2503
g49
(g50
g51
NtRp2504
(dp2505
g54
(dp2506
g62
I3
ssg63
g2500
sg56
(lp2507
g1022
asbasbasbag49
(g65
g51
NtRp2508
(dp2509
g54
(dp2510
sg63
g2399
sg56
(lp2511
g49
(g70
g51
NtRp2512
(dp2513
g54
(dp2514
g74
g75
ssg63
g2508
sg56
(lp2515
S'HTTP_CONNECTION'
p2516
asbag49
(g70
g51
NtRp2517
(dp2518
g54
(dp2519
g81
g82
ssg63
g2508
sg56
(lp2520
S':'
asbag49
(g70
g51
NtRp2521
(dp2522
g54
(dp2523
sg63
g2508
sg56
(lp2524
g49
(g50
g51
NtRp2525
(dp2526
g54
(dp2527
g62
I3
ssg63
g2521
sg56
(lp2528
g1044
asbasbasbag49
(g65
g51
NtRp2529
(dp2530
g54
(dp2531
sg63
g2399
sg56
(lp2532
g49
(g70
g51
NtRp2533
(dp2534
g54
(dp2535
g74
g75
ssg63
g2529
sg56
(lp2536
S'HTTP_COOKIE'
p2537
asbag49
(g70
g51
NtRp2538
(dp2539
g54
(dp2540
g81
g82
ssg63
g2529
sg56
(lp2541
S':'
asbag49
(g70
g51
NtRp2542
(dp2543
g54
(dp2544
sg63
g2529
sg56
(lp2545
g49
(g50
g51
NtRp2546
(dp2547
g54
(dp2548
g62
I3
ssg63
g2542
sg56
(lp2549
g1066
asbasbasbag49
(g65
g51
NtRp2550
(dp2551
g54
(dp2552
sg63
g2399
sg56
(lp2553
g49
(g70
g51
NtRp2554
(dp2555
g54
(dp2556
g74
g75
ssg63
g2550
sg56
(lp2557
S'HTTP_HOST'
p2558
asbag49
(g70
g51
NtRp2559
(dp2560
g54
(dp2561
g81
g82
ssg63
g2550
sg56
(lp2562
S':'
asbag49
(g70
g51
NtRp2563
(dp2564
g54
(dp2565
sg63
g2550
sg56
(lp2566
g49
(g50
g51
NtRp2567
(dp2568
g54
(dp2569
g62
I3
ssg63
g2563
sg56
(lp2570
g1088
asbasbasbag49
(g65
g51
NtRp2571
(dp2572
g54
(dp2573
sg63
g2399
sg56
(lp2574
g49
(g70
g51
NtRp2575
(dp2576
g54
(dp2577
g74
g75
ssg63
g2571
sg56
(lp2578
S'HTTP_USER_AGENT'
p2579
asbag49
(g70
g51
NtRp2580
(dp2581
g54
(dp2582
g81
g82
ssg63
g2571
sg56
(lp2583
S':'
asbag49
(g70
g51
NtRp2584
(dp2585
g54
(dp2586
sg63
g2571
sg56
(lp2587
g49
(g50
g51
NtRp2588
(dp2589
g54
(dp2590
g62
I3
ssg63
g2584
sg56
(lp2591
g1110
asbasbasbag49
(g65
g51
NtRp2592
(dp2593
g54
(dp2594
sg63
g2399
sg56
(lp2595
g49
(g70
g51
NtRp2596
(dp2597
g54
(dp2598
g74
g75
ssg63
g2592
sg56
(lp2599
S'PATH_INFO'
p2600
asbag49
(g70
g51
NtRp2601
(dp2602
g54
(dp2603
g81
g82
ssg63
g2592
sg56
(lp2604
S':'
asbag49
(g70
g51
NtRp2605
(dp2606
g54
(dp2607
sg63
g2592
sg56
(lp2608
g49
(g50
g51
NtRp2609
(dp2610
g54
(dp2611
g62
I3
ssg63
g2605
sg56
(lp2612
S'/'
asbasbasbag49
(g65
g51
NtRp2613
(dp2614
g54
(dp2615
sg63
g2399
sg56
(lp2616
g49
(g70
g51
NtRp2617
(dp2618
g54
(dp2619
g74
g75
ssg63
g2613
sg56
(lp2620
S'QUERY_STRING'
p2621
asbag49
(g70
g51
NtRp2622
(dp2623
g54
(dp2624
g81
g82
ssg63
g2613
sg56
(lp2625
S':'
asbag49
(g70
g51
NtRp2626
(dp2627
g54
(dp2628
sg63
g2613
sg56
(lp2629
g49
(g50
g51
NtRp2630
(dp2631
g54
(dp2632
g62
I3
ssg63
g2626
sg56
(lp2633
S''
asbasbasbag49
(g65
g51
NtRp2634
(dp2635
g54
(dp2636
sg63
g2399
sg56
(lp2637
g49
(g70
g51
NtRp2638
(dp2639
g54
(dp2640
g74
g75
ssg63
g2634
sg56
(lp2641
S'REMOTE_ADDR'
p2642
asbag49
(g70
g51
NtRp2643
(dp2644
g54
(dp2645
g81
g82
ssg63
g2634
sg56
(lp2646
S':'
asbag49
(g70
g51
NtRp2647
(dp2648
g54
(dp2649
sg63
g2634
sg56
(lp2650
g49
(g50
g51
NtRp2651
(dp2652
g54
(dp2653
g62
I3
ssg63
g2647
sg56
(lp2654
g182
asbasbasbag49
(g65
g51
NtRp2655
(dp2656
g54
(dp2657
sg63
g2399
sg56
(lp2658
g49
(g70
g51
NtRp2659
(dp2660
g54
(dp2661
g74
g75
ssg63
g2655
sg56
(lp2662
S'REMOTE_PORT'
p2663
asbag49
(g70
g51
NtRp2664
(dp2665
g54
(dp2666
g81
g82
ssg63
g2655
sg56
(lp2667
S':'
asbag49
(g70
g51
NtRp2668
(dp2669
g54
(dp2670
sg63
g2655
sg56
(lp2671
g49
(g50
g51
NtRp2672
(dp2673
g54
(dp2674
g62
I3
ssg63
g2668
sg56
(lp2675
g1237
asbasbasbag49
(g65
g51
NtRp2676
(dp2677
g54
(dp2678
sg63
g2399
sg56
(lp2679
g49
(g70
g51
NtRp2680
(dp2681
g54
(dp2682
g74
g75
ssg63
g2676
sg56
(lp2683
S'REQUEST_METHOD'
p2684
asbag49
(g70
g51
NtRp2685
(dp2686
g54
(dp2687
g81
g82
ssg63
g2676
sg56
(lp2688
S':'
asbag49
(g70
g51
NtRp2689
(dp2690
g54
(dp2691
sg63
g2676
sg56
(lp2692
g49
(g50
g51
NtRp2693
(dp2694
g54
(dp2695
g62
I3
ssg63
g2689
sg56
(lp2696
g1259
asbasbasbag49
(g65
g51
NtRp2697
(dp2698
g54
(dp2699
sg63
g2399
sg56
(lp2700
g49
(g70
g51
NtRp2701
(dp2702
g54
(dp2703
g74
g75
ssg63
g2697
sg56
(lp2704
S'REQUEST_URI'
p2705
asbag49
(g70
g51
NtRp2706
(dp2707
g54
(dp2708
g81
g82
ssg63
g2697
sg56
(lp2709
S':'
asbag49
(g70
g51
NtRp2710
(dp2711
g54
(dp2712
sg63
g2697
sg56
(lp2713
g49
(g50
g51
NtRp2714
(dp2715
g54
(dp2716
g62
I3
ssg63
g2710
sg56
(lp2717
g1281
asbasbasbag49
(g65
g51
NtRp2718
(dp2719
g54
(dp2720
sg63
g2399
sg56
(lp2721
g49
(g70
g51
NtRp2722
(dp2723
g54
(dp2724
g74
g75
ssg63
g2718
sg56
(lp2725
S'SCRIPT_NAME'
p2726
asbag49
(g70
g51
NtRp2727
(dp2728
g54
(dp2729
g81
g82
ssg63
g2718
sg56
(lp2730
S':'
asbag49
(g70
g51
NtRp2731
(dp2732
g54
(dp2733
sg63
g2718
sg56
(lp2734
g49
(g50
g51
NtRp2735
(dp2736
g54
(dp2737
g62
I3
ssg63
g2731
sg56
(lp2738
S''
asbasbasbag49
(g65
g51
NtRp2739
(dp2740
g54
(dp2741
sg63
g2399
sg56
(lp2742
g49
(g70
g51
NtRp2743
(dp2744
g54
(dp2745
g74
g75
ssg63
g2739
sg56
(lp2746
S'SERVER_NAME'
p2747
asbag49
(g70
g51
NtRp2748
(dp2749
g54
(dp2750
g81
g82
ssg63
g2739
sg56
(lp2751
S':'
asbag49
(g70
g51
NtRp2752
(dp2753
g54
(dp2754
sg63
g2739
sg56
(lp2755
g49
(g50
g51
NtRp2756
(dp2757
g54
(dp2758
g62
I3
ssg63
g2752
sg56
(lp2759
g1324
asbasbasbag49
(g65
g51
NtRp2760
(dp2761
g54
(dp2762
sg63
g2399
sg56
(lp2763
g49
(g70
g51
NtRp2764
(dp2765
g54
(dp2766
g74
g75
ssg63
g2760
sg56
(lp2767
S'SERVER_PORT'
p2768
asbag49
(g70
g51
NtRp2769
(dp2770
g54
(dp2771
g81
g82
ssg63
g2760
sg56
(lp2772
S':'
asbag49
(g70
g51
NtRp2773
(dp2774
g54
(dp2775
sg63
g2760
sg56
(lp2776
g49
(g50
g51
NtRp2777
(dp2778
g54
(dp2779
g62
I3
ssg63
g2773
sg56
(lp2780
g1346
asbasbasbag49
(g65
g51
NtRp2781
(dp2782
g54
(dp2783
sg63
g2399
sg56
(lp2784
g49
(g70
g51
NtRp2785
(dp2786
g54
(dp2787
g74
g75
ssg63
g2781
sg56
(lp2788
S'SERVER_PROTOCOL'
p2789
asbag49
(g70
g51
NtRp2790
(dp2791
g54
(dp2792
g81
g82
ssg63
g2781
sg56
(lp2793
S':'
asbag49
(g70
g51
NtRp2794
(dp2795
g54
(dp2796
sg63
g2781
sg56
(lp2797
g49
(g50
g51
NtRp2798
(dp2799
g54
(dp2800
g62
I3
ssg63
g2794
sg56
(lp2801
g1368
asbasbasbag49
(g65
g51
NtRp2802
(dp2803
g54
(dp2804
sg63
g2399
sg56
(lp2805
g49
(g70
g51
NtRp2806
(dp2807
g54
(dp2808
g74
g75
ssg63
g2802
sg56
(lp2809
S'SERVER_SOFTWARE'
p2810
asbag49
(g70
g51
NtRp2811
(dp2812
g54
(dp2813
g81
g82
ssg63
g2802
sg56
(lp2814
S':'
asbag49
(g70
g51
NtRp2815
(dp2816
g54
(dp2817
sg63
g2802
sg56
(lp2818
g49
(g50
g51
NtRp2819
(dp2820
g54
(dp2821
g62
I3
ssg63
g2815
sg56
(lp2822
g1390
asbasbasbag49
(g65
g51
NtRp2823
(dp2824
g54
(dp2825
sg63
g2399
sg56
(lp2826
g49
(g70
g51
NtRp2827
(dp2828
g54
(dp2829
g74
g75
ssg63
g2823
sg56
(lp2830
S'WEB2PY_ORIGINAL_URI'
p2831
asbag49
(g70
g51
NtRp2832
(dp2833
g54
(dp2834
g81
g82
ssg63
g2823
sg56
(lp2835
S':'
asbag49
(g70
g51
NtRp2836
(dp2837
g54
(dp2838
sg63
g2823
sg56
(lp2839
g49
(g50
g51
NtRp2840
(dp2841
g54
(dp2842
g62
I3
ssg63
g2836
sg56
(lp2843
S'/'
asbasbasbag49
(g65
g51
NtRp2844
(dp2845
g54
(dp2846
sg63
g2399
sg56
(lp2847
g49
(g70
g51
NtRp2848
(dp2849
g54
(dp2850
g74
g75
ssg63
g2844
sg56
(lp2851
S'wsgi.errors'
p2852
asbag49
(g70
g51
NtRp2853
(dp2854
g54
(dp2855
g81
g82
ssg63
g2844
sg56
(lp2856
S':'
asbag49
(g70
g51
NtRp2857
(dp2858
g54
(dp2859
sg63
g2844
sg56
(lp2860
g49
(g50
g51
NtRp2861
(dp2862
g54
(dp2863
g62
I3
ssg63
g2857
sg56
(lp2864
S"<open file '<stderr>', mode 'w' at 0x4220b0>"
p2865
asbasbasbag49
(g65
g51
NtRp2866
(dp2867
g54
(dp2868
sg63
g2399
sg56
(lp2869
g49
(g70
g51
NtRp2870
(dp2871
g54
(dp2872
g74
g75
ssg63
g2866
sg56
(lp2873
S'wsgi.file_wrapper'
p2874
asbag49
(g70
g51
NtRp2875
(dp2876
g54
(dp2877
g81
g82
ssg63
g2866
sg56
(lp2878
S':'
asbag49
(g70
g51
NtRp2879
(dp2880
g54
(dp2881
sg63
g2866
sg56
(lp2882
g49
(g50
g51
NtRp2883
(dp2884
g54
(dp2885
g62
I3
ssg63
g2879
sg56
(lp2886
S'<class wsgiref.util.FileWrapper at 0x2b60450>'
p2887
asbasbasbag49
(g65
g51
NtRp2888
(dp2889
g54
(dp2890
sg63
g2399
sg56
(lp2891
g49
(g70
g51
NtRp2892
(dp2893
g54
(dp2894
g74
g75
ssg63
g2888
sg56
(lp2895
S'wsgi.input'
p2896
asbag49
(g70
g51
NtRp2897
(dp2898
g54
(dp2899
g81
g82
ssg63
g2888
sg56
(lp2900
S':'
asbag49
(g70
g51
NtRp2901
(dp2902
g54
(dp2903
sg63
g2888
sg56
(lp2904
g49
(g50
g51
NtRp2905
(dp2906
g54
(dp2907
g62
I3
ssg63
g2901
sg56
(lp2908
S'<cStringIO.StringO object at 0xa4a0800>'
p2909
asbasbasbag49
(g65
g51
NtRp2910
(dp2911
g54
(dp2912
sg63
g2399
sg56
(lp2913
g49
(g70
g51
NtRp2914
(dp2915
g54
(dp2916
g74
g75
ssg63
g2910
sg56
(lp2917
S'wsgi.multiprocess'
p2918
asbag49
(g70
g51
NtRp2919
(dp2920
g54
(dp2921
g81
g82
ssg63
g2910
sg56
(lp2922
S':'
asbag49
(g70
g51
NtRp2923
(dp2924
g54
(dp2925
sg63
g2910
sg56
(lp2926
g49
(g50
g51
NtRp2927
(dp2928
g54
(dp2929
g62
I3
ssg63
g2923
sg56
(lp2930
g92
asbasbasbag49
(g65
g51
NtRp2931
(dp2932
g54
(dp2933
sg63
g2399
sg56
(lp2934
g49
(g70
g51
NtRp2935
(dp2936
g54
(dp2937
g74
g75
ssg63
g2931
sg56
(lp2938
S'wsgi.multithread'
p2939
asbag49
(g70
g51
NtRp2940
(dp2941
g54
(dp2942
g81
g82
ssg63
g2931
sg56
(lp2943
S':'
asbag49
(g70
g51
NtRp2944
(dp2945
g54
(dp2946
sg63
g2931
sg56
(lp2947
g49
(g50
g51
NtRp2948
(dp2949
g54
(dp2950
g62
I3
ssg63
g2944
sg56
(lp2951
g1651
asbasbasbag49
(g65
g51
NtRp2952
(dp2953
g54
(dp2954
sg63
g2399
sg56
(lp2955
g49
(g70
g51
NtRp2956
(dp2957
g54
(dp2958
g74
g75
ssg63
g2952
sg56
(lp2959
S'wsgi.run_once'
p2960
asbag49
(g70
g51
NtRp2961
(dp2962
g54
(dp2963
g81
g82
ssg63
g2952
sg56
(lp2964
S':'
asbag49
(g70
g51
NtRp2965
(dp2966
g54
(dp2967
sg63
g2952
sg56
(lp2968
g49
(g50
g51
NtRp2969
(dp2970
g54
(dp2971
g62
I3
ssg63
g2965
sg56
(lp2972
g92
asbasbasbag49
(g65
g51
NtRp2973
(dp2974
g54
(dp2975
sg63
g2399
sg56
(lp2976
g49
(g70
g51
NtRp2977
(dp2978
g54
(dp2979
g74
g75
ssg63
g2973
sg56
(lp2980
S'wsgi.url_scheme'
p2981
asbag49
(g70
g51
NtRp2982
(dp2983
g54
(dp2984
g81
g82
ssg63
g2973
sg56
(lp2985
S':'
asbag49
(g70
g51
NtRp2986
(dp2987
g54
(dp2988
sg63
g2973
sg56
(lp2989
g49
(g50
g51
NtRp2990
(dp2991
g54
(dp2992
g62
I3
ssg63
g2986
sg56
(lp2993
g1694
asbasbasbag49
(g65
g51
NtRp2994
(dp2995
g54
(dp2996
sg63
g2399
sg56
(lp2997
g49
(g70
g51
NtRp2998
(dp2999
g54
(dp3000
g74
g75
ssg63
g2994
sg56
(lp3001
S'wsgi.version'
p3002
asbag49
(g70
g51
NtRp3003
(dp3004
g54
(dp3005
g81
g82
ssg63
g2994
sg56
(lp3006
S':'
asbag49
(g70
g51
NtRp3007
(dp3008
g54
(dp3009
sg63
g2994
sg56
(lp3010
g49
(g50
g51
NtRp3011
(dp3012
g54
(dp3013
g62
I3
ssg63
g3007
sg56
(lp3014
S'1'
asbasbasbasbasbasbasbasbasbasbasbasbasbsS'frames'
p3015
(lp3016
(dp3017
S'file'
p3018
S'/users/udimilo/Documents/web2py/gluon/restricted.py'
p3019
sS'dump'
p3020
(dp3021
S'environment'
p3022
S"{'A': <class 'gluon.html.A'>, 'Auth': <class 'gluon.tools.Auth'>, 'B': <class 'gluon.html.B'>, 'BEAUTIFY': <class 'gluon.html.BEAUTIFY'>, 'BODY': <class 'gluon.html.BODY'>, 'BR': <class 'gluon.html.BR'>, 'BUTTON': <class 'gluon.html.BUTTON'>, 'CAT': <class 'gluon.html.CAT'>, 'CENTER': <class 'gluon.html.CENTER'>, 'CLEANUP': <class 'gluon.validators.CLEANUP'>, ...}"
p3023
sS'ccode'
p3024
S'<code object <module> at 0x9d4d3c8, file "/Users...ations/udi0312/views/default/index.html", line 1>'
p3025
ssS'lnum'
p3026
I205
sS'lines'
p3027
(dp3028
I200
S'    try:'
p3029
sI201
S'        if type(code) == types.CodeType:'
p3030
sI202
S'            ccode = code'
p3031
sI203
S'        else:'
p3032
sI204
S'            ccode = compile2(code,layer)'
p3033
sI205
S'        exec ccode in environment'
p3034
sI206
S'    except HTTP:'
p3035
sI207
S'        raise'
p3036
sI208
S'    except RestrictedError:'
p3037
sI209
S'        # do not encapsulate (obfuscate) the original RestrictedError'
p3038
ssS'call'
p3039
S'(code=\'response.write(\\\'<html lan="en">\\\\n<head>\\\\n    <ti...js"></script>\\\\n</body>\\\\n</html>\\\\n\\\', escape=False)\', environment={\'A\': <class \'gluon.html.A\'>, \'Auth\': <class \'gluon.tools.Auth\'>, \'B\': <class \'gluon.html.B\'>, \'BEAUTIFY\': <class \'gluon.html.BEAUTIFY\'>, \'BODY\': <class \'gluon.html.BODY\'>, \'BR\': <class \'gluon.html.BR\'>, \'BUTTON\': <class \'gluon.html.BUTTON\'>, \'CAT\': <class \'gluon.html.CAT\'>, \'CENTER\': <class \'gluon.html.CENTER\'>, \'CLEANUP\': <class \'gluon.validators.CLEANUP\'>, ...}, layer=\'/Users/udimilo/Documents/web2py/applications/udi0312/views/default/index.html\')'
p3040
sS'func'
p3041
S'restricted'
p3042
sa(dp3043
g3018
S'/Users/udimilo/Documents/web2py/applications/udi0312/views/default/index.html'
p3044
sg3020
(dp3045
S'li'
p3046
S'undefined'
p3047
ssg3026
I10
sg3027
(dp3048
I1
S'response.write(\'<html lan="en">\\n<head>\\n    <title>Biz</title>\\n    <script type="text/javascript" src="http://ajax.googleapis.com/ajax/libs/jquery/1.7.1/jquery.min.js"></script>\\n    <script type="text/javascript" src="/udi0312/static/js/jquery.wookmark.js"></script>\\n    <script type="text/javascript" src="/udi0312/static/js/web2py.js"></script>\\n    <link href=\\\'http://fonts.googleapis.com/css?family=PT+Sans\\\' rel=\\\'stylesheet\\\' type=\\\'text/css\\\'>\\n    <link href=\\\'/udi0312/static/css/site.css\\\' rel=\\\'stylesheet\\\' type=\\\'text/css\\\'>\\n</head>\\n<body>\\n    <div id="header">\\n        <div id="search">\\n            <input type="text" id="query" size="27" value="Search">\\n            <a id="query_button" href="#" class="lg"><img src="http://passets-cdn.pinterest.com/images/search.gif" alt=""></a>\\n        </div>\\n        <a id="logo" href="/"><img src="http://press.linkedin.com/sites/all/themes/presslinkedin/images/LinkedIn_IN_Icon_25px.png"/><span>formation</span></a>\\n        <ul id="navigation">\\n            <li>\', escape=False)'
p3049
sI2
S"response.write('auth' in globals() and auth.navbar(separators=(' ',' | ','')))"
p3050
sI3
S'response.write(\'</li>\\n        </ul>\\n    </div>\\n    <div id="showItem">\\n        <div id="itemHeader" class="clearfix">\\n            <div id="itemCreator">\\n                <div id="showItemClose"></div>\\n                <img src="http://profile.ak.fbcdn.net/hprofile-ak-snc4/373721_202953045644_22849796_q.jpg" />\\n                <div id="creatorName">Neytiri</div>\\n                <div id="creatorStats">Pinned 1 hour ago from TechCrunch.com</div>\\n            </div>\\n        </div>\\n        <div id="showItemContent" class="clearfix"></div>\\n    </div>\\n\', escape=False)'
p3051
sI4
S"response.write('\\n', escape=False)"
p3052
sI5
S'response.write(\'\\n<div id="addBar">\\n    <div class="picker">\\n        <a href="#">switch page and board</a>\\n    </div>\\n    <div class="add" id="addPage">\\n        <form onsubmit="ajax(\\\'\', escape=False)'
p3053
sI6
S"response.write(URL('addPage'))"
p3054
sI7
S'response.write(\'\\\', [\\\'url\\\',\\\'board\\\'], \\\'addBarMsg\\\');return false;">\\n            <ul>\\n                <li><span>URL</span><input name="url" /></li>\\n                <li>\\n                    <select name="board">\\n                    \', escape=False)'
p3055
sI8
S'for board in boards:'
p3056
sI9
S"    response.write('\\n                        <option>', escape=False)"
p3057
sI10
S'    response.write(board.name)'
p3058
sI11
S"    response.write('</option>\\n                    ', escape=False)"
p3059
sI12
S'    pass'
p3060
sI13
S'response.write(\'                \\n                    </select>        \\n                </li>\\n                <li><input type="submit" /></li>\\n            </ul>\\n        </form>\\n    </div>\\n    <div class="add" id="addBoard" style="display:none;">\\n        <form onsubmit="ajax(\\\'\', escape=False)'
p3061
sI14
S"response.write(URL('addBoard'))"
p3062
sI15
S'response.write(\'\\\', [\\\'boardName\\\',\\\'category\\\'], \\\'addBarMsg\\\');return false;">\\n            <ul>\\n                <li><span>Board</span><input name="boardName" /></li>\\n                <li>\\n                    <select name="category">\\n                    \', escape=False)'
p3063
sI16
S'for cat in categories:'
p3064
sI17
S"    response.write('\\n                        <option>', escape=False)"
p3065
sI18
S'    response.write(cat.name)'
p3066
sI19
S"    response.write('</option>\\n                    ', escape=False)"
p3067
sI20
S'    pass'
p3068
ssg3039
S'()'
p3069
sg3041
S'<module>'
p3070
sasS'pyver'
p3071
S'Python 2.5.4: /Library/Frameworks/Python.framework/Versions/2.5/Resources/Python.app/Contents/MacOS/Python'
p3072
sS'session'
p3073
g49
(g50
g51
NtRp3074
(dp3075
g54
(dp3076
sg56
(lp3077
g49
(g58
g51
NtRp3078
(dp3079
g54
(dp3080
g62
I5
ssg63
Nsg56
(lp3081
g49
(g65
g51
NtRp3082
(dp3083
g54
(dp3084
sg63
g3078
sg56
(lp3085
g49
(g70
g51
NtRp3086
(dp3087
g54
(dp3088
g74
g75
ssg63
g3082
sg56
(lp3089
S'last_query'
p3090
asbag49
(g70
g51
NtRp3091
(dp3092
g54
(dp3093
g81
g82
ssg63
g3082
sg56
(lp3094
S':'
asbag49
(g70
g51
NtRp3095
(dp3096
g54
(dp3097
sg63
g3082
sg56
(lp3098
g49
(g50
g51
NtRp3099
(dp3100
g54
(dp3101
g62
I5
ssg63
g3095
sg56
(lp3102
S'db.board.id>0'
p3103
asbasbasbasbasbsS'etype'
p3104
S"<type 'exceptions.AttributeError'>"
p3105
sS'date'
p3106
S'Thu Mar  8 21:06:32 2012'
p3107
sS'response'
p3108
g49
(g50
g51
NtRp3109
(dp3110
g54
(dp3111
sg56
(lp3112
g49
(g58
g51
NtRp3113
(dp3114
g54
(dp3115
g62
I5
ssg63
Nsg56
(lp3116
g49
(g65
g51
NtRp3117
(dp3118
g54
(dp3119
sg63
g3113
sg56
(lp3120
g49
(g70
g51
NtRp3121
(dp3122
g54
(dp3123
g74
g75
ssg63
g3117
sg56
(lp3124
g147
asbag49
(g70
g51
NtRp3125
(dp3126
g54
(dp3127
g81
g82
ssg63
g3117
sg56
(lp3128
S':'
asbag49
(g70
g51
NtRp3129
(dp3130
g54
(dp3131
sg63
g3117
sg56
(lp3132
g49
(g50
g51
NtRp3133
(dp3134
g54
(dp3135
g62
I5
ssg63
g3129
sg56
(lp3136
S'<cStringIO.StringO object at 0xa4a0c80>'
p3137
asbasbasbag49
(g65
g51
NtRp3138
(dp3139
g54
(dp3140
sg63
g3113
sg56
(lp3141
g49
(g70
g51
NtRp3142
(dp3143
g54
(dp3144
g74
g75
ssg63
g3138
sg56
(lp3145
g213
asbag49
(g70
g51
NtRp3146
(dp3147
g54
(dp3148
g81
g82
ssg63
g3138
sg56
(lp3149
S':'
asbag49
(g70
g51
NtRp3150
(dp3151
g54
(dp3152
sg63
g3138
sg56
(lp3153
g49
(g50
g51
NtRp3154
(dp3155
g54
(dp3156
g62
I5
ssg63
g3150
sg56
(lp3157
g49
(g58
g51
NtRp3158
(dp3159
g54
(dp3160
g62
I4
ssg63
Nsg56
(lp3161
g49
(g65
g51
NtRp3162
(dp3163
g54
(dp3164
sg63
g3158
sg56
(lp3165
g49
(g70
g51
NtRp3166
(dp3167
g54
(dp3168
g74
g75
ssg63
g3162
sg56
(lp3169
S'session_id_udi0312'
p3170
asbag49
(g70
g51
NtRp3171
(dp3172
g54
(dp3173
g81
g82
ssg63
g3162
sg56
(lp3174
S':'
asbag49
(g70
g51
NtRp3175
(dp3176
g54
(dp3177
sg63
g3162
sg56
(lp3178
g49
(g50
g51
NtRp3179
(dp3180
g54
(dp3181
g62
I4
ssg63
g3175
sg56
(lp3182
g49
(g58
g51
NtRp3183
(dp3184
g54
(dp3185
g62
I3
ssg63
Nsg56
(lp3186
g49
(g65
g51
NtRp3187
(dp3188
g54
(dp3189
sg63
g3183
sg56
(lp3190
g49
(g70
g51
NtRp3191
(dp3192
g54
(dp3193
g74
g75
ssg63
g3187
sg56
(lp3194
g263
asbag49
(g70
g51
NtRp3195
(dp3196
g54
(dp3197
g81
g82
ssg63
g3187
sg56
(lp3198
S':'
asbag49
(g70
g51
NtRp3199
(dp3200
g54
(dp3201
sg63
g3187
sg56
(lp3202
g49
(g50
g51
NtRp3203
(dp3204
g54
(dp3205
g62
I3
ssg63
g3199
sg56
(lp3206
S''
asbasbasbag49
(g65
g51
NtRp3207
(dp3208
g54
(dp3209
sg63
g3183
sg56
(lp3210
g49
(g70
g51
NtRp3211
(dp3212
g54
(dp3213
g74
g75
ssg63
g3207
sg56
(lp3214
g284
asbag49
(g70
g51
NtRp3215
(dp3216
g54
(dp3217
g81
g82
ssg63
g3207
sg56
(lp3218
S':'
asbag49
(g70
g51
NtRp3219
(dp3220
g54
(dp3221
sg63
g3207
sg56
(lp3222
g49
(g50
g51
NtRp3223
(dp3224
g54
(dp3225
g62
I3
ssg63
g3219
sg56
(lp3226
S''
asbasbasbag49
(g65
g51
NtRp3227
(dp3228
g54
(dp3229
sg63
g3183
sg56
(lp3230
g49
(g70
g51
NtRp3231
(dp3232
g54
(dp3233
g74
g75
ssg63
g3227
sg56
(lp3234
g305
asbag49
(g70
g51
NtRp3235
(dp3236
g54
(dp3237
g81
g82
ssg63
g3227
sg56
(lp3238
S':'
asbag49
(g70
g51
NtRp3239
(dp3240
g54
(dp3241
sg63
g3227
sg56
(lp3242
g49
(g50
g51
NtRp3243
(dp3244
g54
(dp3245
g62
I3
ssg63
g3239
sg56
(lp3246
S''
asbasbasbag49
(g65
g51
NtRp3247
(dp3248
g54
(dp3249
sg63
g3183
sg56
(lp3250
g49
(g70
g51
NtRp3251
(dp3252
g54
(dp3253
g74
g75
ssg63
g3247
sg56
(lp3254
g326
asbag49
(g70
g51
NtRp3255
(dp3256
g54
(dp3257
g81
g82
ssg63
g3247
sg56
(lp3258
S':'
asbag49
(g70
g51
NtRp3259
(dp3260
g54
(dp3261
sg63
g3247
sg56
(lp3262
g49
(g50
g51
NtRp3263
(dp3264
g54
(dp3265
g62
I3
ssg63
g3259
sg56
(lp3266
S''
asbasbasbag49
(g65
g51
NtRp3267
(dp3268
g54
(dp3269
sg63
g3183
sg56
(lp3270
g49
(g70
g51
NtRp3271
(dp3272
g54
(dp3273
g74
g75
ssg63
g3267
sg56
(lp3274
g347
asbag49
(g70
g51
NtRp3275
(dp3276
g54
(dp3277
g81
g82
ssg63
g3267
sg56
(lp3278
S':'
asbag49
(g70
g51
NtRp3279
(dp3280
g54
(dp3281
sg63
g3267
sg56
(lp3282
g49
(g50
g51
NtRp3283
(dp3284
g54
(dp3285
g62
I3
ssg63
g3279
sg56
(lp3286
S'/'
asbasbasbag49
(g65
g51
NtRp3287
(dp3288
g54
(dp3289
sg63
g3183
sg56
(lp3290
g49
(g70
g51
NtRp3291
(dp3292
g54
(dp3293
g74
g75
ssg63
g3287
sg56
(lp3294
g368
asbag49
(g70
g51
NtRp3295
(dp3296
g54
(dp3297
g81
g82
ssg63
g3287
sg56
(lp3298
S':'
asbag49
(g70
g51
NtRp3299
(dp3300
g54
(dp3301
sg63
g3287
sg56
(lp3302
g49
(g50
g51
NtRp3303
(dp3304
g54
(dp3305
g62
I3
ssg63
g3299
sg56
(lp3306
S''
asbasbasbag49
(g65
g51
NtRp3307
(dp3308
g54
(dp3309
sg63
g3183
sg56
(lp3310
g49
(g70
g51
NtRp3311
(dp3312
g54
(dp3313
g74
g75
ssg63
g3307
sg56
(lp3314
g389
asbag49
(g70
g51
NtRp3315
(dp3316
g54
(dp3317
g81
g82
ssg63
g3307
sg56
(lp3318
S':'
asbag49
(g70
g51
NtRp3319
(dp3320
g54
(dp3321
sg63
g3307
sg56
(lp3322
g49
(g50
g51
NtRp3323
(dp3324
g54
(dp3325
g62
I3
ssg63
g3319
sg56
(lp3326
S''
asbasbasbasbasbasbasbasbasbasbasbag49
(g65
g51
NtRp3327
(dp3328
g54
(dp3329
sg63
g3113
sg56
(lp3330
g49
(g70
g51
NtRp3331
(dp3332
g54
(dp3333
g74
g75
ssg63
g3327
sg56
(lp3334
S'delimiters'
p3335
asbag49
(g70
g51
NtRp3336
(dp3337
g54
(dp3338
g81
g82
ssg63
g3327
sg56
(lp3339
S':'
asbag49
(g70
g51
NtRp3340
(dp3341
g54
(dp3342
sg63
g3327
sg56
(lp3343
g49
(g50
g51
NtRp3344
(dp3345
g54
(dp3346
g62
I5
ssg63
g3340
sg56
(lp3347
g49
(g58
g51
NtRp3348
(dp3349
g54
(dp3350
g62
I4
ssg63
Nsg56
(lp3351
g49
(g65
g51
NtRp3352
(dp3353
g54
(dp3354
sg63
g3348
sg56
(lp3355
g49
(g70
g51
NtRp3356
(dp3357
g54
(dp3358
sg63
g3352
sg56
(lp3359
g49
(g50
g51
NtRp3360
(dp3361
g54
(dp3362
g62
I4
ssg63
g3356
sg56
(lp3363
S'{{'
p3364
asbasbasbag49
(g65
g51
NtRp3365
(dp3366
g54
(dp3367
sg63
g3348
sg56
(lp3368
g49
(g70
g51
NtRp3369
(dp3370
g54
(dp3371
sg63
g3365
sg56
(lp3372
g49
(g50
g51
NtRp3373
(dp3374
g54
(dp3375
g62
I4
ssg63
g3369
sg56
(lp3376
S'}}'
p3377
asbasbasbasbasbasbasbag49
(g65
g51
NtRp3378
(dp3379
g54
(dp3380
sg63
g3113
sg56
(lp3381
g49
(g70
g51
NtRp3382
(dp3383
g54
(dp3384
g74
g75
ssg63
g3378
sg56
(lp3385
S'files'
p3386
asbag49
(g70
g51
NtRp3387
(dp3388
g54
(dp3389
g81
g82
ssg63
g3378
sg56
(lp3390
S':'
asbag49
(g70
g51
NtRp3391
(dp3392
g54
(dp3393
sg63
g3378
sg56
(lp3394
g49
(g50
g51
NtRp3395
(dp3396
g54
(dp3397
g62
I5
ssg63
g3391
sg56
(lp3398
g49
(g58
g51
NtRp3399
(dp3400
g54
(dp3401
g62
I4
ssg63
Nsg56
(lp3402
sbasbasbasbag49
(g65
g51
NtRp3403
(dp3404
g54
(dp3405
sg63
g3113
sg56
(lp3406
g49
(g70
g51
NtRp3407
(dp3408
g54
(dp3409
g74
g75
ssg63
g3403
sg56
(lp3410
S'flash'
p3411
asbag49
(g70
g51
NtRp3412
(dp3413
g54
(dp3414
g81
g82
ssg63
g3403
sg56
(lp3415
S':'
asbag49
(g70
g51
NtRp3416
(dp3417
g54
(dp3418
sg63
g3403
sg56
(lp3419
g49
(g50
g51
NtRp3420
(dp3421
g54
(dp3422
g62
I5
ssg63
g3416
sg56
(lp3423
S'Logged out'
p3424
asbasbasbag49
(g65
g51
NtRp3425
(dp3426
g54
(dp3427
sg63
g3113
sg56
(lp3428
g49
(g70
g51
NtRp3429
(dp3430
g54
(dp3431
g74
g75
ssg63
g3425
sg56
(lp3432
S'generic_patterns'
p3433
asbag49
(g70
g51
NtRp3434
(dp3435
g54
(dp3436
g81
g82
ssg63
g3425
sg56
(lp3437
S':'
asbag49
(g70
g51
NtRp3438
(dp3439
g54
(dp3440
sg63
g3425
sg56
(lp3441
g49
(g50
g51
NtRp3442
(dp3443
g54
(dp3444
g62
I5
ssg63
g3438
sg56
(lp3445
g49
(g58
g51
NtRp3446
(dp3447
g54
(dp3448
g62
I4
ssg63
Nsg56
(lp3449
g49
(g65
g51
NtRp3450
(dp3451
g54
(dp3452
sg63
g3446
sg56
(lp3453
g49
(g70
g51
NtRp3454
(dp3455
g54
(dp3456
sg63
g3450
sg56
(lp3457
g49
(g50
g51
NtRp3458
(dp3459
g54
(dp3460
g62
I4
ssg63
g3454
sg56
(lp3461
S'*'
asbasbasbasbasbasbasbag49
(g65
g51
NtRp3462
(dp3463
g54
(dp3464
sg63
g3113
sg56
(lp3465
g49
(g70
g51
NtRp3466
(dp3467
g54
(dp3468
g74
g75
ssg63
g3462
sg56
(lp3469
S'headers'
p3470
asbag49
(g70
g51
NtRp3471
(dp3472
g54
(dp3473
g81
g82
ssg63
g3462
sg56
(lp3474
S':'
asbag49
(g70
g51
NtRp3475
(dp3476
g54
(dp3477
sg63
g3462
sg56
(lp3478
g49
(g50
g51
NtRp3479
(dp3480
g54
(dp3481
g62
I5
ssg63
g3475
sg56
(lp3482
g49
(g58
g51
NtRp3483
(dp3484
g54
(dp3485
g62
I4
ssg63
Nsg56
(lp3486
g49
(g65
g51
NtRp3487
(dp3488
g54
(dp3489
sg63
g3483
sg56
(lp3490
g49
(g70
g51
NtRp3491
(dp3492
g54
(dp3493
g74
g75
ssg63
g3487
sg56
(lp3494
S'Cache-Control'
p3495
asbag49
(g70
g51
NtRp3496
(dp3497
g54
(dp3498
g81
g82
ssg63
g3487
sg56
(lp3499
S':'
asbag49
(g70
g51
NtRp3500
(dp3501
g54
(dp3502
sg63
g3487
sg56
(lp3503
g49
(g50
g51
NtRp3504
(dp3505
g54
(dp3506
g62
I4
ssg63
g3500
sg56
(lp3507
S'no-store, no-cache, must-revalidate, post-check=0, pre-check=0'
p3508
asbasbasbag49
(g65
g51
NtRp3509
(dp3510
g54
(dp3511
sg63
g3483
sg56
(lp3512
g49
(g70
g51
NtRp3513
(dp3514
g54
(dp3515
g74
g75
ssg63
g3509
sg56
(lp3516
S'Content-Type'
p3517
asbag49
(g70
g51
NtRp3518
(dp3519
g54
(dp3520
g81
g82
ssg63
g3509
sg56
(lp3521
S':'
asbag49
(g70
g51
NtRp3522
(dp3523
g54
(dp3524
sg63
g3509
sg56
(lp3525
g49
(g50
g51
NtRp3526
(dp3527
g54
(dp3528
g62
I4
ssg63
g3522
sg56
(lp3529
S'text/html; charset=utf-8'
p3530
asbasbasbag49
(g65
g51
NtRp3531
(dp3532
g54
(dp3533
sg63
g3483
sg56
(lp3534
g49
(g70
g51
NtRp3535
(dp3536
g54
(dp3537
g74
g75
ssg63
g3531
sg56
(lp3538
S'Expires'
p3539
asbag49
(g70
g51
NtRp3540
(dp3541
g54
(dp3542
g81
g82
ssg63
g3531
sg56
(lp3543
S':'
asbag49
(g70
g51
NtRp3544
(dp3545
g54
(dp3546
sg63
g3531
sg56
(lp3547
g49
(g50
g51
NtRp3548
(dp3549
g54
(dp3550
g62
I4
ssg63
g3544
sg56
(lp3551
S'Fri, 09 Mar 2012 02:06:32 GMT'
p3552
asbasbasbag49
(g65
g51
NtRp3553
(dp3554
g54
(dp3555
sg63
g3483
sg56
(lp3556
g49
(g70
g51
NtRp3557
(dp3558
g54
(dp3559
g74
g75
ssg63
g3553
sg56
(lp3560
S'Pragma'
p3561
asbag49
(g70
g51
NtRp3562
(dp3563
g54
(dp3564
g81
g82
ssg63
g3553
sg56
(lp3565
S':'
asbag49
(g70
g51
NtRp3566
(dp3567
g54
(dp3568
sg63
g3553
sg56
(lp3569
g49
(g50
g51
NtRp3570
(dp3571
g54
(dp3572
g62
I4
ssg63
g3566
sg56
(lp3573
S'no-cache'
p3574
asbasbasbag49
(g65
g51
NtRp3575
(dp3576
g54
(dp3577
sg63
g3483
sg56
(lp3578
g49
(g70
g51
NtRp3579
(dp3580
g54
(dp3581
g74
g75
ssg63
g3575
sg56
(lp3582
S'X-Powered-By'
p3583
asbag49
(g70
g51
NtRp3584
(dp3585
g54
(dp3586
g81
g82
ssg63
g3575
sg56
(lp3587
S':'
asbag49
(g70
g51
NtRp3588
(dp3589
g54
(dp3590
sg63
g3575
sg56
(lp3591
g49
(g50
g51
NtRp3592
(dp3593
g54
(dp3594
g62
I4
ssg63
g3588
sg56
(lp3595
S'web2py'
p3596
asbasbasbasbasbasbasbag49
(g65
g51
NtRp3597
(dp3598
g54
(dp3599
sg63
g3113
sg56
(lp3600
g49
(g70
g51
NtRp3601
(dp3602
g54
(dp3603
g74
g75
ssg63
g3597
sg56
(lp3604
S'menu'
p3605
asbag49
(g70
g51
NtRp3606
(dp3607
g54
(dp3608
g81
g82
ssg63
g3597
sg56
(lp3609
S':'
asbag49
(g70
g51
NtRp3610
(dp3611
g54
(dp3612
sg63
g3597
sg56
(lp3613
g49
(g50
g51
NtRp3614
(dp3615
g54
(dp3616
g62
I5
ssg63
g3610
sg56
(lp3617
g49
(g58
g51
NtRp3618
(dp3619
g54
(dp3620
g62
I4
ssg63
Nsg56
(lp3621
g49
(g65
g51
NtRp3622
(dp3623
g54
(dp3624
sg63
g3618
sg56
(lp3625
g49
(g70
g51
NtRp3626
(dp3627
g54
(dp3628
sg63
g3622
sg56
(lp3629
g49
(g50
g51
NtRp3630
(dp3631
g54
(dp3632
g62
I4
ssg63
g3626
sg56
(lp3633
g49
(g58
g51
NtRp3634
(dp3635
g54
(dp3636
g62
I3
ssg63
Nsg56
(lp3637
g49
(g65
g51
NtRp3638
(dp3639
g54
(dp3640
sg63
g3634
sg56
(lp3641
g49
(g70
g51
NtRp3642
(dp3643
g54
(dp3644
sg63
g3638
sg56
(lp3645
g49
(g50
g51
NtRp3646
(dp3647
g54
(dp3648
g62
I3
ssg63
g3642
sg56
(lp3649
cgluon.languages
lazyT_unpickle
p3650
(S's\x04\x00\x00\x00Home'
tRp3651
asbasbasbag49
(g65
g51
NtRp3652
(dp3653
g54
(dp3654
sg63
g3634
sg56
(lp3655
g49
(g70
g51
NtRp3656
(dp3657
g54
(dp3658
sg63
g3652
sg56
(lp3659
g49
(g50
g51
NtRp3660
(dp3661
g54
(dp3662
g62
I3
ssg63
g3656
sg56
(lp3663
g92
asbasbasbag49
(g65
g51
NtRp3664
(dp3665
g54
(dp3666
sg63
g3634
sg56
(lp3667
g49
(g70
g51
NtRp3668
(dp3669
g54
(dp3670
sg63
g3664
sg56
(lp3671
g49
(g50
g51
NtRp3672
(dp3673
g54
(dp3674
g62
I3
ssg63
g3668
sg56
(lp3675
S'/'
asbasbasbag49
(g65
g51
NtRp3676
(dp3677
g54
(dp3678
sg63
g3634
sg56
(lp3679
g49
(g70
g51
NtRp3680
(dp3681
g54
(dp3682
sg63
g3676
sg56
(lp3683
g49
(g50
g51
NtRp3684
(dp3685
g54
(dp3686
g62
I3
ssg63
g3680
sg56
(lp3687
g49
(g58
g51
NtRp3688
(dp3689
g54
(dp3690
g62
I2
ssg63
Nsg56
(lp3691
sbasbasbasbasbasbasbasbag49
(g65
g51
NtRp3692
(dp3693
g54
(dp3694
sg63
g3618
sg56
(lp3695
g49
(g70
g51
NtRp3696
(dp3697
g54
(dp3698
sg63
g3692
sg56
(lp3699
g49
(g50
g51
NtRp3700
(dp3701
g54
(dp3702
g62
I4
ssg63
g3696
sg56
(lp3703
g49
(g58
g51
NtRp3704
(dp3705
g54
(dp3706
g62
I3
ssg63
Nsg56
(lp3707
g49
(g65
g51
NtRp3708
(dp3709
g54
(dp3710
sg63
g3704
sg56
(lp3711
g49
(g70
g51
NtRp3712
(dp3713
g54
(dp3714
sg63
g3708
sg56
(lp3715
g49
(g50
g51
NtRp3716
(dp3717
g54
(dp3718
g62
I3
ssg63
g3712
sg56
(lp3719
g49
(cgluon.html
SPAN
p3720
g51
NtRp3721
(dp3722
g54
(dp3723
g74
S'color:yellow'
p3724
ssg63
Nsg56
(lp3725
g3596
asbasbasbasbag49
(g65
g51
NtRp3726
(dp3727
g54
(dp3728
sg63
g3704
sg56
(lp3729
g49
(g70
g51
NtRp3730
(dp3731
g54
(dp3732
sg63
g3726
sg56
(lp3733
g49
(g50
g51
NtRp3734
(dp3735
g54
(dp3736
g62
I3
ssg63
g3730
sg56
(lp3737
g92
asbasbasbag49
(g65
g51
NtRp3738
(dp3739
g54
(dp3740
sg63
g3704
sg56
(lp3741
g49
(g70
g51
NtRp3742
(dp3743
g54
(dp3744
sg63
g3738
sg56
(lp3745
g49
(g50
g51
NtRp3746
(dp3747
g54
(dp3748
g62
I3
ssg63
g3742
sg56
(lp3749
S'None'
p3750
asbasbasbag49
(g65
g51
NtRp3751
(dp3752
g54
(dp3753
sg63
g3704
sg56
(lp3754
g49
(g70
g51
NtRp3755
(dp3756
g54
(dp3757
sg63
g3751
sg56
(lp3758
g49
(g50
g51
NtRp3759
(dp3760
g54
(dp3761
g62
I3
ssg63
g3755
sg56
(lp3762
g49
(g58
g51
NtRp3763
(dp3764
g54
(dp3765
g62
I2
ssg63
Nsg56
(lp3766
g49
(g65
g51
NtRp3767
(dp3768
g54
(dp3769
sg63
g3763
sg56
(lp3770
g49
(g70
g51
NtRp3771
(dp3772
g54
(dp3773
sg63
g3767
sg56
(lp3774
g49
(g50
g51
NtRp3775
(dp3776
g54
(dp3777
g62
I2
ssg63
g3771
sg56
(lp3778
g49
(g58
g51
NtRp3779
(dp3780
g54
(dp3781
g62
I1
ssg63
Nsg56
(lp3782
g49
(g65
g51
NtRp3783
(dp3784
g54
(dp3785
sg63
g3779
sg56
(lp3786
g49
(g70
g51
NtRp3787
(dp3788
g54
(dp3789
sg63
g3783
sg56
(lp3790
g49
(g50
g51
NtRp3791
(dp3792
g54
(dp3793
g62
I1
ssg63
g3787
sg56
(lp3794
g3650
(S's\x08\x00\x00\x00My Sites'
tRp3795
asbasbasbag49
(g65
g51
NtRp3796
(dp3797
g54
(dp3798
sg63
g3779
sg56
(lp3799
g49
(g70
g51
NtRp3800
(dp3801
g54
(dp3802
sg63
g3796
sg56
(lp3803
g49
(g50
g51
NtRp3804
(dp3805
g54
(dp3806
g62
I1
ssg63
g3800
sg56
(lp3807
I00
asbasbasbag49
(g65
g51
NtRp3808
(dp3809
g54
(dp3810
sg63
g3779
sg56
(lp3811
g49
(g70
g51
NtRp3812
(dp3813
g54
(dp3814
sg63
g3808
sg56
(lp3815
g49
(g50
g51
NtRp3816
(dp3817
g54
(dp3818
g62
I1
ssg63
g3812
sg56
(lp3819
S'/admin/site'
p3820
asbasbasbasbasbasbasbag49
(g65
g51
NtRp3821
(dp3822
g54
(dp3823
sg63
g3763
sg56
(lp3824
g49
(g70
g51
NtRp3825
(dp3826
g54
(dp3827
sg63
g3821
sg56
(lp3828
g49
(g50
g51
NtRp3829
(dp3830
g54
(dp3831
g62
I2
ssg63
g3825
sg56
(lp3832
g49
(g58
g51
NtRp3833
(dp3834
g54
(dp3835
g62
I1
ssg63
Nsg56
(lp3836
g49
(g65
g51
NtRp3837
(dp3838
g54
(dp3839
sg63
g3833
sg56
(lp3840
g49
(g70
g51
NtRp3841
(dp3842
g54
(dp3843
sg63
g3837
sg56
(lp3844
g49
(g50
g51
NtRp3845
(dp3846
g54
(dp3847
g62
I1
ssg63
g3841
sg56
(lp3848
g3650
(S's\x08\x00\x00\x00This App'
tRp3849
asbasbasbag49
(g65
g51
NtRp3850
(dp3851
g54
(dp3852
sg63
g3833
sg56
(lp3853
g49
(g70
g51
NtRp3854
(dp3855
g54
(dp3856
sg63
g3850
sg56
(lp3857
g49
(g50
g51
NtRp3858
(dp3859
g54
(dp3860
g62
I1
ssg63
g3854
sg56
(lp3861
I00
asbasbasbag49
(g65
g51
NtRp3862
(dp3863
g54
(dp3864
sg63
g3833
sg56
(lp3865
g49
(g70
g51
NtRp3866
(dp3867
g54
(dp3868
sg63
g3862
sg56
(lp3869
g49
(g50
g51
NtRp3870
(dp3871
g54
(dp3872
g62
I1
ssg63
g3866
sg56
(lp3873
S'/admin/design/udi0312'
p3874
asbasbasbag49
(g65
g51
NtRp3875
(dp3876
g54
(dp3877
sg63
g3833
sg56
(lp3878
g49
(g70
g51
NtRp3879
(dp3880
g54
(dp3881
sg63
g3875
sg56
(lp3882
g49
(g50
g51
NtRp3883
(dp3884
g54
(dp3885
g62
I1
ssg63
g3879
sg56
(lp3886
(lp3887
(g3650
(S's\n\x00\x00\x00Controller'
tRp3888
I00
S'/admin/edit/udi0312/controllers/default.py'
tp3889
a(g3650
(S's\x04\x00\x00\x00View'
tRp3890
I00
S'/admin/edit/udi0312/views/default/index.html'
tp3891
a(g3650
(S's\x06\x00\x00\x00Layout'
tRp3892
I00
S'/admin/edit/udi0312/views/layout.html'
tp3893
a(g3650
(S's\n\x00\x00\x00Stylesheet'
tRp3894
I00
S'/admin/edit/udi0312/static/css/web2py.css'
tp3895
a(g3650
(S's\x08\x00\x00\x00DB Model'
tRp3896
I00
S'/admin/edit/udi0312/models/db.py'
tp3897
a(g3650
(S's\n\x00\x00\x00Menu Model'
tRp3898
I00
S'/admin/edit/udi0312/models/menu.py'
tp3899
a(g3650
(S's\x08\x00\x00\x00Database'
tRp3900
I00
S'/appadmin'
tp3901
a(g3650
(S's\x06\x00\x00\x00Errors'
tRp3902
I00
S'/admin/errors/udi0312'
tp3903
a(g3650
(S's\x05\x00\x00\x00About'
tRp3904
I00
S'/admin/about/udi0312'
tp3905
aasbasbasbasbasbasbasbag49
(g65
g51
NtRp3906
(dp3907
g54
(dp3908
sg63
g3763
sg56
(lp3909
g49
(g70
g51
NtRp3910
(dp3911
g54
(dp3912
sg63
g3906
sg56
(lp3913
g49
(g50
g51
NtRp3914
(dp3915
g54
(dp3916
g62
I2
ssg63
g3910
sg56
(lp3917
g49
(g58
g51
NtRp3918
(dp3919
g54
(dp3920
g62
I1
ssg63
Nsg56
(lp3921
g49
(g65
g51
NtRp3922
(dp3923
g54
(dp3924
sg63
g3918
sg56
(lp3925
g49
(g70
g51
NtRp3926
(dp3927
g54
(dp3928
sg63
g3922
sg56
(lp3929
g49
(g50
g51
NtRp3930
(dp3931
g54
(dp3932
g62
I1
ssg63
g3926
sg56
(lp3933
S'web2py.com'
p3934
asbasbasbag49
(g65
g51
NtRp3935
(dp3936
g54
(dp3937
sg63
g3918
sg56
(lp3938
g49
(g70
g51
NtRp3939
(dp3940
g54
(dp3941
sg63
g3935
sg56
(lp3942
g49
(g50
g51
NtRp3943
(dp3944
g54
(dp3945
g62
I1
ssg63
g3939
sg56
(lp3946
I00
asbasbasbag49
(g65
g51
NtRp3947
(dp3948
g54
(dp3949
sg63
g3918
sg56
(lp3950
g49
(g70
g51
NtRp3951
(dp3952
g54
(dp3953
sg63
g3947
sg56
(lp3954
g49
(g50
g51
NtRp3955
(dp3956
g54
(dp3957
g62
I1
ssg63
g3951
sg56
(lp3958
S'http://www.web2py.com'
p3959
asbasbasbag49
(g65
g51
NtRp3960
(dp3961
g54
(dp3962
sg63
g3918
sg56
(lp3963
g49
(g70
g51
NtRp3964
(dp3965
g54
(dp3966
sg63
g3960
sg56
(lp3967
g49
(g50
g51
NtRp3968
(dp3969
g54
(dp3970
g62
I1
ssg63
g3964
sg56
(lp3971
(lp3972
(g3650
(S's\x08\x00\x00\x00Download'
tRp3973
I00
S'http://www.web2py.com/examples/default/download'
p3974
tp3975
a(g3650
(S's\x07\x00\x00\x00Support'
tRp3976
I00
S'http://www.web2py.com/examples/default/support'
p3977
tp3978
a(g3650
(S's\x04\x00\x00\x00Demo'
tRp3979
I00
S'http://web2py.com/demo_admin'
p3980
tp3981
a(g3650
(S's\x0e\x00\x00\x00Quick Examples'
tRp3982
I00
S'http://web2py.com/examples/default/examples'
p3983
tp3984
a(g3650
(S's\x03\x00\x00\x00FAQ'
tRp3985
I00
S'http://web2py.com/AlterEgo'
p3986
tp3987
a(g3650
(S's\x06\x00\x00\x00Videos'
tRp3988
I00
S'http://www.web2py.com/examples/default/videos/'
p3989
tp3990
a(g3650
(S's\x11\x00\x00\x00Free Applications'
tRp3991
I00
S'http://web2py.com/appliances'
p3992
tp3993
a(g3650
(S's\x07\x00\x00\x00Plugins'
tRp3994
I00
S'http://web2py.com/plugins'
p3995
tp3996
a(g3650
(S's\x07\x00\x00\x00Layouts'
tRp3997
I00
S'http://web2py.com/layouts'
p3998
tp3999
a(g3650
(S's\x07\x00\x00\x00Recipes'
tRp4000
I00
S'http://web2pyslices.com/'
p4001
tp4002
a(g3650
(S's\x08\x00\x00\x00Semantic'
tRp4003
I00
S'http://web2py.com/semantic'
p4004
tp4005
aasbasbasbasbasbasbasbag49
(g65
g51
NtRp4006
(dp4007
g54
(dp4008
sg63
g3763
sg56
(lp4009
g49
(g70
g51
NtRp4010
(dp4011
g54
(dp4012
sg63
g4006
sg56
(lp4013
g49
(g50
g51
NtRp4014
(dp4015
g54
(dp4016
g62
I2
ssg63
g4010
sg56
(lp4017
g49
(g58
g51
NtRp4018
(dp4019
g54
(dp4020
g62
I1
ssg63
Nsg56
(lp4021
g49
(g65
g51
NtRp4022
(dp4023
g54
(dp4024
sg63
g4018
sg56
(lp4025
g49
(g70
g51
NtRp4026
(dp4027
g54
(dp4028
sg63
g4022
sg56
(lp4029
g49
(g50
g51
NtRp4030
(dp4031
g54
(dp4032
g62
I1
ssg63
g4026
sg56
(lp4033
g3650
(S's\r\x00\x00\x00Documentation'
tRp4034
asbasbasbag49
(g65
g51
NtRp4035
(dp4036
g54
(dp4037
sg63
g4018
sg56
(lp4038
g49
(g70
g51
NtRp4039
(dp4040
g54
(dp4041
sg63
g4035
sg56
(lp4042
g49
(g50
g51
NtRp4043
(dp4044
g54
(dp4045
g62
I1
ssg63
g4039
sg56
(lp4046
I00
asbasbasbag49
(g65
g51
NtRp4047
(dp4048
g54
(dp4049
sg63
g4018
sg56
(lp4050
g49
(g70
g51
NtRp4051
(dp4052
g54
(dp4053
sg63
g4047
sg56
(lp4054
g49
(g50
g51
NtRp4055
(dp4056
g54
(dp4057
g62
I1
ssg63
g4051
sg56
(lp4058
S'http://www.web2py.com/book'
p4059
asbasbasbag49
(g65
g51
NtRp4060
(dp4061
g54
(dp4062
sg63
g4018
sg56
(lp4063
g49
(g70
g51
NtRp4064
(dp4065
g54
(dp4066
sg63
g4060
sg56
(lp4067
g49
(g50
g51
NtRp4068
(dp4069
g54
(dp4070
g62
I1
ssg63
g4064
sg56
(lp4071
(lp4072
(g3650
(S's\x07\x00\x00\x00Preface'
tRp4073
I00
S'http://www.web2py.com/book/default/chapter/00'
p4074
tp4075
a(g3650
(S's\x0c\x00\x00\x00Introduction'
tRp4076
I00
S'http://www.web2py.com/book/default/chapter/01'
p4077
tp4078
a(g3650
(S's\x06\x00\x00\x00Python'
tRp4079
I00
S'http://www.web2py.com/book/default/chapter/02'
p4080
tp4081
a(g3650
(S's\x08\x00\x00\x00Overview'
tRp4082
I00
S'http://www.web2py.com/book/default/chapter/03'
p4083
tp4084
a(g3650
(S's\x08\x00\x00\x00The Core'
tRp4085
I00
S'http://www.web2py.com/book/default/chapter/04'
p4086
tp4087
a(g3650
(S's\t\x00\x00\x00The Views'
tRp4088
I00
S'http://www.web2py.com/book/default/chapter/05'
p4089
tp4090
a(g3650
(S's\x08\x00\x00\x00Database'
tRp4091
I00
S'http://www.web2py.com/book/default/chapter/06'
p4092
tp4093
a(g3650
(S's\x14\x00\x00\x00Forms and Validators'
tRp4094
I00
S'http://www.web2py.com/book/default/chapter/07'
p4095
tp4096
a(g3650
(S's\r\x00\x00\x00Email and SMS'
tRp4097
I00
S'http://www.web2py.com/book/default/chapter/08'
p4098
tp4099
a(g3650
(S's\x0e\x00\x00\x00Access Control'
tRp4100
I00
S'http://www.web2py.com/book/default/chapter/09'
p4101
tp4102
a(g3650
(S's\x08\x00\x00\x00Services'
tRp4103
I00
S'http://www.web2py.com/book/default/chapter/10'
p4104
tp4105
a(g3650
(S's\x0c\x00\x00\x00Ajax Recipes'
tRp4106
I00
S'http://www.web2py.com/book/default/chapter/11'
p4107
tp4108
a(g3650
(S's\x16\x00\x00\x00Components and Plugins'
tRp4109
I00
S'http://www.web2py.com/book/default/chapter/12'
p4110
tp4111
a(g3650
(S's\x12\x00\x00\x00Deployment Recipes'
tRp4112
I00
S'http://www.web2py.com/book/default/chapter/13'
p4113
tp4114
a(g3650
(S's\r\x00\x00\x00Other Recipes'
tRp4115
I00
S'http://www.web2py.com/book/default/chapter/14'
p4116
tp4117
a(g3650
(S's\r\x00\x00\x00Buy this book'
tRp4118
I00
S'http://stores.lulu.com/web2py'
p4119
tp4120
aasbasbasbasbasbasbasbag49
(g65
g51
NtRp4121
(dp4122
g54
(dp4123
sg63
g3763
sg56
(lp4124
g49
(g70
g51
NtRp4125
(dp4126
g54
(dp4127
sg63
g4121
sg56
(lp4128
g49
(g50
g51
NtRp4129
(dp4130
g54
(dp4131
g62
I2
ssg63
g4125
sg56
(lp4132
g49
(g58
g51
NtRp4133
(dp4134
g54
(dp4135
g62
I1
ssg63
Nsg56
(lp4136
g49
(g65
g51
NtRp4137
(dp4138
g54
(dp4139
sg63
g4133
sg56
(lp4140
g49
(g70
g51
NtRp4141
(dp4142
g54
(dp4143
sg63
g4137
sg56
(lp4144
g49
(g50
g51
NtRp4145
(dp4146
g54
(dp4147
g62
I1
ssg63
g4141
sg56
(lp4148
g3650
(S's\t\x00\x00\x00Community'
tRp4149
asbasbasbag49
(g65
g51
NtRp4150
(dp4151
g54
(dp4152
sg63
g4133
sg56
(lp4153
g49
(g70
g51
NtRp4154
(dp4155
g54
(dp4156
sg63
g4150
sg56
(lp4157
g49
(g50
g51
NtRp4158
(dp4159
g54
(dp4160
g62
I1
ssg63
g4154
sg56
(lp4161
I00
asbasbasbag49
(g65
g51
NtRp4162
(dp4163
g54
(dp4164
sg63
g4133
sg56
(lp4165
g49
(g70
g51
NtRp4166
(dp4167
g54
(dp4168
sg63
g4162
sg56
(lp4169
g49
(g50
g51
NtRp4170
(dp4171
g54
(dp4172
g62
I1
ssg63
g4166
sg56
(lp4173
Nasbasbasbag49
(g65
g51
NtRp4174
(dp4175
g54
(dp4176
sg63
g4133
sg56
(lp4177
g49
(g70
g51
NtRp4178
(dp4179
g54
(dp4180
sg63
g4174
sg56
(lp4181
g49
(g50
g51
NtRp4182
(dp4183
g54
(dp4184
g62
I1
ssg63
g4178
sg56
(lp4185
(lp4186
(g3650
(S's\x06\x00\x00\x00Groups'
tRp4187
I00
S'http://www.web2py.com/examples/default/usergroups'
p4188
tp4189
a(g3650
(S's\x07\x00\x00\x00Twitter'
tRp4190
I00
S'http://twitter.com/web2py'
p4191
tp4192
a(g3650
(S's\t\x00\x00\x00Live Chat'
tRp4193
I00
S'http://webchat.freenode.net/?channels=web2py'
p4194
tp4195
aasbasbasbasbasbasbasbag49
(g65
g51
NtRp4196
(dp4197
g54
(dp4198
sg63
g3763
sg56
(lp4199
g49
(g70
g51
NtRp4200
(dp4201
g54
(dp4202
sg63
g4196
sg56
(lp4203
g49
(g50
g51
NtRp4204
(dp4205
g54
(dp4206
g62
I2
ssg63
g4200
sg56
(lp4207
g49
(g58
g51
NtRp4208
(dp4209
g54
(dp4210
g62
I1
ssg63
Nsg56
(lp4211
g49
(g65
g51
NtRp4212
(dp4213
g54
(dp4214
sg63
g4208
sg56
(lp4215
g49
(g70
g51
NtRp4216
(dp4217
g54
(dp4218
sg63
g4212
sg56
(lp4219
g49
(g50
g51
NtRp4220
(dp4221
g54
(dp4222
g62
I1
ssg63
g4216
sg56
(lp4223
g3650
(S's\x07\x00\x00\x00Plugins'
tRp4224
asbasbasbag49
(g65
g51
NtRp4225
(dp4226
g54
(dp4227
sg63
g4208
sg56
(lp4228
g49
(g70
g51
NtRp4229
(dp4230
g54
(dp4231
sg63
g4225
sg56
(lp4232
g49
(g50
g51
NtRp4233
(dp4234
g54
(dp4235
g62
I1
ssg63
g4229
sg56
(lp4236
I00
asbasbasbag49
(g65
g51
NtRp4237
(dp4238
g54
(dp4239
sg63
g4208
sg56
(lp4240
g49
(g70
g51
NtRp4241
(dp4242
g54
(dp4243
sg63
g4237
sg56
(lp4244
g49
(g50
g51
NtRp4245
(dp4246
g54
(dp4247
g62
I1
ssg63
g4241
sg56
(lp4248
Nasbasbasbag49
(g65
g51
NtRp4249
(dp4250
g54
(dp4251
sg63
g4208
sg56
(lp4252
g49
(g70
g51
NtRp4253
(dp4254
g54
(dp4255
sg63
g4249
sg56
(lp4256
g49
(g50
g51
NtRp4257
(dp4258
g54
(dp4259
g62
I1
ssg63
g4253
sg56
(lp4260
(lp4261
(S'plugin_wiki'
p4262
I00
S'http://web2py.com/examples/default/download'
p4263
tp4264
a(g3650
(S's\r\x00\x00\x00Other Plugins'
tRp4265
I00
g3995
tp4266
a(g3650
(S's\x0e\x00\x00\x00Layout Plugins'
tRp4267
I00
g3998
tp4268
aasbasbasbasbasbasbasbasbasbasbasbasbasbasbasbasbasbasbasbag49
(g65
g51
NtRp4269
(dp4270
g54
(dp4271
sg63
g3113
sg56
(lp4272
g49
(g70
g51
NtRp4273
(dp4274
g54
(dp4275
g74
g75
ssg63
g4269
sg56
(lp4276
S'meta'
p4277
asbag49
(g70
g51
NtRp4278
(dp4279
g54
(dp4280
g81
g82
ssg63
g4269
sg56
(lp4281
S':'
asbag49
(g70
g51
NtRp4282
(dp4283
g54
(dp4284
sg63
g4269
sg56
(lp4285
g49
(g50
g51
NtRp4286
(dp4287
g54
(dp4288
g62
I5
ssg63
g4282
sg56
(lp4289
g49
(g58
g51
NtRp4290
(dp4291
g54
(dp4292
g62
I4
ssg63
Nsg56
(lp4293
g49
(g65
g51
NtRp4294
(dp4295
g54
(dp4296
sg63
g4290
sg56
(lp4297
g49
(g70
g51
NtRp4298
(dp4299
g54
(dp4300
g74
g75
ssg63
g4294
sg56
(lp4301
S'author'
p4302
asbag49
(g70
g51
NtRp4303
(dp4304
g54
(dp4305
g81
g82
ssg63
g4294
sg56
(lp4306
S':'
asbag49
(g70
g51
NtRp4307
(dp4308
g54
(dp4309
sg63
g4294
sg56
(lp4310
g49
(g50
g51
NtRp4311
(dp4312
g54
(dp4313
g62
I4
ssg63
g4307
sg56
(lp4314
S'Your Name <you@example.com>'
p4315
asbasbasbag49
(g65
g51
NtRp4316
(dp4317
g54
(dp4318
sg63
g4290
sg56
(lp4319
g49
(g70
g51
NtRp4320
(dp4321
g54
(dp4322
g74
g75
ssg63
g4316
sg56
(lp4323
S'copyright'
p4324
asbag49
(g70
g51
NtRp4325
(dp4326
g54
(dp4327
g81
g82
ssg63
g4316
sg56
(lp4328
S':'
asbag49
(g70
g51
NtRp4329
(dp4330
g54
(dp4331
sg63
g4316
sg56
(lp4332
g49
(g50
g51
NtRp4333
(dp4334
g54
(dp4335
g62
I4
ssg63
g4329
sg56
(lp4336
S'Copyright 2011'
p4337
asbasbasbag49
(g65
g51
NtRp4338
(dp4339
g54
(dp4340
sg63
g4290
sg56
(lp4341
g49
(g70
g51
NtRp4342
(dp4343
g54
(dp4344
g74
g75
ssg63
g4338
sg56
(lp4345
S'description'
p4346
asbag49
(g70
g51
NtRp4347
(dp4348
g54
(dp4349
g81
g82
ssg63
g4338
sg56
(lp4350
S':'
asbag49
(g70
g51
NtRp4351
(dp4352
g54
(dp4353
sg63
g4338
sg56
(lp4354
g49
(g50
g51
NtRp4355
(dp4356
g54
(dp4357
g62
I4
ssg63
g4351
sg56
(lp4358
S'a cool new app'
p4359
asbasbasbag49
(g65
g51
NtRp4360
(dp4361
g54
(dp4362
sg63
g4290
sg56
(lp4363
g49
(g70
g51
NtRp4364
(dp4365
g54
(dp4366
g74
g75
ssg63
g4360
sg56
(lp4367
S'generator'
p4368
asbag49
(g70
g51
NtRp4369
(dp4370
g54
(dp4371
g81
g82
ssg63
g4360
sg56
(lp4372
S':'
asbag49
(g70
g51
NtRp4373
(dp4374
g54
(dp4375
sg63
g4360
sg56
(lp4376
g49
(g50
g51
NtRp4377
(dp4378
g54
(dp4379
g62
I4
ssg63
g4373
sg56
(lp4380
S'Web2py Web Framework'
p4381
asbasbasbag49
(g65
g51
NtRp4382
(dp4383
g54
(dp4384
sg63
g4290
sg56
(lp4385
g49
(g70
g51
NtRp4386
(dp4387
g54
(dp4388
g74
g75
ssg63
g4382
sg56
(lp4389
S'keywords'
p4390
asbag49
(g70
g51
NtRp4391
(dp4392
g54
(dp4393
g81
g82
ssg63
g4382
sg56
(lp4394
S':'
asbag49
(g70
g51
NtRp4395
(dp4396
g54
(dp4397
sg63
g4382
sg56
(lp4398
g49
(g50
g51
NtRp4399
(dp4400
g54
(dp4401
g62
I4
ssg63
g4395
sg56
(lp4402
S'web2py, python, framework'
p4403
asbasbasbasbasbasbasbag49
(g65
g51
NtRp4404
(dp4405
g54
(dp4406
sg63
g3113
sg56
(lp4407
g49
(g70
g51
NtRp4408
(dp4409
g54
(dp4410
g74
g75
ssg63
g4404
sg56
(lp4411
S'postprocessing'
p4412
asbag49
(g70
g51
NtRp4413
(dp4414
g54
(dp4415
g81
g82
ssg63
g4404
sg56
(lp4416
S':'
asbag49
(g70
g51
NtRp4417
(dp4418
g54
(dp4419
sg63
g4404
sg56
(lp4420
g49
(g50
g51
NtRp4421
(dp4422
g54
(dp4423
g62
I5
ssg63
g4417
sg56
(lp4424
g49
(g58
g51
NtRp4425
(dp4426
g54
(dp4427
g62
I4
ssg63
Nsg56
(lp4428
sbasbasbasbag49
(g65
g51
NtRp4429
(dp4430
g54
(dp4431
sg63
g3113
sg56
(lp4432
g49
(g70
g51
NtRp4433
(dp4434
g54
(dp4435
g74
g75
ssg63
g4429
sg56
(lp4436
S'session_file'
p4437
asbag49
(g70
g51
NtRp4438
(dp4439
g54
(dp4440
g81
g82
ssg63
g4429
sg56
(lp4441
S':'
asbag49
(g70
g51
NtRp4442
(dp4443
g54
(dp4444
sg63
g4429
sg56
(lp4445
g49
(g50
g51
NtRp4446
(dp4447
g54
(dp4448
g62
I5
ssg63
g4442
sg56
(lp4449
S"<open file '/Users/udimilo/Documents/web2py/applications/udi0312/sessions/127.0.0.1-fcd6a577-d448-4882-b7bc-f353da84ba3b', mode 'rb+' at 0xa3f5f08>"
p4450
asbasbasbag49
(g65
g51
NtRp4451
(dp4452
g54
(dp4453
sg63
g3113
sg56
(lp4454
g49
(g70
g51
NtRp4455
(dp4456
g54
(dp4457
g74
g75
ssg63
g4451
sg56
(lp4458
S'session_filename'
p4459
asbag49
(g70
g51
NtRp4460
(dp4461
g54
(dp4462
g81
g82
ssg63
g4451
sg56
(lp4463
S':'
asbag49
(g70
g51
NtRp4464
(dp4465
g54
(dp4466
sg63
g4451
sg56
(lp4467
g49
(g50
g51
NtRp4468
(dp4469
g54
(dp4470
g62
I5
ssg63
g4464
sg56
(lp4471
S'/Users/udimilo/Documents/web2py/applications/udi0312/sessions/127.0.0.1-fcd6a577-d448-4882-b7bc-f353da84ba3b'
p4472
asbasbasbag49
(g65
g51
NtRp4473
(dp4474
g54
(dp4475
sg63
g3113
sg56
(lp4476
g49
(g70
g51
NtRp4477
(dp4478
g54
(dp4479
g74
g75
ssg63
g4473
sg56
(lp4480
S'session_id'
p4481
asbag49
(g70
g51
NtRp4482
(dp4483
g54
(dp4484
g81
g82
ssg63
g4473
sg56
(lp4485
S':'
asbag49
(g70
g51
NtRp4486
(dp4487
g54
(dp4488
sg63
g4473
sg56
(lp4489
g49
(g50
g51
NtRp4490
(dp4491
g54
(dp4492
g62
I5
ssg63
g4486
sg56
(lp4493
S'127.0.0.1-fcd6a577-d448-4882-b7bc-f353da84ba3b'
p4494
asbasbasbag49
(g65
g51
NtRp4495
(dp4496
g54
(dp4497
sg63
g3113
sg56
(lp4498
g49
(g70
g51
NtRp4499
(dp4500
g54
(dp4501
g74
g75
ssg63
g4495
sg56
(lp4502
S'session_id_name'
p4503
asbag49
(g70
g51
NtRp4504
(dp4505
g54
(dp4506
g81
g82
ssg63
g4495
sg56
(lp4507
S':'
asbag49
(g70
g51
NtRp4508
(dp4509
g54
(dp4510
sg63
g4495
sg56
(lp4511
g49
(g50
g51
NtRp4512
(dp4513
g54
(dp4514
g62
I5
ssg63
g4508
sg56
(lp4515
g3170
asbasbasbag49
(g65
g51
NtRp4516
(dp4517
g54
(dp4518
sg63
g3113
sg56
(lp4519
g49
(g70
g51
NtRp4520
(dp4521
g54
(dp4522
g74
g75
ssg63
g4516
sg56
(lp4523
S'session_locked'
p4524
asbag49
(g70
g51
NtRp4525
(dp4526
g54
(dp4527
g81
g82
ssg63
g4516
sg56
(lp4528
S':'
asbag49
(g70
g51
NtRp4529
(dp4530
g54
(dp4531
sg63
g4516
sg56
(lp4532
g49
(g50
g51
NtRp4533
(dp4534
g54
(dp4535
g62
I5
ssg63
g4529
sg56
(lp4536
g1651
asbasbasbag49
(g65
g51
NtRp4537
(dp4538
g54
(dp4539
sg63
g3113
sg56
(lp4540
g49
(g70
g51
NtRp4541
(dp4542
g54
(dp4543
g74
g75
ssg63
g4537
sg56
(lp4544
S'session_new'
p4545
asbag49
(g70
g51
NtRp4546
(dp4547
g54
(dp4548
g81
g82
ssg63
g4537
sg56
(lp4549
S':'
asbag49
(g70
g51
NtRp4550
(dp4551
g54
(dp4552
sg63
g4537
sg56
(lp4553
g49
(g50
g51
NtRp4554
(dp4555
g54
(dp4556
g62
I5
ssg63
g4550
sg56
(lp4557
g92
asbasbasbag49
(g65
g51
NtRp4558
(dp4559
g54
(dp4560
sg63
g3113
sg56
(lp4561
g49
(g70
g51
NtRp4562
(dp4563
g54
(dp4564
g74
g75
ssg63
g4558
sg56
(lp4565
S'status'
p4566
asbag49
(g70
g51
NtRp4567
(dp4568
g54
(dp4569
g81
g82
ssg63
g4558
sg56
(lp4570
S':'
asbag49
(g70
g51
NtRp4571
(dp4572
g54
(dp4573
sg63
g4558
sg56
(lp4574
g49
(g50
g51
NtRp4575
(dp4576
g54
(dp4577
g62
I5
ssg63
g4571
sg56
(lp4578
S'200'
p4579
asbasbasbag49
(g65
g51
NtRp4580
(dp4581
g54
(dp4582
sg63
g3113
sg56
(lp4583
g49
(g70
g51
NtRp4584
(dp4585
g54
(dp4586
g74
g75
ssg63
g4580
sg56
(lp4587
S'subtitle'
p4588
asbag49
(g70
g51
NtRp4589
(dp4590
g54
(dp4591
g81
g82
ssg63
g4580
sg56
(lp4592
S':'
asbag49
(g70
g51
NtRp4593
(dp4594
g54
(dp4595
sg63
g4580
sg56
(lp4596
g49
(g50
g51
NtRp4597
(dp4598
g54
(dp4599
g62
I5
ssg63
g4593
sg56
(lp4600
g3650
(S's\r\x00\x00\x00customize me!'
tRp4601
asbasbasbag49
(g65
g51
NtRp4602
(dp4603
g54
(dp4604
sg63
g3113
sg56
(lp4605
g49
(g70
g51
NtRp4606
(dp4607
g54
(dp4608
g74
g75
ssg63
g4602
sg56
(lp4609
S'title'
p4610
asbag49
(g70
g51
NtRp4611
(dp4612
g54
(dp4613
g81
g82
ssg63
g4602
sg56
(lp4614
S':'
asbag49
(g70
g51
NtRp4615
(dp4616
g54
(dp4617
sg63
g4602
sg56
(lp4618
g49
(g50
g51
NtRp4619
(dp4620
g54
(dp4621
g62
I5
ssg63
g4615
sg56
(lp4622
S'Udi0312'
p4623
asbasbasbag49
(g65
g51
NtRp4624
(dp4625
g54
(dp4626
sg63
g3113
sg56
(lp4627
g49
(g70
g51
NtRp4628
(dp4629
g54
(dp4630
g74
g75
ssg63
g4624
sg56
(lp4631
g2314
asbag49
(g70
g51
NtRp4632
(dp4633
g54
(dp4634
g81
g82
ssg63
g4624
sg56
(lp4635
S':'
asbag49
(g70
g51
NtRp4636
(dp4637
g54
(dp4638
sg63
g4624
sg56
(lp4639
g49
(g50
g51
NtRp4640
(dp4641
g54
(dp4642
g62
I5
ssg63
g4636
sg56
(lp4643
g2327
asbasbasbag49
(g65
g51
NtRp4644
(dp4645
g54
(dp4646
sg63
g3113
sg56
(lp4647
g49
(g70
g51
NtRp4648
(dp4649
g54
(dp4650
g74
g75
ssg63
g4644
sg56
(lp4651
S'view'
p4652
asbag49
(g70
g51
NtRp4653
(dp4654
g54
(dp4655
g81
g82
ssg63
g4644
sg56
(lp4656
S':'
asbag49
(g70
g51
NtRp4657
(dp4658
g54
(dp4659
sg63
g4644
sg56
(lp4660
g49
(g50
g51
NtRp4661
(dp4662
g54
(dp4663
g62
I5
ssg63
g4657
sg56
(lp4664
S'default/index.html'
p4665
asbasbasbasbasbsS'locals'
p4666
(dp4667
S'Service'
p4668
S"<class 'gluon.tools.Service'>"
p4669
sS'OBJECT'
p4670
S"<class 'gluon.html.OBJECT'>"
p4671
sS'SQLDB'
p4672
S"<class 'gluon.dal.DAL'>"
p4673
sg3073
S"<Storage {'_formkey[board/1]': '71887e52-d612-4d...sword]': '2cfe8cac-83e4-4a60-acdb-888c53401faf'}>"
p4674
sS'LINK'
p4675
S"<class 'gluon.html.LINK'>"
p4676
sS'BR'
p4677
S"<class 'gluon.html.BR'>"
p4678
sS'local_import'
p4679
S'<function <lambda> at 0x9d624b0>'
p4680
sS'OPTGROUP'
p4681
S"<class 'gluon.html.OPTGROUP'>"
p4682
sS'PRE'
p4683
S"<class 'gluon.html.PRE'>"
p4684
sS'IS_INT_IN_RANGE'
p4685
S"<class 'gluon.validators.IS_INT_IN_RANGE'>"
p4686
sS'IS_LOWER'
p4687
S"<class 'gluon.validators.IS_LOWER'>"
p4688
sS'IS_STRONG'
p4689
S"<class 'gluon.validators.IS_STRONG'>"
p4690
sS'cache'
p4691
S'<gluon.cache.Cache object at 0xa2d0210>'
p4692
sS'IS_IN_DB'
p4693
S"<class 'gluon.validators.IS_IN_DB'>"
p4694
sS'TAG'
p4695
S'<gluon.html.__TAG__ object at 0x1230850>'
p4696
sS'board'
p4697
S"'name'"
p4698
sS'SQLField'
p4699
S"<class 'gluon.dal.Field'>"
p4700
sS'mail'
p4701
S'<gluon.tools.Mail object at 0xa6a8910>'
p4702
sS'BODY'
p4703
S"<class 'gluon.html.BODY'>"
p4704
sS'IS_DATE_IN_RANGE'
p4705
S"<class 'gluon.validators.IS_DATE_IN_RANGE'>"
p4706
sS'TH'
p4707
S"<class 'gluon.html.TH'>"
p4708
sS'URL'
p4709
S'<function URL at 0x1241c30>'
p4710
sS'__file__'
p4711
S"'/Users/udimilo/Documents/web2py/applications/udi0312/views/default/index.html'"
p4712
sS'db'
p4713
S"<DAL {'auth_event': <Table {'origin': <gluon.dal...mgURL': <gluon.dal.Field object at 0xa835d10>}>}>"
p4714
sS'auth'
p4715
S'<gluon.tools.Auth object at 0xa6a8ab0>'
p4716
sS'P'
S"<class 'gluon.html.P'>"
p4717
sS'TFOOT'
p4718
S"<class 'gluon.html.TFOOT'>"
p4719
sS'XHTML'
p4720
S"<class 'gluon.html.XHTML'>"
p4721
sS'categories'
p4722
S'<gluon.dal.Rows object at 0xa88b090>'
p4723
sS'ON'
p4724
g1651
sS'OL'
p4725
S"<class 'gluon.html.OL'>"
p4726
sS'TEXTAREA'
p4727
S"<class 'gluon.html.TEXTAREA'>"
p4728
sS'MENU'
p4729
S"<class 'gluon.html.MENU'>"
p4730
sS'LOAD'
p4731
S'<function LOAD at 0x2af5430>'
p4732
sS'CODE'
p4733
S"<class 'gluon.html.CODE'>"
p4734
sS'HTTP'
p4735
S"<class 'gluon.http.HTTP'>"
p4736
sS'HR'
p4737
S"<class 'gluon.html.HR'>"
p4738
sS'IS_DATETIME'
p4739
S"<class 'gluon.validators.IS_DATETIME'>"
p4740
sS'HEAD'
p4741
S"<class 'gluon.html.HEAD'>"
p4742
sS'LABEL'
p4743
S"<class 'gluon.html.LABEL'>"
p4744
sS'CLEANUP'
p4745
S"<class 'gluon.validators.CLEANUP'>"
p4746
sS'plugins'
p4747
S'<gluon.tools.PluginManager object at 0x9fa49b0>'
p4748
sS'SELECT'
p4749
S"<class 'gluon.html.SELECT'>"
p4750
sS'CENTER'
p4751
S"<class 'gluon.html.CENTER'>"
p4752
sS'prettydate'
p4753
S'<function prettydate at 0x9d33eb0>'
p4754
sS'Crud'
p4755
S"<class 'gluon.tools.Crud'>"
p4756
sS'Auth'
p4757
S"<class 'gluon.tools.Auth'>"
p4758
sS'__builtins__'
p4759
S"{'ArithmeticError': <type 'exceptions.ArithmeticError'>, 'AssertionError': <type 'exceptions.AssertionError'>, 'AttributeError': <type 'exceptions.AttributeError'>, 'BaseException': <type 'exceptions.BaseException'>, 'DeprecationWarning': <type 'exceptions.DeprecationWarning'>, 'EOFError': <type 'exceptions.EOFError'>, 'Ellipsis': Ellipsis, 'EnvironmentError': <type 'exceptions.EnvironmentError'>, 'Exception': <type 'exceptions.Exception'>, 'False': False, ...}"
p4760
sS'HTML'
p4761
S"<class 'gluon.html.HTML'>"
p4762
sS'SQLFORM'
p4763
S"<class 'gluon.sqlhtml.SQLFORM'>"
p4764
sS'EM'
p4765
S"<class 'gluon.html.EM'>"
p4766
sS'redirect'
p4767
S'<function redirect at 0x654370>'
p4768
sS'FIELDSET'
p4769
S"<class 'gluon.html.FIELDSET'>"
p4770
sS'IS_EQUAL_TO'
p4771
S"<class 'gluon.validators.IS_EQUAL_TO'>"
p4772
sS'embed64'
p4773
S'<function embed64 at 0x1244770>'
p4774
sS'IS_LIST_OF'
p4775
S"<class 'gluon.validators.IS_LIST_OF'>"
p4776
sS'__name__'
p4777
S"'__restricted__'"
p4778
sS'EMBED'
p4779
S"<class 'gluon.html.EMBED'>"
p4780
sS'_'
S'<function _ at 0x8d57e70>'
p4781
sS'FORM'
p4782
S"<class 'gluon.html.FORM'>"
p4783
sS'boards'
p4784
S"{'name': 'nothing'}"
p4785
sS'H2'
p4786
S"<class 'gluon.html.H2'>"
p4787
sS'items'
p4788
S'<gluon.dal.Rows object at 0xa88b170>'
p4789
sS'BUTTON'
p4790
S"<class 'gluon.html.BUTTON'>"
p4791
sS'H1'
p4792
S"<class 'gluon.html.H1'>"
p4793
sS'H6'
p4794
S"<class 'gluon.html.H6'>"
p4795
sS'H4'
p4796
S"<class 'gluon.html.H4'>"
p4797
sS'H5'
p4798
S"<class 'gluon.html.H5'>"
p4799
sS'UL'
p4800
S"<class 'gluon.html.UL'>"
p4801
sS'IS_UPPER'
p4802
S"<class 'gluon.validators.IS_UPPER'>"
p4803
sS'xmlescape'
p4804
S'<function xmlescape at 0x1241bb0>'
p4805
sS'IS_TIME'
p4806
S"<class 'gluon.validators.IS_TIME'>"
p4807
sS'OPTION'
p4808
S"<class 'gluon.html.OPTION'>"
p4809
sS'TITLE'
p4810
S"<class 'gluon.html.TITLE'>"
p4811
sS'CRYPT'
p4812
S"<class 'gluon.validators.CRYPT'>"
p4813
sS'IS_EMPTY_OR'
p4814
S"<class 'gluon.validators.IS_EMPTY_OR'>"
p4815
sS'MARKMIN'
p4816
S"<class 'gluon.html.MARKMIN'>"
p4817
sS'INPUT'
p4818
S"<class 'gluon.html.INPUT'>"
p4819
sS'COL'
p4820
S"<class 'gluon.html.COL'>"
p4821
sS'service'
p4822
S'<gluon.tools.Service object at 0xa2f8af0>'
p4823
sS'SCRIPT'
p4824
S"<class 'gluon.html.SCRIPT'>"
p4825
sS'TABLE'
p4826
S"<class 'gluon.html.TABLE'>"
p4827
sS'IS_IPV4'
p4828
S"<class 'gluon.validators.IS_IPV4'>"
p4829
sS'IS_LENGTH'
p4830
S"<class 'gluon.validators.IS_LENGTH'>"
p4831
sS'XML'
p4832
S"<class 'gluon.html.XML'>"
p4833
sS'B'
S"<class 'gluon.html.B'>"
p4834
sS'IMG'
p4835
S"<class 'gluon.html.IMG'>"
p4836
sS'SQLTABLE'
p4837
S"<class 'gluon.sqlhtml.SQLTABLE'>"
p4838
sS'IS_MATCH'
p4839
S"<class 'gluon.validators.IS_MATCH'>"
p4840
sS'IS_ALPHANUMERIC'
p4841
S"<class 'gluon.validators.IS_ALPHANUMERIC'>"
p4842
sS'SPAN'
p4843
S"<class 'gluon.html.SPAN'>"
p4844
sS'IS_SLUG'
p4845
S"<class 'gluon.validators.IS_SLUG'>"
p4846
sS'BEAUTIFY'
p4847
S"<class 'gluon.html.BEAUTIFY'>"
p4848
sS'META'
p4849
S"<class 'gluon.html.META'>"
p4850
sS'H3'
p4851
S"<class 'gluon.html.H3'>"
p4852
sS'IS_DATE'
p4853
S"<class 'gluon.validators.IS_DATE'>"
p4854
sS'IS_EMAIL'
p4855
S"<class 'gluon.validators.IS_EMAIL'>"
p4856
sS'IS_NOT_EMPTY'
p4857
S"<class 'gluon.validators.IS_NOT_EMPTY'>"
p4858
sg48
S"<Storage {'body': <cStringIO.StringO object at 0..._vars': <Storage {}>, 'post_vars': <Storage {}>}>"
p4859
sS'TBODY'
p4860
S"<class 'gluon.html.TBODY'>"
p4861
sS'CAT'
p4862
S"<class 'gluon.html.CAT'>"
p4863
sS'Field'
p4864
S"<class 'gluon.dal.Field'>"
p4865
sS'DIV'
p4866
S"<class 'gluon.html.DIV'>"
p4867
sS'LEGEND'
p4868
S"<class 'gluon.html.LEGEND'>"
p4869
sS'COLGROUP'
p4870
S"<class 'gluon.html.COLGROUP'>"
p4871
sS'DAL'
p4872
S"<class 'gluon.dal.DAL'>"
p4873
sS'TT'
p4874
S"<class 'gluon.html.TT'>"
p4875
sS'TR'
p4876
S"<class 'gluon.html.TR'>"
p4877
sS'LI'
p4878
S"<class 'gluon.html.LI'>"
p4879
sS'IFRAME'
p4880
S"<class 'gluon.html.IFRAME'>"
p4881
sS'TD'
p4882
S"<class 'gluon.html.TD'>"
p4883
sS'PluginManager'
p4884
S"<class 'gluon.tools.PluginManager'>"
p4885
sS'IS_URL'
p4886
S"<class 'gluon.validators.IS_URL'>"
p4887
sS'A'
S"<class 'gluon.html.A'>"
p4888
sS'STYLE'
p4889
S"<class 'gluon.html.STYLE'>"
p4890
sS'IS_DATETIME_IN_RANGE'
p4891
S"<class 'gluon.validators.IS_DATETIME_IN_RANGE'>"
p4892
sS'IS_IMAGE'
p4893
S"<class 'gluon.validators.IS_IMAGE'>"
p4894
sS'I'
S"<class 'gluon.html.I'>"
p4895
sS'crud'
p4896
S'<gluon.tools.Crud object at 0xa2f8d50>'
p4897
sS'IS_NOT_IN_DB'
p4898
S"<class 'gluon.validators.IS_NOT_IN_DB'>"
p4899
sg3108
S"<Storage {'body': <cStringIO.StringO object at 0...da> at 0x9d62170>, 'view': 'default/index.html'}>"
p4900
sS'THEAD'
p4901
S"<class 'gluon.html.THEAD'>"
p4902
sS'IS_NULL_OR'
p4903
S"<class 'gluon.validators.IS_EMPTY_OR'>"
p4904
sS'IS_FLOAT_IN_RANGE'
p4905
S"<class 'gluon.validators.IS_FLOAT_IN_RANGE'>"
p4906
sS'IS_EXPR'
p4907
S"<class 'gluon.validators.IS_EXPR'>"
p4908
sS'T'
S'<gluon.languages.translator object at 0xa2d0ff0>'
p4909
sS'IS_IN_SET'
p4910
S"<class 'gluon.validators.IS_IN_SET'>"
p4911
sS'IS_UPLOAD_FILENAME'
p4912
S"<class 'gluon.validators.IS_UPLOAD_FILENAME'>"
p4913
sS'IS_DECIMAL_IN_RANGE'
p4914
S"<class 'gluon.validators.IS_DECIMAL_IN_RANGE'>"
p4915
sssS'traceback'
p4916
S'Traceback (most recent call last):\n  File "/users/udimilo/Documents/web2py/gluon/restricted.py", line 205, in restricted\n    exec ccode in environment\n  File "/Users/udimilo/Documents/web2py/applications/udi0312/views/default/index.html", line 10, in <module>\n    <li>\nAttributeError: \'str\' object has no attribute \'name\'\n'
p4917
s.