(dp1
S'output'
p2
S"<type 'exceptions.SyntaxError'> invalid syntax (index.html, line 6)"
p3
sS'layer'
p4
S'/Users/udimilo/Documents/web2py/applications/udi0312/views/default/index.html'
p5
sS'code'
p6
S'response.write(\'<html lan="en">\\n<head>\\n    <title>Biz</title>\\n    <script type="text/javascript" src="http://ajax.googleapis.com/ajax/libs/jquery/1.7.1/jquery.min.js"></script>\\n    <script type="text/javascript" src="/udi0312/static/js/jquery.wookmark.js"></script>\\n    <link href=\\\'http://fonts.googleapis.com/css?family=PT+Sans\\\' rel=\\\'stylesheet\\\' type=\\\'text/css\\\'>\\n    <link href=\\\'/udi0312/static/css/site.css\\\' rel=\\\'stylesheet\\\' type=\\\'text/css\\\'>\\n    </head>\\n<body>\\n    <div id="header">\\n        <div id="search">\\n            <input type="text" id="query" size="27" value="Search">\\n            <a id="query_button" href="#" class="lg"><img src="http://passets-cdn.pinterest.com/images/search.gif" alt=""></a>\\n        </div>\\n        <a id="logo" href="/"><img src="http://press.linkedin.com/sites/all/themes/presslinkedin/images/LinkedIn_IN_Icon_25px.png"/><span>formation</span></a>\\n        <ul id="navigation">\\n            <li>\', escape=False)\nresponse.write(\'auth\' in globals() and auth.navbar(separators=(\' \',\' | \',\'\')))\nresponse.write(\'</li>\\n        </ul>\\n    </div>\\n    <div id="showItem">\\n        <div id="itemHeader" class="clearfix">\\n            <div id="itemCreator">\\n                <div id="showItemClose"></div>\\n                <img src="http://profile.ak.fbcdn.net/hprofile-ak-snc4/373721_202953045644_22849796_q.jpg" />\\n                <div id="creatorName">Neytiri</div>\\n                <div id="creatorStats">Pinned 1 hour ago from TechCrunch.com</div>\\n            </div>\\n        </div>\\n        <div id="showItemContent" class="clearfix"></div>\\n    </div>\\n\', escape=False)\nresponse.write(\'\\n\', escape=False)\nresponse.write(\'\\n<div id="addBar">\\n    <ul>\\n        <li><span>URL</span><input /></li>\\n        <li>\\n            <select>\\n            \', escape=False)\nboard in boards:\n    response.write(\'\\n            \', escape=False)\n    pass\nresponse.write(\'                \\n            </select>        \\n        </ul>            \\n        </li>\\n        <li><input type="submit" /></li>\\n        <li></li>\\n    </ul>\\n</div>\\n<div id="categoriesBar">\\n    <ul id="categoriesNav">\\n        <li><b>Info you follow</b></li>\\n        <li><a href="#">Everything</a></li>\\n        <li><a href="#">Popular</a></li>\\n        <li><a href="#">Recommended</a></li>\\n        <li><a href="#" id="addButton">Add +</a></li>\\n    </ul>\\n</div>\\n\\n<div id="wrapper">\\n    <ul id="example">\\n        \', escape=False)\nfor item in items:\n    response.write(\'\\n            <li style="height:\', escape=False)\n    response.write(item[\'height\'])\n    response.write(\'px">\\n                <div class="itemWrapper">\\n                    <div class="actions">\\n                        <a href="#" class="whiteButton repinButton"><em></em><strong>Repin</strong></a>\\n                        <a href="#" class="whiteButton likeButton"><em></em><strong>Like</strong></a>\\n                        <a href="#" class="whiteButton commentButton"><em></em><strong>Comment</strong></a>\\n                    </div>\\n                    <h1 class="itemTitle"><a href="\', escape=False)\n    response.write(item[\'url\'])\n    response.write(\'">\', escape=False)\n    response.write(item[\'title\'])\n    response.write(\'</a></h1>\\n                    <h2 class="itemSubtitle">\\n                        <a href="#">\\n                            <img src="\', escape=False)\n    response.write(item[\'iconURL\'])\n    response.write(\'"/>\\n                            <span>\', escape=False)\n    response.write(item[\'source\'])\n    response.write(\'<span>\\n                        </a>\\n                        <label class="itemTime">3 hours ago</label>\\n                    </h2>\\n                    <div class="itemContent">\\n                        <img src="\', escape=False)\n    response.write(item[\'imgURL\'])\n    response.write(\'" />\\n                        <label class="itemText" />\\n                    </div>\\n                </div>\\n            </li>\\n        \', escape=False)\n    pass\nresponse.write(\'\\n    </ul>\\n</div>\\n\', escape=False)\nresponse.write(\'\\n\', escape=False)\nresponse.write(\'\\n    <script type="text/javascript" src="/udi0312/static/js/site.js"></script>\\n</body>\\n</html>\\n\', escape=False)'
p7
sS'snapshot'
p8
(dp9
S'exception'
p10
(dp11
S'__getslice__'
p12
S"<method-wrapper '__getslice__' of exceptions.SyntaxError object at 0x8e1aaf0>"
p13
sS'text'
p14
S"'board in boards:\\n'"
p15
sS'__str__'
p16
S"<method-wrapper '__str__' of exceptions.SyntaxError object at 0x8e1aaf0>"
p17
sS'__reduce__'
p18
S'<built-in method __reduce__ of exceptions.SyntaxError object at 0x8e1aaf0>'
p19
sS'__dict__'
p20
S'{}'
p21
sS'__init__'
p22
S"<method-wrapper '__init__' of exceptions.SyntaxError object at 0x8e1aaf0>"
p23
sS'__setattr__'
p24
S"<method-wrapper '__setattr__' of exceptions.SyntaxError object at 0x8e1aaf0>"
p25
sS'__reduce_ex__'
p26
S'<built-in method __reduce_ex__ of exceptions.SyntaxError object at 0x8e1aaf0>'
p27
sS'__new__'
p28
S'<built-in method __new__ of type object at 0x100320>'
p29
sS'__class__'
p30
S"<type 'exceptions.SyntaxError'>"
p31
sS'filename'
p32
S"'/Users/udimilo/Documents/web2py/applications/udi0312/views/default/index.html'"
p33
sS'lineno'
p34
S'6'
sS'msg'
p35
S"'invalid syntax'"
p36
sS'__doc__'
p37
S"'Invalid syntax.'"
p38
sS'__getitem__'
p39
S"<method-wrapper '__getitem__' of exceptions.SyntaxError object at 0x8e1aaf0>"
p40
sS'__setstate__'
p41
S'<built-in method __setstate__ of exceptions.SyntaxError object at 0x8e1aaf0>'
p42
sS'__getattribute__'
p43
S"<method-wrapper '__getattribute__' of exceptions.SyntaxError object at 0x8e1aaf0>"
p44
sS'print_file_and_line'
p45
S'None'
p46
sS'args'
p47
S"('invalid syntax', ('/Users/udimilo/Documents/web2py/applications/udi0312/views/default/index.html', 6, 16, 'board in boards:\\n'))"
p48
sS'offset'
p49
S'16'
p50
sS'__delattr__'
p51
S"<method-wrapper '__delattr__' of exceptions.SyntaxError object at 0x8e1aaf0>"
p52
sS'__repr__'
p53
S"<method-wrapper '__repr__' of exceptions.SyntaxError object at 0x8e1aaf0>"
p54
sS'__hash__'
p55
S"<method-wrapper '__hash__' of exceptions.SyntaxError object at 0x8e1aaf0>"
p56
ssS'evalue'
p57
S'invalid syntax (index.html, line 6)'
p58
sS'request'
p59
ccopy_reg
_reconstructor
p60
(cgluon.html
BEAUTIFY
p61
c__builtin__
object
p62
NtRp63
(dp64
S'attributes'
p65
(dp66
sS'components'
p67
(lp68
g60
(cgluon.html
TABLE
p69
g62
NtRp70
(dp71
g65
(dp72
S'level'
p73
I5
ssS'parent'
p74
Nsg67
(lp75
g60
(cgluon.html
TR
p76
g62
NtRp77
(dp78
g65
(dp79
sg74
g70
sg67
(lp80
g60
(cgluon.html
TD
p81
g62
NtRp82
(dp83
g65
(dp84
S'_style'
p85
S'font-weight:bold;vertical-align:top'
p86
ssg74
g77
sg67
(lp87
S'ajax'
p88
asbag60
(g81
g62
NtRp89
(dp90
g65
(dp91
S'_valign'
p92
S'top'
p93
ssg74
g77
sg67
(lp94
S':'
asbag60
(g81
g62
NtRp95
(dp96
g65
(dp97
sg74
g77
sg67
(lp98
g60
(g61
g62
NtRp99
(dp100
g65
(dp101
g73
I5
ssg74
g95
sg67
(lp102
S'False'
p103
asbasbasbag60
(g76
g62
NtRp104
(dp105
g65
(dp106
sg74
g70
sg67
(lp107
g60
(g81
g62
NtRp108
(dp109
g65
(dp110
g85
g86
ssg74
g104
sg67
(lp111
S'application'
p112
asbag60
(g81
g62
NtRp113
(dp114
g65
(dp115
g92
g93
ssg74
g104
sg67
(lp116
S':'
asbag60
(g81
g62
NtRp117
(dp118
g65
(dp119
sg74
g104
sg67
(lp120
g60
(g61
g62
NtRp121
(dp122
g65
(dp123
g73
I5
ssg74
g117
sg67
(lp124
S'udi0312'
p125
asbasbasbag60
(g76
g62
NtRp126
(dp127
g65
(dp128
sg74
g70
sg67
(lp129
g60
(g81
g62
NtRp130
(dp131
g65
(dp132
g85
g86
ssg74
g126
sg67
(lp133
g47
asbag60
(g81
g62
NtRp134
(dp135
g65
(dp136
g92
g93
ssg74
g126
sg67
(lp137
S':'
asbag60
(g81
g62
NtRp138
(dp139
g65
(dp140
sg74
g126
sg67
(lp141
g60
(g61
g62
NtRp142
(dp143
g65
(dp144
g73
I5
ssg74
g138
sg67
(lp145
g60
(g69
g62
NtRp146
(dp147
g65
(dp148
g73
I4
ssg74
Nsg67
(lp149
sbasbasbasbag60
(g76
g62
NtRp150
(dp151
g65
(dp152
sg74
g70
sg67
(lp153
g60
(g81
g62
NtRp154
(dp155
g65
(dp156
g85
g86
ssg74
g150
sg67
(lp157
S'body'
p158
asbag60
(g81
g62
NtRp159
(dp160
g65
(dp161
g92
g93
ssg74
g150
sg67
(lp162
S':'
asbag60
(g81
g62
NtRp163
(dp164
g65
(dp165
sg74
g150
sg67
(lp166
g60
(g61
g62
NtRp167
(dp168
g65
(dp169
g73
I5
ssg74
g163
sg67
(lp170
S'<cStringIO.StringO object at 0xa5980a0>'
p171
asbasbasbag60
(g76
g62
NtRp172
(dp173
g65
(dp174
sg74
g70
sg67
(lp175
g60
(g81
g62
NtRp176
(dp177
g65
(dp178
g85
g86
ssg74
g172
sg67
(lp179
S'client'
p180
asbag60
(g81
g62
NtRp181
(dp182
g65
(dp183
g92
g93
ssg74
g172
sg67
(lp184
S':'
asbag60
(g81
g62
NtRp185
(dp186
g65
(dp187
sg74
g172
sg67
(lp188
g60
(g61
g62
NtRp189
(dp190
g65
(dp191
g73
I5
ssg74
g185
sg67
(lp192
S'127.0.0.1'
p193
asbasbasbag60
(g76
g62
NtRp194
(dp195
g65
(dp196
sg74
g70
sg67
(lp197
g60
(g81
g62
NtRp198
(dp199
g65
(dp200
g85
g86
ssg74
g194
sg67
(lp201
S'controller'
p202
asbag60
(g81
g62
NtRp203
(dp204
g65
(dp205
g92
g93
ssg74
g194
sg67
(lp206
S':'
asbag60
(g81
g62
NtRp207
(dp208
g65
(dp209
sg74
g194
sg67
(lp210
g60
(g61
g62
NtRp211
(dp212
g65
(dp213
g73
I5
ssg74
g207
sg67
(lp214
S'default'
p215
asbasbasbag60
(g76
g62
NtRp216
(dp217
g65
(dp218
sg74
g70
sg67
(lp219
g60
(g81
g62
NtRp220
(dp221
g65
(dp222
g85
g86
ssg74
g216
sg67
(lp223
S'cookies'
p224
asbag60
(g81
g62
NtRp225
(dp226
g65
(dp227
g92
g93
ssg74
g216
sg67
(lp228
S':'
asbag60
(g81
g62
NtRp229
(dp230
g65
(dp231
sg74
g216
sg67
(lp232
g60
(g61
g62
NtRp233
(dp234
g65
(dp235
g73
I5
ssg74
g229
sg67
(lp236
g60
(g69
g62
NtRp237
(dp238
g65
(dp239
g73
I4
ssg74
Nsg67
(lp240
g60
(g76
g62
NtRp241
(dp242
g65
(dp243
sg74
g237
sg67
(lp244
g60
(g81
g62
NtRp245
(dp246
g65
(dp247
g85
g86
ssg74
g241
sg67
(lp248
S'session_id_admin'
p249
asbag60
(g81
g62
NtRp250
(dp251
g65
(dp252
g92
g93
ssg74
g241
sg67
(lp253
S':'
asbag60
(g81
g62
NtRp254
(dp255
g65
(dp256
sg74
g241
sg67
(lp257
g60
(g61
g62
NtRp258
(dp259
g65
(dp260
g73
I4
ssg74
g254
sg67
(lp261
g60
(g69
g62
NtRp262
(dp263
g65
(dp264
g73
I3
ssg74
Nsg67
(lp265
g60
(g76
g62
NtRp266
(dp267
g65
(dp268
sg74
g262
sg67
(lp269
g60
(g81
g62
NtRp270
(dp271
g65
(dp272
g85
g86
ssg74
g266
sg67
(lp273
S'comment'
p274
asbag60
(g81
g62
NtRp275
(dp276
g65
(dp277
g92
g93
ssg74
g266
sg67
(lp278
S':'
asbag60
(g81
g62
NtRp279
(dp280
g65
(dp281
sg74
g266
sg67
(lp282
g60
(g61
g62
NtRp283
(dp284
g65
(dp285
g73
I3
ssg74
g279
sg67
(lp286
S''
asbasbasbag60
(g76
g62
NtRp287
(dp288
g65
(dp289
sg74
g262
sg67
(lp290
g60
(g81
g62
NtRp291
(dp292
g65
(dp293
g85
g86
ssg74
g287
sg67
(lp294
S'domain'
p295
asbag60
(g81
g62
NtRp296
(dp297
g65
(dp298
g92
g93
ssg74
g287
sg67
(lp299
S':'
asbag60
(g81
g62
NtRp300
(dp301
g65
(dp302
sg74
g287
sg67
(lp303
g60
(g61
g62
NtRp304
(dp305
g65
(dp306
g73
I3
ssg74
g300
sg67
(lp307
S''
asbasbasbag60
(g76
g62
NtRp308
(dp309
g65
(dp310
sg74
g262
sg67
(lp311
g60
(g81
g62
NtRp312
(dp313
g65
(dp314
g85
g86
ssg74
g308
sg67
(lp315
S'expires'
p316
asbag60
(g81
g62
NtRp317
(dp318
g65
(dp319
g92
g93
ssg74
g308
sg67
(lp320
S':'
asbag60
(g81
g62
NtRp321
(dp322
g65
(dp323
sg74
g308
sg67
(lp324
g60
(g61
g62
NtRp325
(dp326
g65
(dp327
g73
I3
ssg74
g321
sg67
(lp328
S''
asbasbasbag60
(g76
g62
NtRp329
(dp330
g65
(dp331
sg74
g262
sg67
(lp332
g60
(g81
g62
NtRp333
(dp334
g65
(dp335
g85
g86
ssg74
g329
sg67
(lp336
S'max-age'
p337
asbag60
(g81
g62
NtRp338
(dp339
g65
(dp340
g92
g93
ssg74
g329
sg67
(lp341
S':'
asbag60
(g81
g62
NtRp342
(dp343
g65
(dp344
sg74
g329
sg67
(lp345
g60
(g61
g62
NtRp346
(dp347
g65
(dp348
g73
I3
ssg74
g342
sg67
(lp349
S''
asbasbasbag60
(g76
g62
NtRp350
(dp351
g65
(dp352
sg74
g262
sg67
(lp353
g60
(g81
g62
NtRp354
(dp355
g65
(dp356
g85
g86
ssg74
g350
sg67
(lp357
S'path'
p358
asbag60
(g81
g62
NtRp359
(dp360
g65
(dp361
g92
g93
ssg74
g350
sg67
(lp362
S':'
asbag60
(g81
g62
NtRp363
(dp364
g65
(dp365
sg74
g350
sg67
(lp366
g60
(g61
g62
NtRp367
(dp368
g65
(dp369
g73
I3
ssg74
g363
sg67
(lp370
S''
asbasbasbag60
(g76
g62
NtRp371
(dp372
g65
(dp373
sg74
g262
sg67
(lp374
g60
(g81
g62
NtRp375
(dp376
g65
(dp377
g85
g86
ssg74
g371
sg67
(lp378
S'secure'
p379
asbag60
(g81
g62
NtRp380
(dp381
g65
(dp382
g92
g93
ssg74
g371
sg67
(lp383
S':'
asbag60
(g81
g62
NtRp384
(dp385
g65
(dp386
sg74
g371
sg67
(lp387
g60
(g61
g62
NtRp388
(dp389
g65
(dp390
g73
I3
ssg74
g384
sg67
(lp391
S''
asbasbasbag60
(g76
g62
NtRp392
(dp393
g65
(dp394
sg74
g262
sg67
(lp395
g60
(g81
g62
NtRp396
(dp397
g65
(dp398
g85
g86
ssg74
g392
sg67
(lp399
S'version'
p400
asbag60
(g81
g62
NtRp401
(dp402
g65
(dp403
g92
g93
ssg74
g392
sg67
(lp404
S':'
asbag60
(g81
g62
NtRp405
(dp406
g65
(dp407
sg74
g392
sg67
(lp408
g60
(g61
g62
NtRp409
(dp410
g65
(dp411
g73
I3
ssg74
g405
sg67
(lp412
S''
asbasbasbasbasbasbasbag60
(g76
g62
NtRp413
(dp414
g65
(dp415
sg74
g237
sg67
(lp416
g60
(g81
g62
NtRp417
(dp418
g65
(dp419
g85
g86
ssg74
g413
sg67
(lp420
S'session_id_udi0312'
p421
asbag60
(g81
g62
NtRp422
(dp423
g65
(dp424
g92
g93
ssg74
g413
sg67
(lp425
S':'
asbag60
(g81
g62
NtRp426
(dp427
g65
(dp428
sg74
g413
sg67
(lp429
g60
(g61
g62
NtRp430
(dp431
g65
(dp432
g73
I4
ssg74
g426
sg67
(lp433
g60
(g69
g62
NtRp434
(dp435
g65
(dp436
g73
I3
ssg74
Nsg67
(lp437
g60
(g76
g62
NtRp438
(dp439
g65
(dp440
sg74
g434
sg67
(lp441
g60
(g81
g62
NtRp442
(dp443
g65
(dp444
g85
g86
ssg74
g438
sg67
(lp445
g274
asbag60
(g81
g62
NtRp446
(dp447
g65
(dp448
g92
g93
ssg74
g438
sg67
(lp449
S':'
asbag60
(g81
g62
NtRp450
(dp451
g65
(dp452
sg74
g438
sg67
(lp453
g60
(g61
g62
NtRp454
(dp455
g65
(dp456
g73
I3
ssg74
g450
sg67
(lp457
S''
asbasbasbag60
(g76
g62
NtRp458
(dp459
g65
(dp460
sg74
g434
sg67
(lp461
g60
(g81
g62
NtRp462
(dp463
g65
(dp464
g85
g86
ssg74
g458
sg67
(lp465
g295
asbag60
(g81
g62
NtRp466
(dp467
g65
(dp468
g92
g93
ssg74
g458
sg67
(lp469
S':'
asbag60
(g81
g62
NtRp470
(dp471
g65
(dp472
sg74
g458
sg67
(lp473
g60
(g61
g62
NtRp474
(dp475
g65
(dp476
g73
I3
ssg74
g470
sg67
(lp477
S''
asbasbasbag60
(g76
g62
NtRp478
(dp479
g65
(dp480
sg74
g434
sg67
(lp481
g60
(g81
g62
NtRp482
(dp483
g65
(dp484
g85
g86
ssg74
g478
sg67
(lp485
g316
asbag60
(g81
g62
NtRp486
(dp487
g65
(dp488
g92
g93
ssg74
g478
sg67
(lp489
S':'
asbag60
(g81
g62
NtRp490
(dp491
g65
(dp492
sg74
g478
sg67
(lp493
g60
(g61
g62
NtRp494
(dp495
g65
(dp496
g73
I3
ssg74
g490
sg67
(lp497
S''
asbasbasbag60
(g76
g62
NtRp498
(dp499
g65
(dp500
sg74
g434
sg67
(lp501
g60
(g81
g62
NtRp502
(dp503
g65
(dp504
g85
g86
ssg74
g498
sg67
(lp505
g337
asbag60
(g81
g62
NtRp506
(dp507
g65
(dp508
g92
g93
ssg74
g498
sg67
(lp509
S':'
asbag60
(g81
g62
NtRp510
(dp511
g65
(dp512
sg74
g498
sg67
(lp513
g60
(g61
g62
NtRp514
(dp515
g65
(dp516
g73
I3
ssg74
g510
sg67
(lp517
S''
asbasbasbag60
(g76
g62
NtRp518
(dp519
g65
(dp520
sg74
g434
sg67
(lp521
g60
(g81
g62
NtRp522
(dp523
g65
(dp524
g85
g86
ssg74
g518
sg67
(lp525
g358
asbag60
(g81
g62
NtRp526
(dp527
g65
(dp528
g92
g93
ssg74
g518
sg67
(lp529
S':'
asbag60
(g81
g62
NtRp530
(dp531
g65
(dp532
sg74
g518
sg67
(lp533
g60
(g61
g62
NtRp534
(dp535
g65
(dp536
g73
I3
ssg74
g530
sg67
(lp537
S''
asbasbasbag60
(g76
g62
NtRp538
(dp539
g65
(dp540
sg74
g434
sg67
(lp541
g60
(g81
g62
NtRp542
(dp543
g65
(dp544
g85
g86
ssg74
g538
sg67
(lp545
g379
asbag60
(g81
g62
NtRp546
(dp547
g65
(dp548
g92
g93
ssg74
g538
sg67
(lp549
S':'
asbag60
(g81
g62
NtRp550
(dp551
g65
(dp552
sg74
g538
sg67
(lp553
g60
(g61
g62
NtRp554
(dp555
g65
(dp556
g73
I3
ssg74
g550
sg67
(lp557
S''
asbasbasbag60
(g76
g62
NtRp558
(dp559
g65
(dp560
sg74
g434
sg67
(lp561
g60
(g81
g62
NtRp562
(dp563
g65
(dp564
g85
g86
ssg74
g558
sg67
(lp565
g400
asbag60
(g81
g62
NtRp566
(dp567
g65
(dp568
g92
g93
ssg74
g558
sg67
(lp569
S':'
asbag60
(g81
g62
NtRp570
(dp571
g65
(dp572
sg74
g558
sg67
(lp573
g60
(g61
g62
NtRp574
(dp575
g65
(dp576
g73
I3
ssg74
g570
sg67
(lp577
S''
asbasbasbasbasbasbasbag60
(g76
g62
NtRp578
(dp579
g65
(dp580
sg74
g237
sg67
(lp581
g60
(g81
g62
NtRp582
(dp583
g65
(dp584
g85
g86
ssg74
g578
sg67
(lp585
S'session_id_welcome'
p586
asbag60
(g81
g62
NtRp587
(dp588
g65
(dp589
g92
g93
ssg74
g578
sg67
(lp590
S':'
asbag60
(g81
g62
NtRp591
(dp592
g65
(dp593
sg74
g578
sg67
(lp594
g60
(g61
g62
NtRp595
(dp596
g65
(dp597
g73
I4
ssg74
g591
sg67
(lp598
g60
(g69
g62
NtRp599
(dp600
g65
(dp601
g73
I3
ssg74
Nsg67
(lp602
g60
(g76
g62
NtRp603
(dp604
g65
(dp605
sg74
g599
sg67
(lp606
g60
(g81
g62
NtRp607
(dp608
g65
(dp609
g85
g86
ssg74
g603
sg67
(lp610
g274
asbag60
(g81
g62
NtRp611
(dp612
g65
(dp613
g92
g93
ssg74
g603
sg67
(lp614
S':'
asbag60
(g81
g62
NtRp615
(dp616
g65
(dp617
sg74
g603
sg67
(lp618
g60
(g61
g62
NtRp619
(dp620
g65
(dp621
g73
I3
ssg74
g615
sg67
(lp622
S''
asbasbasbag60
(g76
g62
NtRp623
(dp624
g65
(dp625
sg74
g599
sg67
(lp626
g60
(g81
g62
NtRp627
(dp628
g65
(dp629
g85
g86
ssg74
g623
sg67
(lp630
g295
asbag60
(g81
g62
NtRp631
(dp632
g65
(dp633
g92
g93
ssg74
g623
sg67
(lp634
S':'
asbag60
(g81
g62
NtRp635
(dp636
g65
(dp637
sg74
g623
sg67
(lp638
g60
(g61
g62
NtRp639
(dp640
g65
(dp641
g73
I3
ssg74
g635
sg67
(lp642
S''
asbasbasbag60
(g76
g62
NtRp643
(dp644
g65
(dp645
sg74
g599
sg67
(lp646
g60
(g81
g62
NtRp647
(dp648
g65
(dp649
g85
g86
ssg74
g643
sg67
(lp650
g316
asbag60
(g81
g62
NtRp651
(dp652
g65
(dp653
g92
g93
ssg74
g643
sg67
(lp654
S':'
asbag60
(g81
g62
NtRp655
(dp656
g65
(dp657
sg74
g643
sg67
(lp658
g60
(g61
g62
NtRp659
(dp660
g65
(dp661
g73
I3
ssg74
g655
sg67
(lp662
S''
asbasbasbag60
(g76
g62
NtRp663
(dp664
g65
(dp665
sg74
g599
sg67
(lp666
g60
(g81
g62
NtRp667
(dp668
g65
(dp669
g85
g86
ssg74
g663
sg67
(lp670
g337
asbag60
(g81
g62
NtRp671
(dp672
g65
(dp673
g92
g93
ssg74
g663
sg67
(lp674
S':'
asbag60
(g81
g62
NtRp675
(dp676
g65
(dp677
sg74
g663
sg67
(lp678
g60
(g61
g62
NtRp679
(dp680
g65
(dp681
g73
I3
ssg74
g675
sg67
(lp682
S''
asbasbasbag60
(g76
g62
NtRp683
(dp684
g65
(dp685
sg74
g599
sg67
(lp686
g60
(g81
g62
NtRp687
(dp688
g65
(dp689
g85
g86
ssg74
g683
sg67
(lp690
g358
asbag60
(g81
g62
NtRp691
(dp692
g65
(dp693
g92
g93
ssg74
g683
sg67
(lp694
S':'
asbag60
(g81
g62
NtRp695
(dp696
g65
(dp697
sg74
g683
sg67
(lp698
g60
(g61
g62
NtRp699
(dp700
g65
(dp701
g73
I3
ssg74
g695
sg67
(lp702
S''
asbasbasbag60
(g76
g62
NtRp703
(dp704
g65
(dp705
sg74
g599
sg67
(lp706
g60
(g81
g62
NtRp707
(dp708
g65
(dp709
g85
g86
ssg74
g703
sg67
(lp710
g379
asbag60
(g81
g62
NtRp711
(dp712
g65
(dp713
g92
g93
ssg74
g703
sg67
(lp714
S':'
asbag60
(g81
g62
NtRp715
(dp716
g65
(dp717
sg74
g703
sg67
(lp718
g60
(g61
g62
NtRp719
(dp720
g65
(dp721
g73
I3
ssg74
g715
sg67
(lp722
S''
asbasbasbag60
(g76
g62
NtRp723
(dp724
g65
(dp725
sg74
g599
sg67
(lp726
g60
(g81
g62
NtRp727
(dp728
g65
(dp729
g85
g86
ssg74
g723
sg67
(lp730
g400
asbag60
(g81
g62
NtRp731
(dp732
g65
(dp733
g92
g93
ssg74
g723
sg67
(lp734
S':'
asbag60
(g81
g62
NtRp735
(dp736
g65
(dp737
sg74
g723
sg67
(lp738
g60
(g61
g62
NtRp739
(dp740
g65
(dp741
g73
I3
ssg74
g735
sg67
(lp742
S''
asbasbasbasbasbasbasbasbasbasbasbag60
(g76
g62
NtRp743
(dp744
g65
(dp745
sg74
g70
sg67
(lp746
g60
(g81
g62
NtRp747
(dp748
g65
(dp749
g85
g86
ssg74
g743
sg67
(lp750
S'env'
p751
asbag60
(g81
g62
NtRp752
(dp753
g65
(dp754
g92
g93
ssg74
g743
sg67
(lp755
S':'
asbag60
(g81
g62
NtRp756
(dp757
g65
(dp758
sg74
g743
sg67
(lp759
g60
(g61
g62
NtRp760
(dp761
g65
(dp762
g73
I5
ssg74
g756
sg67
(lp763
g60
(g69
g62
NtRp764
(dp765
g65
(dp766
g73
I4
ssg74
Nsg67
(lp767
g60
(g76
g62
NtRp768
(dp769
g65
(dp770
sg74
g764
sg67
(lp771
g60
(g81
g62
NtRp772
(dp773
g65
(dp774
g85
g86
ssg74
g768
sg67
(lp775
S'app_folders'
p776
asbag60
(g81
g62
NtRp777
(dp778
g65
(dp779
g92
g93
ssg74
g768
sg67
(lp780
S':'
asbag60
(g81
g62
NtRp781
(dp782
g65
(dp783
sg74
g768
sg67
(lp784
g60
(g61
g62
NtRp785
(dp786
g65
(dp787
g73
I4
ssg74
g781
sg67
(lp788
S"set(['/Users/udimilo/Documents/web2py/applications/udi0312/', '/Users/udimilo/Documents/web2py/applications/admin/'])"
p789
asbasbasbag60
(g76
g62
NtRp790
(dp791
g65
(dp792
sg74
g764
sg67
(lp793
g60
(g81
g62
NtRp794
(dp795
g65
(dp796
g85
g86
ssg74
g790
sg67
(lp797
S'applications_parent'
p798
asbag60
(g81
g62
NtRp799
(dp800
g65
(dp801
g92
g93
ssg74
g790
sg67
(lp802
S':'
asbag60
(g81
g62
NtRp803
(dp804
g65
(dp805
sg74
g790
sg67
(lp806
g60
(g61
g62
NtRp807
(dp808
g65
(dp809
g73
I4
ssg74
g803
sg67
(lp810
S'/Users/udimilo/Documents/web2py'
p811
asbasbasbag60
(g76
g62
NtRp812
(dp813
g65
(dp814
sg74
g764
sg67
(lp815
g60
(g81
g62
NtRp816
(dp817
g65
(dp818
g85
g86
ssg74
g812
sg67
(lp819
S'cmd_args'
p820
asbag60
(g81
g62
NtRp821
(dp822
g65
(dp823
g92
g93
ssg74
g812
sg67
(lp824
S':'
asbag60
(g81
g62
NtRp825
(dp826
g65
(dp827
sg74
g812
sg67
(lp828
g60
(g61
g62
NtRp829
(dp830
g65
(dp831
g73
I4
ssg74
g825
sg67
(lp832
g60
(g69
g62
NtRp833
(dp834
g65
(dp835
g73
I3
ssg74
Nsg67
(lp836
sbasbasbasbag60
(g76
g62
NtRp837
(dp838
g65
(dp839
sg74
g764
sg67
(lp840
g60
(g81
g62
NtRp841
(dp842
g65
(dp843
g85
g86
ssg74
g837
sg67
(lp844
S'cmd_options'
p845
asbag60
(g81
g62
NtRp846
(dp847
g65
(dp848
g92
g93
ssg74
g837
sg67
(lp849
S':'
asbag60
(g81
g62
NtRp850
(dp851
g65
(dp852
sg74
g837
sg67
(lp853
g60
(g61
g62
NtRp854
(dp855
g65
(dp856
g73
I4
ssg74
g850
sg67
(lp857
S"<Values at 0x2c16058: {'verbose': False, 'ip': '127.0.0.1', 'shutdown_timeout': 5, 'taskbar': False, 'nocron': False, 'pid_filename': 'httpserver.pid', 'maxthreads': None, 'softcron': False, 'server_name': 'Udi-Milos-MacBook-Pro.local', 'bpython': False, 'nogui': False, 'port': 8000, 'extcron': False, 'debuglevel': 30, 'test': None, 'folder': '/Users/udimilo/Documents/web2py', 'config': '', 'import_models': False, 'winservice': '', 'shell': None, 'run': '', 'log_filename': 'httpserver.log', 'args': [''], 'socket_timeout': 5, 'ssl_ca_certificate': None, 'scheduler': None, 'profiler_filename': None, 'ssl_private_key': '', 'password': '<ask>', 'request_queue_size': 5, 'ssl_certificate': '', 'cronjob': False, 'numthreads': None, 'quiet': False, 'interfaces': None, 'minthreads': None, 'timeout': 10, 'plain': False, 'nobanner': False}>"
p858
asbasbasbag60
(g76
g62
NtRp859
(dp860
g65
(dp861
sg74
g764
sg67
(lp862
g60
(g81
g62
NtRp863
(dp864
g65
(dp865
g85
g86
ssg74
g859
sg67
(lp866
S'db_sessions'
p867
asbag60
(g81
g62
NtRp868
(dp869
g65
(dp870
g92
g93
ssg74
g859
sg67
(lp871
S':'
asbag60
(g81
g62
NtRp872
(dp873
g65
(dp874
sg74
g859
sg67
(lp875
g60
(g61
g62
NtRp876
(dp877
g65
(dp878
g73
I4
ssg74
g872
sg67
(lp879
S'set([])'
p880
asbasbasbag60
(g76
g62
NtRp881
(dp882
g65
(dp883
sg74
g764
sg67
(lp884
g60
(g81
g62
NtRp885
(dp886
g65
(dp887
g85
g86
ssg74
g881
sg67
(lp888
S'debugging'
p889
asbag60
(g81
g62
NtRp890
(dp891
g65
(dp892
g92
g93
ssg74
g881
sg67
(lp893
S':'
asbag60
(g81
g62
NtRp894
(dp895
g65
(dp896
sg74
g881
sg67
(lp897
g60
(g61
g62
NtRp898
(dp899
g65
(dp900
g73
I4
ssg74
g894
sg67
(lp901
g103
asbasbasbag60
(g76
g62
NtRp902
(dp903
g65
(dp904
sg74
g764
sg67
(lp905
g60
(g81
g62
NtRp906
(dp907
g65
(dp908
g85
g86
ssg74
g902
sg67
(lp909
S'gluon_parent'
p910
asbag60
(g81
g62
NtRp911
(dp912
g65
(dp913
g92
g93
ssg74
g902
sg67
(lp914
S':'
asbag60
(g81
g62
NtRp915
(dp916
g65
(dp917
sg74
g902
sg67
(lp918
g60
(g61
g62
NtRp919
(dp920
g65
(dp921
g73
I4
ssg74
g915
sg67
(lp922
S'/Users/udimilo/Documents/web2py'
p923
asbasbasbag60
(g76
g62
NtRp924
(dp925
g65
(dp926
sg74
g764
sg67
(lp927
g60
(g81
g62
NtRp928
(dp929
g65
(dp930
g85
g86
ssg74
g924
sg67
(lp931
S'http_accept'
p932
asbag60
(g81
g62
NtRp933
(dp934
g65
(dp935
g92
g93
ssg74
g924
sg67
(lp936
S':'
asbag60
(g81
g62
NtRp937
(dp938
g65
(dp939
sg74
g924
sg67
(lp940
g60
(g61
g62
NtRp941
(dp942
g65
(dp943
g73
I4
ssg74
g937
sg67
(lp944
S'text/html,application/xhtml+xml,application/xml;q=0.9,*/*;q=0.8'
p945
asbasbasbag60
(g76
g62
NtRp946
(dp947
g65
(dp948
sg74
g764
sg67
(lp949
g60
(g81
g62
NtRp950
(dp951
g65
(dp952
g85
g86
ssg74
g946
sg67
(lp953
S'http_accept_charset'
p954
asbag60
(g81
g62
NtRp955
(dp956
g65
(dp957
g92
g93
ssg74
g946
sg67
(lp958
S':'
asbag60
(g81
g62
NtRp959
(dp960
g65
(dp961
sg74
g946
sg67
(lp962
g60
(g61
g62
NtRp963
(dp964
g65
(dp965
g73
I4
ssg74
g959
sg67
(lp966
S'ISO-8859-1,utf-8;q=0.7,*;q=0.3'
p967
asbasbasbag60
(g76
g62
NtRp968
(dp969
g65
(dp970
sg74
g764
sg67
(lp971
g60
(g81
g62
NtRp972
(dp973
g65
(dp974
g85
g86
ssg74
g968
sg67
(lp975
S'http_accept_encoding'
p976
asbag60
(g81
g62
NtRp977
(dp978
g65
(dp979
g92
g93
ssg74
g968
sg67
(lp980
S':'
asbag60
(g81
g62
NtRp981
(dp982
g65
(dp983
sg74
g968
sg67
(lp984
g60
(g61
g62
NtRp985
(dp986
g65
(dp987
g73
I4
ssg74
g981
sg67
(lp988
S'gzip,deflate,sdch'
p989
asbasbasbag60
(g76
g62
NtRp990
(dp991
g65
(dp992
sg74
g764
sg67
(lp993
g60
(g81
g62
NtRp994
(dp995
g65
(dp996
g85
g86
ssg74
g990
sg67
(lp997
S'http_accept_language'
p998
asbag60
(g81
g62
NtRp999
(dp1000
g65
(dp1001
g92
g93
ssg74
g990
sg67
(lp1002
S':'
asbag60
(g81
g62
NtRp1003
(dp1004
g65
(dp1005
sg74
g990
sg67
(lp1006
g60
(g61
g62
NtRp1007
(dp1008
g65
(dp1009
g73
I4
ssg74
g1003
sg67
(lp1010
S'en-US,en;q=0.8'
p1011
asbasbasbag60
(g76
g62
NtRp1012
(dp1013
g65
(dp1014
sg74
g764
sg67
(lp1015
g60
(g81
g62
NtRp1016
(dp1017
g65
(dp1018
g85
g86
ssg74
g1012
sg67
(lp1019
S'http_cache_control'
p1020
asbag60
(g81
g62
NtRp1021
(dp1022
g65
(dp1023
g92
g93
ssg74
g1012
sg67
(lp1024
S':'
asbag60
(g81
g62
NtRp1025
(dp1026
g65
(dp1027
sg74
g1012
sg67
(lp1028
g60
(g61
g62
NtRp1029
(dp1030
g65
(dp1031
g73
I4
ssg74
g1025
sg67
(lp1032
S'max-age=0'
p1033
asbasbasbag60
(g76
g62
NtRp1034
(dp1035
g65
(dp1036
sg74
g764
sg67
(lp1037
g60
(g81
g62
NtRp1038
(dp1039
g65
(dp1040
g85
g86
ssg74
g1034
sg67
(lp1041
S'http_connection'
p1042
asbag60
(g81
g62
NtRp1043
(dp1044
g65
(dp1045
g92
g93
ssg74
g1034
sg67
(lp1046
S':'
asbag60
(g81
g62
NtRp1047
(dp1048
g65
(dp1049
sg74
g1034
sg67
(lp1050
g60
(g61
g62
NtRp1051
(dp1052
g65
(dp1053
g73
I4
ssg74
g1047
sg67
(lp1054
S'keep-alive'
p1055
asbasbasbag60
(g76
g62
NtRp1056
(dp1057
g65
(dp1058
sg74
g764
sg67
(lp1059
g60
(g81
g62
NtRp1060
(dp1061
g65
(dp1062
g85
g86
ssg74
g1056
sg67
(lp1063
S'http_cookie'
p1064
asbag60
(g81
g62
NtRp1065
(dp1066
g65
(dp1067
g92
g93
ssg74
g1056
sg67
(lp1068
S':'
asbag60
(g81
g62
NtRp1069
(dp1070
g65
(dp1071
sg74
g1056
sg67
(lp1072
g60
(g61
g62
NtRp1073
(dp1074
g65
(dp1075
g73
I4
ssg74
g1069
sg67
(lp1076
S'session_id_welcome=127.0.0.1-a504b24f-4d61-4d9a-9b5b-4625969b9aa0; session_id_udi0312=127.0.0.1-fcd6a577-d448-4882-b7bc-f353da84ba3b; session_id_admin=127.0.0.1-d97186a8-ec58-47a4-a700-407b6196b15e'
p1077
asbasbasbag60
(g76
g62
NtRp1078
(dp1079
g65
(dp1080
sg74
g764
sg67
(lp1081
g60
(g81
g62
NtRp1082
(dp1083
g65
(dp1084
g85
g86
ssg74
g1078
sg67
(lp1085
S'http_host'
p1086
asbag60
(g81
g62
NtRp1087
(dp1088
g65
(dp1089
g92
g93
ssg74
g1078
sg67
(lp1090
S':'
asbag60
(g81
g62
NtRp1091
(dp1092
g65
(dp1093
sg74
g1078
sg67
(lp1094
g60
(g61
g62
NtRp1095
(dp1096
g65
(dp1097
g73
I4
ssg74
g1091
sg67
(lp1098
S'127.0.0.1:8000'
p1099
asbasbasbag60
(g76
g62
NtRp1100
(dp1101
g65
(dp1102
sg74
g764
sg67
(lp1103
g60
(g81
g62
NtRp1104
(dp1105
g65
(dp1106
g85
g86
ssg74
g1100
sg67
(lp1107
S'http_user_agent'
p1108
asbag60
(g81
g62
NtRp1109
(dp1110
g65
(dp1111
g92
g93
ssg74
g1100
sg67
(lp1112
S':'
asbag60
(g81
g62
NtRp1113
(dp1114
g65
(dp1115
sg74
g1100
sg67
(lp1116
g60
(g61
g62
NtRp1117
(dp1118
g65
(dp1119
g73
I4
ssg74
g1113
sg67
(lp1120
S'Mozilla/5.0 (Macintosh; Intel Mac OS X 10_7_3) AppleWebKit/535.11 (KHTML, like Gecko) Chrome/17.0.963.65 Safari/535.11'
p1121
asbasbasbag60
(g76
g62
NtRp1122
(dp1123
g65
(dp1124
sg74
g764
sg67
(lp1125
g60
(g81
g62
NtRp1126
(dp1127
g65
(dp1128
g85
g86
ssg74
g1122
sg67
(lp1129
S'is_jython'
p1130
asbag60
(g81
g62
NtRp1131
(dp1132
g65
(dp1133
g92
g93
ssg74
g1122
sg67
(lp1134
S':'
asbag60
(g81
g62
NtRp1135
(dp1136
g65
(dp1137
sg74
g1122
sg67
(lp1138
g60
(g61
g62
NtRp1139
(dp1140
g65
(dp1141
g73
I4
ssg74
g1135
sg67
(lp1142
g103
asbasbasbag60
(g76
g62
NtRp1143
(dp1144
g65
(dp1145
sg74
g764
sg67
(lp1146
g60
(g81
g62
NtRp1147
(dp1148
g65
(dp1149
g85
g86
ssg74
g1143
sg67
(lp1150
S'is_pypy'
p1151
asbag60
(g81
g62
NtRp1152
(dp1153
g65
(dp1154
g92
g93
ssg74
g1143
sg67
(lp1155
S':'
asbag60
(g81
g62
NtRp1156
(dp1157
g65
(dp1158
sg74
g1143
sg67
(lp1159
g60
(g61
g62
NtRp1160
(dp1161
g65
(dp1162
g73
I4
ssg74
g1156
sg67
(lp1163
g103
asbasbasbag60
(g76
g62
NtRp1164
(dp1165
g65
(dp1166
sg74
g764
sg67
(lp1167
g60
(g81
g62
NtRp1168
(dp1169
g65
(dp1170
g85
g86
ssg74
g1164
sg67
(lp1171
S'path_info'
p1172
asbag60
(g81
g62
NtRp1173
(dp1174
g65
(dp1175
g92
g93
ssg74
g1164
sg67
(lp1176
S':'
asbag60
(g81
g62
NtRp1177
(dp1178
g65
(dp1179
sg74
g1164
sg67
(lp1180
g60
(g61
g62
NtRp1181
(dp1182
g65
(dp1183
g73
I4
ssg74
g1177
sg67
(lp1184
S'/'
asbasbasbag60
(g76
g62
NtRp1185
(dp1186
g65
(dp1187
sg74
g764
sg67
(lp1188
g60
(g81
g62
NtRp1189
(dp1190
g65
(dp1191
g85
g86
ssg74
g1185
sg67
(lp1192
S'query_string'
p1193
asbag60
(g81
g62
NtRp1194
(dp1195
g65
(dp1196
g92
g93
ssg74
g1185
sg67
(lp1197
S':'
asbag60
(g81
g62
NtRp1198
(dp1199
g65
(dp1200
sg74
g1185
sg67
(lp1201
g60
(g61
g62
NtRp1202
(dp1203
g65
(dp1204
g73
I4
ssg74
g1198
sg67
(lp1205
S''
asbasbasbag60
(g76
g62
NtRp1206
(dp1207
g65
(dp1208
sg74
g764
sg67
(lp1209
g60
(g81
g62
NtRp1210
(dp1211
g65
(dp1212
g85
g86
ssg74
g1206
sg67
(lp1213
S'remote_addr'
p1214
asbag60
(g81
g62
NtRp1215
(dp1216
g65
(dp1217
g92
g93
ssg74
g1206
sg67
(lp1218
S':'
asbag60
(g81
g62
NtRp1219
(dp1220
g65
(dp1221
sg74
g1206
sg67
(lp1222
g60
(g61
g62
NtRp1223
(dp1224
g65
(dp1225
g73
I4
ssg74
g1219
sg67
(lp1226
g193
asbasbasbag60
(g76
g62
NtRp1227
(dp1228
g65
(dp1229
sg74
g764
sg67
(lp1230
g60
(g81
g62
NtRp1231
(dp1232
g65
(dp1233
g85
g86
ssg74
g1227
sg67
(lp1234
S'remote_port'
p1235
asbag60
(g81
g62
NtRp1236
(dp1237
g65
(dp1238
g92
g93
ssg74
g1227
sg67
(lp1239
S':'
asbag60
(g81
g62
NtRp1240
(dp1241
g65
(dp1242
sg74
g1227
sg67
(lp1243
g60
(g61
g62
NtRp1244
(dp1245
g65
(dp1246
g73
I4
ssg74
g1240
sg67
(lp1247
S'62212'
p1248
asbasbasbag60
(g76
g62
NtRp1249
(dp1250
g65
(dp1251
sg74
g764
sg67
(lp1252
g60
(g81
g62
NtRp1253
(dp1254
g65
(dp1255
g85
g86
ssg74
g1249
sg67
(lp1256
S'request_method'
p1257
asbag60
(g81
g62
NtRp1258
(dp1259
g65
(dp1260
g92
g93
ssg74
g1249
sg67
(lp1261
S':'
asbag60
(g81
g62
NtRp1262
(dp1263
g65
(dp1264
sg74
g1249
sg67
(lp1265
g60
(g61
g62
NtRp1266
(dp1267
g65
(dp1268
g73
I4
ssg74
g1262
sg67
(lp1269
S'GET'
p1270
asbasbasbag60
(g76
g62
NtRp1271
(dp1272
g65
(dp1273
sg74
g764
sg67
(lp1274
g60
(g81
g62
NtRp1275
(dp1276
g65
(dp1277
g85
g86
ssg74
g1271
sg67
(lp1278
S'request_uri'
p1279
asbag60
(g81
g62
NtRp1280
(dp1281
g65
(dp1282
g92
g93
ssg74
g1271
sg67
(lp1283
S':'
asbag60
(g81
g62
NtRp1284
(dp1285
g65
(dp1286
sg74
g1271
sg67
(lp1287
g60
(g61
g62
NtRp1288
(dp1289
g65
(dp1290
g73
I4
ssg74
g1284
sg67
(lp1291
S'/udi0312/default/index'
p1292
asbasbasbag60
(g76
g62
NtRp1293
(dp1294
g65
(dp1295
sg74
g764
sg67
(lp1296
g60
(g81
g62
NtRp1297
(dp1298
g65
(dp1299
g85
g86
ssg74
g1293
sg67
(lp1300
S'script_name'
p1301
asbag60
(g81
g62
NtRp1302
(dp1303
g65
(dp1304
g92
g93
ssg74
g1293
sg67
(lp1305
S':'
asbag60
(g81
g62
NtRp1306
(dp1307
g65
(dp1308
sg74
g1293
sg67
(lp1309
g60
(g61
g62
NtRp1310
(dp1311
g65
(dp1312
g73
I4
ssg74
g1306
sg67
(lp1313
S''
asbasbasbag60
(g76
g62
NtRp1314
(dp1315
g65
(dp1316
sg74
g764
sg67
(lp1317
g60
(g81
g62
NtRp1318
(dp1319
g65
(dp1320
g85
g86
ssg74
g1314
sg67
(lp1321
S'server_name'
p1322
asbag60
(g81
g62
NtRp1323
(dp1324
g65
(dp1325
g92
g93
ssg74
g1314
sg67
(lp1326
S':'
asbag60
(g81
g62
NtRp1327
(dp1328
g65
(dp1329
sg74
g1314
sg67
(lp1330
g60
(g61
g62
NtRp1331
(dp1332
g65
(dp1333
g73
I4
ssg74
g1327
sg67
(lp1334
S'Udi-Milos-MacBook-Pro.local'
p1335
asbasbasbag60
(g76
g62
NtRp1336
(dp1337
g65
(dp1338
sg74
g764
sg67
(lp1339
g60
(g81
g62
NtRp1340
(dp1341
g65
(dp1342
g85
g86
ssg74
g1336
sg67
(lp1343
S'server_port'
p1344
asbag60
(g81
g62
NtRp1345
(dp1346
g65
(dp1347
g92
g93
ssg74
g1336
sg67
(lp1348
S':'
asbag60
(g81
g62
NtRp1349
(dp1350
g65
(dp1351
sg74
g1336
sg67
(lp1352
g60
(g61
g62
NtRp1353
(dp1354
g65
(dp1355
g73
I4
ssg74
g1349
sg67
(lp1356
S'8000'
p1357
asbasbasbag60
(g76
g62
NtRp1358
(dp1359
g65
(dp1360
sg74
g764
sg67
(lp1361
g60
(g81
g62
NtRp1362
(dp1363
g65
(dp1364
g85
g86
ssg74
g1358
sg67
(lp1365
S'server_protocol'
p1366
asbag60
(g81
g62
NtRp1367
(dp1368
g65
(dp1369
g92
g93
ssg74
g1358
sg67
(lp1370
S':'
asbag60
(g81
g62
NtRp1371
(dp1372
g65
(dp1373
sg74
g1358
sg67
(lp1374
g60
(g61
g62
NtRp1375
(dp1376
g65
(dp1377
g73
I4
ssg74
g1371
sg67
(lp1378
S'HTTP/1.1'
p1379
asbasbasbag60
(g76
g62
NtRp1380
(dp1381
g65
(dp1382
sg74
g764
sg67
(lp1383
g60
(g81
g62
NtRp1384
(dp1385
g65
(dp1386
g85
g86
ssg74
g1380
sg67
(lp1387
S'server_software'
p1388
asbag60
(g81
g62
NtRp1389
(dp1390
g65
(dp1391
g92
g93
ssg74
g1380
sg67
(lp1392
S':'
asbag60
(g81
g62
NtRp1393
(dp1394
g65
(dp1395
sg74
g1380
sg67
(lp1396
g60
(g61
g62
NtRp1397
(dp1398
g65
(dp1399
g73
I4
ssg74
g1393
sg67
(lp1400
S'Rocket 1.2.4'
p1401
asbasbasbag60
(g76
g62
NtRp1402
(dp1403
g65
(dp1404
sg74
g764
sg67
(lp1405
g60
(g81
g62
NtRp1406
(dp1407
g65
(dp1408
g85
g86
ssg74
g1402
sg67
(lp1409
S'web2py_crontype'
p1410
asbag60
(g81
g62
NtRp1411
(dp1412
g65
(dp1413
g92
g93
ssg74
g1402
sg67
(lp1414
S':'
asbag60
(g81
g62
NtRp1415
(dp1416
g65
(dp1417
sg74
g1402
sg67
(lp1418
g60
(g61
g62
NtRp1419
(dp1420
g65
(dp1421
g73
I4
ssg74
g1415
sg67
(lp1422
S'hard'
p1423
asbasbasbag60
(g76
g62
NtRp1424
(dp1425
g65
(dp1426
sg74
g764
sg67
(lp1427
g60
(g81
g62
NtRp1428
(dp1429
g65
(dp1430
g85
g86
ssg74
g1424
sg67
(lp1431
S'web2py_original_uri'
p1432
asbag60
(g81
g62
NtRp1433
(dp1434
g65
(dp1435
g92
g93
ssg74
g1424
sg67
(lp1436
S':'
asbag60
(g81
g62
NtRp1437
(dp1438
g65
(dp1439
sg74
g1424
sg67
(lp1440
g60
(g61
g62
NtRp1441
(dp1442
g65
(dp1443
g73
I4
ssg74
g1437
sg67
(lp1444
S'/'
asbasbasbag60
(g76
g62
NtRp1445
(dp1446
g65
(dp1447
sg74
g764
sg67
(lp1448
g60
(g81
g62
NtRp1449
(dp1450
g65
(dp1451
g85
g86
ssg74
g1445
sg67
(lp1452
S'web2py_path'
p1453
asbag60
(g81
g62
NtRp1454
(dp1455
g65
(dp1456
g92
g93
ssg74
g1445
sg67
(lp1457
S':'
asbag60
(g81
g62
NtRp1458
(dp1459
g65
(dp1460
sg74
g1445
sg67
(lp1461
g60
(g61
g62
NtRp1462
(dp1463
g65
(dp1464
g73
I4
ssg74
g1458
sg67
(lp1465
g811
asbasbasbag60
(g76
g62
NtRp1466
(dp1467
g65
(dp1468
sg74
g764
sg67
(lp1469
g60
(g81
g62
NtRp1470
(dp1471
g65
(dp1472
g85
g86
ssg74
g1466
sg67
(lp1473
S'web2py_version'
p1474
asbag60
(g81
g62
NtRp1475
(dp1476
g65
(dp1477
g92
g93
ssg74
g1466
sg67
(lp1478
S':'
asbag60
(g81
g62
NtRp1479
(dp1480
g65
(dp1481
sg74
g1466
sg67
(lp1482
g60
(g61
g62
NtRp1483
(dp1484
g65
(dp1485
g73
I4
ssg74
g1479
sg67
(lp1486
g60
(g69
g62
NtRp1487
(dp1488
g65
(dp1489
g73
I3
ssg74
Nsg67
(lp1490
g60
(g76
g62
NtRp1491
(dp1492
g65
(dp1493
sg74
g1487
sg67
(lp1494
g60
(g81
g62
NtRp1495
(dp1496
g65
(dp1497
sg74
g1491
sg67
(lp1498
g60
(g61
g62
NtRp1499
(dp1500
g65
(dp1501
g73
I3
ssg74
g1495
sg67
(lp1502
S'1'
asbasbasbag60
(g76
g62
NtRp1503
(dp1504
g65
(dp1505
sg74
g1487
sg67
(lp1506
g60
(g81
g62
NtRp1507
(dp1508
g65
(dp1509
sg74
g1503
sg67
(lp1510
g60
(g61
g62
NtRp1511
(dp1512
g65
(dp1513
g73
I3
ssg74
g1507
sg67
(lp1514
S'99'
p1515
asbasbasbag60
(g76
g62
NtRp1516
(dp1517
g65
(dp1518
sg74
g1487
sg67
(lp1519
g60
(g81
g62
NtRp1520
(dp1521
g65
(dp1522
sg74
g1516
sg67
(lp1523
g60
(g61
g62
NtRp1524
(dp1525
g65
(dp1526
g73
I3
ssg74
g1520
sg67
(lp1527
S'7'
asbasbasbag60
(g76
g62
NtRp1528
(dp1529
g65
(dp1530
sg74
g1487
sg67
(lp1531
g60
(g81
g62
NtRp1532
(dp1533
g65
(dp1534
sg74
g1528
sg67
(lp1535
g60
(g61
g62
NtRp1536
(dp1537
g65
(dp1538
g73
I3
ssg74
g1532
sg67
(lp1539
S'datetime.datetime(2012, 3, 4, 22, 12, 8)'
p1540
asbasbasbag60
(g76
g62
NtRp1541
(dp1542
g65
(dp1543
sg74
g1487
sg67
(lp1544
g60
(g81
g62
NtRp1545
(dp1546
g65
(dp1547
sg74
g1541
sg67
(lp1548
g60
(g61
g62
NtRp1549
(dp1550
g65
(dp1551
g73
I3
ssg74
g1545
sg67
(lp1552
S'stable'
p1553
asbasbasbasbasbasbasbag60
(g76
g62
NtRp1554
(dp1555
g65
(dp1556
sg74
g764
sg67
(lp1557
g60
(g81
g62
NtRp1558
(dp1559
g65
(dp1560
g85
g86
ssg74
g1554
sg67
(lp1561
S'wsgi_errors'
p1562
asbag60
(g81
g62
NtRp1563
(dp1564
g65
(dp1565
g92
g93
ssg74
g1554
sg67
(lp1566
S':'
asbag60
(g81
g62
NtRp1567
(dp1568
g65
(dp1569
sg74
g1554
sg67
(lp1570
g60
(g61
g62
NtRp1571
(dp1572
g65
(dp1573
g73
I4
ssg74
g1567
sg67
(lp1574
S"<open file '<stderr>', mode 'w' at 0x4220b0>"
p1575
asbasbasbag60
(g76
g62
NtRp1576
(dp1577
g65
(dp1578
sg74
g764
sg67
(lp1579
g60
(g81
g62
NtRp1580
(dp1581
g65
(dp1582
g85
g86
ssg74
g1576
sg67
(lp1583
S'wsgi_file_wrapper'
p1584
asbag60
(g81
g62
NtRp1585
(dp1586
g65
(dp1587
g92
g93
ssg74
g1576
sg67
(lp1588
S':'
asbag60
(g81
g62
NtRp1589
(dp1590
g65
(dp1591
sg74
g1576
sg67
(lp1592
g60
(g61
g62
NtRp1593
(dp1594
g65
(dp1595
g73
I4
ssg74
g1589
sg67
(lp1596
S'<class wsgiref.util.FileWrapper at 0x2b60450>'
p1597
asbasbasbag60
(g76
g62
NtRp1598
(dp1599
g65
(dp1600
sg74
g764
sg67
(lp1601
g60
(g81
g62
NtRp1602
(dp1603
g65
(dp1604
g85
g86
ssg74
g1598
sg67
(lp1605
S'wsgi_input'
p1606
asbag60
(g81
g62
NtRp1607
(dp1608
g65
(dp1609
g92
g93
ssg74
g1598
sg67
(lp1610
S':'
asbag60
(g81
g62
NtRp1611
(dp1612
g65
(dp1613
sg74
g1598
sg67
(lp1614
g60
(g61
g62
NtRp1615
(dp1616
g65
(dp1617
g73
I4
ssg74
g1611
sg67
(lp1618
S'<socket._fileobject object at 0x8db99f0>'
p1619
asbasbasbag60
(g76
g62
NtRp1620
(dp1621
g65
(dp1622
sg74
g764
sg67
(lp1623
g60
(g81
g62
NtRp1624
(dp1625
g65
(dp1626
g85
g86
ssg74
g1620
sg67
(lp1627
S'wsgi_multiprocess'
p1628
asbag60
(g81
g62
NtRp1629
(dp1630
g65
(dp1631
g92
g93
ssg74
g1620
sg67
(lp1632
S':'
asbag60
(g81
g62
NtRp1633
(dp1634
g65
(dp1635
sg74
g1620
sg67
(lp1636
g60
(g61
g62
NtRp1637
(dp1638
g65
(dp1639
g73
I4
ssg74
g1633
sg67
(lp1640
g103
asbasbasbag60
(g76
g62
NtRp1641
(dp1642
g65
(dp1643
sg74
g764
sg67
(lp1644
g60
(g81
g62
NtRp1645
(dp1646
g65
(dp1647
g85
g86
ssg74
g1641
sg67
(lp1648
S'wsgi_multithread'
p1649
asbag60
(g81
g62
NtRp1650
(dp1651
g65
(dp1652
g92
g93
ssg74
g1641
sg67
(lp1653
S':'
asbag60
(g81
g62
NtRp1654
(dp1655
g65
(dp1656
sg74
g1641
sg67
(lp1657
g60
(g61
g62
NtRp1658
(dp1659
g65
(dp1660
g73
I4
ssg74
g1654
sg67
(lp1661
S'True'
p1662
asbasbasbag60
(g76
g62
NtRp1663
(dp1664
g65
(dp1665
sg74
g764
sg67
(lp1666
g60
(g81
g62
NtRp1667
(dp1668
g65
(dp1669
g85
g86
ssg74
g1663
sg67
(lp1670
S'wsgi_run_once'
p1671
asbag60
(g81
g62
NtRp1672
(dp1673
g65
(dp1674
g92
g93
ssg74
g1663
sg67
(lp1675
S':'
asbag60
(g81
g62
NtRp1676
(dp1677
g65
(dp1678
sg74
g1663
sg67
(lp1679
g60
(g61
g62
NtRp1680
(dp1681
g65
(dp1682
g73
I4
ssg74
g1676
sg67
(lp1683
g103
asbasbasbag60
(g76
g62
NtRp1684
(dp1685
g65
(dp1686
sg74
g764
sg67
(lp1687
g60
(g81
g62
NtRp1688
(dp1689
g65
(dp1690
g85
g86
ssg74
g1684
sg67
(lp1691
S'wsgi_url_scheme'
p1692
asbag60
(g81
g62
NtRp1693
(dp1694
g65
(dp1695
g92
g93
ssg74
g1684
sg67
(lp1696
S':'
asbag60
(g81
g62
NtRp1697
(dp1698
g65
(dp1699
sg74
g1684
sg67
(lp1700
g60
(g61
g62
NtRp1701
(dp1702
g65
(dp1703
g73
I4
ssg74
g1697
sg67
(lp1704
S'http'
p1705
asbasbasbag60
(g76
g62
NtRp1706
(dp1707
g65
(dp1708
sg74
g764
sg67
(lp1709
g60
(g81
g62
NtRp1710
(dp1711
g65
(dp1712
g85
g86
ssg74
g1706
sg67
(lp1713
S'wsgi_version'
p1714
asbag60
(g81
g62
NtRp1715
(dp1716
g65
(dp1717
g92
g93
ssg74
g1706
sg67
(lp1718
S':'
asbag60
(g81
g62
NtRp1719
(dp1720
g65
(dp1721
sg74
g1706
sg67
(lp1722
g60
(g61
g62
NtRp1723
(dp1724
g65
(dp1725
g73
I4
ssg74
g1719
sg67
(lp1726
g60
(g69
g62
NtRp1727
(dp1728
g65
(dp1729
g73
I3
ssg74
Nsg67
(lp1730
g60
(g76
g62
NtRp1731
(dp1732
g65
(dp1733
sg74
g1727
sg67
(lp1734
g60
(g81
g62
NtRp1735
(dp1736
g65
(dp1737
sg74
g1731
sg67
(lp1738
g60
(g61
g62
NtRp1739
(dp1740
g65
(dp1741
g73
I3
ssg74
g1735
sg67
(lp1742
S'1'
asbasbasbag60
(g76
g62
NtRp1743
(dp1744
g65
(dp1745
sg74
g1727
sg67
(lp1746
g60
(g81
g62
NtRp1747
(dp1748
g65
(dp1749
sg74
g1743
sg67
(lp1750
g60
(g61
g62
NtRp1751
(dp1752
g65
(dp1753
g73
I3
ssg74
g1747
sg67
(lp1754
S'0'
asbasbasbasbasbasbasbasbasbasbasbag60
(g76
g62
NtRp1755
(dp1756
g65
(dp1757
sg74
g70
sg67
(lp1758
g60
(g81
g62
NtRp1759
(dp1760
g65
(dp1761
g85
g86
ssg74
g1755
sg67
(lp1762
S'extension'
p1763
asbag60
(g81
g62
NtRp1764
(dp1765
g65
(dp1766
g92
g93
ssg74
g1755
sg67
(lp1767
S':'
asbag60
(g81
g62
NtRp1768
(dp1769
g65
(dp1770
sg74
g1755
sg67
(lp1771
g60
(g61
g62
NtRp1772
(dp1773
g65
(dp1774
g73
I5
ssg74
g1768
sg67
(lp1775
S'html'
p1776
asbasbasbag60
(g76
g62
NtRp1777
(dp1778
g65
(dp1779
sg74
g70
sg67
(lp1780
g60
(g81
g62
NtRp1781
(dp1782
g65
(dp1783
g85
g86
ssg74
g1777
sg67
(lp1784
S'folder'
p1785
asbag60
(g81
g62
NtRp1786
(dp1787
g65
(dp1788
g92
g93
ssg74
g1777
sg67
(lp1789
S':'
asbag60
(g81
g62
NtRp1790
(dp1791
g65
(dp1792
sg74
g1777
sg67
(lp1793
g60
(g61
g62
NtRp1794
(dp1795
g65
(dp1796
g73
I5
ssg74
g1790
sg67
(lp1797
S'/Users/udimilo/Documents/web2py/applications/udi0312/'
p1798
asbasbasbag60
(g76
g62
NtRp1799
(dp1800
g65
(dp1801
sg74
g70
sg67
(lp1802
g60
(g81
g62
NtRp1803
(dp1804
g65
(dp1805
g85
g86
ssg74
g1799
sg67
(lp1806
S'function'
p1807
asbag60
(g81
g62
NtRp1808
(dp1809
g65
(dp1810
g92
g93
ssg74
g1799
sg67
(lp1811
S':'
asbag60
(g81
g62
NtRp1812
(dp1813
g65
(dp1814
sg74
g1799
sg67
(lp1815
g60
(g61
g62
NtRp1816
(dp1817
g65
(dp1818
g73
I5
ssg74
g1812
sg67
(lp1819
S'index'
p1820
asbasbasbag60
(g76
g62
NtRp1821
(dp1822
g65
(dp1823
sg74
g70
sg67
(lp1824
g60
(g81
g62
NtRp1825
(dp1826
g65
(dp1827
g85
g86
ssg74
g1821
sg67
(lp1828
S'get_vars'
p1829
asbag60
(g81
g62
NtRp1830
(dp1831
g65
(dp1832
g92
g93
ssg74
g1821
sg67
(lp1833
S':'
asbag60
(g81
g62
NtRp1834
(dp1835
g65
(dp1836
sg74
g1821
sg67
(lp1837
g60
(g61
g62
NtRp1838
(dp1839
g65
(dp1840
g73
I5
ssg74
g1834
sg67
(lp1841
g60
(g69
g62
NtRp1842
(dp1843
g65
(dp1844
g73
I4
ssg74
Nsg67
(lp1845
sbasbasbasbag60
(g76
g62
NtRp1846
(dp1847
g65
(dp1848
sg74
g70
sg67
(lp1849
g60
(g81
g62
NtRp1850
(dp1851
g65
(dp1852
g85
g86
ssg74
g1846
sg67
(lp1853
S'global_settings'
p1854
asbag60
(g81
g62
NtRp1855
(dp1856
g65
(dp1857
g92
g93
ssg74
g1846
sg67
(lp1858
S':'
asbag60
(g81
g62
NtRp1859
(dp1860
g65
(dp1861
sg74
g1846
sg67
(lp1862
g60
(g61
g62
NtRp1863
(dp1864
g65
(dp1865
g73
I5
ssg74
g1859
sg67
(lp1866
g60
(g69
g62
NtRp1867
(dp1868
g65
(dp1869
g73
I4
ssg74
Nsg67
(lp1870
g60
(g76
g62
NtRp1871
(dp1872
g65
(dp1873
sg74
g1867
sg67
(lp1874
g60
(g81
g62
NtRp1875
(dp1876
g65
(dp1877
g85
g86
ssg74
g1871
sg67
(lp1878
g776
asbag60
(g81
g62
NtRp1879
(dp1880
g65
(dp1881
g92
g93
ssg74
g1871
sg67
(lp1882
S':'
asbag60
(g81
g62
NtRp1883
(dp1884
g65
(dp1885
sg74
g1871
sg67
(lp1886
g60
(g61
g62
NtRp1887
(dp1888
g65
(dp1889
g73
I4
ssg74
g1883
sg67
(lp1890
S"set(['/Users/udimilo/Documents/web2py/applications/udi0312/', '/Users/udimilo/Documents/web2py/applications/admin/'])"
p1891
asbasbasbag60
(g76
g62
NtRp1892
(dp1893
g65
(dp1894
sg74
g1867
sg67
(lp1895
g60
(g81
g62
NtRp1896
(dp1897
g65
(dp1898
g85
g86
ssg74
g1892
sg67
(lp1899
g798
asbag60
(g81
g62
NtRp1900
(dp1901
g65
(dp1902
g92
g93
ssg74
g1892
sg67
(lp1903
S':'
asbag60
(g81
g62
NtRp1904
(dp1905
g65
(dp1906
sg74
g1892
sg67
(lp1907
g60
(g61
g62
NtRp1908
(dp1909
g65
(dp1910
g73
I4
ssg74
g1904
sg67
(lp1911
g811
asbasbasbag60
(g76
g62
NtRp1912
(dp1913
g65
(dp1914
sg74
g1867
sg67
(lp1915
g60
(g81
g62
NtRp1916
(dp1917
g65
(dp1918
g85
g86
ssg74
g1912
sg67
(lp1919
g820
asbag60
(g81
g62
NtRp1920
(dp1921
g65
(dp1922
g92
g93
ssg74
g1912
sg67
(lp1923
S':'
asbag60
(g81
g62
NtRp1924
(dp1925
g65
(dp1926
sg74
g1912
sg67
(lp1927
g60
(g61
g62
NtRp1928
(dp1929
g65
(dp1930
g73
I4
ssg74
g1924
sg67
(lp1931
g60
(g69
g62
NtRp1932
(dp1933
g65
(dp1934
g73
I3
ssg74
Nsg67
(lp1935
sbasbasbasbag60
(g76
g62
NtRp1936
(dp1937
g65
(dp1938
sg74
g1867
sg67
(lp1939
g60
(g81
g62
NtRp1940
(dp1941
g65
(dp1942
g85
g86
ssg74
g1936
sg67
(lp1943
g845
asbag60
(g81
g62
NtRp1944
(dp1945
g65
(dp1946
g92
g93
ssg74
g1936
sg67
(lp1947
S':'
asbag60
(g81
g62
NtRp1948
(dp1949
g65
(dp1950
sg74
g1936
sg67
(lp1951
g60
(g61
g62
NtRp1952
(dp1953
g65
(dp1954
g73
I4
ssg74
g1948
sg67
(lp1955
S"<Values at 0x2c16058: {'verbose': False, 'ip': '127.0.0.1', 'shutdown_timeout': 5, 'taskbar': False, 'nocron': False, 'pid_filename': 'httpserver.pid', 'maxthreads': None, 'softcron': False, 'server_name': 'Udi-Milos-MacBook-Pro.local', 'bpython': False, 'nogui': False, 'port': 8000, 'extcron': False, 'debuglevel': 30, 'test': None, 'folder': '/Users/udimilo/Documents/web2py', 'config': '', 'import_models': False, 'winservice': '', 'shell': None, 'run': '', 'log_filename': 'httpserver.log', 'args': [''], 'socket_timeout': 5, 'ssl_ca_certificate': None, 'scheduler': None, 'profiler_filename': None, 'ssl_private_key': '', 'password': '<ask>', 'request_queue_size': 5, 'ssl_certificate': '', 'cronjob': False, 'numthreads': None, 'quiet': False, 'interfaces': None, 'minthreads': None, 'timeout': 10, 'plain': False, 'nobanner': False}>"
p1956
asbasbasbag60
(g76
g62
NtRp1957
(dp1958
g65
(dp1959
sg74
g1867
sg67
(lp1960
g60
(g81
g62
NtRp1961
(dp1962
g65
(dp1963
g85
g86
ssg74
g1957
sg67
(lp1964
g867
asbag60
(g81
g62
NtRp1965
(dp1966
g65
(dp1967
g92
g93
ssg74
g1957
sg67
(lp1968
S':'
asbag60
(g81
g62
NtRp1969
(dp1970
g65
(dp1971
sg74
g1957
sg67
(lp1972
g60
(g61
g62
NtRp1973
(dp1974
g65
(dp1975
g73
I4
ssg74
g1969
sg67
(lp1976
S'set([])'
p1977
asbasbasbag60
(g76
g62
NtRp1978
(dp1979
g65
(dp1980
sg74
g1867
sg67
(lp1981
g60
(g81
g62
NtRp1982
(dp1983
g65
(dp1984
g85
g86
ssg74
g1978
sg67
(lp1985
g889
asbag60
(g81
g62
NtRp1986
(dp1987
g65
(dp1988
g92
g93
ssg74
g1978
sg67
(lp1989
S':'
asbag60
(g81
g62
NtRp1990
(dp1991
g65
(dp1992
sg74
g1978
sg67
(lp1993
g60
(g61
g62
NtRp1994
(dp1995
g65
(dp1996
g73
I4
ssg74
g1990
sg67
(lp1997
g103
asbasbasbag60
(g76
g62
NtRp1998
(dp1999
g65
(dp2000
sg74
g1867
sg67
(lp2001
g60
(g81
g62
NtRp2002
(dp2003
g65
(dp2004
g85
g86
ssg74
g1998
sg67
(lp2005
g910
asbag60
(g81
g62
NtRp2006
(dp2007
g65
(dp2008
g92
g93
ssg74
g1998
sg67
(lp2009
S':'
asbag60
(g81
g62
NtRp2010
(dp2011
g65
(dp2012
sg74
g1998
sg67
(lp2013
g60
(g61
g62
NtRp2014
(dp2015
g65
(dp2016
g73
I4
ssg74
g2010
sg67
(lp2017
g923
asbasbasbag60
(g76
g62
NtRp2018
(dp2019
g65
(dp2020
sg74
g1867
sg67
(lp2021
g60
(g81
g62
NtRp2022
(dp2023
g65
(dp2024
g85
g86
ssg74
g2018
sg67
(lp2025
g1130
asbag60
(g81
g62
NtRp2026
(dp2027
g65
(dp2028
g92
g93
ssg74
g2018
sg67
(lp2029
S':'
asbag60
(g81
g62
NtRp2030
(dp2031
g65
(dp2032
sg74
g2018
sg67
(lp2033
g60
(g61
g62
NtRp2034
(dp2035
g65
(dp2036
g73
I4
ssg74
g2030
sg67
(lp2037
g103
asbasbasbag60
(g76
g62
NtRp2038
(dp2039
g65
(dp2040
sg74
g1867
sg67
(lp2041
g60
(g81
g62
NtRp2042
(dp2043
g65
(dp2044
g85
g86
ssg74
g2038
sg67
(lp2045
g1151
asbag60
(g81
g62
NtRp2046
(dp2047
g65
(dp2048
g92
g93
ssg74
g2038
sg67
(lp2049
S':'
asbag60
(g81
g62
NtRp2050
(dp2051
g65
(dp2052
sg74
g2038
sg67
(lp2053
g60
(g61
g62
NtRp2054
(dp2055
g65
(dp2056
g73
I4
ssg74
g2050
sg67
(lp2057
g103
asbasbasbag60
(g76
g62
NtRp2058
(dp2059
g65
(dp2060
sg74
g1867
sg67
(lp2061
g60
(g81
g62
NtRp2062
(dp2063
g65
(dp2064
g85
g86
ssg74
g2058
sg67
(lp2065
g1410
asbag60
(g81
g62
NtRp2066
(dp2067
g65
(dp2068
g92
g93
ssg74
g2058
sg67
(lp2069
S':'
asbag60
(g81
g62
NtRp2070
(dp2071
g65
(dp2072
sg74
g2058
sg67
(lp2073
g60
(g61
g62
NtRp2074
(dp2075
g65
(dp2076
g73
I4
ssg74
g2070
sg67
(lp2077
g1423
asbasbasbag60
(g76
g62
NtRp2078
(dp2079
g65
(dp2080
sg74
g1867
sg67
(lp2081
g60
(g81
g62
NtRp2082
(dp2083
g65
(dp2084
g85
g86
ssg74
g2078
sg67
(lp2085
g1474
asbag60
(g81
g62
NtRp2086
(dp2087
g65
(dp2088
g92
g93
ssg74
g2078
sg67
(lp2089
S':'
asbag60
(g81
g62
NtRp2090
(dp2091
g65
(dp2092
sg74
g2078
sg67
(lp2093
g60
(g61
g62
NtRp2094
(dp2095
g65
(dp2096
g73
I4
ssg74
g2090
sg67
(lp2097
g60
(g69
g62
NtRp2098
(dp2099
g65
(dp2100
g73
I3
ssg74
Nsg67
(lp2101
g60
(g76
g62
NtRp2102
(dp2103
g65
(dp2104
sg74
g2098
sg67
(lp2105
g60
(g81
g62
NtRp2106
(dp2107
g65
(dp2108
sg74
g2102
sg67
(lp2109
g60
(g61
g62
NtRp2110
(dp2111
g65
(dp2112
g73
I3
ssg74
g2106
sg67
(lp2113
S'1'
asbasbasbag60
(g76
g62
NtRp2114
(dp2115
g65
(dp2116
sg74
g2098
sg67
(lp2117
g60
(g81
g62
NtRp2118
(dp2119
g65
(dp2120
sg74
g2114
sg67
(lp2121
g60
(g61
g62
NtRp2122
(dp2123
g65
(dp2124
g73
I3
ssg74
g2118
sg67
(lp2125
S'99'
p2126
asbasbasbag60
(g76
g62
NtRp2127
(dp2128
g65
(dp2129
sg74
g2098
sg67
(lp2130
g60
(g81
g62
NtRp2131
(dp2132
g65
(dp2133
sg74
g2127
sg67
(lp2134
g60
(g61
g62
NtRp2135
(dp2136
g65
(dp2137
g73
I3
ssg74
g2131
sg67
(lp2138
S'7'
asbasbasbag60
(g76
g62
NtRp2139
(dp2140
g65
(dp2141
sg74
g2098
sg67
(lp2142
g60
(g81
g62
NtRp2143
(dp2144
g65
(dp2145
sg74
g2139
sg67
(lp2146
g60
(g61
g62
NtRp2147
(dp2148
g65
(dp2149
g73
I3
ssg74
g2143
sg67
(lp2150
S'datetime.datetime(2012, 3, 4, 22, 12, 8)'
p2151
asbasbasbag60
(g76
g62
NtRp2152
(dp2153
g65
(dp2154
sg74
g2098
sg67
(lp2155
g60
(g81
g62
NtRp2156
(dp2157
g65
(dp2158
sg74
g2152
sg67
(lp2159
g60
(g61
g62
NtRp2160
(dp2161
g65
(dp2162
g73
I3
ssg74
g2156
sg67
(lp2163
g1553
asbasbasbasbasbasbasbasbasbasbasbag60
(g76
g62
NtRp2164
(dp2165
g65
(dp2166
sg74
g70
sg67
(lp2167
g60
(g81
g62
NtRp2168
(dp2169
g65
(dp2170
g85
g86
ssg74
g2164
sg67
(lp2171
S'is_https'
p2172
asbag60
(g81
g62
NtRp2173
(dp2174
g65
(dp2175
g92
g93
ssg74
g2164
sg67
(lp2176
S':'
asbag60
(g81
g62
NtRp2177
(dp2178
g65
(dp2179
sg74
g2164
sg67
(lp2180
g60
(g61
g62
NtRp2181
(dp2182
g65
(dp2183
g73
I5
ssg74
g2177
sg67
(lp2184
g103
asbasbasbag60
(g76
g62
NtRp2185
(dp2186
g65
(dp2187
sg74
g70
sg67
(lp2188
g60
(g81
g62
NtRp2189
(dp2190
g65
(dp2191
g85
g86
ssg74
g2185
sg67
(lp2192
S'is_local'
p2193
asbag60
(g81
g62
NtRp2194
(dp2195
g65
(dp2196
g92
g93
ssg74
g2185
sg67
(lp2197
S':'
asbag60
(g81
g62
NtRp2198
(dp2199
g65
(dp2200
sg74
g2185
sg67
(lp2201
g60
(g61
g62
NtRp2202
(dp2203
g65
(dp2204
g73
I5
ssg74
g2198
sg67
(lp2205
g1662
asbasbasbag60
(g76
g62
NtRp2206
(dp2207
g65
(dp2208
sg74
g70
sg67
(lp2209
g60
(g81
g62
NtRp2210
(dp2211
g65
(dp2212
g85
g86
ssg74
g2206
sg67
(lp2213
S'is_restful'
p2214
asbag60
(g81
g62
NtRp2215
(dp2216
g65
(dp2217
g92
g93
ssg74
g2206
sg67
(lp2218
S':'
asbag60
(g81
g62
NtRp2219
(dp2220
g65
(dp2221
sg74
g2206
sg67
(lp2222
g60
(g61
g62
NtRp2223
(dp2224
g65
(dp2225
g73
I5
ssg74
g2219
sg67
(lp2226
g103
asbasbasbag60
(g76
g62
NtRp2227
(dp2228
g65
(dp2229
sg74
g70
sg67
(lp2230
g60
(g81
g62
NtRp2231
(dp2232
g65
(dp2233
g85
g86
ssg74
g2227
sg67
(lp2234
S'now'
p2235
asbag60
(g81
g62
NtRp2236
(dp2237
g65
(dp2238
g92
g93
ssg74
g2227
sg67
(lp2239
S':'
asbag60
(g81
g62
NtRp2240
(dp2241
g65
(dp2242
sg74
g2227
sg67
(lp2243
g60
(g61
g62
NtRp2244
(dp2245
g65
(dp2246
g73
I5
ssg74
g2240
sg67
(lp2247
S'datetime.datetime(2012, 3, 7, 21, 4, 22, 657163)'
p2248
asbasbasbag60
(g76
g62
NtRp2249
(dp2250
g65
(dp2251
sg74
g70
sg67
(lp2252
g60
(g81
g62
NtRp2253
(dp2254
g65
(dp2255
g85
g86
ssg74
g2249
sg67
(lp2256
S'post_vars'
p2257
asbag60
(g81
g62
NtRp2258
(dp2259
g65
(dp2260
g92
g93
ssg74
g2249
sg67
(lp2261
S':'
asbag60
(g81
g62
NtRp2262
(dp2263
g65
(dp2264
sg74
g2249
sg67
(lp2265
g60
(g61
g62
NtRp2266
(dp2267
g65
(dp2268
g73
I5
ssg74
g2262
sg67
(lp2269
g60
(g69
g62
NtRp2270
(dp2271
g65
(dp2272
g73
I4
ssg74
Nsg67
(lp2273
sbasbasbasbag60
(g76
g62
NtRp2274
(dp2275
g65
(dp2276
sg74
g70
sg67
(lp2277
g60
(g81
g62
NtRp2278
(dp2279
g65
(dp2280
g85
g86
ssg74
g2274
sg67
(lp2281
S'url'
p2282
asbag60
(g81
g62
NtRp2283
(dp2284
g65
(dp2285
g92
g93
ssg74
g2274
sg67
(lp2286
S':'
asbag60
(g81
g62
NtRp2287
(dp2288
g65
(dp2289
sg74
g2274
sg67
(lp2290
g60
(g61
g62
NtRp2291
(dp2292
g65
(dp2293
g73
I5
ssg74
g2287
sg67
(lp2294
S'/'
asbasbasbag60
(g76
g62
NtRp2295
(dp2296
g65
(dp2297
sg74
g70
sg67
(lp2298
g60
(g81
g62
NtRp2299
(dp2300
g65
(dp2301
g85
g86
ssg74
g2295
sg67
(lp2302
S'utcnow'
p2303
asbag60
(g81
g62
NtRp2304
(dp2305
g65
(dp2306
g92
g93
ssg74
g2295
sg67
(lp2307
S':'
asbag60
(g81
g62
NtRp2308
(dp2309
g65
(dp2310
sg74
g2295
sg67
(lp2311
g60
(g61
g62
NtRp2312
(dp2313
g65
(dp2314
g73
I5
ssg74
g2308
sg67
(lp2315
S'datetime.datetime(2012, 3, 8, 2, 4, 22, 657180)'
p2316
asbasbasbag60
(g76
g62
NtRp2317
(dp2318
g65
(dp2319
sg74
g70
sg67
(lp2320
g60
(g81
g62
NtRp2321
(dp2322
g65
(dp2323
g85
g86
ssg74
g2317
sg67
(lp2324
S'uuid'
p2325
asbag60
(g81
g62
NtRp2326
(dp2327
g65
(dp2328
g92
g93
ssg74
g2317
sg67
(lp2329
S':'
asbag60
(g81
g62
NtRp2330
(dp2331
g65
(dp2332
sg74
g2317
sg67
(lp2333
g60
(g61
g62
NtRp2334
(dp2335
g65
(dp2336
g73
I5
ssg74
g2330
sg67
(lp2337
S'udi0312/127.0.0.1.2012-03-07.21-04-22.a1c38485-3f04-4c7f-949e-1dfa80aa7ce1'
p2338
asbasbasbag60
(g76
g62
NtRp2339
(dp2340
g65
(dp2341
sg74
g70
sg67
(lp2342
g60
(g81
g62
NtRp2343
(dp2344
g65
(dp2345
g85
g86
ssg74
g2339
sg67
(lp2346
S'vars'
p2347
asbag60
(g81
g62
NtRp2348
(dp2349
g65
(dp2350
g92
g93
ssg74
g2339
sg67
(lp2351
S':'
asbag60
(g81
g62
NtRp2352
(dp2353
g65
(dp2354
sg74
g2339
sg67
(lp2355
g60
(g61
g62
NtRp2356
(dp2357
g65
(dp2358
g73
I5
ssg74
g2352
sg67
(lp2359
g60
(g69
g62
NtRp2360
(dp2361
g65
(dp2362
g73
I4
ssg74
Nsg67
(lp2363
sbasbasbasbag60
(g76
g62
NtRp2364
(dp2365
g65
(dp2366
sg74
g70
sg67
(lp2367
g60
(g81
g62
NtRp2368
(dp2369
g65
(dp2370
g85
g86
ssg74
g2364
sg67
(lp2371
S'wsgi'
p2372
asbag60
(g81
g62
NtRp2373
(dp2374
g65
(dp2375
g92
g93
ssg74
g2364
sg67
(lp2376
S':'
asbag60
(g81
g62
NtRp2377
(dp2378
g65
(dp2379
sg74
g2364
sg67
(lp2380
g60
(g61
g62
NtRp2381
(dp2382
g65
(dp2383
g73
I5
ssg74
g2377
sg67
(lp2384
g60
(g69
g62
NtRp2385
(dp2386
g65
(dp2387
g73
I4
ssg74
Nsg67
(lp2388
g60
(g76
g62
NtRp2389
(dp2390
g65
(dp2391
sg74
g2385
sg67
(lp2392
g60
(g81
g62
NtRp2393
(dp2394
g65
(dp2395
g85
g86
ssg74
g2389
sg67
(lp2396
S'environ'
p2397
asbag60
(g81
g62
NtRp2398
(dp2399
g65
(dp2400
g92
g93
ssg74
g2389
sg67
(lp2401
S':'
asbag60
(g81
g62
NtRp2402
(dp2403
g65
(dp2404
sg74
g2389
sg67
(lp2405
g60
(g61
g62
NtRp2406
(dp2407
g65
(dp2408
g73
I4
ssg74
g2402
sg67
(lp2409
g60
(g69
g62
NtRp2410
(dp2411
g65
(dp2412
g73
I3
ssg74
Nsg67
(lp2413
g60
(g76
g62
NtRp2414
(dp2415
g65
(dp2416
sg74
g2410
sg67
(lp2417
g60
(g81
g62
NtRp2418
(dp2419
g65
(dp2420
g85
g86
ssg74
g2414
sg67
(lp2421
S'HTTP_ACCEPT'
p2422
asbag60
(g81
g62
NtRp2423
(dp2424
g65
(dp2425
g92
g93
ssg74
g2414
sg67
(lp2426
S':'
asbag60
(g81
g62
NtRp2427
(dp2428
g65
(dp2429
sg74
g2414
sg67
(lp2430
g60
(g61
g62
NtRp2431
(dp2432
g65
(dp2433
g73
I3
ssg74
g2427
sg67
(lp2434
g945
asbasbasbag60
(g76
g62
NtRp2435
(dp2436
g65
(dp2437
sg74
g2410
sg67
(lp2438
g60
(g81
g62
NtRp2439
(dp2440
g65
(dp2441
g85
g86
ssg74
g2435
sg67
(lp2442
S'HTTP_ACCEPT_CHARSET'
p2443
asbag60
(g81
g62
NtRp2444
(dp2445
g65
(dp2446
g92
g93
ssg74
g2435
sg67
(lp2447
S':'
asbag60
(g81
g62
NtRp2448
(dp2449
g65
(dp2450
sg74
g2435
sg67
(lp2451
g60
(g61
g62
NtRp2452
(dp2453
g65
(dp2454
g73
I3
ssg74
g2448
sg67
(lp2455
g967
asbasbasbag60
(g76
g62
NtRp2456
(dp2457
g65
(dp2458
sg74
g2410
sg67
(lp2459
g60
(g81
g62
NtRp2460
(dp2461
g65
(dp2462
g85
g86
ssg74
g2456
sg67
(lp2463
S'HTTP_ACCEPT_ENCODING'
p2464
asbag60
(g81
g62
NtRp2465
(dp2466
g65
(dp2467
g92
g93
ssg74
g2456
sg67
(lp2468
S':'
asbag60
(g81
g62
NtRp2469
(dp2470
g65
(dp2471
sg74
g2456
sg67
(lp2472
g60
(g61
g62
NtRp2473
(dp2474
g65
(dp2475
g73
I3
ssg74
g2469
sg67
(lp2476
g989
asbasbasbag60
(g76
g62
NtRp2477
(dp2478
g65
(dp2479
sg74
g2410
sg67
(lp2480
g60
(g81
g62
NtRp2481
(dp2482
g65
(dp2483
g85
g86
ssg74
g2477
sg67
(lp2484
S'HTTP_ACCEPT_LANGUAGE'
p2485
asbag60
(g81
g62
NtRp2486
(dp2487
g65
(dp2488
g92
g93
ssg74
g2477
sg67
(lp2489
S':'
asbag60
(g81
g62
NtRp2490
(dp2491
g65
(dp2492
sg74
g2477
sg67
(lp2493
g60
(g61
g62
NtRp2494
(dp2495
g65
(dp2496
g73
I3
ssg74
g2490
sg67
(lp2497
g1011
asbasbasbag60
(g76
g62
NtRp2498
(dp2499
g65
(dp2500
sg74
g2410
sg67
(lp2501
g60
(g81
g62
NtRp2502
(dp2503
g65
(dp2504
g85
g86
ssg74
g2498
sg67
(lp2505
S'HTTP_CACHE_CONTROL'
p2506
asbag60
(g81
g62
NtRp2507
(dp2508
g65
(dp2509
g92
g93
ssg74
g2498
sg67
(lp2510
S':'
asbag60
(g81
g62
NtRp2511
(dp2512
g65
(dp2513
sg74
g2498
sg67
(lp2514
g60
(g61
g62
NtRp2515
(dp2516
g65
(dp2517
g73
I3
ssg74
g2511
sg67
(lp2518
g1033
asbasbasbag60
(g76
g62
NtRp2519
(dp2520
g65
(dp2521
sg74
g2410
sg67
(lp2522
g60
(g81
g62
NtRp2523
(dp2524
g65
(dp2525
g85
g86
ssg74
g2519
sg67
(lp2526
S'HTTP_CONNECTION'
p2527
asbag60
(g81
g62
NtRp2528
(dp2529
g65
(dp2530
g92
g93
ssg74
g2519
sg67
(lp2531
S':'
asbag60
(g81
g62
NtRp2532
(dp2533
g65
(dp2534
sg74
g2519
sg67
(lp2535
g60
(g61
g62
NtRp2536
(dp2537
g65
(dp2538
g73
I3
ssg74
g2532
sg67
(lp2539
g1055
asbasbasbag60
(g76
g62
NtRp2540
(dp2541
g65
(dp2542
sg74
g2410
sg67
(lp2543
g60
(g81
g62
NtRp2544
(dp2545
g65
(dp2546
g85
g86
ssg74
g2540
sg67
(lp2547
S'HTTP_COOKIE'
p2548
asbag60
(g81
g62
NtRp2549
(dp2550
g65
(dp2551
g92
g93
ssg74
g2540
sg67
(lp2552
S':'
asbag60
(g81
g62
NtRp2553
(dp2554
g65
(dp2555
sg74
g2540
sg67
(lp2556
g60
(g61
g62
NtRp2557
(dp2558
g65
(dp2559
g73
I3
ssg74
g2553
sg67
(lp2560
g1077
asbasbasbag60
(g76
g62
NtRp2561
(dp2562
g65
(dp2563
sg74
g2410
sg67
(lp2564
g60
(g81
g62
NtRp2565
(dp2566
g65
(dp2567
g85
g86
ssg74
g2561
sg67
(lp2568
S'HTTP_HOST'
p2569
asbag60
(g81
g62
NtRp2570
(dp2571
g65
(dp2572
g92
g93
ssg74
g2561
sg67
(lp2573
S':'
asbag60
(g81
g62
NtRp2574
(dp2575
g65
(dp2576
sg74
g2561
sg67
(lp2577
g60
(g61
g62
NtRp2578
(dp2579
g65
(dp2580
g73
I3
ssg74
g2574
sg67
(lp2581
g1099
asbasbasbag60
(g76
g62
NtRp2582
(dp2583
g65
(dp2584
sg74
g2410
sg67
(lp2585
g60
(g81
g62
NtRp2586
(dp2587
g65
(dp2588
g85
g86
ssg74
g2582
sg67
(lp2589
S'HTTP_USER_AGENT'
p2590
asbag60
(g81
g62
NtRp2591
(dp2592
g65
(dp2593
g92
g93
ssg74
g2582
sg67
(lp2594
S':'
asbag60
(g81
g62
NtRp2595
(dp2596
g65
(dp2597
sg74
g2582
sg67
(lp2598
g60
(g61
g62
NtRp2599
(dp2600
g65
(dp2601
g73
I3
ssg74
g2595
sg67
(lp2602
g1121
asbasbasbag60
(g76
g62
NtRp2603
(dp2604
g65
(dp2605
sg74
g2410
sg67
(lp2606
g60
(g81
g62
NtRp2607
(dp2608
g65
(dp2609
g85
g86
ssg74
g2603
sg67
(lp2610
S'PATH_INFO'
p2611
asbag60
(g81
g62
NtRp2612
(dp2613
g65
(dp2614
g92
g93
ssg74
g2603
sg67
(lp2615
S':'
asbag60
(g81
g62
NtRp2616
(dp2617
g65
(dp2618
sg74
g2603
sg67
(lp2619
g60
(g61
g62
NtRp2620
(dp2621
g65
(dp2622
g73
I3
ssg74
g2616
sg67
(lp2623
S'/'
asbasbasbag60
(g76
g62
NtRp2624
(dp2625
g65
(dp2626
sg74
g2410
sg67
(lp2627
g60
(g81
g62
NtRp2628
(dp2629
g65
(dp2630
g85
g86
ssg74
g2624
sg67
(lp2631
S'QUERY_STRING'
p2632
asbag60
(g81
g62
NtRp2633
(dp2634
g65
(dp2635
g92
g93
ssg74
g2624
sg67
(lp2636
S':'
asbag60
(g81
g62
NtRp2637
(dp2638
g65
(dp2639
sg74
g2624
sg67
(lp2640
g60
(g61
g62
NtRp2641
(dp2642
g65
(dp2643
g73
I3
ssg74
g2637
sg67
(lp2644
S''
asbasbasbag60
(g76
g62
NtRp2645
(dp2646
g65
(dp2647
sg74
g2410
sg67
(lp2648
g60
(g81
g62
NtRp2649
(dp2650
g65
(dp2651
g85
g86
ssg74
g2645
sg67
(lp2652
S'REMOTE_ADDR'
p2653
asbag60
(g81
g62
NtRp2654
(dp2655
g65
(dp2656
g92
g93
ssg74
g2645
sg67
(lp2657
S':'
asbag60
(g81
g62
NtRp2658
(dp2659
g65
(dp2660
sg74
g2645
sg67
(lp2661
g60
(g61
g62
NtRp2662
(dp2663
g65
(dp2664
g73
I3
ssg74
g2658
sg67
(lp2665
g193
asbasbasbag60
(g76
g62
NtRp2666
(dp2667
g65
(dp2668
sg74
g2410
sg67
(lp2669
g60
(g81
g62
NtRp2670
(dp2671
g65
(dp2672
g85
g86
ssg74
g2666
sg67
(lp2673
S'REMOTE_PORT'
p2674
asbag60
(g81
g62
NtRp2675
(dp2676
g65
(dp2677
g92
g93
ssg74
g2666
sg67
(lp2678
S':'
asbag60
(g81
g62
NtRp2679
(dp2680
g65
(dp2681
sg74
g2666
sg67
(lp2682
g60
(g61
g62
NtRp2683
(dp2684
g65
(dp2685
g73
I3
ssg74
g2679
sg67
(lp2686
g1248
asbasbasbag60
(g76
g62
NtRp2687
(dp2688
g65
(dp2689
sg74
g2410
sg67
(lp2690
g60
(g81
g62
NtRp2691
(dp2692
g65
(dp2693
g85
g86
ssg74
g2687
sg67
(lp2694
S'REQUEST_METHOD'
p2695
asbag60
(g81
g62
NtRp2696
(dp2697
g65
(dp2698
g92
g93
ssg74
g2687
sg67
(lp2699
S':'
asbag60
(g81
g62
NtRp2700
(dp2701
g65
(dp2702
sg74
g2687
sg67
(lp2703
g60
(g61
g62
NtRp2704
(dp2705
g65
(dp2706
g73
I3
ssg74
g2700
sg67
(lp2707
g1270
asbasbasbag60
(g76
g62
NtRp2708
(dp2709
g65
(dp2710
sg74
g2410
sg67
(lp2711
g60
(g81
g62
NtRp2712
(dp2713
g65
(dp2714
g85
g86
ssg74
g2708
sg67
(lp2715
S'REQUEST_URI'
p2716
asbag60
(g81
g62
NtRp2717
(dp2718
g65
(dp2719
g92
g93
ssg74
g2708
sg67
(lp2720
S':'
asbag60
(g81
g62
NtRp2721
(dp2722
g65
(dp2723
sg74
g2708
sg67
(lp2724
g60
(g61
g62
NtRp2725
(dp2726
g65
(dp2727
g73
I3
ssg74
g2721
sg67
(lp2728
g1292
asbasbasbag60
(g76
g62
NtRp2729
(dp2730
g65
(dp2731
sg74
g2410
sg67
(lp2732
g60
(g81
g62
NtRp2733
(dp2734
g65
(dp2735
g85
g86
ssg74
g2729
sg67
(lp2736
S'SCRIPT_NAME'
p2737
asbag60
(g81
g62
NtRp2738
(dp2739
g65
(dp2740
g92
g93
ssg74
g2729
sg67
(lp2741
S':'
asbag60
(g81
g62
NtRp2742
(dp2743
g65
(dp2744
sg74
g2729
sg67
(lp2745
g60
(g61
g62
NtRp2746
(dp2747
g65
(dp2748
g73
I3
ssg74
g2742
sg67
(lp2749
S''
asbasbasbag60
(g76
g62
NtRp2750
(dp2751
g65
(dp2752
sg74
g2410
sg67
(lp2753
g60
(g81
g62
NtRp2754
(dp2755
g65
(dp2756
g85
g86
ssg74
g2750
sg67
(lp2757
S'SERVER_NAME'
p2758
asbag60
(g81
g62
NtRp2759
(dp2760
g65
(dp2761
g92
g93
ssg74
g2750
sg67
(lp2762
S':'
asbag60
(g81
g62
NtRp2763
(dp2764
g65
(dp2765
sg74
g2750
sg67
(lp2766
g60
(g61
g62
NtRp2767
(dp2768
g65
(dp2769
g73
I3
ssg74
g2763
sg67
(lp2770
g1335
asbasbasbag60
(g76
g62
NtRp2771
(dp2772
g65
(dp2773
sg74
g2410
sg67
(lp2774
g60
(g81
g62
NtRp2775
(dp2776
g65
(dp2777
g85
g86
ssg74
g2771
sg67
(lp2778
S'SERVER_PORT'
p2779
asbag60
(g81
g62
NtRp2780
(dp2781
g65
(dp2782
g92
g93
ssg74
g2771
sg67
(lp2783
S':'
asbag60
(g81
g62
NtRp2784
(dp2785
g65
(dp2786
sg74
g2771
sg67
(lp2787
g60
(g61
g62
NtRp2788
(dp2789
g65
(dp2790
g73
I3
ssg74
g2784
sg67
(lp2791
g1357
asbasbasbag60
(g76
g62
NtRp2792
(dp2793
g65
(dp2794
sg74
g2410
sg67
(lp2795
g60
(g81
g62
NtRp2796
(dp2797
g65
(dp2798
g85
g86
ssg74
g2792
sg67
(lp2799
S'SERVER_PROTOCOL'
p2800
asbag60
(g81
g62
NtRp2801
(dp2802
g65
(dp2803
g92
g93
ssg74
g2792
sg67
(lp2804
S':'
asbag60
(g81
g62
NtRp2805
(dp2806
g65
(dp2807
sg74
g2792
sg67
(lp2808
g60
(g61
g62
NtRp2809
(dp2810
g65
(dp2811
g73
I3
ssg74
g2805
sg67
(lp2812
g1379
asbasbasbag60
(g76
g62
NtRp2813
(dp2814
g65
(dp2815
sg74
g2410
sg67
(lp2816
g60
(g81
g62
NtRp2817
(dp2818
g65
(dp2819
g85
g86
ssg74
g2813
sg67
(lp2820
S'SERVER_SOFTWARE'
p2821
asbag60
(g81
g62
NtRp2822
(dp2823
g65
(dp2824
g92
g93
ssg74
g2813
sg67
(lp2825
S':'
asbag60
(g81
g62
NtRp2826
(dp2827
g65
(dp2828
sg74
g2813
sg67
(lp2829
g60
(g61
g62
NtRp2830
(dp2831
g65
(dp2832
g73
I3
ssg74
g2826
sg67
(lp2833
g1401
asbasbasbag60
(g76
g62
NtRp2834
(dp2835
g65
(dp2836
sg74
g2410
sg67
(lp2837
g60
(g81
g62
NtRp2838
(dp2839
g65
(dp2840
g85
g86
ssg74
g2834
sg67
(lp2841
S'WEB2PY_ORIGINAL_URI'
p2842
asbag60
(g81
g62
NtRp2843
(dp2844
g65
(dp2845
g92
g93
ssg74
g2834
sg67
(lp2846
S':'
asbag60
(g81
g62
NtRp2847
(dp2848
g65
(dp2849
sg74
g2834
sg67
(lp2850
g60
(g61
g62
NtRp2851
(dp2852
g65
(dp2853
g73
I3
ssg74
g2847
sg67
(lp2854
S'/'
asbasbasbag60
(g76
g62
NtRp2855
(dp2856
g65
(dp2857
sg74
g2410
sg67
(lp2858
g60
(g81
g62
NtRp2859
(dp2860
g65
(dp2861
g85
g86
ssg74
g2855
sg67
(lp2862
S'wsgi.errors'
p2863
asbag60
(g81
g62
NtRp2864
(dp2865
g65
(dp2866
g92
g93
ssg74
g2855
sg67
(lp2867
S':'
asbag60
(g81
g62
NtRp2868
(dp2869
g65
(dp2870
sg74
g2855
sg67
(lp2871
g60
(g61
g62
NtRp2872
(dp2873
g65
(dp2874
g73
I3
ssg74
g2868
sg67
(lp2875
S"<open file '<stderr>', mode 'w' at 0x4220b0>"
p2876
asbasbasbag60
(g76
g62
NtRp2877
(dp2878
g65
(dp2879
sg74
g2410
sg67
(lp2880
g60
(g81
g62
NtRp2881
(dp2882
g65
(dp2883
g85
g86
ssg74
g2877
sg67
(lp2884
S'wsgi.file_wrapper'
p2885
asbag60
(g81
g62
NtRp2886
(dp2887
g65
(dp2888
g92
g93
ssg74
g2877
sg67
(lp2889
S':'
asbag60
(g81
g62
NtRp2890
(dp2891
g65
(dp2892
sg74
g2877
sg67
(lp2893
g60
(g61
g62
NtRp2894
(dp2895
g65
(dp2896
g73
I3
ssg74
g2890
sg67
(lp2897
S'<class wsgiref.util.FileWrapper at 0x2b60450>'
p2898
asbasbasbag60
(g76
g62
NtRp2899
(dp2900
g65
(dp2901
sg74
g2410
sg67
(lp2902
g60
(g81
g62
NtRp2903
(dp2904
g65
(dp2905
g85
g86
ssg74
g2899
sg67
(lp2906
S'wsgi.input'
p2907
asbag60
(g81
g62
NtRp2908
(dp2909
g65
(dp2910
g92
g93
ssg74
g2899
sg67
(lp2911
S':'
asbag60
(g81
g62
NtRp2912
(dp2913
g65
(dp2914
sg74
g2899
sg67
(lp2915
g60
(g61
g62
NtRp2916
(dp2917
g65
(dp2918
g73
I3
ssg74
g2912
sg67
(lp2919
S'<cStringIO.StringO object at 0xa5980a0>'
p2920
asbasbasbag60
(g76
g62
NtRp2921
(dp2922
g65
(dp2923
sg74
g2410
sg67
(lp2924
g60
(g81
g62
NtRp2925
(dp2926
g65
(dp2927
g85
g86
ssg74
g2921
sg67
(lp2928
S'wsgi.multiprocess'
p2929
asbag60
(g81
g62
NtRp2930
(dp2931
g65
(dp2932
g92
g93
ssg74
g2921
sg67
(lp2933
S':'
asbag60
(g81
g62
NtRp2934
(dp2935
g65
(dp2936
sg74
g2921
sg67
(lp2937
g60
(g61
g62
NtRp2938
(dp2939
g65
(dp2940
g73
I3
ssg74
g2934
sg67
(lp2941
g103
asbasbasbag60
(g76
g62
NtRp2942
(dp2943
g65
(dp2944
sg74
g2410
sg67
(lp2945
g60
(g81
g62
NtRp2946
(dp2947
g65
(dp2948
g85
g86
ssg74
g2942
sg67
(lp2949
S'wsgi.multithread'
p2950
asbag60
(g81
g62
NtRp2951
(dp2952
g65
(dp2953
g92
g93
ssg74
g2942
sg67
(lp2954
S':'
asbag60
(g81
g62
NtRp2955
(dp2956
g65
(dp2957
sg74
g2942
sg67
(lp2958
g60
(g61
g62
NtRp2959
(dp2960
g65
(dp2961
g73
I3
ssg74
g2955
sg67
(lp2962
g1662
asbasbasbag60
(g76
g62
NtRp2963
(dp2964
g65
(dp2965
sg74
g2410
sg67
(lp2966
g60
(g81
g62
NtRp2967
(dp2968
g65
(dp2969
g85
g86
ssg74
g2963
sg67
(lp2970
S'wsgi.run_once'
p2971
asbag60
(g81
g62
NtRp2972
(dp2973
g65
(dp2974
g92
g93
ssg74
g2963
sg67
(lp2975
S':'
asbag60
(g81
g62
NtRp2976
(dp2977
g65
(dp2978
sg74
g2963
sg67
(lp2979
g60
(g61
g62
NtRp2980
(dp2981
g65
(dp2982
g73
I3
ssg74
g2976
sg67
(lp2983
g103
asbasbasbag60
(g76
g62
NtRp2984
(dp2985
g65
(dp2986
sg74
g2410
sg67
(lp2987
g60
(g81
g62
NtRp2988
(dp2989
g65
(dp2990
g85
g86
ssg74
g2984
sg67
(lp2991
S'wsgi.url_scheme'
p2992
asbag60
(g81
g62
NtRp2993
(dp2994
g65
(dp2995
g92
g93
ssg74
g2984
sg67
(lp2996
S':'
asbag60
(g81
g62
NtRp2997
(dp2998
g65
(dp2999
sg74
g2984
sg67
(lp3000
g60
(g61
g62
NtRp3001
(dp3002
g65
(dp3003
g73
I3
ssg74
g2997
sg67
(lp3004
g1705
asbasbasbag60
(g76
g62
NtRp3005
(dp3006
g65
(dp3007
sg74
g2410
sg67
(lp3008
g60
(g81
g62
NtRp3009
(dp3010
g65
(dp3011
g85
g86
ssg74
g3005
sg67
(lp3012
S'wsgi.version'
p3013
asbag60
(g81
g62
NtRp3014
(dp3015
g65
(dp3016
g92
g93
ssg74
g3005
sg67
(lp3017
S':'
asbag60
(g81
g62
NtRp3018
(dp3019
g65
(dp3020
sg74
g3005
sg67
(lp3021
g60
(g61
g62
NtRp3022
(dp3023
g65
(dp3024
g73
I3
ssg74
g3018
sg67
(lp3025
S'1'
asbasbasbasbasbasbasbasbasbasbasbasbasbsS'frames'
p3026
(lp3027
(dp3028
S'file'
p3029
S'/users/udimilo/Documents/web2py/gluon/restricted.py'
p3030
sS'dump'
p3031
(dp3032
S'code'
p3033
S'\'response.write(\\\'<html lan="en">\\\\n<head>\\\\n    <ti...js"></script>\\\\n</body>\\\\n</html>\\\\n\\\', escape=False)\''
p3034
sS'layer'
p3035
S"'/Users/udimilo/Documents/web2py/applications/udi0312/views/default/index.html'"
p3036
sS'global compile2'
p3037
S'<function compile2 at 0x2ae2d30>'
p3038
sS'ccode'
p3039
S'undefined'
p3040
ssS'lnum'
p3041
I204
sS'lines'
p3042
(dp3043
I199
S"    environment['__name__'] = '__restricted__'"
p3044
sI200
S'    try:'
p3045
sI201
S'        if type(code) == types.CodeType:'
p3046
sI202
S'            ccode = code'
p3047
sI203
S'        else:'
p3048
sI204
S'            ccode = compile2(code,layer)'
p3049
sI205
S'        exec ccode in environment'
p3050
sI206
S'    except HTTP:'
p3051
sI207
S'        raise'
p3052
sI208
S'    except RestrictedError:'
p3053
ssS'call'
p3054
S'(code=\'response.write(\\\'<html lan="en">\\\\n<head>\\\\n    <ti...js"></script>\\\\n</body>\\\\n</html>\\\\n\\\', escape=False)\', environment={\'A\': <class \'gluon.html.A\'>, \'Auth\': <class \'gluon.tools.Auth\'>, \'B\': <class \'gluon.html.B\'>, \'BEAUTIFY\': <class \'gluon.html.BEAUTIFY\'>, \'BODY\': <class \'gluon.html.BODY\'>, \'BR\': <class \'gluon.html.BR\'>, \'BUTTON\': <class \'gluon.html.BUTTON\'>, \'CAT\': <class \'gluon.html.CAT\'>, \'CENTER\': <class \'gluon.html.CENTER\'>, \'CLEANUP\': <class \'gluon.validators.CLEANUP\'>, ...}, layer=\'/Users/udimilo/Documents/web2py/applications/udi0312/views/default/index.html\')'
p3055
sS'func'
p3056
S'restricted'
p3057
sa(dp3058
g3029
S'/users/udimilo/Documents/web2py/gluon/restricted.py'
p3059
sg3031
(dp3060
S'builtincompile'
p3061
S'<built-in function compile>'
p3062
sS'code'
p3063
S'\'response.write(\\\'<html lan="en">\\\\n<head>\\\\n    <ti...js"></script>\\\\n</body>\\\\n</html>\\\\n\\\', escape=False)\''
p3064
sS'code.rstrip'
p3065
S'<built-in method rstrip of str object at 0x1c41c00>'
p3066
sS').replace'
p3067
g3040
sS'layer'
p3068
S"'/Users/udimilo/Documents/web2py/applications/udi0312/views/default/index.html'"
p3069
ssg3041
I189
sg3042
(dp3070
I192
S'    """'
p3071
sI193
S'    runs code in environment and returns the output. if an exception occurs'
p3072
sI184
S''
sI185
S'def compile2(code,layer):'
p3073
sI186
S'    """'
p3074
sI187
S"    The +'\\n' is necessary else compile fails when code ends in a comment."
p3075
sI188
S'    """'
p3076
sI189
S"    return compile(code.rstrip().replace('\\r\\n','\\n')+'\\n', layer, 'exec')"
p3077
sI190
S''
sI191
S"def restricted(code, environment=None, layer='Unknown'):"
p3078
ssg3054
S'(code=\'response.write(\\\'<html lan="en">\\\\n<head>\\\\n    <ti...js"></script>\\\\n</body>\\\\n</html>\\\\n\\\', escape=False)\', layer=\'/Users/udimilo/Documents/web2py/applications/udi0312/views/default/index.html\')'
p3079
sg3056
S'compile2'
p3080
sasS'pyver'
p3081
S'Python 2.5.4: /Library/Frameworks/Python.framework/Versions/2.5/Resources/Python.app/Contents/MacOS/Python'
p3082
sS'session'
p3083
g60
(g61
g62
NtRp3084
(dp3085
g65
(dp3086
sg67
(lp3087
g60
(g69
g62
NtRp3088
(dp3089
g65
(dp3090
g73
I5
ssg74
Nsg67
(lp3091
g60
(g76
g62
NtRp3092
(dp3093
g65
(dp3094
sg74
g3088
sg67
(lp3095
g60
(g81
g62
NtRp3096
(dp3097
g65
(dp3098
g85
g86
ssg74
g3092
sg67
(lp3099
S'auth'
p3100
asbag60
(g81
g62
NtRp3101
(dp3102
g65
(dp3103
g92
g93
ssg74
g3092
sg67
(lp3104
S':'
asbag60
(g81
g62
NtRp3105
(dp3106
g65
(dp3107
sg74
g3092
sg67
(lp3108
g60
(g61
g62
NtRp3109
(dp3110
g65
(dp3111
g73
I5
ssg74
g3105
sg67
(lp3112
g60
(g69
g62
NtRp3113
(dp3114
g65
(dp3115
g73
I4
ssg74
Nsg67
(lp3116
g60
(g76
g62
NtRp3117
(dp3118
g65
(dp3119
sg74
g3113
sg67
(lp3120
g60
(g81
g62
NtRp3121
(dp3122
g65
(dp3123
g85
g86
ssg74
g3117
sg67
(lp3124
S'expiration'
p3125
asbag60
(g81
g62
NtRp3126
(dp3127
g65
(dp3128
g92
g93
ssg74
g3117
sg67
(lp3129
S':'
asbag60
(g81
g62
NtRp3130
(dp3131
g65
(dp3132
sg74
g3117
sg67
(lp3133
g60
(g61
g62
NtRp3134
(dp3135
g65
(dp3136
g73
I4
ssg74
g3130
sg67
(lp3137
S'3600'
p3138
asbasbasbag60
(g76
g62
NtRp3139
(dp3140
g65
(dp3141
sg74
g3113
sg67
(lp3142
g60
(g81
g62
NtRp3143
(dp3144
g65
(dp3145
g85
g86
ssg74
g3139
sg67
(lp3146
S'hmac_key'
p3147
asbag60
(g81
g62
NtRp3148
(dp3149
g65
(dp3150
g92
g93
ssg74
g3139
sg67
(lp3151
S':'
asbag60
(g81
g62
NtRp3152
(dp3153
g65
(dp3154
sg74
g3139
sg67
(lp3155
g60
(g61
g62
NtRp3156
(dp3157
g65
(dp3158
g73
I4
ssg74
g3152
sg67
(lp3159
S'c5ede756-7663-4b1d-84d6-b689decf73a3'
p3160
asbasbasbag60
(g76
g62
NtRp3161
(dp3162
g65
(dp3163
sg74
g3113
sg67
(lp3164
g60
(g81
g62
NtRp3165
(dp3166
g65
(dp3167
g85
g86
ssg74
g3161
sg67
(lp3168
S'last_visit'
p3169
asbag60
(g81
g62
NtRp3170
(dp3171
g65
(dp3172
g92
g93
ssg74
g3161
sg67
(lp3173
S':'
asbag60
(g81
g62
NtRp3174
(dp3175
g65
(dp3176
sg74
g3161
sg67
(lp3177
g60
(g61
g62
NtRp3178
(dp3179
g65
(dp3180
g73
I4
ssg74
g3174
sg67
(lp3181
S'datetime.datetime(2012, 3, 7, 21, 0, 39, 343903)'
p3182
asbasbasbag60
(g76
g62
NtRp3183
(dp3184
g65
(dp3185
sg74
g3113
sg67
(lp3186
g60
(g81
g62
NtRp3187
(dp3188
g65
(dp3189
g85
g86
ssg74
g3183
sg67
(lp3190
S'remember'
p3191
asbag60
(g81
g62
NtRp3192
(dp3193
g65
(dp3194
g92
g93
ssg74
g3183
sg67
(lp3195
S':'
asbag60
(g81
g62
NtRp3196
(dp3197
g65
(dp3198
sg74
g3183
sg67
(lp3199
g60
(g61
g62
NtRp3200
(dp3201
g65
(dp3202
g73
I4
ssg74
g3196
sg67
(lp3203
g103
asbasbasbag60
(g76
g62
NtRp3204
(dp3205
g65
(dp3206
sg74
g3113
sg67
(lp3207
g60
(g81
g62
NtRp3208
(dp3209
g65
(dp3210
g85
g86
ssg74
g3204
sg67
(lp3211
S'user'
p3212
asbag60
(g81
g62
NtRp3213
(dp3214
g65
(dp3215
g92
g93
ssg74
g3204
sg67
(lp3216
S':'
asbag60
(g81
g62
NtRp3217
(dp3218
g65
(dp3219
sg74
g3204
sg67
(lp3220
g60
(g61
g62
NtRp3221
(dp3222
g65
(dp3223
g73
I4
ssg74
g3217
sg67
(lp3224
g60
(g69
g62
NtRp3225
(dp3226
g65
(dp3227
g73
I3
ssg74
Nsg67
(lp3228
g60
(g76
g62
NtRp3229
(dp3230
g65
(dp3231
sg74
g3225
sg67
(lp3232
g60
(g81
g62
NtRp3233
(dp3234
g65
(dp3235
g85
g86
ssg74
g3229
sg67
(lp3236
S'email'
p3237
asbag60
(g81
g62
NtRp3238
(dp3239
g65
(dp3240
g92
g93
ssg74
g3229
sg67
(lp3241
S':'
asbag60
(g81
g62
NtRp3242
(dp3243
g65
(dp3244
sg74
g3229
sg67
(lp3245
g60
(g61
g62
NtRp3246
(dp3247
g65
(dp3248
g73
I3
ssg74
g3242
sg67
(lp3249
S'udimilo@gmail.com'
p3250
asbasbasbag60
(g76
g62
NtRp3251
(dp3252
g65
(dp3253
sg74
g3225
sg67
(lp3254
g60
(g81
g62
NtRp3255
(dp3256
g65
(dp3257
g85
g86
ssg74
g3251
sg67
(lp3258
S'first_name'
p3259
asbag60
(g81
g62
NtRp3260
(dp3261
g65
(dp3262
g92
g93
ssg74
g3251
sg67
(lp3263
S':'
asbag60
(g81
g62
NtRp3264
(dp3265
g65
(dp3266
sg74
g3251
sg67
(lp3267
g60
(g61
g62
NtRp3268
(dp3269
g65
(dp3270
g73
I3
ssg74
g3264
sg67
(lp3271
S'Udi'
p3272
asbasbasbag60
(g76
g62
NtRp3273
(dp3274
g65
(dp3275
sg74
g3225
sg67
(lp3276
g60
(g81
g62
NtRp3277
(dp3278
g65
(dp3279
g85
g86
ssg74
g3273
sg67
(lp3280
S'id'
p3281
asbag60
(g81
g62
NtRp3282
(dp3283
g65
(dp3284
g92
g93
ssg74
g3273
sg67
(lp3285
S':'
asbag60
(g81
g62
NtRp3286
(dp3287
g65
(dp3288
sg74
g3273
sg67
(lp3289
g60
(g61
g62
NtRp3290
(dp3291
g65
(dp3292
g73
I3
ssg74
g3286
sg67
(lp3293
S'1'
asbasbasbag60
(g76
g62
NtRp3294
(dp3295
g65
(dp3296
sg74
g3225
sg67
(lp3297
g60
(g81
g62
NtRp3298
(dp3299
g65
(dp3300
g85
g86
ssg74
g3294
sg67
(lp3301
S'last_name'
p3302
asbag60
(g81
g62
NtRp3303
(dp3304
g65
(dp3305
g92
g93
ssg74
g3294
sg67
(lp3306
S':'
asbag60
(g81
g62
NtRp3307
(dp3308
g65
(dp3309
sg74
g3294
sg67
(lp3310
g60
(g61
g62
NtRp3311
(dp3312
g65
(dp3313
g73
I3
ssg74
g3307
sg67
(lp3314
S'Milo'
p3315
asbasbasbag60
(g76
g62
NtRp3316
(dp3317
g65
(dp3318
sg74
g3225
sg67
(lp3319
g60
(g81
g62
NtRp3320
(dp3321
g65
(dp3322
g85
g86
ssg74
g3316
sg67
(lp3323
S'password'
p3324
asbag60
(g81
g62
NtRp3325
(dp3326
g65
(dp3327
g92
g93
ssg74
g3316
sg67
(lp3328
S':'
asbag60
(g81
g62
NtRp3329
(dp3330
g65
(dp3331
sg74
g3316
sg67
(lp3332
g60
(g61
g62
NtRp3333
(dp3334
g65
(dp3335
g73
I3
ssg74
g3329
sg67
(lp3336
S'7a6e3c6a68ceed66634484a3f64a3468'
p3337
asbasbasbag60
(g76
g62
NtRp3338
(dp3339
g65
(dp3340
sg74
g3225
sg67
(lp3341
g60
(g81
g62
NtRp3342
(dp3343
g65
(dp3344
g85
g86
ssg74
g3338
sg67
(lp3345
S'registration_id'
p3346
asbag60
(g81
g62
NtRp3347
(dp3348
g65
(dp3349
g92
g93
ssg74
g3338
sg67
(lp3350
S':'
asbag60
(g81
g62
NtRp3351
(dp3352
g65
(dp3353
sg74
g3338
sg67
(lp3354
g60
(g61
g62
NtRp3355
(dp3356
g65
(dp3357
g73
I3
ssg74
g3351
sg67
(lp3358
S''
asbasbasbag60
(g76
g62
NtRp3359
(dp3360
g65
(dp3361
sg74
g3225
sg67
(lp3362
g60
(g81
g62
NtRp3363
(dp3364
g65
(dp3365
g85
g86
ssg74
g3359
sg67
(lp3366
S'registration_key'
p3367
asbag60
(g81
g62
NtRp3368
(dp3369
g65
(dp3370
g92
g93
ssg74
g3359
sg67
(lp3371
S':'
asbag60
(g81
g62
NtRp3372
(dp3373
g65
(dp3374
sg74
g3359
sg67
(lp3375
g60
(g61
g62
NtRp3376
(dp3377
g65
(dp3378
g73
I3
ssg74
g3372
sg67
(lp3379
S''
asbasbasbag60
(g76
g62
NtRp3380
(dp3381
g65
(dp3382
sg74
g3225
sg67
(lp3383
g60
(g81
g62
NtRp3384
(dp3385
g65
(dp3386
g85
g86
ssg74
g3380
sg67
(lp3387
S'reset_password_key'
p3388
asbag60
(g81
g62
NtRp3389
(dp3390
g65
(dp3391
g92
g93
ssg74
g3380
sg67
(lp3392
S':'
asbag60
(g81
g62
NtRp3393
(dp3394
g65
(dp3395
sg74
g3380
sg67
(lp3396
g60
(g61
g62
NtRp3397
(dp3398
g65
(dp3399
g73
I3
ssg74
g3393
sg67
(lp3400
S''
asbasbasbasbasbasbasbag60
(g76
g62
NtRp3401
(dp3402
g65
(dp3403
sg74
g3113
sg67
(lp3404
g60
(g81
g62
NtRp3405
(dp3406
g65
(dp3407
g85
g86
ssg74
g3401
sg67
(lp3408
S'user_groups'
p3409
asbag60
(g81
g62
NtRp3410
(dp3411
g65
(dp3412
g92
g93
ssg74
g3401
sg67
(lp3413
S':'
asbag60
(g81
g62
NtRp3414
(dp3415
g65
(dp3416
sg74
g3401
sg67
(lp3417
g60
(g61
g62
NtRp3418
(dp3419
g65
(dp3420
g73
I4
ssg74
g3414
sg67
(lp3421
g60
(g69
g62
NtRp3422
(dp3423
g65
(dp3424
g73
I3
ssg74
Nsg67
(lp3425
g60
(g76
g62
NtRp3426
(dp3427
g65
(dp3428
sg74
g3422
sg67
(lp3429
g60
(g81
g62
NtRp3430
(dp3431
g65
(dp3432
g85
g86
ssg74
g3426
sg67
(lp3433
S'1'
asbag60
(g81
g62
NtRp3434
(dp3435
g65
(dp3436
g92
g93
ssg74
g3426
sg67
(lp3437
S':'
asbag60
(g81
g62
NtRp3438
(dp3439
g65
(dp3440
sg74
g3426
sg67
(lp3441
g60
(g61
g62
NtRp3442
(dp3443
g65
(dp3444
g73
I3
ssg74
g3438
sg67
(lp3445
S'user_1'
p3446
asbasbasbasbasbasbasbasbasbasbasbag60
(g76
g62
NtRp3447
(dp3448
g65
(dp3449
sg74
g3088
sg67
(lp3450
g60
(g81
g62
NtRp3451
(dp3452
g65
(dp3453
g85
g86
ssg74
g3447
sg67
(lp3454
S'last_query'
p3455
asbag60
(g81
g62
NtRp3456
(dp3457
g65
(dp3458
g92
g93
ssg74
g3447
sg67
(lp3459
S':'
asbag60
(g81
g62
NtRp3460
(dp3461
g65
(dp3462
sg74
g3447
sg67
(lp3463
g60
(g61
g62
NtRp3464
(dp3465
g65
(dp3466
g73
I5
ssg74
g3460
sg67
(lp3467
S'db.board.id>0'
p3468
asbasbasbasbasbsS'etype'
p3469
S"<type 'exceptions.SyntaxError'>"
p3470
sS'date'
p3471
S'Wed Mar  7 21:04:22 2012'
p3472
sS'response'
p3473
g60
(g61
g62
NtRp3474
(dp3475
g65
(dp3476
sg67
(lp3477
g60
(g69
g62
NtRp3478
(dp3479
g65
(dp3480
g73
I5
ssg74
Nsg67
(lp3481
g60
(g76
g62
NtRp3482
(dp3483
g65
(dp3484
sg74
g3478
sg67
(lp3485
g60
(g81
g62
NtRp3486
(dp3487
g65
(dp3488
g85
g86
ssg74
g3482
sg67
(lp3489
g158
asbag60
(g81
g62
NtRp3490
(dp3491
g65
(dp3492
g92
g93
ssg74
g3482
sg67
(lp3493
S':'
asbag60
(g81
g62
NtRp3494
(dp3495
g65
(dp3496
sg74
g3482
sg67
(lp3497
g60
(g61
g62
NtRp3498
(dp3499
g65
(dp3500
g73
I5
ssg74
g3494
sg67
(lp3501
S'<cStringIO.StringO object at 0xa62ce60>'
p3502
asbasbasbag60
(g76
g62
NtRp3503
(dp3504
g65
(dp3505
sg74
g3478
sg67
(lp3506
g60
(g81
g62
NtRp3507
(dp3508
g65
(dp3509
g85
g86
ssg74
g3503
sg67
(lp3510
g224
asbag60
(g81
g62
NtRp3511
(dp3512
g65
(dp3513
g92
g93
ssg74
g3503
sg67
(lp3514
S':'
asbag60
(g81
g62
NtRp3515
(dp3516
g65
(dp3517
sg74
g3503
sg67
(lp3518
g60
(g61
g62
NtRp3519
(dp3520
g65
(dp3521
g73
I5
ssg74
g3515
sg67
(lp3522
g60
(g69
g62
NtRp3523
(dp3524
g65
(dp3525
g73
I4
ssg74
Nsg67
(lp3526
g60
(g76
g62
NtRp3527
(dp3528
g65
(dp3529
sg74
g3523
sg67
(lp3530
g60
(g81
g62
NtRp3531
(dp3532
g65
(dp3533
g85
g86
ssg74
g3527
sg67
(lp3534
S'session_id_udi0312'
p3535
asbag60
(g81
g62
NtRp3536
(dp3537
g65
(dp3538
g92
g93
ssg74
g3527
sg67
(lp3539
S':'
asbag60
(g81
g62
NtRp3540
(dp3541
g65
(dp3542
sg74
g3527
sg67
(lp3543
g60
(g61
g62
NtRp3544
(dp3545
g65
(dp3546
g73
I4
ssg74
g3540
sg67
(lp3547
g60
(g69
g62
NtRp3548
(dp3549
g65
(dp3550
g73
I3
ssg74
Nsg67
(lp3551
g60
(g76
g62
NtRp3552
(dp3553
g65
(dp3554
sg74
g3548
sg67
(lp3555
g60
(g81
g62
NtRp3556
(dp3557
g65
(dp3558
g85
g86
ssg74
g3552
sg67
(lp3559
g274
asbag60
(g81
g62
NtRp3560
(dp3561
g65
(dp3562
g92
g93
ssg74
g3552
sg67
(lp3563
S':'
asbag60
(g81
g62
NtRp3564
(dp3565
g65
(dp3566
sg74
g3552
sg67
(lp3567
g60
(g61
g62
NtRp3568
(dp3569
g65
(dp3570
g73
I3
ssg74
g3564
sg67
(lp3571
S''
asbasbasbag60
(g76
g62
NtRp3572
(dp3573
g65
(dp3574
sg74
g3548
sg67
(lp3575
g60
(g81
g62
NtRp3576
(dp3577
g65
(dp3578
g85
g86
ssg74
g3572
sg67
(lp3579
g295
asbag60
(g81
g62
NtRp3580
(dp3581
g65
(dp3582
g92
g93
ssg74
g3572
sg67
(lp3583
S':'
asbag60
(g81
g62
NtRp3584
(dp3585
g65
(dp3586
sg74
g3572
sg67
(lp3587
g60
(g61
g62
NtRp3588
(dp3589
g65
(dp3590
g73
I3
ssg74
g3584
sg67
(lp3591
S''
asbasbasbag60
(g76
g62
NtRp3592
(dp3593
g65
(dp3594
sg74
g3548
sg67
(lp3595
g60
(g81
g62
NtRp3596
(dp3597
g65
(dp3598
g85
g86
ssg74
g3592
sg67
(lp3599
g316
asbag60
(g81
g62
NtRp3600
(dp3601
g65
(dp3602
g92
g93
ssg74
g3592
sg67
(lp3603
S':'
asbag60
(g81
g62
NtRp3604
(dp3605
g65
(dp3606
sg74
g3592
sg67
(lp3607
g60
(g61
g62
NtRp3608
(dp3609
g65
(dp3610
g73
I3
ssg74
g3604
sg67
(lp3611
S''
asbasbasbag60
(g76
g62
NtRp3612
(dp3613
g65
(dp3614
sg74
g3548
sg67
(lp3615
g60
(g81
g62
NtRp3616
(dp3617
g65
(dp3618
g85
g86
ssg74
g3612
sg67
(lp3619
g337
asbag60
(g81
g62
NtRp3620
(dp3621
g65
(dp3622
g92
g93
ssg74
g3612
sg67
(lp3623
S':'
asbag60
(g81
g62
NtRp3624
(dp3625
g65
(dp3626
sg74
g3612
sg67
(lp3627
g60
(g61
g62
NtRp3628
(dp3629
g65
(dp3630
g73
I3
ssg74
g3624
sg67
(lp3631
S''
asbasbasbag60
(g76
g62
NtRp3632
(dp3633
g65
(dp3634
sg74
g3548
sg67
(lp3635
g60
(g81
g62
NtRp3636
(dp3637
g65
(dp3638
g85
g86
ssg74
g3632
sg67
(lp3639
g358
asbag60
(g81
g62
NtRp3640
(dp3641
g65
(dp3642
g92
g93
ssg74
g3632
sg67
(lp3643
S':'
asbag60
(g81
g62
NtRp3644
(dp3645
g65
(dp3646
sg74
g3632
sg67
(lp3647
g60
(g61
g62
NtRp3648
(dp3649
g65
(dp3650
g73
I3
ssg74
g3644
sg67
(lp3651
S'/'
asbasbasbag60
(g76
g62
NtRp3652
(dp3653
g65
(dp3654
sg74
g3548
sg67
(lp3655
g60
(g81
g62
NtRp3656
(dp3657
g65
(dp3658
g85
g86
ssg74
g3652
sg67
(lp3659
g379
asbag60
(g81
g62
NtRp3660
(dp3661
g65
(dp3662
g92
g93
ssg74
g3652
sg67
(lp3663
S':'
asbag60
(g81
g62
NtRp3664
(dp3665
g65
(dp3666
sg74
g3652
sg67
(lp3667
g60
(g61
g62
NtRp3668
(dp3669
g65
(dp3670
g73
I3
ssg74
g3664
sg67
(lp3671
S''
asbasbasbag60
(g76
g62
NtRp3672
(dp3673
g65
(dp3674
sg74
g3548
sg67
(lp3675
g60
(g81
g62
NtRp3676
(dp3677
g65
(dp3678
g85
g86
ssg74
g3672
sg67
(lp3679
g400
asbag60
(g81
g62
NtRp3680
(dp3681
g65
(dp3682
g92
g93
ssg74
g3672
sg67
(lp3683
S':'
asbag60
(g81
g62
NtRp3684
(dp3685
g65
(dp3686
sg74
g3672
sg67
(lp3687
g60
(g61
g62
NtRp3688
(dp3689
g65
(dp3690
g73
I3
ssg74
g3684
sg67
(lp3691
S''
asbasbasbasbasbasbasbasbasbasbasbag60
(g76
g62
NtRp3692
(dp3693
g65
(dp3694
sg74
g3478
sg67
(lp3695
g60
(g81
g62
NtRp3696
(dp3697
g65
(dp3698
g85
g86
ssg74
g3692
sg67
(lp3699
S'delimiters'
p3700
asbag60
(g81
g62
NtRp3701
(dp3702
g65
(dp3703
g92
g93
ssg74
g3692
sg67
(lp3704
S':'
asbag60
(g81
g62
NtRp3705
(dp3706
g65
(dp3707
sg74
g3692
sg67
(lp3708
g60
(g61
g62
NtRp3709
(dp3710
g65
(dp3711
g73
I5
ssg74
g3705
sg67
(lp3712
g60
(g69
g62
NtRp3713
(dp3714
g65
(dp3715
g73
I4
ssg74
Nsg67
(lp3716
g60
(g76
g62
NtRp3717
(dp3718
g65
(dp3719
sg74
g3713
sg67
(lp3720
g60
(g81
g62
NtRp3721
(dp3722
g65
(dp3723
sg74
g3717
sg67
(lp3724
g60
(g61
g62
NtRp3725
(dp3726
g65
(dp3727
g73
I4
ssg74
g3721
sg67
(lp3728
S'{{'
p3729
asbasbasbag60
(g76
g62
NtRp3730
(dp3731
g65
(dp3732
sg74
g3713
sg67
(lp3733
g60
(g81
g62
NtRp3734
(dp3735
g65
(dp3736
sg74
g3730
sg67
(lp3737
g60
(g61
g62
NtRp3738
(dp3739
g65
(dp3740
g73
I4
ssg74
g3734
sg67
(lp3741
S'}}'
p3742
asbasbasbasbasbasbasbag60
(g76
g62
NtRp3743
(dp3744
g65
(dp3745
sg74
g3478
sg67
(lp3746
g60
(g81
g62
NtRp3747
(dp3748
g65
(dp3749
g85
g86
ssg74
g3743
sg67
(lp3750
S'files'
p3751
asbag60
(g81
g62
NtRp3752
(dp3753
g65
(dp3754
g92
g93
ssg74
g3743
sg67
(lp3755
S':'
asbag60
(g81
g62
NtRp3756
(dp3757
g65
(dp3758
sg74
g3743
sg67
(lp3759
g60
(g61
g62
NtRp3760
(dp3761
g65
(dp3762
g73
I5
ssg74
g3756
sg67
(lp3763
g60
(g69
g62
NtRp3764
(dp3765
g65
(dp3766
g73
I4
ssg74
Nsg67
(lp3767
sbasbasbasbag60
(g76
g62
NtRp3768
(dp3769
g65
(dp3770
sg74
g3478
sg67
(lp3771
g60
(g81
g62
NtRp3772
(dp3773
g65
(dp3774
g85
g86
ssg74
g3768
sg67
(lp3775
S'flash'
p3776
asbag60
(g81
g62
NtRp3777
(dp3778
g65
(dp3779
g92
g93
ssg74
g3768
sg67
(lp3780
S':'
asbag60
(g81
g62
NtRp3781
(dp3782
g65
(dp3783
sg74
g3768
sg67
(lp3784
g60
(g61
g62
NtRp3785
(dp3786
g65
(dp3787
g73
I5
ssg74
g3781
sg67
(lp3788
S''
asbasbasbag60
(g76
g62
NtRp3789
(dp3790
g65
(dp3791
sg74
g3478
sg67
(lp3792
g60
(g81
g62
NtRp3793
(dp3794
g65
(dp3795
g85
g86
ssg74
g3789
sg67
(lp3796
S'generic_patterns'
p3797
asbag60
(g81
g62
NtRp3798
(dp3799
g65
(dp3800
g92
g93
ssg74
g3789
sg67
(lp3801
S':'
asbag60
(g81
g62
NtRp3802
(dp3803
g65
(dp3804
sg74
g3789
sg67
(lp3805
g60
(g61
g62
NtRp3806
(dp3807
g65
(dp3808
g73
I5
ssg74
g3802
sg67
(lp3809
g60
(g69
g62
NtRp3810
(dp3811
g65
(dp3812
g73
I4
ssg74
Nsg67
(lp3813
g60
(g76
g62
NtRp3814
(dp3815
g65
(dp3816
sg74
g3810
sg67
(lp3817
g60
(g81
g62
NtRp3818
(dp3819
g65
(dp3820
sg74
g3814
sg67
(lp3821
g60
(g61
g62
NtRp3822
(dp3823
g65
(dp3824
g73
I4
ssg74
g3818
sg67
(lp3825
S'*'
asbasbasbasbasbasbasbag60
(g76
g62
NtRp3826
(dp3827
g65
(dp3828
sg74
g3478
sg67
(lp3829
g60
(g81
g62
NtRp3830
(dp3831
g65
(dp3832
g85
g86
ssg74
g3826
sg67
(lp3833
S'headers'
p3834
asbag60
(g81
g62
NtRp3835
(dp3836
g65
(dp3837
g92
g93
ssg74
g3826
sg67
(lp3838
S':'
asbag60
(g81
g62
NtRp3839
(dp3840
g65
(dp3841
sg74
g3826
sg67
(lp3842
g60
(g61
g62
NtRp3843
(dp3844
g65
(dp3845
g73
I5
ssg74
g3839
sg67
(lp3846
g60
(g69
g62
NtRp3847
(dp3848
g65
(dp3849
g73
I4
ssg74
Nsg67
(lp3850
g60
(g76
g62
NtRp3851
(dp3852
g65
(dp3853
sg74
g3847
sg67
(lp3854
g60
(g81
g62
NtRp3855
(dp3856
g65
(dp3857
g85
g86
ssg74
g3851
sg67
(lp3858
S'Cache-Control'
p3859
asbag60
(g81
g62
NtRp3860
(dp3861
g65
(dp3862
g92
g93
ssg74
g3851
sg67
(lp3863
S':'
asbag60
(g81
g62
NtRp3864
(dp3865
g65
(dp3866
sg74
g3851
sg67
(lp3867
g60
(g61
g62
NtRp3868
(dp3869
g65
(dp3870
g73
I4
ssg74
g3864
sg67
(lp3871
S'no-store, no-cache, must-revalidate, post-check=0, pre-check=0'
p3872
asbasbasbag60
(g76
g62
NtRp3873
(dp3874
g65
(dp3875
sg74
g3847
sg67
(lp3876
g60
(g81
g62
NtRp3877
(dp3878
g65
(dp3879
g85
g86
ssg74
g3873
sg67
(lp3880
S'Content-Type'
p3881
asbag60
(g81
g62
NtRp3882
(dp3883
g65
(dp3884
g92
g93
ssg74
g3873
sg67
(lp3885
S':'
asbag60
(g81
g62
NtRp3886
(dp3887
g65
(dp3888
sg74
g3873
sg67
(lp3889
g60
(g61
g62
NtRp3890
(dp3891
g65
(dp3892
g73
I4
ssg74
g3886
sg67
(lp3893
S'text/html; charset=utf-8'
p3894
asbasbasbag60
(g76
g62
NtRp3895
(dp3896
g65
(dp3897
sg74
g3847
sg67
(lp3898
g60
(g81
g62
NtRp3899
(dp3900
g65
(dp3901
g85
g86
ssg74
g3895
sg67
(lp3902
S'Expires'
p3903
asbag60
(g81
g62
NtRp3904
(dp3905
g65
(dp3906
g92
g93
ssg74
g3895
sg67
(lp3907
S':'
asbag60
(g81
g62
NtRp3908
(dp3909
g65
(dp3910
sg74
g3895
sg67
(lp3911
g60
(g61
g62
NtRp3912
(dp3913
g65
(dp3914
g73
I4
ssg74
g3908
sg67
(lp3915
S'Thu, 08 Mar 2012 02:04:22 GMT'
p3916
asbasbasbag60
(g76
g62
NtRp3917
(dp3918
g65
(dp3919
sg74
g3847
sg67
(lp3920
g60
(g81
g62
NtRp3921
(dp3922
g65
(dp3923
g85
g86
ssg74
g3917
sg67
(lp3924
S'Pragma'
p3925
asbag60
(g81
g62
NtRp3926
(dp3927
g65
(dp3928
g92
g93
ssg74
g3917
sg67
(lp3929
S':'
asbag60
(g81
g62
NtRp3930
(dp3931
g65
(dp3932
sg74
g3917
sg67
(lp3933
g60
(g61
g62
NtRp3934
(dp3935
g65
(dp3936
g73
I4
ssg74
g3930
sg67
(lp3937
S'no-cache'
p3938
asbasbasbag60
(g76
g62
NtRp3939
(dp3940
g65
(dp3941
sg74
g3847
sg67
(lp3942
g60
(g81
g62
NtRp3943
(dp3944
g65
(dp3945
g85
g86
ssg74
g3939
sg67
(lp3946
S'X-Powered-By'
p3947
asbag60
(g81
g62
NtRp3948
(dp3949
g65
(dp3950
g92
g93
ssg74
g3939
sg67
(lp3951
S':'
asbag60
(g81
g62
NtRp3952
(dp3953
g65
(dp3954
sg74
g3939
sg67
(lp3955
g60
(g61
g62
NtRp3956
(dp3957
g65
(dp3958
g73
I4
ssg74
g3952
sg67
(lp3959
S'web2py'
p3960
asbasbasbasbasbasbasbag60
(g76
g62
NtRp3961
(dp3962
g65
(dp3963
sg74
g3478
sg67
(lp3964
g60
(g81
g62
NtRp3965
(dp3966
g65
(dp3967
g85
g86
ssg74
g3961
sg67
(lp3968
S'menu'
p3969
asbag60
(g81
g62
NtRp3970
(dp3971
g65
(dp3972
g92
g93
ssg74
g3961
sg67
(lp3973
S':'
asbag60
(g81
g62
NtRp3974
(dp3975
g65
(dp3976
sg74
g3961
sg67
(lp3977
g60
(g61
g62
NtRp3978
(dp3979
g65
(dp3980
g73
I5
ssg74
g3974
sg67
(lp3981
g60
(g69
g62
NtRp3982
(dp3983
g65
(dp3984
g73
I4
ssg74
Nsg67
(lp3985
g60
(g76
g62
NtRp3986
(dp3987
g65
(dp3988
sg74
g3982
sg67
(lp3989
g60
(g81
g62
NtRp3990
(dp3991
g65
(dp3992
sg74
g3986
sg67
(lp3993
g60
(g61
g62
NtRp3994
(dp3995
g65
(dp3996
g73
I4
ssg74
g3990
sg67
(lp3997
g60
(g69
g62
NtRp3998
(dp3999
g65
(dp4000
g73
I3
ssg74
Nsg67
(lp4001
g60
(g76
g62
NtRp4002
(dp4003
g65
(dp4004
sg74
g3998
sg67
(lp4005
g60
(g81
g62
NtRp4006
(dp4007
g65
(dp4008
sg74
g4002
sg67
(lp4009
g60
(g61
g62
NtRp4010
(dp4011
g65
(dp4012
g73
I3
ssg74
g4006
sg67
(lp4013
cgluon.languages
lazyT_unpickle
p4014
(S's\x04\x00\x00\x00Home'
tRp4015
asbasbasbag60
(g76
g62
NtRp4016
(dp4017
g65
(dp4018
sg74
g3998
sg67
(lp4019
g60
(g81
g62
NtRp4020
(dp4021
g65
(dp4022
sg74
g4016
sg67
(lp4023
g60
(g61
g62
NtRp4024
(dp4025
g65
(dp4026
g73
I3
ssg74
g4020
sg67
(lp4027
g103
asbasbasbag60
(g76
g62
NtRp4028
(dp4029
g65
(dp4030
sg74
g3998
sg67
(lp4031
g60
(g81
g62
NtRp4032
(dp4033
g65
(dp4034
sg74
g4028
sg67
(lp4035
g60
(g61
g62
NtRp4036
(dp4037
g65
(dp4038
g73
I3
ssg74
g4032
sg67
(lp4039
S'/'
asbasbasbag60
(g76
g62
NtRp4040
(dp4041
g65
(dp4042
sg74
g3998
sg67
(lp4043
g60
(g81
g62
NtRp4044
(dp4045
g65
(dp4046
sg74
g4040
sg67
(lp4047
g60
(g61
g62
NtRp4048
(dp4049
g65
(dp4050
g73
I3
ssg74
g4044
sg67
(lp4051
g60
(g69
g62
NtRp4052
(dp4053
g65
(dp4054
g73
I2
ssg74
Nsg67
(lp4055
sbasbasbasbasbasbasbasbag60
(g76
g62
NtRp4056
(dp4057
g65
(dp4058
sg74
g3982
sg67
(lp4059
g60
(g81
g62
NtRp4060
(dp4061
g65
(dp4062
sg74
g4056
sg67
(lp4063
g60
(g61
g62
NtRp4064
(dp4065
g65
(dp4066
g73
I4
ssg74
g4060
sg67
(lp4067
g60
(g69
g62
NtRp4068
(dp4069
g65
(dp4070
g73
I3
ssg74
Nsg67
(lp4071
g60
(g76
g62
NtRp4072
(dp4073
g65
(dp4074
sg74
g4068
sg67
(lp4075
g60
(g81
g62
NtRp4076
(dp4077
g65
(dp4078
sg74
g4072
sg67
(lp4079
g60
(g61
g62
NtRp4080
(dp4081
g65
(dp4082
g73
I3
ssg74
g4076
sg67
(lp4083
g60
(cgluon.html
SPAN
p4084
g62
NtRp4085
(dp4086
g65
(dp4087
g85
S'color:yellow'
p4088
ssg74
Nsg67
(lp4089
g3960
asbasbasbasbag60
(g76
g62
NtRp4090
(dp4091
g65
(dp4092
sg74
g4068
sg67
(lp4093
g60
(g81
g62
NtRp4094
(dp4095
g65
(dp4096
sg74
g4090
sg67
(lp4097
g60
(g61
g62
NtRp4098
(dp4099
g65
(dp4100
g73
I3
ssg74
g4094
sg67
(lp4101
g103
asbasbasbag60
(g76
g62
NtRp4102
(dp4103
g65
(dp4104
sg74
g4068
sg67
(lp4105
g60
(g81
g62
NtRp4106
(dp4107
g65
(dp4108
sg74
g4102
sg67
(lp4109
g60
(g61
g62
NtRp4110
(dp4111
g65
(dp4112
g73
I3
ssg74
g4106
sg67
(lp4113
S'None'
p4114
asbasbasbag60
(g76
g62
NtRp4115
(dp4116
g65
(dp4117
sg74
g4068
sg67
(lp4118
g60
(g81
g62
NtRp4119
(dp4120
g65
(dp4121
sg74
g4115
sg67
(lp4122
g60
(g61
g62
NtRp4123
(dp4124
g65
(dp4125
g73
I3
ssg74
g4119
sg67
(lp4126
g60
(g69
g62
NtRp4127
(dp4128
g65
(dp4129
g73
I2
ssg74
Nsg67
(lp4130
g60
(g76
g62
NtRp4131
(dp4132
g65
(dp4133
sg74
g4127
sg67
(lp4134
g60
(g81
g62
NtRp4135
(dp4136
g65
(dp4137
sg74
g4131
sg67
(lp4138
g60
(g61
g62
NtRp4139
(dp4140
g65
(dp4141
g73
I2
ssg74
g4135
sg67
(lp4142
g60
(g69
g62
NtRp4143
(dp4144
g65
(dp4145
g73
I1
ssg74
Nsg67
(lp4146
g60
(g76
g62
NtRp4147
(dp4148
g65
(dp4149
sg74
g4143
sg67
(lp4150
g60
(g81
g62
NtRp4151
(dp4152
g65
(dp4153
sg74
g4147
sg67
(lp4154
g60
(g61
g62
NtRp4155
(dp4156
g65
(dp4157
g73
I1
ssg74
g4151
sg67
(lp4158
g4014
(S's\x08\x00\x00\x00My Sites'
tRp4159
asbasbasbag60
(g76
g62
NtRp4160
(dp4161
g65
(dp4162
sg74
g4143
sg67
(lp4163
g60
(g81
g62
NtRp4164
(dp4165
g65
(dp4166
sg74
g4160
sg67
(lp4167
g60
(g61
g62
NtRp4168
(dp4169
g65
(dp4170
g73
I1
ssg74
g4164
sg67
(lp4171
I00
asbasbasbag60
(g76
g62
NtRp4172
(dp4173
g65
(dp4174
sg74
g4143
sg67
(lp4175
g60
(g81
g62
NtRp4176
(dp4177
g65
(dp4178
sg74
g4172
sg67
(lp4179
g60
(g61
g62
NtRp4180
(dp4181
g65
(dp4182
g73
I1
ssg74
g4176
sg67
(lp4183
S'/admin/site'
p4184
asbasbasbasbasbasbasbag60
(g76
g62
NtRp4185
(dp4186
g65
(dp4187
sg74
g4127
sg67
(lp4188
g60
(g81
g62
NtRp4189
(dp4190
g65
(dp4191
sg74
g4185
sg67
(lp4192
g60
(g61
g62
NtRp4193
(dp4194
g65
(dp4195
g73
I2
ssg74
g4189
sg67
(lp4196
g60
(g69
g62
NtRp4197
(dp4198
g65
(dp4199
g73
I1
ssg74
Nsg67
(lp4200
g60
(g76
g62
NtRp4201
(dp4202
g65
(dp4203
sg74
g4197
sg67
(lp4204
g60
(g81
g62
NtRp4205
(dp4206
g65
(dp4207
sg74
g4201
sg67
(lp4208
g60
(g61
g62
NtRp4209
(dp4210
g65
(dp4211
g73
I1
ssg74
g4205
sg67
(lp4212
g4014
(S's\x08\x00\x00\x00This App'
tRp4213
asbasbasbag60
(g76
g62
NtRp4214
(dp4215
g65
(dp4216
sg74
g4197
sg67
(lp4217
g60
(g81
g62
NtRp4218
(dp4219
g65
(dp4220
sg74
g4214
sg67
(lp4221
g60
(g61
g62
NtRp4222
(dp4223
g65
(dp4224
g73
I1
ssg74
g4218
sg67
(lp4225
I00
asbasbasbag60
(g76
g62
NtRp4226
(dp4227
g65
(dp4228
sg74
g4197
sg67
(lp4229
g60
(g81
g62
NtRp4230
(dp4231
g65
(dp4232
sg74
g4226
sg67
(lp4233
g60
(g61
g62
NtRp4234
(dp4235
g65
(dp4236
g73
I1
ssg74
g4230
sg67
(lp4237
S'/admin/design/udi0312'
p4238
asbasbasbag60
(g76
g62
NtRp4239
(dp4240
g65
(dp4241
sg74
g4197
sg67
(lp4242
g60
(g81
g62
NtRp4243
(dp4244
g65
(dp4245
sg74
g4239
sg67
(lp4246
g60
(g61
g62
NtRp4247
(dp4248
g65
(dp4249
g73
I1
ssg74
g4243
sg67
(lp4250
(lp4251
(g4014
(S's\n\x00\x00\x00Controller'
tRp4252
I00
S'/admin/edit/udi0312/controllers/default.py'
tp4253
a(g4014
(S's\x04\x00\x00\x00View'
tRp4254
I00
S'/admin/edit/udi0312/views/default/index.html'
tp4255
a(g4014
(S's\x06\x00\x00\x00Layout'
tRp4256
I00
S'/admin/edit/udi0312/views/layout.html'
tp4257
a(g4014
(S's\n\x00\x00\x00Stylesheet'
tRp4258
I00
S'/admin/edit/udi0312/static/css/web2py.css'
tp4259
a(g4014
(S's\x08\x00\x00\x00DB Model'
tRp4260
I00
S'/admin/edit/udi0312/models/db.py'
tp4261
a(g4014
(S's\n\x00\x00\x00Menu Model'
tRp4262
I00
S'/admin/edit/udi0312/models/menu.py'
tp4263
a(g4014
(S's\x08\x00\x00\x00Database'
tRp4264
I00
S'/appadmin'
tp4265
a(g4014
(S's\x06\x00\x00\x00Errors'
tRp4266
I00
S'/admin/errors/udi0312'
tp4267
a(g4014
(S's\x05\x00\x00\x00About'
tRp4268
I00
S'/admin/about/udi0312'
tp4269
aasbasbasbasbasbasbasbag60
(g76
g62
NtRp4270
(dp4271
g65
(dp4272
sg74
g4127
sg67
(lp4273
g60
(g81
g62
NtRp4274
(dp4275
g65
(dp4276
sg74
g4270
sg67
(lp4277
g60
(g61
g62
NtRp4278
(dp4279
g65
(dp4280
g73
I2
ssg74
g4274
sg67
(lp4281
g60
(g69
g62
NtRp4282
(dp4283
g65
(dp4284
g73
I1
ssg74
Nsg67
(lp4285
g60
(g76
g62
NtRp4286
(dp4287
g65
(dp4288
sg74
g4282
sg67
(lp4289
g60
(g81
g62
NtRp4290
(dp4291
g65
(dp4292
sg74
g4286
sg67
(lp4293
g60
(g61
g62
NtRp4294
(dp4295
g65
(dp4296
g73
I1
ssg74
g4290
sg67
(lp4297
S'web2py.com'
p4298
asbasbasbag60
(g76
g62
NtRp4299
(dp4300
g65
(dp4301
sg74
g4282
sg67
(lp4302
g60
(g81
g62
NtRp4303
(dp4304
g65
(dp4305
sg74
g4299
sg67
(lp4306
g60
(g61
g62
NtRp4307
(dp4308
g65
(dp4309
g73
I1
ssg74
g4303
sg67
(lp4310
I00
asbasbasbag60
(g76
g62
NtRp4311
(dp4312
g65
(dp4313
sg74
g4282
sg67
(lp4314
g60
(g81
g62
NtRp4315
(dp4316
g65
(dp4317
sg74
g4311
sg67
(lp4318
g60
(g61
g62
NtRp4319
(dp4320
g65
(dp4321
g73
I1
ssg74
g4315
sg67
(lp4322
S'http://www.web2py.com'
p4323
asbasbasbag60
(g76
g62
NtRp4324
(dp4325
g65
(dp4326
sg74
g4282
sg67
(lp4327
g60
(g81
g62
NtRp4328
(dp4329
g65
(dp4330
sg74
g4324
sg67
(lp4331
g60
(g61
g62
NtRp4332
(dp4333
g65
(dp4334
g73
I1
ssg74
g4328
sg67
(lp4335
(lp4336
(g4014
(S's\x08\x00\x00\x00Download'
tRp4337
I00
S'http://www.web2py.com/examples/default/download'
p4338
tp4339
a(g4014
(S's\x07\x00\x00\x00Support'
tRp4340
I00
S'http://www.web2py.com/examples/default/support'
p4341
tp4342
a(g4014
(S's\x04\x00\x00\x00Demo'
tRp4343
I00
S'http://web2py.com/demo_admin'
p4344
tp4345
a(g4014
(S's\x0e\x00\x00\x00Quick Examples'
tRp4346
I00
S'http://web2py.com/examples/default/examples'
p4347
tp4348
a(g4014
(S's\x03\x00\x00\x00FAQ'
tRp4349
I00
S'http://web2py.com/AlterEgo'
p4350
tp4351
a(g4014
(S's\x06\x00\x00\x00Videos'
tRp4352
I00
S'http://www.web2py.com/examples/default/videos/'
p4353
tp4354
a(g4014
(S's\x11\x00\x00\x00Free Applications'
tRp4355
I00
S'http://web2py.com/appliances'
p4356
tp4357
a(g4014
(S's\x07\x00\x00\x00Plugins'
tRp4358
I00
S'http://web2py.com/plugins'
p4359
tp4360
a(g4014
(S's\x07\x00\x00\x00Layouts'
tRp4361
I00
S'http://web2py.com/layouts'
p4362
tp4363
a(g4014
(S's\x07\x00\x00\x00Recipes'
tRp4364
I00
S'http://web2pyslices.com/'
p4365
tp4366
a(g4014
(S's\x08\x00\x00\x00Semantic'
tRp4367
I00
S'http://web2py.com/semantic'
p4368
tp4369
aasbasbasbasbasbasbasbag60
(g76
g62
NtRp4370
(dp4371
g65
(dp4372
sg74
g4127
sg67
(lp4373
g60
(g81
g62
NtRp4374
(dp4375
g65
(dp4376
sg74
g4370
sg67
(lp4377
g60
(g61
g62
NtRp4378
(dp4379
g65
(dp4380
g73
I2
ssg74
g4374
sg67
(lp4381
g60
(g69
g62
NtRp4382
(dp4383
g65
(dp4384
g73
I1
ssg74
Nsg67
(lp4385
g60
(g76
g62
NtRp4386
(dp4387
g65
(dp4388
sg74
g4382
sg67
(lp4389
g60
(g81
g62
NtRp4390
(dp4391
g65
(dp4392
sg74
g4386
sg67
(lp4393
g60
(g61
g62
NtRp4394
(dp4395
g65
(dp4396
g73
I1
ssg74
g4390
sg67
(lp4397
g4014
(S's\r\x00\x00\x00Documentation'
tRp4398
asbasbasbag60
(g76
g62
NtRp4399
(dp4400
g65
(dp4401
sg74
g4382
sg67
(lp4402
g60
(g81
g62
NtRp4403
(dp4404
g65
(dp4405
sg74
g4399
sg67
(lp4406
g60
(g61
g62
NtRp4407
(dp4408
g65
(dp4409
g73
I1
ssg74
g4403
sg67
(lp4410
I00
asbasbasbag60
(g76
g62
NtRp4411
(dp4412
g65
(dp4413
sg74
g4382
sg67
(lp4414
g60
(g81
g62
NtRp4415
(dp4416
g65
(dp4417
sg74
g4411
sg67
(lp4418
g60
(g61
g62
NtRp4419
(dp4420
g65
(dp4421
g73
I1
ssg74
g4415
sg67
(lp4422
S'http://www.web2py.com/book'
p4423
asbasbasbag60
(g76
g62
NtRp4424
(dp4425
g65
(dp4426
sg74
g4382
sg67
(lp4427
g60
(g81
g62
NtRp4428
(dp4429
g65
(dp4430
sg74
g4424
sg67
(lp4431
g60
(g61
g62
NtRp4432
(dp4433
g65
(dp4434
g73
I1
ssg74
g4428
sg67
(lp4435
(lp4436
(g4014
(S's\x07\x00\x00\x00Preface'
tRp4437
I00
S'http://www.web2py.com/book/default/chapter/00'
p4438
tp4439
a(g4014
(S's\x0c\x00\x00\x00Introduction'
tRp4440
I00
S'http://www.web2py.com/book/default/chapter/01'
p4441
tp4442
a(g4014
(S's\x06\x00\x00\x00Python'
tRp4443
I00
S'http://www.web2py.com/book/default/chapter/02'
p4444
tp4445
a(g4014
(S's\x08\x00\x00\x00Overview'
tRp4446
I00
S'http://www.web2py.com/book/default/chapter/03'
p4447
tp4448
a(g4014
(S's\x08\x00\x00\x00The Core'
tRp4449
I00
S'http://www.web2py.com/book/default/chapter/04'
p4450
tp4451
a(g4014
(S's\t\x00\x00\x00The Views'
tRp4452
I00
S'http://www.web2py.com/book/default/chapter/05'
p4453
tp4454
a(g4014
(S's\x08\x00\x00\x00Database'
tRp4455
I00
S'http://www.web2py.com/book/default/chapter/06'
p4456
tp4457
a(g4014
(S's\x14\x00\x00\x00Forms and Validators'
tRp4458
I00
S'http://www.web2py.com/book/default/chapter/07'
p4459
tp4460
a(g4014
(S's\r\x00\x00\x00Email and SMS'
tRp4461
I00
S'http://www.web2py.com/book/default/chapter/08'
p4462
tp4463
a(g4014
(S's\x0e\x00\x00\x00Access Control'
tRp4464
I00
S'http://www.web2py.com/book/default/chapter/09'
p4465
tp4466
a(g4014
(S's\x08\x00\x00\x00Services'
tRp4467
I00
S'http://www.web2py.com/book/default/chapter/10'
p4468
tp4469
a(g4014
(S's\x0c\x00\x00\x00Ajax Recipes'
tRp4470
I00
S'http://www.web2py.com/book/default/chapter/11'
p4471
tp4472
a(g4014
(S's\x16\x00\x00\x00Components and Plugins'
tRp4473
I00
S'http://www.web2py.com/book/default/chapter/12'
p4474
tp4475
a(g4014
(S's\x12\x00\x00\x00Deployment Recipes'
tRp4476
I00
S'http://www.web2py.com/book/default/chapter/13'
p4477
tp4478
a(g4014
(S's\r\x00\x00\x00Other Recipes'
tRp4479
I00
S'http://www.web2py.com/book/default/chapter/14'
p4480
tp4481
a(g4014
(S's\r\x00\x00\x00Buy this book'
tRp4482
I00
S'http://stores.lulu.com/web2py'
p4483
tp4484
aasbasbasbasbasbasbasbag60
(g76
g62
NtRp4485
(dp4486
g65
(dp4487
sg74
g4127
sg67
(lp4488
g60
(g81
g62
NtRp4489
(dp4490
g65
(dp4491
sg74
g4485
sg67
(lp4492
g60
(g61
g62
NtRp4493
(dp4494
g65
(dp4495
g73
I2
ssg74
g4489
sg67
(lp4496
g60
(g69
g62
NtRp4497
(dp4498
g65
(dp4499
g73
I1
ssg74
Nsg67
(lp4500
g60
(g76
g62
NtRp4501
(dp4502
g65
(dp4503
sg74
g4497
sg67
(lp4504
g60
(g81
g62
NtRp4505
(dp4506
g65
(dp4507
sg74
g4501
sg67
(lp4508
g60
(g61
g62
NtRp4509
(dp4510
g65
(dp4511
g73
I1
ssg74
g4505
sg67
(lp4512
g4014
(S's\t\x00\x00\x00Community'
tRp4513
asbasbasbag60
(g76
g62
NtRp4514
(dp4515
g65
(dp4516
sg74
g4497
sg67
(lp4517
g60
(g81
g62
NtRp4518
(dp4519
g65
(dp4520
sg74
g4514
sg67
(lp4521
g60
(g61
g62
NtRp4522
(dp4523
g65
(dp4524
g73
I1
ssg74
g4518
sg67
(lp4525
I00
asbasbasbag60
(g76
g62
NtRp4526
(dp4527
g65
(dp4528
sg74
g4497
sg67
(lp4529
g60
(g81
g62
NtRp4530
(dp4531
g65
(dp4532
sg74
g4526
sg67
(lp4533
g60
(g61
g62
NtRp4534
(dp4535
g65
(dp4536
g73
I1
ssg74
g4530
sg67
(lp4537
Nasbasbasbag60
(g76
g62
NtRp4538
(dp4539
g65
(dp4540
sg74
g4497
sg67
(lp4541
g60
(g81
g62
NtRp4542
(dp4543
g65
(dp4544
sg74
g4538
sg67
(lp4545
g60
(g61
g62
NtRp4546
(dp4547
g65
(dp4548
g73
I1
ssg74
g4542
sg67
(lp4549
(lp4550
(g4014
(S's\x06\x00\x00\x00Groups'
tRp4551
I00
S'http://www.web2py.com/examples/default/usergroups'
p4552
tp4553
a(g4014
(S's\x07\x00\x00\x00Twitter'
tRp4554
I00
S'http://twitter.com/web2py'
p4555
tp4556
a(g4014
(S's\t\x00\x00\x00Live Chat'
tRp4557
I00
S'http://webchat.freenode.net/?channels=web2py'
p4558
tp4559
aasbasbasbasbasbasbasbag60
(g76
g62
NtRp4560
(dp4561
g65
(dp4562
sg74
g4127
sg67
(lp4563
g60
(g81
g62
NtRp4564
(dp4565
g65
(dp4566
sg74
g4560
sg67
(lp4567
g60
(g61
g62
NtRp4568
(dp4569
g65
(dp4570
g73
I2
ssg74
g4564
sg67
(lp4571
g60
(g69
g62
NtRp4572
(dp4573
g65
(dp4574
g73
I1
ssg74
Nsg67
(lp4575
g60
(g76
g62
NtRp4576
(dp4577
g65
(dp4578
sg74
g4572
sg67
(lp4579
g60
(g81
g62
NtRp4580
(dp4581
g65
(dp4582
sg74
g4576
sg67
(lp4583
g60
(g61
g62
NtRp4584
(dp4585
g65
(dp4586
g73
I1
ssg74
g4580
sg67
(lp4587
g4014
(S's\x07\x00\x00\x00Plugins'
tRp4588
asbasbasbag60
(g76
g62
NtRp4589
(dp4590
g65
(dp4591
sg74
g4572
sg67
(lp4592
g60
(g81
g62
NtRp4593
(dp4594
g65
(dp4595
sg74
g4589
sg67
(lp4596
g60
(g61
g62
NtRp4597
(dp4598
g65
(dp4599
g73
I1
ssg74
g4593
sg67
(lp4600
I00
asbasbasbag60
(g76
g62
NtRp4601
(dp4602
g65
(dp4603
sg74
g4572
sg67
(lp4604
g60
(g81
g62
NtRp4605
(dp4606
g65
(dp4607
sg74
g4601
sg67
(lp4608
g60
(g61
g62
NtRp4609
(dp4610
g65
(dp4611
g73
I1
ssg74
g4605
sg67
(lp4612
Nasbasbasbag60
(g76
g62
NtRp4613
(dp4614
g65
(dp4615
sg74
g4572
sg67
(lp4616
g60
(g81
g62
NtRp4617
(dp4618
g65
(dp4619
sg74
g4613
sg67
(lp4620
g60
(g61
g62
NtRp4621
(dp4622
g65
(dp4623
g73
I1
ssg74
g4617
sg67
(lp4624
(lp4625
(S'plugin_wiki'
p4626
I00
S'http://web2py.com/examples/default/download'
p4627
tp4628
a(g4014
(S's\r\x00\x00\x00Other Plugins'
tRp4629
I00
g4359
tp4630
a(g4014
(S's\x0e\x00\x00\x00Layout Plugins'
tRp4631
I00
g4362
tp4632
aasbasbasbasbasbasbasbasbasbasbasbasbasbasbasbasbasbasbasbag60
(g76
g62
NtRp4633
(dp4634
g65
(dp4635
sg74
g3478
sg67
(lp4636
g60
(g81
g62
NtRp4637
(dp4638
g65
(dp4639
g85
g86
ssg74
g4633
sg67
(lp4640
S'meta'
p4641
asbag60
(g81
g62
NtRp4642
(dp4643
g65
(dp4644
g92
g93
ssg74
g4633
sg67
(lp4645
S':'
asbag60
(g81
g62
NtRp4646
(dp4647
g65
(dp4648
sg74
g4633
sg67
(lp4649
g60
(g61
g62
NtRp4650
(dp4651
g65
(dp4652
g73
I5
ssg74
g4646
sg67
(lp4653
g60
(g69
g62
NtRp4654
(dp4655
g65
(dp4656
g73
I4
ssg74
Nsg67
(lp4657
g60
(g76
g62
NtRp4658
(dp4659
g65
(dp4660
sg74
g4654
sg67
(lp4661
g60
(g81
g62
NtRp4662
(dp4663
g65
(dp4664
g85
g86
ssg74
g4658
sg67
(lp4665
S'author'
p4666
asbag60
(g81
g62
NtRp4667
(dp4668
g65
(dp4669
g92
g93
ssg74
g4658
sg67
(lp4670
S':'
asbag60
(g81
g62
NtRp4671
(dp4672
g65
(dp4673
sg74
g4658
sg67
(lp4674
g60
(g61
g62
NtRp4675
(dp4676
g65
(dp4677
g73
I4
ssg74
g4671
sg67
(lp4678
S'Your Name <you@example.com>'
p4679
asbasbasbag60
(g76
g62
NtRp4680
(dp4681
g65
(dp4682
sg74
g4654
sg67
(lp4683
g60
(g81
g62
NtRp4684
(dp4685
g65
(dp4686
g85
g86
ssg74
g4680
sg67
(lp4687
S'copyright'
p4688
asbag60
(g81
g62
NtRp4689
(dp4690
g65
(dp4691
g92
g93
ssg74
g4680
sg67
(lp4692
S':'
asbag60
(g81
g62
NtRp4693
(dp4694
g65
(dp4695
sg74
g4680
sg67
(lp4696
g60
(g61
g62
NtRp4697
(dp4698
g65
(dp4699
g73
I4
ssg74
g4693
sg67
(lp4700
S'Copyright 2011'
p4701
asbasbasbag60
(g76
g62
NtRp4702
(dp4703
g65
(dp4704
sg74
g4654
sg67
(lp4705
g60
(g81
g62
NtRp4706
(dp4707
g65
(dp4708
g85
g86
ssg74
g4702
sg67
(lp4709
S'description'
p4710
asbag60
(g81
g62
NtRp4711
(dp4712
g65
(dp4713
g92
g93
ssg74
g4702
sg67
(lp4714
S':'
asbag60
(g81
g62
NtRp4715
(dp4716
g65
(dp4717
sg74
g4702
sg67
(lp4718
g60
(g61
g62
NtRp4719
(dp4720
g65
(dp4721
g73
I4
ssg74
g4715
sg67
(lp4722
S'a cool new app'
p4723
asbasbasbag60
(g76
g62
NtRp4724
(dp4725
g65
(dp4726
sg74
g4654
sg67
(lp4727
g60
(g81
g62
NtRp4728
(dp4729
g65
(dp4730
g85
g86
ssg74
g4724
sg67
(lp4731
S'generator'
p4732
asbag60
(g81
g62
NtRp4733
(dp4734
g65
(dp4735
g92
g93
ssg74
g4724
sg67
(lp4736
S':'
asbag60
(g81
g62
NtRp4737
(dp4738
g65
(dp4739
sg74
g4724
sg67
(lp4740
g60
(g61
g62
NtRp4741
(dp4742
g65
(dp4743
g73
I4
ssg74
g4737
sg67
(lp4744
S'Web2py Web Framework'
p4745
asbasbasbag60
(g76
g62
NtRp4746
(dp4747
g65
(dp4748
sg74
g4654
sg67
(lp4749
g60
(g81
g62
NtRp4750
(dp4751
g65
(dp4752
g85
g86
ssg74
g4746
sg67
(lp4753
S'keywords'
p4754
asbag60
(g81
g62
NtRp4755
(dp4756
g65
(dp4757
g92
g93
ssg74
g4746
sg67
(lp4758
S':'
asbag60
(g81
g62
NtRp4759
(dp4760
g65
(dp4761
sg74
g4746
sg67
(lp4762
g60
(g61
g62
NtRp4763
(dp4764
g65
(dp4765
g73
I4
ssg74
g4759
sg67
(lp4766
S'web2py, python, framework'
p4767
asbasbasbasbasbasbasbag60
(g76
g62
NtRp4768
(dp4769
g65
(dp4770
sg74
g3478
sg67
(lp4771
g60
(g81
g62
NtRp4772
(dp4773
g65
(dp4774
g85
g86
ssg74
g4768
sg67
(lp4775
S'postprocessing'
p4776
asbag60
(g81
g62
NtRp4777
(dp4778
g65
(dp4779
g92
g93
ssg74
g4768
sg67
(lp4780
S':'
asbag60
(g81
g62
NtRp4781
(dp4782
g65
(dp4783
sg74
g4768
sg67
(lp4784
g60
(g61
g62
NtRp4785
(dp4786
g65
(dp4787
g73
I5
ssg74
g4781
sg67
(lp4788
g60
(g69
g62
NtRp4789
(dp4790
g65
(dp4791
g73
I4
ssg74
Nsg67
(lp4792
sbasbasbasbag60
(g76
g62
NtRp4793
(dp4794
g65
(dp4795
sg74
g3478
sg67
(lp4796
g60
(g81
g62
NtRp4797
(dp4798
g65
(dp4799
g85
g86
ssg74
g4793
sg67
(lp4800
S'session_file'
p4801
asbag60
(g81
g62
NtRp4802
(dp4803
g65
(dp4804
g92
g93
ssg74
g4793
sg67
(lp4805
S':'
asbag60
(g81
g62
NtRp4806
(dp4807
g65
(dp4808
sg74
g4793
sg67
(lp4809
g60
(g61
g62
NtRp4810
(dp4811
g65
(dp4812
g73
I5
ssg74
g4806
sg67
(lp4813
S"<open file '/Users/udimilo/Documents/web2py/applications/udi0312/sessions/127.0.0.1-fcd6a577-d448-4882-b7bc-f353da84ba3b', mode 'rb+' at 0x8e0e338>"
p4814
asbasbasbag60
(g76
g62
NtRp4815
(dp4816
g65
(dp4817
sg74
g3478
sg67
(lp4818
g60
(g81
g62
NtRp4819
(dp4820
g65
(dp4821
g85
g86
ssg74
g4815
sg67
(lp4822
S'session_filename'
p4823
asbag60
(g81
g62
NtRp4824
(dp4825
g65
(dp4826
g92
g93
ssg74
g4815
sg67
(lp4827
S':'
asbag60
(g81
g62
NtRp4828
(dp4829
g65
(dp4830
sg74
g4815
sg67
(lp4831
g60
(g61
g62
NtRp4832
(dp4833
g65
(dp4834
g73
I5
ssg74
g4828
sg67
(lp4835
S'/Users/udimilo/Documents/web2py/applications/udi0312/sessions/127.0.0.1-fcd6a577-d448-4882-b7bc-f353da84ba3b'
p4836
asbasbasbag60
(g76
g62
NtRp4837
(dp4838
g65
(dp4839
sg74
g3478
sg67
(lp4840
g60
(g81
g62
NtRp4841
(dp4842
g65
(dp4843
g85
g86
ssg74
g4837
sg67
(lp4844
S'session_id'
p4845
asbag60
(g81
g62
NtRp4846
(dp4847
g65
(dp4848
g92
g93
ssg74
g4837
sg67
(lp4849
S':'
asbag60
(g81
g62
NtRp4850
(dp4851
g65
(dp4852
sg74
g4837
sg67
(lp4853
g60
(g61
g62
NtRp4854
(dp4855
g65
(dp4856
g73
I5
ssg74
g4850
sg67
(lp4857
S'127.0.0.1-fcd6a577-d448-4882-b7bc-f353da84ba3b'
p4858
asbasbasbag60
(g76
g62
NtRp4859
(dp4860
g65
(dp4861
sg74
g3478
sg67
(lp4862
g60
(g81
g62
NtRp4863
(dp4864
g65
(dp4865
g85
g86
ssg74
g4859
sg67
(lp4866
S'session_id_name'
p4867
asbag60
(g81
g62
NtRp4868
(dp4869
g65
(dp4870
g92
g93
ssg74
g4859
sg67
(lp4871
S':'
asbag60
(g81
g62
NtRp4872
(dp4873
g65
(dp4874
sg74
g4859
sg67
(lp4875
g60
(g61
g62
NtRp4876
(dp4877
g65
(dp4878
g73
I5
ssg74
g4872
sg67
(lp4879
g3535
asbasbasbag60
(g76
g62
NtRp4880
(dp4881
g65
(dp4882
sg74
g3478
sg67
(lp4883
g60
(g81
g62
NtRp4884
(dp4885
g65
(dp4886
g85
g86
ssg74
g4880
sg67
(lp4887
S'session_locked'
p4888
asbag60
(g81
g62
NtRp4889
(dp4890
g65
(dp4891
g92
g93
ssg74
g4880
sg67
(lp4892
S':'
asbag60
(g81
g62
NtRp4893
(dp4894
g65
(dp4895
sg74
g4880
sg67
(lp4896
g60
(g61
g62
NtRp4897
(dp4898
g65
(dp4899
g73
I5
ssg74
g4893
sg67
(lp4900
g1662
asbasbasbag60
(g76
g62
NtRp4901
(dp4902
g65
(dp4903
sg74
g3478
sg67
(lp4904
g60
(g81
g62
NtRp4905
(dp4906
g65
(dp4907
g85
g86
ssg74
g4901
sg67
(lp4908
S'session_new'
p4909
asbag60
(g81
g62
NtRp4910
(dp4911
g65
(dp4912
g92
g93
ssg74
g4901
sg67
(lp4913
S':'
asbag60
(g81
g62
NtRp4914
(dp4915
g65
(dp4916
sg74
g4901
sg67
(lp4917
g60
(g61
g62
NtRp4918
(dp4919
g65
(dp4920
g73
I5
ssg74
g4914
sg67
(lp4921
g103
asbasbasbag60
(g76
g62
NtRp4922
(dp4923
g65
(dp4924
sg74
g3478
sg67
(lp4925
g60
(g81
g62
NtRp4926
(dp4927
g65
(dp4928
g85
g86
ssg74
g4922
sg67
(lp4929
S'status'
p4930
asbag60
(g81
g62
NtRp4931
(dp4932
g65
(dp4933
g92
g93
ssg74
g4922
sg67
(lp4934
S':'
asbag60
(g81
g62
NtRp4935
(dp4936
g65
(dp4937
sg74
g4922
sg67
(lp4938
g60
(g61
g62
NtRp4939
(dp4940
g65
(dp4941
g73
I5
ssg74
g4935
sg67
(lp4942
S'200'
p4943
asbasbasbag60
(g76
g62
NtRp4944
(dp4945
g65
(dp4946
sg74
g3478
sg67
(lp4947
g60
(g81
g62
NtRp4948
(dp4949
g65
(dp4950
g85
g86
ssg74
g4944
sg67
(lp4951
S'subtitle'
p4952
asbag60
(g81
g62
NtRp4953
(dp4954
g65
(dp4955
g92
g93
ssg74
g4944
sg67
(lp4956
S':'
asbag60
(g81
g62
NtRp4957
(dp4958
g65
(dp4959
sg74
g4944
sg67
(lp4960
g60
(g61
g62
NtRp4961
(dp4962
g65
(dp4963
g73
I5
ssg74
g4957
sg67
(lp4964
g4014
(S's\r\x00\x00\x00customize me!'
tRp4965
asbasbasbag60
(g76
g62
NtRp4966
(dp4967
g65
(dp4968
sg74
g3478
sg67
(lp4969
g60
(g81
g62
NtRp4970
(dp4971
g65
(dp4972
g85
g86
ssg74
g4966
sg67
(lp4973
S'title'
p4974
asbag60
(g81
g62
NtRp4975
(dp4976
g65
(dp4977
g92
g93
ssg74
g4966
sg67
(lp4978
S':'
asbag60
(g81
g62
NtRp4979
(dp4980
g65
(dp4981
sg74
g4966
sg67
(lp4982
g60
(g61
g62
NtRp4983
(dp4984
g65
(dp4985
g73
I5
ssg74
g4979
sg67
(lp4986
S'Udi0312'
p4987
asbasbasbag60
(g76
g62
NtRp4988
(dp4989
g65
(dp4990
sg74
g3478
sg67
(lp4991
g60
(g81
g62
NtRp4992
(dp4993
g65
(dp4994
g85
g86
ssg74
g4988
sg67
(lp4995
g2325
asbag60
(g81
g62
NtRp4996
(dp4997
g65
(dp4998
g92
g93
ssg74
g4988
sg67
(lp4999
S':'
asbag60
(g81
g62
NtRp5000
(dp5001
g65
(dp5002
sg74
g4988
sg67
(lp5003
g60
(g61
g62
NtRp5004
(dp5005
g65
(dp5006
g73
I5
ssg74
g5000
sg67
(lp5007
g2338
asbasbasbag60
(g76
g62
NtRp5008
(dp5009
g65
(dp5010
sg74
g3478
sg67
(lp5011
g60
(g81
g62
NtRp5012
(dp5013
g65
(dp5014
g85
g86
ssg74
g5008
sg67
(lp5015
S'view'
p5016
asbag60
(g81
g62
NtRp5017
(dp5018
g65
(dp5019
g92
g93
ssg74
g5008
sg67
(lp5020
S':'
asbag60
(g81
g62
NtRp5021
(dp5022
g65
(dp5023
sg74
g5008
sg67
(lp5024
g60
(g61
g62
NtRp5025
(dp5026
g65
(dp5027
g73
I5
ssg74
g5021
sg67
(lp5028
S'default/index.html'
p5029
asbasbasbasbasbsS'locals'
p5030
(dp5031
g4
S"'/Users/udimilo/Documents/web2py/applications/udi0312/views/default/index.html'"
p5032
sg6
S'\'response.write(\\\'<html lan="en">\\\\n<head>\\\\n    <ti...js"></script>\\\\n</body>\\\\n</html>\\\\n\\\', escape=False)\''
p5033
sssS'traceback'
p5034
S'Traceback (most recent call last):\n  File "/users/udimilo/Documents/web2py/gluon/restricted.py", line 204, in restricted\n    ccode = compile2(code,layer)\n  File "/users/udimilo/Documents/web2py/gluon/restricted.py", line 189, in compile2\n    return compile(code.rstrip().replace(\'\\r\\n\',\'\\n\')+\'\\n\', layer, \'exec\')\n  File "/Users/udimilo/Documents/web2py/applications/udi0312/views/default/index.html", line 6\n    board in boards:\n                   ^\nSyntaxError: invalid syntax\n'
p5035
s.