(dp1
S'output'
p2
S"<type 'exceptions.ImportError'> No module named boards"
p3
sS'layer'
p4
S'/Users/udimilo/Documents/web2py/applications/udi0312/controllers/users.py'
p5
sS'code'
p6
S"import boards\n\ndef index():        \n    return dict()\n\ndef user():\n    user_id = request.args(0)\n    user = db.auth_user(user_id) or redirect(URL('index'))    \n\n    if request.args(1):\n        action = request.args(1).lower()\n        if action == 'follow':\n            rel = db((db.user_user.follower == auth.user.id) & (db.user_user.followee == user.id)).select().first()        \n            if rel is None:\n                rel = db.user_user.insert(follower = auth.user.id, followee = user.id)\n                return 'new following'\n            return 'following'\n        else:\n            if action == 'unfollow':\n                rel = db((db.user_user.follower == auth.user.id) & (db.user_user.followee == user.id)).select().first()        \n                if rel is not None:\n                    db(db.user_user.id == rel.id).delete()\n                    return 'deleted'\n                else:\n                    return 'did not follow'\n            else:\n                return boards.board()\n                                \n    \n#    user_boards = db(db.board.id,db.board.user_id == user.id).select()\n#    user_pins = db(db.pin.board_id in user_boards).select()\n    \n    return dict(user=user)\n\nresponse._vars=response._caller(user)\n"
p7
sS'snapshot'
p8
(dp9
S'exception'
p10
(dp11
S'__hash__'
p12
S"<method-wrapper '__hash__' of exceptions.ImportError object at 0xa244918>"
p13
sS'__setattr__'
p14
S"<method-wrapper '__setattr__' of exceptions.ImportError object at 0xa244918>"
p15
sS'__reduce_ex__'
p16
S'<built-in method __reduce_ex__ of exceptions.ImportError object at 0xa244918>'
p17
sS'__getslice__'
p18
S"<method-wrapper '__getslice__' of exceptions.ImportError object at 0xa244918>"
p19
sS'__getitem__'
p20
S"<method-wrapper '__getitem__' of exceptions.ImportError object at 0xa244918>"
p21
sS'__setstate__'
p22
S'<built-in method __setstate__ of exceptions.ImportError object at 0xa244918>'
p23
sS'__reduce__'
p24
S'<built-in method __reduce__ of exceptions.ImportError object at 0xa244918>'
p25
sS'__str__'
p26
S"<method-wrapper '__str__' of exceptions.ImportError object at 0xa244918>"
p27
sS'args'
p28
S"('No module named boards',)"
p29
sS'__getattribute__'
p30
S"<method-wrapper '__getattribute__' of exceptions.ImportError object at 0xa244918>"
p31
sS'__class__'
p32
S"<type 'exceptions.ImportError'>"
p33
sS'__delattr__'
p34
S"<method-wrapper '__delattr__' of exceptions.ImportError object at 0xa244918>"
p35
sS'__repr__'
p36
S"<method-wrapper '__repr__' of exceptions.ImportError object at 0xa244918>"
p37
sS'__dict__'
p38
S'{}'
p39
sS'__doc__'
p40
S'"Import can\'t find module, or can\'t find name in module."'
p41
sS'__init__'
p42
S"<method-wrapper '__init__' of exceptions.ImportError object at 0xa244918>"
p43
sS'__new__'
p44
S'<built-in method __new__ of type object at 0x100cc0>'
p45
ssS'evalue'
p46
S'No module named boards'
p47
sS'request'
p48
ccopy_reg
_reconstructor
p49
(cgluon.html
BEAUTIFY
p50
c__builtin__
object
p51
NtRp52
(dp53
S'attributes'
p54
(dp55
sS'components'
p56
(lp57
g49
(cgluon.html
TABLE
p58
g51
NtRp59
(dp60
g54
(dp61
S'level'
p62
I5
ssS'parent'
p63
Nsg56
(lp64
g49
(cgluon.html
TR
p65
g51
NtRp66
(dp67
g54
(dp68
sg63
g59
sg56
(lp69
g49
(cgluon.html
TD
p70
g51
NtRp71
(dp72
g54
(dp73
S'_style'
p74
S'font-weight:bold;vertical-align:top'
p75
ssg63
g66
sg56
(lp76
S'ajax'
p77
asbag49
(g70
g51
NtRp78
(dp79
g54
(dp80
S'_valign'
p81
S'top'
p82
ssg63
g66
sg56
(lp83
S':'
asbag49
(g70
g51
NtRp84
(dp85
g54
(dp86
sg63
g66
sg56
(lp87
g49
(g50
g51
NtRp88
(dp89
g54
(dp90
g62
I5
ssg63
g84
sg56
(lp91
S'False'
p92
asbasbasbag49
(g65
g51
NtRp93
(dp94
g54
(dp95
sg63
g59
sg56
(lp96
g49
(g70
g51
NtRp97
(dp98
g54
(dp99
g74
g75
ssg63
g93
sg56
(lp100
S'application'
p101
asbag49
(g70
g51
NtRp102
(dp103
g54
(dp104
g81
g82
ssg63
g93
sg56
(lp105
S':'
asbag49
(g70
g51
NtRp106
(dp107
g54
(dp108
sg63
g93
sg56
(lp109
g49
(g50
g51
NtRp110
(dp111
g54
(dp112
g62
I5
ssg63
g106
sg56
(lp113
S'udi0312'
p114
asbasbasbag49
(g65
g51
NtRp115
(dp116
g54
(dp117
sg63
g59
sg56
(lp118
g49
(g70
g51
NtRp119
(dp120
g54
(dp121
g74
g75
ssg63
g115
sg56
(lp122
g28
asbag49
(g70
g51
NtRp123
(dp124
g54
(dp125
g81
g82
ssg63
g115
sg56
(lp126
S':'
asbag49
(g70
g51
NtRp127
(dp128
g54
(dp129
sg63
g115
sg56
(lp130
g49
(g50
g51
NtRp131
(dp132
g54
(dp133
g62
I5
ssg63
g127
sg56
(lp134
g49
(g58
g51
NtRp135
(dp136
g54
(dp137
g62
I4
ssg63
Nsg56
(lp138
g49
(g65
g51
NtRp139
(dp140
g54
(dp141
sg63
g135
sg56
(lp142
g49
(g70
g51
NtRp143
(dp144
g54
(dp145
sg63
g139
sg56
(lp146
g49
(g50
g51
NtRp147
(dp148
g54
(dp149
g62
I4
ssg63
g143
sg56
(lp150
S'1'
asbasbasbag49
(g65
g51
NtRp151
(dp152
g54
(dp153
sg63
g135
sg56
(lp154
g49
(g70
g51
NtRp155
(dp156
g54
(dp157
sg63
g151
sg56
(lp158
g49
(g50
g51
NtRp159
(dp160
g54
(dp161
g62
I4
ssg63
g155
sg56
(lp162
S'xxx'
p163
asbasbasbasbasbasbasbag49
(g65
g51
NtRp164
(dp165
g54
(dp166
sg63
g59
sg56
(lp167
g49
(g70
g51
NtRp168
(dp169
g54
(dp170
g74
g75
ssg63
g164
sg56
(lp171
S'body'
p172
asbag49
(g70
g51
NtRp173
(dp174
g54
(dp175
g81
g82
ssg63
g164
sg56
(lp176
S':'
asbag49
(g70
g51
NtRp177
(dp178
g54
(dp179
sg63
g164
sg56
(lp180
g49
(g50
g51
NtRp181
(dp182
g54
(dp183
g62
I5
ssg63
g177
sg56
(lp184
S'<cStringIO.StringO object at 0xa4d0480>'
p185
asbasbasbag49
(g65
g51
NtRp186
(dp187
g54
(dp188
sg63
g59
sg56
(lp189
g49
(g70
g51
NtRp190
(dp191
g54
(dp192
g74
g75
ssg63
g186
sg56
(lp193
S'client'
p194
asbag49
(g70
g51
NtRp195
(dp196
g54
(dp197
g81
g82
ssg63
g186
sg56
(lp198
S':'
asbag49
(g70
g51
NtRp199
(dp200
g54
(dp201
sg63
g186
sg56
(lp202
g49
(g50
g51
NtRp203
(dp204
g54
(dp205
g62
I5
ssg63
g199
sg56
(lp206
S'127.0.0.1'
p207
asbasbasbag49
(g65
g51
NtRp208
(dp209
g54
(dp210
sg63
g59
sg56
(lp211
g49
(g70
g51
NtRp212
(dp213
g54
(dp214
g74
g75
ssg63
g208
sg56
(lp215
S'controller'
p216
asbag49
(g70
g51
NtRp217
(dp218
g54
(dp219
g81
g82
ssg63
g208
sg56
(lp220
S':'
asbag49
(g70
g51
NtRp221
(dp222
g54
(dp223
sg63
g208
sg56
(lp224
g49
(g50
g51
NtRp225
(dp226
g54
(dp227
g62
I5
ssg63
g221
sg56
(lp228
S'users'
p229
asbasbasbag49
(g65
g51
NtRp230
(dp231
g54
(dp232
sg63
g59
sg56
(lp233
g49
(g70
g51
NtRp234
(dp235
g54
(dp236
g74
g75
ssg63
g230
sg56
(lp237
S'cookies'
p238
asbag49
(g70
g51
NtRp239
(dp240
g54
(dp241
g81
g82
ssg63
g230
sg56
(lp242
S':'
asbag49
(g70
g51
NtRp243
(dp244
g54
(dp245
sg63
g230
sg56
(lp246
g49
(g50
g51
NtRp247
(dp248
g54
(dp249
g62
I5
ssg63
g243
sg56
(lp250
g49
(g58
g51
NtRp251
(dp252
g54
(dp253
g62
I4
ssg63
Nsg56
(lp254
g49
(g65
g51
NtRp255
(dp256
g54
(dp257
sg63
g251
sg56
(lp258
g49
(g70
g51
NtRp259
(dp260
g54
(dp261
g74
g75
ssg63
g255
sg56
(lp262
S'session_id_admin'
p263
asbag49
(g70
g51
NtRp264
(dp265
g54
(dp266
g81
g82
ssg63
g255
sg56
(lp267
S':'
asbag49
(g70
g51
NtRp268
(dp269
g54
(dp270
sg63
g255
sg56
(lp271
g49
(g50
g51
NtRp272
(dp273
g54
(dp274
g62
I4
ssg63
g268
sg56
(lp275
g49
(g58
g51
NtRp276
(dp277
g54
(dp278
g62
I3
ssg63
Nsg56
(lp279
g49
(g65
g51
NtRp280
(dp281
g54
(dp282
sg63
g276
sg56
(lp283
g49
(g70
g51
NtRp284
(dp285
g54
(dp286
g74
g75
ssg63
g280
sg56
(lp287
S'comment'
p288
asbag49
(g70
g51
NtRp289
(dp290
g54
(dp291
g81
g82
ssg63
g280
sg56
(lp292
S':'
asbag49
(g70
g51
NtRp293
(dp294
g54
(dp295
sg63
g280
sg56
(lp296
g49
(g50
g51
NtRp297
(dp298
g54
(dp299
g62
I3
ssg63
g293
sg56
(lp300
S''
asbasbasbag49
(g65
g51
NtRp301
(dp302
g54
(dp303
sg63
g276
sg56
(lp304
g49
(g70
g51
NtRp305
(dp306
g54
(dp307
g74
g75
ssg63
g301
sg56
(lp308
S'domain'
p309
asbag49
(g70
g51
NtRp310
(dp311
g54
(dp312
g81
g82
ssg63
g301
sg56
(lp313
S':'
asbag49
(g70
g51
NtRp314
(dp315
g54
(dp316
sg63
g301
sg56
(lp317
g49
(g50
g51
NtRp318
(dp319
g54
(dp320
g62
I3
ssg63
g314
sg56
(lp321
S''
asbasbasbag49
(g65
g51
NtRp322
(dp323
g54
(dp324
sg63
g276
sg56
(lp325
g49
(g70
g51
NtRp326
(dp327
g54
(dp328
g74
g75
ssg63
g322
sg56
(lp329
S'expires'
p330
asbag49
(g70
g51
NtRp331
(dp332
g54
(dp333
g81
g82
ssg63
g322
sg56
(lp334
S':'
asbag49
(g70
g51
NtRp335
(dp336
g54
(dp337
sg63
g322
sg56
(lp338
g49
(g50
g51
NtRp339
(dp340
g54
(dp341
g62
I3
ssg63
g335
sg56
(lp342
S''
asbasbasbag49
(g65
g51
NtRp343
(dp344
g54
(dp345
sg63
g276
sg56
(lp346
g49
(g70
g51
NtRp347
(dp348
g54
(dp349
g74
g75
ssg63
g343
sg56
(lp350
S'max-age'
p351
asbag49
(g70
g51
NtRp352
(dp353
g54
(dp354
g81
g82
ssg63
g343
sg56
(lp355
S':'
asbag49
(g70
g51
NtRp356
(dp357
g54
(dp358
sg63
g343
sg56
(lp359
g49
(g50
g51
NtRp360
(dp361
g54
(dp362
g62
I3
ssg63
g356
sg56
(lp363
S''
asbasbasbag49
(g65
g51
NtRp364
(dp365
g54
(dp366
sg63
g276
sg56
(lp367
g49
(g70
g51
NtRp368
(dp369
g54
(dp370
g74
g75
ssg63
g364
sg56
(lp371
S'path'
p372
asbag49
(g70
g51
NtRp373
(dp374
g54
(dp375
g81
g82
ssg63
g364
sg56
(lp376
S':'
asbag49
(g70
g51
NtRp377
(dp378
g54
(dp379
sg63
g364
sg56
(lp380
g49
(g50
g51
NtRp381
(dp382
g54
(dp383
g62
I3
ssg63
g377
sg56
(lp384
S''
asbasbasbag49
(g65
g51
NtRp385
(dp386
g54
(dp387
sg63
g276
sg56
(lp388
g49
(g70
g51
NtRp389
(dp390
g54
(dp391
g74
g75
ssg63
g385
sg56
(lp392
S'secure'
p393
asbag49
(g70
g51
NtRp394
(dp395
g54
(dp396
g81
g82
ssg63
g385
sg56
(lp397
S':'
asbag49
(g70
g51
NtRp398
(dp399
g54
(dp400
sg63
g385
sg56
(lp401
g49
(g50
g51
NtRp402
(dp403
g54
(dp404
g62
I3
ssg63
g398
sg56
(lp405
S''
asbasbasbag49
(g65
g51
NtRp406
(dp407
g54
(dp408
sg63
g276
sg56
(lp409
g49
(g70
g51
NtRp410
(dp411
g54
(dp412
g74
g75
ssg63
g406
sg56
(lp413
S'version'
p414
asbag49
(g70
g51
NtRp415
(dp416
g54
(dp417
g81
g82
ssg63
g406
sg56
(lp418
S':'
asbag49
(g70
g51
NtRp419
(dp420
g54
(dp421
sg63
g406
sg56
(lp422
g49
(g50
g51
NtRp423
(dp424
g54
(dp425
g62
I3
ssg63
g419
sg56
(lp426
S''
asbasbasbasbasbasbasbag49
(g65
g51
NtRp427
(dp428
g54
(dp429
sg63
g251
sg56
(lp430
g49
(g70
g51
NtRp431
(dp432
g54
(dp433
g74
g75
ssg63
g427
sg56
(lp434
S'session_id_udi0312'
p435
asbag49
(g70
g51
NtRp436
(dp437
g54
(dp438
g81
g82
ssg63
g427
sg56
(lp439
S':'
asbag49
(g70
g51
NtRp440
(dp441
g54
(dp442
sg63
g427
sg56
(lp443
g49
(g50
g51
NtRp444
(dp445
g54
(dp446
g62
I4
ssg63
g440
sg56
(lp447
g49
(g58
g51
NtRp448
(dp449
g54
(dp450
g62
I3
ssg63
Nsg56
(lp451
g49
(g65
g51
NtRp452
(dp453
g54
(dp454
sg63
g448
sg56
(lp455
g49
(g70
g51
NtRp456
(dp457
g54
(dp458
g74
g75
ssg63
g452
sg56
(lp459
g288
asbag49
(g70
g51
NtRp460
(dp461
g54
(dp462
g81
g82
ssg63
g452
sg56
(lp463
S':'
asbag49
(g70
g51
NtRp464
(dp465
g54
(dp466
sg63
g452
sg56
(lp467
g49
(g50
g51
NtRp468
(dp469
g54
(dp470
g62
I3
ssg63
g464
sg56
(lp471
S''
asbasbasbag49
(g65
g51
NtRp472
(dp473
g54
(dp474
sg63
g448
sg56
(lp475
g49
(g70
g51
NtRp476
(dp477
g54
(dp478
g74
g75
ssg63
g472
sg56
(lp479
g309
asbag49
(g70
g51
NtRp480
(dp481
g54
(dp482
g81
g82
ssg63
g472
sg56
(lp483
S':'
asbag49
(g70
g51
NtRp484
(dp485
g54
(dp486
sg63
g472
sg56
(lp487
g49
(g50
g51
NtRp488
(dp489
g54
(dp490
g62
I3
ssg63
g484
sg56
(lp491
S''
asbasbasbag49
(g65
g51
NtRp492
(dp493
g54
(dp494
sg63
g448
sg56
(lp495
g49
(g70
g51
NtRp496
(dp497
g54
(dp498
g74
g75
ssg63
g492
sg56
(lp499
g330
asbag49
(g70
g51
NtRp500
(dp501
g54
(dp502
g81
g82
ssg63
g492
sg56
(lp503
S':'
asbag49
(g70
g51
NtRp504
(dp505
g54
(dp506
sg63
g492
sg56
(lp507
g49
(g50
g51
NtRp508
(dp509
g54
(dp510
g62
I3
ssg63
g504
sg56
(lp511
S''
asbasbasbag49
(g65
g51
NtRp512
(dp513
g54
(dp514
sg63
g448
sg56
(lp515
g49
(g70
g51
NtRp516
(dp517
g54
(dp518
g74
g75
ssg63
g512
sg56
(lp519
g351
asbag49
(g70
g51
NtRp520
(dp521
g54
(dp522
g81
g82
ssg63
g512
sg56
(lp523
S':'
asbag49
(g70
g51
NtRp524
(dp525
g54
(dp526
sg63
g512
sg56
(lp527
g49
(g50
g51
NtRp528
(dp529
g54
(dp530
g62
I3
ssg63
g524
sg56
(lp531
S''
asbasbasbag49
(g65
g51
NtRp532
(dp533
g54
(dp534
sg63
g448
sg56
(lp535
g49
(g70
g51
NtRp536
(dp537
g54
(dp538
g74
g75
ssg63
g532
sg56
(lp539
g372
asbag49
(g70
g51
NtRp540
(dp541
g54
(dp542
g81
g82
ssg63
g532
sg56
(lp543
S':'
asbag49
(g70
g51
NtRp544
(dp545
g54
(dp546
sg63
g532
sg56
(lp547
g49
(g50
g51
NtRp548
(dp549
g54
(dp550
g62
I3
ssg63
g544
sg56
(lp551
S''
asbasbasbag49
(g65
g51
NtRp552
(dp553
g54
(dp554
sg63
g448
sg56
(lp555
g49
(g70
g51
NtRp556
(dp557
g54
(dp558
g74
g75
ssg63
g552
sg56
(lp559
g393
asbag49
(g70
g51
NtRp560
(dp561
g54
(dp562
g81
g82
ssg63
g552
sg56
(lp563
S':'
asbag49
(g70
g51
NtRp564
(dp565
g54
(dp566
sg63
g552
sg56
(lp567
g49
(g50
g51
NtRp568
(dp569
g54
(dp570
g62
I3
ssg63
g564
sg56
(lp571
S''
asbasbasbag49
(g65
g51
NtRp572
(dp573
g54
(dp574
sg63
g448
sg56
(lp575
g49
(g70
g51
NtRp576
(dp577
g54
(dp578
g74
g75
ssg63
g572
sg56
(lp579
g414
asbag49
(g70
g51
NtRp580
(dp581
g54
(dp582
g81
g82
ssg63
g572
sg56
(lp583
S':'
asbag49
(g70
g51
NtRp584
(dp585
g54
(dp586
sg63
g572
sg56
(lp587
g49
(g50
g51
NtRp588
(dp589
g54
(dp590
g62
I3
ssg63
g584
sg56
(lp591
S''
asbasbasbasbasbasbasbasbasbasbasbag49
(g65
g51
NtRp592
(dp593
g54
(dp594
sg63
g59
sg56
(lp595
g49
(g70
g51
NtRp596
(dp597
g54
(dp598
g74
g75
ssg63
g592
sg56
(lp599
S'env'
p600
asbag49
(g70
g51
NtRp601
(dp602
g54
(dp603
g81
g82
ssg63
g592
sg56
(lp604
S':'
asbag49
(g70
g51
NtRp605
(dp606
g54
(dp607
sg63
g592
sg56
(lp608
g49
(g50
g51
NtRp609
(dp610
g54
(dp611
g62
I5
ssg63
g605
sg56
(lp612
g49
(g58
g51
NtRp613
(dp614
g54
(dp615
g62
I4
ssg63
Nsg56
(lp616
g49
(g65
g51
NtRp617
(dp618
g54
(dp619
sg63
g613
sg56
(lp620
g49
(g70
g51
NtRp621
(dp622
g54
(dp623
g74
g75
ssg63
g617
sg56
(lp624
S'app_folders'
p625
asbag49
(g70
g51
NtRp626
(dp627
g54
(dp628
g81
g82
ssg63
g617
sg56
(lp629
S':'
asbag49
(g70
g51
NtRp630
(dp631
g54
(dp632
sg63
g617
sg56
(lp633
g49
(g50
g51
NtRp634
(dp635
g54
(dp636
g62
I4
ssg63
g630
sg56
(lp637
S"set(['/Users/udimilo/Documents/web2py/applications/udi0312/', '/Users/udimilo/Documents/web2py/applications/admin/'])"
p638
asbasbasbag49
(g65
g51
NtRp639
(dp640
g54
(dp641
sg63
g613
sg56
(lp642
g49
(g70
g51
NtRp643
(dp644
g54
(dp645
g74
g75
ssg63
g639
sg56
(lp646
S'applications_parent'
p647
asbag49
(g70
g51
NtRp648
(dp649
g54
(dp650
g81
g82
ssg63
g639
sg56
(lp651
S':'
asbag49
(g70
g51
NtRp652
(dp653
g54
(dp654
sg63
g639
sg56
(lp655
g49
(g50
g51
NtRp656
(dp657
g54
(dp658
g62
I4
ssg63
g652
sg56
(lp659
S'/Users/udimilo/Documents/web2py'
p660
asbasbasbag49
(g65
g51
NtRp661
(dp662
g54
(dp663
sg63
g613
sg56
(lp664
g49
(g70
g51
NtRp665
(dp666
g54
(dp667
g74
g75
ssg63
g661
sg56
(lp668
S'cmd_args'
p669
asbag49
(g70
g51
NtRp670
(dp671
g54
(dp672
g81
g82
ssg63
g661
sg56
(lp673
S':'
asbag49
(g70
g51
NtRp674
(dp675
g54
(dp676
sg63
g661
sg56
(lp677
g49
(g50
g51
NtRp678
(dp679
g54
(dp680
g62
I4
ssg63
g674
sg56
(lp681
g49
(g58
g51
NtRp682
(dp683
g54
(dp684
g62
I3
ssg63
Nsg56
(lp685
sbasbasbasbag49
(g65
g51
NtRp686
(dp687
g54
(dp688
sg63
g613
sg56
(lp689
g49
(g70
g51
NtRp690
(dp691
g54
(dp692
g74
g75
ssg63
g686
sg56
(lp693
S'cmd_options'
p694
asbag49
(g70
g51
NtRp695
(dp696
g54
(dp697
g81
g82
ssg63
g686
sg56
(lp698
S':'
asbag49
(g70
g51
NtRp699
(dp700
g54
(dp701
sg63
g686
sg56
(lp702
g49
(g50
g51
NtRp703
(dp704
g54
(dp705
g62
I4
ssg63
g699
sg56
(lp706
S"<Values at 0x25193f0: {'verbose': False, 'ip': '127.0.0.1', 'shutdown_timeout': 5, 'taskbar': False, 'nocron': False, 'pid_filename': 'httpserver.pid', 'maxthreads': None, 'softcron': False, 'server_name': 'Udi-Milos-MacBook-Pro.local', 'bpython': False, 'nogui': False, 'port': 8000, 'extcron': False, 'debuglevel': 30, 'test': None, 'folder': '/Users/udimilo/Documents/web2py', 'config': '', 'import_models': False, 'winservice': '', 'shell': None, 'run': '', 'log_filename': 'httpserver.log', 'args': [''], 'socket_timeout': 5, 'ssl_ca_certificate': None, 'scheduler': None, 'profiler_filename': None, 'ssl_private_key': '', 'password': '<ask>', 'request_queue_size': 5, 'ssl_certificate': '', 'cronjob': False, 'numthreads': None, 'quiet': False, 'interfaces': None, 'minthreads': None, 'timeout': 10, 'plain': False, 'nobanner': False}>"
p707
asbasbasbag49
(g65
g51
NtRp708
(dp709
g54
(dp710
sg63
g613
sg56
(lp711
g49
(g70
g51
NtRp712
(dp713
g54
(dp714
g74
g75
ssg63
g708
sg56
(lp715
S'db_sessions'
p716
asbag49
(g70
g51
NtRp717
(dp718
g54
(dp719
g81
g82
ssg63
g708
sg56
(lp720
S':'
asbag49
(g70
g51
NtRp721
(dp722
g54
(dp723
sg63
g708
sg56
(lp724
g49
(g50
g51
NtRp725
(dp726
g54
(dp727
g62
I4
ssg63
g721
sg56
(lp728
S'set([])'
p729
asbasbasbag49
(g65
g51
NtRp730
(dp731
g54
(dp732
sg63
g613
sg56
(lp733
g49
(g70
g51
NtRp734
(dp735
g54
(dp736
g74
g75
ssg63
g730
sg56
(lp737
S'debugging'
p738
asbag49
(g70
g51
NtRp739
(dp740
g54
(dp741
g81
g82
ssg63
g730
sg56
(lp742
S':'
asbag49
(g70
g51
NtRp743
(dp744
g54
(dp745
sg63
g730
sg56
(lp746
g49
(g50
g51
NtRp747
(dp748
g54
(dp749
g62
I4
ssg63
g743
sg56
(lp750
g92
asbasbasbag49
(g65
g51
NtRp751
(dp752
g54
(dp753
sg63
g613
sg56
(lp754
g49
(g70
g51
NtRp755
(dp756
g54
(dp757
g74
g75
ssg63
g751
sg56
(lp758
S'gluon_parent'
p759
asbag49
(g70
g51
NtRp760
(dp761
g54
(dp762
g81
g82
ssg63
g751
sg56
(lp763
S':'
asbag49
(g70
g51
NtRp764
(dp765
g54
(dp766
sg63
g751
sg56
(lp767
g49
(g50
g51
NtRp768
(dp769
g54
(dp770
g62
I4
ssg63
g764
sg56
(lp771
S'/Users/udimilo/Documents/web2py'
p772
asbasbasbag49
(g65
g51
NtRp773
(dp774
g54
(dp775
sg63
g613
sg56
(lp776
g49
(g70
g51
NtRp777
(dp778
g54
(dp779
g74
g75
ssg63
g773
sg56
(lp780
S'http_accept'
p781
asbag49
(g70
g51
NtRp782
(dp783
g54
(dp784
g81
g82
ssg63
g773
sg56
(lp785
S':'
asbag49
(g70
g51
NtRp786
(dp787
g54
(dp788
sg63
g773
sg56
(lp789
g49
(g50
g51
NtRp790
(dp791
g54
(dp792
g62
I4
ssg63
g786
sg56
(lp793
S'text/html,application/xhtml+xml,application/xml;q=0.9,*/*;q=0.8'
p794
asbasbasbag49
(g65
g51
NtRp795
(dp796
g54
(dp797
sg63
g613
sg56
(lp798
g49
(g70
g51
NtRp799
(dp800
g54
(dp801
g74
g75
ssg63
g795
sg56
(lp802
S'http_accept_charset'
p803
asbag49
(g70
g51
NtRp804
(dp805
g54
(dp806
g81
g82
ssg63
g795
sg56
(lp807
S':'
asbag49
(g70
g51
NtRp808
(dp809
g54
(dp810
sg63
g795
sg56
(lp811
g49
(g50
g51
NtRp812
(dp813
g54
(dp814
g62
I4
ssg63
g808
sg56
(lp815
S'ISO-8859-1,utf-8;q=0.7,*;q=0.3'
p816
asbasbasbag49
(g65
g51
NtRp817
(dp818
g54
(dp819
sg63
g613
sg56
(lp820
g49
(g70
g51
NtRp821
(dp822
g54
(dp823
g74
g75
ssg63
g817
sg56
(lp824
S'http_accept_encoding'
p825
asbag49
(g70
g51
NtRp826
(dp827
g54
(dp828
g81
g82
ssg63
g817
sg56
(lp829
S':'
asbag49
(g70
g51
NtRp830
(dp831
g54
(dp832
sg63
g817
sg56
(lp833
g49
(g50
g51
NtRp834
(dp835
g54
(dp836
g62
I4
ssg63
g830
sg56
(lp837
S'gzip,deflate,sdch'
p838
asbasbasbag49
(g65
g51
NtRp839
(dp840
g54
(dp841
sg63
g613
sg56
(lp842
g49
(g70
g51
NtRp843
(dp844
g54
(dp845
g74
g75
ssg63
g839
sg56
(lp846
S'http_accept_language'
p847
asbag49
(g70
g51
NtRp848
(dp849
g54
(dp850
g81
g82
ssg63
g839
sg56
(lp851
S':'
asbag49
(g70
g51
NtRp852
(dp853
g54
(dp854
sg63
g839
sg56
(lp855
g49
(g50
g51
NtRp856
(dp857
g54
(dp858
g62
I4
ssg63
g852
sg56
(lp859
S'en-US,en;q=0.8'
p860
asbasbasbag49
(g65
g51
NtRp861
(dp862
g54
(dp863
sg63
g613
sg56
(lp864
g49
(g70
g51
NtRp865
(dp866
g54
(dp867
g74
g75
ssg63
g861
sg56
(lp868
S'http_cache_control'
p869
asbag49
(g70
g51
NtRp870
(dp871
g54
(dp872
g81
g82
ssg63
g861
sg56
(lp873
S':'
asbag49
(g70
g51
NtRp874
(dp875
g54
(dp876
sg63
g861
sg56
(lp877
g49
(g50
g51
NtRp878
(dp879
g54
(dp880
g62
I4
ssg63
g874
sg56
(lp881
S'max-age=0'
p882
asbasbasbag49
(g65
g51
NtRp883
(dp884
g54
(dp885
sg63
g613
sg56
(lp886
g49
(g70
g51
NtRp887
(dp888
g54
(dp889
g74
g75
ssg63
g883
sg56
(lp890
S'http_connection'
p891
asbag49
(g70
g51
NtRp892
(dp893
g54
(dp894
g81
g82
ssg63
g883
sg56
(lp895
S':'
asbag49
(g70
g51
NtRp896
(dp897
g54
(dp898
sg63
g883
sg56
(lp899
g49
(g50
g51
NtRp900
(dp901
g54
(dp902
g62
I4
ssg63
g896
sg56
(lp903
S'keep-alive'
p904
asbasbasbag49
(g65
g51
NtRp905
(dp906
g54
(dp907
sg63
g613
sg56
(lp908
g49
(g70
g51
NtRp909
(dp910
g54
(dp911
g74
g75
ssg63
g905
sg56
(lp912
S'http_cookie'
p913
asbag49
(g70
g51
NtRp914
(dp915
g54
(dp916
g81
g82
ssg63
g905
sg56
(lp917
S':'
asbag49
(g70
g51
NtRp918
(dp919
g54
(dp920
sg63
g905
sg56
(lp921
g49
(g50
g51
NtRp922
(dp923
g54
(dp924
g62
I4
ssg63
g918
sg56
(lp925
S'session_id_udi0312=127.0.0.1-fcd6a577-d448-4882-b7bc-f353da84ba3b; session_id_admin=127.0.0.1-87c9be7c-30e4-46b7-99db-853ad51b457b'
p926
asbasbasbag49
(g65
g51
NtRp927
(dp928
g54
(dp929
sg63
g613
sg56
(lp930
g49
(g70
g51
NtRp931
(dp932
g54
(dp933
g74
g75
ssg63
g927
sg56
(lp934
S'http_host'
p935
asbag49
(g70
g51
NtRp936
(dp937
g54
(dp938
g81
g82
ssg63
g927
sg56
(lp939
S':'
asbag49
(g70
g51
NtRp940
(dp941
g54
(dp942
sg63
g927
sg56
(lp943
g49
(g50
g51
NtRp944
(dp945
g54
(dp946
g62
I4
ssg63
g940
sg56
(lp947
S'127.0.0.1:8000'
p948
asbasbasbag49
(g65
g51
NtRp949
(dp950
g54
(dp951
sg63
g613
sg56
(lp952
g49
(g70
g51
NtRp953
(dp954
g54
(dp955
g74
g75
ssg63
g949
sg56
(lp956
S'http_user_agent'
p957
asbag49
(g70
g51
NtRp958
(dp959
g54
(dp960
g81
g82
ssg63
g949
sg56
(lp961
S':'
asbag49
(g70
g51
NtRp962
(dp963
g54
(dp964
sg63
g949
sg56
(lp965
g49
(g50
g51
NtRp966
(dp967
g54
(dp968
g62
I4
ssg63
g962
sg56
(lp969
S'Mozilla/5.0 (Macintosh; Intel Mac OS X 10_7_3) AppleWebKit/535.11 (KHTML, like Gecko) Chrome/17.0.963.79 Safari/535.11'
p970
asbasbasbag49
(g65
g51
NtRp971
(dp972
g54
(dp973
sg63
g613
sg56
(lp974
g49
(g70
g51
NtRp975
(dp976
g54
(dp977
g74
g75
ssg63
g971
sg56
(lp978
S'is_jython'
p979
asbag49
(g70
g51
NtRp980
(dp981
g54
(dp982
g81
g82
ssg63
g971
sg56
(lp983
S':'
asbag49
(g70
g51
NtRp984
(dp985
g54
(dp986
sg63
g971
sg56
(lp987
g49
(g50
g51
NtRp988
(dp989
g54
(dp990
g62
I4
ssg63
g984
sg56
(lp991
g92
asbasbasbag49
(g65
g51
NtRp992
(dp993
g54
(dp994
sg63
g613
sg56
(lp995
g49
(g70
g51
NtRp996
(dp997
g54
(dp998
g74
g75
ssg63
g992
sg56
(lp999
S'is_pypy'
p1000
asbag49
(g70
g51
NtRp1001
(dp1002
g54
(dp1003
g81
g82
ssg63
g992
sg56
(lp1004
S':'
asbag49
(g70
g51
NtRp1005
(dp1006
g54
(dp1007
sg63
g992
sg56
(lp1008
g49
(g50
g51
NtRp1009
(dp1010
g54
(dp1011
g62
I4
ssg63
g1005
sg56
(lp1012
g92
asbasbasbag49
(g65
g51
NtRp1013
(dp1014
g54
(dp1015
sg63
g613
sg56
(lp1016
g49
(g70
g51
NtRp1017
(dp1018
g54
(dp1019
g74
g75
ssg63
g1013
sg56
(lp1020
S'path_info'
p1021
asbag49
(g70
g51
NtRp1022
(dp1023
g54
(dp1024
g81
g82
ssg63
g1013
sg56
(lp1025
S':'
asbag49
(g70
g51
NtRp1026
(dp1027
g54
(dp1028
sg63
g1013
sg56
(lp1029
g49
(g50
g51
NtRp1030
(dp1031
g54
(dp1032
g62
I4
ssg63
g1026
sg56
(lp1033
S'/udi0312/users/user/1/xxx'
p1034
asbasbasbag49
(g65
g51
NtRp1035
(dp1036
g54
(dp1037
sg63
g613
sg56
(lp1038
g49
(g70
g51
NtRp1039
(dp1040
g54
(dp1041
g74
g75
ssg63
g1035
sg56
(lp1042
S'query_string'
p1043
asbag49
(g70
g51
NtRp1044
(dp1045
g54
(dp1046
g81
g82
ssg63
g1035
sg56
(lp1047
S':'
asbag49
(g70
g51
NtRp1048
(dp1049
g54
(dp1050
sg63
g1035
sg56
(lp1051
g49
(g50
g51
NtRp1052
(dp1053
g54
(dp1054
g62
I4
ssg63
g1048
sg56
(lp1055
S''
asbasbasbag49
(g65
g51
NtRp1056
(dp1057
g54
(dp1058
sg63
g613
sg56
(lp1059
g49
(g70
g51
NtRp1060
(dp1061
g54
(dp1062
g74
g75
ssg63
g1056
sg56
(lp1063
S'remote_addr'
p1064
asbag49
(g70
g51
NtRp1065
(dp1066
g54
(dp1067
g81
g82
ssg63
g1056
sg56
(lp1068
S':'
asbag49
(g70
g51
NtRp1069
(dp1070
g54
(dp1071
sg63
g1056
sg56
(lp1072
g49
(g50
g51
NtRp1073
(dp1074
g54
(dp1075
g62
I4
ssg63
g1069
sg56
(lp1076
g207
asbasbasbag49
(g65
g51
NtRp1077
(dp1078
g54
(dp1079
sg63
g613
sg56
(lp1080
g49
(g70
g51
NtRp1081
(dp1082
g54
(dp1083
g74
g75
ssg63
g1077
sg56
(lp1084
S'remote_port'
p1085
asbag49
(g70
g51
NtRp1086
(dp1087
g54
(dp1088
g81
g82
ssg63
g1077
sg56
(lp1089
S':'
asbag49
(g70
g51
NtRp1090
(dp1091
g54
(dp1092
sg63
g1077
sg56
(lp1093
g49
(g50
g51
NtRp1094
(dp1095
g54
(dp1096
g62
I4
ssg63
g1090
sg56
(lp1097
S'63077'
p1098
asbasbasbag49
(g65
g51
NtRp1099
(dp1100
g54
(dp1101
sg63
g613
sg56
(lp1102
g49
(g70
g51
NtRp1103
(dp1104
g54
(dp1105
g74
g75
ssg63
g1099
sg56
(lp1106
S'request_method'
p1107
asbag49
(g70
g51
NtRp1108
(dp1109
g54
(dp1110
g81
g82
ssg63
g1099
sg56
(lp1111
S':'
asbag49
(g70
g51
NtRp1112
(dp1113
g54
(dp1114
sg63
g1099
sg56
(lp1115
g49
(g50
g51
NtRp1116
(dp1117
g54
(dp1118
g62
I4
ssg63
g1112
sg56
(lp1119
S'GET'
p1120
asbasbasbag49
(g65
g51
NtRp1121
(dp1122
g54
(dp1123
sg63
g613
sg56
(lp1124
g49
(g70
g51
NtRp1125
(dp1126
g54
(dp1127
g74
g75
ssg63
g1121
sg56
(lp1128
S'request_uri'
p1129
asbag49
(g70
g51
NtRp1130
(dp1131
g54
(dp1132
g81
g82
ssg63
g1121
sg56
(lp1133
S':'
asbag49
(g70
g51
NtRp1134
(dp1135
g54
(dp1136
sg63
g1121
sg56
(lp1137
g49
(g50
g51
NtRp1138
(dp1139
g54
(dp1140
g62
I4
ssg63
g1134
sg56
(lp1141
g1034
asbasbasbag49
(g65
g51
NtRp1142
(dp1143
g54
(dp1144
sg63
g613
sg56
(lp1145
g49
(g70
g51
NtRp1146
(dp1147
g54
(dp1148
g74
g75
ssg63
g1142
sg56
(lp1149
S'script_name'
p1150
asbag49
(g70
g51
NtRp1151
(dp1152
g54
(dp1153
g81
g82
ssg63
g1142
sg56
(lp1154
S':'
asbag49
(g70
g51
NtRp1155
(dp1156
g54
(dp1157
sg63
g1142
sg56
(lp1158
g49
(g50
g51
NtRp1159
(dp1160
g54
(dp1161
g62
I4
ssg63
g1155
sg56
(lp1162
S''
asbasbasbag49
(g65
g51
NtRp1163
(dp1164
g54
(dp1165
sg63
g613
sg56
(lp1166
g49
(g70
g51
NtRp1167
(dp1168
g54
(dp1169
g74
g75
ssg63
g1163
sg56
(lp1170
S'server_name'
p1171
asbag49
(g70
g51
NtRp1172
(dp1173
g54
(dp1174
g81
g82
ssg63
g1163
sg56
(lp1175
S':'
asbag49
(g70
g51
NtRp1176
(dp1177
g54
(dp1178
sg63
g1163
sg56
(lp1179
g49
(g50
g51
NtRp1180
(dp1181
g54
(dp1182
g62
I4
ssg63
g1176
sg56
(lp1183
S'Udi-Milos-MacBook-Pro.local'
p1184
asbasbasbag49
(g65
g51
NtRp1185
(dp1186
g54
(dp1187
sg63
g613
sg56
(lp1188
g49
(g70
g51
NtRp1189
(dp1190
g54
(dp1191
g74
g75
ssg63
g1185
sg56
(lp1192
S'server_port'
p1193
asbag49
(g70
g51
NtRp1194
(dp1195
g54
(dp1196
g81
g82
ssg63
g1185
sg56
(lp1197
S':'
asbag49
(g70
g51
NtRp1198
(dp1199
g54
(dp1200
sg63
g1185
sg56
(lp1201
g49
(g50
g51
NtRp1202
(dp1203
g54
(dp1204
g62
I4
ssg63
g1198
sg56
(lp1205
S'8000'
p1206
asbasbasbag49
(g65
g51
NtRp1207
(dp1208
g54
(dp1209
sg63
g613
sg56
(lp1210
g49
(g70
g51
NtRp1211
(dp1212
g54
(dp1213
g74
g75
ssg63
g1207
sg56
(lp1214
S'server_protocol'
p1215
asbag49
(g70
g51
NtRp1216
(dp1217
g54
(dp1218
g81
g82
ssg63
g1207
sg56
(lp1219
S':'
asbag49
(g70
g51
NtRp1220
(dp1221
g54
(dp1222
sg63
g1207
sg56
(lp1223
g49
(g50
g51
NtRp1224
(dp1225
g54
(dp1226
g62
I4
ssg63
g1220
sg56
(lp1227
S'HTTP/1.1'
p1228
asbasbasbag49
(g65
g51
NtRp1229
(dp1230
g54
(dp1231
sg63
g613
sg56
(lp1232
g49
(g70
g51
NtRp1233
(dp1234
g54
(dp1235
g74
g75
ssg63
g1229
sg56
(lp1236
S'server_software'
p1237
asbag49
(g70
g51
NtRp1238
(dp1239
g54
(dp1240
g81
g82
ssg63
g1229
sg56
(lp1241
S':'
asbag49
(g70
g51
NtRp1242
(dp1243
g54
(dp1244
sg63
g1229
sg56
(lp1245
g49
(g50
g51
NtRp1246
(dp1247
g54
(dp1248
g62
I4
ssg63
g1242
sg56
(lp1249
S'Rocket 1.2.4'
p1250
asbasbasbag49
(g65
g51
NtRp1251
(dp1252
g54
(dp1253
sg63
g613
sg56
(lp1254
g49
(g70
g51
NtRp1255
(dp1256
g54
(dp1257
g74
g75
ssg63
g1251
sg56
(lp1258
S'web2py_crontype'
p1259
asbag49
(g70
g51
NtRp1260
(dp1261
g54
(dp1262
g81
g82
ssg63
g1251
sg56
(lp1263
S':'
asbag49
(g70
g51
NtRp1264
(dp1265
g54
(dp1266
sg63
g1251
sg56
(lp1267
g49
(g50
g51
NtRp1268
(dp1269
g54
(dp1270
g62
I4
ssg63
g1264
sg56
(lp1271
S'hard'
p1272
asbasbasbag49
(g65
g51
NtRp1273
(dp1274
g54
(dp1275
sg63
g613
sg56
(lp1276
g49
(g70
g51
NtRp1277
(dp1278
g54
(dp1279
g74
g75
ssg63
g1273
sg56
(lp1280
S'web2py_original_uri'
p1281
asbag49
(g70
g51
NtRp1282
(dp1283
g54
(dp1284
g81
g82
ssg63
g1273
sg56
(lp1285
S':'
asbag49
(g70
g51
NtRp1286
(dp1287
g54
(dp1288
sg63
g1273
sg56
(lp1289
g49
(g50
g51
NtRp1290
(dp1291
g54
(dp1292
g62
I4
ssg63
g1286
sg56
(lp1293
S'/users/1/xxx'
p1294
asbasbasbag49
(g65
g51
NtRp1295
(dp1296
g54
(dp1297
sg63
g613
sg56
(lp1298
g49
(g70
g51
NtRp1299
(dp1300
g54
(dp1301
g74
g75
ssg63
g1295
sg56
(lp1302
S'web2py_path'
p1303
asbag49
(g70
g51
NtRp1304
(dp1305
g54
(dp1306
g81
g82
ssg63
g1295
sg56
(lp1307
S':'
asbag49
(g70
g51
NtRp1308
(dp1309
g54
(dp1310
sg63
g1295
sg56
(lp1311
g49
(g50
g51
NtRp1312
(dp1313
g54
(dp1314
g62
I4
ssg63
g1308
sg56
(lp1315
g660
asbasbasbag49
(g65
g51
NtRp1316
(dp1317
g54
(dp1318
sg63
g613
sg56
(lp1319
g49
(g70
g51
NtRp1320
(dp1321
g54
(dp1322
g74
g75
ssg63
g1316
sg56
(lp1323
S'web2py_version'
p1324
asbag49
(g70
g51
NtRp1325
(dp1326
g54
(dp1327
g81
g82
ssg63
g1316
sg56
(lp1328
S':'
asbag49
(g70
g51
NtRp1329
(dp1330
g54
(dp1331
sg63
g1316
sg56
(lp1332
g49
(g50
g51
NtRp1333
(dp1334
g54
(dp1335
g62
I4
ssg63
g1329
sg56
(lp1336
g49
(g58
g51
NtRp1337
(dp1338
g54
(dp1339
g62
I3
ssg63
Nsg56
(lp1340
g49
(g65
g51
NtRp1341
(dp1342
g54
(dp1343
sg63
g1337
sg56
(lp1344
g49
(g70
g51
NtRp1345
(dp1346
g54
(dp1347
sg63
g1341
sg56
(lp1348
g49
(g50
g51
NtRp1349
(dp1350
g54
(dp1351
g62
I3
ssg63
g1345
sg56
(lp1352
S'1'
asbasbasbag49
(g65
g51
NtRp1353
(dp1354
g54
(dp1355
sg63
g1337
sg56
(lp1356
g49
(g70
g51
NtRp1357
(dp1358
g54
(dp1359
sg63
g1353
sg56
(lp1360
g49
(g50
g51
NtRp1361
(dp1362
g54
(dp1363
g62
I3
ssg63
g1357
sg56
(lp1364
S'99'
p1365
asbasbasbag49
(g65
g51
NtRp1366
(dp1367
g54
(dp1368
sg63
g1337
sg56
(lp1369
g49
(g70
g51
NtRp1370
(dp1371
g54
(dp1372
sg63
g1366
sg56
(lp1373
g49
(g50
g51
NtRp1374
(dp1375
g54
(dp1376
g62
I3
ssg63
g1370
sg56
(lp1377
S'7'
asbasbasbag49
(g65
g51
NtRp1378
(dp1379
g54
(dp1380
sg63
g1337
sg56
(lp1381
g49
(g70
g51
NtRp1382
(dp1383
g54
(dp1384
sg63
g1378
sg56
(lp1385
g49
(g50
g51
NtRp1386
(dp1387
g54
(dp1388
g62
I3
ssg63
g1382
sg56
(lp1389
S'datetime.datetime(2012, 3, 4, 22, 12, 8)'
p1390
asbasbasbag49
(g65
g51
NtRp1391
(dp1392
g54
(dp1393
sg63
g1337
sg56
(lp1394
g49
(g70
g51
NtRp1395
(dp1396
g54
(dp1397
sg63
g1391
sg56
(lp1398
g49
(g50
g51
NtRp1399
(dp1400
g54
(dp1401
g62
I3
ssg63
g1395
sg56
(lp1402
S'stable'
p1403
asbasbasbasbasbasbasbag49
(g65
g51
NtRp1404
(dp1405
g54
(dp1406
sg63
g613
sg56
(lp1407
g49
(g70
g51
NtRp1408
(dp1409
g54
(dp1410
g74
g75
ssg63
g1404
sg56
(lp1411
S'wsgi_errors'
p1412
asbag49
(g70
g51
NtRp1413
(dp1414
g54
(dp1415
g81
g82
ssg63
g1404
sg56
(lp1416
S':'
asbag49
(g70
g51
NtRp1417
(dp1418
g54
(dp1419
sg63
g1404
sg56
(lp1420
g49
(g50
g51
NtRp1421
(dp1422
g54
(dp1423
g62
I4
ssg63
g1417
sg56
(lp1424
S"<open file '<stderr>', mode 'w' at 0x4220b0>"
p1425
asbasbasbag49
(g65
g51
NtRp1426
(dp1427
g54
(dp1428
sg63
g613
sg56
(lp1429
g49
(g70
g51
NtRp1430
(dp1431
g54
(dp1432
g74
g75
ssg63
g1426
sg56
(lp1433
S'wsgi_file_wrapper'
p1434
asbag49
(g70
g51
NtRp1435
(dp1436
g54
(dp1437
g81
g82
ssg63
g1426
sg56
(lp1438
S':'
asbag49
(g70
g51
NtRp1439
(dp1440
g54
(dp1441
sg63
g1426
sg56
(lp1442
g49
(g50
g51
NtRp1443
(dp1444
g54
(dp1445
g62
I4
ssg63
g1439
sg56
(lp1446
S'<class wsgiref.util.FileWrapper at 0x245e6c0>'
p1447
asbasbasbag49
(g65
g51
NtRp1448
(dp1449
g54
(dp1450
sg63
g613
sg56
(lp1451
g49
(g70
g51
NtRp1452
(dp1453
g54
(dp1454
g74
g75
ssg63
g1448
sg56
(lp1455
S'wsgi_input'
p1456
asbag49
(g70
g51
NtRp1457
(dp1458
g54
(dp1459
g81
g82
ssg63
g1448
sg56
(lp1460
S':'
asbag49
(g70
g51
NtRp1461
(dp1462
g54
(dp1463
sg63
g1448
sg56
(lp1464
g49
(g50
g51
NtRp1465
(dp1466
g54
(dp1467
g62
I4
ssg63
g1461
sg56
(lp1468
S'<socket._fileobject object at 0xa298ab0>'
p1469
asbasbasbag49
(g65
g51
NtRp1470
(dp1471
g54
(dp1472
sg63
g613
sg56
(lp1473
g49
(g70
g51
NtRp1474
(dp1475
g54
(dp1476
g74
g75
ssg63
g1470
sg56
(lp1477
S'wsgi_multiprocess'
p1478
asbag49
(g70
g51
NtRp1479
(dp1480
g54
(dp1481
g81
g82
ssg63
g1470
sg56
(lp1482
S':'
asbag49
(g70
g51
NtRp1483
(dp1484
g54
(dp1485
sg63
g1470
sg56
(lp1486
g49
(g50
g51
NtRp1487
(dp1488
g54
(dp1489
g62
I4
ssg63
g1483
sg56
(lp1490
g92
asbasbasbag49
(g65
g51
NtRp1491
(dp1492
g54
(dp1493
sg63
g613
sg56
(lp1494
g49
(g70
g51
NtRp1495
(dp1496
g54
(dp1497
g74
g75
ssg63
g1491
sg56
(lp1498
S'wsgi_multithread'
p1499
asbag49
(g70
g51
NtRp1500
(dp1501
g54
(dp1502
g81
g82
ssg63
g1491
sg56
(lp1503
S':'
asbag49
(g70
g51
NtRp1504
(dp1505
g54
(dp1506
sg63
g1491
sg56
(lp1507
g49
(g50
g51
NtRp1508
(dp1509
g54
(dp1510
g62
I4
ssg63
g1504
sg56
(lp1511
S'True'
p1512
asbasbasbag49
(g65
g51
NtRp1513
(dp1514
g54
(dp1515
sg63
g613
sg56
(lp1516
g49
(g70
g51
NtRp1517
(dp1518
g54
(dp1519
g74
g75
ssg63
g1513
sg56
(lp1520
S'wsgi_run_once'
p1521
asbag49
(g70
g51
NtRp1522
(dp1523
g54
(dp1524
g81
g82
ssg63
g1513
sg56
(lp1525
S':'
asbag49
(g70
g51
NtRp1526
(dp1527
g54
(dp1528
sg63
g1513
sg56
(lp1529
g49
(g50
g51
NtRp1530
(dp1531
g54
(dp1532
g62
I4
ssg63
g1526
sg56
(lp1533
g92
asbasbasbag49
(g65
g51
NtRp1534
(dp1535
g54
(dp1536
sg63
g613
sg56
(lp1537
g49
(g70
g51
NtRp1538
(dp1539
g54
(dp1540
g74
g75
ssg63
g1534
sg56
(lp1541
S'wsgi_url_scheme'
p1542
asbag49
(g70
g51
NtRp1543
(dp1544
g54
(dp1545
g81
g82
ssg63
g1534
sg56
(lp1546
S':'
asbag49
(g70
g51
NtRp1547
(dp1548
g54
(dp1549
sg63
g1534
sg56
(lp1550
g49
(g50
g51
NtRp1551
(dp1552
g54
(dp1553
g62
I4
ssg63
g1547
sg56
(lp1554
S'http'
p1555
asbasbasbag49
(g65
g51
NtRp1556
(dp1557
g54
(dp1558
sg63
g613
sg56
(lp1559
g49
(g70
g51
NtRp1560
(dp1561
g54
(dp1562
g74
g75
ssg63
g1556
sg56
(lp1563
S'wsgi_version'
p1564
asbag49
(g70
g51
NtRp1565
(dp1566
g54
(dp1567
g81
g82
ssg63
g1556
sg56
(lp1568
S':'
asbag49
(g70
g51
NtRp1569
(dp1570
g54
(dp1571
sg63
g1556
sg56
(lp1572
g49
(g50
g51
NtRp1573
(dp1574
g54
(dp1575
g62
I4
ssg63
g1569
sg56
(lp1576
g49
(g58
g51
NtRp1577
(dp1578
g54
(dp1579
g62
I3
ssg63
Nsg56
(lp1580
g49
(g65
g51
NtRp1581
(dp1582
g54
(dp1583
sg63
g1577
sg56
(lp1584
g49
(g70
g51
NtRp1585
(dp1586
g54
(dp1587
sg63
g1581
sg56
(lp1588
g49
(g50
g51
NtRp1589
(dp1590
g54
(dp1591
g62
I3
ssg63
g1585
sg56
(lp1592
S'1'
asbasbasbag49
(g65
g51
NtRp1593
(dp1594
g54
(dp1595
sg63
g1577
sg56
(lp1596
g49
(g70
g51
NtRp1597
(dp1598
g54
(dp1599
sg63
g1593
sg56
(lp1600
g49
(g50
g51
NtRp1601
(dp1602
g54
(dp1603
g62
I3
ssg63
g1597
sg56
(lp1604
S'0'
asbasbasbasbasbasbasbasbasbasbasbag49
(g65
g51
NtRp1605
(dp1606
g54
(dp1607
sg63
g59
sg56
(lp1608
g49
(g70
g51
NtRp1609
(dp1610
g54
(dp1611
g74
g75
ssg63
g1605
sg56
(lp1612
S'extension'
p1613
asbag49
(g70
g51
NtRp1614
(dp1615
g54
(dp1616
g81
g82
ssg63
g1605
sg56
(lp1617
S':'
asbag49
(g70
g51
NtRp1618
(dp1619
g54
(dp1620
sg63
g1605
sg56
(lp1621
g49
(g50
g51
NtRp1622
(dp1623
g54
(dp1624
g62
I5
ssg63
g1618
sg56
(lp1625
S'html'
p1626
asbasbasbag49
(g65
g51
NtRp1627
(dp1628
g54
(dp1629
sg63
g59
sg56
(lp1630
g49
(g70
g51
NtRp1631
(dp1632
g54
(dp1633
g74
g75
ssg63
g1627
sg56
(lp1634
S'folder'
p1635
asbag49
(g70
g51
NtRp1636
(dp1637
g54
(dp1638
g81
g82
ssg63
g1627
sg56
(lp1639
S':'
asbag49
(g70
g51
NtRp1640
(dp1641
g54
(dp1642
sg63
g1627
sg56
(lp1643
g49
(g50
g51
NtRp1644
(dp1645
g54
(dp1646
g62
I5
ssg63
g1640
sg56
(lp1647
S'/Users/udimilo/Documents/web2py/applications/udi0312/'
p1648
asbasbasbag49
(g65
g51
NtRp1649
(dp1650
g54
(dp1651
sg63
g59
sg56
(lp1652
g49
(g70
g51
NtRp1653
(dp1654
g54
(dp1655
g74
g75
ssg63
g1649
sg56
(lp1656
S'function'
p1657
asbag49
(g70
g51
NtRp1658
(dp1659
g54
(dp1660
g81
g82
ssg63
g1649
sg56
(lp1661
S':'
asbag49
(g70
g51
NtRp1662
(dp1663
g54
(dp1664
sg63
g1649
sg56
(lp1665
g49
(g50
g51
NtRp1666
(dp1667
g54
(dp1668
g62
I5
ssg63
g1662
sg56
(lp1669
S'user'
p1670
asbasbasbag49
(g65
g51
NtRp1671
(dp1672
g54
(dp1673
sg63
g59
sg56
(lp1674
g49
(g70
g51
NtRp1675
(dp1676
g54
(dp1677
g74
g75
ssg63
g1671
sg56
(lp1678
S'get_vars'
p1679
asbag49
(g70
g51
NtRp1680
(dp1681
g54
(dp1682
g81
g82
ssg63
g1671
sg56
(lp1683
S':'
asbag49
(g70
g51
NtRp1684
(dp1685
g54
(dp1686
sg63
g1671
sg56
(lp1687
g49
(g50
g51
NtRp1688
(dp1689
g54
(dp1690
g62
I5
ssg63
g1684
sg56
(lp1691
g49
(g58
g51
NtRp1692
(dp1693
g54
(dp1694
g62
I4
ssg63
Nsg56
(lp1695
sbasbasbasbag49
(g65
g51
NtRp1696
(dp1697
g54
(dp1698
sg63
g59
sg56
(lp1699
g49
(g70
g51
NtRp1700
(dp1701
g54
(dp1702
g74
g75
ssg63
g1696
sg56
(lp1703
S'global_settings'
p1704
asbag49
(g70
g51
NtRp1705
(dp1706
g54
(dp1707
g81
g82
ssg63
g1696
sg56
(lp1708
S':'
asbag49
(g70
g51
NtRp1709
(dp1710
g54
(dp1711
sg63
g1696
sg56
(lp1712
g49
(g50
g51
NtRp1713
(dp1714
g54
(dp1715
g62
I5
ssg63
g1709
sg56
(lp1716
g49
(g58
g51
NtRp1717
(dp1718
g54
(dp1719
g62
I4
ssg63
Nsg56
(lp1720
g49
(g65
g51
NtRp1721
(dp1722
g54
(dp1723
sg63
g1717
sg56
(lp1724
g49
(g70
g51
NtRp1725
(dp1726
g54
(dp1727
g74
g75
ssg63
g1721
sg56
(lp1728
g625
asbag49
(g70
g51
NtRp1729
(dp1730
g54
(dp1731
g81
g82
ssg63
g1721
sg56
(lp1732
S':'
asbag49
(g70
g51
NtRp1733
(dp1734
g54
(dp1735
sg63
g1721
sg56
(lp1736
g49
(g50
g51
NtRp1737
(dp1738
g54
(dp1739
g62
I4
ssg63
g1733
sg56
(lp1740
S"set(['/Users/udimilo/Documents/web2py/applications/udi0312/', '/Users/udimilo/Documents/web2py/applications/admin/'])"
p1741
asbasbasbag49
(g65
g51
NtRp1742
(dp1743
g54
(dp1744
sg63
g1717
sg56
(lp1745
g49
(g70
g51
NtRp1746
(dp1747
g54
(dp1748
g74
g75
ssg63
g1742
sg56
(lp1749
g647
asbag49
(g70
g51
NtRp1750
(dp1751
g54
(dp1752
g81
g82
ssg63
g1742
sg56
(lp1753
S':'
asbag49
(g70
g51
NtRp1754
(dp1755
g54
(dp1756
sg63
g1742
sg56
(lp1757
g49
(g50
g51
NtRp1758
(dp1759
g54
(dp1760
g62
I4
ssg63
g1754
sg56
(lp1761
g660
asbasbasbag49
(g65
g51
NtRp1762
(dp1763
g54
(dp1764
sg63
g1717
sg56
(lp1765
g49
(g70
g51
NtRp1766
(dp1767
g54
(dp1768
g74
g75
ssg63
g1762
sg56
(lp1769
g669
asbag49
(g70
g51
NtRp1770
(dp1771
g54
(dp1772
g81
g82
ssg63
g1762
sg56
(lp1773
S':'
asbag49
(g70
g51
NtRp1774
(dp1775
g54
(dp1776
sg63
g1762
sg56
(lp1777
g49
(g50
g51
NtRp1778
(dp1779
g54
(dp1780
g62
I4
ssg63
g1774
sg56
(lp1781
g49
(g58
g51
NtRp1782
(dp1783
g54
(dp1784
g62
I3
ssg63
Nsg56
(lp1785
sbasbasbasbag49
(g65
g51
NtRp1786
(dp1787
g54
(dp1788
sg63
g1717
sg56
(lp1789
g49
(g70
g51
NtRp1790
(dp1791
g54
(dp1792
g74
g75
ssg63
g1786
sg56
(lp1793
g694
asbag49
(g70
g51
NtRp1794
(dp1795
g54
(dp1796
g81
g82
ssg63
g1786
sg56
(lp1797
S':'
asbag49
(g70
g51
NtRp1798
(dp1799
g54
(dp1800
sg63
g1786
sg56
(lp1801
g49
(g50
g51
NtRp1802
(dp1803
g54
(dp1804
g62
I4
ssg63
g1798
sg56
(lp1805
S"<Values at 0x25193f0: {'verbose': False, 'ip': '127.0.0.1', 'shutdown_timeout': 5, 'taskbar': False, 'nocron': False, 'pid_filename': 'httpserver.pid', 'maxthreads': None, 'softcron': False, 'server_name': 'Udi-Milos-MacBook-Pro.local', 'bpython': False, 'nogui': False, 'port': 8000, 'extcron': False, 'debuglevel': 30, 'test': None, 'folder': '/Users/udimilo/Documents/web2py', 'config': '', 'import_models': False, 'winservice': '', 'shell': None, 'run': '', 'log_filename': 'httpserver.log', 'args': [''], 'socket_timeout': 5, 'ssl_ca_certificate': None, 'scheduler': None, 'profiler_filename': None, 'ssl_private_key': '', 'password': '<ask>', 'request_queue_size': 5, 'ssl_certificate': '', 'cronjob': False, 'numthreads': None, 'quiet': False, 'interfaces': None, 'minthreads': None, 'timeout': 10, 'plain': False, 'nobanner': False}>"
p1806
asbasbasbag49
(g65
g51
NtRp1807
(dp1808
g54
(dp1809
sg63
g1717
sg56
(lp1810
g49
(g70
g51
NtRp1811
(dp1812
g54
(dp1813
g74
g75
ssg63
g1807
sg56
(lp1814
g716
asbag49
(g70
g51
NtRp1815
(dp1816
g54
(dp1817
g81
g82
ssg63
g1807
sg56
(lp1818
S':'
asbag49
(g70
g51
NtRp1819
(dp1820
g54
(dp1821
sg63
g1807
sg56
(lp1822
g49
(g50
g51
NtRp1823
(dp1824
g54
(dp1825
g62
I4
ssg63
g1819
sg56
(lp1826
S'set([])'
p1827
asbasbasbag49
(g65
g51
NtRp1828
(dp1829
g54
(dp1830
sg63
g1717
sg56
(lp1831
g49
(g70
g51
NtRp1832
(dp1833
g54
(dp1834
g74
g75
ssg63
g1828
sg56
(lp1835
g738
asbag49
(g70
g51
NtRp1836
(dp1837
g54
(dp1838
g81
g82
ssg63
g1828
sg56
(lp1839
S':'
asbag49
(g70
g51
NtRp1840
(dp1841
g54
(dp1842
sg63
g1828
sg56
(lp1843
g49
(g50
g51
NtRp1844
(dp1845
g54
(dp1846
g62
I4
ssg63
g1840
sg56
(lp1847
g92
asbasbasbag49
(g65
g51
NtRp1848
(dp1849
g54
(dp1850
sg63
g1717
sg56
(lp1851
g49
(g70
g51
NtRp1852
(dp1853
g54
(dp1854
g74
g75
ssg63
g1848
sg56
(lp1855
g759
asbag49
(g70
g51
NtRp1856
(dp1857
g54
(dp1858
g81
g82
ssg63
g1848
sg56
(lp1859
S':'
asbag49
(g70
g51
NtRp1860
(dp1861
g54
(dp1862
sg63
g1848
sg56
(lp1863
g49
(g50
g51
NtRp1864
(dp1865
g54
(dp1866
g62
I4
ssg63
g1860
sg56
(lp1867
g772
asbasbasbag49
(g65
g51
NtRp1868
(dp1869
g54
(dp1870
sg63
g1717
sg56
(lp1871
g49
(g70
g51
NtRp1872
(dp1873
g54
(dp1874
g74
g75
ssg63
g1868
sg56
(lp1875
g979
asbag49
(g70
g51
NtRp1876
(dp1877
g54
(dp1878
g81
g82
ssg63
g1868
sg56
(lp1879
S':'
asbag49
(g70
g51
NtRp1880
(dp1881
g54
(dp1882
sg63
g1868
sg56
(lp1883
g49
(g50
g51
NtRp1884
(dp1885
g54
(dp1886
g62
I4
ssg63
g1880
sg56
(lp1887
g92
asbasbasbag49
(g65
g51
NtRp1888
(dp1889
g54
(dp1890
sg63
g1717
sg56
(lp1891
g49
(g70
g51
NtRp1892
(dp1893
g54
(dp1894
g74
g75
ssg63
g1888
sg56
(lp1895
g1000
asbag49
(g70
g51
NtRp1896
(dp1897
g54
(dp1898
g81
g82
ssg63
g1888
sg56
(lp1899
S':'
asbag49
(g70
g51
NtRp1900
(dp1901
g54
(dp1902
sg63
g1888
sg56
(lp1903
g49
(g50
g51
NtRp1904
(dp1905
g54
(dp1906
g62
I4
ssg63
g1900
sg56
(lp1907
g92
asbasbasbag49
(g65
g51
NtRp1908
(dp1909
g54
(dp1910
sg63
g1717
sg56
(lp1911
g49
(g70
g51
NtRp1912
(dp1913
g54
(dp1914
g74
g75
ssg63
g1908
sg56
(lp1915
g1259
asbag49
(g70
g51
NtRp1916
(dp1917
g54
(dp1918
g81
g82
ssg63
g1908
sg56
(lp1919
S':'
asbag49
(g70
g51
NtRp1920
(dp1921
g54
(dp1922
sg63
g1908
sg56
(lp1923
g49
(g50
g51
NtRp1924
(dp1925
g54
(dp1926
g62
I4
ssg63
g1920
sg56
(lp1927
g1272
asbasbasbag49
(g65
g51
NtRp1928
(dp1929
g54
(dp1930
sg63
g1717
sg56
(lp1931
g49
(g70
g51
NtRp1932
(dp1933
g54
(dp1934
g74
g75
ssg63
g1928
sg56
(lp1935
g1324
asbag49
(g70
g51
NtRp1936
(dp1937
g54
(dp1938
g81
g82
ssg63
g1928
sg56
(lp1939
S':'
asbag49
(g70
g51
NtRp1940
(dp1941
g54
(dp1942
sg63
g1928
sg56
(lp1943
g49
(g50
g51
NtRp1944
(dp1945
g54
(dp1946
g62
I4
ssg63
g1940
sg56
(lp1947
g49
(g58
g51
NtRp1948
(dp1949
g54
(dp1950
g62
I3
ssg63
Nsg56
(lp1951
g49
(g65
g51
NtRp1952
(dp1953
g54
(dp1954
sg63
g1948
sg56
(lp1955
g49
(g70
g51
NtRp1956
(dp1957
g54
(dp1958
sg63
g1952
sg56
(lp1959
g49
(g50
g51
NtRp1960
(dp1961
g54
(dp1962
g62
I3
ssg63
g1956
sg56
(lp1963
S'1'
asbasbasbag49
(g65
g51
NtRp1964
(dp1965
g54
(dp1966
sg63
g1948
sg56
(lp1967
g49
(g70
g51
NtRp1968
(dp1969
g54
(dp1970
sg63
g1964
sg56
(lp1971
g49
(g50
g51
NtRp1972
(dp1973
g54
(dp1974
g62
I3
ssg63
g1968
sg56
(lp1975
S'99'
p1976
asbasbasbag49
(g65
g51
NtRp1977
(dp1978
g54
(dp1979
sg63
g1948
sg56
(lp1980
g49
(g70
g51
NtRp1981
(dp1982
g54
(dp1983
sg63
g1977
sg56
(lp1984
g49
(g50
g51
NtRp1985
(dp1986
g54
(dp1987
g62
I3
ssg63
g1981
sg56
(lp1988
S'7'
asbasbasbag49
(g65
g51
NtRp1989
(dp1990
g54
(dp1991
sg63
g1948
sg56
(lp1992
g49
(g70
g51
NtRp1993
(dp1994
g54
(dp1995
sg63
g1989
sg56
(lp1996
g49
(g50
g51
NtRp1997
(dp1998
g54
(dp1999
g62
I3
ssg63
g1993
sg56
(lp2000
S'datetime.datetime(2012, 3, 4, 22, 12, 8)'
p2001
asbasbasbag49
(g65
g51
NtRp2002
(dp2003
g54
(dp2004
sg63
g1948
sg56
(lp2005
g49
(g70
g51
NtRp2006
(dp2007
g54
(dp2008
sg63
g2002
sg56
(lp2009
g49
(g50
g51
NtRp2010
(dp2011
g54
(dp2012
g62
I3
ssg63
g2006
sg56
(lp2013
g1403
asbasbasbasbasbasbasbasbasbasbasbag49
(g65
g51
NtRp2014
(dp2015
g54
(dp2016
sg63
g59
sg56
(lp2017
g49
(g70
g51
NtRp2018
(dp2019
g54
(dp2020
g74
g75
ssg63
g2014
sg56
(lp2021
S'is_https'
p2022
asbag49
(g70
g51
NtRp2023
(dp2024
g54
(dp2025
g81
g82
ssg63
g2014
sg56
(lp2026
S':'
asbag49
(g70
g51
NtRp2027
(dp2028
g54
(dp2029
sg63
g2014
sg56
(lp2030
g49
(g50
g51
NtRp2031
(dp2032
g54
(dp2033
g62
I5
ssg63
g2027
sg56
(lp2034
g92
asbasbasbag49
(g65
g51
NtRp2035
(dp2036
g54
(dp2037
sg63
g59
sg56
(lp2038
g49
(g70
g51
NtRp2039
(dp2040
g54
(dp2041
g74
g75
ssg63
g2035
sg56
(lp2042
S'is_local'
p2043
asbag49
(g70
g51
NtRp2044
(dp2045
g54
(dp2046
g81
g82
ssg63
g2035
sg56
(lp2047
S':'
asbag49
(g70
g51
NtRp2048
(dp2049
g54
(dp2050
sg63
g2035
sg56
(lp2051
g49
(g50
g51
NtRp2052
(dp2053
g54
(dp2054
g62
I5
ssg63
g2048
sg56
(lp2055
g1512
asbasbasbag49
(g65
g51
NtRp2056
(dp2057
g54
(dp2058
sg63
g59
sg56
(lp2059
g49
(g70
g51
NtRp2060
(dp2061
g54
(dp2062
g74
g75
ssg63
g2056
sg56
(lp2063
S'is_restful'
p2064
asbag49
(g70
g51
NtRp2065
(dp2066
g54
(dp2067
g81
g82
ssg63
g2056
sg56
(lp2068
S':'
asbag49
(g70
g51
NtRp2069
(dp2070
g54
(dp2071
sg63
g2056
sg56
(lp2072
g49
(g50
g51
NtRp2073
(dp2074
g54
(dp2075
g62
I5
ssg63
g2069
sg56
(lp2076
g92
asbasbasbag49
(g65
g51
NtRp2077
(dp2078
g54
(dp2079
sg63
g59
sg56
(lp2080
g49
(g70
g51
NtRp2081
(dp2082
g54
(dp2083
g74
g75
ssg63
g2077
sg56
(lp2084
S'now'
p2085
asbag49
(g70
g51
NtRp2086
(dp2087
g54
(dp2088
g81
g82
ssg63
g2077
sg56
(lp2089
S':'
asbag49
(g70
g51
NtRp2090
(dp2091
g54
(dp2092
sg63
g2077
sg56
(lp2093
g49
(g50
g51
NtRp2094
(dp2095
g54
(dp2096
g62
I5
ssg63
g2090
sg56
(lp2097
S'datetime.datetime(2012, 3, 17, 23, 6, 5, 533967)'
p2098
asbasbasbag49
(g65
g51
NtRp2099
(dp2100
g54
(dp2101
sg63
g59
sg56
(lp2102
g49
(g70
g51
NtRp2103
(dp2104
g54
(dp2105
g74
g75
ssg63
g2099
sg56
(lp2106
S'post_vars'
p2107
asbag49
(g70
g51
NtRp2108
(dp2109
g54
(dp2110
g81
g82
ssg63
g2099
sg56
(lp2111
S':'
asbag49
(g70
g51
NtRp2112
(dp2113
g54
(dp2114
sg63
g2099
sg56
(lp2115
g49
(g50
g51
NtRp2116
(dp2117
g54
(dp2118
g62
I5
ssg63
g2112
sg56
(lp2119
g49
(g58
g51
NtRp2120
(dp2121
g54
(dp2122
g62
I4
ssg63
Nsg56
(lp2123
sbasbasbasbag49
(g65
g51
NtRp2124
(dp2125
g54
(dp2126
sg63
g59
sg56
(lp2127
g49
(g70
g51
NtRp2128
(dp2129
g54
(dp2130
g74
g75
ssg63
g2124
sg56
(lp2131
S'raw_args'
p2132
asbag49
(g70
g51
NtRp2133
(dp2134
g54
(dp2135
g81
g82
ssg63
g2124
sg56
(lp2136
S':'
asbag49
(g70
g51
NtRp2137
(dp2138
g54
(dp2139
sg63
g2124
sg56
(lp2140
g49
(g50
g51
NtRp2141
(dp2142
g54
(dp2143
g62
I5
ssg63
g2137
sg56
(lp2144
S'1/xxx'
p2145
asbasbasbag49
(g65
g51
NtRp2146
(dp2147
g54
(dp2148
sg63
g59
sg56
(lp2149
g49
(g70
g51
NtRp2150
(dp2151
g54
(dp2152
g74
g75
ssg63
g2146
sg56
(lp2153
S'url'
p2154
asbag49
(g70
g51
NtRp2155
(dp2156
g54
(dp2157
g81
g82
ssg63
g2146
sg56
(lp2158
S':'
asbag49
(g70
g51
NtRp2159
(dp2160
g54
(dp2161
sg63
g2146
sg56
(lp2162
g49
(g50
g51
NtRp2163
(dp2164
g54
(dp2165
g62
I5
ssg63
g2159
sg56
(lp2166
S'/udi0312/users/user/1/xxx'
p2167
asbasbasbag49
(g65
g51
NtRp2168
(dp2169
g54
(dp2170
sg63
g59
sg56
(lp2171
g49
(g70
g51
NtRp2172
(dp2173
g54
(dp2174
g74
g75
ssg63
g2168
sg56
(lp2175
S'utcnow'
p2176
asbag49
(g70
g51
NtRp2177
(dp2178
g54
(dp2179
g81
g82
ssg63
g2168
sg56
(lp2180
S':'
asbag49
(g70
g51
NtRp2181
(dp2182
g54
(dp2183
sg63
g2168
sg56
(lp2184
g49
(g50
g51
NtRp2185
(dp2186
g54
(dp2187
g62
I5
ssg63
g2181
sg56
(lp2188
S'datetime.datetime(2012, 3, 18, 3, 6, 5, 533981)'
p2189
asbasbasbag49
(g65
g51
NtRp2190
(dp2191
g54
(dp2192
sg63
g59
sg56
(lp2193
g49
(g70
g51
NtRp2194
(dp2195
g54
(dp2196
g74
g75
ssg63
g2190
sg56
(lp2197
S'uuid'
p2198
asbag49
(g70
g51
NtRp2199
(dp2200
g54
(dp2201
g81
g82
ssg63
g2190
sg56
(lp2202
S':'
asbag49
(g70
g51
NtRp2203
(dp2204
g54
(dp2205
sg63
g2190
sg56
(lp2206
g49
(g50
g51
NtRp2207
(dp2208
g54
(dp2209
g62
I5
ssg63
g2203
sg56
(lp2210
S'udi0312/127.0.0.1.2012-03-17.23-06-05.ed8fcc3a-2fd2-4b97-9c52-3f39c1d5f8e3'
p2211
asbasbasbag49
(g65
g51
NtRp2212
(dp2213
g54
(dp2214
sg63
g59
sg56
(lp2215
g49
(g70
g51
NtRp2216
(dp2217
g54
(dp2218
g74
g75
ssg63
g2212
sg56
(lp2219
S'vars'
p2220
asbag49
(g70
g51
NtRp2221
(dp2222
g54
(dp2223
g81
g82
ssg63
g2212
sg56
(lp2224
S':'
asbag49
(g70
g51
NtRp2225
(dp2226
g54
(dp2227
sg63
g2212
sg56
(lp2228
g49
(g50
g51
NtRp2229
(dp2230
g54
(dp2231
g62
I5
ssg63
g2225
sg56
(lp2232
g49
(g58
g51
NtRp2233
(dp2234
g54
(dp2235
g62
I4
ssg63
Nsg56
(lp2236
sbasbasbasbag49
(g65
g51
NtRp2237
(dp2238
g54
(dp2239
sg63
g59
sg56
(lp2240
g49
(g70
g51
NtRp2241
(dp2242
g54
(dp2243
g74
g75
ssg63
g2237
sg56
(lp2244
S'wsgi'
p2245
asbag49
(g70
g51
NtRp2246
(dp2247
g54
(dp2248
g81
g82
ssg63
g2237
sg56
(lp2249
S':'
asbag49
(g70
g51
NtRp2250
(dp2251
g54
(dp2252
sg63
g2237
sg56
(lp2253
g49
(g50
g51
NtRp2254
(dp2255
g54
(dp2256
g62
I5
ssg63
g2250
sg56
(lp2257
g49
(g58
g51
NtRp2258
(dp2259
g54
(dp2260
g62
I4
ssg63
Nsg56
(lp2261
g49
(g65
g51
NtRp2262
(dp2263
g54
(dp2264
sg63
g2258
sg56
(lp2265
g49
(g70
g51
NtRp2266
(dp2267
g54
(dp2268
g74
g75
ssg63
g2262
sg56
(lp2269
S'environ'
p2270
asbag49
(g70
g51
NtRp2271
(dp2272
g54
(dp2273
g81
g82
ssg63
g2262
sg56
(lp2274
S':'
asbag49
(g70
g51
NtRp2275
(dp2276
g54
(dp2277
sg63
g2262
sg56
(lp2278
g49
(g50
g51
NtRp2279
(dp2280
g54
(dp2281
g62
I4
ssg63
g2275
sg56
(lp2282
g49
(g58
g51
NtRp2283
(dp2284
g54
(dp2285
g62
I3
ssg63
Nsg56
(lp2286
g49
(g65
g51
NtRp2287
(dp2288
g54
(dp2289
sg63
g2283
sg56
(lp2290
g49
(g70
g51
NtRp2291
(dp2292
g54
(dp2293
g74
g75
ssg63
g2287
sg56
(lp2294
S'HTTP_ACCEPT'
p2295
asbag49
(g70
g51
NtRp2296
(dp2297
g54
(dp2298
g81
g82
ssg63
g2287
sg56
(lp2299
S':'
asbag49
(g70
g51
NtRp2300
(dp2301
g54
(dp2302
sg63
g2287
sg56
(lp2303
g49
(g50
g51
NtRp2304
(dp2305
g54
(dp2306
g62
I3
ssg63
g2300
sg56
(lp2307
g794
asbasbasbag49
(g65
g51
NtRp2308
(dp2309
g54
(dp2310
sg63
g2283
sg56
(lp2311
g49
(g70
g51
NtRp2312
(dp2313
g54
(dp2314
g74
g75
ssg63
g2308
sg56
(lp2315
S'HTTP_ACCEPT_CHARSET'
p2316
asbag49
(g70
g51
NtRp2317
(dp2318
g54
(dp2319
g81
g82
ssg63
g2308
sg56
(lp2320
S':'
asbag49
(g70
g51
NtRp2321
(dp2322
g54
(dp2323
sg63
g2308
sg56
(lp2324
g49
(g50
g51
NtRp2325
(dp2326
g54
(dp2327
g62
I3
ssg63
g2321
sg56
(lp2328
g816
asbasbasbag49
(g65
g51
NtRp2329
(dp2330
g54
(dp2331
sg63
g2283
sg56
(lp2332
g49
(g70
g51
NtRp2333
(dp2334
g54
(dp2335
g74
g75
ssg63
g2329
sg56
(lp2336
S'HTTP_ACCEPT_ENCODING'
p2337
asbag49
(g70
g51
NtRp2338
(dp2339
g54
(dp2340
g81
g82
ssg63
g2329
sg56
(lp2341
S':'
asbag49
(g70
g51
NtRp2342
(dp2343
g54
(dp2344
sg63
g2329
sg56
(lp2345
g49
(g50
g51
NtRp2346
(dp2347
g54
(dp2348
g62
I3
ssg63
g2342
sg56
(lp2349
g838
asbasbasbag49
(g65
g51
NtRp2350
(dp2351
g54
(dp2352
sg63
g2283
sg56
(lp2353
g49
(g70
g51
NtRp2354
(dp2355
g54
(dp2356
g74
g75
ssg63
g2350
sg56
(lp2357
S'HTTP_ACCEPT_LANGUAGE'
p2358
asbag49
(g70
g51
NtRp2359
(dp2360
g54
(dp2361
g81
g82
ssg63
g2350
sg56
(lp2362
S':'
asbag49
(g70
g51
NtRp2363
(dp2364
g54
(dp2365
sg63
g2350
sg56
(lp2366
g49
(g50
g51
NtRp2367
(dp2368
g54
(dp2369
g62
I3
ssg63
g2363
sg56
(lp2370
g860
asbasbasbag49
(g65
g51
NtRp2371
(dp2372
g54
(dp2373
sg63
g2283
sg56
(lp2374
g49
(g70
g51
NtRp2375
(dp2376
g54
(dp2377
g74
g75
ssg63
g2371
sg56
(lp2378
S'HTTP_CACHE_CONTROL'
p2379
asbag49
(g70
g51
NtRp2380
(dp2381
g54
(dp2382
g81
g82
ssg63
g2371
sg56
(lp2383
S':'
asbag49
(g70
g51
NtRp2384
(dp2385
g54
(dp2386
sg63
g2371
sg56
(lp2387
g49
(g50
g51
NtRp2388
(dp2389
g54
(dp2390
g62
I3
ssg63
g2384
sg56
(lp2391
g882
asbasbasbag49
(g65
g51
NtRp2392
(dp2393
g54
(dp2394
sg63
g2283
sg56
(lp2395
g49
(g70
g51
NtRp2396
(dp2397
g54
(dp2398
g74
g75
ssg63
g2392
sg56
(lp2399
S'HTTP_CONNECTION'
p2400
asbag49
(g70
g51
NtRp2401
(dp2402
g54
(dp2403
g81
g82
ssg63
g2392
sg56
(lp2404
S':'
asbag49
(g70
g51
NtRp2405
(dp2406
g54
(dp2407
sg63
g2392
sg56
(lp2408
g49
(g50
g51
NtRp2409
(dp2410
g54
(dp2411
g62
I3
ssg63
g2405
sg56
(lp2412
g904
asbasbasbag49
(g65
g51
NtRp2413
(dp2414
g54
(dp2415
sg63
g2283
sg56
(lp2416
g49
(g70
g51
NtRp2417
(dp2418
g54
(dp2419
g74
g75
ssg63
g2413
sg56
(lp2420
S'HTTP_COOKIE'
p2421
asbag49
(g70
g51
NtRp2422
(dp2423
g54
(dp2424
g81
g82
ssg63
g2413
sg56
(lp2425
S':'
asbag49
(g70
g51
NtRp2426
(dp2427
g54
(dp2428
sg63
g2413
sg56
(lp2429
g49
(g50
g51
NtRp2430
(dp2431
g54
(dp2432
g62
I3
ssg63
g2426
sg56
(lp2433
g926
asbasbasbag49
(g65
g51
NtRp2434
(dp2435
g54
(dp2436
sg63
g2283
sg56
(lp2437
g49
(g70
g51
NtRp2438
(dp2439
g54
(dp2440
g74
g75
ssg63
g2434
sg56
(lp2441
S'HTTP_HOST'
p2442
asbag49
(g70
g51
NtRp2443
(dp2444
g54
(dp2445
g81
g82
ssg63
g2434
sg56
(lp2446
S':'
asbag49
(g70
g51
NtRp2447
(dp2448
g54
(dp2449
sg63
g2434
sg56
(lp2450
g49
(g50
g51
NtRp2451
(dp2452
g54
(dp2453
g62
I3
ssg63
g2447
sg56
(lp2454
g948
asbasbasbag49
(g65
g51
NtRp2455
(dp2456
g54
(dp2457
sg63
g2283
sg56
(lp2458
g49
(g70
g51
NtRp2459
(dp2460
g54
(dp2461
g74
g75
ssg63
g2455
sg56
(lp2462
S'HTTP_USER_AGENT'
p2463
asbag49
(g70
g51
NtRp2464
(dp2465
g54
(dp2466
g81
g82
ssg63
g2455
sg56
(lp2467
S':'
asbag49
(g70
g51
NtRp2468
(dp2469
g54
(dp2470
sg63
g2455
sg56
(lp2471
g49
(g50
g51
NtRp2472
(dp2473
g54
(dp2474
g62
I3
ssg63
g2468
sg56
(lp2475
g970
asbasbasbag49
(g65
g51
NtRp2476
(dp2477
g54
(dp2478
sg63
g2283
sg56
(lp2479
g49
(g70
g51
NtRp2480
(dp2481
g54
(dp2482
g74
g75
ssg63
g2476
sg56
(lp2483
S'PATH_INFO'
p2484
asbag49
(g70
g51
NtRp2485
(dp2486
g54
(dp2487
g81
g82
ssg63
g2476
sg56
(lp2488
S':'
asbag49
(g70
g51
NtRp2489
(dp2490
g54
(dp2491
sg63
g2476
sg56
(lp2492
g49
(g50
g51
NtRp2493
(dp2494
g54
(dp2495
g62
I3
ssg63
g2489
sg56
(lp2496
g1034
asbasbasbag49
(g65
g51
NtRp2497
(dp2498
g54
(dp2499
sg63
g2283
sg56
(lp2500
g49
(g70
g51
NtRp2501
(dp2502
g54
(dp2503
g74
g75
ssg63
g2497
sg56
(lp2504
S'QUERY_STRING'
p2505
asbag49
(g70
g51
NtRp2506
(dp2507
g54
(dp2508
g81
g82
ssg63
g2497
sg56
(lp2509
S':'
asbag49
(g70
g51
NtRp2510
(dp2511
g54
(dp2512
sg63
g2497
sg56
(lp2513
g49
(g50
g51
NtRp2514
(dp2515
g54
(dp2516
g62
I3
ssg63
g2510
sg56
(lp2517
S''
asbasbasbag49
(g65
g51
NtRp2518
(dp2519
g54
(dp2520
sg63
g2283
sg56
(lp2521
g49
(g70
g51
NtRp2522
(dp2523
g54
(dp2524
g74
g75
ssg63
g2518
sg56
(lp2525
S'REMOTE_ADDR'
p2526
asbag49
(g70
g51
NtRp2527
(dp2528
g54
(dp2529
g81
g82
ssg63
g2518
sg56
(lp2530
S':'
asbag49
(g70
g51
NtRp2531
(dp2532
g54
(dp2533
sg63
g2518
sg56
(lp2534
g49
(g50
g51
NtRp2535
(dp2536
g54
(dp2537
g62
I3
ssg63
g2531
sg56
(lp2538
g207
asbasbasbag49
(g65
g51
NtRp2539
(dp2540
g54
(dp2541
sg63
g2283
sg56
(lp2542
g49
(g70
g51
NtRp2543
(dp2544
g54
(dp2545
g74
g75
ssg63
g2539
sg56
(lp2546
S'REMOTE_PORT'
p2547
asbag49
(g70
g51
NtRp2548
(dp2549
g54
(dp2550
g81
g82
ssg63
g2539
sg56
(lp2551
S':'
asbag49
(g70
g51
NtRp2552
(dp2553
g54
(dp2554
sg63
g2539
sg56
(lp2555
g49
(g50
g51
NtRp2556
(dp2557
g54
(dp2558
g62
I3
ssg63
g2552
sg56
(lp2559
g1098
asbasbasbag49
(g65
g51
NtRp2560
(dp2561
g54
(dp2562
sg63
g2283
sg56
(lp2563
g49
(g70
g51
NtRp2564
(dp2565
g54
(dp2566
g74
g75
ssg63
g2560
sg56
(lp2567
S'REQUEST_METHOD'
p2568
asbag49
(g70
g51
NtRp2569
(dp2570
g54
(dp2571
g81
g82
ssg63
g2560
sg56
(lp2572
S':'
asbag49
(g70
g51
NtRp2573
(dp2574
g54
(dp2575
sg63
g2560
sg56
(lp2576
g49
(g50
g51
NtRp2577
(dp2578
g54
(dp2579
g62
I3
ssg63
g2573
sg56
(lp2580
g1120
asbasbasbag49
(g65
g51
NtRp2581
(dp2582
g54
(dp2583
sg63
g2283
sg56
(lp2584
g49
(g70
g51
NtRp2585
(dp2586
g54
(dp2587
g74
g75
ssg63
g2581
sg56
(lp2588
S'REQUEST_URI'
p2589
asbag49
(g70
g51
NtRp2590
(dp2591
g54
(dp2592
g81
g82
ssg63
g2581
sg56
(lp2593
S':'
asbag49
(g70
g51
NtRp2594
(dp2595
g54
(dp2596
sg63
g2581
sg56
(lp2597
g49
(g50
g51
NtRp2598
(dp2599
g54
(dp2600
g62
I3
ssg63
g2594
sg56
(lp2601
g1034
asbasbasbag49
(g65
g51
NtRp2602
(dp2603
g54
(dp2604
sg63
g2283
sg56
(lp2605
g49
(g70
g51
NtRp2606
(dp2607
g54
(dp2608
g74
g75
ssg63
g2602
sg56
(lp2609
S'SCRIPT_NAME'
p2610
asbag49
(g70
g51
NtRp2611
(dp2612
g54
(dp2613
g81
g82
ssg63
g2602
sg56
(lp2614
S':'
asbag49
(g70
g51
NtRp2615
(dp2616
g54
(dp2617
sg63
g2602
sg56
(lp2618
g49
(g50
g51
NtRp2619
(dp2620
g54
(dp2621
g62
I3
ssg63
g2615
sg56
(lp2622
S''
asbasbasbag49
(g65
g51
NtRp2623
(dp2624
g54
(dp2625
sg63
g2283
sg56
(lp2626
g49
(g70
g51
NtRp2627
(dp2628
g54
(dp2629
g74
g75
ssg63
g2623
sg56
(lp2630
S'SERVER_NAME'
p2631
asbag49
(g70
g51
NtRp2632
(dp2633
g54
(dp2634
g81
g82
ssg63
g2623
sg56
(lp2635
S':'
asbag49
(g70
g51
NtRp2636
(dp2637
g54
(dp2638
sg63
g2623
sg56
(lp2639
g49
(g50
g51
NtRp2640
(dp2641
g54
(dp2642
g62
I3
ssg63
g2636
sg56
(lp2643
g1184
asbasbasbag49
(g65
g51
NtRp2644
(dp2645
g54
(dp2646
sg63
g2283
sg56
(lp2647
g49
(g70
g51
NtRp2648
(dp2649
g54
(dp2650
g74
g75
ssg63
g2644
sg56
(lp2651
S'SERVER_PORT'
p2652
asbag49
(g70
g51
NtRp2653
(dp2654
g54
(dp2655
g81
g82
ssg63
g2644
sg56
(lp2656
S':'
asbag49
(g70
g51
NtRp2657
(dp2658
g54
(dp2659
sg63
g2644
sg56
(lp2660
g49
(g50
g51
NtRp2661
(dp2662
g54
(dp2663
g62
I3
ssg63
g2657
sg56
(lp2664
g1206
asbasbasbag49
(g65
g51
NtRp2665
(dp2666
g54
(dp2667
sg63
g2283
sg56
(lp2668
g49
(g70
g51
NtRp2669
(dp2670
g54
(dp2671
g74
g75
ssg63
g2665
sg56
(lp2672
S'SERVER_PROTOCOL'
p2673
asbag49
(g70
g51
NtRp2674
(dp2675
g54
(dp2676
g81
g82
ssg63
g2665
sg56
(lp2677
S':'
asbag49
(g70
g51
NtRp2678
(dp2679
g54
(dp2680
sg63
g2665
sg56
(lp2681
g49
(g50
g51
NtRp2682
(dp2683
g54
(dp2684
g62
I3
ssg63
g2678
sg56
(lp2685
g1228
asbasbasbag49
(g65
g51
NtRp2686
(dp2687
g54
(dp2688
sg63
g2283
sg56
(lp2689
g49
(g70
g51
NtRp2690
(dp2691
g54
(dp2692
g74
g75
ssg63
g2686
sg56
(lp2693
S'SERVER_SOFTWARE'
p2694
asbag49
(g70
g51
NtRp2695
(dp2696
g54
(dp2697
g81
g82
ssg63
g2686
sg56
(lp2698
S':'
asbag49
(g70
g51
NtRp2699
(dp2700
g54
(dp2701
sg63
g2686
sg56
(lp2702
g49
(g50
g51
NtRp2703
(dp2704
g54
(dp2705
g62
I3
ssg63
g2699
sg56
(lp2706
g1250
asbasbasbag49
(g65
g51
NtRp2707
(dp2708
g54
(dp2709
sg63
g2283
sg56
(lp2710
g49
(g70
g51
NtRp2711
(dp2712
g54
(dp2713
g74
g75
ssg63
g2707
sg56
(lp2714
S'WEB2PY_ORIGINAL_URI'
p2715
asbag49
(g70
g51
NtRp2716
(dp2717
g54
(dp2718
g81
g82
ssg63
g2707
sg56
(lp2719
S':'
asbag49
(g70
g51
NtRp2720
(dp2721
g54
(dp2722
sg63
g2707
sg56
(lp2723
g49
(g50
g51
NtRp2724
(dp2725
g54
(dp2726
g62
I3
ssg63
g2720
sg56
(lp2727
g1294
asbasbasbag49
(g65
g51
NtRp2728
(dp2729
g54
(dp2730
sg63
g2283
sg56
(lp2731
g49
(g70
g51
NtRp2732
(dp2733
g54
(dp2734
g74
g75
ssg63
g2728
sg56
(lp2735
S'wsgi.errors'
p2736
asbag49
(g70
g51
NtRp2737
(dp2738
g54
(dp2739
g81
g82
ssg63
g2728
sg56
(lp2740
S':'
asbag49
(g70
g51
NtRp2741
(dp2742
g54
(dp2743
sg63
g2728
sg56
(lp2744
g49
(g50
g51
NtRp2745
(dp2746
g54
(dp2747
g62
I3
ssg63
g2741
sg56
(lp2748
S"<open file '<stderr>', mode 'w' at 0x4220b0>"
p2749
asbasbasbag49
(g65
g51
NtRp2750
(dp2751
g54
(dp2752
sg63
g2283
sg56
(lp2753
g49
(g70
g51
NtRp2754
(dp2755
g54
(dp2756
g74
g75
ssg63
g2750
sg56
(lp2757
S'wsgi.file_wrapper'
p2758
asbag49
(g70
g51
NtRp2759
(dp2760
g54
(dp2761
g81
g82
ssg63
g2750
sg56
(lp2762
S':'
asbag49
(g70
g51
NtRp2763
(dp2764
g54
(dp2765
sg63
g2750
sg56
(lp2766
g49
(g50
g51
NtRp2767
(dp2768
g54
(dp2769
g62
I3
ssg63
g2763
sg56
(lp2770
S'<class wsgiref.util.FileWrapper at 0x245e6c0>'
p2771
asbasbasbag49
(g65
g51
NtRp2772
(dp2773
g54
(dp2774
sg63
g2283
sg56
(lp2775
g49
(g70
g51
NtRp2776
(dp2777
g54
(dp2778
g74
g75
ssg63
g2772
sg56
(lp2779
S'wsgi.input'
p2780
asbag49
(g70
g51
NtRp2781
(dp2782
g54
(dp2783
g81
g82
ssg63
g2772
sg56
(lp2784
S':'
asbag49
(g70
g51
NtRp2785
(dp2786
g54
(dp2787
sg63
g2772
sg56
(lp2788
g49
(g50
g51
NtRp2789
(dp2790
g54
(dp2791
g62
I3
ssg63
g2785
sg56
(lp2792
S'<cStringIO.StringO object at 0xa4d0480>'
p2793
asbasbasbag49
(g65
g51
NtRp2794
(dp2795
g54
(dp2796
sg63
g2283
sg56
(lp2797
g49
(g70
g51
NtRp2798
(dp2799
g54
(dp2800
g74
g75
ssg63
g2794
sg56
(lp2801
S'wsgi.multiprocess'
p2802
asbag49
(g70
g51
NtRp2803
(dp2804
g54
(dp2805
g81
g82
ssg63
g2794
sg56
(lp2806
S':'
asbag49
(g70
g51
NtRp2807
(dp2808
g54
(dp2809
sg63
g2794
sg56
(lp2810
g49
(g50
g51
NtRp2811
(dp2812
g54
(dp2813
g62
I3
ssg63
g2807
sg56
(lp2814
g92
asbasbasbag49
(g65
g51
NtRp2815
(dp2816
g54
(dp2817
sg63
g2283
sg56
(lp2818
g49
(g70
g51
NtRp2819
(dp2820
g54
(dp2821
g74
g75
ssg63
g2815
sg56
(lp2822
S'wsgi.multithread'
p2823
asbag49
(g70
g51
NtRp2824
(dp2825
g54
(dp2826
g81
g82
ssg63
g2815
sg56
(lp2827
S':'
asbag49
(g70
g51
NtRp2828
(dp2829
g54
(dp2830
sg63
g2815
sg56
(lp2831
g49
(g50
g51
NtRp2832
(dp2833
g54
(dp2834
g62
I3
ssg63
g2828
sg56
(lp2835
g1512
asbasbasbag49
(g65
g51
NtRp2836
(dp2837
g54
(dp2838
sg63
g2283
sg56
(lp2839
g49
(g70
g51
NtRp2840
(dp2841
g54
(dp2842
g74
g75
ssg63
g2836
sg56
(lp2843
S'wsgi.run_once'
p2844
asbag49
(g70
g51
NtRp2845
(dp2846
g54
(dp2847
g81
g82
ssg63
g2836
sg56
(lp2848
S':'
asbag49
(g70
g51
NtRp2849
(dp2850
g54
(dp2851
sg63
g2836
sg56
(lp2852
g49
(g50
g51
NtRp2853
(dp2854
g54
(dp2855
g62
I3
ssg63
g2849
sg56
(lp2856
g92
asbasbasbag49
(g65
g51
NtRp2857
(dp2858
g54
(dp2859
sg63
g2283
sg56
(lp2860
g49
(g70
g51
NtRp2861
(dp2862
g54
(dp2863
g74
g75
ssg63
g2857
sg56
(lp2864
S'wsgi.url_scheme'
p2865
asbag49
(g70
g51
NtRp2866
(dp2867
g54
(dp2868
g81
g82
ssg63
g2857
sg56
(lp2869
S':'
asbag49
(g70
g51
NtRp2870
(dp2871
g54
(dp2872
sg63
g2857
sg56
(lp2873
g49
(g50
g51
NtRp2874
(dp2875
g54
(dp2876
g62
I3
ssg63
g2870
sg56
(lp2877
g1555
asbasbasbag49
(g65
g51
NtRp2878
(dp2879
g54
(dp2880
sg63
g2283
sg56
(lp2881
g49
(g70
g51
NtRp2882
(dp2883
g54
(dp2884
g74
g75
ssg63
g2878
sg56
(lp2885
S'wsgi.version'
p2886
asbag49
(g70
g51
NtRp2887
(dp2888
g54
(dp2889
g81
g82
ssg63
g2878
sg56
(lp2890
S':'
asbag49
(g70
g51
NtRp2891
(dp2892
g54
(dp2893
sg63
g2878
sg56
(lp2894
g49
(g50
g51
NtRp2895
(dp2896
g54
(dp2897
g62
I3
ssg63
g2891
sg56
(lp2898
S'1'
asbasbasbasbasbasbasbasbasbasbasbasbasbsS'frames'
p2899
(lp2900
(dp2901
S'file'
p2902
S'/users/udimilo/Documents/web2py/gluon/restricted.py'
p2903
sS'dump'
p2904
(dp2905
S'environment'
p2906
S"{'A': <class 'gluon.html.A'>, 'Auth': <class 'gluon.tools.Auth'>, 'B': <class 'gluon.html.B'>, 'BEAUTIFY': <class 'gluon.html.BEAUTIFY'>, 'BODY': <class 'gluon.html.BODY'>, 'BR': <class 'gluon.html.BR'>, 'BUTTON': <class 'gluon.html.BUTTON'>, 'CAT': <class 'gluon.html.CAT'>, 'CENTER': <class 'gluon.html.CENTER'>, 'CLEANUP': <class 'gluon.validators.CLEANUP'>, ...}"
p2907
sS'ccode'
p2908
S'<code object <module> at 0x9610d58, file "/Users...plications/udi0312/controllers/users.py", line 1>'
p2909
ssS'lnum'
p2910
I205
sS'lines'
p2911
(dp2912
I200
S'    try:'
p2913
sI201
S'        if type(code) == types.CodeType:'
p2914
sI202
S'            ccode = code'
p2915
sI203
S'        else:'
p2916
sI204
S'            ccode = compile2(code,layer)'
p2917
sI205
S'        exec ccode in environment'
p2918
sI206
S'    except HTTP:'
p2919
sI207
S'        raise'
p2920
sI208
S'    except RestrictedError:'
p2921
sI209
S'        # do not encapsulate (obfuscate) the original RestrictedError'
p2922
ssS'call'
p2923
S"(code='import boards\\n\\ndef index():        \\n    return d...ser=user)\\n\\nresponse._vars=response._caller(user)\\n', environment={'A': <class 'gluon.html.A'>, 'Auth': <class 'gluon.tools.Auth'>, 'B': <class 'gluon.html.B'>, 'BEAUTIFY': <class 'gluon.html.BEAUTIFY'>, 'BODY': <class 'gluon.html.BODY'>, 'BR': <class 'gluon.html.BR'>, 'BUTTON': <class 'gluon.html.BUTTON'>, 'CAT': <class 'gluon.html.CAT'>, 'CENTER': <class 'gluon.html.CENTER'>, 'CLEANUP': <class 'gluon.validators.CLEANUP'>, ...}, layer='/Users/udimilo/Documents/web2py/applications/udi0312/controllers/users.py')"
p2924
sS'func'
p2925
S'restricted'
p2926
sa(dp2927
g2902
S'/Users/udimilo/Documents/web2py/applications/udi0312/controllers/users.py'
p2928
sg2904
(dp2929
S'boards'
p2930
S'undefined'
p2931
ssg2910
I1
sg2911
(dp2932
I2
S''
sI3
S'def index():'
p2933
sI4
S'    return dict()'
p2934
sI5
S''
sI6
S'def user():'
p2935
sI7
S'    user_id = request.args(0)'
p2936
sI8
S"    user = db.auth_user(user_id) or redirect(URL('index'))"
p2937
sI9
S''
sI10
S'    if request.args(1):'
p2938
sI11
S'        action = request.args(1).lower()'
p2939
ssg2923
S'()'
p2940
sg2925
S'<module>'
p2941
sa(dp2942
g2902
S'/users/udimilo/Documents/web2py/gluon/custom_import.py'
p2943
sg2904
(dp2944
S'fromlist'
p2945
S'[]'
p2946
sS'level'
p2947
S'-1'
p2948
ssg2910
I293
sg2911
(dp2949
I288
S'                            .__call__(modules_prefix+"."+name,'
p2950
sI289
S'                                    globals, locals, fromlist, level)'
p2951
sI290
S'                except ImportError:'
p2952
sI291
S'                    pass'
p2953
sI292
S'        return super(_Web2pyImporter, self).__call__(name, globals, locals,'
p2954
sI293
S'                                                    fromlist, level)'
p2955
sI294
S'        #except Exception, e:'
p2956
sI295
S"        #    raise e  # Don't hide something that went wrong"
p2957
sI296
S'        #finally:'
p2958
sI297
S'        self.end()'
p2959
ssg2923
S"(self=<gluon.custom_import._Web2pyImporter object at 0x240cd70>, name='boards', globals={'A': <class 'gluon.html.A'>, 'Auth': <class 'gluon.tools.Auth'>, 'B': <class 'gluon.html.B'>, 'BEAUTIFY': <class 'gluon.html.BEAUTIFY'>, 'BODY': <class 'gluon.html.BODY'>, 'BR': <class 'gluon.html.BR'>, 'BUTTON': <class 'gluon.html.BUTTON'>, 'CAT': <class 'gluon.html.CAT'>, 'CENTER': <class 'gluon.html.CENTER'>, 'CLEANUP': <class 'gluon.validators.CLEANUP'>, ...}, locals={'A': <class 'gluon.html.A'>, 'Auth': <class 'gluon.tools.Auth'>, 'B': <class 'gluon.html.B'>, 'BEAUTIFY': <class 'gluon.html.BEAUTIFY'>, 'BODY': <class 'gluon.html.BODY'>, 'BR': <class 'gluon.html.BR'>, 'BUTTON': <class 'gluon.html.BUTTON'>, 'CAT': <class 'gluon.html.CAT'>, 'CENTER': <class 'gluon.html.CENTER'>, 'CLEANUP': <class 'gluon.validators.CLEANUP'>, ...}, fromlist=[], level=-1)"
p2960
sg2925
S'__call__'
p2961
sa(dp2962
g2902
S'/users/udimilo/Documents/web2py/gluon/custom_import.py'
p2963
sg2904
(dp2964
S'level'
p2965
S'-1'
p2966
ssg2910
I78
sg2911
(dp2967
I73
S'        """'
p2968
sI74
S'        return _STANDARD_PYTHON_IMPORTER(name,'
p2969
sI75
S'                                         globals,'
p2970
sI76
S'                                         locals,'
p2971
sI77
S'                                         fromlist,'
p2972
sI78
S'                                         level)'
p2973
sI79
S''
sI80
S'    def end(self):'
p2974
sI81
S'        """'
p2975
sI82
S'        Needed for clean up.'
p2976
ssg2923
S"(self=<gluon.custom_import._Web2pyImporter object at 0x240cd70>, name='boards', globals={'A': <class 'gluon.html.A'>, 'Auth': <class 'gluon.tools.Auth'>, 'B': <class 'gluon.html.B'>, 'BEAUTIFY': <class 'gluon.html.BEAUTIFY'>, 'BODY': <class 'gluon.html.BODY'>, 'BR': <class 'gluon.html.BR'>, 'BUTTON': <class 'gluon.html.BUTTON'>, 'CAT': <class 'gluon.html.CAT'>, 'CENTER': <class 'gluon.html.CENTER'>, 'CLEANUP': <class 'gluon.validators.CLEANUP'>, ...}, locals={'A': <class 'gluon.html.A'>, 'Auth': <class 'gluon.tools.Auth'>, 'B': <class 'gluon.html.B'>, 'BEAUTIFY': <class 'gluon.html.BEAUTIFY'>, 'BODY': <class 'gluon.html.BODY'>, 'BR': <class 'gluon.html.BR'>, 'BUTTON': <class 'gluon.html.BUTTON'>, 'CAT': <class 'gluon.html.CAT'>, 'CENTER': <class 'gluon.html.CENTER'>, 'CLEANUP': <class 'gluon.validators.CLEANUP'>, ...}, fromlist=[], level=-1)"
p2977
sg2925
g2961
sasS'pyver'
p2978
S'Python 2.5.4: /Library/Frameworks/Python.framework/Versions/2.5/Resources/Python.app/Contents/MacOS/Python'
p2979
sS'session'
p2980
g49
(g50
g51
NtRp2981
(dp2982
g54
(dp2983
sg56
(lp2984
g49
(g58
g51
NtRp2985
(dp2986
g54
(dp2987
g62
I5
ssg63
Nsg56
(lp2988
g49
(g65
g51
NtRp2989
(dp2990
g54
(dp2991
sg63
g2985
sg56
(lp2992
g49
(g70
g51
NtRp2993
(dp2994
g54
(dp2995
g74
g75
ssg63
g2989
sg56
(lp2996
S'auth'
p2997
asbag49
(g70
g51
NtRp2998
(dp2999
g54
(dp3000
g81
g82
ssg63
g2989
sg56
(lp3001
S':'
asbag49
(g70
g51
NtRp3002
(dp3003
g54
(dp3004
sg63
g2989
sg56
(lp3005
g49
(g50
g51
NtRp3006
(dp3007
g54
(dp3008
g62
I5
ssg63
g3002
sg56
(lp3009
g49
(g58
g51
NtRp3010
(dp3011
g54
(dp3012
g62
I4
ssg63
Nsg56
(lp3013
g49
(g65
g51
NtRp3014
(dp3015
g54
(dp3016
sg63
g3010
sg56
(lp3017
g49
(g70
g51
NtRp3018
(dp3019
g54
(dp3020
g74
g75
ssg63
g3014
sg56
(lp3021
S'expiration'
p3022
asbag49
(g70
g51
NtRp3023
(dp3024
g54
(dp3025
g81
g82
ssg63
g3014
sg56
(lp3026
S':'
asbag49
(g70
g51
NtRp3027
(dp3028
g54
(dp3029
sg63
g3014
sg56
(lp3030
g49
(g50
g51
NtRp3031
(dp3032
g54
(dp3033
g62
I4
ssg63
g3027
sg56
(lp3034
S'2592000'
p3035
asbasbasbag49
(g65
g51
NtRp3036
(dp3037
g54
(dp3038
sg63
g3010
sg56
(lp3039
g49
(g70
g51
NtRp3040
(dp3041
g54
(dp3042
g74
g75
ssg63
g3036
sg56
(lp3043
S'hmac_key'
p3044
asbag49
(g70
g51
NtRp3045
(dp3046
g54
(dp3047
g81
g82
ssg63
g3036
sg56
(lp3048
S':'
asbag49
(g70
g51
NtRp3049
(dp3050
g54
(dp3051
sg63
g3036
sg56
(lp3052
g49
(g50
g51
NtRp3053
(dp3054
g54
(dp3055
g62
I4
ssg63
g3049
sg56
(lp3056
S'766b38e0-1390-4bb6-959c-2584d31c185e'
p3057
asbasbasbag49
(g65
g51
NtRp3058
(dp3059
g54
(dp3060
sg63
g3010
sg56
(lp3061
g49
(g70
g51
NtRp3062
(dp3063
g54
(dp3064
g74
g75
ssg63
g3058
sg56
(lp3065
S'last_visit'
p3066
asbag49
(g70
g51
NtRp3067
(dp3068
g54
(dp3069
g81
g82
ssg63
g3058
sg56
(lp3070
S':'
asbag49
(g70
g51
NtRp3071
(dp3072
g54
(dp3073
sg63
g3058
sg56
(lp3074
g49
(g50
g51
NtRp3075
(dp3076
g54
(dp3077
g62
I4
ssg63
g3071
sg56
(lp3078
S'datetime.datetime(2012, 3, 17, 1, 28, 15, 727556)'
p3079
asbasbasbag49
(g65
g51
NtRp3080
(dp3081
g54
(dp3082
sg63
g3010
sg56
(lp3083
g49
(g70
g51
NtRp3084
(dp3085
g54
(dp3086
g74
g75
ssg63
g3080
sg56
(lp3087
S'remember'
p3088
asbag49
(g70
g51
NtRp3089
(dp3090
g54
(dp3091
g81
g82
ssg63
g3080
sg56
(lp3092
S':'
asbag49
(g70
g51
NtRp3093
(dp3094
g54
(dp3095
sg63
g3080
sg56
(lp3096
g49
(g50
g51
NtRp3097
(dp3098
g54
(dp3099
g62
I4
ssg63
g3093
sg56
(lp3100
g1512
asbasbasbag49
(g65
g51
NtRp3101
(dp3102
g54
(dp3103
sg63
g3010
sg56
(lp3104
g49
(g70
g51
NtRp3105
(dp3106
g54
(dp3107
g74
g75
ssg63
g3101
sg56
(lp3108
S'user'
p3109
asbag49
(g70
g51
NtRp3110
(dp3111
g54
(dp3112
g81
g82
ssg63
g3101
sg56
(lp3113
S':'
asbag49
(g70
g51
NtRp3114
(dp3115
g54
(dp3116
sg63
g3101
sg56
(lp3117
g49
(g50
g51
NtRp3118
(dp3119
g54
(dp3120
g62
I4
ssg63
g3114
sg56
(lp3121
g49
(g58
g51
NtRp3122
(dp3123
g54
(dp3124
g62
I3
ssg63
Nsg56
(lp3125
g49
(g65
g51
NtRp3126
(dp3127
g54
(dp3128
sg63
g3122
sg56
(lp3129
g49
(g70
g51
NtRp3130
(dp3131
g54
(dp3132
g74
g75
ssg63
g3126
sg56
(lp3133
S'email'
p3134
asbag49
(g70
g51
NtRp3135
(dp3136
g54
(dp3137
g81
g82
ssg63
g3126
sg56
(lp3138
S':'
asbag49
(g70
g51
NtRp3139
(dp3140
g54
(dp3141
sg63
g3126
sg56
(lp3142
g49
(g50
g51
NtRp3143
(dp3144
g54
(dp3145
g62
I3
ssg63
g3139
sg56
(lp3146
S'udimilo@gmail.com'
p3147
asbasbasbag49
(g65
g51
NtRp3148
(dp3149
g54
(dp3150
sg63
g3122
sg56
(lp3151
g49
(g70
g51
NtRp3152
(dp3153
g54
(dp3154
g74
g75
ssg63
g3148
sg56
(lp3155
S'first_name'
p3156
asbag49
(g70
g51
NtRp3157
(dp3158
g54
(dp3159
g81
g82
ssg63
g3148
sg56
(lp3160
S':'
asbag49
(g70
g51
NtRp3161
(dp3162
g54
(dp3163
sg63
g3148
sg56
(lp3164
g49
(g50
g51
NtRp3165
(dp3166
g54
(dp3167
g62
I3
ssg63
g3161
sg56
(lp3168
S'Udi'
p3169
asbasbasbag49
(g65
g51
NtRp3170
(dp3171
g54
(dp3172
sg63
g3122
sg56
(lp3173
g49
(g70
g51
NtRp3174
(dp3175
g54
(dp3176
g74
g75
ssg63
g3170
sg56
(lp3177
S'id'
p3178
asbag49
(g70
g51
NtRp3179
(dp3180
g54
(dp3181
g81
g82
ssg63
g3170
sg56
(lp3182
S':'
asbag49
(g70
g51
NtRp3183
(dp3184
g54
(dp3185
sg63
g3170
sg56
(lp3186
g49
(g50
g51
NtRp3187
(dp3188
g54
(dp3189
g62
I3
ssg63
g3183
sg56
(lp3190
S'1'
asbasbasbag49
(g65
g51
NtRp3191
(dp3192
g54
(dp3193
sg63
g3122
sg56
(lp3194
g49
(g70
g51
NtRp3195
(dp3196
g54
(dp3197
g74
g75
ssg63
g3191
sg56
(lp3198
S'last_name'
p3199
asbag49
(g70
g51
NtRp3200
(dp3201
g54
(dp3202
g81
g82
ssg63
g3191
sg56
(lp3203
S':'
asbag49
(g70
g51
NtRp3204
(dp3205
g54
(dp3206
sg63
g3191
sg56
(lp3207
g49
(g50
g51
NtRp3208
(dp3209
g54
(dp3210
g62
I3
ssg63
g3204
sg56
(lp3211
S'Milo'
p3212
asbasbasbag49
(g65
g51
NtRp3213
(dp3214
g54
(dp3215
sg63
g3122
sg56
(lp3216
g49
(g70
g51
NtRp3217
(dp3218
g54
(dp3219
g74
g75
ssg63
g3213
sg56
(lp3220
S'password'
p3221
asbag49
(g70
g51
NtRp3222
(dp3223
g54
(dp3224
g81
g82
ssg63
g3213
sg56
(lp3225
S':'
asbag49
(g70
g51
NtRp3226
(dp3227
g54
(dp3228
sg63
g3213
sg56
(lp3229
g49
(g50
g51
NtRp3230
(dp3231
g54
(dp3232
g62
I3
ssg63
g3226
sg56
(lp3233
S'7a6e3c6a68ceed66634484a3f64a3468'
p3234
asbasbasbag49
(g65
g51
NtRp3235
(dp3236
g54
(dp3237
sg63
g3122
sg56
(lp3238
g49
(g70
g51
NtRp3239
(dp3240
g54
(dp3241
g74
g75
ssg63
g3235
sg56
(lp3242
S'registration_id'
p3243
asbag49
(g70
g51
NtRp3244
(dp3245
g54
(dp3246
g81
g82
ssg63
g3235
sg56
(lp3247
S':'
asbag49
(g70
g51
NtRp3248
(dp3249
g54
(dp3250
sg63
g3235
sg56
(lp3251
g49
(g50
g51
NtRp3252
(dp3253
g54
(dp3254
g62
I3
ssg63
g3248
sg56
(lp3255
S''
asbasbasbag49
(g65
g51
NtRp3256
(dp3257
g54
(dp3258
sg63
g3122
sg56
(lp3259
g49
(g70
g51
NtRp3260
(dp3261
g54
(dp3262
g74
g75
ssg63
g3256
sg56
(lp3263
S'registration_key'
p3264
asbag49
(g70
g51
NtRp3265
(dp3266
g54
(dp3267
g81
g82
ssg63
g3256
sg56
(lp3268
S':'
asbag49
(g70
g51
NtRp3269
(dp3270
g54
(dp3271
sg63
g3256
sg56
(lp3272
g49
(g50
g51
NtRp3273
(dp3274
g54
(dp3275
g62
I3
ssg63
g3269
sg56
(lp3276
S''
asbasbasbag49
(g65
g51
NtRp3277
(dp3278
g54
(dp3279
sg63
g3122
sg56
(lp3280
g49
(g70
g51
NtRp3281
(dp3282
g54
(dp3283
g74
g75
ssg63
g3277
sg56
(lp3284
S'reset_password_key'
p3285
asbag49
(g70
g51
NtRp3286
(dp3287
g54
(dp3288
g81
g82
ssg63
g3277
sg56
(lp3289
S':'
asbag49
(g70
g51
NtRp3290
(dp3291
g54
(dp3292
sg63
g3277
sg56
(lp3293
g49
(g50
g51
NtRp3294
(dp3295
g54
(dp3296
g62
I3
ssg63
g3290
sg56
(lp3297
S''
asbasbasbasbasbasbasbag49
(g65
g51
NtRp3298
(dp3299
g54
(dp3300
sg63
g3010
sg56
(lp3301
g49
(g70
g51
NtRp3302
(dp3303
g54
(dp3304
g74
g75
ssg63
g3298
sg56
(lp3305
S'user_groups'
p3306
asbag49
(g70
g51
NtRp3307
(dp3308
g54
(dp3309
g81
g82
ssg63
g3298
sg56
(lp3310
S':'
asbag49
(g70
g51
NtRp3311
(dp3312
g54
(dp3313
sg63
g3298
sg56
(lp3314
g49
(g50
g51
NtRp3315
(dp3316
g54
(dp3317
g62
I4
ssg63
g3311
sg56
(lp3318
g49
(g58
g51
NtRp3319
(dp3320
g54
(dp3321
g62
I3
ssg63
Nsg56
(lp3322
g49
(g65
g51
NtRp3323
(dp3324
g54
(dp3325
sg63
g3319
sg56
(lp3326
g49
(g70
g51
NtRp3327
(dp3328
g54
(dp3329
g74
g75
ssg63
g3323
sg56
(lp3330
S'1'
asbag49
(g70
g51
NtRp3331
(dp3332
g54
(dp3333
g81
g82
ssg63
g3323
sg56
(lp3334
S':'
asbag49
(g70
g51
NtRp3335
(dp3336
g54
(dp3337
sg63
g3323
sg56
(lp3338
g49
(g50
g51
NtRp3339
(dp3340
g54
(dp3341
g62
I3
ssg63
g3335
sg56
(lp3342
S'user_1'
p3343
asbasbasbasbasbasbasbasbasbasbasbag49
(g65
g51
NtRp3344
(dp3345
g54
(dp3346
sg63
g2985
sg56
(lp3347
g49
(g70
g51
NtRp3348
(dp3349
g54
(dp3350
g74
g75
ssg63
g3344
sg56
(lp3351
S'last_query'
p3352
asbag49
(g70
g51
NtRp3353
(dp3354
g54
(dp3355
g81
g82
ssg63
g3344
sg56
(lp3356
S':'
asbag49
(g70
g51
NtRp3357
(dp3358
g54
(dp3359
sg63
g3344
sg56
(lp3360
g49
(g50
g51
NtRp3361
(dp3362
g54
(dp3363
g62
I5
ssg63
g3357
sg56
(lp3364
S'db.user_user.id>0'
p3365
asbasbasbasbasbsS'etype'
p3366
S"<type 'exceptions.ImportError'>"
p3367
sS'date'
p3368
S'Sat Mar 17 23:06:05 2012'
p3369
sS'response'
p3370
g49
(g50
g51
NtRp3371
(dp3372
g54
(dp3373
sg56
(lp3374
g49
(g58
g51
NtRp3375
(dp3376
g54
(dp3377
g62
I5
ssg63
Nsg56
(lp3378
g49
(g65
g51
NtRp3379
(dp3380
g54
(dp3381
sg63
g3375
sg56
(lp3382
g49
(g70
g51
NtRp3383
(dp3384
g54
(dp3385
g74
g75
ssg63
g3379
sg56
(lp3386
g172
asbag49
(g70
g51
NtRp3387
(dp3388
g54
(dp3389
g81
g82
ssg63
g3379
sg56
(lp3390
S':'
asbag49
(g70
g51
NtRp3391
(dp3392
g54
(dp3393
sg63
g3379
sg56
(lp3394
g49
(g50
g51
NtRp3395
(dp3396
g54
(dp3397
g62
I5
ssg63
g3391
sg56
(lp3398
S'<cStringIO.StringO object at 0xa5b3c80>'
p3399
asbasbasbag49
(g65
g51
NtRp3400
(dp3401
g54
(dp3402
sg63
g3375
sg56
(lp3403
g49
(g70
g51
NtRp3404
(dp3405
g54
(dp3406
g74
g75
ssg63
g3400
sg56
(lp3407
g238
asbag49
(g70
g51
NtRp3408
(dp3409
g54
(dp3410
g81
g82
ssg63
g3400
sg56
(lp3411
S':'
asbag49
(g70
g51
NtRp3412
(dp3413
g54
(dp3414
sg63
g3400
sg56
(lp3415
g49
(g50
g51
NtRp3416
(dp3417
g54
(dp3418
g62
I5
ssg63
g3412
sg56
(lp3419
g49
(g58
g51
NtRp3420
(dp3421
g54
(dp3422
g62
I4
ssg63
Nsg56
(lp3423
g49
(g65
g51
NtRp3424
(dp3425
g54
(dp3426
sg63
g3420
sg56
(lp3427
g49
(g70
g51
NtRp3428
(dp3429
g54
(dp3430
g74
g75
ssg63
g3424
sg56
(lp3431
S'session_id_udi0312'
p3432
asbag49
(g70
g51
NtRp3433
(dp3434
g54
(dp3435
g81
g82
ssg63
g3424
sg56
(lp3436
S':'
asbag49
(g70
g51
NtRp3437
(dp3438
g54
(dp3439
sg63
g3424
sg56
(lp3440
g49
(g50
g51
NtRp3441
(dp3442
g54
(dp3443
g62
I4
ssg63
g3437
sg56
(lp3444
g49
(g58
g51
NtRp3445
(dp3446
g54
(dp3447
g62
I3
ssg63
Nsg56
(lp3448
g49
(g65
g51
NtRp3449
(dp3450
g54
(dp3451
sg63
g3445
sg56
(lp3452
g49
(g70
g51
NtRp3453
(dp3454
g54
(dp3455
g74
g75
ssg63
g3449
sg56
(lp3456
g288
asbag49
(g70
g51
NtRp3457
(dp3458
g54
(dp3459
g81
g82
ssg63
g3449
sg56
(lp3460
S':'
asbag49
(g70
g51
NtRp3461
(dp3462
g54
(dp3463
sg63
g3449
sg56
(lp3464
g49
(g50
g51
NtRp3465
(dp3466
g54
(dp3467
g62
I3
ssg63
g3461
sg56
(lp3468
S''
asbasbasbag49
(g65
g51
NtRp3469
(dp3470
g54
(dp3471
sg63
g3445
sg56
(lp3472
g49
(g70
g51
NtRp3473
(dp3474
g54
(dp3475
g74
g75
ssg63
g3469
sg56
(lp3476
g309
asbag49
(g70
g51
NtRp3477
(dp3478
g54
(dp3479
g81
g82
ssg63
g3469
sg56
(lp3480
S':'
asbag49
(g70
g51
NtRp3481
(dp3482
g54
(dp3483
sg63
g3469
sg56
(lp3484
g49
(g50
g51
NtRp3485
(dp3486
g54
(dp3487
g62
I3
ssg63
g3481
sg56
(lp3488
S''
asbasbasbag49
(g65
g51
NtRp3489
(dp3490
g54
(dp3491
sg63
g3445
sg56
(lp3492
g49
(g70
g51
NtRp3493
(dp3494
g54
(dp3495
g74
g75
ssg63
g3489
sg56
(lp3496
g330
asbag49
(g70
g51
NtRp3497
(dp3498
g54
(dp3499
g81
g82
ssg63
g3489
sg56
(lp3500
S':'
asbag49
(g70
g51
NtRp3501
(dp3502
g54
(dp3503
sg63
g3489
sg56
(lp3504
g49
(g50
g51
NtRp3505
(dp3506
g54
(dp3507
g62
I3
ssg63
g3501
sg56
(lp3508
S'2592000'
p3509
asbasbasbag49
(g65
g51
NtRp3510
(dp3511
g54
(dp3512
sg63
g3445
sg56
(lp3513
g49
(g70
g51
NtRp3514
(dp3515
g54
(dp3516
g74
g75
ssg63
g3510
sg56
(lp3517
g351
asbag49
(g70
g51
NtRp3518
(dp3519
g54
(dp3520
g81
g82
ssg63
g3510
sg56
(lp3521
S':'
asbag49
(g70
g51
NtRp3522
(dp3523
g54
(dp3524
sg63
g3510
sg56
(lp3525
g49
(g50
g51
NtRp3526
(dp3527
g54
(dp3528
g62
I3
ssg63
g3522
sg56
(lp3529
S''
asbasbasbag49
(g65
g51
NtRp3530
(dp3531
g54
(dp3532
sg63
g3445
sg56
(lp3533
g49
(g70
g51
NtRp3534
(dp3535
g54
(dp3536
g74
g75
ssg63
g3530
sg56
(lp3537
g372
asbag49
(g70
g51
NtRp3538
(dp3539
g54
(dp3540
g81
g82
ssg63
g3530
sg56
(lp3541
S':'
asbag49
(g70
g51
NtRp3542
(dp3543
g54
(dp3544
sg63
g3530
sg56
(lp3545
g49
(g50
g51
NtRp3546
(dp3547
g54
(dp3548
g62
I3
ssg63
g3542
sg56
(lp3549
S'/'
asbasbasbag49
(g65
g51
NtRp3550
(dp3551
g54
(dp3552
sg63
g3445
sg56
(lp3553
g49
(g70
g51
NtRp3554
(dp3555
g54
(dp3556
g74
g75
ssg63
g3550
sg56
(lp3557
g393
asbag49
(g70
g51
NtRp3558
(dp3559
g54
(dp3560
g81
g82
ssg63
g3550
sg56
(lp3561
S':'
asbag49
(g70
g51
NtRp3562
(dp3563
g54
(dp3564
sg63
g3550
sg56
(lp3565
g49
(g50
g51
NtRp3566
(dp3567
g54
(dp3568
g62
I3
ssg63
g3562
sg56
(lp3569
S''
asbasbasbag49
(g65
g51
NtRp3570
(dp3571
g54
(dp3572
sg63
g3445
sg56
(lp3573
g49
(g70
g51
NtRp3574
(dp3575
g54
(dp3576
g74
g75
ssg63
g3570
sg56
(lp3577
g414
asbag49
(g70
g51
NtRp3578
(dp3579
g54
(dp3580
g81
g82
ssg63
g3570
sg56
(lp3581
S':'
asbag49
(g70
g51
NtRp3582
(dp3583
g54
(dp3584
sg63
g3570
sg56
(lp3585
g49
(g50
g51
NtRp3586
(dp3587
g54
(dp3588
g62
I3
ssg63
g3582
sg56
(lp3589
S''
asbasbasbasbasbasbasbasbasbasbasbag49
(g65
g51
NtRp3590
(dp3591
g54
(dp3592
sg63
g3375
sg56
(lp3593
g49
(g70
g51
NtRp3594
(dp3595
g54
(dp3596
g74
g75
ssg63
g3590
sg56
(lp3597
S'delimiters'
p3598
asbag49
(g70
g51
NtRp3599
(dp3600
g54
(dp3601
g81
g82
ssg63
g3590
sg56
(lp3602
S':'
asbag49
(g70
g51
NtRp3603
(dp3604
g54
(dp3605
sg63
g3590
sg56
(lp3606
g49
(g50
g51
NtRp3607
(dp3608
g54
(dp3609
g62
I5
ssg63
g3603
sg56
(lp3610
g49
(g58
g51
NtRp3611
(dp3612
g54
(dp3613
g62
I4
ssg63
Nsg56
(lp3614
g49
(g65
g51
NtRp3615
(dp3616
g54
(dp3617
sg63
g3611
sg56
(lp3618
g49
(g70
g51
NtRp3619
(dp3620
g54
(dp3621
sg63
g3615
sg56
(lp3622
g49
(g50
g51
NtRp3623
(dp3624
g54
(dp3625
g62
I4
ssg63
g3619
sg56
(lp3626
S'{{'
p3627
asbasbasbag49
(g65
g51
NtRp3628
(dp3629
g54
(dp3630
sg63
g3611
sg56
(lp3631
g49
(g70
g51
NtRp3632
(dp3633
g54
(dp3634
sg63
g3628
sg56
(lp3635
g49
(g50
g51
NtRp3636
(dp3637
g54
(dp3638
g62
I4
ssg63
g3632
sg56
(lp3639
S'}}'
p3640
asbasbasbasbasbasbasbag49
(g65
g51
NtRp3641
(dp3642
g54
(dp3643
sg63
g3375
sg56
(lp3644
g49
(g70
g51
NtRp3645
(dp3646
g54
(dp3647
g74
g75
ssg63
g3641
sg56
(lp3648
S'files'
p3649
asbag49
(g70
g51
NtRp3650
(dp3651
g54
(dp3652
g81
g82
ssg63
g3641
sg56
(lp3653
S':'
asbag49
(g70
g51
NtRp3654
(dp3655
g54
(dp3656
sg63
g3641
sg56
(lp3657
g49
(g50
g51
NtRp3658
(dp3659
g54
(dp3660
g62
I5
ssg63
g3654
sg56
(lp3661
g49
(g58
g51
NtRp3662
(dp3663
g54
(dp3664
g62
I4
ssg63
Nsg56
(lp3665
sbasbasbasbag49
(g65
g51
NtRp3666
(dp3667
g54
(dp3668
sg63
g3375
sg56
(lp3669
g49
(g70
g51
NtRp3670
(dp3671
g54
(dp3672
g74
g75
ssg63
g3666
sg56
(lp3673
S'flash'
p3674
asbag49
(g70
g51
NtRp3675
(dp3676
g54
(dp3677
g81
g82
ssg63
g3666
sg56
(lp3678
S':'
asbag49
(g70
g51
NtRp3679
(dp3680
g54
(dp3681
sg63
g3666
sg56
(lp3682
g49
(g50
g51
NtRp3683
(dp3684
g54
(dp3685
g62
I5
ssg63
g3679
sg56
(lp3686
S''
asbasbasbag49
(g65
g51
NtRp3687
(dp3688
g54
(dp3689
sg63
g3375
sg56
(lp3690
g49
(g70
g51
NtRp3691
(dp3692
g54
(dp3693
g74
g75
ssg63
g3687
sg56
(lp3694
S'generic_patterns'
p3695
asbag49
(g70
g51
NtRp3696
(dp3697
g54
(dp3698
g81
g82
ssg63
g3687
sg56
(lp3699
S':'
asbag49
(g70
g51
NtRp3700
(dp3701
g54
(dp3702
sg63
g3687
sg56
(lp3703
g49
(g50
g51
NtRp3704
(dp3705
g54
(dp3706
g62
I5
ssg63
g3700
sg56
(lp3707
g49
(g58
g51
NtRp3708
(dp3709
g54
(dp3710
g62
I4
ssg63
Nsg56
(lp3711
g49
(g65
g51
NtRp3712
(dp3713
g54
(dp3714
sg63
g3708
sg56
(lp3715
g49
(g70
g51
NtRp3716
(dp3717
g54
(dp3718
sg63
g3712
sg56
(lp3719
g49
(g50
g51
NtRp3720
(dp3721
g54
(dp3722
g62
I4
ssg63
g3716
sg56
(lp3723
S'*'
asbasbasbasbasbasbasbag49
(g65
g51
NtRp3724
(dp3725
g54
(dp3726
sg63
g3375
sg56
(lp3727
g49
(g70
g51
NtRp3728
(dp3729
g54
(dp3730
g74
g75
ssg63
g3724
sg56
(lp3731
S'headers'
p3732
asbag49
(g70
g51
NtRp3733
(dp3734
g54
(dp3735
g81
g82
ssg63
g3724
sg56
(lp3736
S':'
asbag49
(g70
g51
NtRp3737
(dp3738
g54
(dp3739
sg63
g3724
sg56
(lp3740
g49
(g50
g51
NtRp3741
(dp3742
g54
(dp3743
g62
I5
ssg63
g3737
sg56
(lp3744
g49
(g58
g51
NtRp3745
(dp3746
g54
(dp3747
g62
I4
ssg63
Nsg56
(lp3748
g49
(g65
g51
NtRp3749
(dp3750
g54
(dp3751
sg63
g3745
sg56
(lp3752
g49
(g70
g51
NtRp3753
(dp3754
g54
(dp3755
g74
g75
ssg63
g3749
sg56
(lp3756
S'Cache-Control'
p3757
asbag49
(g70
g51
NtRp3758
(dp3759
g54
(dp3760
g81
g82
ssg63
g3749
sg56
(lp3761
S':'
asbag49
(g70
g51
NtRp3762
(dp3763
g54
(dp3764
sg63
g3749
sg56
(lp3765
g49
(g50
g51
NtRp3766
(dp3767
g54
(dp3768
g62
I4
ssg63
g3762
sg56
(lp3769
S'no-store, no-cache, must-revalidate, post-check=0, pre-check=0'
p3770
asbasbasbag49
(g65
g51
NtRp3771
(dp3772
g54
(dp3773
sg63
g3745
sg56
(lp3774
g49
(g70
g51
NtRp3775
(dp3776
g54
(dp3777
g74
g75
ssg63
g3771
sg56
(lp3778
S'Content-Type'
p3779
asbag49
(g70
g51
NtRp3780
(dp3781
g54
(dp3782
g81
g82
ssg63
g3771
sg56
(lp3783
S':'
asbag49
(g70
g51
NtRp3784
(dp3785
g54
(dp3786
sg63
g3771
sg56
(lp3787
g49
(g50
g51
NtRp3788
(dp3789
g54
(dp3790
g62
I4
ssg63
g3784
sg56
(lp3791
S'text/html; charset=utf-8'
p3792
asbasbasbag49
(g65
g51
NtRp3793
(dp3794
g54
(dp3795
sg63
g3745
sg56
(lp3796
g49
(g70
g51
NtRp3797
(dp3798
g54
(dp3799
g74
g75
ssg63
g3793
sg56
(lp3800
S'Expires'
p3801
asbag49
(g70
g51
NtRp3802
(dp3803
g54
(dp3804
g81
g82
ssg63
g3793
sg56
(lp3805
S':'
asbag49
(g70
g51
NtRp3806
(dp3807
g54
(dp3808
sg63
g3793
sg56
(lp3809
g49
(g50
g51
NtRp3810
(dp3811
g54
(dp3812
g62
I4
ssg63
g3806
sg56
(lp3813
S'Sun, 18 Mar 2012 03:06:05 GMT'
p3814
asbasbasbag49
(g65
g51
NtRp3815
(dp3816
g54
(dp3817
sg63
g3745
sg56
(lp3818
g49
(g70
g51
NtRp3819
(dp3820
g54
(dp3821
g74
g75
ssg63
g3815
sg56
(lp3822
S'Pragma'
p3823
asbag49
(g70
g51
NtRp3824
(dp3825
g54
(dp3826
g81
g82
ssg63
g3815
sg56
(lp3827
S':'
asbag49
(g70
g51
NtRp3828
(dp3829
g54
(dp3830
sg63
g3815
sg56
(lp3831
g49
(g50
g51
NtRp3832
(dp3833
g54
(dp3834
g62
I4
ssg63
g3828
sg56
(lp3835
S'no-cache'
p3836
asbasbasbag49
(g65
g51
NtRp3837
(dp3838
g54
(dp3839
sg63
g3745
sg56
(lp3840
g49
(g70
g51
NtRp3841
(dp3842
g54
(dp3843
g74
g75
ssg63
g3837
sg56
(lp3844
S'X-Powered-By'
p3845
asbag49
(g70
g51
NtRp3846
(dp3847
g54
(dp3848
g81
g82
ssg63
g3837
sg56
(lp3849
S':'
asbag49
(g70
g51
NtRp3850
(dp3851
g54
(dp3852
sg63
g3837
sg56
(lp3853
g49
(g50
g51
NtRp3854
(dp3855
g54
(dp3856
g62
I4
ssg63
g3850
sg56
(lp3857
S'web2py'
p3858
asbasbasbasbasbasbasbag49
(g65
g51
NtRp3859
(dp3860
g54
(dp3861
sg63
g3375
sg56
(lp3862
g49
(g70
g51
NtRp3863
(dp3864
g54
(dp3865
g74
g75
ssg63
g3859
sg56
(lp3866
S'menu'
p3867
asbag49
(g70
g51
NtRp3868
(dp3869
g54
(dp3870
g81
g82
ssg63
g3859
sg56
(lp3871
S':'
asbag49
(g70
g51
NtRp3872
(dp3873
g54
(dp3874
sg63
g3859
sg56
(lp3875
g49
(g50
g51
NtRp3876
(dp3877
g54
(dp3878
g62
I5
ssg63
g3872
sg56
(lp3879
g49
(g58
g51
NtRp3880
(dp3881
g54
(dp3882
g62
I4
ssg63
Nsg56
(lp3883
g49
(g65
g51
NtRp3884
(dp3885
g54
(dp3886
sg63
g3880
sg56
(lp3887
g49
(g70
g51
NtRp3888
(dp3889
g54
(dp3890
sg63
g3884
sg56
(lp3891
g49
(g50
g51
NtRp3892
(dp3893
g54
(dp3894
g62
I4
ssg63
g3888
sg56
(lp3895
g49
(g58
g51
NtRp3896
(dp3897
g54
(dp3898
g62
I3
ssg63
Nsg56
(lp3899
g49
(g65
g51
NtRp3900
(dp3901
g54
(dp3902
sg63
g3896
sg56
(lp3903
g49
(g70
g51
NtRp3904
(dp3905
g54
(dp3906
sg63
g3900
sg56
(lp3907
g49
(g50
g51
NtRp3908
(dp3909
g54
(dp3910
g62
I3
ssg63
g3904
sg56
(lp3911
cgluon.languages
lazyT_unpickle
p3912
(S's\x04\x00\x00\x00Home'
tRp3913
asbasbasbag49
(g65
g51
NtRp3914
(dp3915
g54
(dp3916
sg63
g3896
sg56
(lp3917
g49
(g70
g51
NtRp3918
(dp3919
g54
(dp3920
sg63
g3914
sg56
(lp3921
g49
(g50
g51
NtRp3922
(dp3923
g54
(dp3924
g62
I3
ssg63
g3918
sg56
(lp3925
g92
asbasbasbag49
(g65
g51
NtRp3926
(dp3927
g54
(dp3928
sg63
g3896
sg56
(lp3929
g49
(g70
g51
NtRp3930
(dp3931
g54
(dp3932
sg63
g3926
sg56
(lp3933
g49
(g50
g51
NtRp3934
(dp3935
g54
(dp3936
g62
I3
ssg63
g3930
sg56
(lp3937
S'/udi0312/default/index'
p3938
asbasbasbag49
(g65
g51
NtRp3939
(dp3940
g54
(dp3941
sg63
g3896
sg56
(lp3942
g49
(g70
g51
NtRp3943
(dp3944
g54
(dp3945
sg63
g3939
sg56
(lp3946
g49
(g50
g51
NtRp3947
(dp3948
g54
(dp3949
g62
I3
ssg63
g3943
sg56
(lp3950
g49
(g58
g51
NtRp3951
(dp3952
g54
(dp3953
g62
I2
ssg63
Nsg56
(lp3954
sbasbasbasbasbasbasbasbag49
(g65
g51
NtRp3955
(dp3956
g54
(dp3957
sg63
g3880
sg56
(lp3958
g49
(g70
g51
NtRp3959
(dp3960
g54
(dp3961
sg63
g3955
sg56
(lp3962
g49
(g50
g51
NtRp3963
(dp3964
g54
(dp3965
g62
I4
ssg63
g3959
sg56
(lp3966
g49
(g58
g51
NtRp3967
(dp3968
g54
(dp3969
g62
I3
ssg63
Nsg56
(lp3970
g49
(g65
g51
NtRp3971
(dp3972
g54
(dp3973
sg63
g3967
sg56
(lp3974
g49
(g70
g51
NtRp3975
(dp3976
g54
(dp3977
sg63
g3971
sg56
(lp3978
g49
(g50
g51
NtRp3979
(dp3980
g54
(dp3981
g62
I3
ssg63
g3975
sg56
(lp3982
g49
(cgluon.html
SPAN
p3983
g51
NtRp3984
(dp3985
g54
(dp3986
g74
S'color:yellow'
p3987
ssg63
Nsg56
(lp3988
g3858
asbasbasbasbag49
(g65
g51
NtRp3989
(dp3990
g54
(dp3991
sg63
g3967
sg56
(lp3992
g49
(g70
g51
NtRp3993
(dp3994
g54
(dp3995
sg63
g3989
sg56
(lp3996
g49
(g50
g51
NtRp3997
(dp3998
g54
(dp3999
g62
I3
ssg63
g3993
sg56
(lp4000
g92
asbasbasbag49
(g65
g51
NtRp4001
(dp4002
g54
(dp4003
sg63
g3967
sg56
(lp4004
g49
(g70
g51
NtRp4005
(dp4006
g54
(dp4007
sg63
g4001
sg56
(lp4008
g49
(g50
g51
NtRp4009
(dp4010
g54
(dp4011
g62
I3
ssg63
g4005
sg56
(lp4012
S'None'
p4013
asbasbasbag49
(g65
g51
NtRp4014
(dp4015
g54
(dp4016
sg63
g3967
sg56
(lp4017
g49
(g70
g51
NtRp4018
(dp4019
g54
(dp4020
sg63
g4014
sg56
(lp4021
g49
(g50
g51
NtRp4022
(dp4023
g54
(dp4024
g62
I3
ssg63
g4018
sg56
(lp4025
g49
(g58
g51
NtRp4026
(dp4027
g54
(dp4028
g62
I2
ssg63
Nsg56
(lp4029
g49
(g65
g51
NtRp4030
(dp4031
g54
(dp4032
sg63
g4026
sg56
(lp4033
g49
(g70
g51
NtRp4034
(dp4035
g54
(dp4036
sg63
g4030
sg56
(lp4037
g49
(g50
g51
NtRp4038
(dp4039
g54
(dp4040
g62
I2
ssg63
g4034
sg56
(lp4041
g49
(g58
g51
NtRp4042
(dp4043
g54
(dp4044
g62
I1
ssg63
Nsg56
(lp4045
g49
(g65
g51
NtRp4046
(dp4047
g54
(dp4048
sg63
g4042
sg56
(lp4049
g49
(g70
g51
NtRp4050
(dp4051
g54
(dp4052
sg63
g4046
sg56
(lp4053
g49
(g50
g51
NtRp4054
(dp4055
g54
(dp4056
g62
I1
ssg63
g4050
sg56
(lp4057
g3912
(S's\x08\x00\x00\x00My Sites'
tRp4058
asbasbasbag49
(g65
g51
NtRp4059
(dp4060
g54
(dp4061
sg63
g4042
sg56
(lp4062
g49
(g70
g51
NtRp4063
(dp4064
g54
(dp4065
sg63
g4059
sg56
(lp4066
g49
(g50
g51
NtRp4067
(dp4068
g54
(dp4069
g62
I1
ssg63
g4063
sg56
(lp4070
I00
asbasbasbag49
(g65
g51
NtRp4071
(dp4072
g54
(dp4073
sg63
g4042
sg56
(lp4074
g49
(g70
g51
NtRp4075
(dp4076
g54
(dp4077
sg63
g4071
sg56
(lp4078
g49
(g50
g51
NtRp4079
(dp4080
g54
(dp4081
g62
I1
ssg63
g4075
sg56
(lp4082
S'/admin/default/site'
p4083
asbasbasbasbasbasbasbag49
(g65
g51
NtRp4084
(dp4085
g54
(dp4086
sg63
g4026
sg56
(lp4087
g49
(g70
g51
NtRp4088
(dp4089
g54
(dp4090
sg63
g4084
sg56
(lp4091
g49
(g50
g51
NtRp4092
(dp4093
g54
(dp4094
g62
I2
ssg63
g4088
sg56
(lp4095
g49
(g58
g51
NtRp4096
(dp4097
g54
(dp4098
g62
I1
ssg63
Nsg56
(lp4099
g49
(g65
g51
NtRp4100
(dp4101
g54
(dp4102
sg63
g4096
sg56
(lp4103
g49
(g70
g51
NtRp4104
(dp4105
g54
(dp4106
sg63
g4100
sg56
(lp4107
g49
(g50
g51
NtRp4108
(dp4109
g54
(dp4110
g62
I1
ssg63
g4104
sg56
(lp4111
g3912
(S's\x08\x00\x00\x00This App'
tRp4112
asbasbasbag49
(g65
g51
NtRp4113
(dp4114
g54
(dp4115
sg63
g4096
sg56
(lp4116
g49
(g70
g51
NtRp4117
(dp4118
g54
(dp4119
sg63
g4113
sg56
(lp4120
g49
(g50
g51
NtRp4121
(dp4122
g54
(dp4123
g62
I1
ssg63
g4117
sg56
(lp4124
I00
asbasbasbag49
(g65
g51
NtRp4125
(dp4126
g54
(dp4127
sg63
g4096
sg56
(lp4128
g49
(g70
g51
NtRp4129
(dp4130
g54
(dp4131
sg63
g4125
sg56
(lp4132
g49
(g50
g51
NtRp4133
(dp4134
g54
(dp4135
g62
I1
ssg63
g4129
sg56
(lp4136
S'/admin/default/design/udi0312'
p4137
asbasbasbag49
(g65
g51
NtRp4138
(dp4139
g54
(dp4140
sg63
g4096
sg56
(lp4141
g49
(g70
g51
NtRp4142
(dp4143
g54
(dp4144
sg63
g4138
sg56
(lp4145
g49
(g50
g51
NtRp4146
(dp4147
g54
(dp4148
g62
I1
ssg63
g4142
sg56
(lp4149
(lp4150
(g3912
(S's\n\x00\x00\x00Controller'
tRp4151
I00
S'/admin/default/edit/udi0312/controllers/users.py'
tp4152
a(g3912
(S's\x04\x00\x00\x00View'
tRp4153
I00
S'/admin/default/edit/udi0312/views/users/user.html'
tp4154
a(g3912
(S's\x06\x00\x00\x00Layout'
tRp4155
I00
S'/admin/default/edit/udi0312/views/layout.html'
tp4156
a(g3912
(S's\n\x00\x00\x00Stylesheet'
tRp4157
I00
S'/admin/default/edit/udi0312/static/css/web2py.css'
tp4158
a(g3912
(S's\x08\x00\x00\x00DB Model'
tRp4159
I00
S'/admin/default/edit/udi0312/models/db.py'
tp4160
a(g3912
(S's\n\x00\x00\x00Menu Model'
tRp4161
I00
S'/admin/default/edit/udi0312/models/menu.py'
tp4162
a(g3912
(S's\x08\x00\x00\x00Database'
tRp4163
I00
S'/udi0312/appadmin/index'
tp4164
a(g3912
(S's\x06\x00\x00\x00Errors'
tRp4165
I00
S'/admin/default/errors/udi0312'
tp4166
a(g3912
(S's\x05\x00\x00\x00About'
tRp4167
I00
S'/admin/default/about/udi0312'
tp4168
aasbasbasbasbasbasbasbag49
(g65
g51
NtRp4169
(dp4170
g54
(dp4171
sg63
g4026
sg56
(lp4172
g49
(g70
g51
NtRp4173
(dp4174
g54
(dp4175
sg63
g4169
sg56
(lp4176
g49
(g50
g51
NtRp4177
(dp4178
g54
(dp4179
g62
I2
ssg63
g4173
sg56
(lp4180
g49
(g58
g51
NtRp4181
(dp4182
g54
(dp4183
g62
I1
ssg63
Nsg56
(lp4184
g49
(g65
g51
NtRp4185
(dp4186
g54
(dp4187
sg63
g4181
sg56
(lp4188
g49
(g70
g51
NtRp4189
(dp4190
g54
(dp4191
sg63
g4185
sg56
(lp4192
g49
(g50
g51
NtRp4193
(dp4194
g54
(dp4195
g62
I1
ssg63
g4189
sg56
(lp4196
S'web2py.com'
p4197
asbasbasbag49
(g65
g51
NtRp4198
(dp4199
g54
(dp4200
sg63
g4181
sg56
(lp4201
g49
(g70
g51
NtRp4202
(dp4203
g54
(dp4204
sg63
g4198
sg56
(lp4205
g49
(g50
g51
NtRp4206
(dp4207
g54
(dp4208
g62
I1
ssg63
g4202
sg56
(lp4209
I00
asbasbasbag49
(g65
g51
NtRp4210
(dp4211
g54
(dp4212
sg63
g4181
sg56
(lp4213
g49
(g70
g51
NtRp4214
(dp4215
g54
(dp4216
sg63
g4210
sg56
(lp4217
g49
(g50
g51
NtRp4218
(dp4219
g54
(dp4220
g62
I1
ssg63
g4214
sg56
(lp4221
S'http://www.web2py.com'
p4222
asbasbasbag49
(g65
g51
NtRp4223
(dp4224
g54
(dp4225
sg63
g4181
sg56
(lp4226
g49
(g70
g51
NtRp4227
(dp4228
g54
(dp4229
sg63
g4223
sg56
(lp4230
g49
(g50
g51
NtRp4231
(dp4232
g54
(dp4233
g62
I1
ssg63
g4227
sg56
(lp4234
(lp4235
(g3912
(S's\x08\x00\x00\x00Download'
tRp4236
I00
S'http://www.web2py.com/examples/default/download'
p4237
tp4238
a(g3912
(S's\x07\x00\x00\x00Support'
tRp4239
I00
S'http://www.web2py.com/examples/default/support'
p4240
tp4241
a(g3912
(S's\x04\x00\x00\x00Demo'
tRp4242
I00
S'http://web2py.com/demo_admin'
p4243
tp4244
a(g3912
(S's\x0e\x00\x00\x00Quick Examples'
tRp4245
I00
S'http://web2py.com/examples/default/examples'
p4246
tp4247
a(g3912
(S's\x03\x00\x00\x00FAQ'
tRp4248
I00
S'http://web2py.com/AlterEgo'
p4249
tp4250
a(g3912
(S's\x06\x00\x00\x00Videos'
tRp4251
I00
S'http://www.web2py.com/examples/default/videos/'
p4252
tp4253
a(g3912
(S's\x11\x00\x00\x00Free Applications'
tRp4254
I00
S'http://web2py.com/appliances'
p4255
tp4256
a(g3912
(S's\x07\x00\x00\x00Plugins'
tRp4257
I00
S'http://web2py.com/plugins'
p4258
tp4259
a(g3912
(S's\x07\x00\x00\x00Layouts'
tRp4260
I00
S'http://web2py.com/layouts'
p4261
tp4262
a(g3912
(S's\x07\x00\x00\x00Recipes'
tRp4263
I00
S'http://web2pyslices.com/'
p4264
tp4265
a(g3912
(S's\x08\x00\x00\x00Semantic'
tRp4266
I00
S'http://web2py.com/semantic'
p4267
tp4268
aasbasbasbasbasbasbasbag49
(g65
g51
NtRp4269
(dp4270
g54
(dp4271
sg63
g4026
sg56
(lp4272
g49
(g70
g51
NtRp4273
(dp4274
g54
(dp4275
sg63
g4269
sg56
(lp4276
g49
(g50
g51
NtRp4277
(dp4278
g54
(dp4279
g62
I2
ssg63
g4273
sg56
(lp4280
g49
(g58
g51
NtRp4281
(dp4282
g54
(dp4283
g62
I1
ssg63
Nsg56
(lp4284
g49
(g65
g51
NtRp4285
(dp4286
g54
(dp4287
sg63
g4281
sg56
(lp4288
g49
(g70
g51
NtRp4289
(dp4290
g54
(dp4291
sg63
g4285
sg56
(lp4292
g49
(g50
g51
NtRp4293
(dp4294
g54
(dp4295
g62
I1
ssg63
g4289
sg56
(lp4296
g3912
(S's\r\x00\x00\x00Documentation'
tRp4297
asbasbasbag49
(g65
g51
NtRp4298
(dp4299
g54
(dp4300
sg63
g4281
sg56
(lp4301
g49
(g70
g51
NtRp4302
(dp4303
g54
(dp4304
sg63
g4298
sg56
(lp4305
g49
(g50
g51
NtRp4306
(dp4307
g54
(dp4308
g62
I1
ssg63
g4302
sg56
(lp4309
I00
asbasbasbag49
(g65
g51
NtRp4310
(dp4311
g54
(dp4312
sg63
g4281
sg56
(lp4313
g49
(g70
g51
NtRp4314
(dp4315
g54
(dp4316
sg63
g4310
sg56
(lp4317
g49
(g50
g51
NtRp4318
(dp4319
g54
(dp4320
g62
I1
ssg63
g4314
sg56
(lp4321
S'http://www.web2py.com/book'
p4322
asbasbasbag49
(g65
g51
NtRp4323
(dp4324
g54
(dp4325
sg63
g4281
sg56
(lp4326
g49
(g70
g51
NtRp4327
(dp4328
g54
(dp4329
sg63
g4323
sg56
(lp4330
g49
(g50
g51
NtRp4331
(dp4332
g54
(dp4333
g62
I1
ssg63
g4327
sg56
(lp4334
(lp4335
(g3912
(S's\x07\x00\x00\x00Preface'
tRp4336
I00
S'http://www.web2py.com/book/default/chapter/00'
p4337
tp4338
a(g3912
(S's\x0c\x00\x00\x00Introduction'
tRp4339
I00
S'http://www.web2py.com/book/default/chapter/01'
p4340
tp4341
a(g3912
(S's\x06\x00\x00\x00Python'
tRp4342
I00
S'http://www.web2py.com/book/default/chapter/02'
p4343
tp4344
a(g3912
(S's\x08\x00\x00\x00Overview'
tRp4345
I00
S'http://www.web2py.com/book/default/chapter/03'
p4346
tp4347
a(g3912
(S's\x08\x00\x00\x00The Core'
tRp4348
I00
S'http://www.web2py.com/book/default/chapter/04'
p4349
tp4350
a(g3912
(S's\t\x00\x00\x00The Views'
tRp4351
I00
S'http://www.web2py.com/book/default/chapter/05'
p4352
tp4353
a(g3912
(S's\x08\x00\x00\x00Database'
tRp4354
I00
S'http://www.web2py.com/book/default/chapter/06'
p4355
tp4356
a(g3912
(S's\x14\x00\x00\x00Forms and Validators'
tRp4357
I00
S'http://www.web2py.com/book/default/chapter/07'
p4358
tp4359
a(g3912
(S's\r\x00\x00\x00Email and SMS'
tRp4360
I00
S'http://www.web2py.com/book/default/chapter/08'
p4361
tp4362
a(g3912
(S's\x0e\x00\x00\x00Access Control'
tRp4363
I00
S'http://www.web2py.com/book/default/chapter/09'
p4364
tp4365
a(g3912
(S's\x08\x00\x00\x00Services'
tRp4366
I00
S'http://www.web2py.com/book/default/chapter/10'
p4367
tp4368
a(g3912
(S's\x0c\x00\x00\x00Ajax Recipes'
tRp4369
I00
S'http://www.web2py.com/book/default/chapter/11'
p4370
tp4371
a(g3912
(S's\x16\x00\x00\x00Components and Plugins'
tRp4372
I00
S'http://www.web2py.com/book/default/chapter/12'
p4373
tp4374
a(g3912
(S's\x12\x00\x00\x00Deployment Recipes'
tRp4375
I00
S'http://www.web2py.com/book/default/chapter/13'
p4376
tp4377
a(g3912
(S's\r\x00\x00\x00Other Recipes'
tRp4378
I00
S'http://www.web2py.com/book/default/chapter/14'
p4379
tp4380
a(g3912
(S's\r\x00\x00\x00Buy this book'
tRp4381
I00
S'http://stores.lulu.com/web2py'
p4382
tp4383
aasbasbasbasbasbasbasbag49
(g65
g51
NtRp4384
(dp4385
g54
(dp4386
sg63
g4026
sg56
(lp4387
g49
(g70
g51
NtRp4388
(dp4389
g54
(dp4390
sg63
g4384
sg56
(lp4391
g49
(g50
g51
NtRp4392
(dp4393
g54
(dp4394
g62
I2
ssg63
g4388
sg56
(lp4395
g49
(g58
g51
NtRp4396
(dp4397
g54
(dp4398
g62
I1
ssg63
Nsg56
(lp4399
g49
(g65
g51
NtRp4400
(dp4401
g54
(dp4402
sg63
g4396
sg56
(lp4403
g49
(g70
g51
NtRp4404
(dp4405
g54
(dp4406
sg63
g4400
sg56
(lp4407
g49
(g50
g51
NtRp4408
(dp4409
g54
(dp4410
g62
I1
ssg63
g4404
sg56
(lp4411
g3912
(S's\t\x00\x00\x00Community'
tRp4412
asbasbasbag49
(g65
g51
NtRp4413
(dp4414
g54
(dp4415
sg63
g4396
sg56
(lp4416
g49
(g70
g51
NtRp4417
(dp4418
g54
(dp4419
sg63
g4413
sg56
(lp4420
g49
(g50
g51
NtRp4421
(dp4422
g54
(dp4423
g62
I1
ssg63
g4417
sg56
(lp4424
I00
asbasbasbag49
(g65
g51
NtRp4425
(dp4426
g54
(dp4427
sg63
g4396
sg56
(lp4428
g49
(g70
g51
NtRp4429
(dp4430
g54
(dp4431
sg63
g4425
sg56
(lp4432
g49
(g50
g51
NtRp4433
(dp4434
g54
(dp4435
g62
I1
ssg63
g4429
sg56
(lp4436
Nasbasbasbag49
(g65
g51
NtRp4437
(dp4438
g54
(dp4439
sg63
g4396
sg56
(lp4440
g49
(g70
g51
NtRp4441
(dp4442
g54
(dp4443
sg63
g4437
sg56
(lp4444
g49
(g50
g51
NtRp4445
(dp4446
g54
(dp4447
g62
I1
ssg63
g4441
sg56
(lp4448
(lp4449
(g3912
(S's\x06\x00\x00\x00Groups'
tRp4450
I00
S'http://www.web2py.com/examples/default/usergroups'
p4451
tp4452
a(g3912
(S's\x07\x00\x00\x00Twitter'
tRp4453
I00
S'http://twitter.com/web2py'
p4454
tp4455
a(g3912
(S's\t\x00\x00\x00Live Chat'
tRp4456
I00
S'http://webchat.freenode.net/?channels=web2py'
p4457
tp4458
aasbasbasbasbasbasbasbag49
(g65
g51
NtRp4459
(dp4460
g54
(dp4461
sg63
g4026
sg56
(lp4462
g49
(g70
g51
NtRp4463
(dp4464
g54
(dp4465
sg63
g4459
sg56
(lp4466
g49
(g50
g51
NtRp4467
(dp4468
g54
(dp4469
g62
I2
ssg63
g4463
sg56
(lp4470
g49
(g58
g51
NtRp4471
(dp4472
g54
(dp4473
g62
I1
ssg63
Nsg56
(lp4474
g49
(g65
g51
NtRp4475
(dp4476
g54
(dp4477
sg63
g4471
sg56
(lp4478
g49
(g70
g51
NtRp4479
(dp4480
g54
(dp4481
sg63
g4475
sg56
(lp4482
g49
(g50
g51
NtRp4483
(dp4484
g54
(dp4485
g62
I1
ssg63
g4479
sg56
(lp4486
g3912
(S's\x07\x00\x00\x00Plugins'
tRp4487
asbasbasbag49
(g65
g51
NtRp4488
(dp4489
g54
(dp4490
sg63
g4471
sg56
(lp4491
g49
(g70
g51
NtRp4492
(dp4493
g54
(dp4494
sg63
g4488
sg56
(lp4495
g49
(g50
g51
NtRp4496
(dp4497
g54
(dp4498
g62
I1
ssg63
g4492
sg56
(lp4499
I00
asbasbasbag49
(g65
g51
NtRp4500
(dp4501
g54
(dp4502
sg63
g4471
sg56
(lp4503
g49
(g70
g51
NtRp4504
(dp4505
g54
(dp4506
sg63
g4500
sg56
(lp4507
g49
(g50
g51
NtRp4508
(dp4509
g54
(dp4510
g62
I1
ssg63
g4504
sg56
(lp4511
Nasbasbasbag49
(g65
g51
NtRp4512
(dp4513
g54
(dp4514
sg63
g4471
sg56
(lp4515
g49
(g70
g51
NtRp4516
(dp4517
g54
(dp4518
sg63
g4512
sg56
(lp4519
g49
(g50
g51
NtRp4520
(dp4521
g54
(dp4522
g62
I1
ssg63
g4516
sg56
(lp4523
(lp4524
(S'plugin_wiki'
p4525
I00
S'http://web2py.com/examples/default/download'
p4526
tp4527
a(g3912
(S's\r\x00\x00\x00Other Plugins'
tRp4528
I00
g4258
tp4529
a(g3912
(S's\x0e\x00\x00\x00Layout Plugins'
tRp4530
I00
g4261
tp4531
aasbasbasbasbasbasbasbasbasbasbasbasbasbasbasbasbasbasbasbag49
(g65
g51
NtRp4532
(dp4533
g54
(dp4534
sg63
g3375
sg56
(lp4535
g49
(g70
g51
NtRp4536
(dp4537
g54
(dp4538
g74
g75
ssg63
g4532
sg56
(lp4539
S'meta'
p4540
asbag49
(g70
g51
NtRp4541
(dp4542
g54
(dp4543
g81
g82
ssg63
g4532
sg56
(lp4544
S':'
asbag49
(g70
g51
NtRp4545
(dp4546
g54
(dp4547
sg63
g4532
sg56
(lp4548
g49
(g50
g51
NtRp4549
(dp4550
g54
(dp4551
g62
I5
ssg63
g4545
sg56
(lp4552
g49
(g58
g51
NtRp4553
(dp4554
g54
(dp4555
g62
I4
ssg63
Nsg56
(lp4556
g49
(g65
g51
NtRp4557
(dp4558
g54
(dp4559
sg63
g4553
sg56
(lp4560
g49
(g70
g51
NtRp4561
(dp4562
g54
(dp4563
g74
g75
ssg63
g4557
sg56
(lp4564
S'author'
p4565
asbag49
(g70
g51
NtRp4566
(dp4567
g54
(dp4568
g81
g82
ssg63
g4557
sg56
(lp4569
S':'
asbag49
(g70
g51
NtRp4570
(dp4571
g54
(dp4572
sg63
g4557
sg56
(lp4573
g49
(g50
g51
NtRp4574
(dp4575
g54
(dp4576
g62
I4
ssg63
g4570
sg56
(lp4577
S'Your Name <you@example.com>'
p4578
asbasbasbag49
(g65
g51
NtRp4579
(dp4580
g54
(dp4581
sg63
g4553
sg56
(lp4582
g49
(g70
g51
NtRp4583
(dp4584
g54
(dp4585
g74
g75
ssg63
g4579
sg56
(lp4586
S'copyright'
p4587
asbag49
(g70
g51
NtRp4588
(dp4589
g54
(dp4590
g81
g82
ssg63
g4579
sg56
(lp4591
S':'
asbag49
(g70
g51
NtRp4592
(dp4593
g54
(dp4594
sg63
g4579
sg56
(lp4595
g49
(g50
g51
NtRp4596
(dp4597
g54
(dp4598
g62
I4
ssg63
g4592
sg56
(lp4599
S'Copyright 2011'
p4600
asbasbasbag49
(g65
g51
NtRp4601
(dp4602
g54
(dp4603
sg63
g4553
sg56
(lp4604
g49
(g70
g51
NtRp4605
(dp4606
g54
(dp4607
g74
g75
ssg63
g4601
sg56
(lp4608
S'description'
p4609
asbag49
(g70
g51
NtRp4610
(dp4611
g54
(dp4612
g81
g82
ssg63
g4601
sg56
(lp4613
S':'
asbag49
(g70
g51
NtRp4614
(dp4615
g54
(dp4616
sg63
g4601
sg56
(lp4617
g49
(g50
g51
NtRp4618
(dp4619
g54
(dp4620
g62
I4
ssg63
g4614
sg56
(lp4621
S'a cool new app'
p4622
asbasbasbag49
(g65
g51
NtRp4623
(dp4624
g54
(dp4625
sg63
g4553
sg56
(lp4626
g49
(g70
g51
NtRp4627
(dp4628
g54
(dp4629
g74
g75
ssg63
g4623
sg56
(lp4630
S'generator'
p4631
asbag49
(g70
g51
NtRp4632
(dp4633
g54
(dp4634
g81
g82
ssg63
g4623
sg56
(lp4635
S':'
asbag49
(g70
g51
NtRp4636
(dp4637
g54
(dp4638
sg63
g4623
sg56
(lp4639
g49
(g50
g51
NtRp4640
(dp4641
g54
(dp4642
g62
I4
ssg63
g4636
sg56
(lp4643
S'Web2py Web Framework'
p4644
asbasbasbag49
(g65
g51
NtRp4645
(dp4646
g54
(dp4647
sg63
g4553
sg56
(lp4648
g49
(g70
g51
NtRp4649
(dp4650
g54
(dp4651
g74
g75
ssg63
g4645
sg56
(lp4652
S'keywords'
p4653
asbag49
(g70
g51
NtRp4654
(dp4655
g54
(dp4656
g81
g82
ssg63
g4645
sg56
(lp4657
S':'
asbag49
(g70
g51
NtRp4658
(dp4659
g54
(dp4660
sg63
g4645
sg56
(lp4661
g49
(g50
g51
NtRp4662
(dp4663
g54
(dp4664
g62
I4
ssg63
g4658
sg56
(lp4665
S'web2py, python, framework'
p4666
asbasbasbasbasbasbasbag49
(g65
g51
NtRp4667
(dp4668
g54
(dp4669
sg63
g3375
sg56
(lp4670
g49
(g70
g51
NtRp4671
(dp4672
g54
(dp4673
g74
g75
ssg63
g4667
sg56
(lp4674
S'postprocessing'
p4675
asbag49
(g70
g51
NtRp4676
(dp4677
g54
(dp4678
g81
g82
ssg63
g4667
sg56
(lp4679
S':'
asbag49
(g70
g51
NtRp4680
(dp4681
g54
(dp4682
sg63
g4667
sg56
(lp4683
g49
(g50
g51
NtRp4684
(dp4685
g54
(dp4686
g62
I5
ssg63
g4680
sg56
(lp4687
g49
(g58
g51
NtRp4688
(dp4689
g54
(dp4690
g62
I4
ssg63
Nsg56
(lp4691
sbasbasbasbag49
(g65
g51
NtRp4692
(dp4693
g54
(dp4694
sg63
g3375
sg56
(lp4695
g49
(g70
g51
NtRp4696
(dp4697
g54
(dp4698
g74
g75
ssg63
g4692
sg56
(lp4699
S'session_file'
p4700
asbag49
(g70
g51
NtRp4701
(dp4702
g54
(dp4703
g81
g82
ssg63
g4692
sg56
(lp4704
S':'
asbag49
(g70
g51
NtRp4705
(dp4706
g54
(dp4707
sg63
g4692
sg56
(lp4708
g49
(g50
g51
NtRp4709
(dp4710
g54
(dp4711
g62
I5
ssg63
g4705
sg56
(lp4712
S"<open file '/Users/udimilo/Documents/web2py/applications/udi0312/sessions/127.0.0.1-fcd6a577-d448-4882-b7bc-f353da84ba3b', mode 'rb+' at 0x96101d0>"
p4713
asbasbasbag49
(g65
g51
NtRp4714
(dp4715
g54
(dp4716
sg63
g3375
sg56
(lp4717
g49
(g70
g51
NtRp4718
(dp4719
g54
(dp4720
g74
g75
ssg63
g4714
sg56
(lp4721
S'session_filename'
p4722
asbag49
(g70
g51
NtRp4723
(dp4724
g54
(dp4725
g81
g82
ssg63
g4714
sg56
(lp4726
S':'
asbag49
(g70
g51
NtRp4727
(dp4728
g54
(dp4729
sg63
g4714
sg56
(lp4730
g49
(g50
g51
NtRp4731
(dp4732
g54
(dp4733
g62
I5
ssg63
g4727
sg56
(lp4734
S'/Users/udimilo/Documents/web2py/applications/udi0312/sessions/127.0.0.1-fcd6a577-d448-4882-b7bc-f353da84ba3b'
p4735
asbasbasbag49
(g65
g51
NtRp4736
(dp4737
g54
(dp4738
sg63
g3375
sg56
(lp4739
g49
(g70
g51
NtRp4740
(dp4741
g54
(dp4742
g74
g75
ssg63
g4736
sg56
(lp4743
S'session_id'
p4744
asbag49
(g70
g51
NtRp4745
(dp4746
g54
(dp4747
g81
g82
ssg63
g4736
sg56
(lp4748
S':'
asbag49
(g70
g51
NtRp4749
(dp4750
g54
(dp4751
sg63
g4736
sg56
(lp4752
g49
(g50
g51
NtRp4753
(dp4754
g54
(dp4755
g62
I5
ssg63
g4749
sg56
(lp4756
S'127.0.0.1-fcd6a577-d448-4882-b7bc-f353da84ba3b'
p4757
asbasbasbag49
(g65
g51
NtRp4758
(dp4759
g54
(dp4760
sg63
g3375
sg56
(lp4761
g49
(g70
g51
NtRp4762
(dp4763
g54
(dp4764
g74
g75
ssg63
g4758
sg56
(lp4765
S'session_id_name'
p4766
asbag49
(g70
g51
NtRp4767
(dp4768
g54
(dp4769
g81
g82
ssg63
g4758
sg56
(lp4770
S':'
asbag49
(g70
g51
NtRp4771
(dp4772
g54
(dp4773
sg63
g4758
sg56
(lp4774
g49
(g50
g51
NtRp4775
(dp4776
g54
(dp4777
g62
I5
ssg63
g4771
sg56
(lp4778
g3432
asbasbasbag49
(g65
g51
NtRp4779
(dp4780
g54
(dp4781
sg63
g3375
sg56
(lp4782
g49
(g70
g51
NtRp4783
(dp4784
g54
(dp4785
g74
g75
ssg63
g4779
sg56
(lp4786
S'session_locked'
p4787
asbag49
(g70
g51
NtRp4788
(dp4789
g54
(dp4790
g81
g82
ssg63
g4779
sg56
(lp4791
S':'
asbag49
(g70
g51
NtRp4792
(dp4793
g54
(dp4794
sg63
g4779
sg56
(lp4795
g49
(g50
g51
NtRp4796
(dp4797
g54
(dp4798
g62
I5
ssg63
g4792
sg56
(lp4799
g1512
asbasbasbag49
(g65
g51
NtRp4800
(dp4801
g54
(dp4802
sg63
g3375
sg56
(lp4803
g49
(g70
g51
NtRp4804
(dp4805
g54
(dp4806
g74
g75
ssg63
g4800
sg56
(lp4807
S'session_new'
p4808
asbag49
(g70
g51
NtRp4809
(dp4810
g54
(dp4811
g81
g82
ssg63
g4800
sg56
(lp4812
S':'
asbag49
(g70
g51
NtRp4813
(dp4814
g54
(dp4815
sg63
g4800
sg56
(lp4816
g49
(g50
g51
NtRp4817
(dp4818
g54
(dp4819
g62
I5
ssg63
g4813
sg56
(lp4820
g92
asbasbasbag49
(g65
g51
NtRp4821
(dp4822
g54
(dp4823
sg63
g3375
sg56
(lp4824
g49
(g70
g51
NtRp4825
(dp4826
g54
(dp4827
g74
g75
ssg63
g4821
sg56
(lp4828
S'status'
p4829
asbag49
(g70
g51
NtRp4830
(dp4831
g54
(dp4832
g81
g82
ssg63
g4821
sg56
(lp4833
S':'
asbag49
(g70
g51
NtRp4834
(dp4835
g54
(dp4836
sg63
g4821
sg56
(lp4837
g49
(g50
g51
NtRp4838
(dp4839
g54
(dp4840
g62
I5
ssg63
g4834
sg56
(lp4841
S'200'
p4842
asbasbasbag49
(g65
g51
NtRp4843
(dp4844
g54
(dp4845
sg63
g3375
sg56
(lp4846
g49
(g70
g51
NtRp4847
(dp4848
g54
(dp4849
g74
g75
ssg63
g4843
sg56
(lp4850
S'subtitle'
p4851
asbag49
(g70
g51
NtRp4852
(dp4853
g54
(dp4854
g81
g82
ssg63
g4843
sg56
(lp4855
S':'
asbag49
(g70
g51
NtRp4856
(dp4857
g54
(dp4858
sg63
g4843
sg56
(lp4859
g49
(g50
g51
NtRp4860
(dp4861
g54
(dp4862
g62
I5
ssg63
g4856
sg56
(lp4863
g3912
(S's\r\x00\x00\x00customize me!'
tRp4864
asbasbasbag49
(g65
g51
NtRp4865
(dp4866
g54
(dp4867
sg63
g3375
sg56
(lp4868
g49
(g70
g51
NtRp4869
(dp4870
g54
(dp4871
g74
g75
ssg63
g4865
sg56
(lp4872
S'title'
p4873
asbag49
(g70
g51
NtRp4874
(dp4875
g54
(dp4876
g81
g82
ssg63
g4865
sg56
(lp4877
S':'
asbag49
(g70
g51
NtRp4878
(dp4879
g54
(dp4880
sg63
g4865
sg56
(lp4881
g49
(g50
g51
NtRp4882
(dp4883
g54
(dp4884
g62
I5
ssg63
g4878
sg56
(lp4885
S'Udi0312'
p4886
asbasbasbag49
(g65
g51
NtRp4887
(dp4888
g54
(dp4889
sg63
g3375
sg56
(lp4890
g49
(g70
g51
NtRp4891
(dp4892
g54
(dp4893
g74
g75
ssg63
g4887
sg56
(lp4894
g2198
asbag49
(g70
g51
NtRp4895
(dp4896
g54
(dp4897
g81
g82
ssg63
g4887
sg56
(lp4898
S':'
asbag49
(g70
g51
NtRp4899
(dp4900
g54
(dp4901
sg63
g4887
sg56
(lp4902
g49
(g50
g51
NtRp4903
(dp4904
g54
(dp4905
g62
I5
ssg63
g4899
sg56
(lp4906
g2211
asbasbasbag49
(g65
g51
NtRp4907
(dp4908
g54
(dp4909
sg63
g3375
sg56
(lp4910
g49
(g70
g51
NtRp4911
(dp4912
g54
(dp4913
g74
g75
ssg63
g4907
sg56
(lp4914
S'view'
p4915
asbag49
(g70
g51
NtRp4916
(dp4917
g54
(dp4918
g81
g82
ssg63
g4907
sg56
(lp4919
S':'
asbag49
(g70
g51
NtRp4920
(dp4921
g54
(dp4922
sg63
g4907
sg56
(lp4923
g49
(g50
g51
NtRp4924
(dp4925
g54
(dp4926
g62
I5
ssg63
g4920
sg56
(lp4927
S'users/user.html'
p4928
asbasbasbasbasbsS'locals'
p4929
(dp4930
S'fromlist'
p4931
S'[]'
p4932
sS'name'
p4933
S"'boards'"
p4934
sg62
S'-1'
p4935
sS'self'
p4936
S'<gluon.custom_import._Web2pyImporter object at 0x240cd70>'
p4937
sS'globals'
p4938
S"{'A': <class 'gluon.html.A'>, 'Auth': <class 'gluon.tools.Auth'>, 'B': <class 'gluon.html.B'>, 'BEAUTIFY': <class 'gluon.html.BEAUTIFY'>, 'BODY': <class 'gluon.html.BODY'>, 'BR': <class 'gluon.html.BR'>, 'BUTTON': <class 'gluon.html.BUTTON'>, 'CAT': <class 'gluon.html.CAT'>, 'CENTER': <class 'gluon.html.CENTER'>, 'CLEANUP': <class 'gluon.validators.CLEANUP'>, ...}"
p4939
sg4929
S"{'A': <class 'gluon.html.A'>, 'Auth': <class 'gluon.tools.Auth'>, 'B': <class 'gluon.html.B'>, 'BEAUTIFY': <class 'gluon.html.BEAUTIFY'>, 'BODY': <class 'gluon.html.BODY'>, 'BR': <class 'gluon.html.BR'>, 'BUTTON': <class 'gluon.html.BUTTON'>, 'CAT': <class 'gluon.html.CAT'>, 'CENTER': <class 'gluon.html.CENTER'>, 'CLEANUP': <class 'gluon.validators.CLEANUP'>, ...}"
p4940
sssS'traceback'
p4941
S'Traceback (most recent call last):\n  File "/users/udimilo/Documents/web2py/gluon/restricted.py", line 205, in restricted\n    exec ccode in environment\n  File "/Users/udimilo/Documents/web2py/applications/udi0312/controllers/users.py", line 1, in <module>\n    import boards\n  File "/users/udimilo/Documents/web2py/gluon/custom_import.py", line 293, in __call__\n    fromlist, level)\n  File "/users/udimilo/Documents/web2py/gluon/custom_import.py", line 78, in __call__\n    level)\nImportError: No module named boards\n'
p4942
s.