(dp1
S'output'
p2
S"<type 'exceptions.KeyError'> 'select'"
p3
sS'layer'
p4
S'/Users/udimilo/Documents/web2py/applications/udi0312/controllers/default.py'
p5
sS'code'
p6
S'# -*- coding: utf-8 -*-\nfrom readability import Readability\nimport feedparser\nimport urlparse\nimport re\n\ndef get_pins(user):\n    boards = db(db.board.user==user.id).select() if user else []\n    pins = []\n    for board in boards:\n        pins.extend(board.pin.select())    \n    return pins\n\ndef index():\n    categories = db().select(db.category.ALL, orderby=db.category.name) if auth.user else []\n    boards = db(db.board.user==auth.user.id).select() if auth.user else []\n\n    if auth.user is None:\n        pins = db().select(db.pin.ALL, orderby=~db.pin.created_on)\n    else:\n        pins = get_pins(auth.user)\n        rels = db(db.user_user.follower == auth.user.id).select()\n        for r in rels:\n            pins.extend(get_pins(r.followee))\n        pins.sort(key=lambda x: x.created_on, reverse=True)\n        \n    return dict(pins=pins, categories=categories, boards=boards, show_pinner=True)\n\ndef all():\n    pins = db().select(db.pin.ALL, orderby=~db.pin.created_on)\n    return dict(pins=pins, show_pinner=True)\n    \ndef add_repin():\n    id = request.vars.id\n    board = db.board((db.board.user==auth.user.id)&(db.board.name==request.vars.repin_board)).select().first()\n    pin = db.pin(id)\n    new_pin = db.pin.insert(article=pin.article.id, board=board.id)\n    return new_pin.id\n\ndef add_board():\n    name = request.vars.boardName\n    if re.match(\'(^[\\w\\s.-]+$)\', name): #sanitize the name\n        category = db(db.category.name==request.vars.category).select().first()\n        board = db.board.insert(user=auth.user.id, category=category.id, name=request.vars.boardName)\n        return board.id\n\n    return \'please use only alpha numeric characters\'\n    \ndef add_article():\n    board = db(db.board.name==request.vars.board).select().first()\n    if board is None:\n        return \'You must choose a board first\'\n        \n    url = request.vars.url\n    article = db(db.article.url == url).select().first()\n    if article is None:\n        r = Readability()\n        json = r.content(url)\n        article = db.article.insert(\n            height=300,\n            url=json[\'url\'],\n            readability_url=json[\'short_url\'],\n            title=json[\'title\'],\n            content=json[\'content\'],\n            domain=json[\'domain\'],\n            author=json[\'author\'],\n            excerpt=json[\'excerpt\'],\n            word_count=json[\'word_count\'],\n            total_pages=json[\'total_pages\'],\n            date_published=json[\'date_published\'],\n            next_page_id=json[\'next_page_id\'],\n            rendered_pages=json[\'rendered_pages\'],            \n        )\n    \n    pin = db((db.pin.board == board.id) & (db.pin.article == article.id)).select().first()\n    if pin is None:\n        pin = db.pin.insert(board=board.id, article=article.id)\n    \n    return pin.id\n    \ndef test():\n    url = request.vars.url\n    feed = feedparser.parse(url)\n    c = 0\n    for item in feed[\'entries\']:\n        url = item.get(\'feedburner_origlink\')\n        if url is None:\n            url = item.get(\'link\')\n        \n        domain = urlparse.urlsplit(url).hostname\n        \n        date = item.get(\'updated\')\n        if date is None:\n            date=item.get(\'published\'),\n            \n        article = db.article.insert(\n            height=300,\n            author=item.get(\'author\'),\n            content=item.content[0].value.strip(),\n            url=url,\n            domain=domain,\n            date_published=date,\n            excerpt=item.get(\'summary\'),\n            title=item.get(\'title\'),\n            )\n    return feed\n                \ndef user():\n    """\n    exposes:\n    http://..../[app]/default/user/login\n    http://..../[app]/default/user/logout\n    http://..../[app]/default/user/register\n    http://..../[app]/default/user/profile\n    http://..../[app]/default/user/retrieve_password\n    http://..../[app]/default/user/change_password\n    use @auth.requires_login()\n        @auth.requires_membership(\'group name\')\n        @auth.requires_permission(\'read\',\'table name\',record_id)\n    to decorate functions that need access control\n    """\n    return dict(form=auth())\n\n\ndef download():\n    """\n    allows downloading of uploaded files\n    http://..../[app]/default/download/[filename]\n    """\n    return response.download(request,db)\n\n\ndef call():\n    """\n    exposes services. for example:\n    http://..../[app]/default/call/jsonrpc\n    decorate with @services.jsonrpc the functions to expose\n    supports xml, json, xmlrpc, jsonrpc, amfrpc, rss, csv\n    """\n    return service()\n\n\n@auth.requires_signature()\ndef data():\n    """\n    http://..../[app]/default/data/tables\n    http://..../[app]/default/data/create/[table]\n    http://..../[app]/default/data/read/[table]/[id]\n    http://..../[app]/default/data/update/[table]/[id]\n    http://..../[app]/default/data/delete/[table]/[id]\n    http://..../[app]/default/data/select/[table]\n    http://..../[app]/default/data/search/[table]\n    but URLs must be signed, i.e. linked with\n      A(\'table\',_href=URL(\'data/tables\',user_signature=True))\n    or with the signed load operator\n      LOAD(\'default\',\'data.load\',args=\'tables\',ajax=True,user_signature=True)\n    """\n    return dict(form=crud())\n\nresponse._vars=response._caller(add_repin)\n'
p7
sS'snapshot'
p8
(dp9
S'exception'
p10
(dp11
S'__hash__'
p12
S"<method-wrapper '__hash__' of exceptions.KeyError object at 0xa46db70>"
p13
sS'__setattr__'
p14
S"<method-wrapper '__setattr__' of exceptions.KeyError object at 0xa46db70>"
p15
sS'__reduce_ex__'
p16
S'<built-in method __reduce_ex__ of exceptions.KeyError object at 0xa46db70>'
p17
sS'__getslice__'
p18
S"<method-wrapper '__getslice__' of exceptions.KeyError object at 0xa46db70>"
p19
sS'__getitem__'
p20
S"<method-wrapper '__getitem__' of exceptions.KeyError object at 0xa46db70>"
p21
sS'__setstate__'
p22
S'<built-in method __setstate__ of exceptions.KeyError object at 0xa46db70>'
p23
sS'__reduce__'
p24
S'<built-in method __reduce__ of exceptions.KeyError object at 0xa46db70>'
p25
sS'__str__'
p26
S"<method-wrapper '__str__' of exceptions.KeyError object at 0xa46db70>"
p27
sS'args'
p28
S"('select',)"
p29
sS'__getattribute__'
p30
S"<method-wrapper '__getattribute__' of exceptions.KeyError object at 0xa46db70>"
p31
sS'__class__'
p32
S"<type 'exceptions.KeyError'>"
p33
sS'__delattr__'
p34
S"<method-wrapper '__delattr__' of exceptions.KeyError object at 0xa46db70>"
p35
sS'__repr__'
p36
S"<method-wrapper '__repr__' of exceptions.KeyError object at 0xa46db70>"
p37
sS'__dict__'
p38
S'{}'
p39
sS'__doc__'
p40
S"'Mapping key not found.'"
p41
sS'__init__'
p42
S"<method-wrapper '__init__' of exceptions.KeyError object at 0xa46db70>"
p43
sS'__new__'
p44
S'<built-in method __new__ of type object at 0xfff20>'
p45
ssS'evalue'
p46
S"'select'"
p47
sS'request'
p48
ccopy_reg
_reconstructor
p49
(cgluon.html
BEAUTIFY
p50
c__builtin__
object
p51
NtRp52
(dp53
S'attributes'
p54
(dp55
sS'components'
p56
(lp57
g49
(cgluon.html
TABLE
p58
g51
NtRp59
(dp60
g54
(dp61
S'level'
p62
I5
ssS'parent'
p63
Nsg56
(lp64
g49
(cgluon.html
TR
p65
g51
NtRp66
(dp67
g54
(dp68
sg63
g59
sg56
(lp69
g49
(cgluon.html
TD
p70
g51
NtRp71
(dp72
g54
(dp73
S'_style'
p74
S'font-weight:bold;vertical-align:top'
p75
ssg63
g66
sg56
(lp76
S'ajax'
p77
asbag49
(g70
g51
NtRp78
(dp79
g54
(dp80
S'_valign'
p81
S'top'
p82
ssg63
g66
sg56
(lp83
S':'
asbag49
(g70
g51
NtRp84
(dp85
g54
(dp86
sg63
g66
sg56
(lp87
g49
(g50
g51
NtRp88
(dp89
g54
(dp90
g62
I5
ssg63
g84
sg56
(lp91
S'True'
p92
asbasbasbag49
(g65
g51
NtRp93
(dp94
g54
(dp95
sg63
g59
sg56
(lp96
g49
(g70
g51
NtRp97
(dp98
g54
(dp99
g74
g75
ssg63
g93
sg56
(lp100
S'application'
p101
asbag49
(g70
g51
NtRp102
(dp103
g54
(dp104
g81
g82
ssg63
g93
sg56
(lp105
S':'
asbag49
(g70
g51
NtRp106
(dp107
g54
(dp108
sg63
g93
sg56
(lp109
g49
(g50
g51
NtRp110
(dp111
g54
(dp112
g62
I5
ssg63
g106
sg56
(lp113
S'udi0312'
p114
asbasbasbag49
(g65
g51
NtRp115
(dp116
g54
(dp117
sg63
g59
sg56
(lp118
g49
(g70
g51
NtRp119
(dp120
g54
(dp121
g74
g75
ssg63
g115
sg56
(lp122
g28
asbag49
(g70
g51
NtRp123
(dp124
g54
(dp125
g81
g82
ssg63
g115
sg56
(lp126
S':'
asbag49
(g70
g51
NtRp127
(dp128
g54
(dp129
sg63
g115
sg56
(lp130
g49
(g50
g51
NtRp131
(dp132
g54
(dp133
g62
I5
ssg63
g127
sg56
(lp134
g49
(g58
g51
NtRp135
(dp136
g54
(dp137
g62
I4
ssg63
Nsg56
(lp138
sbasbasbasbag49
(g65
g51
NtRp139
(dp140
g54
(dp141
sg63
g59
sg56
(lp142
g49
(g70
g51
NtRp143
(dp144
g54
(dp145
g74
g75
ssg63
g139
sg56
(lp146
S'body'
p147
asbag49
(g70
g51
NtRp148
(dp149
g54
(dp150
g81
g82
ssg63
g139
sg56
(lp151
S':'
asbag49
(g70
g51
NtRp152
(dp153
g54
(dp154
sg63
g139
sg56
(lp155
g49
(g50
g51
NtRp156
(dp157
g54
(dp158
g62
I5
ssg63
g152
sg56
(lp159
S"<open file '<fdopen>', mode 'w+b' at 0xa588410>"
p160
asbasbasbag49
(g65
g51
NtRp161
(dp162
g54
(dp163
sg63
g59
sg56
(lp164
g49
(g70
g51
NtRp165
(dp166
g54
(dp167
g74
g75
ssg63
g161
sg56
(lp168
S'client'
p169
asbag49
(g70
g51
NtRp170
(dp171
g54
(dp172
g81
g82
ssg63
g161
sg56
(lp173
S':'
asbag49
(g70
g51
NtRp174
(dp175
g54
(dp176
sg63
g161
sg56
(lp177
g49
(g50
g51
NtRp178
(dp179
g54
(dp180
g62
I5
ssg63
g174
sg56
(lp181
S'127.0.0.1'
p182
asbasbasbag49
(g65
g51
NtRp183
(dp184
g54
(dp185
sg63
g59
sg56
(lp186
g49
(g70
g51
NtRp187
(dp188
g54
(dp189
g74
g75
ssg63
g183
sg56
(lp190
S'controller'
p191
asbag49
(g70
g51
NtRp192
(dp193
g54
(dp194
g81
g82
ssg63
g183
sg56
(lp195
S':'
asbag49
(g70
g51
NtRp196
(dp197
g54
(dp198
sg63
g183
sg56
(lp199
g49
(g50
g51
NtRp200
(dp201
g54
(dp202
g62
I5
ssg63
g196
sg56
(lp203
S'default'
p204
asbasbasbag49
(g65
g51
NtRp205
(dp206
g54
(dp207
sg63
g59
sg56
(lp208
g49
(g70
g51
NtRp209
(dp210
g54
(dp211
g74
g75
ssg63
g205
sg56
(lp212
S'cookies'
p213
asbag49
(g70
g51
NtRp214
(dp215
g54
(dp216
g81
g82
ssg63
g205
sg56
(lp217
S':'
asbag49
(g70
g51
NtRp218
(dp219
g54
(dp220
sg63
g205
sg56
(lp221
g49
(g50
g51
NtRp222
(dp223
g54
(dp224
g62
I5
ssg63
g218
sg56
(lp225
g49
(g58
g51
NtRp226
(dp227
g54
(dp228
g62
I4
ssg63
Nsg56
(lp229
g49
(g65
g51
NtRp230
(dp231
g54
(dp232
sg63
g226
sg56
(lp233
g49
(g70
g51
NtRp234
(dp235
g54
(dp236
g74
g75
ssg63
g230
sg56
(lp237
S'session_id_admin'
p238
asbag49
(g70
g51
NtRp239
(dp240
g54
(dp241
g81
g82
ssg63
g230
sg56
(lp242
S':'
asbag49
(g70
g51
NtRp243
(dp244
g54
(dp245
sg63
g230
sg56
(lp246
g49
(g50
g51
NtRp247
(dp248
g54
(dp249
g62
I4
ssg63
g243
sg56
(lp250
g49
(g58
g51
NtRp251
(dp252
g54
(dp253
g62
I3
ssg63
Nsg56
(lp254
g49
(g65
g51
NtRp255
(dp256
g54
(dp257
sg63
g251
sg56
(lp258
g49
(g70
g51
NtRp259
(dp260
g54
(dp261
g74
g75
ssg63
g255
sg56
(lp262
S'comment'
p263
asbag49
(g70
g51
NtRp264
(dp265
g54
(dp266
g81
g82
ssg63
g255
sg56
(lp267
S':'
asbag49
(g70
g51
NtRp268
(dp269
g54
(dp270
sg63
g255
sg56
(lp271
g49
(g50
g51
NtRp272
(dp273
g54
(dp274
g62
I3
ssg63
g268
sg56
(lp275
S''
asbasbasbag49
(g65
g51
NtRp276
(dp277
g54
(dp278
sg63
g251
sg56
(lp279
g49
(g70
g51
NtRp280
(dp281
g54
(dp282
g74
g75
ssg63
g276
sg56
(lp283
S'domain'
p284
asbag49
(g70
g51
NtRp285
(dp286
g54
(dp287
g81
g82
ssg63
g276
sg56
(lp288
S':'
asbag49
(g70
g51
NtRp289
(dp290
g54
(dp291
sg63
g276
sg56
(lp292
g49
(g50
g51
NtRp293
(dp294
g54
(dp295
g62
I3
ssg63
g289
sg56
(lp296
S''
asbasbasbag49
(g65
g51
NtRp297
(dp298
g54
(dp299
sg63
g251
sg56
(lp300
g49
(g70
g51
NtRp301
(dp302
g54
(dp303
g74
g75
ssg63
g297
sg56
(lp304
S'expires'
p305
asbag49
(g70
g51
NtRp306
(dp307
g54
(dp308
g81
g82
ssg63
g297
sg56
(lp309
S':'
asbag49
(g70
g51
NtRp310
(dp311
g54
(dp312
sg63
g297
sg56
(lp313
g49
(g50
g51
NtRp314
(dp315
g54
(dp316
g62
I3
ssg63
g310
sg56
(lp317
S''
asbasbasbag49
(g65
g51
NtRp318
(dp319
g54
(dp320
sg63
g251
sg56
(lp321
g49
(g70
g51
NtRp322
(dp323
g54
(dp324
g74
g75
ssg63
g318
sg56
(lp325
S'max-age'
p326
asbag49
(g70
g51
NtRp327
(dp328
g54
(dp329
g81
g82
ssg63
g318
sg56
(lp330
S':'
asbag49
(g70
g51
NtRp331
(dp332
g54
(dp333
sg63
g318
sg56
(lp334
g49
(g50
g51
NtRp335
(dp336
g54
(dp337
g62
I3
ssg63
g331
sg56
(lp338
S''
asbasbasbag49
(g65
g51
NtRp339
(dp340
g54
(dp341
sg63
g251
sg56
(lp342
g49
(g70
g51
NtRp343
(dp344
g54
(dp345
g74
g75
ssg63
g339
sg56
(lp346
S'path'
p347
asbag49
(g70
g51
NtRp348
(dp349
g54
(dp350
g81
g82
ssg63
g339
sg56
(lp351
S':'
asbag49
(g70
g51
NtRp352
(dp353
g54
(dp354
sg63
g339
sg56
(lp355
g49
(g50
g51
NtRp356
(dp357
g54
(dp358
g62
I3
ssg63
g352
sg56
(lp359
S''
asbasbasbag49
(g65
g51
NtRp360
(dp361
g54
(dp362
sg63
g251
sg56
(lp363
g49
(g70
g51
NtRp364
(dp365
g54
(dp366
g74
g75
ssg63
g360
sg56
(lp367
S'secure'
p368
asbag49
(g70
g51
NtRp369
(dp370
g54
(dp371
g81
g82
ssg63
g360
sg56
(lp372
S':'
asbag49
(g70
g51
NtRp373
(dp374
g54
(dp375
sg63
g360
sg56
(lp376
g49
(g50
g51
NtRp377
(dp378
g54
(dp379
g62
I3
ssg63
g373
sg56
(lp380
S''
asbasbasbag49
(g65
g51
NtRp381
(dp382
g54
(dp383
sg63
g251
sg56
(lp384
g49
(g70
g51
NtRp385
(dp386
g54
(dp387
g74
g75
ssg63
g381
sg56
(lp388
S'version'
p389
asbag49
(g70
g51
NtRp390
(dp391
g54
(dp392
g81
g82
ssg63
g381
sg56
(lp393
S':'
asbag49
(g70
g51
NtRp394
(dp395
g54
(dp396
sg63
g381
sg56
(lp397
g49
(g50
g51
NtRp398
(dp399
g54
(dp400
g62
I3
ssg63
g394
sg56
(lp401
S''
asbasbasbasbasbasbasbag49
(g65
g51
NtRp402
(dp403
g54
(dp404
sg63
g226
sg56
(lp405
g49
(g70
g51
NtRp406
(dp407
g54
(dp408
g74
g75
ssg63
g402
sg56
(lp409
S'session_id_udi0312'
p410
asbag49
(g70
g51
NtRp411
(dp412
g54
(dp413
g81
g82
ssg63
g402
sg56
(lp414
S':'
asbag49
(g70
g51
NtRp415
(dp416
g54
(dp417
sg63
g402
sg56
(lp418
g49
(g50
g51
NtRp419
(dp420
g54
(dp421
g62
I4
ssg63
g415
sg56
(lp422
g49
(g58
g51
NtRp423
(dp424
g54
(dp425
g62
I3
ssg63
Nsg56
(lp426
g49
(g65
g51
NtRp427
(dp428
g54
(dp429
sg63
g423
sg56
(lp430
g49
(g70
g51
NtRp431
(dp432
g54
(dp433
g74
g75
ssg63
g427
sg56
(lp434
g263
asbag49
(g70
g51
NtRp435
(dp436
g54
(dp437
g81
g82
ssg63
g427
sg56
(lp438
S':'
asbag49
(g70
g51
NtRp439
(dp440
g54
(dp441
sg63
g427
sg56
(lp442
g49
(g50
g51
NtRp443
(dp444
g54
(dp445
g62
I3
ssg63
g439
sg56
(lp446
S''
asbasbasbag49
(g65
g51
NtRp447
(dp448
g54
(dp449
sg63
g423
sg56
(lp450
g49
(g70
g51
NtRp451
(dp452
g54
(dp453
g74
g75
ssg63
g447
sg56
(lp454
g284
asbag49
(g70
g51
NtRp455
(dp456
g54
(dp457
g81
g82
ssg63
g447
sg56
(lp458
S':'
asbag49
(g70
g51
NtRp459
(dp460
g54
(dp461
sg63
g447
sg56
(lp462
g49
(g50
g51
NtRp463
(dp464
g54
(dp465
g62
I3
ssg63
g459
sg56
(lp466
S''
asbasbasbag49
(g65
g51
NtRp467
(dp468
g54
(dp469
sg63
g423
sg56
(lp470
g49
(g70
g51
NtRp471
(dp472
g54
(dp473
g74
g75
ssg63
g467
sg56
(lp474
g305
asbag49
(g70
g51
NtRp475
(dp476
g54
(dp477
g81
g82
ssg63
g467
sg56
(lp478
S':'
asbag49
(g70
g51
NtRp479
(dp480
g54
(dp481
sg63
g467
sg56
(lp482
g49
(g50
g51
NtRp483
(dp484
g54
(dp485
g62
I3
ssg63
g479
sg56
(lp486
S''
asbasbasbag49
(g65
g51
NtRp487
(dp488
g54
(dp489
sg63
g423
sg56
(lp490
g49
(g70
g51
NtRp491
(dp492
g54
(dp493
g74
g75
ssg63
g487
sg56
(lp494
g326
asbag49
(g70
g51
NtRp495
(dp496
g54
(dp497
g81
g82
ssg63
g487
sg56
(lp498
S':'
asbag49
(g70
g51
NtRp499
(dp500
g54
(dp501
sg63
g487
sg56
(lp502
g49
(g50
g51
NtRp503
(dp504
g54
(dp505
g62
I3
ssg63
g499
sg56
(lp506
S''
asbasbasbag49
(g65
g51
NtRp507
(dp508
g54
(dp509
sg63
g423
sg56
(lp510
g49
(g70
g51
NtRp511
(dp512
g54
(dp513
g74
g75
ssg63
g507
sg56
(lp514
g347
asbag49
(g70
g51
NtRp515
(dp516
g54
(dp517
g81
g82
ssg63
g507
sg56
(lp518
S':'
asbag49
(g70
g51
NtRp519
(dp520
g54
(dp521
sg63
g507
sg56
(lp522
g49
(g50
g51
NtRp523
(dp524
g54
(dp525
g62
I3
ssg63
g519
sg56
(lp526
S''
asbasbasbag49
(g65
g51
NtRp527
(dp528
g54
(dp529
sg63
g423
sg56
(lp530
g49
(g70
g51
NtRp531
(dp532
g54
(dp533
g74
g75
ssg63
g527
sg56
(lp534
g368
asbag49
(g70
g51
NtRp535
(dp536
g54
(dp537
g81
g82
ssg63
g527
sg56
(lp538
S':'
asbag49
(g70
g51
NtRp539
(dp540
g54
(dp541
sg63
g527
sg56
(lp542
g49
(g50
g51
NtRp543
(dp544
g54
(dp545
g62
I3
ssg63
g539
sg56
(lp546
S''
asbasbasbag49
(g65
g51
NtRp547
(dp548
g54
(dp549
sg63
g423
sg56
(lp550
g49
(g70
g51
NtRp551
(dp552
g54
(dp553
g74
g75
ssg63
g547
sg56
(lp554
g389
asbag49
(g70
g51
NtRp555
(dp556
g54
(dp557
g81
g82
ssg63
g547
sg56
(lp558
S':'
asbag49
(g70
g51
NtRp559
(dp560
g54
(dp561
sg63
g547
sg56
(lp562
g49
(g50
g51
NtRp563
(dp564
g54
(dp565
g62
I3
ssg63
g559
sg56
(lp566
S''
asbasbasbasbasbasbasbasbasbasbasbag49
(g65
g51
NtRp567
(dp568
g54
(dp569
sg63
g59
sg56
(lp570
g49
(g70
g51
NtRp571
(dp572
g54
(dp573
g74
g75
ssg63
g567
sg56
(lp574
S'env'
p575
asbag49
(g70
g51
NtRp576
(dp577
g54
(dp578
g81
g82
ssg63
g567
sg56
(lp579
S':'
asbag49
(g70
g51
NtRp580
(dp581
g54
(dp582
sg63
g567
sg56
(lp583
g49
(g50
g51
NtRp584
(dp585
g54
(dp586
g62
I5
ssg63
g580
sg56
(lp587
g49
(g58
g51
NtRp588
(dp589
g54
(dp590
g62
I4
ssg63
Nsg56
(lp591
g49
(g65
g51
NtRp592
(dp593
g54
(dp594
sg63
g588
sg56
(lp595
g49
(g70
g51
NtRp596
(dp597
g54
(dp598
g74
g75
ssg63
g592
sg56
(lp599
S'app_folders'
p600
asbag49
(g70
g51
NtRp601
(dp602
g54
(dp603
g81
g82
ssg63
g592
sg56
(lp604
S':'
asbag49
(g70
g51
NtRp605
(dp606
g54
(dp607
sg63
g592
sg56
(lp608
g49
(g50
g51
NtRp609
(dp610
g54
(dp611
g62
I4
ssg63
g605
sg56
(lp612
S"set(['/Users/udimilo/Documents/web2py/applications/udi0312/', '/Users/udimilo/Documents/web2py/applications/admin/'])"
p613
asbasbasbag49
(g65
g51
NtRp614
(dp615
g54
(dp616
sg63
g588
sg56
(lp617
g49
(g70
g51
NtRp618
(dp619
g54
(dp620
g74
g75
ssg63
g614
sg56
(lp621
S'applications_parent'
p622
asbag49
(g70
g51
NtRp623
(dp624
g54
(dp625
g81
g82
ssg63
g614
sg56
(lp626
S':'
asbag49
(g70
g51
NtRp627
(dp628
g54
(dp629
sg63
g614
sg56
(lp630
g49
(g50
g51
NtRp631
(dp632
g54
(dp633
g62
I4
ssg63
g627
sg56
(lp634
S'/Users/udimilo/Documents/web2py'
p635
asbasbasbag49
(g65
g51
NtRp636
(dp637
g54
(dp638
sg63
g588
sg56
(lp639
g49
(g70
g51
NtRp640
(dp641
g54
(dp642
g74
g75
ssg63
g636
sg56
(lp643
S'cmd_args'
p644
asbag49
(g70
g51
NtRp645
(dp646
g54
(dp647
g81
g82
ssg63
g636
sg56
(lp648
S':'
asbag49
(g70
g51
NtRp649
(dp650
g54
(dp651
sg63
g636
sg56
(lp652
g49
(g50
g51
NtRp653
(dp654
g54
(dp655
g62
I4
ssg63
g649
sg56
(lp656
g49
(g58
g51
NtRp657
(dp658
g54
(dp659
g62
I3
ssg63
Nsg56
(lp660
sbasbasbasbag49
(g65
g51
NtRp661
(dp662
g54
(dp663
sg63
g588
sg56
(lp664
g49
(g70
g51
NtRp665
(dp666
g54
(dp667
g74
g75
ssg63
g661
sg56
(lp668
S'cmd_options'
p669
asbag49
(g70
g51
NtRp670
(dp671
g54
(dp672
g81
g82
ssg63
g661
sg56
(lp673
S':'
asbag49
(g70
g51
NtRp674
(dp675
g54
(dp676
sg63
g661
sg56
(lp677
g49
(g50
g51
NtRp678
(dp679
g54
(dp680
g62
I4
ssg63
g674
sg56
(lp681
S"<Values at 0x23196e8: {'verbose': False, 'ip': '127.0.0.1', 'shutdown_timeout': 5, 'taskbar': False, 'nocron': False, 'pid_filename': 'httpserver.pid', 'maxthreads': None, 'softcron': False, 'server_name': 'Udi-Milos-MacBook-Pro.local', 'bpython': False, 'nogui': False, 'port': 8000, 'extcron': False, 'debuglevel': 30, 'test': None, 'folder': '/Users/udimilo/Documents/web2py', 'config': '', 'import_models': False, 'winservice': '', 'shell': None, 'run': '', 'log_filename': 'httpserver.log', 'args': [''], 'socket_timeout': 5, 'ssl_ca_certificate': None, 'scheduler': None, 'profiler_filename': None, 'ssl_private_key': '', 'password': '<ask>', 'request_queue_size': 5, 'ssl_certificate': '', 'cronjob': False, 'numthreads': None, 'quiet': False, 'interfaces': None, 'minthreads': None, 'timeout': 10, 'plain': False, 'nobanner': False}>"
p682
asbasbasbag49
(g65
g51
NtRp683
(dp684
g54
(dp685
sg63
g588
sg56
(lp686
g49
(g70
g51
NtRp687
(dp688
g54
(dp689
g74
g75
ssg63
g683
sg56
(lp690
S'content_length'
p691
asbag49
(g70
g51
NtRp692
(dp693
g54
(dp694
g81
g82
ssg63
g683
sg56
(lp695
S':'
asbag49
(g70
g51
NtRp696
(dp697
g54
(dp698
sg63
g683
sg56
(lp699
g49
(g50
g51
NtRp700
(dp701
g54
(dp702
g62
I4
ssg63
g696
sg56
(lp703
S'22'
p704
asbasbasbag49
(g65
g51
NtRp705
(dp706
g54
(dp707
sg63
g588
sg56
(lp708
g49
(g70
g51
NtRp709
(dp710
g54
(dp711
g74
g75
ssg63
g705
sg56
(lp712
S'content_type'
p713
asbag49
(g70
g51
NtRp714
(dp715
g54
(dp716
g81
g82
ssg63
g705
sg56
(lp717
S':'
asbag49
(g70
g51
NtRp718
(dp719
g54
(dp720
sg63
g705
sg56
(lp721
g49
(g50
g51
NtRp722
(dp723
g54
(dp724
g62
I4
ssg63
g718
sg56
(lp725
S'application/x-www-form-urlencoded'
p726
asbasbasbag49
(g65
g51
NtRp727
(dp728
g54
(dp729
sg63
g588
sg56
(lp730
g49
(g70
g51
NtRp731
(dp732
g54
(dp733
g74
g75
ssg63
g727
sg56
(lp734
S'db_sessions'
p735
asbag49
(g70
g51
NtRp736
(dp737
g54
(dp738
g81
g82
ssg63
g727
sg56
(lp739
S':'
asbag49
(g70
g51
NtRp740
(dp741
g54
(dp742
sg63
g727
sg56
(lp743
g49
(g50
g51
NtRp744
(dp745
g54
(dp746
g62
I4
ssg63
g740
sg56
(lp747
S'set([])'
p748
asbasbasbag49
(g65
g51
NtRp749
(dp750
g54
(dp751
sg63
g588
sg56
(lp752
g49
(g70
g51
NtRp753
(dp754
g54
(dp755
g74
g75
ssg63
g749
sg56
(lp756
S'debugging'
p757
asbag49
(g70
g51
NtRp758
(dp759
g54
(dp760
g81
g82
ssg63
g749
sg56
(lp761
S':'
asbag49
(g70
g51
NtRp762
(dp763
g54
(dp764
sg63
g749
sg56
(lp765
g49
(g50
g51
NtRp766
(dp767
g54
(dp768
g62
I4
ssg63
g762
sg56
(lp769
S'False'
p770
asbasbasbag49
(g65
g51
NtRp771
(dp772
g54
(dp773
sg63
g588
sg56
(lp774
g49
(g70
g51
NtRp775
(dp776
g54
(dp777
g74
g75
ssg63
g771
sg56
(lp778
S'gluon_parent'
p779
asbag49
(g70
g51
NtRp780
(dp781
g54
(dp782
g81
g82
ssg63
g771
sg56
(lp783
S':'
asbag49
(g70
g51
NtRp784
(dp785
g54
(dp786
sg63
g771
sg56
(lp787
g49
(g50
g51
NtRp788
(dp789
g54
(dp790
g62
I4
ssg63
g784
sg56
(lp791
S'/Users/udimilo/Documents/web2py'
p792
asbasbasbag49
(g65
g51
NtRp793
(dp794
g54
(dp795
sg63
g588
sg56
(lp796
g49
(g70
g51
NtRp797
(dp798
g54
(dp799
g74
g75
ssg63
g793
sg56
(lp800
S'http_accept'
p801
asbag49
(g70
g51
NtRp802
(dp803
g54
(dp804
g81
g82
ssg63
g793
sg56
(lp805
S':'
asbag49
(g70
g51
NtRp806
(dp807
g54
(dp808
sg63
g793
sg56
(lp809
g49
(g50
g51
NtRp810
(dp811
g54
(dp812
g62
I4
ssg63
g806
sg56
(lp813
S'*/*'
p814
asbasbasbag49
(g65
g51
NtRp815
(dp816
g54
(dp817
sg63
g588
sg56
(lp818
g49
(g70
g51
NtRp819
(dp820
g54
(dp821
g74
g75
ssg63
g815
sg56
(lp822
S'http_accept_charset'
p823
asbag49
(g70
g51
NtRp824
(dp825
g54
(dp826
g81
g82
ssg63
g815
sg56
(lp827
S':'
asbag49
(g70
g51
NtRp828
(dp829
g54
(dp830
sg63
g815
sg56
(lp831
g49
(g50
g51
NtRp832
(dp833
g54
(dp834
g62
I4
ssg63
g828
sg56
(lp835
S'ISO-8859-1,utf-8;q=0.7,*;q=0.3'
p836
asbasbasbag49
(g65
g51
NtRp837
(dp838
g54
(dp839
sg63
g588
sg56
(lp840
g49
(g70
g51
NtRp841
(dp842
g54
(dp843
g74
g75
ssg63
g837
sg56
(lp844
S'http_accept_encoding'
p845
asbag49
(g70
g51
NtRp846
(dp847
g54
(dp848
g81
g82
ssg63
g837
sg56
(lp849
S':'
asbag49
(g70
g51
NtRp850
(dp851
g54
(dp852
sg63
g837
sg56
(lp853
g49
(g50
g51
NtRp854
(dp855
g54
(dp856
g62
I4
ssg63
g850
sg56
(lp857
S'gzip,deflate,sdch'
p858
asbasbasbag49
(g65
g51
NtRp859
(dp860
g54
(dp861
sg63
g588
sg56
(lp862
g49
(g70
g51
NtRp863
(dp864
g54
(dp865
g74
g75
ssg63
g859
sg56
(lp866
S'http_accept_language'
p867
asbag49
(g70
g51
NtRp868
(dp869
g54
(dp870
g81
g82
ssg63
g859
sg56
(lp871
S':'
asbag49
(g70
g51
NtRp872
(dp873
g54
(dp874
sg63
g859
sg56
(lp875
g49
(g50
g51
NtRp876
(dp877
g54
(dp878
g62
I4
ssg63
g872
sg56
(lp879
S'en-US,en;q=0.8'
p880
asbasbasbag49
(g65
g51
NtRp881
(dp882
g54
(dp883
sg63
g588
sg56
(lp884
g49
(g70
g51
NtRp885
(dp886
g54
(dp887
g74
g75
ssg63
g881
sg56
(lp888
S'http_connection'
p889
asbag49
(g70
g51
NtRp890
(dp891
g54
(dp892
g81
g82
ssg63
g881
sg56
(lp893
S':'
asbag49
(g70
g51
NtRp894
(dp895
g54
(dp896
sg63
g881
sg56
(lp897
g49
(g50
g51
NtRp898
(dp899
g54
(dp900
g62
I4
ssg63
g894
sg56
(lp901
S'keep-alive'
p902
asbasbasbag49
(g65
g51
NtRp903
(dp904
g54
(dp905
sg63
g588
sg56
(lp906
g49
(g70
g51
NtRp907
(dp908
g54
(dp909
g74
g75
ssg63
g903
sg56
(lp910
S'http_content_length'
p911
asbag49
(g70
g51
NtRp912
(dp913
g54
(dp914
g81
g82
ssg63
g903
sg56
(lp915
S':'
asbag49
(g70
g51
NtRp916
(dp917
g54
(dp918
sg63
g903
sg56
(lp919
g49
(g50
g51
NtRp920
(dp921
g54
(dp922
g62
I4
ssg63
g916
sg56
(lp923
g704
asbasbasbag49
(g65
g51
NtRp924
(dp925
g54
(dp926
sg63
g588
sg56
(lp927
g49
(g70
g51
NtRp928
(dp929
g54
(dp930
g74
g75
ssg63
g924
sg56
(lp931
S'http_content_type'
p932
asbag49
(g70
g51
NtRp933
(dp934
g54
(dp935
g81
g82
ssg63
g924
sg56
(lp936
S':'
asbag49
(g70
g51
NtRp937
(dp938
g54
(dp939
sg63
g924
sg56
(lp940
g49
(g50
g51
NtRp941
(dp942
g54
(dp943
g62
I4
ssg63
g937
sg56
(lp944
g726
asbasbasbag49
(g65
g51
NtRp945
(dp946
g54
(dp947
sg63
g588
sg56
(lp948
g49
(g70
g51
NtRp949
(dp950
g54
(dp951
g74
g75
ssg63
g945
sg56
(lp952
S'http_cookie'
p953
asbag49
(g70
g51
NtRp954
(dp955
g54
(dp956
g81
g82
ssg63
g945
sg56
(lp957
S':'
asbag49
(g70
g51
NtRp958
(dp959
g54
(dp960
sg63
g945
sg56
(lp961
g49
(g50
g51
NtRp962
(dp963
g54
(dp964
g62
I4
ssg63
g958
sg56
(lp965
S'session_id_admin=127.0.0.1-f47c4092-5f2e-4786-84da-d4c3b1abe704; session_id_udi0312=127.0.0.1-fcd6a577-d448-4882-b7bc-f353da84ba3b'
p966
asbasbasbag49
(g65
g51
NtRp967
(dp968
g54
(dp969
sg63
g588
sg56
(lp970
g49
(g70
g51
NtRp971
(dp972
g54
(dp973
g74
g75
ssg63
g967
sg56
(lp974
S'http_host'
p975
asbag49
(g70
g51
NtRp976
(dp977
g54
(dp978
g81
g82
ssg63
g967
sg56
(lp979
S':'
asbag49
(g70
g51
NtRp980
(dp981
g54
(dp982
sg63
g967
sg56
(lp983
g49
(g50
g51
NtRp984
(dp985
g54
(dp986
g62
I4
ssg63
g980
sg56
(lp987
S'127.0.0.1:8000'
p988
asbasbasbag49
(g65
g51
NtRp989
(dp990
g54
(dp991
sg63
g588
sg56
(lp992
g49
(g70
g51
NtRp993
(dp994
g54
(dp995
g74
g75
ssg63
g989
sg56
(lp996
S'http_origin'
p997
asbag49
(g70
g51
NtRp998
(dp999
g54
(dp1000
g81
g82
ssg63
g989
sg56
(lp1001
S':'
asbag49
(g70
g51
NtRp1002
(dp1003
g54
(dp1004
sg63
g989
sg56
(lp1005
g49
(g50
g51
NtRp1006
(dp1007
g54
(dp1008
g62
I4
ssg63
g1002
sg56
(lp1009
S'http://127.0.0.1:8000'
p1010
asbasbasbag49
(g65
g51
NtRp1011
(dp1012
g54
(dp1013
sg63
g588
sg56
(lp1014
g49
(g70
g51
NtRp1015
(dp1016
g54
(dp1017
g74
g75
ssg63
g1011
sg56
(lp1018
S'http_referer'
p1019
asbag49
(g70
g51
NtRp1020
(dp1021
g54
(dp1022
g81
g82
ssg63
g1011
sg56
(lp1023
S':'
asbag49
(g70
g51
NtRp1024
(dp1025
g54
(dp1026
sg63
g1011
sg56
(lp1027
g49
(g50
g51
NtRp1028
(dp1029
g54
(dp1030
g62
I4
ssg63
g1024
sg56
(lp1031
S'http://127.0.0.1:8000/'
p1032
asbasbasbag49
(g65
g51
NtRp1033
(dp1034
g54
(dp1035
sg63
g588
sg56
(lp1036
g49
(g70
g51
NtRp1037
(dp1038
g54
(dp1039
g74
g75
ssg63
g1033
sg56
(lp1040
S'http_user_agent'
p1041
asbag49
(g70
g51
NtRp1042
(dp1043
g54
(dp1044
g81
g82
ssg63
g1033
sg56
(lp1045
S':'
asbag49
(g70
g51
NtRp1046
(dp1047
g54
(dp1048
sg63
g1033
sg56
(lp1049
g49
(g50
g51
NtRp1050
(dp1051
g54
(dp1052
g62
I4
ssg63
g1046
sg56
(lp1053
S'Mozilla/5.0 (Macintosh; Intel Mac OS X 10_7_3) AppleWebKit/535.11 (KHTML, like Gecko) Chrome/17.0.963.79 Safari/535.11'
p1054
asbasbasbag49
(g65
g51
NtRp1055
(dp1056
g54
(dp1057
sg63
g588
sg56
(lp1058
g49
(g70
g51
NtRp1059
(dp1060
g54
(dp1061
g74
g75
ssg63
g1055
sg56
(lp1062
S'http_x_requested_with'
p1063
asbag49
(g70
g51
NtRp1064
(dp1065
g54
(dp1066
g81
g82
ssg63
g1055
sg56
(lp1067
S':'
asbag49
(g70
g51
NtRp1068
(dp1069
g54
(dp1070
sg63
g1055
sg56
(lp1071
g49
(g50
g51
NtRp1072
(dp1073
g54
(dp1074
g62
I4
ssg63
g1068
sg56
(lp1075
S'XMLHttpRequest'
p1076
asbasbasbag49
(g65
g51
NtRp1077
(dp1078
g54
(dp1079
sg63
g588
sg56
(lp1080
g49
(g70
g51
NtRp1081
(dp1082
g54
(dp1083
g74
g75
ssg63
g1077
sg56
(lp1084
S'is_jython'
p1085
asbag49
(g70
g51
NtRp1086
(dp1087
g54
(dp1088
g81
g82
ssg63
g1077
sg56
(lp1089
S':'
asbag49
(g70
g51
NtRp1090
(dp1091
g54
(dp1092
sg63
g1077
sg56
(lp1093
g49
(g50
g51
NtRp1094
(dp1095
g54
(dp1096
g62
I4
ssg63
g1090
sg56
(lp1097
g770
asbasbasbag49
(g65
g51
NtRp1098
(dp1099
g54
(dp1100
sg63
g588
sg56
(lp1101
g49
(g70
g51
NtRp1102
(dp1103
g54
(dp1104
g74
g75
ssg63
g1098
sg56
(lp1105
S'is_pypy'
p1106
asbag49
(g70
g51
NtRp1107
(dp1108
g54
(dp1109
g81
g82
ssg63
g1098
sg56
(lp1110
S':'
asbag49
(g70
g51
NtRp1111
(dp1112
g54
(dp1113
sg63
g1098
sg56
(lp1114
g49
(g50
g51
NtRp1115
(dp1116
g54
(dp1117
g62
I4
ssg63
g1111
sg56
(lp1118
g770
asbasbasbag49
(g65
g51
NtRp1119
(dp1120
g54
(dp1121
sg63
g588
sg56
(lp1122
g49
(g70
g51
NtRp1123
(dp1124
g54
(dp1125
g74
g75
ssg63
g1119
sg56
(lp1126
S'path_info'
p1127
asbag49
(g70
g51
NtRp1128
(dp1129
g54
(dp1130
g81
g82
ssg63
g1119
sg56
(lp1131
S':'
asbag49
(g70
g51
NtRp1132
(dp1133
g54
(dp1134
sg63
g1119
sg56
(lp1135
g49
(g50
g51
NtRp1136
(dp1137
g54
(dp1138
g62
I4
ssg63
g1132
sg56
(lp1139
S'/udi0312/default/add_repin'
p1140
asbasbasbag49
(g65
g51
NtRp1141
(dp1142
g54
(dp1143
sg63
g588
sg56
(lp1144
g49
(g70
g51
NtRp1145
(dp1146
g54
(dp1147
g74
g75
ssg63
g1141
sg56
(lp1148
S'query_string'
p1149
asbag49
(g70
g51
NtRp1150
(dp1151
g54
(dp1152
g81
g82
ssg63
g1141
sg56
(lp1153
S':'
asbag49
(g70
g51
NtRp1154
(dp1155
g54
(dp1156
sg63
g1141
sg56
(lp1157
g49
(g50
g51
NtRp1158
(dp1159
g54
(dp1160
g62
I4
ssg63
g1154
sg56
(lp1161
S''
asbasbasbag49
(g65
g51
NtRp1162
(dp1163
g54
(dp1164
sg63
g588
sg56
(lp1165
g49
(g70
g51
NtRp1166
(dp1167
g54
(dp1168
g74
g75
ssg63
g1162
sg56
(lp1169
S'remote_addr'
p1170
asbag49
(g70
g51
NtRp1171
(dp1172
g54
(dp1173
g81
g82
ssg63
g1162
sg56
(lp1174
S':'
asbag49
(g70
g51
NtRp1175
(dp1176
g54
(dp1177
sg63
g1162
sg56
(lp1178
g49
(g50
g51
NtRp1179
(dp1180
g54
(dp1181
g62
I4
ssg63
g1175
sg56
(lp1182
g182
asbasbasbag49
(g65
g51
NtRp1183
(dp1184
g54
(dp1185
sg63
g588
sg56
(lp1186
g49
(g70
g51
NtRp1187
(dp1188
g54
(dp1189
g74
g75
ssg63
g1183
sg56
(lp1190
S'remote_port'
p1191
asbag49
(g70
g51
NtRp1192
(dp1193
g54
(dp1194
g81
g82
ssg63
g1183
sg56
(lp1195
S':'
asbag49
(g70
g51
NtRp1196
(dp1197
g54
(dp1198
sg63
g1183
sg56
(lp1199
g49
(g50
g51
NtRp1200
(dp1201
g54
(dp1202
g62
I4
ssg63
g1196
sg56
(lp1203
S'55444'
p1204
asbasbasbag49
(g65
g51
NtRp1205
(dp1206
g54
(dp1207
sg63
g588
sg56
(lp1208
g49
(g70
g51
NtRp1209
(dp1210
g54
(dp1211
g74
g75
ssg63
g1205
sg56
(lp1212
S'request_method'
p1213
asbag49
(g70
g51
NtRp1214
(dp1215
g54
(dp1216
g81
g82
ssg63
g1205
sg56
(lp1217
S':'
asbag49
(g70
g51
NtRp1218
(dp1219
g54
(dp1220
sg63
g1205
sg56
(lp1221
g49
(g50
g51
NtRp1222
(dp1223
g54
(dp1224
g62
I4
ssg63
g1218
sg56
(lp1225
S'POST'
p1226
asbasbasbag49
(g65
g51
NtRp1227
(dp1228
g54
(dp1229
sg63
g588
sg56
(lp1230
g49
(g70
g51
NtRp1231
(dp1232
g54
(dp1233
g74
g75
ssg63
g1227
sg56
(lp1234
S'request_uri'
p1235
asbag49
(g70
g51
NtRp1236
(dp1237
g54
(dp1238
g81
g82
ssg63
g1227
sg56
(lp1239
S':'
asbag49
(g70
g51
NtRp1240
(dp1241
g54
(dp1242
sg63
g1227
sg56
(lp1243
g49
(g50
g51
NtRp1244
(dp1245
g54
(dp1246
g62
I4
ssg63
g1240
sg56
(lp1247
g1140
asbasbasbag49
(g65
g51
NtRp1248
(dp1249
g54
(dp1250
sg63
g588
sg56
(lp1251
g49
(g70
g51
NtRp1252
(dp1253
g54
(dp1254
g74
g75
ssg63
g1248
sg56
(lp1255
S'script_name'
p1256
asbag49
(g70
g51
NtRp1257
(dp1258
g54
(dp1259
g81
g82
ssg63
g1248
sg56
(lp1260
S':'
asbag49
(g70
g51
NtRp1261
(dp1262
g54
(dp1263
sg63
g1248
sg56
(lp1264
g49
(g50
g51
NtRp1265
(dp1266
g54
(dp1267
g62
I4
ssg63
g1261
sg56
(lp1268
S''
asbasbasbag49
(g65
g51
NtRp1269
(dp1270
g54
(dp1271
sg63
g588
sg56
(lp1272
g49
(g70
g51
NtRp1273
(dp1274
g54
(dp1275
g74
g75
ssg63
g1269
sg56
(lp1276
S'server_name'
p1277
asbag49
(g70
g51
NtRp1278
(dp1279
g54
(dp1280
g81
g82
ssg63
g1269
sg56
(lp1281
S':'
asbag49
(g70
g51
NtRp1282
(dp1283
g54
(dp1284
sg63
g1269
sg56
(lp1285
g49
(g50
g51
NtRp1286
(dp1287
g54
(dp1288
g62
I4
ssg63
g1282
sg56
(lp1289
S'Udi-Milos-MacBook-Pro.local'
p1290
asbasbasbag49
(g65
g51
NtRp1291
(dp1292
g54
(dp1293
sg63
g588
sg56
(lp1294
g49
(g70
g51
NtRp1295
(dp1296
g54
(dp1297
g74
g75
ssg63
g1291
sg56
(lp1298
S'server_port'
p1299
asbag49
(g70
g51
NtRp1300
(dp1301
g54
(dp1302
g81
g82
ssg63
g1291
sg56
(lp1303
S':'
asbag49
(g70
g51
NtRp1304
(dp1305
g54
(dp1306
sg63
g1291
sg56
(lp1307
g49
(g50
g51
NtRp1308
(dp1309
g54
(dp1310
g62
I4
ssg63
g1304
sg56
(lp1311
S'8000'
p1312
asbasbasbag49
(g65
g51
NtRp1313
(dp1314
g54
(dp1315
sg63
g588
sg56
(lp1316
g49
(g70
g51
NtRp1317
(dp1318
g54
(dp1319
g74
g75
ssg63
g1313
sg56
(lp1320
S'server_protocol'
p1321
asbag49
(g70
g51
NtRp1322
(dp1323
g54
(dp1324
g81
g82
ssg63
g1313
sg56
(lp1325
S':'
asbag49
(g70
g51
NtRp1326
(dp1327
g54
(dp1328
sg63
g1313
sg56
(lp1329
g49
(g50
g51
NtRp1330
(dp1331
g54
(dp1332
g62
I4
ssg63
g1326
sg56
(lp1333
S'HTTP/1.1'
p1334
asbasbasbag49
(g65
g51
NtRp1335
(dp1336
g54
(dp1337
sg63
g588
sg56
(lp1338
g49
(g70
g51
NtRp1339
(dp1340
g54
(dp1341
g74
g75
ssg63
g1335
sg56
(lp1342
S'server_software'
p1343
asbag49
(g70
g51
NtRp1344
(dp1345
g54
(dp1346
g81
g82
ssg63
g1335
sg56
(lp1347
S':'
asbag49
(g70
g51
NtRp1348
(dp1349
g54
(dp1350
sg63
g1335
sg56
(lp1351
g49
(g50
g51
NtRp1352
(dp1353
g54
(dp1354
g62
I4
ssg63
g1348
sg56
(lp1355
S'Rocket 1.2.4'
p1356
asbasbasbag49
(g65
g51
NtRp1357
(dp1358
g54
(dp1359
sg63
g588
sg56
(lp1360
g49
(g70
g51
NtRp1361
(dp1362
g54
(dp1363
g74
g75
ssg63
g1357
sg56
(lp1364
S'web2py_crontype'
p1365
asbag49
(g70
g51
NtRp1366
(dp1367
g54
(dp1368
g81
g82
ssg63
g1357
sg56
(lp1369
S':'
asbag49
(g70
g51
NtRp1370
(dp1371
g54
(dp1372
sg63
g1357
sg56
(lp1373
g49
(g50
g51
NtRp1374
(dp1375
g54
(dp1376
g62
I4
ssg63
g1370
sg56
(lp1377
S'hard'
p1378
asbasbasbag49
(g65
g51
NtRp1379
(dp1380
g54
(dp1381
sg63
g588
sg56
(lp1382
g49
(g70
g51
NtRp1383
(dp1384
g54
(dp1385
g74
g75
ssg63
g1379
sg56
(lp1386
S'web2py_original_uri'
p1387
asbag49
(g70
g51
NtRp1388
(dp1389
g54
(dp1390
g81
g82
ssg63
g1379
sg56
(lp1391
S':'
asbag49
(g70
g51
NtRp1392
(dp1393
g54
(dp1394
sg63
g1379
sg56
(lp1395
g49
(g50
g51
NtRp1396
(dp1397
g54
(dp1398
g62
I4
ssg63
g1392
sg56
(lp1399
S'/add_repin'
p1400
asbasbasbag49
(g65
g51
NtRp1401
(dp1402
g54
(dp1403
sg63
g588
sg56
(lp1404
g49
(g70
g51
NtRp1405
(dp1406
g54
(dp1407
g74
g75
ssg63
g1401
sg56
(lp1408
S'web2py_path'
p1409
asbag49
(g70
g51
NtRp1410
(dp1411
g54
(dp1412
g81
g82
ssg63
g1401
sg56
(lp1413
S':'
asbag49
(g70
g51
NtRp1414
(dp1415
g54
(dp1416
sg63
g1401
sg56
(lp1417
g49
(g50
g51
NtRp1418
(dp1419
g54
(dp1420
g62
I4
ssg63
g1414
sg56
(lp1421
g635
asbasbasbag49
(g65
g51
NtRp1422
(dp1423
g54
(dp1424
sg63
g588
sg56
(lp1425
g49
(g70
g51
NtRp1426
(dp1427
g54
(dp1428
g74
g75
ssg63
g1422
sg56
(lp1429
S'web2py_version'
p1430
asbag49
(g70
g51
NtRp1431
(dp1432
g54
(dp1433
g81
g82
ssg63
g1422
sg56
(lp1434
S':'
asbag49
(g70
g51
NtRp1435
(dp1436
g54
(dp1437
sg63
g1422
sg56
(lp1438
g49
(g50
g51
NtRp1439
(dp1440
g54
(dp1441
g62
I4
ssg63
g1435
sg56
(lp1442
g49
(g58
g51
NtRp1443
(dp1444
g54
(dp1445
g62
I3
ssg63
Nsg56
(lp1446
g49
(g65
g51
NtRp1447
(dp1448
g54
(dp1449
sg63
g1443
sg56
(lp1450
g49
(g70
g51
NtRp1451
(dp1452
g54
(dp1453
sg63
g1447
sg56
(lp1454
g49
(g50
g51
NtRp1455
(dp1456
g54
(dp1457
g62
I3
ssg63
g1451
sg56
(lp1458
S'1'
asbasbasbag49
(g65
g51
NtRp1459
(dp1460
g54
(dp1461
sg63
g1443
sg56
(lp1462
g49
(g70
g51
NtRp1463
(dp1464
g54
(dp1465
sg63
g1459
sg56
(lp1466
g49
(g50
g51
NtRp1467
(dp1468
g54
(dp1469
g62
I3
ssg63
g1463
sg56
(lp1470
S'99'
p1471
asbasbasbag49
(g65
g51
NtRp1472
(dp1473
g54
(dp1474
sg63
g1443
sg56
(lp1475
g49
(g70
g51
NtRp1476
(dp1477
g54
(dp1478
sg63
g1472
sg56
(lp1479
g49
(g50
g51
NtRp1480
(dp1481
g54
(dp1482
g62
I3
ssg63
g1476
sg56
(lp1483
S'7'
asbasbasbag49
(g65
g51
NtRp1484
(dp1485
g54
(dp1486
sg63
g1443
sg56
(lp1487
g49
(g70
g51
NtRp1488
(dp1489
g54
(dp1490
sg63
g1484
sg56
(lp1491
g49
(g50
g51
NtRp1492
(dp1493
g54
(dp1494
g62
I3
ssg63
g1488
sg56
(lp1495
S'datetime.datetime(2012, 3, 4, 22, 12, 8)'
p1496
asbasbasbag49
(g65
g51
NtRp1497
(dp1498
g54
(dp1499
sg63
g1443
sg56
(lp1500
g49
(g70
g51
NtRp1501
(dp1502
g54
(dp1503
sg63
g1497
sg56
(lp1504
g49
(g50
g51
NtRp1505
(dp1506
g54
(dp1507
g62
I3
ssg63
g1501
sg56
(lp1508
S'stable'
p1509
asbasbasbasbasbasbasbag49
(g65
g51
NtRp1510
(dp1511
g54
(dp1512
sg63
g588
sg56
(lp1513
g49
(g70
g51
NtRp1514
(dp1515
g54
(dp1516
g74
g75
ssg63
g1510
sg56
(lp1517
S'wsgi_errors'
p1518
asbag49
(g70
g51
NtRp1519
(dp1520
g54
(dp1521
g81
g82
ssg63
g1510
sg56
(lp1522
S':'
asbag49
(g70
g51
NtRp1523
(dp1524
g54
(dp1525
sg63
g1510
sg56
(lp1526
g49
(g50
g51
NtRp1527
(dp1528
g54
(dp1529
g62
I4
ssg63
g1523
sg56
(lp1530
S"<open file '<stderr>', mode 'w' at 0x4220b0>"
p1531
asbasbasbag49
(g65
g51
NtRp1532
(dp1533
g54
(dp1534
sg63
g588
sg56
(lp1535
g49
(g70
g51
NtRp1536
(dp1537
g54
(dp1538
g74
g75
ssg63
g1532
sg56
(lp1539
S'wsgi_file_wrapper'
p1540
asbag49
(g70
g51
NtRp1541
(dp1542
g54
(dp1543
g81
g82
ssg63
g1532
sg56
(lp1544
S':'
asbag49
(g70
g51
NtRp1545
(dp1546
g54
(dp1547
sg63
g1532
sg56
(lp1548
g49
(g50
g51
NtRp1549
(dp1550
g54
(dp1551
g62
I4
ssg63
g1545
sg56
(lp1552
S'<class wsgiref.util.FileWrapper at 0x225e6c0>'
p1553
asbasbasbag49
(g65
g51
NtRp1554
(dp1555
g54
(dp1556
sg63
g588
sg56
(lp1557
g49
(g70
g51
NtRp1558
(dp1559
g54
(dp1560
g74
g75
ssg63
g1554
sg56
(lp1561
S'wsgi_input'
p1562
asbag49
(g70
g51
NtRp1563
(dp1564
g54
(dp1565
g81
g82
ssg63
g1554
sg56
(lp1566
S':'
asbag49
(g70
g51
NtRp1567
(dp1568
g54
(dp1569
sg63
g1554
sg56
(lp1570
g49
(g50
g51
NtRp1571
(dp1572
g54
(dp1573
g62
I4
ssg63
g1567
sg56
(lp1574
S'<socket._fileobject object at 0xa331b30>'
p1575
asbasbasbag49
(g65
g51
NtRp1576
(dp1577
g54
(dp1578
sg63
g588
sg56
(lp1579
g49
(g70
g51
NtRp1580
(dp1581
g54
(dp1582
g74
g75
ssg63
g1576
sg56
(lp1583
S'wsgi_multiprocess'
p1584
asbag49
(g70
g51
NtRp1585
(dp1586
g54
(dp1587
g81
g82
ssg63
g1576
sg56
(lp1588
S':'
asbag49
(g70
g51
NtRp1589
(dp1590
g54
(dp1591
sg63
g1576
sg56
(lp1592
g49
(g50
g51
NtRp1593
(dp1594
g54
(dp1595
g62
I4
ssg63
g1589
sg56
(lp1596
g770
asbasbasbag49
(g65
g51
NtRp1597
(dp1598
g54
(dp1599
sg63
g588
sg56
(lp1600
g49
(g70
g51
NtRp1601
(dp1602
g54
(dp1603
g74
g75
ssg63
g1597
sg56
(lp1604
S'wsgi_multithread'
p1605
asbag49
(g70
g51
NtRp1606
(dp1607
g54
(dp1608
g81
g82
ssg63
g1597
sg56
(lp1609
S':'
asbag49
(g70
g51
NtRp1610
(dp1611
g54
(dp1612
sg63
g1597
sg56
(lp1613
g49
(g50
g51
NtRp1614
(dp1615
g54
(dp1616
g62
I4
ssg63
g1610
sg56
(lp1617
g92
asbasbasbag49
(g65
g51
NtRp1618
(dp1619
g54
(dp1620
sg63
g588
sg56
(lp1621
g49
(g70
g51
NtRp1622
(dp1623
g54
(dp1624
g74
g75
ssg63
g1618
sg56
(lp1625
S'wsgi_run_once'
p1626
asbag49
(g70
g51
NtRp1627
(dp1628
g54
(dp1629
g81
g82
ssg63
g1618
sg56
(lp1630
S':'
asbag49
(g70
g51
NtRp1631
(dp1632
g54
(dp1633
sg63
g1618
sg56
(lp1634
g49
(g50
g51
NtRp1635
(dp1636
g54
(dp1637
g62
I4
ssg63
g1631
sg56
(lp1638
g770
asbasbasbag49
(g65
g51
NtRp1639
(dp1640
g54
(dp1641
sg63
g588
sg56
(lp1642
g49
(g70
g51
NtRp1643
(dp1644
g54
(dp1645
g74
g75
ssg63
g1639
sg56
(lp1646
S'wsgi_url_scheme'
p1647
asbag49
(g70
g51
NtRp1648
(dp1649
g54
(dp1650
g81
g82
ssg63
g1639
sg56
(lp1651
S':'
asbag49
(g70
g51
NtRp1652
(dp1653
g54
(dp1654
sg63
g1639
sg56
(lp1655
g49
(g50
g51
NtRp1656
(dp1657
g54
(dp1658
g62
I4
ssg63
g1652
sg56
(lp1659
S'http'
p1660
asbasbasbag49
(g65
g51
NtRp1661
(dp1662
g54
(dp1663
sg63
g588
sg56
(lp1664
g49
(g70
g51
NtRp1665
(dp1666
g54
(dp1667
g74
g75
ssg63
g1661
sg56
(lp1668
S'wsgi_version'
p1669
asbag49
(g70
g51
NtRp1670
(dp1671
g54
(dp1672
g81
g82
ssg63
g1661
sg56
(lp1673
S':'
asbag49
(g70
g51
NtRp1674
(dp1675
g54
(dp1676
sg63
g1661
sg56
(lp1677
g49
(g50
g51
NtRp1678
(dp1679
g54
(dp1680
g62
I4
ssg63
g1674
sg56
(lp1681
g49
(g58
g51
NtRp1682
(dp1683
g54
(dp1684
g62
I3
ssg63
Nsg56
(lp1685
g49
(g65
g51
NtRp1686
(dp1687
g54
(dp1688
sg63
g1682
sg56
(lp1689
g49
(g70
g51
NtRp1690
(dp1691
g54
(dp1692
sg63
g1686
sg56
(lp1693
g49
(g50
g51
NtRp1694
(dp1695
g54
(dp1696
g62
I3
ssg63
g1690
sg56
(lp1697
S'1'
asbasbasbag49
(g65
g51
NtRp1698
(dp1699
g54
(dp1700
sg63
g1682
sg56
(lp1701
g49
(g70
g51
NtRp1702
(dp1703
g54
(dp1704
sg63
g1698
sg56
(lp1705
g49
(g50
g51
NtRp1706
(dp1707
g54
(dp1708
g62
I3
ssg63
g1702
sg56
(lp1709
S'0'
asbasbasbasbasbasbasbasbasbasbasbag49
(g65
g51
NtRp1710
(dp1711
g54
(dp1712
sg63
g59
sg56
(lp1713
g49
(g70
g51
NtRp1714
(dp1715
g54
(dp1716
g74
g75
ssg63
g1710
sg56
(lp1717
S'extension'
p1718
asbag49
(g70
g51
NtRp1719
(dp1720
g54
(dp1721
g81
g82
ssg63
g1710
sg56
(lp1722
S':'
asbag49
(g70
g51
NtRp1723
(dp1724
g54
(dp1725
sg63
g1710
sg56
(lp1726
g49
(g50
g51
NtRp1727
(dp1728
g54
(dp1729
g62
I5
ssg63
g1723
sg56
(lp1730
S'html'
p1731
asbasbasbag49
(g65
g51
NtRp1732
(dp1733
g54
(dp1734
sg63
g59
sg56
(lp1735
g49
(g70
g51
NtRp1736
(dp1737
g54
(dp1738
g74
g75
ssg63
g1732
sg56
(lp1739
S'folder'
p1740
asbag49
(g70
g51
NtRp1741
(dp1742
g54
(dp1743
g81
g82
ssg63
g1732
sg56
(lp1744
S':'
asbag49
(g70
g51
NtRp1745
(dp1746
g54
(dp1747
sg63
g1732
sg56
(lp1748
g49
(g50
g51
NtRp1749
(dp1750
g54
(dp1751
g62
I5
ssg63
g1745
sg56
(lp1752
S'/Users/udimilo/Documents/web2py/applications/udi0312/'
p1753
asbasbasbag49
(g65
g51
NtRp1754
(dp1755
g54
(dp1756
sg63
g59
sg56
(lp1757
g49
(g70
g51
NtRp1758
(dp1759
g54
(dp1760
g74
g75
ssg63
g1754
sg56
(lp1761
S'function'
p1762
asbag49
(g70
g51
NtRp1763
(dp1764
g54
(dp1765
g81
g82
ssg63
g1754
sg56
(lp1766
S':'
asbag49
(g70
g51
NtRp1767
(dp1768
g54
(dp1769
sg63
g1754
sg56
(lp1770
g49
(g50
g51
NtRp1771
(dp1772
g54
(dp1773
g62
I5
ssg63
g1767
sg56
(lp1774
S'add_repin'
p1775
asbasbasbag49
(g65
g51
NtRp1776
(dp1777
g54
(dp1778
sg63
g59
sg56
(lp1779
g49
(g70
g51
NtRp1780
(dp1781
g54
(dp1782
g74
g75
ssg63
g1776
sg56
(lp1783
S'get_vars'
p1784
asbag49
(g70
g51
NtRp1785
(dp1786
g54
(dp1787
g81
g82
ssg63
g1776
sg56
(lp1788
S':'
asbag49
(g70
g51
NtRp1789
(dp1790
g54
(dp1791
sg63
g1776
sg56
(lp1792
g49
(g50
g51
NtRp1793
(dp1794
g54
(dp1795
g62
I5
ssg63
g1789
sg56
(lp1796
g49
(g58
g51
NtRp1797
(dp1798
g54
(dp1799
g62
I4
ssg63
Nsg56
(lp1800
sbasbasbasbag49
(g65
g51
NtRp1801
(dp1802
g54
(dp1803
sg63
g59
sg56
(lp1804
g49
(g70
g51
NtRp1805
(dp1806
g54
(dp1807
g74
g75
ssg63
g1801
sg56
(lp1808
S'global_settings'
p1809
asbag49
(g70
g51
NtRp1810
(dp1811
g54
(dp1812
g81
g82
ssg63
g1801
sg56
(lp1813
S':'
asbag49
(g70
g51
NtRp1814
(dp1815
g54
(dp1816
sg63
g1801
sg56
(lp1817
g49
(g50
g51
NtRp1818
(dp1819
g54
(dp1820
g62
I5
ssg63
g1814
sg56
(lp1821
g49
(g58
g51
NtRp1822
(dp1823
g54
(dp1824
g62
I4
ssg63
Nsg56
(lp1825
g49
(g65
g51
NtRp1826
(dp1827
g54
(dp1828
sg63
g1822
sg56
(lp1829
g49
(g70
g51
NtRp1830
(dp1831
g54
(dp1832
g74
g75
ssg63
g1826
sg56
(lp1833
g600
asbag49
(g70
g51
NtRp1834
(dp1835
g54
(dp1836
g81
g82
ssg63
g1826
sg56
(lp1837
S':'
asbag49
(g70
g51
NtRp1838
(dp1839
g54
(dp1840
sg63
g1826
sg56
(lp1841
g49
(g50
g51
NtRp1842
(dp1843
g54
(dp1844
g62
I4
ssg63
g1838
sg56
(lp1845
S"set(['/Users/udimilo/Documents/web2py/applications/udi0312/', '/Users/udimilo/Documents/web2py/applications/admin/'])"
p1846
asbasbasbag49
(g65
g51
NtRp1847
(dp1848
g54
(dp1849
sg63
g1822
sg56
(lp1850
g49
(g70
g51
NtRp1851
(dp1852
g54
(dp1853
g74
g75
ssg63
g1847
sg56
(lp1854
g622
asbag49
(g70
g51
NtRp1855
(dp1856
g54
(dp1857
g81
g82
ssg63
g1847
sg56
(lp1858
S':'
asbag49
(g70
g51
NtRp1859
(dp1860
g54
(dp1861
sg63
g1847
sg56
(lp1862
g49
(g50
g51
NtRp1863
(dp1864
g54
(dp1865
g62
I4
ssg63
g1859
sg56
(lp1866
g635
asbasbasbag49
(g65
g51
NtRp1867
(dp1868
g54
(dp1869
sg63
g1822
sg56
(lp1870
g49
(g70
g51
NtRp1871
(dp1872
g54
(dp1873
g74
g75
ssg63
g1867
sg56
(lp1874
g644
asbag49
(g70
g51
NtRp1875
(dp1876
g54
(dp1877
g81
g82
ssg63
g1867
sg56
(lp1878
S':'
asbag49
(g70
g51
NtRp1879
(dp1880
g54
(dp1881
sg63
g1867
sg56
(lp1882
g49
(g50
g51
NtRp1883
(dp1884
g54
(dp1885
g62
I4
ssg63
g1879
sg56
(lp1886
g49
(g58
g51
NtRp1887
(dp1888
g54
(dp1889
g62
I3
ssg63
Nsg56
(lp1890
sbasbasbasbag49
(g65
g51
NtRp1891
(dp1892
g54
(dp1893
sg63
g1822
sg56
(lp1894
g49
(g70
g51
NtRp1895
(dp1896
g54
(dp1897
g74
g75
ssg63
g1891
sg56
(lp1898
g669
asbag49
(g70
g51
NtRp1899
(dp1900
g54
(dp1901
g81
g82
ssg63
g1891
sg56
(lp1902
S':'
asbag49
(g70
g51
NtRp1903
(dp1904
g54
(dp1905
sg63
g1891
sg56
(lp1906
g49
(g50
g51
NtRp1907
(dp1908
g54
(dp1909
g62
I4
ssg63
g1903
sg56
(lp1910
S"<Values at 0x23196e8: {'verbose': False, 'ip': '127.0.0.1', 'shutdown_timeout': 5, 'taskbar': False, 'nocron': False, 'pid_filename': 'httpserver.pid', 'maxthreads': None, 'softcron': False, 'server_name': 'Udi-Milos-MacBook-Pro.local', 'bpython': False, 'nogui': False, 'port': 8000, 'extcron': False, 'debuglevel': 30, 'test': None, 'folder': '/Users/udimilo/Documents/web2py', 'config': '', 'import_models': False, 'winservice': '', 'shell': None, 'run': '', 'log_filename': 'httpserver.log', 'args': [''], 'socket_timeout': 5, 'ssl_ca_certificate': None, 'scheduler': None, 'profiler_filename': None, 'ssl_private_key': '', 'password': '<ask>', 'request_queue_size': 5, 'ssl_certificate': '', 'cronjob': False, 'numthreads': None, 'quiet': False, 'interfaces': None, 'minthreads': None, 'timeout': 10, 'plain': False, 'nobanner': False}>"
p1911
asbasbasbag49
(g65
g51
NtRp1912
(dp1913
g54
(dp1914
sg63
g1822
sg56
(lp1915
g49
(g70
g51
NtRp1916
(dp1917
g54
(dp1918
g74
g75
ssg63
g1912
sg56
(lp1919
g735
asbag49
(g70
g51
NtRp1920
(dp1921
g54
(dp1922
g81
g82
ssg63
g1912
sg56
(lp1923
S':'
asbag49
(g70
g51
NtRp1924
(dp1925
g54
(dp1926
sg63
g1912
sg56
(lp1927
g49
(g50
g51
NtRp1928
(dp1929
g54
(dp1930
g62
I4
ssg63
g1924
sg56
(lp1931
S'set([])'
p1932
asbasbasbag49
(g65
g51
NtRp1933
(dp1934
g54
(dp1935
sg63
g1822
sg56
(lp1936
g49
(g70
g51
NtRp1937
(dp1938
g54
(dp1939
g74
g75
ssg63
g1933
sg56
(lp1940
g757
asbag49
(g70
g51
NtRp1941
(dp1942
g54
(dp1943
g81
g82
ssg63
g1933
sg56
(lp1944
S':'
asbag49
(g70
g51
NtRp1945
(dp1946
g54
(dp1947
sg63
g1933
sg56
(lp1948
g49
(g50
g51
NtRp1949
(dp1950
g54
(dp1951
g62
I4
ssg63
g1945
sg56
(lp1952
g770
asbasbasbag49
(g65
g51
NtRp1953
(dp1954
g54
(dp1955
sg63
g1822
sg56
(lp1956
g49
(g70
g51
NtRp1957
(dp1958
g54
(dp1959
g74
g75
ssg63
g1953
sg56
(lp1960
g779
asbag49
(g70
g51
NtRp1961
(dp1962
g54
(dp1963
g81
g82
ssg63
g1953
sg56
(lp1964
S':'
asbag49
(g70
g51
NtRp1965
(dp1966
g54
(dp1967
sg63
g1953
sg56
(lp1968
g49
(g50
g51
NtRp1969
(dp1970
g54
(dp1971
g62
I4
ssg63
g1965
sg56
(lp1972
g792
asbasbasbag49
(g65
g51
NtRp1973
(dp1974
g54
(dp1975
sg63
g1822
sg56
(lp1976
g49
(g70
g51
NtRp1977
(dp1978
g54
(dp1979
g74
g75
ssg63
g1973
sg56
(lp1980
g1085
asbag49
(g70
g51
NtRp1981
(dp1982
g54
(dp1983
g81
g82
ssg63
g1973
sg56
(lp1984
S':'
asbag49
(g70
g51
NtRp1985
(dp1986
g54
(dp1987
sg63
g1973
sg56
(lp1988
g49
(g50
g51
NtRp1989
(dp1990
g54
(dp1991
g62
I4
ssg63
g1985
sg56
(lp1992
g770
asbasbasbag49
(g65
g51
NtRp1993
(dp1994
g54
(dp1995
sg63
g1822
sg56
(lp1996
g49
(g70
g51
NtRp1997
(dp1998
g54
(dp1999
g74
g75
ssg63
g1993
sg56
(lp2000
g1106
asbag49
(g70
g51
NtRp2001
(dp2002
g54
(dp2003
g81
g82
ssg63
g1993
sg56
(lp2004
S':'
asbag49
(g70
g51
NtRp2005
(dp2006
g54
(dp2007
sg63
g1993
sg56
(lp2008
g49
(g50
g51
NtRp2009
(dp2010
g54
(dp2011
g62
I4
ssg63
g2005
sg56
(lp2012
g770
asbasbasbag49
(g65
g51
NtRp2013
(dp2014
g54
(dp2015
sg63
g1822
sg56
(lp2016
g49
(g70
g51
NtRp2017
(dp2018
g54
(dp2019
g74
g75
ssg63
g2013
sg56
(lp2020
g1365
asbag49
(g70
g51
NtRp2021
(dp2022
g54
(dp2023
g81
g82
ssg63
g2013
sg56
(lp2024
S':'
asbag49
(g70
g51
NtRp2025
(dp2026
g54
(dp2027
sg63
g2013
sg56
(lp2028
g49
(g50
g51
NtRp2029
(dp2030
g54
(dp2031
g62
I4
ssg63
g2025
sg56
(lp2032
g1378
asbasbasbag49
(g65
g51
NtRp2033
(dp2034
g54
(dp2035
sg63
g1822
sg56
(lp2036
g49
(g70
g51
NtRp2037
(dp2038
g54
(dp2039
g74
g75
ssg63
g2033
sg56
(lp2040
g1430
asbag49
(g70
g51
NtRp2041
(dp2042
g54
(dp2043
g81
g82
ssg63
g2033
sg56
(lp2044
S':'
asbag49
(g70
g51
NtRp2045
(dp2046
g54
(dp2047
sg63
g2033
sg56
(lp2048
g49
(g50
g51
NtRp2049
(dp2050
g54
(dp2051
g62
I4
ssg63
g2045
sg56
(lp2052
g49
(g58
g51
NtRp2053
(dp2054
g54
(dp2055
g62
I3
ssg63
Nsg56
(lp2056
g49
(g65
g51
NtRp2057
(dp2058
g54
(dp2059
sg63
g2053
sg56
(lp2060
g49
(g70
g51
NtRp2061
(dp2062
g54
(dp2063
sg63
g2057
sg56
(lp2064
g49
(g50
g51
NtRp2065
(dp2066
g54
(dp2067
g62
I3
ssg63
g2061
sg56
(lp2068
S'1'
asbasbasbag49
(g65
g51
NtRp2069
(dp2070
g54
(dp2071
sg63
g2053
sg56
(lp2072
g49
(g70
g51
NtRp2073
(dp2074
g54
(dp2075
sg63
g2069
sg56
(lp2076
g49
(g50
g51
NtRp2077
(dp2078
g54
(dp2079
g62
I3
ssg63
g2073
sg56
(lp2080
S'99'
p2081
asbasbasbag49
(g65
g51
NtRp2082
(dp2083
g54
(dp2084
sg63
g2053
sg56
(lp2085
g49
(g70
g51
NtRp2086
(dp2087
g54
(dp2088
sg63
g2082
sg56
(lp2089
g49
(g50
g51
NtRp2090
(dp2091
g54
(dp2092
g62
I3
ssg63
g2086
sg56
(lp2093
S'7'
asbasbasbag49
(g65
g51
NtRp2094
(dp2095
g54
(dp2096
sg63
g2053
sg56
(lp2097
g49
(g70
g51
NtRp2098
(dp2099
g54
(dp2100
sg63
g2094
sg56
(lp2101
g49
(g50
g51
NtRp2102
(dp2103
g54
(dp2104
g62
I3
ssg63
g2098
sg56
(lp2105
S'datetime.datetime(2012, 3, 4, 22, 12, 8)'
p2106
asbasbasbag49
(g65
g51
NtRp2107
(dp2108
g54
(dp2109
sg63
g2053
sg56
(lp2110
g49
(g70
g51
NtRp2111
(dp2112
g54
(dp2113
sg63
g2107
sg56
(lp2114
g49
(g50
g51
NtRp2115
(dp2116
g54
(dp2117
g62
I3
ssg63
g2111
sg56
(lp2118
g1509
asbasbasbasbasbasbasbasbasbasbasbag49
(g65
g51
NtRp2119
(dp2120
g54
(dp2121
sg63
g59
sg56
(lp2122
g49
(g70
g51
NtRp2123
(dp2124
g54
(dp2125
g74
g75
ssg63
g2119
sg56
(lp2126
S'is_https'
p2127
asbag49
(g70
g51
NtRp2128
(dp2129
g54
(dp2130
g81
g82
ssg63
g2119
sg56
(lp2131
S':'
asbag49
(g70
g51
NtRp2132
(dp2133
g54
(dp2134
sg63
g2119
sg56
(lp2135
g49
(g50
g51
NtRp2136
(dp2137
g54
(dp2138
g62
I5
ssg63
g2132
sg56
(lp2139
g770
asbasbasbag49
(g65
g51
NtRp2140
(dp2141
g54
(dp2142
sg63
g59
sg56
(lp2143
g49
(g70
g51
NtRp2144
(dp2145
g54
(dp2146
g74
g75
ssg63
g2140
sg56
(lp2147
S'is_local'
p2148
asbag49
(g70
g51
NtRp2149
(dp2150
g54
(dp2151
g81
g82
ssg63
g2140
sg56
(lp2152
S':'
asbag49
(g70
g51
NtRp2153
(dp2154
g54
(dp2155
sg63
g2140
sg56
(lp2156
g49
(g50
g51
NtRp2157
(dp2158
g54
(dp2159
g62
I5
ssg63
g2153
sg56
(lp2160
g92
asbasbasbag49
(g65
g51
NtRp2161
(dp2162
g54
(dp2163
sg63
g59
sg56
(lp2164
g49
(g70
g51
NtRp2165
(dp2166
g54
(dp2167
g74
g75
ssg63
g2161
sg56
(lp2168
S'is_restful'
p2169
asbag49
(g70
g51
NtRp2170
(dp2171
g54
(dp2172
g81
g82
ssg63
g2161
sg56
(lp2173
S':'
asbag49
(g70
g51
NtRp2174
(dp2175
g54
(dp2176
sg63
g2161
sg56
(lp2177
g49
(g50
g51
NtRp2178
(dp2179
g54
(dp2180
g62
I5
ssg63
g2174
sg56
(lp2181
g770
asbasbasbag49
(g65
g51
NtRp2182
(dp2183
g54
(dp2184
sg63
g59
sg56
(lp2185
g49
(g70
g51
NtRp2186
(dp2187
g54
(dp2188
g74
g75
ssg63
g2182
sg56
(lp2189
S'now'
p2190
asbag49
(g70
g51
NtRp2191
(dp2192
g54
(dp2193
g81
g82
ssg63
g2182
sg56
(lp2194
S':'
asbag49
(g70
g51
NtRp2195
(dp2196
g54
(dp2197
sg63
g2182
sg56
(lp2198
g49
(g50
g51
NtRp2199
(dp2200
g54
(dp2201
g62
I5
ssg63
g2195
sg56
(lp2202
S'datetime.datetime(2012, 3, 19, 12, 31, 49, 387946)'
p2203
asbasbasbag49
(g65
g51
NtRp2204
(dp2205
g54
(dp2206
sg63
g59
sg56
(lp2207
g49
(g70
g51
NtRp2208
(dp2209
g54
(dp2210
g74
g75
ssg63
g2204
sg56
(lp2211
S'post_vars'
p2212
asbag49
(g70
g51
NtRp2213
(dp2214
g54
(dp2215
g81
g82
ssg63
g2204
sg56
(lp2216
S':'
asbag49
(g70
g51
NtRp2217
(dp2218
g54
(dp2219
sg63
g2204
sg56
(lp2220
g49
(g50
g51
NtRp2221
(dp2222
g54
(dp2223
g62
I5
ssg63
g2217
sg56
(lp2224
g49
(g58
g51
NtRp2225
(dp2226
g54
(dp2227
g62
I4
ssg63
Nsg56
(lp2228
g49
(g65
g51
NtRp2229
(dp2230
g54
(dp2231
sg63
g2225
sg56
(lp2232
g49
(g70
g51
NtRp2233
(dp2234
g54
(dp2235
g74
g75
ssg63
g2229
sg56
(lp2236
S'id'
p2237
asbag49
(g70
g51
NtRp2238
(dp2239
g54
(dp2240
g81
g82
ssg63
g2229
sg56
(lp2241
S':'
asbag49
(g70
g51
NtRp2242
(dp2243
g54
(dp2244
sg63
g2229
sg56
(lp2245
g49
(g50
g51
NtRp2246
(dp2247
g54
(dp2248
g62
I4
ssg63
g2242
sg56
(lp2249
S'30'
p2250
asbasbasbag49
(g65
g51
NtRp2251
(dp2252
g54
(dp2253
sg63
g2225
sg56
(lp2254
g49
(g70
g51
NtRp2255
(dp2256
g54
(dp2257
g74
g75
ssg63
g2251
sg56
(lp2258
S'repin_board'
p2259
asbag49
(g70
g51
NtRp2260
(dp2261
g54
(dp2262
g81
g82
ssg63
g2251
sg56
(lp2263
S':'
asbag49
(g70
g51
NtRp2264
(dp2265
g54
(dp2266
sg63
g2251
sg56
(lp2267
g49
(g50
g51
NtRp2268
(dp2269
g54
(dp2270
g62
I4
ssg63
g2264
sg56
(lp2271
S'java'
p2272
asbasbasbasbasbasbasbag49
(g65
g51
NtRp2273
(dp2274
g54
(dp2275
sg63
g59
sg56
(lp2276
g49
(g70
g51
NtRp2277
(dp2278
g54
(dp2279
g74
g75
ssg63
g2273
sg56
(lp2280
S'url'
p2281
asbag49
(g70
g51
NtRp2282
(dp2283
g54
(dp2284
g81
g82
ssg63
g2273
sg56
(lp2285
S':'
asbag49
(g70
g51
NtRp2286
(dp2287
g54
(dp2288
sg63
g2273
sg56
(lp2289
g49
(g50
g51
NtRp2290
(dp2291
g54
(dp2292
g62
I5
ssg63
g2286
sg56
(lp2293
S'/add_repin'
p2294
asbasbasbag49
(g65
g51
NtRp2295
(dp2296
g54
(dp2297
sg63
g59
sg56
(lp2298
g49
(g70
g51
NtRp2299
(dp2300
g54
(dp2301
g74
g75
ssg63
g2295
sg56
(lp2302
S'utcnow'
p2303
asbag49
(g70
g51
NtRp2304
(dp2305
g54
(dp2306
g81
g82
ssg63
g2295
sg56
(lp2307
S':'
asbag49
(g70
g51
NtRp2308
(dp2309
g54
(dp2310
sg63
g2295
sg56
(lp2311
g49
(g50
g51
NtRp2312
(dp2313
g54
(dp2314
g62
I5
ssg63
g2308
sg56
(lp2315
S'datetime.datetime(2012, 3, 19, 16, 31, 49, 387961)'
p2316
asbasbasbag49
(g65
g51
NtRp2317
(dp2318
g54
(dp2319
sg63
g59
sg56
(lp2320
g49
(g70
g51
NtRp2321
(dp2322
g54
(dp2323
g74
g75
ssg63
g2317
sg56
(lp2324
S'uuid'
p2325
asbag49
(g70
g51
NtRp2326
(dp2327
g54
(dp2328
g81
g82
ssg63
g2317
sg56
(lp2329
S':'
asbag49
(g70
g51
NtRp2330
(dp2331
g54
(dp2332
sg63
g2317
sg56
(lp2333
g49
(g50
g51
NtRp2334
(dp2335
g54
(dp2336
g62
I5
ssg63
g2330
sg56
(lp2337
S'udi0312/127.0.0.1.2012-03-19.12-31-49.95bface1-4038-4b2b-af11-055d96443fd7'
p2338
asbasbasbag49
(g65
g51
NtRp2339
(dp2340
g54
(dp2341
sg63
g59
sg56
(lp2342
g49
(g70
g51
NtRp2343
(dp2344
g54
(dp2345
g74
g75
ssg63
g2339
sg56
(lp2346
S'vars'
p2347
asbag49
(g70
g51
NtRp2348
(dp2349
g54
(dp2350
g81
g82
ssg63
g2339
sg56
(lp2351
S':'
asbag49
(g70
g51
NtRp2352
(dp2353
g54
(dp2354
sg63
g2339
sg56
(lp2355
g49
(g50
g51
NtRp2356
(dp2357
g54
(dp2358
g62
I5
ssg63
g2352
sg56
(lp2359
g49
(g58
g51
NtRp2360
(dp2361
g54
(dp2362
g62
I4
ssg63
Nsg56
(lp2363
g49
(g65
g51
NtRp2364
(dp2365
g54
(dp2366
sg63
g2360
sg56
(lp2367
g49
(g70
g51
NtRp2368
(dp2369
g54
(dp2370
g74
g75
ssg63
g2364
sg56
(lp2371
g2237
asbag49
(g70
g51
NtRp2372
(dp2373
g54
(dp2374
g81
g82
ssg63
g2364
sg56
(lp2375
S':'
asbag49
(g70
g51
NtRp2376
(dp2377
g54
(dp2378
sg63
g2364
sg56
(lp2379
g49
(g50
g51
NtRp2380
(dp2381
g54
(dp2382
g62
I4
ssg63
g2376
sg56
(lp2383
g2250
asbasbasbag49
(g65
g51
NtRp2384
(dp2385
g54
(dp2386
sg63
g2360
sg56
(lp2387
g49
(g70
g51
NtRp2388
(dp2389
g54
(dp2390
g74
g75
ssg63
g2384
sg56
(lp2391
g2259
asbag49
(g70
g51
NtRp2392
(dp2393
g54
(dp2394
g81
g82
ssg63
g2384
sg56
(lp2395
S':'
asbag49
(g70
g51
NtRp2396
(dp2397
g54
(dp2398
sg63
g2384
sg56
(lp2399
g49
(g50
g51
NtRp2400
(dp2401
g54
(dp2402
g62
I4
ssg63
g2396
sg56
(lp2403
g2272
asbasbasbasbasbasbasbag49
(g65
g51
NtRp2404
(dp2405
g54
(dp2406
sg63
g59
sg56
(lp2407
g49
(g70
g51
NtRp2408
(dp2409
g54
(dp2410
g74
g75
ssg63
g2404
sg56
(lp2411
S'wsgi'
p2412
asbag49
(g70
g51
NtRp2413
(dp2414
g54
(dp2415
g81
g82
ssg63
g2404
sg56
(lp2416
S':'
asbag49
(g70
g51
NtRp2417
(dp2418
g54
(dp2419
sg63
g2404
sg56
(lp2420
g49
(g50
g51
NtRp2421
(dp2422
g54
(dp2423
g62
I5
ssg63
g2417
sg56
(lp2424
g49
(g58
g51
NtRp2425
(dp2426
g54
(dp2427
g62
I4
ssg63
Nsg56
(lp2428
g49
(g65
g51
NtRp2429
(dp2430
g54
(dp2431
sg63
g2425
sg56
(lp2432
g49
(g70
g51
NtRp2433
(dp2434
g54
(dp2435
g74
g75
ssg63
g2429
sg56
(lp2436
S'environ'
p2437
asbag49
(g70
g51
NtRp2438
(dp2439
g54
(dp2440
g81
g82
ssg63
g2429
sg56
(lp2441
S':'
asbag49
(g70
g51
NtRp2442
(dp2443
g54
(dp2444
sg63
g2429
sg56
(lp2445
g49
(g50
g51
NtRp2446
(dp2447
g54
(dp2448
g62
I4
ssg63
g2442
sg56
(lp2449
g49
(g58
g51
NtRp2450
(dp2451
g54
(dp2452
g62
I3
ssg63
Nsg56
(lp2453
g49
(g65
g51
NtRp2454
(dp2455
g54
(dp2456
sg63
g2450
sg56
(lp2457
g49
(g70
g51
NtRp2458
(dp2459
g54
(dp2460
g74
g75
ssg63
g2454
sg56
(lp2461
S'CONTENT_LENGTH'
p2462
asbag49
(g70
g51
NtRp2463
(dp2464
g54
(dp2465
g81
g82
ssg63
g2454
sg56
(lp2466
S':'
asbag49
(g70
g51
NtRp2467
(dp2468
g54
(dp2469
sg63
g2454
sg56
(lp2470
g49
(g50
g51
NtRp2471
(dp2472
g54
(dp2473
g62
I3
ssg63
g2467
sg56
(lp2474
g704
asbasbasbag49
(g65
g51
NtRp2475
(dp2476
g54
(dp2477
sg63
g2450
sg56
(lp2478
g49
(g70
g51
NtRp2479
(dp2480
g54
(dp2481
g74
g75
ssg63
g2475
sg56
(lp2482
S'CONTENT_TYPE'
p2483
asbag49
(g70
g51
NtRp2484
(dp2485
g54
(dp2486
g81
g82
ssg63
g2475
sg56
(lp2487
S':'
asbag49
(g70
g51
NtRp2488
(dp2489
g54
(dp2490
sg63
g2475
sg56
(lp2491
g49
(g50
g51
NtRp2492
(dp2493
g54
(dp2494
g62
I3
ssg63
g2488
sg56
(lp2495
g726
asbasbasbag49
(g65
g51
NtRp2496
(dp2497
g54
(dp2498
sg63
g2450
sg56
(lp2499
g49
(g70
g51
NtRp2500
(dp2501
g54
(dp2502
g74
g75
ssg63
g2496
sg56
(lp2503
S'HTTP_ACCEPT'
p2504
asbag49
(g70
g51
NtRp2505
(dp2506
g54
(dp2507
g81
g82
ssg63
g2496
sg56
(lp2508
S':'
asbag49
(g70
g51
NtRp2509
(dp2510
g54
(dp2511
sg63
g2496
sg56
(lp2512
g49
(g50
g51
NtRp2513
(dp2514
g54
(dp2515
g62
I3
ssg63
g2509
sg56
(lp2516
g814
asbasbasbag49
(g65
g51
NtRp2517
(dp2518
g54
(dp2519
sg63
g2450
sg56
(lp2520
g49
(g70
g51
NtRp2521
(dp2522
g54
(dp2523
g74
g75
ssg63
g2517
sg56
(lp2524
S'HTTP_ACCEPT_CHARSET'
p2525
asbag49
(g70
g51
NtRp2526
(dp2527
g54
(dp2528
g81
g82
ssg63
g2517
sg56
(lp2529
S':'
asbag49
(g70
g51
NtRp2530
(dp2531
g54
(dp2532
sg63
g2517
sg56
(lp2533
g49
(g50
g51
NtRp2534
(dp2535
g54
(dp2536
g62
I3
ssg63
g2530
sg56
(lp2537
g836
asbasbasbag49
(g65
g51
NtRp2538
(dp2539
g54
(dp2540
sg63
g2450
sg56
(lp2541
g49
(g70
g51
NtRp2542
(dp2543
g54
(dp2544
g74
g75
ssg63
g2538
sg56
(lp2545
S'HTTP_ACCEPT_ENCODING'
p2546
asbag49
(g70
g51
NtRp2547
(dp2548
g54
(dp2549
g81
g82
ssg63
g2538
sg56
(lp2550
S':'
asbag49
(g70
g51
NtRp2551
(dp2552
g54
(dp2553
sg63
g2538
sg56
(lp2554
g49
(g50
g51
NtRp2555
(dp2556
g54
(dp2557
g62
I3
ssg63
g2551
sg56
(lp2558
g858
asbasbasbag49
(g65
g51
NtRp2559
(dp2560
g54
(dp2561
sg63
g2450
sg56
(lp2562
g49
(g70
g51
NtRp2563
(dp2564
g54
(dp2565
g74
g75
ssg63
g2559
sg56
(lp2566
S'HTTP_ACCEPT_LANGUAGE'
p2567
asbag49
(g70
g51
NtRp2568
(dp2569
g54
(dp2570
g81
g82
ssg63
g2559
sg56
(lp2571
S':'
asbag49
(g70
g51
NtRp2572
(dp2573
g54
(dp2574
sg63
g2559
sg56
(lp2575
g49
(g50
g51
NtRp2576
(dp2577
g54
(dp2578
g62
I3
ssg63
g2572
sg56
(lp2579
g880
asbasbasbag49
(g65
g51
NtRp2580
(dp2581
g54
(dp2582
sg63
g2450
sg56
(lp2583
g49
(g70
g51
NtRp2584
(dp2585
g54
(dp2586
g74
g75
ssg63
g2580
sg56
(lp2587
S'HTTP_CONNECTION'
p2588
asbag49
(g70
g51
NtRp2589
(dp2590
g54
(dp2591
g81
g82
ssg63
g2580
sg56
(lp2592
S':'
asbag49
(g70
g51
NtRp2593
(dp2594
g54
(dp2595
sg63
g2580
sg56
(lp2596
g49
(g50
g51
NtRp2597
(dp2598
g54
(dp2599
g62
I3
ssg63
g2593
sg56
(lp2600
g902
asbasbasbag49
(g65
g51
NtRp2601
(dp2602
g54
(dp2603
sg63
g2450
sg56
(lp2604
g49
(g70
g51
NtRp2605
(dp2606
g54
(dp2607
g74
g75
ssg63
g2601
sg56
(lp2608
S'HTTP_CONTENT_LENGTH'
p2609
asbag49
(g70
g51
NtRp2610
(dp2611
g54
(dp2612
g81
g82
ssg63
g2601
sg56
(lp2613
S':'
asbag49
(g70
g51
NtRp2614
(dp2615
g54
(dp2616
sg63
g2601
sg56
(lp2617
g49
(g50
g51
NtRp2618
(dp2619
g54
(dp2620
g62
I3
ssg63
g2614
sg56
(lp2621
g704
asbasbasbag49
(g65
g51
NtRp2622
(dp2623
g54
(dp2624
sg63
g2450
sg56
(lp2625
g49
(g70
g51
NtRp2626
(dp2627
g54
(dp2628
g74
g75
ssg63
g2622
sg56
(lp2629
S'HTTP_CONTENT_TYPE'
p2630
asbag49
(g70
g51
NtRp2631
(dp2632
g54
(dp2633
g81
g82
ssg63
g2622
sg56
(lp2634
S':'
asbag49
(g70
g51
NtRp2635
(dp2636
g54
(dp2637
sg63
g2622
sg56
(lp2638
g49
(g50
g51
NtRp2639
(dp2640
g54
(dp2641
g62
I3
ssg63
g2635
sg56
(lp2642
g726
asbasbasbag49
(g65
g51
NtRp2643
(dp2644
g54
(dp2645
sg63
g2450
sg56
(lp2646
g49
(g70
g51
NtRp2647
(dp2648
g54
(dp2649
g74
g75
ssg63
g2643
sg56
(lp2650
S'HTTP_COOKIE'
p2651
asbag49
(g70
g51
NtRp2652
(dp2653
g54
(dp2654
g81
g82
ssg63
g2643
sg56
(lp2655
S':'
asbag49
(g70
g51
NtRp2656
(dp2657
g54
(dp2658
sg63
g2643
sg56
(lp2659
g49
(g50
g51
NtRp2660
(dp2661
g54
(dp2662
g62
I3
ssg63
g2656
sg56
(lp2663
g966
asbasbasbag49
(g65
g51
NtRp2664
(dp2665
g54
(dp2666
sg63
g2450
sg56
(lp2667
g49
(g70
g51
NtRp2668
(dp2669
g54
(dp2670
g74
g75
ssg63
g2664
sg56
(lp2671
S'HTTP_HOST'
p2672
asbag49
(g70
g51
NtRp2673
(dp2674
g54
(dp2675
g81
g82
ssg63
g2664
sg56
(lp2676
S':'
asbag49
(g70
g51
NtRp2677
(dp2678
g54
(dp2679
sg63
g2664
sg56
(lp2680
g49
(g50
g51
NtRp2681
(dp2682
g54
(dp2683
g62
I3
ssg63
g2677
sg56
(lp2684
g988
asbasbasbag49
(g65
g51
NtRp2685
(dp2686
g54
(dp2687
sg63
g2450
sg56
(lp2688
g49
(g70
g51
NtRp2689
(dp2690
g54
(dp2691
g74
g75
ssg63
g2685
sg56
(lp2692
S'HTTP_ORIGIN'
p2693
asbag49
(g70
g51
NtRp2694
(dp2695
g54
(dp2696
g81
g82
ssg63
g2685
sg56
(lp2697
S':'
asbag49
(g70
g51
NtRp2698
(dp2699
g54
(dp2700
sg63
g2685
sg56
(lp2701
g49
(g50
g51
NtRp2702
(dp2703
g54
(dp2704
g62
I3
ssg63
g2698
sg56
(lp2705
g1010
asbasbasbag49
(g65
g51
NtRp2706
(dp2707
g54
(dp2708
sg63
g2450
sg56
(lp2709
g49
(g70
g51
NtRp2710
(dp2711
g54
(dp2712
g74
g75
ssg63
g2706
sg56
(lp2713
S'HTTP_REFERER'
p2714
asbag49
(g70
g51
NtRp2715
(dp2716
g54
(dp2717
g81
g82
ssg63
g2706
sg56
(lp2718
S':'
asbag49
(g70
g51
NtRp2719
(dp2720
g54
(dp2721
sg63
g2706
sg56
(lp2722
g49
(g50
g51
NtRp2723
(dp2724
g54
(dp2725
g62
I3
ssg63
g2719
sg56
(lp2726
g1032
asbasbasbag49
(g65
g51
NtRp2727
(dp2728
g54
(dp2729
sg63
g2450
sg56
(lp2730
g49
(g70
g51
NtRp2731
(dp2732
g54
(dp2733
g74
g75
ssg63
g2727
sg56
(lp2734
S'HTTP_USER_AGENT'
p2735
asbag49
(g70
g51
NtRp2736
(dp2737
g54
(dp2738
g81
g82
ssg63
g2727
sg56
(lp2739
S':'
asbag49
(g70
g51
NtRp2740
(dp2741
g54
(dp2742
sg63
g2727
sg56
(lp2743
g49
(g50
g51
NtRp2744
(dp2745
g54
(dp2746
g62
I3
ssg63
g2740
sg56
(lp2747
g1054
asbasbasbag49
(g65
g51
NtRp2748
(dp2749
g54
(dp2750
sg63
g2450
sg56
(lp2751
g49
(g70
g51
NtRp2752
(dp2753
g54
(dp2754
g74
g75
ssg63
g2748
sg56
(lp2755
S'HTTP_X_REQUESTED_WITH'
p2756
asbag49
(g70
g51
NtRp2757
(dp2758
g54
(dp2759
g81
g82
ssg63
g2748
sg56
(lp2760
S':'
asbag49
(g70
g51
NtRp2761
(dp2762
g54
(dp2763
sg63
g2748
sg56
(lp2764
g49
(g50
g51
NtRp2765
(dp2766
g54
(dp2767
g62
I3
ssg63
g2761
sg56
(lp2768
g1076
asbasbasbag49
(g65
g51
NtRp2769
(dp2770
g54
(dp2771
sg63
g2450
sg56
(lp2772
g49
(g70
g51
NtRp2773
(dp2774
g54
(dp2775
g74
g75
ssg63
g2769
sg56
(lp2776
S'PATH_INFO'
p2777
asbag49
(g70
g51
NtRp2778
(dp2779
g54
(dp2780
g81
g82
ssg63
g2769
sg56
(lp2781
S':'
asbag49
(g70
g51
NtRp2782
(dp2783
g54
(dp2784
sg63
g2769
sg56
(lp2785
g49
(g50
g51
NtRp2786
(dp2787
g54
(dp2788
g62
I3
ssg63
g2782
sg56
(lp2789
g1140
asbasbasbag49
(g65
g51
NtRp2790
(dp2791
g54
(dp2792
sg63
g2450
sg56
(lp2793
g49
(g70
g51
NtRp2794
(dp2795
g54
(dp2796
g74
g75
ssg63
g2790
sg56
(lp2797
S'QUERY_STRING'
p2798
asbag49
(g70
g51
NtRp2799
(dp2800
g54
(dp2801
g81
g82
ssg63
g2790
sg56
(lp2802
S':'
asbag49
(g70
g51
NtRp2803
(dp2804
g54
(dp2805
sg63
g2790
sg56
(lp2806
g49
(g50
g51
NtRp2807
(dp2808
g54
(dp2809
g62
I3
ssg63
g2803
sg56
(lp2810
S''
asbasbasbag49
(g65
g51
NtRp2811
(dp2812
g54
(dp2813
sg63
g2450
sg56
(lp2814
g49
(g70
g51
NtRp2815
(dp2816
g54
(dp2817
g74
g75
ssg63
g2811
sg56
(lp2818
S'REMOTE_ADDR'
p2819
asbag49
(g70
g51
NtRp2820
(dp2821
g54
(dp2822
g81
g82
ssg63
g2811
sg56
(lp2823
S':'
asbag49
(g70
g51
NtRp2824
(dp2825
g54
(dp2826
sg63
g2811
sg56
(lp2827
g49
(g50
g51
NtRp2828
(dp2829
g54
(dp2830
g62
I3
ssg63
g2824
sg56
(lp2831
g182
asbasbasbag49
(g65
g51
NtRp2832
(dp2833
g54
(dp2834
sg63
g2450
sg56
(lp2835
g49
(g70
g51
NtRp2836
(dp2837
g54
(dp2838
g74
g75
ssg63
g2832
sg56
(lp2839
S'REMOTE_PORT'
p2840
asbag49
(g70
g51
NtRp2841
(dp2842
g54
(dp2843
g81
g82
ssg63
g2832
sg56
(lp2844
S':'
asbag49
(g70
g51
NtRp2845
(dp2846
g54
(dp2847
sg63
g2832
sg56
(lp2848
g49
(g50
g51
NtRp2849
(dp2850
g54
(dp2851
g62
I3
ssg63
g2845
sg56
(lp2852
g1204
asbasbasbag49
(g65
g51
NtRp2853
(dp2854
g54
(dp2855
sg63
g2450
sg56
(lp2856
g49
(g70
g51
NtRp2857
(dp2858
g54
(dp2859
g74
g75
ssg63
g2853
sg56
(lp2860
S'REQUEST_METHOD'
p2861
asbag49
(g70
g51
NtRp2862
(dp2863
g54
(dp2864
g81
g82
ssg63
g2853
sg56
(lp2865
S':'
asbag49
(g70
g51
NtRp2866
(dp2867
g54
(dp2868
sg63
g2853
sg56
(lp2869
g49
(g50
g51
NtRp2870
(dp2871
g54
(dp2872
g62
I3
ssg63
g2866
sg56
(lp2873
g1226
asbasbasbag49
(g65
g51
NtRp2874
(dp2875
g54
(dp2876
sg63
g2450
sg56
(lp2877
g49
(g70
g51
NtRp2878
(dp2879
g54
(dp2880
g74
g75
ssg63
g2874
sg56
(lp2881
S'REQUEST_URI'
p2882
asbag49
(g70
g51
NtRp2883
(dp2884
g54
(dp2885
g81
g82
ssg63
g2874
sg56
(lp2886
S':'
asbag49
(g70
g51
NtRp2887
(dp2888
g54
(dp2889
sg63
g2874
sg56
(lp2890
g49
(g50
g51
NtRp2891
(dp2892
g54
(dp2893
g62
I3
ssg63
g2887
sg56
(lp2894
g1140
asbasbasbag49
(g65
g51
NtRp2895
(dp2896
g54
(dp2897
sg63
g2450
sg56
(lp2898
g49
(g70
g51
NtRp2899
(dp2900
g54
(dp2901
g74
g75
ssg63
g2895
sg56
(lp2902
S'SCRIPT_NAME'
p2903
asbag49
(g70
g51
NtRp2904
(dp2905
g54
(dp2906
g81
g82
ssg63
g2895
sg56
(lp2907
S':'
asbag49
(g70
g51
NtRp2908
(dp2909
g54
(dp2910
sg63
g2895
sg56
(lp2911
g49
(g50
g51
NtRp2912
(dp2913
g54
(dp2914
g62
I3
ssg63
g2908
sg56
(lp2915
S''
asbasbasbag49
(g65
g51
NtRp2916
(dp2917
g54
(dp2918
sg63
g2450
sg56
(lp2919
g49
(g70
g51
NtRp2920
(dp2921
g54
(dp2922
g74
g75
ssg63
g2916
sg56
(lp2923
S'SERVER_NAME'
p2924
asbag49
(g70
g51
NtRp2925
(dp2926
g54
(dp2927
g81
g82
ssg63
g2916
sg56
(lp2928
S':'
asbag49
(g70
g51
NtRp2929
(dp2930
g54
(dp2931
sg63
g2916
sg56
(lp2932
g49
(g50
g51
NtRp2933
(dp2934
g54
(dp2935
g62
I3
ssg63
g2929
sg56
(lp2936
g1290
asbasbasbag49
(g65
g51
NtRp2937
(dp2938
g54
(dp2939
sg63
g2450
sg56
(lp2940
g49
(g70
g51
NtRp2941
(dp2942
g54
(dp2943
g74
g75
ssg63
g2937
sg56
(lp2944
S'SERVER_PORT'
p2945
asbag49
(g70
g51
NtRp2946
(dp2947
g54
(dp2948
g81
g82
ssg63
g2937
sg56
(lp2949
S':'
asbag49
(g70
g51
NtRp2950
(dp2951
g54
(dp2952
sg63
g2937
sg56
(lp2953
g49
(g50
g51
NtRp2954
(dp2955
g54
(dp2956
g62
I3
ssg63
g2950
sg56
(lp2957
g1312
asbasbasbag49
(g65
g51
NtRp2958
(dp2959
g54
(dp2960
sg63
g2450
sg56
(lp2961
g49
(g70
g51
NtRp2962
(dp2963
g54
(dp2964
g74
g75
ssg63
g2958
sg56
(lp2965
S'SERVER_PROTOCOL'
p2966
asbag49
(g70
g51
NtRp2967
(dp2968
g54
(dp2969
g81
g82
ssg63
g2958
sg56
(lp2970
S':'
asbag49
(g70
g51
NtRp2971
(dp2972
g54
(dp2973
sg63
g2958
sg56
(lp2974
g49
(g50
g51
NtRp2975
(dp2976
g54
(dp2977
g62
I3
ssg63
g2971
sg56
(lp2978
g1334
asbasbasbag49
(g65
g51
NtRp2979
(dp2980
g54
(dp2981
sg63
g2450
sg56
(lp2982
g49
(g70
g51
NtRp2983
(dp2984
g54
(dp2985
g74
g75
ssg63
g2979
sg56
(lp2986
S'SERVER_SOFTWARE'
p2987
asbag49
(g70
g51
NtRp2988
(dp2989
g54
(dp2990
g81
g82
ssg63
g2979
sg56
(lp2991
S':'
asbag49
(g70
g51
NtRp2992
(dp2993
g54
(dp2994
sg63
g2979
sg56
(lp2995
g49
(g50
g51
NtRp2996
(dp2997
g54
(dp2998
g62
I3
ssg63
g2992
sg56
(lp2999
g1356
asbasbasbag49
(g65
g51
NtRp3000
(dp3001
g54
(dp3002
sg63
g2450
sg56
(lp3003
g49
(g70
g51
NtRp3004
(dp3005
g54
(dp3006
g74
g75
ssg63
g3000
sg56
(lp3007
S'WEB2PY_ORIGINAL_URI'
p3008
asbag49
(g70
g51
NtRp3009
(dp3010
g54
(dp3011
g81
g82
ssg63
g3000
sg56
(lp3012
S':'
asbag49
(g70
g51
NtRp3013
(dp3014
g54
(dp3015
sg63
g3000
sg56
(lp3016
g49
(g50
g51
NtRp3017
(dp3018
g54
(dp3019
g62
I3
ssg63
g3013
sg56
(lp3020
g1400
asbasbasbag49
(g65
g51
NtRp3021
(dp3022
g54
(dp3023
sg63
g2450
sg56
(lp3024
g49
(g70
g51
NtRp3025
(dp3026
g54
(dp3027
g74
g75
ssg63
g3021
sg56
(lp3028
S'wsgi.errors'
p3029
asbag49
(g70
g51
NtRp3030
(dp3031
g54
(dp3032
g81
g82
ssg63
g3021
sg56
(lp3033
S':'
asbag49
(g70
g51
NtRp3034
(dp3035
g54
(dp3036
sg63
g3021
sg56
(lp3037
g49
(g50
g51
NtRp3038
(dp3039
g54
(dp3040
g62
I3
ssg63
g3034
sg56
(lp3041
S"<open file '<stderr>', mode 'w' at 0x4220b0>"
p3042
asbasbasbag49
(g65
g51
NtRp3043
(dp3044
g54
(dp3045
sg63
g2450
sg56
(lp3046
g49
(g70
g51
NtRp3047
(dp3048
g54
(dp3049
g74
g75
ssg63
g3043
sg56
(lp3050
S'wsgi.file_wrapper'
p3051
asbag49
(g70
g51
NtRp3052
(dp3053
g54
(dp3054
g81
g82
ssg63
g3043
sg56
(lp3055
S':'
asbag49
(g70
g51
NtRp3056
(dp3057
g54
(dp3058
sg63
g3043
sg56
(lp3059
g49
(g50
g51
NtRp3060
(dp3061
g54
(dp3062
g62
I3
ssg63
g3056
sg56
(lp3063
S'<class wsgiref.util.FileWrapper at 0x225e6c0>'
p3064
asbasbasbag49
(g65
g51
NtRp3065
(dp3066
g54
(dp3067
sg63
g2450
sg56
(lp3068
g49
(g70
g51
NtRp3069
(dp3070
g54
(dp3071
g74
g75
ssg63
g3065
sg56
(lp3072
S'wsgi.input'
p3073
asbag49
(g70
g51
NtRp3074
(dp3075
g54
(dp3076
g81
g82
ssg63
g3065
sg56
(lp3077
S':'
asbag49
(g70
g51
NtRp3078
(dp3079
g54
(dp3080
sg63
g3065
sg56
(lp3081
g49
(g50
g51
NtRp3082
(dp3083
g54
(dp3084
g62
I3
ssg63
g3078
sg56
(lp3085
S"<open file '<fdopen>', mode 'w+b' at 0xa588410>"
p3086
asbasbasbag49
(g65
g51
NtRp3087
(dp3088
g54
(dp3089
sg63
g2450
sg56
(lp3090
g49
(g70
g51
NtRp3091
(dp3092
g54
(dp3093
g74
g75
ssg63
g3087
sg56
(lp3094
S'wsgi.multiprocess'
p3095
asbag49
(g70
g51
NtRp3096
(dp3097
g54
(dp3098
g81
g82
ssg63
g3087
sg56
(lp3099
S':'
asbag49
(g70
g51
NtRp3100
(dp3101
g54
(dp3102
sg63
g3087
sg56
(lp3103
g49
(g50
g51
NtRp3104
(dp3105
g54
(dp3106
g62
I3
ssg63
g3100
sg56
(lp3107
g770
asbasbasbag49
(g65
g51
NtRp3108
(dp3109
g54
(dp3110
sg63
g2450
sg56
(lp3111
g49
(g70
g51
NtRp3112
(dp3113
g54
(dp3114
g74
g75
ssg63
g3108
sg56
(lp3115
S'wsgi.multithread'
p3116
asbag49
(g70
g51
NtRp3117
(dp3118
g54
(dp3119
g81
g82
ssg63
g3108
sg56
(lp3120
S':'
asbag49
(g70
g51
NtRp3121
(dp3122
g54
(dp3123
sg63
g3108
sg56
(lp3124
g49
(g50
g51
NtRp3125
(dp3126
g54
(dp3127
g62
I3
ssg63
g3121
sg56
(lp3128
g92
asbasbasbag49
(g65
g51
NtRp3129
(dp3130
g54
(dp3131
sg63
g2450
sg56
(lp3132
g49
(g70
g51
NtRp3133
(dp3134
g54
(dp3135
g74
g75
ssg63
g3129
sg56
(lp3136
S'wsgi.run_once'
p3137
asbag49
(g70
g51
NtRp3138
(dp3139
g54
(dp3140
g81
g82
ssg63
g3129
sg56
(lp3141
S':'
asbag49
(g70
g51
NtRp3142
(dp3143
g54
(dp3144
sg63
g3129
sg56
(lp3145
g49
(g50
g51
NtRp3146
(dp3147
g54
(dp3148
g62
I3
ssg63
g3142
sg56
(lp3149
g770
asbasbasbag49
(g65
g51
NtRp3150
(dp3151
g54
(dp3152
sg63
g2450
sg56
(lp3153
g49
(g70
g51
NtRp3154
(dp3155
g54
(dp3156
g74
g75
ssg63
g3150
sg56
(lp3157
S'wsgi.url_scheme'
p3158
asbag49
(g70
g51
NtRp3159
(dp3160
g54
(dp3161
g81
g82
ssg63
g3150
sg56
(lp3162
S':'
asbag49
(g70
g51
NtRp3163
(dp3164
g54
(dp3165
sg63
g3150
sg56
(lp3166
g49
(g50
g51
NtRp3167
(dp3168
g54
(dp3169
g62
I3
ssg63
g3163
sg56
(lp3170
g1660
asbasbasbag49
(g65
g51
NtRp3171
(dp3172
g54
(dp3173
sg63
g2450
sg56
(lp3174
g49
(g70
g51
NtRp3175
(dp3176
g54
(dp3177
g74
g75
ssg63
g3171
sg56
(lp3178
S'wsgi.version'
p3179
asbag49
(g70
g51
NtRp3180
(dp3181
g54
(dp3182
g81
g82
ssg63
g3171
sg56
(lp3183
S':'
asbag49
(g70
g51
NtRp3184
(dp3185
g54
(dp3186
sg63
g3171
sg56
(lp3187
g49
(g50
g51
NtRp3188
(dp3189
g54
(dp3190
g62
I3
ssg63
g3184
sg56
(lp3191
S'1'
asbasbasbasbasbasbasbasbasbasbasbasbasbsS'frames'
p3192
(lp3193
(dp3194
S'file'
p3195
S'/users/udimilo/Documents/web2py/gluon/restricted.py'
p3196
sS'dump'
p3197
(dp3198
S'environment'
p3199
S"{'A': <class 'gluon.html.A'>, 'Auth': <class 'gluon.tools.Auth'>, 'B': <class 'gluon.html.B'>, 'BEAUTIFY': <class 'gluon.html.BEAUTIFY'>, 'BODY': <class 'gluon.html.BODY'>, 'BR': <class 'gluon.html.BR'>, 'BUTTON': <class 'gluon.html.BUTTON'>, 'CAT': <class 'gluon.html.CAT'>, 'CENTER': <class 'gluon.html.CENTER'>, 'CLEANUP': <class 'gluon.validators.CLEANUP'>, ...}"
p3200
sS'ccode'
p3201
S'<code object <module> at 0xa5ab020, file "/Users...ications/udi0312/controllers/default.py", line 2>'
p3202
ssS'lnum'
p3203
I205
sS'lines'
p3204
(dp3205
I200
S'    try:'
p3206
sI201
S'        if type(code) == types.CodeType:'
p3207
sI202
S'            ccode = code'
p3208
sI203
S'        else:'
p3209
sI204
S'            ccode = compile2(code,layer)'
p3210
sI205
S'        exec ccode in environment'
p3211
sI206
S'    except HTTP:'
p3212
sI207
S'        raise'
p3213
sI208
S'    except RestrictedError:'
p3214
sI209
S'        # do not encapsulate (obfuscate) the original RestrictedError'
p3215
ssS'call'
p3216
S"(code='# -*- coding: utf-8 -*-\\nfrom readability import ...d())\\n\\nresponse._vars=response._caller(add_repin)\\n', environment={'A': <class 'gluon.html.A'>, 'Auth': <class 'gluon.tools.Auth'>, 'B': <class 'gluon.html.B'>, 'BEAUTIFY': <class 'gluon.html.BEAUTIFY'>, 'BODY': <class 'gluon.html.BODY'>, 'BR': <class 'gluon.html.BR'>, 'BUTTON': <class 'gluon.html.BUTTON'>, 'CAT': <class 'gluon.html.CAT'>, 'CENTER': <class 'gluon.html.CENTER'>, 'CLEANUP': <class 'gluon.validators.CLEANUP'>, ...}, layer='/Users/udimilo/Documents/web2py/applications/udi0312/controllers/default.py')"
p3217
sS'func'
p3218
S'restricted'
p3219
sa(dp3220
g3195
S'/Users/udimilo/Documents/web2py/applications/udi0312/controllers/default.py'
p3221
sg3197
(dp3222
sg3203
I160
sg3204
(dp3223
I149
S'    http://..../[app]/default/data/update/[table]/[id]'
p3224
sI150
S'    http://..../[app]/default/data/delete/[table]/[id]'
p3225
sI151
S'    http://..../[app]/default/data/select/[table]'
p3226
sI152
S'    http://..../[app]/default/data/search/[table]'
p3227
sI153
S'    but URLs must be signed, i.e. linked with'
p3228
sI154
S"      A('table',_href=URL('data/tables',user_signature=True))"
p3229
sI155
S'    or with the signed load operator'
p3230
sI156
S"      LOAD('default','data.load',args='tables',ajax=True,user_signature=True)"
p3231
sI157
S'    """'
p3232
sI158
S'    return dict(form=crud())'
p3233
ssg3216
S'()'
p3234
sg3218
S'<module>'
p3235
sa(dp3236
g3195
S'/users/udimilo/Documents/web2py/gluon/globals.py'
p3237
sg3197
(dp3238
S'self'
p3239
S'undefined'
p3240
sS'f'
S'<function add_repin at 0xa3dcb30>'
p3241
ssg3203
I173
sg3204
(dp3242
I168
S'        self.menu = []             # used by the default view layout'
p3243
sI169
S'        self.files = []            # used by web2py_ajax.html'
p3244
sI170
S'        self.generic_patterns = [] # patterns to allow generic views'
p3245
sI171
S"        self.delimiters = ('{{','}}')"
p3246
sI172
S'        self._vars = None'
p3247
sI173
S'        self._caller = lambda f: f()'
p3248
sI174
S'        self._view_environment = None'
p3249
sI175
S'        self._custom_commit = None'
p3250
sI176
S'        self._custom_rollback = None'
p3251
sI177
S''
ssg3216
S'(f=<function add_repin at 0xa3dcb30>)'
p3252
sg3218
S'<lambda>'
p3253
sa(dp3254
g3195
S'/Users/udimilo/Documents/web2py/applications/udi0312/controllers/default.py'
p3255
sg3197
(dp3256
S'auth.user.id'
p3257
S'1'
sS'db.board'
p3258
S"<Table {'category': <gluon.dal.Field object at 0...0>, 'id': <gluon.dal.Field object at 0xa2cd5d0>}>"
p3259
sS'db.board.user'
p3260
S'<gluon.dal.Field object at 0xa2cda90>'
p3261
sS'auth.user'
p3262
S"<Storage {'first_name': 'Udi', 'last_name': 'Mil...stration_key': '', 'email': 'udimilo@gmail.com'}>"
p3263
sS').select'
p3264
g3240
sS'global auth'
p3265
S'<gluon.tools.Auth object at 0xa12ff30>'
p3266
sS'global request'
p3267
S"<Storage {'body': <open file '<fdopen>', mode 'w...: <Storage {'repin_board': 'java', 'id': '30'}>}>"
p3268
sS'db.board.name'
p3269
S'<gluon.dal.Field object at 0xa2cdd10>'
p3270
sS'board'
p3271
g3240
sS'global db'
p3272
S"<DAL {'auth_event': <Table {'origin': <gluon.dal...n_key': <gluon.dal.Field object at 0xa14d910>}>}>"
p3273
sS'request.vars'
p3274
S"<Storage {'repin_board': 'java', 'id': '30'}>"
p3275
sS'request.vars.repin_board'
p3276
S"'java'"
p3277
ssg3203
I35
sg3204
(dp3278
I32
S''
sI33
S'def add_repin():'
p3279
sI34
S'    id = request.vars.id'
p3280
sI35
S'    board = db.board((db.board.user==auth.user.id)&(db.board.name==request.vars.repin_board)).select().first()'
p3281
sI36
S'    pin = db.pin(id)'
p3282
sI37
S'    new_pin = db.pin.insert(article=pin.article.id, board=board.id)'
p3283
sI38
S'    return new_pin.id'
p3284
sI39
S''
sI30
S'    pins = db().select(db.pin.ALL, orderby=~db.pin.created_on)'
p3285
sI31
S'    return dict(pins=pins, show_pinner=True)'
p3286
ssg3216
S'()'
p3287
sg3218
S'add_repin'
p3288
sa(dp3289
g3195
S'/users/udimilo/Documents/web2py/gluon/dal.py'
p3290
sg3197
(dp3291
S'self'
p3292
S"<Row {'category': 6, 'name': 'java', 'pin': <glu... <gluon.dal.Set object at 0x8ed4d70>, 'user': 1}>"
p3293
sS'key'
p3294
S"'select'"
p3295
ssg3203
I5657
sg3204
(dp3296
I5652
S''
sI5653
S'    def __setitem__(self, key, value):'
p3297
sI5654
S'        dict.__setitem__(self, str(key), value)'
p3298
sI5655
S''
sI5656
S'    def __getattr__(self, key):'
p3299
sI5657
S'        return self[key]'
p3300
sI5658
S''
sI5659
S'    def __setattr__(self, key, value):'
p3301
sI5660
S'        self[key] = value'
p3302
sI5661
S''
ssg3216
S"(self=<Row {'category': 6, 'name': 'java', 'pin': <glu... <gluon.dal.Set object at 0x8ed4d70>, 'user': 1}>, key='select')"
p3303
sg3218
S'__getattr__'
p3304
sa(dp3305
g3195
S'/users/udimilo/Documents/web2py/gluon/dal.py'
p3306
sg3197
(dp3307
S'self'
p3308
S"<Row {'category': 6, 'name': 'java', 'pin': <glu... <gluon.dal.Set object at 0x8ed4d70>, 'user': 1}>"
p3309
sS'dict.__getitem__'
p3310
S"<method '__getitem__' of 'dict' objects>"
p3311
sS'key'
p3312
S"'select'"
p3313
sS'builtindict'
p3314
S"<type 'dict'>"
p3315
ssg3203
I5648
sg3204
(dp3316
I5643
S'        elif m:'
p3317
sI5644
S'            try:'
p3318
sI5645
S'                return dict.__getitem__(self, m.group(1))[m.group(2)]'
p3319
sI5646
S'            except (KeyError,TypeError):'
p3320
sI5647
S'                key = m.group(2)'
p3321
sI5648
S'        return dict.__getitem__(self, key)'
p3322
sI5649
S''
sI5650
S'    def __call__(self,key):'
p3323
sI5651
S'        return self.__getitem__(key)'
p3324
sI5652
S''
ssg3216
S"(self=<Row {'category': 6, 'name': 'java', 'pin': <glu... <gluon.dal.Set object at 0x8ed4d70>, 'user': 1}>, key='select')"
p3325
sg3218
g20
sasS'pyver'
p3326
S'Python 2.5.4: /Library/Frameworks/Python.framework/Versions/2.5/Resources/Python.app/Contents/MacOS/Python'
p3327
sS'session'
p3328
g49
(g50
g51
NtRp3329
(dp3330
g54
(dp3331
sg56
(lp3332
g49
(g58
g51
NtRp3333
(dp3334
g54
(dp3335
g62
I5
ssg63
Nsg56
(lp3336
g49
(g65
g51
NtRp3337
(dp3338
g54
(dp3339
sg63
g3333
sg56
(lp3340
g49
(g70
g51
NtRp3341
(dp3342
g54
(dp3343
g74
g75
ssg63
g3337
sg56
(lp3344
S'auth'
p3345
asbag49
(g70
g51
NtRp3346
(dp3347
g54
(dp3348
g81
g82
ssg63
g3337
sg56
(lp3349
S':'
asbag49
(g70
g51
NtRp3350
(dp3351
g54
(dp3352
sg63
g3337
sg56
(lp3353
g49
(g50
g51
NtRp3354
(dp3355
g54
(dp3356
g62
I5
ssg63
g3350
sg56
(lp3357
g49
(g58
g51
NtRp3358
(dp3359
g54
(dp3360
g62
I4
ssg63
Nsg56
(lp3361
g49
(g65
g51
NtRp3362
(dp3363
g54
(dp3364
sg63
g3358
sg56
(lp3365
g49
(g70
g51
NtRp3366
(dp3367
g54
(dp3368
g74
g75
ssg63
g3362
sg56
(lp3369
S'expiration'
p3370
asbag49
(g70
g51
NtRp3371
(dp3372
g54
(dp3373
g81
g82
ssg63
g3362
sg56
(lp3374
S':'
asbag49
(g70
g51
NtRp3375
(dp3376
g54
(dp3377
sg63
g3362
sg56
(lp3378
g49
(g50
g51
NtRp3379
(dp3380
g54
(dp3381
g62
I4
ssg63
g3375
sg56
(lp3382
S'3600'
p3383
asbasbasbag49
(g65
g51
NtRp3384
(dp3385
g54
(dp3386
sg63
g3358
sg56
(lp3387
g49
(g70
g51
NtRp3388
(dp3389
g54
(dp3390
g74
g75
ssg63
g3384
sg56
(lp3391
S'hmac_key'
p3392
asbag49
(g70
g51
NtRp3393
(dp3394
g54
(dp3395
g81
g82
ssg63
g3384
sg56
(lp3396
S':'
asbag49
(g70
g51
NtRp3397
(dp3398
g54
(dp3399
sg63
g3384
sg56
(lp3400
g49
(g50
g51
NtRp3401
(dp3402
g54
(dp3403
g62
I4
ssg63
g3397
sg56
(lp3404
S'03a7b695-3166-4cc7-a732-4bee2d1f5f1e'
p3405
asbasbasbag49
(g65
g51
NtRp3406
(dp3407
g54
(dp3408
sg63
g3358
sg56
(lp3409
g49
(g70
g51
NtRp3410
(dp3411
g54
(dp3412
g74
g75
ssg63
g3406
sg56
(lp3413
S'last_visit'
p3414
asbag49
(g70
g51
NtRp3415
(dp3416
g54
(dp3417
g81
g82
ssg63
g3406
sg56
(lp3418
S':'
asbag49
(g70
g51
NtRp3419
(dp3420
g54
(dp3421
sg63
g3406
sg56
(lp3422
g49
(g50
g51
NtRp3423
(dp3424
g54
(dp3425
g62
I4
ssg63
g3419
sg56
(lp3426
S'datetime.datetime(2012, 3, 19, 12, 31, 49, 387946)'
p3427
asbasbasbag49
(g65
g51
NtRp3428
(dp3429
g54
(dp3430
sg63
g3358
sg56
(lp3431
g49
(g70
g51
NtRp3432
(dp3433
g54
(dp3434
g74
g75
ssg63
g3428
sg56
(lp3435
S'remember'
p3436
asbag49
(g70
g51
NtRp3437
(dp3438
g54
(dp3439
g81
g82
ssg63
g3428
sg56
(lp3440
S':'
asbag49
(g70
g51
NtRp3441
(dp3442
g54
(dp3443
sg63
g3428
sg56
(lp3444
g49
(g50
g51
NtRp3445
(dp3446
g54
(dp3447
g62
I4
ssg63
g3441
sg56
(lp3448
g770
asbasbasbag49
(g65
g51
NtRp3449
(dp3450
g54
(dp3451
sg63
g3358
sg56
(lp3452
g49
(g70
g51
NtRp3453
(dp3454
g54
(dp3455
g74
g75
ssg63
g3449
sg56
(lp3456
S'user'
p3457
asbag49
(g70
g51
NtRp3458
(dp3459
g54
(dp3460
g81
g82
ssg63
g3449
sg56
(lp3461
S':'
asbag49
(g70
g51
NtRp3462
(dp3463
g54
(dp3464
sg63
g3449
sg56
(lp3465
g49
(g50
g51
NtRp3466
(dp3467
g54
(dp3468
g62
I4
ssg63
g3462
sg56
(lp3469
g49
(g58
g51
NtRp3470
(dp3471
g54
(dp3472
g62
I3
ssg63
Nsg56
(lp3473
g49
(g65
g51
NtRp3474
(dp3475
g54
(dp3476
sg63
g3470
sg56
(lp3477
g49
(g70
g51
NtRp3478
(dp3479
g54
(dp3480
g74
g75
ssg63
g3474
sg56
(lp3481
S'email'
p3482
asbag49
(g70
g51
NtRp3483
(dp3484
g54
(dp3485
g81
g82
ssg63
g3474
sg56
(lp3486
S':'
asbag49
(g70
g51
NtRp3487
(dp3488
g54
(dp3489
sg63
g3474
sg56
(lp3490
g49
(g50
g51
NtRp3491
(dp3492
g54
(dp3493
g62
I3
ssg63
g3487
sg56
(lp3494
S'udimilo@gmail.com'
p3495
asbasbasbag49
(g65
g51
NtRp3496
(dp3497
g54
(dp3498
sg63
g3470
sg56
(lp3499
g49
(g70
g51
NtRp3500
(dp3501
g54
(dp3502
g74
g75
ssg63
g3496
sg56
(lp3503
S'first_name'
p3504
asbag49
(g70
g51
NtRp3505
(dp3506
g54
(dp3507
g81
g82
ssg63
g3496
sg56
(lp3508
S':'
asbag49
(g70
g51
NtRp3509
(dp3510
g54
(dp3511
sg63
g3496
sg56
(lp3512
g49
(g50
g51
NtRp3513
(dp3514
g54
(dp3515
g62
I3
ssg63
g3509
sg56
(lp3516
S'Udi'
p3517
asbasbasbag49
(g65
g51
NtRp3518
(dp3519
g54
(dp3520
sg63
g3470
sg56
(lp3521
g49
(g70
g51
NtRp3522
(dp3523
g54
(dp3524
g74
g75
ssg63
g3518
sg56
(lp3525
S'id'
p3526
asbag49
(g70
g51
NtRp3527
(dp3528
g54
(dp3529
g81
g82
ssg63
g3518
sg56
(lp3530
S':'
asbag49
(g70
g51
NtRp3531
(dp3532
g54
(dp3533
sg63
g3518
sg56
(lp3534
g49
(g50
g51
NtRp3535
(dp3536
g54
(dp3537
g62
I3
ssg63
g3531
sg56
(lp3538
S'1'
asbasbasbag49
(g65
g51
NtRp3539
(dp3540
g54
(dp3541
sg63
g3470
sg56
(lp3542
g49
(g70
g51
NtRp3543
(dp3544
g54
(dp3545
g74
g75
ssg63
g3539
sg56
(lp3546
S'last_name'
p3547
asbag49
(g70
g51
NtRp3548
(dp3549
g54
(dp3550
g81
g82
ssg63
g3539
sg56
(lp3551
S':'
asbag49
(g70
g51
NtRp3552
(dp3553
g54
(dp3554
sg63
g3539
sg56
(lp3555
g49
(g50
g51
NtRp3556
(dp3557
g54
(dp3558
g62
I3
ssg63
g3552
sg56
(lp3559
S'Milo'
p3560
asbasbasbag49
(g65
g51
NtRp3561
(dp3562
g54
(dp3563
sg63
g3470
sg56
(lp3564
g49
(g70
g51
NtRp3565
(dp3566
g54
(dp3567
g74
g75
ssg63
g3561
sg56
(lp3568
S'password'
p3569
asbag49
(g70
g51
NtRp3570
(dp3571
g54
(dp3572
g81
g82
ssg63
g3561
sg56
(lp3573
S':'
asbag49
(g70
g51
NtRp3574
(dp3575
g54
(dp3576
sg63
g3561
sg56
(lp3577
g49
(g50
g51
NtRp3578
(dp3579
g54
(dp3580
g62
I3
ssg63
g3574
sg56
(lp3581
S'7a6e3c6a68ceed66634484a3f64a3468'
p3582
asbasbasbag49
(g65
g51
NtRp3583
(dp3584
g54
(dp3585
sg63
g3470
sg56
(lp3586
g49
(g70
g51
NtRp3587
(dp3588
g54
(dp3589
g74
g75
ssg63
g3583
sg56
(lp3590
S'registration_id'
p3591
asbag49
(g70
g51
NtRp3592
(dp3593
g54
(dp3594
g81
g82
ssg63
g3583
sg56
(lp3595
S':'
asbag49
(g70
g51
NtRp3596
(dp3597
g54
(dp3598
sg63
g3583
sg56
(lp3599
g49
(g50
g51
NtRp3600
(dp3601
g54
(dp3602
g62
I3
ssg63
g3596
sg56
(lp3603
S''
asbasbasbag49
(g65
g51
NtRp3604
(dp3605
g54
(dp3606
sg63
g3470
sg56
(lp3607
g49
(g70
g51
NtRp3608
(dp3609
g54
(dp3610
g74
g75
ssg63
g3604
sg56
(lp3611
S'registration_key'
p3612
asbag49
(g70
g51
NtRp3613
(dp3614
g54
(dp3615
g81
g82
ssg63
g3604
sg56
(lp3616
S':'
asbag49
(g70
g51
NtRp3617
(dp3618
g54
(dp3619
sg63
g3604
sg56
(lp3620
g49
(g50
g51
NtRp3621
(dp3622
g54
(dp3623
g62
I3
ssg63
g3617
sg56
(lp3624
S''
asbasbasbag49
(g65
g51
NtRp3625
(dp3626
g54
(dp3627
sg63
g3470
sg56
(lp3628
g49
(g70
g51
NtRp3629
(dp3630
g54
(dp3631
g74
g75
ssg63
g3625
sg56
(lp3632
S'reset_password_key'
p3633
asbag49
(g70
g51
NtRp3634
(dp3635
g54
(dp3636
g81
g82
ssg63
g3625
sg56
(lp3637
S':'
asbag49
(g70
g51
NtRp3638
(dp3639
g54
(dp3640
sg63
g3625
sg56
(lp3641
g49
(g50
g51
NtRp3642
(dp3643
g54
(dp3644
g62
I3
ssg63
g3638
sg56
(lp3645
S''
asbasbasbasbasbasbasbag49
(g65
g51
NtRp3646
(dp3647
g54
(dp3648
sg63
g3358
sg56
(lp3649
g49
(g70
g51
NtRp3650
(dp3651
g54
(dp3652
g74
g75
ssg63
g3646
sg56
(lp3653
S'user_groups'
p3654
asbag49
(g70
g51
NtRp3655
(dp3656
g54
(dp3657
g81
g82
ssg63
g3646
sg56
(lp3658
S':'
asbag49
(g70
g51
NtRp3659
(dp3660
g54
(dp3661
sg63
g3646
sg56
(lp3662
g49
(g50
g51
NtRp3663
(dp3664
g54
(dp3665
g62
I4
ssg63
g3659
sg56
(lp3666
g49
(g58
g51
NtRp3667
(dp3668
g54
(dp3669
g62
I3
ssg63
Nsg56
(lp3670
g49
(g65
g51
NtRp3671
(dp3672
g54
(dp3673
sg63
g3667
sg56
(lp3674
g49
(g70
g51
NtRp3675
(dp3676
g54
(dp3677
g74
g75
ssg63
g3671
sg56
(lp3678
S'1'
asbag49
(g70
g51
NtRp3679
(dp3680
g54
(dp3681
g81
g82
ssg63
g3671
sg56
(lp3682
S':'
asbag49
(g70
g51
NtRp3683
(dp3684
g54
(dp3685
sg63
g3671
sg56
(lp3686
g49
(g50
g51
NtRp3687
(dp3688
g54
(dp3689
g62
I3
ssg63
g3683
sg56
(lp3690
S'user_1'
p3691
asbasbasbasbasbasbasbasbasbasbasbag49
(g65
g51
NtRp3692
(dp3693
g54
(dp3694
sg63
g3333
sg56
(lp3695
g49
(g70
g51
NtRp3696
(dp3697
g54
(dp3698
g74
g75
ssg63
g3692
sg56
(lp3699
S'last_query'
p3700
asbag49
(g70
g51
NtRp3701
(dp3702
g54
(dp3703
g81
g82
ssg63
g3692
sg56
(lp3704
S':'
asbag49
(g70
g51
NtRp3705
(dp3706
g54
(dp3707
sg63
g3692
sg56
(lp3708
g49
(g50
g51
NtRp3709
(dp3710
g54
(dp3711
g62
I5
ssg63
g3705
sg56
(lp3712
S'db.auth_user.id>0'
p3713
asbasbasbasbasbsS'etype'
p3714
S"<type 'exceptions.KeyError'>"
p3715
sS'date'
p3716
S'Mon Mar 19 12:31:49 2012'
p3717
sS'response'
p3718
g49
(g50
g51
NtRp3719
(dp3720
g54
(dp3721
sg56
(lp3722
g49
(g58
g51
NtRp3723
(dp3724
g54
(dp3725
g62
I5
ssg63
Nsg56
(lp3726
g49
(g65
g51
NtRp3727
(dp3728
g54
(dp3729
sg63
g3723
sg56
(lp3730
g49
(g70
g51
NtRp3731
(dp3732
g54
(dp3733
g74
g75
ssg63
g3727
sg56
(lp3734
g147
asbag49
(g70
g51
NtRp3735
(dp3736
g54
(dp3737
g81
g82
ssg63
g3727
sg56
(lp3738
S':'
asbag49
(g70
g51
NtRp3739
(dp3740
g54
(dp3741
sg63
g3727
sg56
(lp3742
g49
(g50
g51
NtRp3743
(dp3744
g54
(dp3745
g62
I5
ssg63
g3739
sg56
(lp3746
S'<cStringIO.StringO object at 0xa1ab4a0>'
p3747
asbasbasbag49
(g65
g51
NtRp3748
(dp3749
g54
(dp3750
sg63
g3723
sg56
(lp3751
g49
(g70
g51
NtRp3752
(dp3753
g54
(dp3754
g74
g75
ssg63
g3748
sg56
(lp3755
g213
asbag49
(g70
g51
NtRp3756
(dp3757
g54
(dp3758
g81
g82
ssg63
g3748
sg56
(lp3759
S':'
asbag49
(g70
g51
NtRp3760
(dp3761
g54
(dp3762
sg63
g3748
sg56
(lp3763
g49
(g50
g51
NtRp3764
(dp3765
g54
(dp3766
g62
I5
ssg63
g3760
sg56
(lp3767
g49
(g58
g51
NtRp3768
(dp3769
g54
(dp3770
g62
I4
ssg63
Nsg56
(lp3771
g49
(g65
g51
NtRp3772
(dp3773
g54
(dp3774
sg63
g3768
sg56
(lp3775
g49
(g70
g51
NtRp3776
(dp3777
g54
(dp3778
g74
g75
ssg63
g3772
sg56
(lp3779
S'session_id_udi0312'
p3780
asbag49
(g70
g51
NtRp3781
(dp3782
g54
(dp3783
g81
g82
ssg63
g3772
sg56
(lp3784
S':'
asbag49
(g70
g51
NtRp3785
(dp3786
g54
(dp3787
sg63
g3772
sg56
(lp3788
g49
(g50
g51
NtRp3789
(dp3790
g54
(dp3791
g62
I4
ssg63
g3785
sg56
(lp3792
g49
(g58
g51
NtRp3793
(dp3794
g54
(dp3795
g62
I3
ssg63
Nsg56
(lp3796
g49
(g65
g51
NtRp3797
(dp3798
g54
(dp3799
sg63
g3793
sg56
(lp3800
g49
(g70
g51
NtRp3801
(dp3802
g54
(dp3803
g74
g75
ssg63
g3797
sg56
(lp3804
g263
asbag49
(g70
g51
NtRp3805
(dp3806
g54
(dp3807
g81
g82
ssg63
g3797
sg56
(lp3808
S':'
asbag49
(g70
g51
NtRp3809
(dp3810
g54
(dp3811
sg63
g3797
sg56
(lp3812
g49
(g50
g51
NtRp3813
(dp3814
g54
(dp3815
g62
I3
ssg63
g3809
sg56
(lp3816
S''
asbasbasbag49
(g65
g51
NtRp3817
(dp3818
g54
(dp3819
sg63
g3793
sg56
(lp3820
g49
(g70
g51
NtRp3821
(dp3822
g54
(dp3823
g74
g75
ssg63
g3817
sg56
(lp3824
g284
asbag49
(g70
g51
NtRp3825
(dp3826
g54
(dp3827
g81
g82
ssg63
g3817
sg56
(lp3828
S':'
asbag49
(g70
g51
NtRp3829
(dp3830
g54
(dp3831
sg63
g3817
sg56
(lp3832
g49
(g50
g51
NtRp3833
(dp3834
g54
(dp3835
g62
I3
ssg63
g3829
sg56
(lp3836
S''
asbasbasbag49
(g65
g51
NtRp3837
(dp3838
g54
(dp3839
sg63
g3793
sg56
(lp3840
g49
(g70
g51
NtRp3841
(dp3842
g54
(dp3843
g74
g75
ssg63
g3837
sg56
(lp3844
g305
asbag49
(g70
g51
NtRp3845
(dp3846
g54
(dp3847
g81
g82
ssg63
g3837
sg56
(lp3848
S':'
asbag49
(g70
g51
NtRp3849
(dp3850
g54
(dp3851
sg63
g3837
sg56
(lp3852
g49
(g50
g51
NtRp3853
(dp3854
g54
(dp3855
g62
I3
ssg63
g3849
sg56
(lp3856
S''
asbasbasbag49
(g65
g51
NtRp3857
(dp3858
g54
(dp3859
sg63
g3793
sg56
(lp3860
g49
(g70
g51
NtRp3861
(dp3862
g54
(dp3863
g74
g75
ssg63
g3857
sg56
(lp3864
g326
asbag49
(g70
g51
NtRp3865
(dp3866
g54
(dp3867
g81
g82
ssg63
g3857
sg56
(lp3868
S':'
asbag49
(g70
g51
NtRp3869
(dp3870
g54
(dp3871
sg63
g3857
sg56
(lp3872
g49
(g50
g51
NtRp3873
(dp3874
g54
(dp3875
g62
I3
ssg63
g3869
sg56
(lp3876
S''
asbasbasbag49
(g65
g51
NtRp3877
(dp3878
g54
(dp3879
sg63
g3793
sg56
(lp3880
g49
(g70
g51
NtRp3881
(dp3882
g54
(dp3883
g74
g75
ssg63
g3877
sg56
(lp3884
g347
asbag49
(g70
g51
NtRp3885
(dp3886
g54
(dp3887
g81
g82
ssg63
g3877
sg56
(lp3888
S':'
asbag49
(g70
g51
NtRp3889
(dp3890
g54
(dp3891
sg63
g3877
sg56
(lp3892
g49
(g50
g51
NtRp3893
(dp3894
g54
(dp3895
g62
I3
ssg63
g3889
sg56
(lp3896
S'/'
asbasbasbag49
(g65
g51
NtRp3897
(dp3898
g54
(dp3899
sg63
g3793
sg56
(lp3900
g49
(g70
g51
NtRp3901
(dp3902
g54
(dp3903
g74
g75
ssg63
g3897
sg56
(lp3904
g368
asbag49
(g70
g51
NtRp3905
(dp3906
g54
(dp3907
g81
g82
ssg63
g3897
sg56
(lp3908
S':'
asbag49
(g70
g51
NtRp3909
(dp3910
g54
(dp3911
sg63
g3897
sg56
(lp3912
g49
(g50
g51
NtRp3913
(dp3914
g54
(dp3915
g62
I3
ssg63
g3909
sg56
(lp3916
S''
asbasbasbag49
(g65
g51
NtRp3917
(dp3918
g54
(dp3919
sg63
g3793
sg56
(lp3920
g49
(g70
g51
NtRp3921
(dp3922
g54
(dp3923
g74
g75
ssg63
g3917
sg56
(lp3924
g389
asbag49
(g70
g51
NtRp3925
(dp3926
g54
(dp3927
g81
g82
ssg63
g3917
sg56
(lp3928
S':'
asbag49
(g70
g51
NtRp3929
(dp3930
g54
(dp3931
sg63
g3917
sg56
(lp3932
g49
(g50
g51
NtRp3933
(dp3934
g54
(dp3935
g62
I3
ssg63
g3929
sg56
(lp3936
S''
asbasbasbasbasbasbasbasbasbasbasbag49
(g65
g51
NtRp3937
(dp3938
g54
(dp3939
sg63
g3723
sg56
(lp3940
g49
(g70
g51
NtRp3941
(dp3942
g54
(dp3943
g74
g75
ssg63
g3937
sg56
(lp3944
S'delimiters'
p3945
asbag49
(g70
g51
NtRp3946
(dp3947
g54
(dp3948
g81
g82
ssg63
g3937
sg56
(lp3949
S':'
asbag49
(g70
g51
NtRp3950
(dp3951
g54
(dp3952
sg63
g3937
sg56
(lp3953
g49
(g50
g51
NtRp3954
(dp3955
g54
(dp3956
g62
I5
ssg63
g3950
sg56
(lp3957
g49
(g58
g51
NtRp3958
(dp3959
g54
(dp3960
g62
I4
ssg63
Nsg56
(lp3961
g49
(g65
g51
NtRp3962
(dp3963
g54
(dp3964
sg63
g3958
sg56
(lp3965
g49
(g70
g51
NtRp3966
(dp3967
g54
(dp3968
sg63
g3962
sg56
(lp3969
g49
(g50
g51
NtRp3970
(dp3971
g54
(dp3972
g62
I4
ssg63
g3966
sg56
(lp3973
S'{{'
p3974
asbasbasbag49
(g65
g51
NtRp3975
(dp3976
g54
(dp3977
sg63
g3958
sg56
(lp3978
g49
(g70
g51
NtRp3979
(dp3980
g54
(dp3981
sg63
g3975
sg56
(lp3982
g49
(g50
g51
NtRp3983
(dp3984
g54
(dp3985
g62
I4
ssg63
g3979
sg56
(lp3986
S'}}'
p3987
asbasbasbasbasbasbasbag49
(g65
g51
NtRp3988
(dp3989
g54
(dp3990
sg63
g3723
sg56
(lp3991
g49
(g70
g51
NtRp3992
(dp3993
g54
(dp3994
g74
g75
ssg63
g3988
sg56
(lp3995
S'files'
p3996
asbag49
(g70
g51
NtRp3997
(dp3998
g54
(dp3999
g81
g82
ssg63
g3988
sg56
(lp4000
S':'
asbag49
(g70
g51
NtRp4001
(dp4002
g54
(dp4003
sg63
g3988
sg56
(lp4004
g49
(g50
g51
NtRp4005
(dp4006
g54
(dp4007
g62
I5
ssg63
g4001
sg56
(lp4008
g49
(g58
g51
NtRp4009
(dp4010
g54
(dp4011
g62
I4
ssg63
Nsg56
(lp4012
sbasbasbasbag49
(g65
g51
NtRp4013
(dp4014
g54
(dp4015
sg63
g3723
sg56
(lp4016
g49
(g70
g51
NtRp4017
(dp4018
g54
(dp4019
g74
g75
ssg63
g4013
sg56
(lp4020
S'flash'
p4021
asbag49
(g70
g51
NtRp4022
(dp4023
g54
(dp4024
g81
g82
ssg63
g4013
sg56
(lp4025
S':'
asbag49
(g70
g51
NtRp4026
(dp4027
g54
(dp4028
sg63
g4013
sg56
(lp4029
g49
(g50
g51
NtRp4030
(dp4031
g54
(dp4032
g62
I5
ssg63
g4026
sg56
(lp4033
S''
asbasbasbag49
(g65
g51
NtRp4034
(dp4035
g54
(dp4036
sg63
g3723
sg56
(lp4037
g49
(g70
g51
NtRp4038
(dp4039
g54
(dp4040
g74
g75
ssg63
g4034
sg56
(lp4041
S'generic_patterns'
p4042
asbag49
(g70
g51
NtRp4043
(dp4044
g54
(dp4045
g81
g82
ssg63
g4034
sg56
(lp4046
S':'
asbag49
(g70
g51
NtRp4047
(dp4048
g54
(dp4049
sg63
g4034
sg56
(lp4050
g49
(g50
g51
NtRp4051
(dp4052
g54
(dp4053
g62
I5
ssg63
g4047
sg56
(lp4054
g49
(g58
g51
NtRp4055
(dp4056
g54
(dp4057
g62
I4
ssg63
Nsg56
(lp4058
g49
(g65
g51
NtRp4059
(dp4060
g54
(dp4061
sg63
g4055
sg56
(lp4062
g49
(g70
g51
NtRp4063
(dp4064
g54
(dp4065
sg63
g4059
sg56
(lp4066
g49
(g50
g51
NtRp4067
(dp4068
g54
(dp4069
g62
I4
ssg63
g4063
sg56
(lp4070
S'*'
asbasbasbasbasbasbasbag49
(g65
g51
NtRp4071
(dp4072
g54
(dp4073
sg63
g3723
sg56
(lp4074
g49
(g70
g51
NtRp4075
(dp4076
g54
(dp4077
g74
g75
ssg63
g4071
sg56
(lp4078
S'headers'
p4079
asbag49
(g70
g51
NtRp4080
(dp4081
g54
(dp4082
g81
g82
ssg63
g4071
sg56
(lp4083
S':'
asbag49
(g70
g51
NtRp4084
(dp4085
g54
(dp4086
sg63
g4071
sg56
(lp4087
g49
(g50
g51
NtRp4088
(dp4089
g54
(dp4090
g62
I5
ssg63
g4084
sg56
(lp4091
g49
(g58
g51
NtRp4092
(dp4093
g54
(dp4094
g62
I4
ssg63
Nsg56
(lp4095
g49
(g65
g51
NtRp4096
(dp4097
g54
(dp4098
sg63
g4092
sg56
(lp4099
g49
(g70
g51
NtRp4100
(dp4101
g54
(dp4102
g74
g75
ssg63
g4096
sg56
(lp4103
S'Cache-Control'
p4104
asbag49
(g70
g51
NtRp4105
(dp4106
g54
(dp4107
g81
g82
ssg63
g4096
sg56
(lp4108
S':'
asbag49
(g70
g51
NtRp4109
(dp4110
g54
(dp4111
sg63
g4096
sg56
(lp4112
g49
(g50
g51
NtRp4113
(dp4114
g54
(dp4115
g62
I4
ssg63
g4109
sg56
(lp4116
S'no-store, no-cache, must-revalidate, post-check=0, pre-check=0'
p4117
asbasbasbag49
(g65
g51
NtRp4118
(dp4119
g54
(dp4120
sg63
g4092
sg56
(lp4121
g49
(g70
g51
NtRp4122
(dp4123
g54
(dp4124
g74
g75
ssg63
g4118
sg56
(lp4125
S'Content-Type'
p4126
asbag49
(g70
g51
NtRp4127
(dp4128
g54
(dp4129
g81
g82
ssg63
g4118
sg56
(lp4130
S':'
asbag49
(g70
g51
NtRp4131
(dp4132
g54
(dp4133
sg63
g4118
sg56
(lp4134
g49
(g50
g51
NtRp4135
(dp4136
g54
(dp4137
g62
I4
ssg63
g4131
sg56
(lp4138
S'text/html; charset=utf-8'
p4139
asbasbasbag49
(g65
g51
NtRp4140
(dp4141
g54
(dp4142
sg63
g4092
sg56
(lp4143
g49
(g70
g51
NtRp4144
(dp4145
g54
(dp4146
g74
g75
ssg63
g4140
sg56
(lp4147
S'Expires'
p4148
asbag49
(g70
g51
NtRp4149
(dp4150
g54
(dp4151
g81
g82
ssg63
g4140
sg56
(lp4152
S':'
asbag49
(g70
g51
NtRp4153
(dp4154
g54
(dp4155
sg63
g4140
sg56
(lp4156
g49
(g50
g51
NtRp4157
(dp4158
g54
(dp4159
g62
I4
ssg63
g4153
sg56
(lp4160
S'Mon, 19 Mar 2012 16:31:49 GMT'
p4161
asbasbasbag49
(g65
g51
NtRp4162
(dp4163
g54
(dp4164
sg63
g4092
sg56
(lp4165
g49
(g70
g51
NtRp4166
(dp4167
g54
(dp4168
g74
g75
ssg63
g4162
sg56
(lp4169
S'Pragma'
p4170
asbag49
(g70
g51
NtRp4171
(dp4172
g54
(dp4173
g81
g82
ssg63
g4162
sg56
(lp4174
S':'
asbag49
(g70
g51
NtRp4175
(dp4176
g54
(dp4177
sg63
g4162
sg56
(lp4178
g49
(g50
g51
NtRp4179
(dp4180
g54
(dp4181
g62
I4
ssg63
g4175
sg56
(lp4182
S'no-cache'
p4183
asbasbasbag49
(g65
g51
NtRp4184
(dp4185
g54
(dp4186
sg63
g4092
sg56
(lp4187
g49
(g70
g51
NtRp4188
(dp4189
g54
(dp4190
g74
g75
ssg63
g4184
sg56
(lp4191
S'X-Powered-By'
p4192
asbag49
(g70
g51
NtRp4193
(dp4194
g54
(dp4195
g81
g82
ssg63
g4184
sg56
(lp4196
S':'
asbag49
(g70
g51
NtRp4197
(dp4198
g54
(dp4199
sg63
g4184
sg56
(lp4200
g49
(g50
g51
NtRp4201
(dp4202
g54
(dp4203
g62
I4
ssg63
g4197
sg56
(lp4204
S'web2py'
p4205
asbasbasbasbasbasbasbag49
(g65
g51
NtRp4206
(dp4207
g54
(dp4208
sg63
g3723
sg56
(lp4209
g49
(g70
g51
NtRp4210
(dp4211
g54
(dp4212
g74
g75
ssg63
g4206
sg56
(lp4213
S'menu'
p4214
asbag49
(g70
g51
NtRp4215
(dp4216
g54
(dp4217
g81
g82
ssg63
g4206
sg56
(lp4218
S':'
asbag49
(g70
g51
NtRp4219
(dp4220
g54
(dp4221
sg63
g4206
sg56
(lp4222
g49
(g50
g51
NtRp4223
(dp4224
g54
(dp4225
g62
I5
ssg63
g4219
sg56
(lp4226
g49
(g58
g51
NtRp4227
(dp4228
g54
(dp4229
g62
I4
ssg63
Nsg56
(lp4230
g49
(g65
g51
NtRp4231
(dp4232
g54
(dp4233
sg63
g4227
sg56
(lp4234
g49
(g70
g51
NtRp4235
(dp4236
g54
(dp4237
sg63
g4231
sg56
(lp4238
g49
(g50
g51
NtRp4239
(dp4240
g54
(dp4241
g62
I4
ssg63
g4235
sg56
(lp4242
g49
(g58
g51
NtRp4243
(dp4244
g54
(dp4245
g62
I3
ssg63
Nsg56
(lp4246
g49
(g65
g51
NtRp4247
(dp4248
g54
(dp4249
sg63
g4243
sg56
(lp4250
g49
(g70
g51
NtRp4251
(dp4252
g54
(dp4253
sg63
g4247
sg56
(lp4254
g49
(g50
g51
NtRp4255
(dp4256
g54
(dp4257
g62
I3
ssg63
g4251
sg56
(lp4258
cgluon.languages
lazyT_unpickle
p4259
(S's\x04\x00\x00\x00Home'
tRp4260
asbasbasbag49
(g65
g51
NtRp4261
(dp4262
g54
(dp4263
sg63
g4243
sg56
(lp4264
g49
(g70
g51
NtRp4265
(dp4266
g54
(dp4267
sg63
g4261
sg56
(lp4268
g49
(g50
g51
NtRp4269
(dp4270
g54
(dp4271
g62
I3
ssg63
g4265
sg56
(lp4272
g770
asbasbasbag49
(g65
g51
NtRp4273
(dp4274
g54
(dp4275
sg63
g4243
sg56
(lp4276
g49
(g70
g51
NtRp4277
(dp4278
g54
(dp4279
sg63
g4273
sg56
(lp4280
g49
(g50
g51
NtRp4281
(dp4282
g54
(dp4283
g62
I3
ssg63
g4277
sg56
(lp4284
S'/'
asbasbasbag49
(g65
g51
NtRp4285
(dp4286
g54
(dp4287
sg63
g4243
sg56
(lp4288
g49
(g70
g51
NtRp4289
(dp4290
g54
(dp4291
sg63
g4285
sg56
(lp4292
g49
(g50
g51
NtRp4293
(dp4294
g54
(dp4295
g62
I3
ssg63
g4289
sg56
(lp4296
g49
(g58
g51
NtRp4297
(dp4298
g54
(dp4299
g62
I2
ssg63
Nsg56
(lp4300
sbasbasbasbasbasbasbasbag49
(g65
g51
NtRp4301
(dp4302
g54
(dp4303
sg63
g4227
sg56
(lp4304
g49
(g70
g51
NtRp4305
(dp4306
g54
(dp4307
sg63
g4301
sg56
(lp4308
g49
(g50
g51
NtRp4309
(dp4310
g54
(dp4311
g62
I4
ssg63
g4305
sg56
(lp4312
g49
(g58
g51
NtRp4313
(dp4314
g54
(dp4315
g62
I3
ssg63
Nsg56
(lp4316
g49
(g65
g51
NtRp4317
(dp4318
g54
(dp4319
sg63
g4313
sg56
(lp4320
g49
(g70
g51
NtRp4321
(dp4322
g54
(dp4323
sg63
g4317
sg56
(lp4324
g49
(g50
g51
NtRp4325
(dp4326
g54
(dp4327
g62
I3
ssg63
g4321
sg56
(lp4328
g49
(cgluon.html
SPAN
p4329
g51
NtRp4330
(dp4331
g54
(dp4332
g74
S'color:yellow'
p4333
ssg63
Nsg56
(lp4334
g4205
asbasbasbasbag49
(g65
g51
NtRp4335
(dp4336
g54
(dp4337
sg63
g4313
sg56
(lp4338
g49
(g70
g51
NtRp4339
(dp4340
g54
(dp4341
sg63
g4335
sg56
(lp4342
g49
(g50
g51
NtRp4343
(dp4344
g54
(dp4345
g62
I3
ssg63
g4339
sg56
(lp4346
g770
asbasbasbag49
(g65
g51
NtRp4347
(dp4348
g54
(dp4349
sg63
g4313
sg56
(lp4350
g49
(g70
g51
NtRp4351
(dp4352
g54
(dp4353
sg63
g4347
sg56
(lp4354
g49
(g50
g51
NtRp4355
(dp4356
g54
(dp4357
g62
I3
ssg63
g4351
sg56
(lp4358
S'None'
p4359
asbasbasbag49
(g65
g51
NtRp4360
(dp4361
g54
(dp4362
sg63
g4313
sg56
(lp4363
g49
(g70
g51
NtRp4364
(dp4365
g54
(dp4366
sg63
g4360
sg56
(lp4367
g49
(g50
g51
NtRp4368
(dp4369
g54
(dp4370
g62
I3
ssg63
g4364
sg56
(lp4371
g49
(g58
g51
NtRp4372
(dp4373
g54
(dp4374
g62
I2
ssg63
Nsg56
(lp4375
g49
(g65
g51
NtRp4376
(dp4377
g54
(dp4378
sg63
g4372
sg56
(lp4379
g49
(g70
g51
NtRp4380
(dp4381
g54
(dp4382
sg63
g4376
sg56
(lp4383
g49
(g50
g51
NtRp4384
(dp4385
g54
(dp4386
g62
I2
ssg63
g4380
sg56
(lp4387
g49
(g58
g51
NtRp4388
(dp4389
g54
(dp4390
g62
I1
ssg63
Nsg56
(lp4391
g49
(g65
g51
NtRp4392
(dp4393
g54
(dp4394
sg63
g4388
sg56
(lp4395
g49
(g70
g51
NtRp4396
(dp4397
g54
(dp4398
sg63
g4392
sg56
(lp4399
g49
(g50
g51
NtRp4400
(dp4401
g54
(dp4402
g62
I1
ssg63
g4396
sg56
(lp4403
g4259
(S's\x08\x00\x00\x00My Sites'
tRp4404
asbasbasbag49
(g65
g51
NtRp4405
(dp4406
g54
(dp4407
sg63
g4388
sg56
(lp4408
g49
(g70
g51
NtRp4409
(dp4410
g54
(dp4411
sg63
g4405
sg56
(lp4412
g49
(g50
g51
NtRp4413
(dp4414
g54
(dp4415
g62
I1
ssg63
g4409
sg56
(lp4416
I00
asbasbasbag49
(g65
g51
NtRp4417
(dp4418
g54
(dp4419
sg63
g4388
sg56
(lp4420
g49
(g70
g51
NtRp4421
(dp4422
g54
(dp4423
sg63
g4417
sg56
(lp4424
g49
(g50
g51
NtRp4425
(dp4426
g54
(dp4427
g62
I1
ssg63
g4421
sg56
(lp4428
S'/admin/default/site'
p4429
asbasbasbasbasbasbasbag49
(g65
g51
NtRp4430
(dp4431
g54
(dp4432
sg63
g4372
sg56
(lp4433
g49
(g70
g51
NtRp4434
(dp4435
g54
(dp4436
sg63
g4430
sg56
(lp4437
g49
(g50
g51
NtRp4438
(dp4439
g54
(dp4440
g62
I2
ssg63
g4434
sg56
(lp4441
g49
(g58
g51
NtRp4442
(dp4443
g54
(dp4444
g62
I1
ssg63
Nsg56
(lp4445
g49
(g65
g51
NtRp4446
(dp4447
g54
(dp4448
sg63
g4442
sg56
(lp4449
g49
(g70
g51
NtRp4450
(dp4451
g54
(dp4452
sg63
g4446
sg56
(lp4453
g49
(g50
g51
NtRp4454
(dp4455
g54
(dp4456
g62
I1
ssg63
g4450
sg56
(lp4457
g4259
(S's\x08\x00\x00\x00This App'
tRp4458
asbasbasbag49
(g65
g51
NtRp4459
(dp4460
g54
(dp4461
sg63
g4442
sg56
(lp4462
g49
(g70
g51
NtRp4463
(dp4464
g54
(dp4465
sg63
g4459
sg56
(lp4466
g49
(g50
g51
NtRp4467
(dp4468
g54
(dp4469
g62
I1
ssg63
g4463
sg56
(lp4470
I00
asbasbasbag49
(g65
g51
NtRp4471
(dp4472
g54
(dp4473
sg63
g4442
sg56
(lp4474
g49
(g70
g51
NtRp4475
(dp4476
g54
(dp4477
sg63
g4471
sg56
(lp4478
g49
(g50
g51
NtRp4479
(dp4480
g54
(dp4481
g62
I1
ssg63
g4475
sg56
(lp4482
S'/admin/default/design/udi0312'
p4483
asbasbasbag49
(g65
g51
NtRp4484
(dp4485
g54
(dp4486
sg63
g4442
sg56
(lp4487
g49
(g70
g51
NtRp4488
(dp4489
g54
(dp4490
sg63
g4484
sg56
(lp4491
g49
(g50
g51
NtRp4492
(dp4493
g54
(dp4494
g62
I1
ssg63
g4488
sg56
(lp4495
(lp4496
(g4259
(S's\n\x00\x00\x00Controller'
tRp4497
I00
S'/admin/default/edit/udi0312/controllers/default.py'
tp4498
a(g4259
(S's\x04\x00\x00\x00View'
tRp4499
I00
S'/admin/default/edit/udi0312/views/default/add_repin.html'
tp4500
a(g4259
(S's\x06\x00\x00\x00Layout'
tRp4501
I00
S'/admin/default/edit/udi0312/views/layout.html'
tp4502
a(g4259
(S's\n\x00\x00\x00Stylesheet'
tRp4503
I00
S'/admin/default/edit/udi0312/static/css/web2py.css'
tp4504
a(g4259
(S's\x08\x00\x00\x00DB Model'
tRp4505
I00
S'/admin/default/edit/udi0312/models/db.py'
tp4506
a(g4259
(S's\n\x00\x00\x00Menu Model'
tRp4507
I00
S'/admin/default/edit/udi0312/models/menu.py'
tp4508
a(g4259
(S's\x08\x00\x00\x00Database'
tRp4509
I00
S'/udi0312/appadmin/index'
tp4510
a(g4259
(S's\x06\x00\x00\x00Errors'
tRp4511
I00
S'/admin/default/errors/udi0312'
tp4512
a(g4259
(S's\x05\x00\x00\x00About'
tRp4513
I00
S'/admin/default/about/udi0312'
tp4514
aasbasbasbasbasbasbasbag49
(g65
g51
NtRp4515
(dp4516
g54
(dp4517
sg63
g4372
sg56
(lp4518
g49
(g70
g51
NtRp4519
(dp4520
g54
(dp4521
sg63
g4515
sg56
(lp4522
g49
(g50
g51
NtRp4523
(dp4524
g54
(dp4525
g62
I2
ssg63
g4519
sg56
(lp4526
g49
(g58
g51
NtRp4527
(dp4528
g54
(dp4529
g62
I1
ssg63
Nsg56
(lp4530
g49
(g65
g51
NtRp4531
(dp4532
g54
(dp4533
sg63
g4527
sg56
(lp4534
g49
(g70
g51
NtRp4535
(dp4536
g54
(dp4537
sg63
g4531
sg56
(lp4538
g49
(g50
g51
NtRp4539
(dp4540
g54
(dp4541
g62
I1
ssg63
g4535
sg56
(lp4542
S'web2py.com'
p4543
asbasbasbag49
(g65
g51
NtRp4544
(dp4545
g54
(dp4546
sg63
g4527
sg56
(lp4547
g49
(g70
g51
NtRp4548
(dp4549
g54
(dp4550
sg63
g4544
sg56
(lp4551
g49
(g50
g51
NtRp4552
(dp4553
g54
(dp4554
g62
I1
ssg63
g4548
sg56
(lp4555
I00
asbasbasbag49
(g65
g51
NtRp4556
(dp4557
g54
(dp4558
sg63
g4527
sg56
(lp4559
g49
(g70
g51
NtRp4560
(dp4561
g54
(dp4562
sg63
g4556
sg56
(lp4563
g49
(g50
g51
NtRp4564
(dp4565
g54
(dp4566
g62
I1
ssg63
g4560
sg56
(lp4567
S'http://www.web2py.com'
p4568
asbasbasbag49
(g65
g51
NtRp4569
(dp4570
g54
(dp4571
sg63
g4527
sg56
(lp4572
g49
(g70
g51
NtRp4573
(dp4574
g54
(dp4575
sg63
g4569
sg56
(lp4576
g49
(g50
g51
NtRp4577
(dp4578
g54
(dp4579
g62
I1
ssg63
g4573
sg56
(lp4580
(lp4581
(g4259
(S's\x08\x00\x00\x00Download'
tRp4582
I00
S'http://www.web2py.com/examples/default/download'
p4583
tp4584
a(g4259
(S's\x07\x00\x00\x00Support'
tRp4585
I00
S'http://www.web2py.com/examples/default/support'
p4586
tp4587
a(g4259
(S's\x04\x00\x00\x00Demo'
tRp4588
I00
S'http://web2py.com/demo_admin'
p4589
tp4590
a(g4259
(S's\x0e\x00\x00\x00Quick Examples'
tRp4591
I00
S'http://web2py.com/examples/default/examples'
p4592
tp4593
a(g4259
(S's\x03\x00\x00\x00FAQ'
tRp4594
I00
S'http://web2py.com/AlterEgo'
p4595
tp4596
a(g4259
(S's\x06\x00\x00\x00Videos'
tRp4597
I00
S'http://www.web2py.com/examples/default/videos/'
p4598
tp4599
a(g4259
(S's\x11\x00\x00\x00Free Applications'
tRp4600
I00
S'http://web2py.com/appliances'
p4601
tp4602
a(g4259
(S's\x07\x00\x00\x00Plugins'
tRp4603
I00
S'http://web2py.com/plugins'
p4604
tp4605
a(g4259
(S's\x07\x00\x00\x00Layouts'
tRp4606
I00
S'http://web2py.com/layouts'
p4607
tp4608
a(g4259
(S's\x07\x00\x00\x00Recipes'
tRp4609
I00
S'http://web2pyslices.com/'
p4610
tp4611
a(g4259
(S's\x08\x00\x00\x00Semantic'
tRp4612
I00
S'http://web2py.com/semantic'
p4613
tp4614
aasbasbasbasbasbasbasbag49
(g65
g51
NtRp4615
(dp4616
g54
(dp4617
sg63
g4372
sg56
(lp4618
g49
(g70
g51
NtRp4619
(dp4620
g54
(dp4621
sg63
g4615
sg56
(lp4622
g49
(g50
g51
NtRp4623
(dp4624
g54
(dp4625
g62
I2
ssg63
g4619
sg56
(lp4626
g49
(g58
g51
NtRp4627
(dp4628
g54
(dp4629
g62
I1
ssg63
Nsg56
(lp4630
g49
(g65
g51
NtRp4631
(dp4632
g54
(dp4633
sg63
g4627
sg56
(lp4634
g49
(g70
g51
NtRp4635
(dp4636
g54
(dp4637
sg63
g4631
sg56
(lp4638
g49
(g50
g51
NtRp4639
(dp4640
g54
(dp4641
g62
I1
ssg63
g4635
sg56
(lp4642
g4259
(S's\r\x00\x00\x00Documentation'
tRp4643
asbasbasbag49
(g65
g51
NtRp4644
(dp4645
g54
(dp4646
sg63
g4627
sg56
(lp4647
g49
(g70
g51
NtRp4648
(dp4649
g54
(dp4650
sg63
g4644
sg56
(lp4651
g49
(g50
g51
NtRp4652
(dp4653
g54
(dp4654
g62
I1
ssg63
g4648
sg56
(lp4655
I00
asbasbasbag49
(g65
g51
NtRp4656
(dp4657
g54
(dp4658
sg63
g4627
sg56
(lp4659
g49
(g70
g51
NtRp4660
(dp4661
g54
(dp4662
sg63
g4656
sg56
(lp4663
g49
(g50
g51
NtRp4664
(dp4665
g54
(dp4666
g62
I1
ssg63
g4660
sg56
(lp4667
S'http://www.web2py.com/book'
p4668
asbasbasbag49
(g65
g51
NtRp4669
(dp4670
g54
(dp4671
sg63
g4627
sg56
(lp4672
g49
(g70
g51
NtRp4673
(dp4674
g54
(dp4675
sg63
g4669
sg56
(lp4676
g49
(g50
g51
NtRp4677
(dp4678
g54
(dp4679
g62
I1
ssg63
g4673
sg56
(lp4680
(lp4681
(g4259
(S's\x07\x00\x00\x00Preface'
tRp4682
I00
S'http://www.web2py.com/book/default/chapter/00'
p4683
tp4684
a(g4259
(S's\x0c\x00\x00\x00Introduction'
tRp4685
I00
S'http://www.web2py.com/book/default/chapter/01'
p4686
tp4687
a(g4259
(S's\x06\x00\x00\x00Python'
tRp4688
I00
S'http://www.web2py.com/book/default/chapter/02'
p4689
tp4690
a(g4259
(S's\x08\x00\x00\x00Overview'
tRp4691
I00
S'http://www.web2py.com/book/default/chapter/03'
p4692
tp4693
a(g4259
(S's\x08\x00\x00\x00The Core'
tRp4694
I00
S'http://www.web2py.com/book/default/chapter/04'
p4695
tp4696
a(g4259
(S's\t\x00\x00\x00The Views'
tRp4697
I00
S'http://www.web2py.com/book/default/chapter/05'
p4698
tp4699
a(g4259
(S's\x08\x00\x00\x00Database'
tRp4700
I00
S'http://www.web2py.com/book/default/chapter/06'
p4701
tp4702
a(g4259
(S's\x14\x00\x00\x00Forms and Validators'
tRp4703
I00
S'http://www.web2py.com/book/default/chapter/07'
p4704
tp4705
a(g4259
(S's\r\x00\x00\x00Email and SMS'
tRp4706
I00
S'http://www.web2py.com/book/default/chapter/08'
p4707
tp4708
a(g4259
(S's\x0e\x00\x00\x00Access Control'
tRp4709
I00
S'http://www.web2py.com/book/default/chapter/09'
p4710
tp4711
a(g4259
(S's\x08\x00\x00\x00Services'
tRp4712
I00
S'http://www.web2py.com/book/default/chapter/10'
p4713
tp4714
a(g4259
(S's\x0c\x00\x00\x00Ajax Recipes'
tRp4715
I00
S'http://www.web2py.com/book/default/chapter/11'
p4716
tp4717
a(g4259
(S's\x16\x00\x00\x00Components and Plugins'
tRp4718
I00
S'http://www.web2py.com/book/default/chapter/12'
p4719
tp4720
a(g4259
(S's\x12\x00\x00\x00Deployment Recipes'
tRp4721
I00
S'http://www.web2py.com/book/default/chapter/13'
p4722
tp4723
a(g4259
(S's\r\x00\x00\x00Other Recipes'
tRp4724
I00
S'http://www.web2py.com/book/default/chapter/14'
p4725
tp4726
a(g4259
(S's\r\x00\x00\x00Buy this book'
tRp4727
I00
S'http://stores.lulu.com/web2py'
p4728
tp4729
aasbasbasbasbasbasbasbag49
(g65
g51
NtRp4730
(dp4731
g54
(dp4732
sg63
g4372
sg56
(lp4733
g49
(g70
g51
NtRp4734
(dp4735
g54
(dp4736
sg63
g4730
sg56
(lp4737
g49
(g50
g51
NtRp4738
(dp4739
g54
(dp4740
g62
I2
ssg63
g4734
sg56
(lp4741
g49
(g58
g51
NtRp4742
(dp4743
g54
(dp4744
g62
I1
ssg63
Nsg56
(lp4745
g49
(g65
g51
NtRp4746
(dp4747
g54
(dp4748
sg63
g4742
sg56
(lp4749
g49
(g70
g51
NtRp4750
(dp4751
g54
(dp4752
sg63
g4746
sg56
(lp4753
g49
(g50
g51
NtRp4754
(dp4755
g54
(dp4756
g62
I1
ssg63
g4750
sg56
(lp4757
g4259
(S's\t\x00\x00\x00Community'
tRp4758
asbasbasbag49
(g65
g51
NtRp4759
(dp4760
g54
(dp4761
sg63
g4742
sg56
(lp4762
g49
(g70
g51
NtRp4763
(dp4764
g54
(dp4765
sg63
g4759
sg56
(lp4766
g49
(g50
g51
NtRp4767
(dp4768
g54
(dp4769
g62
I1
ssg63
g4763
sg56
(lp4770
I00
asbasbasbag49
(g65
g51
NtRp4771
(dp4772
g54
(dp4773
sg63
g4742
sg56
(lp4774
g49
(g70
g51
NtRp4775
(dp4776
g54
(dp4777
sg63
g4771
sg56
(lp4778
g49
(g50
g51
NtRp4779
(dp4780
g54
(dp4781
g62
I1
ssg63
g4775
sg56
(lp4782
Nasbasbasbag49
(g65
g51
NtRp4783
(dp4784
g54
(dp4785
sg63
g4742
sg56
(lp4786
g49
(g70
g51
NtRp4787
(dp4788
g54
(dp4789
sg63
g4783
sg56
(lp4790
g49
(g50
g51
NtRp4791
(dp4792
g54
(dp4793
g62
I1
ssg63
g4787
sg56
(lp4794
(lp4795
(g4259
(S's\x06\x00\x00\x00Groups'
tRp4796
I00
S'http://www.web2py.com/examples/default/usergroups'
p4797
tp4798
a(g4259
(S's\x07\x00\x00\x00Twitter'
tRp4799
I00
S'http://twitter.com/web2py'
p4800
tp4801
a(g4259
(S's\t\x00\x00\x00Live Chat'
tRp4802
I00
S'http://webchat.freenode.net/?channels=web2py'
p4803
tp4804
aasbasbasbasbasbasbasbag49
(g65
g51
NtRp4805
(dp4806
g54
(dp4807
sg63
g4372
sg56
(lp4808
g49
(g70
g51
NtRp4809
(dp4810
g54
(dp4811
sg63
g4805
sg56
(lp4812
g49
(g50
g51
NtRp4813
(dp4814
g54
(dp4815
g62
I2
ssg63
g4809
sg56
(lp4816
g49
(g58
g51
NtRp4817
(dp4818
g54
(dp4819
g62
I1
ssg63
Nsg56
(lp4820
g49
(g65
g51
NtRp4821
(dp4822
g54
(dp4823
sg63
g4817
sg56
(lp4824
g49
(g70
g51
NtRp4825
(dp4826
g54
(dp4827
sg63
g4821
sg56
(lp4828
g49
(g50
g51
NtRp4829
(dp4830
g54
(dp4831
g62
I1
ssg63
g4825
sg56
(lp4832
g4259
(S's\x07\x00\x00\x00Plugins'
tRp4833
asbasbasbag49
(g65
g51
NtRp4834
(dp4835
g54
(dp4836
sg63
g4817
sg56
(lp4837
g49
(g70
g51
NtRp4838
(dp4839
g54
(dp4840
sg63
g4834
sg56
(lp4841
g49
(g50
g51
NtRp4842
(dp4843
g54
(dp4844
g62
I1
ssg63
g4838
sg56
(lp4845
I00
asbasbasbag49
(g65
g51
NtRp4846
(dp4847
g54
(dp4848
sg63
g4817
sg56
(lp4849
g49
(g70
g51
NtRp4850
(dp4851
g54
(dp4852
sg63
g4846
sg56
(lp4853
g49
(g50
g51
NtRp4854
(dp4855
g54
(dp4856
g62
I1
ssg63
g4850
sg56
(lp4857
Nasbasbasbag49
(g65
g51
NtRp4858
(dp4859
g54
(dp4860
sg63
g4817
sg56
(lp4861
g49
(g70
g51
NtRp4862
(dp4863
g54
(dp4864
sg63
g4858
sg56
(lp4865
g49
(g50
g51
NtRp4866
(dp4867
g54
(dp4868
g62
I1
ssg63
g4862
sg56
(lp4869
(lp4870
(S'plugin_wiki'
p4871
I00
S'http://web2py.com/examples/default/download'
p4872
tp4873
a(g4259
(S's\r\x00\x00\x00Other Plugins'
tRp4874
I00
g4604
tp4875
a(g4259
(S's\x0e\x00\x00\x00Layout Plugins'
tRp4876
I00
g4607
tp4877
aasbasbasbasbasbasbasbasbasbasbasbasbasbasbasbasbasbasbasbag49
(g65
g51
NtRp4878
(dp4879
g54
(dp4880
sg63
g3723
sg56
(lp4881
g49
(g70
g51
NtRp4882
(dp4883
g54
(dp4884
g74
g75
ssg63
g4878
sg56
(lp4885
S'meta'
p4886
asbag49
(g70
g51
NtRp4887
(dp4888
g54
(dp4889
g81
g82
ssg63
g4878
sg56
(lp4890
S':'
asbag49
(g70
g51
NtRp4891
(dp4892
g54
(dp4893
sg63
g4878
sg56
(lp4894
g49
(g50
g51
NtRp4895
(dp4896
g54
(dp4897
g62
I5
ssg63
g4891
sg56
(lp4898
g49
(g58
g51
NtRp4899
(dp4900
g54
(dp4901
g62
I4
ssg63
Nsg56
(lp4902
g49
(g65
g51
NtRp4903
(dp4904
g54
(dp4905
sg63
g4899
sg56
(lp4906
g49
(g70
g51
NtRp4907
(dp4908
g54
(dp4909
g74
g75
ssg63
g4903
sg56
(lp4910
S'author'
p4911
asbag49
(g70
g51
NtRp4912
(dp4913
g54
(dp4914
g81
g82
ssg63
g4903
sg56
(lp4915
S':'
asbag49
(g70
g51
NtRp4916
(dp4917
g54
(dp4918
sg63
g4903
sg56
(lp4919
g49
(g50
g51
NtRp4920
(dp4921
g54
(dp4922
g62
I4
ssg63
g4916
sg56
(lp4923
S'Your Name <you@example.com>'
p4924
asbasbasbag49
(g65
g51
NtRp4925
(dp4926
g54
(dp4927
sg63
g4899
sg56
(lp4928
g49
(g70
g51
NtRp4929
(dp4930
g54
(dp4931
g74
g75
ssg63
g4925
sg56
(lp4932
S'copyright'
p4933
asbag49
(g70
g51
NtRp4934
(dp4935
g54
(dp4936
g81
g82
ssg63
g4925
sg56
(lp4937
S':'
asbag49
(g70
g51
NtRp4938
(dp4939
g54
(dp4940
sg63
g4925
sg56
(lp4941
g49
(g50
g51
NtRp4942
(dp4943
g54
(dp4944
g62
I4
ssg63
g4938
sg56
(lp4945
S'Copyright 2011'
p4946
asbasbasbag49
(g65
g51
NtRp4947
(dp4948
g54
(dp4949
sg63
g4899
sg56
(lp4950
g49
(g70
g51
NtRp4951
(dp4952
g54
(dp4953
g74
g75
ssg63
g4947
sg56
(lp4954
S'description'
p4955
asbag49
(g70
g51
NtRp4956
(dp4957
g54
(dp4958
g81
g82
ssg63
g4947
sg56
(lp4959
S':'
asbag49
(g70
g51
NtRp4960
(dp4961
g54
(dp4962
sg63
g4947
sg56
(lp4963
g49
(g50
g51
NtRp4964
(dp4965
g54
(dp4966
g62
I4
ssg63
g4960
sg56
(lp4967
S'a cool new app'
p4968
asbasbasbag49
(g65
g51
NtRp4969
(dp4970
g54
(dp4971
sg63
g4899
sg56
(lp4972
g49
(g70
g51
NtRp4973
(dp4974
g54
(dp4975
g74
g75
ssg63
g4969
sg56
(lp4976
S'generator'
p4977
asbag49
(g70
g51
NtRp4978
(dp4979
g54
(dp4980
g81
g82
ssg63
g4969
sg56
(lp4981
S':'
asbag49
(g70
g51
NtRp4982
(dp4983
g54
(dp4984
sg63
g4969
sg56
(lp4985
g49
(g50
g51
NtRp4986
(dp4987
g54
(dp4988
g62
I4
ssg63
g4982
sg56
(lp4989
S'Web2py Web Framework'
p4990
asbasbasbag49
(g65
g51
NtRp4991
(dp4992
g54
(dp4993
sg63
g4899
sg56
(lp4994
g49
(g70
g51
NtRp4995
(dp4996
g54
(dp4997
g74
g75
ssg63
g4991
sg56
(lp4998
S'keywords'
p4999
asbag49
(g70
g51
NtRp5000
(dp5001
g54
(dp5002
g81
g82
ssg63
g4991
sg56
(lp5003
S':'
asbag49
(g70
g51
NtRp5004
(dp5005
g54
(dp5006
sg63
g4991
sg56
(lp5007
g49
(g50
g51
NtRp5008
(dp5009
g54
(dp5010
g62
I4
ssg63
g5004
sg56
(lp5011
S'web2py, python, framework'
p5012
asbasbasbasbasbasbasbag49
(g65
g51
NtRp5013
(dp5014
g54
(dp5015
sg63
g3723
sg56
(lp5016
g49
(g70
g51
NtRp5017
(dp5018
g54
(dp5019
g74
g75
ssg63
g5013
sg56
(lp5020
S'postprocessing'
p5021
asbag49
(g70
g51
NtRp5022
(dp5023
g54
(dp5024
g81
g82
ssg63
g5013
sg56
(lp5025
S':'
asbag49
(g70
g51
NtRp5026
(dp5027
g54
(dp5028
sg63
g5013
sg56
(lp5029
g49
(g50
g51
NtRp5030
(dp5031
g54
(dp5032
g62
I5
ssg63
g5026
sg56
(lp5033
g49
(g58
g51
NtRp5034
(dp5035
g54
(dp5036
g62
I4
ssg63
Nsg56
(lp5037
sbasbasbasbag49
(g65
g51
NtRp5038
(dp5039
g54
(dp5040
sg63
g3723
sg56
(lp5041
g49
(g70
g51
NtRp5042
(dp5043
g54
(dp5044
g74
g75
ssg63
g5038
sg56
(lp5045
S'session_file'
p5046
asbag49
(g70
g51
NtRp5047
(dp5048
g54
(dp5049
g81
g82
ssg63
g5038
sg56
(lp5050
S':'
asbag49
(g70
g51
NtRp5051
(dp5052
g54
(dp5053
sg63
g5038
sg56
(lp5054
g49
(g50
g51
NtRp5055
(dp5056
g54
(dp5057
g62
I5
ssg63
g5051
sg56
(lp5058
S"<open file '/Users/udimilo/Documents/web2py/applications/udi0312/sessions/127.0.0.1-fcd6a577-d448-4882-b7bc-f353da84ba3b', mode 'rb+' at 0x8e06920>"
p5059
asbasbasbag49
(g65
g51
NtRp5060
(dp5061
g54
(dp5062
sg63
g3723
sg56
(lp5063
g49
(g70
g51
NtRp5064
(dp5065
g54
(dp5066
g74
g75
ssg63
g5060
sg56
(lp5067
S'session_filename'
p5068
asbag49
(g70
g51
NtRp5069
(dp5070
g54
(dp5071
g81
g82
ssg63
g5060
sg56
(lp5072
S':'
asbag49
(g70
g51
NtRp5073
(dp5074
g54
(dp5075
sg63
g5060
sg56
(lp5076
g49
(g50
g51
NtRp5077
(dp5078
g54
(dp5079
g62
I5
ssg63
g5073
sg56
(lp5080
S'/Users/udimilo/Documents/web2py/applications/udi0312/sessions/127.0.0.1-fcd6a577-d448-4882-b7bc-f353da84ba3b'
p5081
asbasbasbag49
(g65
g51
NtRp5082
(dp5083
g54
(dp5084
sg63
g3723
sg56
(lp5085
g49
(g70
g51
NtRp5086
(dp5087
g54
(dp5088
g74
g75
ssg63
g5082
sg56
(lp5089
S'session_id'
p5090
asbag49
(g70
g51
NtRp5091
(dp5092
g54
(dp5093
g81
g82
ssg63
g5082
sg56
(lp5094
S':'
asbag49
(g70
g51
NtRp5095
(dp5096
g54
(dp5097
sg63
g5082
sg56
(lp5098
g49
(g50
g51
NtRp5099
(dp5100
g54
(dp5101
g62
I5
ssg63
g5095
sg56
(lp5102
S'127.0.0.1-fcd6a577-d448-4882-b7bc-f353da84ba3b'
p5103
asbasbasbag49
(g65
g51
NtRp5104
(dp5105
g54
(dp5106
sg63
g3723
sg56
(lp5107
g49
(g70
g51
NtRp5108
(dp5109
g54
(dp5110
g74
g75
ssg63
g5104
sg56
(lp5111
S'session_id_name'
p5112
asbag49
(g70
g51
NtRp5113
(dp5114
g54
(dp5115
g81
g82
ssg63
g5104
sg56
(lp5116
S':'
asbag49
(g70
g51
NtRp5117
(dp5118
g54
(dp5119
sg63
g5104
sg56
(lp5120
g49
(g50
g51
NtRp5121
(dp5122
g54
(dp5123
g62
I5
ssg63
g5117
sg56
(lp5124
g3780
asbasbasbag49
(g65
g51
NtRp5125
(dp5126
g54
(dp5127
sg63
g3723
sg56
(lp5128
g49
(g70
g51
NtRp5129
(dp5130
g54
(dp5131
g74
g75
ssg63
g5125
sg56
(lp5132
S'session_locked'
p5133
asbag49
(g70
g51
NtRp5134
(dp5135
g54
(dp5136
g81
g82
ssg63
g5125
sg56
(lp5137
S':'
asbag49
(g70
g51
NtRp5138
(dp5139
g54
(dp5140
sg63
g5125
sg56
(lp5141
g49
(g50
g51
NtRp5142
(dp5143
g54
(dp5144
g62
I5
ssg63
g5138
sg56
(lp5145
g92
asbasbasbag49
(g65
g51
NtRp5146
(dp5147
g54
(dp5148
sg63
g3723
sg56
(lp5149
g49
(g70
g51
NtRp5150
(dp5151
g54
(dp5152
g74
g75
ssg63
g5146
sg56
(lp5153
S'session_new'
p5154
asbag49
(g70
g51
NtRp5155
(dp5156
g54
(dp5157
g81
g82
ssg63
g5146
sg56
(lp5158
S':'
asbag49
(g70
g51
NtRp5159
(dp5160
g54
(dp5161
sg63
g5146
sg56
(lp5162
g49
(g50
g51
NtRp5163
(dp5164
g54
(dp5165
g62
I5
ssg63
g5159
sg56
(lp5166
g770
asbasbasbag49
(g65
g51
NtRp5167
(dp5168
g54
(dp5169
sg63
g3723
sg56
(lp5170
g49
(g70
g51
NtRp5171
(dp5172
g54
(dp5173
g74
g75
ssg63
g5167
sg56
(lp5174
S'status'
p5175
asbag49
(g70
g51
NtRp5176
(dp5177
g54
(dp5178
g81
g82
ssg63
g5167
sg56
(lp5179
S':'
asbag49
(g70
g51
NtRp5180
(dp5181
g54
(dp5182
sg63
g5167
sg56
(lp5183
g49
(g50
g51
NtRp5184
(dp5185
g54
(dp5186
g62
I5
ssg63
g5180
sg56
(lp5187
S'200'
p5188
asbasbasbag49
(g65
g51
NtRp5189
(dp5190
g54
(dp5191
sg63
g3723
sg56
(lp5192
g49
(g70
g51
NtRp5193
(dp5194
g54
(dp5195
g74
g75
ssg63
g5189
sg56
(lp5196
S'subtitle'
p5197
asbag49
(g70
g51
NtRp5198
(dp5199
g54
(dp5200
g81
g82
ssg63
g5189
sg56
(lp5201
S':'
asbag49
(g70
g51
NtRp5202
(dp5203
g54
(dp5204
sg63
g5189
sg56
(lp5205
g49
(g50
g51
NtRp5206
(dp5207
g54
(dp5208
g62
I5
ssg63
g5202
sg56
(lp5209
g4259
(S's\r\x00\x00\x00customize me!'
tRp5210
asbasbasbag49
(g65
g51
NtRp5211
(dp5212
g54
(dp5213
sg63
g3723
sg56
(lp5214
g49
(g70
g51
NtRp5215
(dp5216
g54
(dp5217
g74
g75
ssg63
g5211
sg56
(lp5218
S'title'
p5219
asbag49
(g70
g51
NtRp5220
(dp5221
g54
(dp5222
g81
g82
ssg63
g5211
sg56
(lp5223
S':'
asbag49
(g70
g51
NtRp5224
(dp5225
g54
(dp5226
sg63
g5211
sg56
(lp5227
g49
(g50
g51
NtRp5228
(dp5229
g54
(dp5230
g62
I5
ssg63
g5224
sg56
(lp5231
S'Udi0312'
p5232
asbasbasbag49
(g65
g51
NtRp5233
(dp5234
g54
(dp5235
sg63
g3723
sg56
(lp5236
g49
(g70
g51
NtRp5237
(dp5238
g54
(dp5239
g74
g75
ssg63
g5233
sg56
(lp5240
g2325
asbag49
(g70
g51
NtRp5241
(dp5242
g54
(dp5243
g81
g82
ssg63
g5233
sg56
(lp5244
S':'
asbag49
(g70
g51
NtRp5245
(dp5246
g54
(dp5247
sg63
g5233
sg56
(lp5248
g49
(g50
g51
NtRp5249
(dp5250
g54
(dp5251
g62
I5
ssg63
g5245
sg56
(lp5252
g2338
asbasbasbag49
(g65
g51
NtRp5253
(dp5254
g54
(dp5255
sg63
g3723
sg56
(lp5256
g49
(g70
g51
NtRp5257
(dp5258
g54
(dp5259
g74
g75
ssg63
g5253
sg56
(lp5260
S'view'
p5261
asbag49
(g70
g51
NtRp5262
(dp5263
g54
(dp5264
g81
g82
ssg63
g5253
sg56
(lp5265
S':'
asbag49
(g70
g51
NtRp5266
(dp5267
g54
(dp5268
sg63
g5253
sg56
(lp5269
g49
(g50
g51
NtRp5270
(dp5271
g54
(dp5272
g62
I5
ssg63
g5266
sg56
(lp5273
S'default/add_repin.html'
p5274
asbasbasbasbasbsS'locals'
p5275
(dp5276
S'self'
p5277
S"<Row {'category': 6, 'name': 'java', 'pin': <glu... <gluon.dal.Set object at 0x8ed4d70>, 'user': 1}>"
p5278
sS'm'
S'None'
p5279
sS'key'
p5280
S"'select'"
p5281
sssS'traceback'
p5282
S'Traceback (most recent call last):\n  File "/users/udimilo/Documents/web2py/gluon/restricted.py", line 205, in restricted\n    exec ccode in environment\n  File "/Users/udimilo/Documents/web2py/applications/udi0312/controllers/default.py", line 160, in <module>\n  File "/users/udimilo/Documents/web2py/gluon/globals.py", line 173, in <lambda>\n    self._caller = lambda f: f()\n  File "/Users/udimilo/Documents/web2py/applications/udi0312/controllers/default.py", line 35, in add_repin\n    board = db.board((db.board.user==auth.user.id)&(db.board.name==request.vars.repin_board)).select().first()\n  File "/users/udimilo/Documents/web2py/gluon/dal.py", line 5657, in __getattr__\n    return self[key]\n  File "/users/udimilo/Documents/web2py/gluon/dal.py", line 5648, in __getitem__\n    return dict.__getitem__(self, key)\nKeyError: \'select\'\n'
p5283
s.