(dp1
S'output'
p2
S"<type 'exceptions.ImportError'> No module named modules"
p3
sS'layer'
p4
S'/Users/udimilo/Documents/web2py/applications/udi0312/controllers/default.py'
p5
sS'code'
p6
S'# -*- coding: utf-8 -*-\n# this file is released under public domain and you can use without limitations\n\n#########################################################################\n## This is a samples controller\n## - index is the default action of any application\n## - user is required for authentication and authorization\n## - download is for downloading files uploaded in the db (does streaming)\n## - call exposes all registered services (none by default)\n#########################################################################\nfrom modules import readability\n\ndef index():\n    articles = db().select(db.article.ALL)\n    categories = db().select(db.category.ALL, orderby=db.category.name)\n    boards = db(db.board.user_id==auth.user.id).select() if auth.user else []\n    return dict(items=articles, categories=categories, boards=boards)\n\ndef add_board():\n    category = db(db.category.name==request.vars.category).select().first()\n    board = db.board.insert(user_id=auth.user.id, category_id=category.id, name=request.vars.boardName)\n    return board.id\n\ndef add_article():\n    url = request.vars.url\n    article = db(db.article.url == url).select().first()\n    if article is None:\n        read = Readability()\n        json = read.content(url)\n        article = db.article.insert(\n            height=300,\n            url=json[\'url\'],\n            readability_url=json[\'short_url\'],\n            title=json[\'title\'],\n            content=json[\'content\'],\n            domain=json[\'domain\'],\n            author=json[\'author\'],\n            excerpt=json[\'excerpt\'],\n            word_count=json[\'word_count\'],\n            total_pages=json[\'total_pages\'],\n            date_published=json[\'date_published\'],\n            next_page_id=json[\'next_page_id\'],\n            rendered_pages=json[\'rendered_pages\'],            \n            )\n    \n    board = db(db.board.name==request.vars.board).select().first()\n    \n    pin = db((db.pin.board_id == board.id) & (db.pin.article_id == article.id)).select().first()\n    if pin is None:\n        pin = db.pin.insert(board_id=board.id, article_id=article.id)\n    \n    return pin.id\n    \ndef follow_user():\n    follower = auth.user\n    followee = db.auth_user(request.vars.followee)\n    if followee is None:\n        return \'no followee\'\n        \n    rel = db((db.user_user.follower_id == follower.id) & (db.user_user.followee_id == followee.id)).select().first()\n\n    if rel is None:\n        rel = db.user_user.insert(follower_id = follower.id, followee_id = followee.id)\n        return \'added\' #http code\n        \n    return rel #http code\n\ndef unfollow_user():\n    follower = auth.user\n    followee = db.auth_user(request.vars.followee)\n    if followee is None:\n        return \'no followee\'\n        \n    rel = db((db.user_user.follower_id == follower.id) & (db.user_user.followee_id == followee.id)).select().first()\n    if rel is None:\n        return \'no rel\'\n    \n    db.user_user.remove(id == rel.id)\n    return \'deleted\'\n            \ndef user():\n    """\n    exposes:\n    http://..../[app]/default/user/login\n    http://..../[app]/default/user/logout\n    http://..../[app]/default/user/register\n    http://..../[app]/default/user/profile\n    http://..../[app]/default/user/retrieve_password\n    http://..../[app]/default/user/change_password\n    use @auth.requires_login()\n        @auth.requires_membership(\'group name\')\n        @auth.requires_permission(\'read\',\'table name\',record_id)\n    to decorate functions that need access control\n    """\n    return dict(form=auth())\n\n\ndef download():\n    """\n    allows downloading of uploaded files\n    http://..../[app]/default/download/[filename]\n    """\n    return response.download(request,db)\n\n\ndef call():\n    """\n    exposes services. for example:\n    http://..../[app]/default/call/jsonrpc\n    decorate with @services.jsonrpc the functions to expose\n    supports xml, json, xmlrpc, jsonrpc, amfrpc, rss, csv\n    """\n    return service()\n\n\n@auth.requires_signature()\ndef data():\n    """\n    http://..../[app]/default/data/tables\n    http://..../[app]/default/data/create/[table]\n    http://..../[app]/default/data/read/[table]/[id]\n    http://..../[app]/default/data/update/[table]/[id]\n    http://..../[app]/default/data/delete/[table]/[id]\n    http://..../[app]/default/data/select/[table]\n    http://..../[app]/default/data/search/[table]\n    but URLs must be signed, i.e. linked with\n      A(\'table\',_href=URL(\'data/tables\',user_signature=True))\n    or with the signed load operator\n      LOAD(\'default\',\'data.load\',args=\'tables\',ajax=True,user_signature=True)\n    """\n    return dict(form=crud())\n\nresponse._vars=response._caller(index)\n'
p7
sS'snapshot'
p8
(dp9
S'exception'
p10
(dp11
S'__hash__'
p12
S"<method-wrapper '__hash__' of exceptions.ImportError object at 0x9eb4850>"
p13
sS'__setattr__'
p14
S"<method-wrapper '__setattr__' of exceptions.ImportError object at 0x9eb4850>"
p15
sS'__reduce_ex__'
p16
S'<built-in method __reduce_ex__ of exceptions.ImportError object at 0x9eb4850>'
p17
sS'__getslice__'
p18
S"<method-wrapper '__getslice__' of exceptions.ImportError object at 0x9eb4850>"
p19
sS'__getitem__'
p20
S"<method-wrapper '__getitem__' of exceptions.ImportError object at 0x9eb4850>"
p21
sS'__setstate__'
p22
S'<built-in method __setstate__ of exceptions.ImportError object at 0x9eb4850>'
p23
sS'__reduce__'
p24
S'<built-in method __reduce__ of exceptions.ImportError object at 0x9eb4850>'
p25
sS'__str__'
p26
S"<method-wrapper '__str__' of exceptions.ImportError object at 0x9eb4850>"
p27
sS'args'
p28
S"('No module named modules',)"
p29
sS'__getattribute__'
p30
S"<method-wrapper '__getattribute__' of exceptions.ImportError object at 0x9eb4850>"
p31
sS'__class__'
p32
S"<type 'exceptions.ImportError'>"
p33
sS'__delattr__'
p34
S"<method-wrapper '__delattr__' of exceptions.ImportError object at 0x9eb4850>"
p35
sS'__repr__'
p36
S"<method-wrapper '__repr__' of exceptions.ImportError object at 0x9eb4850>"
p37
sS'__dict__'
p38
S'{}'
p39
sS'__doc__'
p40
S'"Import can\'t find module, or can\'t find name in module."'
p41
sS'__init__'
p42
S"<method-wrapper '__init__' of exceptions.ImportError object at 0x9eb4850>"
p43
sS'__new__'
p44
S'<built-in method __new__ of type object at 0x100cc0>'
p45
ssS'evalue'
p46
S'No module named modules'
p47
sS'request'
p48
ccopy_reg
_reconstructor
p49
(cgluon.html
BEAUTIFY
p50
c__builtin__
object
p51
NtRp52
(dp53
S'attributes'
p54
(dp55
sS'components'
p56
(lp57
g49
(cgluon.html
TABLE
p58
g51
NtRp59
(dp60
g54
(dp61
S'level'
p62
I5
ssS'parent'
p63
Nsg56
(lp64
g49
(cgluon.html
TR
p65
g51
NtRp66
(dp67
g54
(dp68
sg63
g59
sg56
(lp69
g49
(cgluon.html
TD
p70
g51
NtRp71
(dp72
g54
(dp73
S'_style'
p74
S'font-weight:bold;vertical-align:top'
p75
ssg63
g66
sg56
(lp76
S'ajax'
p77
asbag49
(g70
g51
NtRp78
(dp79
g54
(dp80
S'_valign'
p81
S'top'
p82
ssg63
g66
sg56
(lp83
S':'
asbag49
(g70
g51
NtRp84
(dp85
g54
(dp86
sg63
g66
sg56
(lp87
g49
(g50
g51
NtRp88
(dp89
g54
(dp90
g62
I5
ssg63
g84
sg56
(lp91
S'False'
p92
asbasbasbag49
(g65
g51
NtRp93
(dp94
g54
(dp95
sg63
g59
sg56
(lp96
g49
(g70
g51
NtRp97
(dp98
g54
(dp99
g74
g75
ssg63
g93
sg56
(lp100
S'application'
p101
asbag49
(g70
g51
NtRp102
(dp103
g54
(dp104
g81
g82
ssg63
g93
sg56
(lp105
S':'
asbag49
(g70
g51
NtRp106
(dp107
g54
(dp108
sg63
g93
sg56
(lp109
g49
(g50
g51
NtRp110
(dp111
g54
(dp112
g62
I5
ssg63
g106
sg56
(lp113
S'udi0312'
p114
asbasbasbag49
(g65
g51
NtRp115
(dp116
g54
(dp117
sg63
g59
sg56
(lp118
g49
(g70
g51
NtRp119
(dp120
g54
(dp121
g74
g75
ssg63
g115
sg56
(lp122
g28
asbag49
(g70
g51
NtRp123
(dp124
g54
(dp125
g81
g82
ssg63
g115
sg56
(lp126
S':'
asbag49
(g70
g51
NtRp127
(dp128
g54
(dp129
sg63
g115
sg56
(lp130
g49
(g50
g51
NtRp131
(dp132
g54
(dp133
g62
I5
ssg63
g127
sg56
(lp134
g49
(g58
g51
NtRp135
(dp136
g54
(dp137
g62
I4
ssg63
Nsg56
(lp138
sbasbasbasbag49
(g65
g51
NtRp139
(dp140
g54
(dp141
sg63
g59
sg56
(lp142
g49
(g70
g51
NtRp143
(dp144
g54
(dp145
g74
g75
ssg63
g139
sg56
(lp146
S'body'
p147
asbag49
(g70
g51
NtRp148
(dp149
g54
(dp150
g81
g82
ssg63
g139
sg56
(lp151
S':'
asbag49
(g70
g51
NtRp152
(dp153
g54
(dp154
sg63
g139
sg56
(lp155
g49
(g50
g51
NtRp156
(dp157
g54
(dp158
g62
I5
ssg63
g152
sg56
(lp159
S'<cStringIO.StringO object at 0xa25d440>'
p160
asbasbasbag49
(g65
g51
NtRp161
(dp162
g54
(dp163
sg63
g59
sg56
(lp164
g49
(g70
g51
NtRp165
(dp166
g54
(dp167
g74
g75
ssg63
g161
sg56
(lp168
S'client'
p169
asbag49
(g70
g51
NtRp170
(dp171
g54
(dp172
g81
g82
ssg63
g161
sg56
(lp173
S':'
asbag49
(g70
g51
NtRp174
(dp175
g54
(dp176
sg63
g161
sg56
(lp177
g49
(g50
g51
NtRp178
(dp179
g54
(dp180
g62
I5
ssg63
g174
sg56
(lp181
S'127.0.0.1'
p182
asbasbasbag49
(g65
g51
NtRp183
(dp184
g54
(dp185
sg63
g59
sg56
(lp186
g49
(g70
g51
NtRp187
(dp188
g54
(dp189
g74
g75
ssg63
g183
sg56
(lp190
S'controller'
p191
asbag49
(g70
g51
NtRp192
(dp193
g54
(dp194
g81
g82
ssg63
g183
sg56
(lp195
S':'
asbag49
(g70
g51
NtRp196
(dp197
g54
(dp198
sg63
g183
sg56
(lp199
g49
(g50
g51
NtRp200
(dp201
g54
(dp202
g62
I5
ssg63
g196
sg56
(lp203
S'default'
p204
asbasbasbag49
(g65
g51
NtRp205
(dp206
g54
(dp207
sg63
g59
sg56
(lp208
g49
(g70
g51
NtRp209
(dp210
g54
(dp211
g74
g75
ssg63
g205
sg56
(lp212
S'cookies'
p213
asbag49
(g70
g51
NtRp214
(dp215
g54
(dp216
g81
g82
ssg63
g205
sg56
(lp217
S':'
asbag49
(g70
g51
NtRp218
(dp219
g54
(dp220
sg63
g205
sg56
(lp221
g49
(g50
g51
NtRp222
(dp223
g54
(dp224
g62
I5
ssg63
g218
sg56
(lp225
g49
(g58
g51
NtRp226
(dp227
g54
(dp228
g62
I4
ssg63
Nsg56
(lp229
g49
(g65
g51
NtRp230
(dp231
g54
(dp232
sg63
g226
sg56
(lp233
g49
(g70
g51
NtRp234
(dp235
g54
(dp236
g74
g75
ssg63
g230
sg56
(lp237
S'session_id_admin'
p238
asbag49
(g70
g51
NtRp239
(dp240
g54
(dp241
g81
g82
ssg63
g230
sg56
(lp242
S':'
asbag49
(g70
g51
NtRp243
(dp244
g54
(dp245
sg63
g230
sg56
(lp246
g49
(g50
g51
NtRp247
(dp248
g54
(dp249
g62
I4
ssg63
g243
sg56
(lp250
g49
(g58
g51
NtRp251
(dp252
g54
(dp253
g62
I3
ssg63
Nsg56
(lp254
g49
(g65
g51
NtRp255
(dp256
g54
(dp257
sg63
g251
sg56
(lp258
g49
(g70
g51
NtRp259
(dp260
g54
(dp261
g74
g75
ssg63
g255
sg56
(lp262
S'comment'
p263
asbag49
(g70
g51
NtRp264
(dp265
g54
(dp266
g81
g82
ssg63
g255
sg56
(lp267
S':'
asbag49
(g70
g51
NtRp268
(dp269
g54
(dp270
sg63
g255
sg56
(lp271
g49
(g50
g51
NtRp272
(dp273
g54
(dp274
g62
I3
ssg63
g268
sg56
(lp275
S''
asbasbasbag49
(g65
g51
NtRp276
(dp277
g54
(dp278
sg63
g251
sg56
(lp279
g49
(g70
g51
NtRp280
(dp281
g54
(dp282
g74
g75
ssg63
g276
sg56
(lp283
S'domain'
p284
asbag49
(g70
g51
NtRp285
(dp286
g54
(dp287
g81
g82
ssg63
g276
sg56
(lp288
S':'
asbag49
(g70
g51
NtRp289
(dp290
g54
(dp291
sg63
g276
sg56
(lp292
g49
(g50
g51
NtRp293
(dp294
g54
(dp295
g62
I3
ssg63
g289
sg56
(lp296
S''
asbasbasbag49
(g65
g51
NtRp297
(dp298
g54
(dp299
sg63
g251
sg56
(lp300
g49
(g70
g51
NtRp301
(dp302
g54
(dp303
g74
g75
ssg63
g297
sg56
(lp304
S'expires'
p305
asbag49
(g70
g51
NtRp306
(dp307
g54
(dp308
g81
g82
ssg63
g297
sg56
(lp309
S':'
asbag49
(g70
g51
NtRp310
(dp311
g54
(dp312
sg63
g297
sg56
(lp313
g49
(g50
g51
NtRp314
(dp315
g54
(dp316
g62
I3
ssg63
g310
sg56
(lp317
S''
asbasbasbag49
(g65
g51
NtRp318
(dp319
g54
(dp320
sg63
g251
sg56
(lp321
g49
(g70
g51
NtRp322
(dp323
g54
(dp324
g74
g75
ssg63
g318
sg56
(lp325
S'max-age'
p326
asbag49
(g70
g51
NtRp327
(dp328
g54
(dp329
g81
g82
ssg63
g318
sg56
(lp330
S':'
asbag49
(g70
g51
NtRp331
(dp332
g54
(dp333
sg63
g318
sg56
(lp334
g49
(g50
g51
NtRp335
(dp336
g54
(dp337
g62
I3
ssg63
g331
sg56
(lp338
S''
asbasbasbag49
(g65
g51
NtRp339
(dp340
g54
(dp341
sg63
g251
sg56
(lp342
g49
(g70
g51
NtRp343
(dp344
g54
(dp345
g74
g75
ssg63
g339
sg56
(lp346
S'path'
p347
asbag49
(g70
g51
NtRp348
(dp349
g54
(dp350
g81
g82
ssg63
g339
sg56
(lp351
S':'
asbag49
(g70
g51
NtRp352
(dp353
g54
(dp354
sg63
g339
sg56
(lp355
g49
(g50
g51
NtRp356
(dp357
g54
(dp358
g62
I3
ssg63
g352
sg56
(lp359
S''
asbasbasbag49
(g65
g51
NtRp360
(dp361
g54
(dp362
sg63
g251
sg56
(lp363
g49
(g70
g51
NtRp364
(dp365
g54
(dp366
g74
g75
ssg63
g360
sg56
(lp367
S'secure'
p368
asbag49
(g70
g51
NtRp369
(dp370
g54
(dp371
g81
g82
ssg63
g360
sg56
(lp372
S':'
asbag49
(g70
g51
NtRp373
(dp374
g54
(dp375
sg63
g360
sg56
(lp376
g49
(g50
g51
NtRp377
(dp378
g54
(dp379
g62
I3
ssg63
g373
sg56
(lp380
S''
asbasbasbag49
(g65
g51
NtRp381
(dp382
g54
(dp383
sg63
g251
sg56
(lp384
g49
(g70
g51
NtRp385
(dp386
g54
(dp387
g74
g75
ssg63
g381
sg56
(lp388
S'version'
p389
asbag49
(g70
g51
NtRp390
(dp391
g54
(dp392
g81
g82
ssg63
g381
sg56
(lp393
S':'
asbag49
(g70
g51
NtRp394
(dp395
g54
(dp396
sg63
g381
sg56
(lp397
g49
(g50
g51
NtRp398
(dp399
g54
(dp400
g62
I3
ssg63
g394
sg56
(lp401
S''
asbasbasbasbasbasbasbag49
(g65
g51
NtRp402
(dp403
g54
(dp404
sg63
g226
sg56
(lp405
g49
(g70
g51
NtRp406
(dp407
g54
(dp408
g74
g75
ssg63
g402
sg56
(lp409
S'session_id_udi0312'
p410
asbag49
(g70
g51
NtRp411
(dp412
g54
(dp413
g81
g82
ssg63
g402
sg56
(lp414
S':'
asbag49
(g70
g51
NtRp415
(dp416
g54
(dp417
sg63
g402
sg56
(lp418
g49
(g50
g51
NtRp419
(dp420
g54
(dp421
g62
I4
ssg63
g415
sg56
(lp422
g49
(g58
g51
NtRp423
(dp424
g54
(dp425
g62
I3
ssg63
Nsg56
(lp426
g49
(g65
g51
NtRp427
(dp428
g54
(dp429
sg63
g423
sg56
(lp430
g49
(g70
g51
NtRp431
(dp432
g54
(dp433
g74
g75
ssg63
g427
sg56
(lp434
g263
asbag49
(g70
g51
NtRp435
(dp436
g54
(dp437
g81
g82
ssg63
g427
sg56
(lp438
S':'
asbag49
(g70
g51
NtRp439
(dp440
g54
(dp441
sg63
g427
sg56
(lp442
g49
(g50
g51
NtRp443
(dp444
g54
(dp445
g62
I3
ssg63
g439
sg56
(lp446
S''
asbasbasbag49
(g65
g51
NtRp447
(dp448
g54
(dp449
sg63
g423
sg56
(lp450
g49
(g70
g51
NtRp451
(dp452
g54
(dp453
g74
g75
ssg63
g447
sg56
(lp454
g284
asbag49
(g70
g51
NtRp455
(dp456
g54
(dp457
g81
g82
ssg63
g447
sg56
(lp458
S':'
asbag49
(g70
g51
NtRp459
(dp460
g54
(dp461
sg63
g447
sg56
(lp462
g49
(g50
g51
NtRp463
(dp464
g54
(dp465
g62
I3
ssg63
g459
sg56
(lp466
S''
asbasbasbag49
(g65
g51
NtRp467
(dp468
g54
(dp469
sg63
g423
sg56
(lp470
g49
(g70
g51
NtRp471
(dp472
g54
(dp473
g74
g75
ssg63
g467
sg56
(lp474
g305
asbag49
(g70
g51
NtRp475
(dp476
g54
(dp477
g81
g82
ssg63
g467
sg56
(lp478
S':'
asbag49
(g70
g51
NtRp479
(dp480
g54
(dp481
sg63
g467
sg56
(lp482
g49
(g50
g51
NtRp483
(dp484
g54
(dp485
g62
I3
ssg63
g479
sg56
(lp486
S''
asbasbasbag49
(g65
g51
NtRp487
(dp488
g54
(dp489
sg63
g423
sg56
(lp490
g49
(g70
g51
NtRp491
(dp492
g54
(dp493
g74
g75
ssg63
g487
sg56
(lp494
g326
asbag49
(g70
g51
NtRp495
(dp496
g54
(dp497
g81
g82
ssg63
g487
sg56
(lp498
S':'
asbag49
(g70
g51
NtRp499
(dp500
g54
(dp501
sg63
g487
sg56
(lp502
g49
(g50
g51
NtRp503
(dp504
g54
(dp505
g62
I3
ssg63
g499
sg56
(lp506
S''
asbasbasbag49
(g65
g51
NtRp507
(dp508
g54
(dp509
sg63
g423
sg56
(lp510
g49
(g70
g51
NtRp511
(dp512
g54
(dp513
g74
g75
ssg63
g507
sg56
(lp514
g347
asbag49
(g70
g51
NtRp515
(dp516
g54
(dp517
g81
g82
ssg63
g507
sg56
(lp518
S':'
asbag49
(g70
g51
NtRp519
(dp520
g54
(dp521
sg63
g507
sg56
(lp522
g49
(g50
g51
NtRp523
(dp524
g54
(dp525
g62
I3
ssg63
g519
sg56
(lp526
S''
asbasbasbag49
(g65
g51
NtRp527
(dp528
g54
(dp529
sg63
g423
sg56
(lp530
g49
(g70
g51
NtRp531
(dp532
g54
(dp533
g74
g75
ssg63
g527
sg56
(lp534
g368
asbag49
(g70
g51
NtRp535
(dp536
g54
(dp537
g81
g82
ssg63
g527
sg56
(lp538
S':'
asbag49
(g70
g51
NtRp539
(dp540
g54
(dp541
sg63
g527
sg56
(lp542
g49
(g50
g51
NtRp543
(dp544
g54
(dp545
g62
I3
ssg63
g539
sg56
(lp546
S''
asbasbasbag49
(g65
g51
NtRp547
(dp548
g54
(dp549
sg63
g423
sg56
(lp550
g49
(g70
g51
NtRp551
(dp552
g54
(dp553
g74
g75
ssg63
g547
sg56
(lp554
g389
asbag49
(g70
g51
NtRp555
(dp556
g54
(dp557
g81
g82
ssg63
g547
sg56
(lp558
S':'
asbag49
(g70
g51
NtRp559
(dp560
g54
(dp561
sg63
g547
sg56
(lp562
g49
(g50
g51
NtRp563
(dp564
g54
(dp565
g62
I3
ssg63
g559
sg56
(lp566
S''
asbasbasbasbasbasbasbasbasbasbasbag49
(g65
g51
NtRp567
(dp568
g54
(dp569
sg63
g59
sg56
(lp570
g49
(g70
g51
NtRp571
(dp572
g54
(dp573
g74
g75
ssg63
g567
sg56
(lp574
S'env'
p575
asbag49
(g70
g51
NtRp576
(dp577
g54
(dp578
g81
g82
ssg63
g567
sg56
(lp579
S':'
asbag49
(g70
g51
NtRp580
(dp581
g54
(dp582
sg63
g567
sg56
(lp583
g49
(g50
g51
NtRp584
(dp585
g54
(dp586
g62
I5
ssg63
g580
sg56
(lp587
g49
(g58
g51
NtRp588
(dp589
g54
(dp590
g62
I4
ssg63
Nsg56
(lp591
g49
(g65
g51
NtRp592
(dp593
g54
(dp594
sg63
g588
sg56
(lp595
g49
(g70
g51
NtRp596
(dp597
g54
(dp598
g74
g75
ssg63
g592
sg56
(lp599
S'app_folders'
p600
asbag49
(g70
g51
NtRp601
(dp602
g54
(dp603
g81
g82
ssg63
g592
sg56
(lp604
S':'
asbag49
(g70
g51
NtRp605
(dp606
g54
(dp607
sg63
g592
sg56
(lp608
g49
(g50
g51
NtRp609
(dp610
g54
(dp611
g62
I4
ssg63
g605
sg56
(lp612
S"set(['/Users/udimilo/Documents/web2py/applications/udi0312/', '/Users/udimilo/Documents/web2py/applications/admin/'])"
p613
asbasbasbag49
(g65
g51
NtRp614
(dp615
g54
(dp616
sg63
g588
sg56
(lp617
g49
(g70
g51
NtRp618
(dp619
g54
(dp620
g74
g75
ssg63
g614
sg56
(lp621
S'applications_parent'
p622
asbag49
(g70
g51
NtRp623
(dp624
g54
(dp625
g81
g82
ssg63
g614
sg56
(lp626
S':'
asbag49
(g70
g51
NtRp627
(dp628
g54
(dp629
sg63
g614
sg56
(lp630
g49
(g50
g51
NtRp631
(dp632
g54
(dp633
g62
I4
ssg63
g627
sg56
(lp634
S'/Users/udimilo/Documents/web2py'
p635
asbasbasbag49
(g65
g51
NtRp636
(dp637
g54
(dp638
sg63
g588
sg56
(lp639
g49
(g70
g51
NtRp640
(dp641
g54
(dp642
g74
g75
ssg63
g636
sg56
(lp643
S'cmd_args'
p644
asbag49
(g70
g51
NtRp645
(dp646
g54
(dp647
g81
g82
ssg63
g636
sg56
(lp648
S':'
asbag49
(g70
g51
NtRp649
(dp650
g54
(dp651
sg63
g636
sg56
(lp652
g49
(g50
g51
NtRp653
(dp654
g54
(dp655
g62
I4
ssg63
g649
sg56
(lp656
g49
(g58
g51
NtRp657
(dp658
g54
(dp659
g62
I3
ssg63
Nsg56
(lp660
sbasbasbasbag49
(g65
g51
NtRp661
(dp662
g54
(dp663
sg63
g588
sg56
(lp664
g49
(g70
g51
NtRp665
(dp666
g54
(dp667
g74
g75
ssg63
g661
sg56
(lp668
S'cmd_options'
p669
asbag49
(g70
g51
NtRp670
(dp671
g54
(dp672
g81
g82
ssg63
g661
sg56
(lp673
S':'
asbag49
(g70
g51
NtRp674
(dp675
g54
(dp676
sg63
g661
sg56
(lp677
g49
(g50
g51
NtRp678
(dp679
g54
(dp680
g62
I4
ssg63
g674
sg56
(lp681
S"<Values at 0x23301c0: {'verbose': False, 'ip': '127.0.0.1', 'shutdown_timeout': 5, 'taskbar': False, 'nocron': False, 'pid_filename': 'httpserver.pid', 'maxthreads': None, 'softcron': False, 'server_name': 'udi-milos-macbook-pro.fritz.box', 'bpython': False, 'nogui': False, 'port': 8000, 'extcron': False, 'debuglevel': 30, 'test': None, 'folder': '/Users/udimilo/Documents/web2py', 'config': '', 'import_models': False, 'winservice': '', 'shell': None, 'run': '', 'log_filename': 'httpserver.log', 'args': [''], 'socket_timeout': 5, 'ssl_ca_certificate': None, 'scheduler': None, 'profiler_filename': None, 'ssl_private_key': '', 'password': '<ask>', 'request_queue_size': 5, 'ssl_certificate': '', 'cronjob': False, 'numthreads': None, 'quiet': False, 'interfaces': None, 'minthreads': None, 'timeout': 10, 'plain': False, 'nobanner': False}>"
p682
asbasbasbag49
(g65
g51
NtRp683
(dp684
g54
(dp685
sg63
g588
sg56
(lp686
g49
(g70
g51
NtRp687
(dp688
g54
(dp689
g74
g75
ssg63
g683
sg56
(lp690
S'db_sessions'
p691
asbag49
(g70
g51
NtRp692
(dp693
g54
(dp694
g81
g82
ssg63
g683
sg56
(lp695
S':'
asbag49
(g70
g51
NtRp696
(dp697
g54
(dp698
sg63
g683
sg56
(lp699
g49
(g50
g51
NtRp700
(dp701
g54
(dp702
g62
I4
ssg63
g696
sg56
(lp703
S'set([])'
p704
asbasbasbag49
(g65
g51
NtRp705
(dp706
g54
(dp707
sg63
g588
sg56
(lp708
g49
(g70
g51
NtRp709
(dp710
g54
(dp711
g74
g75
ssg63
g705
sg56
(lp712
S'debugging'
p713
asbag49
(g70
g51
NtRp714
(dp715
g54
(dp716
g81
g82
ssg63
g705
sg56
(lp717
S':'
asbag49
(g70
g51
NtRp718
(dp719
g54
(dp720
sg63
g705
sg56
(lp721
g49
(g50
g51
NtRp722
(dp723
g54
(dp724
g62
I4
ssg63
g718
sg56
(lp725
g92
asbasbasbag49
(g65
g51
NtRp726
(dp727
g54
(dp728
sg63
g588
sg56
(lp729
g49
(g70
g51
NtRp730
(dp731
g54
(dp732
g74
g75
ssg63
g726
sg56
(lp733
S'gluon_parent'
p734
asbag49
(g70
g51
NtRp735
(dp736
g54
(dp737
g81
g82
ssg63
g726
sg56
(lp738
S':'
asbag49
(g70
g51
NtRp739
(dp740
g54
(dp741
sg63
g726
sg56
(lp742
g49
(g50
g51
NtRp743
(dp744
g54
(dp745
g62
I4
ssg63
g739
sg56
(lp746
S'/Users/udimilo/Documents/web2py'
p747
asbasbasbag49
(g65
g51
NtRp748
(dp749
g54
(dp750
sg63
g588
sg56
(lp751
g49
(g70
g51
NtRp752
(dp753
g54
(dp754
g74
g75
ssg63
g748
sg56
(lp755
S'http_accept'
p756
asbag49
(g70
g51
NtRp757
(dp758
g54
(dp759
g81
g82
ssg63
g748
sg56
(lp760
S':'
asbag49
(g70
g51
NtRp761
(dp762
g54
(dp763
sg63
g748
sg56
(lp764
g49
(g50
g51
NtRp765
(dp766
g54
(dp767
g62
I4
ssg63
g761
sg56
(lp768
S'text/html,application/xhtml+xml,application/xml;q=0.9,*/*;q=0.8'
p769
asbasbasbag49
(g65
g51
NtRp770
(dp771
g54
(dp772
sg63
g588
sg56
(lp773
g49
(g70
g51
NtRp774
(dp775
g54
(dp776
g74
g75
ssg63
g770
sg56
(lp777
S'http_accept_charset'
p778
asbag49
(g70
g51
NtRp779
(dp780
g54
(dp781
g81
g82
ssg63
g770
sg56
(lp782
S':'
asbag49
(g70
g51
NtRp783
(dp784
g54
(dp785
sg63
g770
sg56
(lp786
g49
(g50
g51
NtRp787
(dp788
g54
(dp789
g62
I4
ssg63
g783
sg56
(lp790
S'ISO-8859-1,utf-8;q=0.7,*;q=0.3'
p791
asbasbasbag49
(g65
g51
NtRp792
(dp793
g54
(dp794
sg63
g588
sg56
(lp795
g49
(g70
g51
NtRp796
(dp797
g54
(dp798
g74
g75
ssg63
g792
sg56
(lp799
S'http_accept_encoding'
p800
asbag49
(g70
g51
NtRp801
(dp802
g54
(dp803
g81
g82
ssg63
g792
sg56
(lp804
S':'
asbag49
(g70
g51
NtRp805
(dp806
g54
(dp807
sg63
g792
sg56
(lp808
g49
(g50
g51
NtRp809
(dp810
g54
(dp811
g62
I4
ssg63
g805
sg56
(lp812
S'gzip,deflate,sdch'
p813
asbasbasbag49
(g65
g51
NtRp814
(dp815
g54
(dp816
sg63
g588
sg56
(lp817
g49
(g70
g51
NtRp818
(dp819
g54
(dp820
g74
g75
ssg63
g814
sg56
(lp821
S'http_accept_language'
p822
asbag49
(g70
g51
NtRp823
(dp824
g54
(dp825
g81
g82
ssg63
g814
sg56
(lp826
S':'
asbag49
(g70
g51
NtRp827
(dp828
g54
(dp829
sg63
g814
sg56
(lp830
g49
(g50
g51
NtRp831
(dp832
g54
(dp833
g62
I4
ssg63
g827
sg56
(lp834
S'en-US,en;q=0.8'
p835
asbasbasbag49
(g65
g51
NtRp836
(dp837
g54
(dp838
sg63
g588
sg56
(lp839
g49
(g70
g51
NtRp840
(dp841
g54
(dp842
g74
g75
ssg63
g836
sg56
(lp843
S'http_cache_control'
p844
asbag49
(g70
g51
NtRp845
(dp846
g54
(dp847
g81
g82
ssg63
g836
sg56
(lp848
S':'
asbag49
(g70
g51
NtRp849
(dp850
g54
(dp851
sg63
g836
sg56
(lp852
g49
(g50
g51
NtRp853
(dp854
g54
(dp855
g62
I4
ssg63
g849
sg56
(lp856
S'max-age=0'
p857
asbasbasbag49
(g65
g51
NtRp858
(dp859
g54
(dp860
sg63
g588
sg56
(lp861
g49
(g70
g51
NtRp862
(dp863
g54
(dp864
g74
g75
ssg63
g858
sg56
(lp865
S'http_connection'
p866
asbag49
(g70
g51
NtRp867
(dp868
g54
(dp869
g81
g82
ssg63
g858
sg56
(lp870
S':'
asbag49
(g70
g51
NtRp871
(dp872
g54
(dp873
sg63
g858
sg56
(lp874
g49
(g50
g51
NtRp875
(dp876
g54
(dp877
g62
I4
ssg63
g871
sg56
(lp878
S'keep-alive'
p879
asbasbasbag49
(g65
g51
NtRp880
(dp881
g54
(dp882
sg63
g588
sg56
(lp883
g49
(g70
g51
NtRp884
(dp885
g54
(dp886
g74
g75
ssg63
g880
sg56
(lp887
S'http_cookie'
p888
asbag49
(g70
g51
NtRp889
(dp890
g54
(dp891
g81
g82
ssg63
g880
sg56
(lp892
S':'
asbag49
(g70
g51
NtRp893
(dp894
g54
(dp895
sg63
g880
sg56
(lp896
g49
(g50
g51
NtRp897
(dp898
g54
(dp899
g62
I4
ssg63
g893
sg56
(lp900
S'session_id_udi0312=127.0.0.1-fcd6a577-d448-4882-b7bc-f353da84ba3b; session_id_admin=127.0.0.1-784f21fc-559b-4436-993f-35f35c035db4'
p901
asbasbasbag49
(g65
g51
NtRp902
(dp903
g54
(dp904
sg63
g588
sg56
(lp905
g49
(g70
g51
NtRp906
(dp907
g54
(dp908
g74
g75
ssg63
g902
sg56
(lp909
S'http_host'
p910
asbag49
(g70
g51
NtRp911
(dp912
g54
(dp913
g81
g82
ssg63
g902
sg56
(lp914
S':'
asbag49
(g70
g51
NtRp915
(dp916
g54
(dp917
sg63
g902
sg56
(lp918
g49
(g50
g51
NtRp919
(dp920
g54
(dp921
g62
I4
ssg63
g915
sg56
(lp922
S'127.0.0.1:8000'
p923
asbasbasbag49
(g65
g51
NtRp924
(dp925
g54
(dp926
sg63
g588
sg56
(lp927
g49
(g70
g51
NtRp928
(dp929
g54
(dp930
g74
g75
ssg63
g924
sg56
(lp931
S'http_user_agent'
p932
asbag49
(g70
g51
NtRp933
(dp934
g54
(dp935
g81
g82
ssg63
g924
sg56
(lp936
S':'
asbag49
(g70
g51
NtRp937
(dp938
g54
(dp939
sg63
g924
sg56
(lp940
g49
(g50
g51
NtRp941
(dp942
g54
(dp943
g62
I4
ssg63
g937
sg56
(lp944
S'Mozilla/5.0 (Macintosh; Intel Mac OS X 10_7_3) AppleWebKit/535.11 (KHTML, like Gecko) Chrome/17.0.963.78 Safari/535.11'
p945
asbasbasbag49
(g65
g51
NtRp946
(dp947
g54
(dp948
sg63
g588
sg56
(lp949
g49
(g70
g51
NtRp950
(dp951
g54
(dp952
g74
g75
ssg63
g946
sg56
(lp953
S'is_jython'
p954
asbag49
(g70
g51
NtRp955
(dp956
g54
(dp957
g81
g82
ssg63
g946
sg56
(lp958
S':'
asbag49
(g70
g51
NtRp959
(dp960
g54
(dp961
sg63
g946
sg56
(lp962
g49
(g50
g51
NtRp963
(dp964
g54
(dp965
g62
I4
ssg63
g959
sg56
(lp966
g92
asbasbasbag49
(g65
g51
NtRp967
(dp968
g54
(dp969
sg63
g588
sg56
(lp970
g49
(g70
g51
NtRp971
(dp972
g54
(dp973
g74
g75
ssg63
g967
sg56
(lp974
S'is_pypy'
p975
asbag49
(g70
g51
NtRp976
(dp977
g54
(dp978
g81
g82
ssg63
g967
sg56
(lp979
S':'
asbag49
(g70
g51
NtRp980
(dp981
g54
(dp982
sg63
g967
sg56
(lp983
g49
(g50
g51
NtRp984
(dp985
g54
(dp986
g62
I4
ssg63
g980
sg56
(lp987
g92
asbasbasbag49
(g65
g51
NtRp988
(dp989
g54
(dp990
sg63
g588
sg56
(lp991
g49
(g70
g51
NtRp992
(dp993
g54
(dp994
g74
g75
ssg63
g988
sg56
(lp995
S'path_info'
p996
asbag49
(g70
g51
NtRp997
(dp998
g54
(dp999
g81
g82
ssg63
g988
sg56
(lp1000
S':'
asbag49
(g70
g51
NtRp1001
(dp1002
g54
(dp1003
sg63
g988
sg56
(lp1004
g49
(g50
g51
NtRp1005
(dp1006
g54
(dp1007
g62
I4
ssg63
g1001
sg56
(lp1008
S'/'
asbasbasbag49
(g65
g51
NtRp1009
(dp1010
g54
(dp1011
sg63
g588
sg56
(lp1012
g49
(g70
g51
NtRp1013
(dp1014
g54
(dp1015
g74
g75
ssg63
g1009
sg56
(lp1016
S'query_string'
p1017
asbag49
(g70
g51
NtRp1018
(dp1019
g54
(dp1020
g81
g82
ssg63
g1009
sg56
(lp1021
S':'
asbag49
(g70
g51
NtRp1022
(dp1023
g54
(dp1024
sg63
g1009
sg56
(lp1025
g49
(g50
g51
NtRp1026
(dp1027
g54
(dp1028
g62
I4
ssg63
g1022
sg56
(lp1029
S''
asbasbasbag49
(g65
g51
NtRp1030
(dp1031
g54
(dp1032
sg63
g588
sg56
(lp1033
g49
(g70
g51
NtRp1034
(dp1035
g54
(dp1036
g74
g75
ssg63
g1030
sg56
(lp1037
S'remote_addr'
p1038
asbag49
(g70
g51
NtRp1039
(dp1040
g54
(dp1041
g81
g82
ssg63
g1030
sg56
(lp1042
S':'
asbag49
(g70
g51
NtRp1043
(dp1044
g54
(dp1045
sg63
g1030
sg56
(lp1046
g49
(g50
g51
NtRp1047
(dp1048
g54
(dp1049
g62
I4
ssg63
g1043
sg56
(lp1050
g182
asbasbasbag49
(g65
g51
NtRp1051
(dp1052
g54
(dp1053
sg63
g588
sg56
(lp1054
g49
(g70
g51
NtRp1055
(dp1056
g54
(dp1057
g74
g75
ssg63
g1051
sg56
(lp1058
S'remote_port'
p1059
asbag49
(g70
g51
NtRp1060
(dp1061
g54
(dp1062
g81
g82
ssg63
g1051
sg56
(lp1063
S':'
asbag49
(g70
g51
NtRp1064
(dp1065
g54
(dp1066
sg63
g1051
sg56
(lp1067
g49
(g50
g51
NtRp1068
(dp1069
g54
(dp1070
g62
I4
ssg63
g1064
sg56
(lp1071
S'65175'
p1072
asbasbasbag49
(g65
g51
NtRp1073
(dp1074
g54
(dp1075
sg63
g588
sg56
(lp1076
g49
(g70
g51
NtRp1077
(dp1078
g54
(dp1079
g74
g75
ssg63
g1073
sg56
(lp1080
S'request_method'
p1081
asbag49
(g70
g51
NtRp1082
(dp1083
g54
(dp1084
g81
g82
ssg63
g1073
sg56
(lp1085
S':'
asbag49
(g70
g51
NtRp1086
(dp1087
g54
(dp1088
sg63
g1073
sg56
(lp1089
g49
(g50
g51
NtRp1090
(dp1091
g54
(dp1092
g62
I4
ssg63
g1086
sg56
(lp1093
S'GET'
p1094
asbasbasbag49
(g65
g51
NtRp1095
(dp1096
g54
(dp1097
sg63
g588
sg56
(lp1098
g49
(g70
g51
NtRp1099
(dp1100
g54
(dp1101
g74
g75
ssg63
g1095
sg56
(lp1102
S'request_uri'
p1103
asbag49
(g70
g51
NtRp1104
(dp1105
g54
(dp1106
g81
g82
ssg63
g1095
sg56
(lp1107
S':'
asbag49
(g70
g51
NtRp1108
(dp1109
g54
(dp1110
sg63
g1095
sg56
(lp1111
g49
(g50
g51
NtRp1112
(dp1113
g54
(dp1114
g62
I4
ssg63
g1108
sg56
(lp1115
S'/udi0312/default/index'
p1116
asbasbasbag49
(g65
g51
NtRp1117
(dp1118
g54
(dp1119
sg63
g588
sg56
(lp1120
g49
(g70
g51
NtRp1121
(dp1122
g54
(dp1123
g74
g75
ssg63
g1117
sg56
(lp1124
S'script_name'
p1125
asbag49
(g70
g51
NtRp1126
(dp1127
g54
(dp1128
g81
g82
ssg63
g1117
sg56
(lp1129
S':'
asbag49
(g70
g51
NtRp1130
(dp1131
g54
(dp1132
sg63
g1117
sg56
(lp1133
g49
(g50
g51
NtRp1134
(dp1135
g54
(dp1136
g62
I4
ssg63
g1130
sg56
(lp1137
S''
asbasbasbag49
(g65
g51
NtRp1138
(dp1139
g54
(dp1140
sg63
g588
sg56
(lp1141
g49
(g70
g51
NtRp1142
(dp1143
g54
(dp1144
g74
g75
ssg63
g1138
sg56
(lp1145
S'server_name'
p1146
asbag49
(g70
g51
NtRp1147
(dp1148
g54
(dp1149
g81
g82
ssg63
g1138
sg56
(lp1150
S':'
asbag49
(g70
g51
NtRp1151
(dp1152
g54
(dp1153
sg63
g1138
sg56
(lp1154
g49
(g50
g51
NtRp1155
(dp1156
g54
(dp1157
g62
I4
ssg63
g1151
sg56
(lp1158
S'udi-milos-macbook-pro.fritz.box'
p1159
asbasbasbag49
(g65
g51
NtRp1160
(dp1161
g54
(dp1162
sg63
g588
sg56
(lp1163
g49
(g70
g51
NtRp1164
(dp1165
g54
(dp1166
g74
g75
ssg63
g1160
sg56
(lp1167
S'server_port'
p1168
asbag49
(g70
g51
NtRp1169
(dp1170
g54
(dp1171
g81
g82
ssg63
g1160
sg56
(lp1172
S':'
asbag49
(g70
g51
NtRp1173
(dp1174
g54
(dp1175
sg63
g1160
sg56
(lp1176
g49
(g50
g51
NtRp1177
(dp1178
g54
(dp1179
g62
I4
ssg63
g1173
sg56
(lp1180
S'8000'
p1181
asbasbasbag49
(g65
g51
NtRp1182
(dp1183
g54
(dp1184
sg63
g588
sg56
(lp1185
g49
(g70
g51
NtRp1186
(dp1187
g54
(dp1188
g74
g75
ssg63
g1182
sg56
(lp1189
S'server_protocol'
p1190
asbag49
(g70
g51
NtRp1191
(dp1192
g54
(dp1193
g81
g82
ssg63
g1182
sg56
(lp1194
S':'
asbag49
(g70
g51
NtRp1195
(dp1196
g54
(dp1197
sg63
g1182
sg56
(lp1198
g49
(g50
g51
NtRp1199
(dp1200
g54
(dp1201
g62
I4
ssg63
g1195
sg56
(lp1202
S'HTTP/1.1'
p1203
asbasbasbag49
(g65
g51
NtRp1204
(dp1205
g54
(dp1206
sg63
g588
sg56
(lp1207
g49
(g70
g51
NtRp1208
(dp1209
g54
(dp1210
g74
g75
ssg63
g1204
sg56
(lp1211
S'server_software'
p1212
asbag49
(g70
g51
NtRp1213
(dp1214
g54
(dp1215
g81
g82
ssg63
g1204
sg56
(lp1216
S':'
asbag49
(g70
g51
NtRp1217
(dp1218
g54
(dp1219
sg63
g1204
sg56
(lp1220
g49
(g50
g51
NtRp1221
(dp1222
g54
(dp1223
g62
I4
ssg63
g1217
sg56
(lp1224
S'Rocket 1.2.4'
p1225
asbasbasbag49
(g65
g51
NtRp1226
(dp1227
g54
(dp1228
sg63
g588
sg56
(lp1229
g49
(g70
g51
NtRp1230
(dp1231
g54
(dp1232
g74
g75
ssg63
g1226
sg56
(lp1233
S'web2py_crontype'
p1234
asbag49
(g70
g51
NtRp1235
(dp1236
g54
(dp1237
g81
g82
ssg63
g1226
sg56
(lp1238
S':'
asbag49
(g70
g51
NtRp1239
(dp1240
g54
(dp1241
sg63
g1226
sg56
(lp1242
g49
(g50
g51
NtRp1243
(dp1244
g54
(dp1245
g62
I4
ssg63
g1239
sg56
(lp1246
S'hard'
p1247
asbasbasbag49
(g65
g51
NtRp1248
(dp1249
g54
(dp1250
sg63
g588
sg56
(lp1251
g49
(g70
g51
NtRp1252
(dp1253
g54
(dp1254
g74
g75
ssg63
g1248
sg56
(lp1255
S'web2py_original_uri'
p1256
asbag49
(g70
g51
NtRp1257
(dp1258
g54
(dp1259
g81
g82
ssg63
g1248
sg56
(lp1260
S':'
asbag49
(g70
g51
NtRp1261
(dp1262
g54
(dp1263
sg63
g1248
sg56
(lp1264
g49
(g50
g51
NtRp1265
(dp1266
g54
(dp1267
g62
I4
ssg63
g1261
sg56
(lp1268
S'/'
asbasbasbag49
(g65
g51
NtRp1269
(dp1270
g54
(dp1271
sg63
g588
sg56
(lp1272
g49
(g70
g51
NtRp1273
(dp1274
g54
(dp1275
g74
g75
ssg63
g1269
sg56
(lp1276
S'web2py_path'
p1277
asbag49
(g70
g51
NtRp1278
(dp1279
g54
(dp1280
g81
g82
ssg63
g1269
sg56
(lp1281
S':'
asbag49
(g70
g51
NtRp1282
(dp1283
g54
(dp1284
sg63
g1269
sg56
(lp1285
g49
(g50
g51
NtRp1286
(dp1287
g54
(dp1288
g62
I4
ssg63
g1282
sg56
(lp1289
g635
asbasbasbag49
(g65
g51
NtRp1290
(dp1291
g54
(dp1292
sg63
g588
sg56
(lp1293
g49
(g70
g51
NtRp1294
(dp1295
g54
(dp1296
g74
g75
ssg63
g1290
sg56
(lp1297
S'web2py_version'
p1298
asbag49
(g70
g51
NtRp1299
(dp1300
g54
(dp1301
g81
g82
ssg63
g1290
sg56
(lp1302
S':'
asbag49
(g70
g51
NtRp1303
(dp1304
g54
(dp1305
sg63
g1290
sg56
(lp1306
g49
(g50
g51
NtRp1307
(dp1308
g54
(dp1309
g62
I4
ssg63
g1303
sg56
(lp1310
g49
(g58
g51
NtRp1311
(dp1312
g54
(dp1313
g62
I3
ssg63
Nsg56
(lp1314
g49
(g65
g51
NtRp1315
(dp1316
g54
(dp1317
sg63
g1311
sg56
(lp1318
g49
(g70
g51
NtRp1319
(dp1320
g54
(dp1321
sg63
g1315
sg56
(lp1322
g49
(g50
g51
NtRp1323
(dp1324
g54
(dp1325
g62
I3
ssg63
g1319
sg56
(lp1326
S'1'
asbasbasbag49
(g65
g51
NtRp1327
(dp1328
g54
(dp1329
sg63
g1311
sg56
(lp1330
g49
(g70
g51
NtRp1331
(dp1332
g54
(dp1333
sg63
g1327
sg56
(lp1334
g49
(g50
g51
NtRp1335
(dp1336
g54
(dp1337
g62
I3
ssg63
g1331
sg56
(lp1338
S'99'
p1339
asbasbasbag49
(g65
g51
NtRp1340
(dp1341
g54
(dp1342
sg63
g1311
sg56
(lp1343
g49
(g70
g51
NtRp1344
(dp1345
g54
(dp1346
sg63
g1340
sg56
(lp1347
g49
(g50
g51
NtRp1348
(dp1349
g54
(dp1350
g62
I3
ssg63
g1344
sg56
(lp1351
S'7'
asbasbasbag49
(g65
g51
NtRp1352
(dp1353
g54
(dp1354
sg63
g1311
sg56
(lp1355
g49
(g70
g51
NtRp1356
(dp1357
g54
(dp1358
sg63
g1352
sg56
(lp1359
g49
(g50
g51
NtRp1360
(dp1361
g54
(dp1362
g62
I3
ssg63
g1356
sg56
(lp1363
S'datetime.datetime(2012, 3, 4, 22, 12, 8)'
p1364
asbasbasbag49
(g65
g51
NtRp1365
(dp1366
g54
(dp1367
sg63
g1311
sg56
(lp1368
g49
(g70
g51
NtRp1369
(dp1370
g54
(dp1371
sg63
g1365
sg56
(lp1372
g49
(g50
g51
NtRp1373
(dp1374
g54
(dp1375
g62
I3
ssg63
g1369
sg56
(lp1376
S'stable'
p1377
asbasbasbasbasbasbasbag49
(g65
g51
NtRp1378
(dp1379
g54
(dp1380
sg63
g588
sg56
(lp1381
g49
(g70
g51
NtRp1382
(dp1383
g54
(dp1384
g74
g75
ssg63
g1378
sg56
(lp1385
S'wsgi_errors'
p1386
asbag49
(g70
g51
NtRp1387
(dp1388
g54
(dp1389
g81
g82
ssg63
g1378
sg56
(lp1390
S':'
asbag49
(g70
g51
NtRp1391
(dp1392
g54
(dp1393
sg63
g1378
sg56
(lp1394
g49
(g50
g51
NtRp1395
(dp1396
g54
(dp1397
g62
I4
ssg63
g1391
sg56
(lp1398
S"<open file '<stderr>', mode 'w' at 0x4220b0>"
p1399
asbasbasbag49
(g65
g51
NtRp1400
(dp1401
g54
(dp1402
sg63
g588
sg56
(lp1403
g49
(g70
g51
NtRp1404
(dp1405
g54
(dp1406
g74
g75
ssg63
g1400
sg56
(lp1407
S'wsgi_file_wrapper'
p1408
asbag49
(g70
g51
NtRp1409
(dp1410
g54
(dp1411
g81
g82
ssg63
g1400
sg56
(lp1412
S':'
asbag49
(g70
g51
NtRp1413
(dp1414
g54
(dp1415
sg63
g1400
sg56
(lp1416
g49
(g50
g51
NtRp1417
(dp1418
g54
(dp1419
g62
I4
ssg63
g1413
sg56
(lp1420
S'<class wsgiref.util.FileWrapper at 0x22746c0>'
p1421
asbasbasbag49
(g65
g51
NtRp1422
(dp1423
g54
(dp1424
sg63
g588
sg56
(lp1425
g49
(g70
g51
NtRp1426
(dp1427
g54
(dp1428
g74
g75
ssg63
g1422
sg56
(lp1429
S'wsgi_input'
p1430
asbag49
(g70
g51
NtRp1431
(dp1432
g54
(dp1433
g81
g82
ssg63
g1422
sg56
(lp1434
S':'
asbag49
(g70
g51
NtRp1435
(dp1436
g54
(dp1437
sg63
g1422
sg56
(lp1438
g49
(g50
g51
NtRp1439
(dp1440
g54
(dp1441
g62
I4
ssg63
g1435
sg56
(lp1442
S'<socket._fileobject object at 0x9e8da30>'
p1443
asbasbasbag49
(g65
g51
NtRp1444
(dp1445
g54
(dp1446
sg63
g588
sg56
(lp1447
g49
(g70
g51
NtRp1448
(dp1449
g54
(dp1450
g74
g75
ssg63
g1444
sg56
(lp1451
S'wsgi_multiprocess'
p1452
asbag49
(g70
g51
NtRp1453
(dp1454
g54
(dp1455
g81
g82
ssg63
g1444
sg56
(lp1456
S':'
asbag49
(g70
g51
NtRp1457
(dp1458
g54
(dp1459
sg63
g1444
sg56
(lp1460
g49
(g50
g51
NtRp1461
(dp1462
g54
(dp1463
g62
I4
ssg63
g1457
sg56
(lp1464
g92
asbasbasbag49
(g65
g51
NtRp1465
(dp1466
g54
(dp1467
sg63
g588
sg56
(lp1468
g49
(g70
g51
NtRp1469
(dp1470
g54
(dp1471
g74
g75
ssg63
g1465
sg56
(lp1472
S'wsgi_multithread'
p1473
asbag49
(g70
g51
NtRp1474
(dp1475
g54
(dp1476
g81
g82
ssg63
g1465
sg56
(lp1477
S':'
asbag49
(g70
g51
NtRp1478
(dp1479
g54
(dp1480
sg63
g1465
sg56
(lp1481
g49
(g50
g51
NtRp1482
(dp1483
g54
(dp1484
g62
I4
ssg63
g1478
sg56
(lp1485
S'True'
p1486
asbasbasbag49
(g65
g51
NtRp1487
(dp1488
g54
(dp1489
sg63
g588
sg56
(lp1490
g49
(g70
g51
NtRp1491
(dp1492
g54
(dp1493
g74
g75
ssg63
g1487
sg56
(lp1494
S'wsgi_run_once'
p1495
asbag49
(g70
g51
NtRp1496
(dp1497
g54
(dp1498
g81
g82
ssg63
g1487
sg56
(lp1499
S':'
asbag49
(g70
g51
NtRp1500
(dp1501
g54
(dp1502
sg63
g1487
sg56
(lp1503
g49
(g50
g51
NtRp1504
(dp1505
g54
(dp1506
g62
I4
ssg63
g1500
sg56
(lp1507
g92
asbasbasbag49
(g65
g51
NtRp1508
(dp1509
g54
(dp1510
sg63
g588
sg56
(lp1511
g49
(g70
g51
NtRp1512
(dp1513
g54
(dp1514
g74
g75
ssg63
g1508
sg56
(lp1515
S'wsgi_url_scheme'
p1516
asbag49
(g70
g51
NtRp1517
(dp1518
g54
(dp1519
g81
g82
ssg63
g1508
sg56
(lp1520
S':'
asbag49
(g70
g51
NtRp1521
(dp1522
g54
(dp1523
sg63
g1508
sg56
(lp1524
g49
(g50
g51
NtRp1525
(dp1526
g54
(dp1527
g62
I4
ssg63
g1521
sg56
(lp1528
S'http'
p1529
asbasbasbag49
(g65
g51
NtRp1530
(dp1531
g54
(dp1532
sg63
g588
sg56
(lp1533
g49
(g70
g51
NtRp1534
(dp1535
g54
(dp1536
g74
g75
ssg63
g1530
sg56
(lp1537
S'wsgi_version'
p1538
asbag49
(g70
g51
NtRp1539
(dp1540
g54
(dp1541
g81
g82
ssg63
g1530
sg56
(lp1542
S':'
asbag49
(g70
g51
NtRp1543
(dp1544
g54
(dp1545
sg63
g1530
sg56
(lp1546
g49
(g50
g51
NtRp1547
(dp1548
g54
(dp1549
g62
I4
ssg63
g1543
sg56
(lp1550
g49
(g58
g51
NtRp1551
(dp1552
g54
(dp1553
g62
I3
ssg63
Nsg56
(lp1554
g49
(g65
g51
NtRp1555
(dp1556
g54
(dp1557
sg63
g1551
sg56
(lp1558
g49
(g70
g51
NtRp1559
(dp1560
g54
(dp1561
sg63
g1555
sg56
(lp1562
g49
(g50
g51
NtRp1563
(dp1564
g54
(dp1565
g62
I3
ssg63
g1559
sg56
(lp1566
S'1'
asbasbasbag49
(g65
g51
NtRp1567
(dp1568
g54
(dp1569
sg63
g1551
sg56
(lp1570
g49
(g70
g51
NtRp1571
(dp1572
g54
(dp1573
sg63
g1567
sg56
(lp1574
g49
(g50
g51
NtRp1575
(dp1576
g54
(dp1577
g62
I3
ssg63
g1571
sg56
(lp1578
S'0'
asbasbasbasbasbasbasbasbasbasbasbag49
(g65
g51
NtRp1579
(dp1580
g54
(dp1581
sg63
g59
sg56
(lp1582
g49
(g70
g51
NtRp1583
(dp1584
g54
(dp1585
g74
g75
ssg63
g1579
sg56
(lp1586
S'extension'
p1587
asbag49
(g70
g51
NtRp1588
(dp1589
g54
(dp1590
g81
g82
ssg63
g1579
sg56
(lp1591
S':'
asbag49
(g70
g51
NtRp1592
(dp1593
g54
(dp1594
sg63
g1579
sg56
(lp1595
g49
(g50
g51
NtRp1596
(dp1597
g54
(dp1598
g62
I5
ssg63
g1592
sg56
(lp1599
S'html'
p1600
asbasbasbag49
(g65
g51
NtRp1601
(dp1602
g54
(dp1603
sg63
g59
sg56
(lp1604
g49
(g70
g51
NtRp1605
(dp1606
g54
(dp1607
g74
g75
ssg63
g1601
sg56
(lp1608
S'folder'
p1609
asbag49
(g70
g51
NtRp1610
(dp1611
g54
(dp1612
g81
g82
ssg63
g1601
sg56
(lp1613
S':'
asbag49
(g70
g51
NtRp1614
(dp1615
g54
(dp1616
sg63
g1601
sg56
(lp1617
g49
(g50
g51
NtRp1618
(dp1619
g54
(dp1620
g62
I5
ssg63
g1614
sg56
(lp1621
S'/Users/udimilo/Documents/web2py/applications/udi0312/'
p1622
asbasbasbag49
(g65
g51
NtRp1623
(dp1624
g54
(dp1625
sg63
g59
sg56
(lp1626
g49
(g70
g51
NtRp1627
(dp1628
g54
(dp1629
g74
g75
ssg63
g1623
sg56
(lp1630
S'function'
p1631
asbag49
(g70
g51
NtRp1632
(dp1633
g54
(dp1634
g81
g82
ssg63
g1623
sg56
(lp1635
S':'
asbag49
(g70
g51
NtRp1636
(dp1637
g54
(dp1638
sg63
g1623
sg56
(lp1639
g49
(g50
g51
NtRp1640
(dp1641
g54
(dp1642
g62
I5
ssg63
g1636
sg56
(lp1643
S'index'
p1644
asbasbasbag49
(g65
g51
NtRp1645
(dp1646
g54
(dp1647
sg63
g59
sg56
(lp1648
g49
(g70
g51
NtRp1649
(dp1650
g54
(dp1651
g74
g75
ssg63
g1645
sg56
(lp1652
S'get_vars'
p1653
asbag49
(g70
g51
NtRp1654
(dp1655
g54
(dp1656
g81
g82
ssg63
g1645
sg56
(lp1657
S':'
asbag49
(g70
g51
NtRp1658
(dp1659
g54
(dp1660
sg63
g1645
sg56
(lp1661
g49
(g50
g51
NtRp1662
(dp1663
g54
(dp1664
g62
I5
ssg63
g1658
sg56
(lp1665
g49
(g58
g51
NtRp1666
(dp1667
g54
(dp1668
g62
I4
ssg63
Nsg56
(lp1669
sbasbasbasbag49
(g65
g51
NtRp1670
(dp1671
g54
(dp1672
sg63
g59
sg56
(lp1673
g49
(g70
g51
NtRp1674
(dp1675
g54
(dp1676
g74
g75
ssg63
g1670
sg56
(lp1677
S'global_settings'
p1678
asbag49
(g70
g51
NtRp1679
(dp1680
g54
(dp1681
g81
g82
ssg63
g1670
sg56
(lp1682
S':'
asbag49
(g70
g51
NtRp1683
(dp1684
g54
(dp1685
sg63
g1670
sg56
(lp1686
g49
(g50
g51
NtRp1687
(dp1688
g54
(dp1689
g62
I5
ssg63
g1683
sg56
(lp1690
g49
(g58
g51
NtRp1691
(dp1692
g54
(dp1693
g62
I4
ssg63
Nsg56
(lp1694
g49
(g65
g51
NtRp1695
(dp1696
g54
(dp1697
sg63
g1691
sg56
(lp1698
g49
(g70
g51
NtRp1699
(dp1700
g54
(dp1701
g74
g75
ssg63
g1695
sg56
(lp1702
g600
asbag49
(g70
g51
NtRp1703
(dp1704
g54
(dp1705
g81
g82
ssg63
g1695
sg56
(lp1706
S':'
asbag49
(g70
g51
NtRp1707
(dp1708
g54
(dp1709
sg63
g1695
sg56
(lp1710
g49
(g50
g51
NtRp1711
(dp1712
g54
(dp1713
g62
I4
ssg63
g1707
sg56
(lp1714
S"set(['/Users/udimilo/Documents/web2py/applications/udi0312/', '/Users/udimilo/Documents/web2py/applications/admin/'])"
p1715
asbasbasbag49
(g65
g51
NtRp1716
(dp1717
g54
(dp1718
sg63
g1691
sg56
(lp1719
g49
(g70
g51
NtRp1720
(dp1721
g54
(dp1722
g74
g75
ssg63
g1716
sg56
(lp1723
g622
asbag49
(g70
g51
NtRp1724
(dp1725
g54
(dp1726
g81
g82
ssg63
g1716
sg56
(lp1727
S':'
asbag49
(g70
g51
NtRp1728
(dp1729
g54
(dp1730
sg63
g1716
sg56
(lp1731
g49
(g50
g51
NtRp1732
(dp1733
g54
(dp1734
g62
I4
ssg63
g1728
sg56
(lp1735
g635
asbasbasbag49
(g65
g51
NtRp1736
(dp1737
g54
(dp1738
sg63
g1691
sg56
(lp1739
g49
(g70
g51
NtRp1740
(dp1741
g54
(dp1742
g74
g75
ssg63
g1736
sg56
(lp1743
g644
asbag49
(g70
g51
NtRp1744
(dp1745
g54
(dp1746
g81
g82
ssg63
g1736
sg56
(lp1747
S':'
asbag49
(g70
g51
NtRp1748
(dp1749
g54
(dp1750
sg63
g1736
sg56
(lp1751
g49
(g50
g51
NtRp1752
(dp1753
g54
(dp1754
g62
I4
ssg63
g1748
sg56
(lp1755
g49
(g58
g51
NtRp1756
(dp1757
g54
(dp1758
g62
I3
ssg63
Nsg56
(lp1759
sbasbasbasbag49
(g65
g51
NtRp1760
(dp1761
g54
(dp1762
sg63
g1691
sg56
(lp1763
g49
(g70
g51
NtRp1764
(dp1765
g54
(dp1766
g74
g75
ssg63
g1760
sg56
(lp1767
g669
asbag49
(g70
g51
NtRp1768
(dp1769
g54
(dp1770
g81
g82
ssg63
g1760
sg56
(lp1771
S':'
asbag49
(g70
g51
NtRp1772
(dp1773
g54
(dp1774
sg63
g1760
sg56
(lp1775
g49
(g50
g51
NtRp1776
(dp1777
g54
(dp1778
g62
I4
ssg63
g1772
sg56
(lp1779
S"<Values at 0x23301c0: {'verbose': False, 'ip': '127.0.0.1', 'shutdown_timeout': 5, 'taskbar': False, 'nocron': False, 'pid_filename': 'httpserver.pid', 'maxthreads': None, 'softcron': False, 'server_name': 'udi-milos-macbook-pro.fritz.box', 'bpython': False, 'nogui': False, 'port': 8000, 'extcron': False, 'debuglevel': 30, 'test': None, 'folder': '/Users/udimilo/Documents/web2py', 'config': '', 'import_models': False, 'winservice': '', 'shell': None, 'run': '', 'log_filename': 'httpserver.log', 'args': [''], 'socket_timeout': 5, 'ssl_ca_certificate': None, 'scheduler': None, 'profiler_filename': None, 'ssl_private_key': '', 'password': '<ask>', 'request_queue_size': 5, 'ssl_certificate': '', 'cronjob': False, 'numthreads': None, 'quiet': False, 'interfaces': None, 'minthreads': None, 'timeout': 10, 'plain': False, 'nobanner': False}>"
p1780
asbasbasbag49
(g65
g51
NtRp1781
(dp1782
g54
(dp1783
sg63
g1691
sg56
(lp1784
g49
(g70
g51
NtRp1785
(dp1786
g54
(dp1787
g74
g75
ssg63
g1781
sg56
(lp1788
g691
asbag49
(g70
g51
NtRp1789
(dp1790
g54
(dp1791
g81
g82
ssg63
g1781
sg56
(lp1792
S':'
asbag49
(g70
g51
NtRp1793
(dp1794
g54
(dp1795
sg63
g1781
sg56
(lp1796
g49
(g50
g51
NtRp1797
(dp1798
g54
(dp1799
g62
I4
ssg63
g1793
sg56
(lp1800
S'set([])'
p1801
asbasbasbag49
(g65
g51
NtRp1802
(dp1803
g54
(dp1804
sg63
g1691
sg56
(lp1805
g49
(g70
g51
NtRp1806
(dp1807
g54
(dp1808
g74
g75
ssg63
g1802
sg56
(lp1809
g713
asbag49
(g70
g51
NtRp1810
(dp1811
g54
(dp1812
g81
g82
ssg63
g1802
sg56
(lp1813
S':'
asbag49
(g70
g51
NtRp1814
(dp1815
g54
(dp1816
sg63
g1802
sg56
(lp1817
g49
(g50
g51
NtRp1818
(dp1819
g54
(dp1820
g62
I4
ssg63
g1814
sg56
(lp1821
g92
asbasbasbag49
(g65
g51
NtRp1822
(dp1823
g54
(dp1824
sg63
g1691
sg56
(lp1825
g49
(g70
g51
NtRp1826
(dp1827
g54
(dp1828
g74
g75
ssg63
g1822
sg56
(lp1829
g734
asbag49
(g70
g51
NtRp1830
(dp1831
g54
(dp1832
g81
g82
ssg63
g1822
sg56
(lp1833
S':'
asbag49
(g70
g51
NtRp1834
(dp1835
g54
(dp1836
sg63
g1822
sg56
(lp1837
g49
(g50
g51
NtRp1838
(dp1839
g54
(dp1840
g62
I4
ssg63
g1834
sg56
(lp1841
g747
asbasbasbag49
(g65
g51
NtRp1842
(dp1843
g54
(dp1844
sg63
g1691
sg56
(lp1845
g49
(g70
g51
NtRp1846
(dp1847
g54
(dp1848
g74
g75
ssg63
g1842
sg56
(lp1849
g954
asbag49
(g70
g51
NtRp1850
(dp1851
g54
(dp1852
g81
g82
ssg63
g1842
sg56
(lp1853
S':'
asbag49
(g70
g51
NtRp1854
(dp1855
g54
(dp1856
sg63
g1842
sg56
(lp1857
g49
(g50
g51
NtRp1858
(dp1859
g54
(dp1860
g62
I4
ssg63
g1854
sg56
(lp1861
g92
asbasbasbag49
(g65
g51
NtRp1862
(dp1863
g54
(dp1864
sg63
g1691
sg56
(lp1865
g49
(g70
g51
NtRp1866
(dp1867
g54
(dp1868
g74
g75
ssg63
g1862
sg56
(lp1869
g975
asbag49
(g70
g51
NtRp1870
(dp1871
g54
(dp1872
g81
g82
ssg63
g1862
sg56
(lp1873
S':'
asbag49
(g70
g51
NtRp1874
(dp1875
g54
(dp1876
sg63
g1862
sg56
(lp1877
g49
(g50
g51
NtRp1878
(dp1879
g54
(dp1880
g62
I4
ssg63
g1874
sg56
(lp1881
g92
asbasbasbag49
(g65
g51
NtRp1882
(dp1883
g54
(dp1884
sg63
g1691
sg56
(lp1885
g49
(g70
g51
NtRp1886
(dp1887
g54
(dp1888
g74
g75
ssg63
g1882
sg56
(lp1889
g1234
asbag49
(g70
g51
NtRp1890
(dp1891
g54
(dp1892
g81
g82
ssg63
g1882
sg56
(lp1893
S':'
asbag49
(g70
g51
NtRp1894
(dp1895
g54
(dp1896
sg63
g1882
sg56
(lp1897
g49
(g50
g51
NtRp1898
(dp1899
g54
(dp1900
g62
I4
ssg63
g1894
sg56
(lp1901
g1247
asbasbasbag49
(g65
g51
NtRp1902
(dp1903
g54
(dp1904
sg63
g1691
sg56
(lp1905
g49
(g70
g51
NtRp1906
(dp1907
g54
(dp1908
g74
g75
ssg63
g1902
sg56
(lp1909
g1298
asbag49
(g70
g51
NtRp1910
(dp1911
g54
(dp1912
g81
g82
ssg63
g1902
sg56
(lp1913
S':'
asbag49
(g70
g51
NtRp1914
(dp1915
g54
(dp1916
sg63
g1902
sg56
(lp1917
g49
(g50
g51
NtRp1918
(dp1919
g54
(dp1920
g62
I4
ssg63
g1914
sg56
(lp1921
g49
(g58
g51
NtRp1922
(dp1923
g54
(dp1924
g62
I3
ssg63
Nsg56
(lp1925
g49
(g65
g51
NtRp1926
(dp1927
g54
(dp1928
sg63
g1922
sg56
(lp1929
g49
(g70
g51
NtRp1930
(dp1931
g54
(dp1932
sg63
g1926
sg56
(lp1933
g49
(g50
g51
NtRp1934
(dp1935
g54
(dp1936
g62
I3
ssg63
g1930
sg56
(lp1937
S'1'
asbasbasbag49
(g65
g51
NtRp1938
(dp1939
g54
(dp1940
sg63
g1922
sg56
(lp1941
g49
(g70
g51
NtRp1942
(dp1943
g54
(dp1944
sg63
g1938
sg56
(lp1945
g49
(g50
g51
NtRp1946
(dp1947
g54
(dp1948
g62
I3
ssg63
g1942
sg56
(lp1949
S'99'
p1950
asbasbasbag49
(g65
g51
NtRp1951
(dp1952
g54
(dp1953
sg63
g1922
sg56
(lp1954
g49
(g70
g51
NtRp1955
(dp1956
g54
(dp1957
sg63
g1951
sg56
(lp1958
g49
(g50
g51
NtRp1959
(dp1960
g54
(dp1961
g62
I3
ssg63
g1955
sg56
(lp1962
S'7'
asbasbasbag49
(g65
g51
NtRp1963
(dp1964
g54
(dp1965
sg63
g1922
sg56
(lp1966
g49
(g70
g51
NtRp1967
(dp1968
g54
(dp1969
sg63
g1963
sg56
(lp1970
g49
(g50
g51
NtRp1971
(dp1972
g54
(dp1973
g62
I3
ssg63
g1967
sg56
(lp1974
S'datetime.datetime(2012, 3, 4, 22, 12, 8)'
p1975
asbasbasbag49
(g65
g51
NtRp1976
(dp1977
g54
(dp1978
sg63
g1922
sg56
(lp1979
g49
(g70
g51
NtRp1980
(dp1981
g54
(dp1982
sg63
g1976
sg56
(lp1983
g49
(g50
g51
NtRp1984
(dp1985
g54
(dp1986
g62
I3
ssg63
g1980
sg56
(lp1987
g1377
asbasbasbasbasbasbasbasbasbasbasbag49
(g65
g51
NtRp1988
(dp1989
g54
(dp1990
sg63
g59
sg56
(lp1991
g49
(g70
g51
NtRp1992
(dp1993
g54
(dp1994
g74
g75
ssg63
g1988
sg56
(lp1995
S'is_https'
p1996
asbag49
(g70
g51
NtRp1997
(dp1998
g54
(dp1999
g81
g82
ssg63
g1988
sg56
(lp2000
S':'
asbag49
(g70
g51
NtRp2001
(dp2002
g54
(dp2003
sg63
g1988
sg56
(lp2004
g49
(g50
g51
NtRp2005
(dp2006
g54
(dp2007
g62
I5
ssg63
g2001
sg56
(lp2008
g92
asbasbasbag49
(g65
g51
NtRp2009
(dp2010
g54
(dp2011
sg63
g59
sg56
(lp2012
g49
(g70
g51
NtRp2013
(dp2014
g54
(dp2015
g74
g75
ssg63
g2009
sg56
(lp2016
S'is_local'
p2017
asbag49
(g70
g51
NtRp2018
(dp2019
g54
(dp2020
g81
g82
ssg63
g2009
sg56
(lp2021
S':'
asbag49
(g70
g51
NtRp2022
(dp2023
g54
(dp2024
sg63
g2009
sg56
(lp2025
g49
(g50
g51
NtRp2026
(dp2027
g54
(dp2028
g62
I5
ssg63
g2022
sg56
(lp2029
g1486
asbasbasbag49
(g65
g51
NtRp2030
(dp2031
g54
(dp2032
sg63
g59
sg56
(lp2033
g49
(g70
g51
NtRp2034
(dp2035
g54
(dp2036
g74
g75
ssg63
g2030
sg56
(lp2037
S'is_restful'
p2038
asbag49
(g70
g51
NtRp2039
(dp2040
g54
(dp2041
g81
g82
ssg63
g2030
sg56
(lp2042
S':'
asbag49
(g70
g51
NtRp2043
(dp2044
g54
(dp2045
sg63
g2030
sg56
(lp2046
g49
(g50
g51
NtRp2047
(dp2048
g54
(dp2049
g62
I5
ssg63
g2043
sg56
(lp2050
g92
asbasbasbag49
(g65
g51
NtRp2051
(dp2052
g54
(dp2053
sg63
g59
sg56
(lp2054
g49
(g70
g51
NtRp2055
(dp2056
g54
(dp2057
g74
g75
ssg63
g2051
sg56
(lp2058
S'now'
p2059
asbag49
(g70
g51
NtRp2060
(dp2061
g54
(dp2062
g81
g82
ssg63
g2051
sg56
(lp2063
S':'
asbag49
(g70
g51
NtRp2064
(dp2065
g54
(dp2066
sg63
g2051
sg56
(lp2067
g49
(g50
g51
NtRp2068
(dp2069
g54
(dp2070
g62
I5
ssg63
g2064
sg56
(lp2071
S'datetime.datetime(2012, 3, 13, 15, 20, 31, 144770)'
p2072
asbasbasbag49
(g65
g51
NtRp2073
(dp2074
g54
(dp2075
sg63
g59
sg56
(lp2076
g49
(g70
g51
NtRp2077
(dp2078
g54
(dp2079
g74
g75
ssg63
g2073
sg56
(lp2080
S'post_vars'
p2081
asbag49
(g70
g51
NtRp2082
(dp2083
g54
(dp2084
g81
g82
ssg63
g2073
sg56
(lp2085
S':'
asbag49
(g70
g51
NtRp2086
(dp2087
g54
(dp2088
sg63
g2073
sg56
(lp2089
g49
(g50
g51
NtRp2090
(dp2091
g54
(dp2092
g62
I5
ssg63
g2086
sg56
(lp2093
g49
(g58
g51
NtRp2094
(dp2095
g54
(dp2096
g62
I4
ssg63
Nsg56
(lp2097
sbasbasbasbag49
(g65
g51
NtRp2098
(dp2099
g54
(dp2100
sg63
g59
sg56
(lp2101
g49
(g70
g51
NtRp2102
(dp2103
g54
(dp2104
g74
g75
ssg63
g2098
sg56
(lp2105
S'url'
p2106
asbag49
(g70
g51
NtRp2107
(dp2108
g54
(dp2109
g81
g82
ssg63
g2098
sg56
(lp2110
S':'
asbag49
(g70
g51
NtRp2111
(dp2112
g54
(dp2113
sg63
g2098
sg56
(lp2114
g49
(g50
g51
NtRp2115
(dp2116
g54
(dp2117
g62
I5
ssg63
g2111
sg56
(lp2118
S'/'
asbasbasbag49
(g65
g51
NtRp2119
(dp2120
g54
(dp2121
sg63
g59
sg56
(lp2122
g49
(g70
g51
NtRp2123
(dp2124
g54
(dp2125
g74
g75
ssg63
g2119
sg56
(lp2126
S'utcnow'
p2127
asbag49
(g70
g51
NtRp2128
(dp2129
g54
(dp2130
g81
g82
ssg63
g2119
sg56
(lp2131
S':'
asbag49
(g70
g51
NtRp2132
(dp2133
g54
(dp2134
sg63
g2119
sg56
(lp2135
g49
(g50
g51
NtRp2136
(dp2137
g54
(dp2138
g62
I5
ssg63
g2132
sg56
(lp2139
S'datetime.datetime(2012, 3, 13, 14, 20, 31, 144782)'
p2140
asbasbasbag49
(g65
g51
NtRp2141
(dp2142
g54
(dp2143
sg63
g59
sg56
(lp2144
g49
(g70
g51
NtRp2145
(dp2146
g54
(dp2147
g74
g75
ssg63
g2141
sg56
(lp2148
S'uuid'
p2149
asbag49
(g70
g51
NtRp2150
(dp2151
g54
(dp2152
g81
g82
ssg63
g2141
sg56
(lp2153
S':'
asbag49
(g70
g51
NtRp2154
(dp2155
g54
(dp2156
sg63
g2141
sg56
(lp2157
g49
(g50
g51
NtRp2158
(dp2159
g54
(dp2160
g62
I5
ssg63
g2154
sg56
(lp2161
S'udi0312/127.0.0.1.2012-03-13.15-20-31.49456260-4fec-4fbf-8511-cf42e5501e39'
p2162
asbasbasbag49
(g65
g51
NtRp2163
(dp2164
g54
(dp2165
sg63
g59
sg56
(lp2166
g49
(g70
g51
NtRp2167
(dp2168
g54
(dp2169
g74
g75
ssg63
g2163
sg56
(lp2170
S'vars'
p2171
asbag49
(g70
g51
NtRp2172
(dp2173
g54
(dp2174
g81
g82
ssg63
g2163
sg56
(lp2175
S':'
asbag49
(g70
g51
NtRp2176
(dp2177
g54
(dp2178
sg63
g2163
sg56
(lp2179
g49
(g50
g51
NtRp2180
(dp2181
g54
(dp2182
g62
I5
ssg63
g2176
sg56
(lp2183
g49
(g58
g51
NtRp2184
(dp2185
g54
(dp2186
g62
I4
ssg63
Nsg56
(lp2187
sbasbasbasbag49
(g65
g51
NtRp2188
(dp2189
g54
(dp2190
sg63
g59
sg56
(lp2191
g49
(g70
g51
NtRp2192
(dp2193
g54
(dp2194
g74
g75
ssg63
g2188
sg56
(lp2195
S'wsgi'
p2196
asbag49
(g70
g51
NtRp2197
(dp2198
g54
(dp2199
g81
g82
ssg63
g2188
sg56
(lp2200
S':'
asbag49
(g70
g51
NtRp2201
(dp2202
g54
(dp2203
sg63
g2188
sg56
(lp2204
g49
(g50
g51
NtRp2205
(dp2206
g54
(dp2207
g62
I5
ssg63
g2201
sg56
(lp2208
g49
(g58
g51
NtRp2209
(dp2210
g54
(dp2211
g62
I4
ssg63
Nsg56
(lp2212
g49
(g65
g51
NtRp2213
(dp2214
g54
(dp2215
sg63
g2209
sg56
(lp2216
g49
(g70
g51
NtRp2217
(dp2218
g54
(dp2219
g74
g75
ssg63
g2213
sg56
(lp2220
S'environ'
p2221
asbag49
(g70
g51
NtRp2222
(dp2223
g54
(dp2224
g81
g82
ssg63
g2213
sg56
(lp2225
S':'
asbag49
(g70
g51
NtRp2226
(dp2227
g54
(dp2228
sg63
g2213
sg56
(lp2229
g49
(g50
g51
NtRp2230
(dp2231
g54
(dp2232
g62
I4
ssg63
g2226
sg56
(lp2233
g49
(g58
g51
NtRp2234
(dp2235
g54
(dp2236
g62
I3
ssg63
Nsg56
(lp2237
g49
(g65
g51
NtRp2238
(dp2239
g54
(dp2240
sg63
g2234
sg56
(lp2241
g49
(g70
g51
NtRp2242
(dp2243
g54
(dp2244
g74
g75
ssg63
g2238
sg56
(lp2245
S'HTTP_ACCEPT'
p2246
asbag49
(g70
g51
NtRp2247
(dp2248
g54
(dp2249
g81
g82
ssg63
g2238
sg56
(lp2250
S':'
asbag49
(g70
g51
NtRp2251
(dp2252
g54
(dp2253
sg63
g2238
sg56
(lp2254
g49
(g50
g51
NtRp2255
(dp2256
g54
(dp2257
g62
I3
ssg63
g2251
sg56
(lp2258
g769
asbasbasbag49
(g65
g51
NtRp2259
(dp2260
g54
(dp2261
sg63
g2234
sg56
(lp2262
g49
(g70
g51
NtRp2263
(dp2264
g54
(dp2265
g74
g75
ssg63
g2259
sg56
(lp2266
S'HTTP_ACCEPT_CHARSET'
p2267
asbag49
(g70
g51
NtRp2268
(dp2269
g54
(dp2270
g81
g82
ssg63
g2259
sg56
(lp2271
S':'
asbag49
(g70
g51
NtRp2272
(dp2273
g54
(dp2274
sg63
g2259
sg56
(lp2275
g49
(g50
g51
NtRp2276
(dp2277
g54
(dp2278
g62
I3
ssg63
g2272
sg56
(lp2279
g791
asbasbasbag49
(g65
g51
NtRp2280
(dp2281
g54
(dp2282
sg63
g2234
sg56
(lp2283
g49
(g70
g51
NtRp2284
(dp2285
g54
(dp2286
g74
g75
ssg63
g2280
sg56
(lp2287
S'HTTP_ACCEPT_ENCODING'
p2288
asbag49
(g70
g51
NtRp2289
(dp2290
g54
(dp2291
g81
g82
ssg63
g2280
sg56
(lp2292
S':'
asbag49
(g70
g51
NtRp2293
(dp2294
g54
(dp2295
sg63
g2280
sg56
(lp2296
g49
(g50
g51
NtRp2297
(dp2298
g54
(dp2299
g62
I3
ssg63
g2293
sg56
(lp2300
g813
asbasbasbag49
(g65
g51
NtRp2301
(dp2302
g54
(dp2303
sg63
g2234
sg56
(lp2304
g49
(g70
g51
NtRp2305
(dp2306
g54
(dp2307
g74
g75
ssg63
g2301
sg56
(lp2308
S'HTTP_ACCEPT_LANGUAGE'
p2309
asbag49
(g70
g51
NtRp2310
(dp2311
g54
(dp2312
g81
g82
ssg63
g2301
sg56
(lp2313
S':'
asbag49
(g70
g51
NtRp2314
(dp2315
g54
(dp2316
sg63
g2301
sg56
(lp2317
g49
(g50
g51
NtRp2318
(dp2319
g54
(dp2320
g62
I3
ssg63
g2314
sg56
(lp2321
g835
asbasbasbag49
(g65
g51
NtRp2322
(dp2323
g54
(dp2324
sg63
g2234
sg56
(lp2325
g49
(g70
g51
NtRp2326
(dp2327
g54
(dp2328
g74
g75
ssg63
g2322
sg56
(lp2329
S'HTTP_CACHE_CONTROL'
p2330
asbag49
(g70
g51
NtRp2331
(dp2332
g54
(dp2333
g81
g82
ssg63
g2322
sg56
(lp2334
S':'
asbag49
(g70
g51
NtRp2335
(dp2336
g54
(dp2337
sg63
g2322
sg56
(lp2338
g49
(g50
g51
NtRp2339
(dp2340
g54
(dp2341
g62
I3
ssg63
g2335
sg56
(lp2342
g857
asbasbasbag49
(g65
g51
NtRp2343
(dp2344
g54
(dp2345
sg63
g2234
sg56
(lp2346
g49
(g70
g51
NtRp2347
(dp2348
g54
(dp2349
g74
g75
ssg63
g2343
sg56
(lp2350
S'HTTP_CONNECTION'
p2351
asbag49
(g70
g51
NtRp2352
(dp2353
g54
(dp2354
g81
g82
ssg63
g2343
sg56
(lp2355
S':'
asbag49
(g70
g51
NtRp2356
(dp2357
g54
(dp2358
sg63
g2343
sg56
(lp2359
g49
(g50
g51
NtRp2360
(dp2361
g54
(dp2362
g62
I3
ssg63
g2356
sg56
(lp2363
g879
asbasbasbag49
(g65
g51
NtRp2364
(dp2365
g54
(dp2366
sg63
g2234
sg56
(lp2367
g49
(g70
g51
NtRp2368
(dp2369
g54
(dp2370
g74
g75
ssg63
g2364
sg56
(lp2371
S'HTTP_COOKIE'
p2372
asbag49
(g70
g51
NtRp2373
(dp2374
g54
(dp2375
g81
g82
ssg63
g2364
sg56
(lp2376
S':'
asbag49
(g70
g51
NtRp2377
(dp2378
g54
(dp2379
sg63
g2364
sg56
(lp2380
g49
(g50
g51
NtRp2381
(dp2382
g54
(dp2383
g62
I3
ssg63
g2377
sg56
(lp2384
g901
asbasbasbag49
(g65
g51
NtRp2385
(dp2386
g54
(dp2387
sg63
g2234
sg56
(lp2388
g49
(g70
g51
NtRp2389
(dp2390
g54
(dp2391
g74
g75
ssg63
g2385
sg56
(lp2392
S'HTTP_HOST'
p2393
asbag49
(g70
g51
NtRp2394
(dp2395
g54
(dp2396
g81
g82
ssg63
g2385
sg56
(lp2397
S':'
asbag49
(g70
g51
NtRp2398
(dp2399
g54
(dp2400
sg63
g2385
sg56
(lp2401
g49
(g50
g51
NtRp2402
(dp2403
g54
(dp2404
g62
I3
ssg63
g2398
sg56
(lp2405
g923
asbasbasbag49
(g65
g51
NtRp2406
(dp2407
g54
(dp2408
sg63
g2234
sg56
(lp2409
g49
(g70
g51
NtRp2410
(dp2411
g54
(dp2412
g74
g75
ssg63
g2406
sg56
(lp2413
S'HTTP_USER_AGENT'
p2414
asbag49
(g70
g51
NtRp2415
(dp2416
g54
(dp2417
g81
g82
ssg63
g2406
sg56
(lp2418
S':'
asbag49
(g70
g51
NtRp2419
(dp2420
g54
(dp2421
sg63
g2406
sg56
(lp2422
g49
(g50
g51
NtRp2423
(dp2424
g54
(dp2425
g62
I3
ssg63
g2419
sg56
(lp2426
g945
asbasbasbag49
(g65
g51
NtRp2427
(dp2428
g54
(dp2429
sg63
g2234
sg56
(lp2430
g49
(g70
g51
NtRp2431
(dp2432
g54
(dp2433
g74
g75
ssg63
g2427
sg56
(lp2434
S'PATH_INFO'
p2435
asbag49
(g70
g51
NtRp2436
(dp2437
g54
(dp2438
g81
g82
ssg63
g2427
sg56
(lp2439
S':'
asbag49
(g70
g51
NtRp2440
(dp2441
g54
(dp2442
sg63
g2427
sg56
(lp2443
g49
(g50
g51
NtRp2444
(dp2445
g54
(dp2446
g62
I3
ssg63
g2440
sg56
(lp2447
S'/'
asbasbasbag49
(g65
g51
NtRp2448
(dp2449
g54
(dp2450
sg63
g2234
sg56
(lp2451
g49
(g70
g51
NtRp2452
(dp2453
g54
(dp2454
g74
g75
ssg63
g2448
sg56
(lp2455
S'QUERY_STRING'
p2456
asbag49
(g70
g51
NtRp2457
(dp2458
g54
(dp2459
g81
g82
ssg63
g2448
sg56
(lp2460
S':'
asbag49
(g70
g51
NtRp2461
(dp2462
g54
(dp2463
sg63
g2448
sg56
(lp2464
g49
(g50
g51
NtRp2465
(dp2466
g54
(dp2467
g62
I3
ssg63
g2461
sg56
(lp2468
S''
asbasbasbag49
(g65
g51
NtRp2469
(dp2470
g54
(dp2471
sg63
g2234
sg56
(lp2472
g49
(g70
g51
NtRp2473
(dp2474
g54
(dp2475
g74
g75
ssg63
g2469
sg56
(lp2476
S'REMOTE_ADDR'
p2477
asbag49
(g70
g51
NtRp2478
(dp2479
g54
(dp2480
g81
g82
ssg63
g2469
sg56
(lp2481
S':'
asbag49
(g70
g51
NtRp2482
(dp2483
g54
(dp2484
sg63
g2469
sg56
(lp2485
g49
(g50
g51
NtRp2486
(dp2487
g54
(dp2488
g62
I3
ssg63
g2482
sg56
(lp2489
g182
asbasbasbag49
(g65
g51
NtRp2490
(dp2491
g54
(dp2492
sg63
g2234
sg56
(lp2493
g49
(g70
g51
NtRp2494
(dp2495
g54
(dp2496
g74
g75
ssg63
g2490
sg56
(lp2497
S'REMOTE_PORT'
p2498
asbag49
(g70
g51
NtRp2499
(dp2500
g54
(dp2501
g81
g82
ssg63
g2490
sg56
(lp2502
S':'
asbag49
(g70
g51
NtRp2503
(dp2504
g54
(dp2505
sg63
g2490
sg56
(lp2506
g49
(g50
g51
NtRp2507
(dp2508
g54
(dp2509
g62
I3
ssg63
g2503
sg56
(lp2510
g1072
asbasbasbag49
(g65
g51
NtRp2511
(dp2512
g54
(dp2513
sg63
g2234
sg56
(lp2514
g49
(g70
g51
NtRp2515
(dp2516
g54
(dp2517
g74
g75
ssg63
g2511
sg56
(lp2518
S'REQUEST_METHOD'
p2519
asbag49
(g70
g51
NtRp2520
(dp2521
g54
(dp2522
g81
g82
ssg63
g2511
sg56
(lp2523
S':'
asbag49
(g70
g51
NtRp2524
(dp2525
g54
(dp2526
sg63
g2511
sg56
(lp2527
g49
(g50
g51
NtRp2528
(dp2529
g54
(dp2530
g62
I3
ssg63
g2524
sg56
(lp2531
g1094
asbasbasbag49
(g65
g51
NtRp2532
(dp2533
g54
(dp2534
sg63
g2234
sg56
(lp2535
g49
(g70
g51
NtRp2536
(dp2537
g54
(dp2538
g74
g75
ssg63
g2532
sg56
(lp2539
S'REQUEST_URI'
p2540
asbag49
(g70
g51
NtRp2541
(dp2542
g54
(dp2543
g81
g82
ssg63
g2532
sg56
(lp2544
S':'
asbag49
(g70
g51
NtRp2545
(dp2546
g54
(dp2547
sg63
g2532
sg56
(lp2548
g49
(g50
g51
NtRp2549
(dp2550
g54
(dp2551
g62
I3
ssg63
g2545
sg56
(lp2552
g1116
asbasbasbag49
(g65
g51
NtRp2553
(dp2554
g54
(dp2555
sg63
g2234
sg56
(lp2556
g49
(g70
g51
NtRp2557
(dp2558
g54
(dp2559
g74
g75
ssg63
g2553
sg56
(lp2560
S'SCRIPT_NAME'
p2561
asbag49
(g70
g51
NtRp2562
(dp2563
g54
(dp2564
g81
g82
ssg63
g2553
sg56
(lp2565
S':'
asbag49
(g70
g51
NtRp2566
(dp2567
g54
(dp2568
sg63
g2553
sg56
(lp2569
g49
(g50
g51
NtRp2570
(dp2571
g54
(dp2572
g62
I3
ssg63
g2566
sg56
(lp2573
S''
asbasbasbag49
(g65
g51
NtRp2574
(dp2575
g54
(dp2576
sg63
g2234
sg56
(lp2577
g49
(g70
g51
NtRp2578
(dp2579
g54
(dp2580
g74
g75
ssg63
g2574
sg56
(lp2581
S'SERVER_NAME'
p2582
asbag49
(g70
g51
NtRp2583
(dp2584
g54
(dp2585
g81
g82
ssg63
g2574
sg56
(lp2586
S':'
asbag49
(g70
g51
NtRp2587
(dp2588
g54
(dp2589
sg63
g2574
sg56
(lp2590
g49
(g50
g51
NtRp2591
(dp2592
g54
(dp2593
g62
I3
ssg63
g2587
sg56
(lp2594
g1159
asbasbasbag49
(g65
g51
NtRp2595
(dp2596
g54
(dp2597
sg63
g2234
sg56
(lp2598
g49
(g70
g51
NtRp2599
(dp2600
g54
(dp2601
g74
g75
ssg63
g2595
sg56
(lp2602
S'SERVER_PORT'
p2603
asbag49
(g70
g51
NtRp2604
(dp2605
g54
(dp2606
g81
g82
ssg63
g2595
sg56
(lp2607
S':'
asbag49
(g70
g51
NtRp2608
(dp2609
g54
(dp2610
sg63
g2595
sg56
(lp2611
g49
(g50
g51
NtRp2612
(dp2613
g54
(dp2614
g62
I3
ssg63
g2608
sg56
(lp2615
g1181
asbasbasbag49
(g65
g51
NtRp2616
(dp2617
g54
(dp2618
sg63
g2234
sg56
(lp2619
g49
(g70
g51
NtRp2620
(dp2621
g54
(dp2622
g74
g75
ssg63
g2616
sg56
(lp2623
S'SERVER_PROTOCOL'
p2624
asbag49
(g70
g51
NtRp2625
(dp2626
g54
(dp2627
g81
g82
ssg63
g2616
sg56
(lp2628
S':'
asbag49
(g70
g51
NtRp2629
(dp2630
g54
(dp2631
sg63
g2616
sg56
(lp2632
g49
(g50
g51
NtRp2633
(dp2634
g54
(dp2635
g62
I3
ssg63
g2629
sg56
(lp2636
g1203
asbasbasbag49
(g65
g51
NtRp2637
(dp2638
g54
(dp2639
sg63
g2234
sg56
(lp2640
g49
(g70
g51
NtRp2641
(dp2642
g54
(dp2643
g74
g75
ssg63
g2637
sg56
(lp2644
S'SERVER_SOFTWARE'
p2645
asbag49
(g70
g51
NtRp2646
(dp2647
g54
(dp2648
g81
g82
ssg63
g2637
sg56
(lp2649
S':'
asbag49
(g70
g51
NtRp2650
(dp2651
g54
(dp2652
sg63
g2637
sg56
(lp2653
g49
(g50
g51
NtRp2654
(dp2655
g54
(dp2656
g62
I3
ssg63
g2650
sg56
(lp2657
g1225
asbasbasbag49
(g65
g51
NtRp2658
(dp2659
g54
(dp2660
sg63
g2234
sg56
(lp2661
g49
(g70
g51
NtRp2662
(dp2663
g54
(dp2664
g74
g75
ssg63
g2658
sg56
(lp2665
S'WEB2PY_ORIGINAL_URI'
p2666
asbag49
(g70
g51
NtRp2667
(dp2668
g54
(dp2669
g81
g82
ssg63
g2658
sg56
(lp2670
S':'
asbag49
(g70
g51
NtRp2671
(dp2672
g54
(dp2673
sg63
g2658
sg56
(lp2674
g49
(g50
g51
NtRp2675
(dp2676
g54
(dp2677
g62
I3
ssg63
g2671
sg56
(lp2678
S'/'
asbasbasbag49
(g65
g51
NtRp2679
(dp2680
g54
(dp2681
sg63
g2234
sg56
(lp2682
g49
(g70
g51
NtRp2683
(dp2684
g54
(dp2685
g74
g75
ssg63
g2679
sg56
(lp2686
S'wsgi.errors'
p2687
asbag49
(g70
g51
NtRp2688
(dp2689
g54
(dp2690
g81
g82
ssg63
g2679
sg56
(lp2691
S':'
asbag49
(g70
g51
NtRp2692
(dp2693
g54
(dp2694
sg63
g2679
sg56
(lp2695
g49
(g50
g51
NtRp2696
(dp2697
g54
(dp2698
g62
I3
ssg63
g2692
sg56
(lp2699
S"<open file '<stderr>', mode 'w' at 0x4220b0>"
p2700
asbasbasbag49
(g65
g51
NtRp2701
(dp2702
g54
(dp2703
sg63
g2234
sg56
(lp2704
g49
(g70
g51
NtRp2705
(dp2706
g54
(dp2707
g74
g75
ssg63
g2701
sg56
(lp2708
S'wsgi.file_wrapper'
p2709
asbag49
(g70
g51
NtRp2710
(dp2711
g54
(dp2712
g81
g82
ssg63
g2701
sg56
(lp2713
S':'
asbag49
(g70
g51
NtRp2714
(dp2715
g54
(dp2716
sg63
g2701
sg56
(lp2717
g49
(g50
g51
NtRp2718
(dp2719
g54
(dp2720
g62
I3
ssg63
g2714
sg56
(lp2721
S'<class wsgiref.util.FileWrapper at 0x22746c0>'
p2722
asbasbasbag49
(g65
g51
NtRp2723
(dp2724
g54
(dp2725
sg63
g2234
sg56
(lp2726
g49
(g70
g51
NtRp2727
(dp2728
g54
(dp2729
g74
g75
ssg63
g2723
sg56
(lp2730
S'wsgi.input'
p2731
asbag49
(g70
g51
NtRp2732
(dp2733
g54
(dp2734
g81
g82
ssg63
g2723
sg56
(lp2735
S':'
asbag49
(g70
g51
NtRp2736
(dp2737
g54
(dp2738
sg63
g2723
sg56
(lp2739
g49
(g50
g51
NtRp2740
(dp2741
g54
(dp2742
g62
I3
ssg63
g2736
sg56
(lp2743
S'<cStringIO.StringO object at 0xa25d440>'
p2744
asbasbasbag49
(g65
g51
NtRp2745
(dp2746
g54
(dp2747
sg63
g2234
sg56
(lp2748
g49
(g70
g51
NtRp2749
(dp2750
g54
(dp2751
g74
g75
ssg63
g2745
sg56
(lp2752
S'wsgi.multiprocess'
p2753
asbag49
(g70
g51
NtRp2754
(dp2755
g54
(dp2756
g81
g82
ssg63
g2745
sg56
(lp2757
S':'
asbag49
(g70
g51
NtRp2758
(dp2759
g54
(dp2760
sg63
g2745
sg56
(lp2761
g49
(g50
g51
NtRp2762
(dp2763
g54
(dp2764
g62
I3
ssg63
g2758
sg56
(lp2765
g92
asbasbasbag49
(g65
g51
NtRp2766
(dp2767
g54
(dp2768
sg63
g2234
sg56
(lp2769
g49
(g70
g51
NtRp2770
(dp2771
g54
(dp2772
g74
g75
ssg63
g2766
sg56
(lp2773
S'wsgi.multithread'
p2774
asbag49
(g70
g51
NtRp2775
(dp2776
g54
(dp2777
g81
g82
ssg63
g2766
sg56
(lp2778
S':'
asbag49
(g70
g51
NtRp2779
(dp2780
g54
(dp2781
sg63
g2766
sg56
(lp2782
g49
(g50
g51
NtRp2783
(dp2784
g54
(dp2785
g62
I3
ssg63
g2779
sg56
(lp2786
g1486
asbasbasbag49
(g65
g51
NtRp2787
(dp2788
g54
(dp2789
sg63
g2234
sg56
(lp2790
g49
(g70
g51
NtRp2791
(dp2792
g54
(dp2793
g74
g75
ssg63
g2787
sg56
(lp2794
S'wsgi.run_once'
p2795
asbag49
(g70
g51
NtRp2796
(dp2797
g54
(dp2798
g81
g82
ssg63
g2787
sg56
(lp2799
S':'
asbag49
(g70
g51
NtRp2800
(dp2801
g54
(dp2802
sg63
g2787
sg56
(lp2803
g49
(g50
g51
NtRp2804
(dp2805
g54
(dp2806
g62
I3
ssg63
g2800
sg56
(lp2807
g92
asbasbasbag49
(g65
g51
NtRp2808
(dp2809
g54
(dp2810
sg63
g2234
sg56
(lp2811
g49
(g70
g51
NtRp2812
(dp2813
g54
(dp2814
g74
g75
ssg63
g2808
sg56
(lp2815
S'wsgi.url_scheme'
p2816
asbag49
(g70
g51
NtRp2817
(dp2818
g54
(dp2819
g81
g82
ssg63
g2808
sg56
(lp2820
S':'
asbag49
(g70
g51
NtRp2821
(dp2822
g54
(dp2823
sg63
g2808
sg56
(lp2824
g49
(g50
g51
NtRp2825
(dp2826
g54
(dp2827
g62
I3
ssg63
g2821
sg56
(lp2828
g1529
asbasbasbag49
(g65
g51
NtRp2829
(dp2830
g54
(dp2831
sg63
g2234
sg56
(lp2832
g49
(g70
g51
NtRp2833
(dp2834
g54
(dp2835
g74
g75
ssg63
g2829
sg56
(lp2836
S'wsgi.version'
p2837
asbag49
(g70
g51
NtRp2838
(dp2839
g54
(dp2840
g81
g82
ssg63
g2829
sg56
(lp2841
S':'
asbag49
(g70
g51
NtRp2842
(dp2843
g54
(dp2844
sg63
g2829
sg56
(lp2845
g49
(g50
g51
NtRp2846
(dp2847
g54
(dp2848
g62
I3
ssg63
g2842
sg56
(lp2849
S'1'
asbasbasbasbasbasbasbasbasbasbasbasbasbsS'frames'
p2850
(lp2851
(dp2852
S'file'
p2853
S'/users/udimilo/Documents/web2py/gluon/restricted.py'
p2854
sS'dump'
p2855
(dp2856
S'environment'
p2857
S"{'A': <class 'gluon.html.A'>, 'Auth': <class 'gluon.tools.Auth'>, 'B': <class 'gluon.html.B'>, 'BEAUTIFY': <class 'gluon.html.BEAUTIFY'>, 'BODY': <class 'gluon.html.BODY'>, 'BR': <class 'gluon.html.BR'>, 'BUTTON': <class 'gluon.html.BUTTON'>, 'CAT': <class 'gluon.html.CAT'>, 'CENTER': <class 'gluon.html.CENTER'>, 'CLEANUP': <class 'gluon.validators.CLEANUP'>, ...}"
p2858
sS'ccode'
p2859
S'<code object <module> at 0x8e26380, file "/Users...cations/udi0312/controllers/default.py", line 11>'
p2860
ssS'lnum'
p2861
I205
sS'lines'
p2862
(dp2863
I200
S'    try:'
p2864
sI201
S'        if type(code) == types.CodeType:'
p2865
sI202
S'            ccode = code'
p2866
sI203
S'        else:'
p2867
sI204
S'            ccode = compile2(code,layer)'
p2868
sI205
S'        exec ccode in environment'
p2869
sI206
S'    except HTTP:'
p2870
sI207
S'        raise'
p2871
sI208
S'    except RestrictedError:'
p2872
sI209
S'        # do not encapsulate (obfuscate) the original RestrictedError'
p2873
ssS'call'
p2874
S"(code='# -*- coding: utf-8 -*-\\n# this file is released ...=crud())\\n\\nresponse._vars=response._caller(index)\\n', environment={'A': <class 'gluon.html.A'>, 'Auth': <class 'gluon.tools.Auth'>, 'B': <class 'gluon.html.B'>, 'BEAUTIFY': <class 'gluon.html.BEAUTIFY'>, 'BODY': <class 'gluon.html.BODY'>, 'BR': <class 'gluon.html.BR'>, 'BUTTON': <class 'gluon.html.BUTTON'>, 'CAT': <class 'gluon.html.CAT'>, 'CENTER': <class 'gluon.html.CENTER'>, 'CLEANUP': <class 'gluon.validators.CLEANUP'>, ...}, layer='/Users/udimilo/Documents/web2py/applications/udi0312/controllers/default.py')"
p2875
sS'func'
p2876
S'restricted'
p2877
sa(dp2878
g2853
S'/Users/udimilo/Documents/web2py/applications/udi0312/controllers/default.py'
p2879
sg2855
(dp2880
S'modules'
p2881
S'undefined'
p2882
sS'readability'
p2883
g2882
ssg2861
I11
sg2862
(dp2884
I6
S'## - index is the default action of any application'
p2885
sI7
S'## - user is required for authentication and authorization'
p2886
sI8
S'## - download is for downloading files uploaded in the db (does streaming)'
p2887
sI9
S'## - call exposes all registered services (none by default)'
p2888
sI10
S'#########################################################################'
p2889
sI11
S'from modules import readability'
p2890
sI12
S''
sI13
S'def index():'
p2891
sI14
S'    articles = db().select(db.article.ALL)'
p2892
sI15
S'    categories = db().select(db.category.ALL, orderby=db.category.name)'
p2893
ssg2874
S'()'
p2894
sg2876
S'<module>'
p2895
sa(dp2896
g2853
S'/users/udimilo/Documents/web2py/gluon/custom_import.py'
p2897
sg2855
(dp2898
S'fromlist'
p2899
S"('readability',)"
p2900
sS'level'
p2901
S'-1'
p2902
ssg2861
I293
sg2862
(dp2903
I288
S'                            .__call__(modules_prefix+"."+name,'
p2904
sI289
S'                                    globals, locals, fromlist, level)'
p2905
sI290
S'                except ImportError:'
p2906
sI291
S'                    pass'
p2907
sI292
S'        return super(_Web2pyImporter, self).__call__(name, globals, locals,'
p2908
sI293
S'                                                    fromlist, level)'
p2909
sI294
S'        #except Exception, e:'
p2910
sI295
S"        #    raise e  # Don't hide something that went wrong"
p2911
sI296
S'        #finally:'
p2912
sI297
S'        self.end()'
p2913
ssg2874
S"(self=<gluon.custom_import._Web2pyImporter object at 0x2222d70>, name='modules', globals={'A': <class 'gluon.html.A'>, 'Auth': <class 'gluon.tools.Auth'>, 'B': <class 'gluon.html.B'>, 'BEAUTIFY': <class 'gluon.html.BEAUTIFY'>, 'BODY': <class 'gluon.html.BODY'>, 'BR': <class 'gluon.html.BR'>, 'BUTTON': <class 'gluon.html.BUTTON'>, 'CAT': <class 'gluon.html.CAT'>, 'CENTER': <class 'gluon.html.CENTER'>, 'CLEANUP': <class 'gluon.validators.CLEANUP'>, ...}, locals={'A': <class 'gluon.html.A'>, 'Auth': <class 'gluon.tools.Auth'>, 'B': <class 'gluon.html.B'>, 'BEAUTIFY': <class 'gluon.html.BEAUTIFY'>, 'BODY': <class 'gluon.html.BODY'>, 'BR': <class 'gluon.html.BR'>, 'BUTTON': <class 'gluon.html.BUTTON'>, 'CAT': <class 'gluon.html.CAT'>, 'CENTER': <class 'gluon.html.CENTER'>, 'CLEANUP': <class 'gluon.validators.CLEANUP'>, ...}, fromlist=('readability',), level=-1)"
p2914
sg2876
S'__call__'
p2915
sa(dp2916
g2853
S'/users/udimilo/Documents/web2py/gluon/custom_import.py'
p2917
sg2855
(dp2918
S'level'
p2919
S'-1'
p2920
ssg2861
I78
sg2862
(dp2921
I73
S'        """'
p2922
sI74
S'        return _STANDARD_PYTHON_IMPORTER(name,'
p2923
sI75
S'                                         globals,'
p2924
sI76
S'                                         locals,'
p2925
sI77
S'                                         fromlist,'
p2926
sI78
S'                                         level)'
p2927
sI79
S''
sI80
S'    def end(self):'
p2928
sI81
S'        """'
p2929
sI82
S'        Needed for clean up.'
p2930
ssg2874
S"(self=<gluon.custom_import._Web2pyImporter object at 0x2222d70>, name='modules', globals={'A': <class 'gluon.html.A'>, 'Auth': <class 'gluon.tools.Auth'>, 'B': <class 'gluon.html.B'>, 'BEAUTIFY': <class 'gluon.html.BEAUTIFY'>, 'BODY': <class 'gluon.html.BODY'>, 'BR': <class 'gluon.html.BR'>, 'BUTTON': <class 'gluon.html.BUTTON'>, 'CAT': <class 'gluon.html.CAT'>, 'CENTER': <class 'gluon.html.CENTER'>, 'CLEANUP': <class 'gluon.validators.CLEANUP'>, ...}, locals={'A': <class 'gluon.html.A'>, 'Auth': <class 'gluon.tools.Auth'>, 'B': <class 'gluon.html.B'>, 'BEAUTIFY': <class 'gluon.html.BEAUTIFY'>, 'BODY': <class 'gluon.html.BODY'>, 'BR': <class 'gluon.html.BR'>, 'BUTTON': <class 'gluon.html.BUTTON'>, 'CAT': <class 'gluon.html.CAT'>, 'CENTER': <class 'gluon.html.CENTER'>, 'CLEANUP': <class 'gluon.validators.CLEANUP'>, ...}, fromlist=('readability',), level=-1)"
p2931
sg2876
g2915
sasS'pyver'
p2932
S'Python 2.5.4: /Library/Frameworks/Python.framework/Versions/2.5/Resources/Python.app/Contents/MacOS/Python'
p2933
sS'session'
p2934
g49
(g50
g51
NtRp2935
(dp2936
g54
(dp2937
sg56
(lp2938
g49
(g58
g51
NtRp2939
(dp2940
g54
(dp2941
g62
I5
ssg63
Nsg56
(lp2942
g49
(g65
g51
NtRp2943
(dp2944
g54
(dp2945
sg63
g2939
sg56
(lp2946
g49
(g70
g51
NtRp2947
(dp2948
g54
(dp2949
g74
g75
ssg63
g2943
sg56
(lp2950
S'auth'
p2951
asbag49
(g70
g51
NtRp2952
(dp2953
g54
(dp2954
g81
g82
ssg63
g2943
sg56
(lp2955
S':'
asbag49
(g70
g51
NtRp2956
(dp2957
g54
(dp2958
sg63
g2943
sg56
(lp2959
g49
(g50
g51
NtRp2960
(dp2961
g54
(dp2962
g62
I5
ssg63
g2956
sg56
(lp2963
g49
(g58
g51
NtRp2964
(dp2965
g54
(dp2966
g62
I4
ssg63
Nsg56
(lp2967
g49
(g65
g51
NtRp2968
(dp2969
g54
(dp2970
sg63
g2964
sg56
(lp2971
g49
(g70
g51
NtRp2972
(dp2973
g54
(dp2974
g74
g75
ssg63
g2968
sg56
(lp2975
S'expiration'
p2976
asbag49
(g70
g51
NtRp2977
(dp2978
g54
(dp2979
g81
g82
ssg63
g2968
sg56
(lp2980
S':'
asbag49
(g70
g51
NtRp2981
(dp2982
g54
(dp2983
sg63
g2968
sg56
(lp2984
g49
(g50
g51
NtRp2985
(dp2986
g54
(dp2987
g62
I4
ssg63
g2981
sg56
(lp2988
S'2592000'
p2989
asbasbasbag49
(g65
g51
NtRp2990
(dp2991
g54
(dp2992
sg63
g2964
sg56
(lp2993
g49
(g70
g51
NtRp2994
(dp2995
g54
(dp2996
g74
g75
ssg63
g2990
sg56
(lp2997
S'hmac_key'
p2998
asbag49
(g70
g51
NtRp2999
(dp3000
g54
(dp3001
g81
g82
ssg63
g2990
sg56
(lp3002
S':'
asbag49
(g70
g51
NtRp3003
(dp3004
g54
(dp3005
sg63
g2990
sg56
(lp3006
g49
(g50
g51
NtRp3007
(dp3008
g54
(dp3009
g62
I4
ssg63
g3003
sg56
(lp3010
S'e95fb5e0-f68d-430e-a660-5148e97bc5df'
p3011
asbasbasbag49
(g65
g51
NtRp3012
(dp3013
g54
(dp3014
sg63
g2964
sg56
(lp3015
g49
(g70
g51
NtRp3016
(dp3017
g54
(dp3018
g74
g75
ssg63
g3012
sg56
(lp3019
S'last_visit'
p3020
asbag49
(g70
g51
NtRp3021
(dp3022
g54
(dp3023
g81
g82
ssg63
g3012
sg56
(lp3024
S':'
asbag49
(g70
g51
NtRp3025
(dp3026
g54
(dp3027
sg63
g3012
sg56
(lp3028
g49
(g50
g51
NtRp3029
(dp3030
g54
(dp3031
g62
I4
ssg63
g3025
sg56
(lp3032
S'datetime.datetime(2012, 3, 8, 21, 10, 48, 287338)'
p3033
asbasbasbag49
(g65
g51
NtRp3034
(dp3035
g54
(dp3036
sg63
g2964
sg56
(lp3037
g49
(g70
g51
NtRp3038
(dp3039
g54
(dp3040
g74
g75
ssg63
g3034
sg56
(lp3041
S'remember'
p3042
asbag49
(g70
g51
NtRp3043
(dp3044
g54
(dp3045
g81
g82
ssg63
g3034
sg56
(lp3046
S':'
asbag49
(g70
g51
NtRp3047
(dp3048
g54
(dp3049
sg63
g3034
sg56
(lp3050
g49
(g50
g51
NtRp3051
(dp3052
g54
(dp3053
g62
I4
ssg63
g3047
sg56
(lp3054
g1486
asbasbasbag49
(g65
g51
NtRp3055
(dp3056
g54
(dp3057
sg63
g2964
sg56
(lp3058
g49
(g70
g51
NtRp3059
(dp3060
g54
(dp3061
g74
g75
ssg63
g3055
sg56
(lp3062
S'user'
p3063
asbag49
(g70
g51
NtRp3064
(dp3065
g54
(dp3066
g81
g82
ssg63
g3055
sg56
(lp3067
S':'
asbag49
(g70
g51
NtRp3068
(dp3069
g54
(dp3070
sg63
g3055
sg56
(lp3071
g49
(g50
g51
NtRp3072
(dp3073
g54
(dp3074
g62
I4
ssg63
g3068
sg56
(lp3075
g49
(g58
g51
NtRp3076
(dp3077
g54
(dp3078
g62
I3
ssg63
Nsg56
(lp3079
g49
(g65
g51
NtRp3080
(dp3081
g54
(dp3082
sg63
g3076
sg56
(lp3083
g49
(g70
g51
NtRp3084
(dp3085
g54
(dp3086
g74
g75
ssg63
g3080
sg56
(lp3087
S'email'
p3088
asbag49
(g70
g51
NtRp3089
(dp3090
g54
(dp3091
g81
g82
ssg63
g3080
sg56
(lp3092
S':'
asbag49
(g70
g51
NtRp3093
(dp3094
g54
(dp3095
sg63
g3080
sg56
(lp3096
g49
(g50
g51
NtRp3097
(dp3098
g54
(dp3099
g62
I3
ssg63
g3093
sg56
(lp3100
S'udimilo@gmail.com'
p3101
asbasbasbag49
(g65
g51
NtRp3102
(dp3103
g54
(dp3104
sg63
g3076
sg56
(lp3105
g49
(g70
g51
NtRp3106
(dp3107
g54
(dp3108
g74
g75
ssg63
g3102
sg56
(lp3109
S'first_name'
p3110
asbag49
(g70
g51
NtRp3111
(dp3112
g54
(dp3113
g81
g82
ssg63
g3102
sg56
(lp3114
S':'
asbag49
(g70
g51
NtRp3115
(dp3116
g54
(dp3117
sg63
g3102
sg56
(lp3118
g49
(g50
g51
NtRp3119
(dp3120
g54
(dp3121
g62
I3
ssg63
g3115
sg56
(lp3122
S'Udi'
p3123
asbasbasbag49
(g65
g51
NtRp3124
(dp3125
g54
(dp3126
sg63
g3076
sg56
(lp3127
g49
(g70
g51
NtRp3128
(dp3129
g54
(dp3130
g74
g75
ssg63
g3124
sg56
(lp3131
S'id'
p3132
asbag49
(g70
g51
NtRp3133
(dp3134
g54
(dp3135
g81
g82
ssg63
g3124
sg56
(lp3136
S':'
asbag49
(g70
g51
NtRp3137
(dp3138
g54
(dp3139
sg63
g3124
sg56
(lp3140
g49
(g50
g51
NtRp3141
(dp3142
g54
(dp3143
g62
I3
ssg63
g3137
sg56
(lp3144
S'1'
asbasbasbag49
(g65
g51
NtRp3145
(dp3146
g54
(dp3147
sg63
g3076
sg56
(lp3148
g49
(g70
g51
NtRp3149
(dp3150
g54
(dp3151
g74
g75
ssg63
g3145
sg56
(lp3152
S'last_name'
p3153
asbag49
(g70
g51
NtRp3154
(dp3155
g54
(dp3156
g81
g82
ssg63
g3145
sg56
(lp3157
S':'
asbag49
(g70
g51
NtRp3158
(dp3159
g54
(dp3160
sg63
g3145
sg56
(lp3161
g49
(g50
g51
NtRp3162
(dp3163
g54
(dp3164
g62
I3
ssg63
g3158
sg56
(lp3165
S'Milo'
p3166
asbasbasbag49
(g65
g51
NtRp3167
(dp3168
g54
(dp3169
sg63
g3076
sg56
(lp3170
g49
(g70
g51
NtRp3171
(dp3172
g54
(dp3173
g74
g75
ssg63
g3167
sg56
(lp3174
S'password'
p3175
asbag49
(g70
g51
NtRp3176
(dp3177
g54
(dp3178
g81
g82
ssg63
g3167
sg56
(lp3179
S':'
asbag49
(g70
g51
NtRp3180
(dp3181
g54
(dp3182
sg63
g3167
sg56
(lp3183
g49
(g50
g51
NtRp3184
(dp3185
g54
(dp3186
g62
I3
ssg63
g3180
sg56
(lp3187
S'7a6e3c6a68ceed66634484a3f64a3468'
p3188
asbasbasbag49
(g65
g51
NtRp3189
(dp3190
g54
(dp3191
sg63
g3076
sg56
(lp3192
g49
(g70
g51
NtRp3193
(dp3194
g54
(dp3195
g74
g75
ssg63
g3189
sg56
(lp3196
S'registration_id'
p3197
asbag49
(g70
g51
NtRp3198
(dp3199
g54
(dp3200
g81
g82
ssg63
g3189
sg56
(lp3201
S':'
asbag49
(g70
g51
NtRp3202
(dp3203
g54
(dp3204
sg63
g3189
sg56
(lp3205
g49
(g50
g51
NtRp3206
(dp3207
g54
(dp3208
g62
I3
ssg63
g3202
sg56
(lp3209
S''
asbasbasbag49
(g65
g51
NtRp3210
(dp3211
g54
(dp3212
sg63
g3076
sg56
(lp3213
g49
(g70
g51
NtRp3214
(dp3215
g54
(dp3216
g74
g75
ssg63
g3210
sg56
(lp3217
S'registration_key'
p3218
asbag49
(g70
g51
NtRp3219
(dp3220
g54
(dp3221
g81
g82
ssg63
g3210
sg56
(lp3222
S':'
asbag49
(g70
g51
NtRp3223
(dp3224
g54
(dp3225
sg63
g3210
sg56
(lp3226
g49
(g50
g51
NtRp3227
(dp3228
g54
(dp3229
g62
I3
ssg63
g3223
sg56
(lp3230
S''
asbasbasbag49
(g65
g51
NtRp3231
(dp3232
g54
(dp3233
sg63
g3076
sg56
(lp3234
g49
(g70
g51
NtRp3235
(dp3236
g54
(dp3237
g74
g75
ssg63
g3231
sg56
(lp3238
S'reset_password_key'
p3239
asbag49
(g70
g51
NtRp3240
(dp3241
g54
(dp3242
g81
g82
ssg63
g3231
sg56
(lp3243
S':'
asbag49
(g70
g51
NtRp3244
(dp3245
g54
(dp3246
sg63
g3231
sg56
(lp3247
g49
(g50
g51
NtRp3248
(dp3249
g54
(dp3250
g62
I3
ssg63
g3244
sg56
(lp3251
S''
asbasbasbasbasbasbasbag49
(g65
g51
NtRp3252
(dp3253
g54
(dp3254
sg63
g2964
sg56
(lp3255
g49
(g70
g51
NtRp3256
(dp3257
g54
(dp3258
g74
g75
ssg63
g3252
sg56
(lp3259
S'user_groups'
p3260
asbag49
(g70
g51
NtRp3261
(dp3262
g54
(dp3263
g81
g82
ssg63
g3252
sg56
(lp3264
S':'
asbag49
(g70
g51
NtRp3265
(dp3266
g54
(dp3267
sg63
g3252
sg56
(lp3268
g49
(g50
g51
NtRp3269
(dp3270
g54
(dp3271
g62
I4
ssg63
g3265
sg56
(lp3272
g49
(g58
g51
NtRp3273
(dp3274
g54
(dp3275
g62
I3
ssg63
Nsg56
(lp3276
g49
(g65
g51
NtRp3277
(dp3278
g54
(dp3279
sg63
g3273
sg56
(lp3280
g49
(g70
g51
NtRp3281
(dp3282
g54
(dp3283
g74
g75
ssg63
g3277
sg56
(lp3284
S'1'
asbag49
(g70
g51
NtRp3285
(dp3286
g54
(dp3287
g81
g82
ssg63
g3277
sg56
(lp3288
S':'
asbag49
(g70
g51
NtRp3289
(dp3290
g54
(dp3291
sg63
g3277
sg56
(lp3292
g49
(g50
g51
NtRp3293
(dp3294
g54
(dp3295
g62
I3
ssg63
g3289
sg56
(lp3296
S'user_1'
p3297
asbasbasbasbasbasbasbasbasbasbasbag49
(g65
g51
NtRp3298
(dp3299
g54
(dp3300
sg63
g2939
sg56
(lp3301
g49
(g70
g51
NtRp3302
(dp3303
g54
(dp3304
g74
g75
ssg63
g3298
sg56
(lp3305
S'last_query'
p3306
asbag49
(g70
g51
NtRp3307
(dp3308
g54
(dp3309
g81
g82
ssg63
g3298
sg56
(lp3310
S':'
asbag49
(g70
g51
NtRp3311
(dp3312
g54
(dp3313
sg63
g3298
sg56
(lp3314
g49
(g50
g51
NtRp3315
(dp3316
g54
(dp3317
g62
I5
ssg63
g3311
sg56
(lp3318
S'db.pin.id>0'
p3319
asbasbasbasbasbsS'etype'
p3320
S"<type 'exceptions.ImportError'>"
p3321
sS'date'
p3322
S'Tue Mar 13 15:20:31 2012'
p3323
sS'response'
p3324
g49
(g50
g51
NtRp3325
(dp3326
g54
(dp3327
sg56
(lp3328
g49
(g58
g51
NtRp3329
(dp3330
g54
(dp3331
g62
I5
ssg63
Nsg56
(lp3332
g49
(g65
g51
NtRp3333
(dp3334
g54
(dp3335
sg63
g3329
sg56
(lp3336
g49
(g70
g51
NtRp3337
(dp3338
g54
(dp3339
g74
g75
ssg63
g3333
sg56
(lp3340
g147
asbag49
(g70
g51
NtRp3341
(dp3342
g54
(dp3343
g81
g82
ssg63
g3333
sg56
(lp3344
S':'
asbag49
(g70
g51
NtRp3345
(dp3346
g54
(dp3347
sg63
g3333
sg56
(lp3348
g49
(g50
g51
NtRp3349
(dp3350
g54
(dp3351
g62
I5
ssg63
g3345
sg56
(lp3352
S'<cStringIO.StringO object at 0xa25d840>'
p3353
asbasbasbag49
(g65
g51
NtRp3354
(dp3355
g54
(dp3356
sg63
g3329
sg56
(lp3357
g49
(g70
g51
NtRp3358
(dp3359
g54
(dp3360
g74
g75
ssg63
g3354
sg56
(lp3361
g213
asbag49
(g70
g51
NtRp3362
(dp3363
g54
(dp3364
g81
g82
ssg63
g3354
sg56
(lp3365
S':'
asbag49
(g70
g51
NtRp3366
(dp3367
g54
(dp3368
sg63
g3354
sg56
(lp3369
g49
(g50
g51
NtRp3370
(dp3371
g54
(dp3372
g62
I5
ssg63
g3366
sg56
(lp3373
g49
(g58
g51
NtRp3374
(dp3375
g54
(dp3376
g62
I4
ssg63
Nsg56
(lp3377
g49
(g65
g51
NtRp3378
(dp3379
g54
(dp3380
sg63
g3374
sg56
(lp3381
g49
(g70
g51
NtRp3382
(dp3383
g54
(dp3384
g74
g75
ssg63
g3378
sg56
(lp3385
S'session_id_udi0312'
p3386
asbag49
(g70
g51
NtRp3387
(dp3388
g54
(dp3389
g81
g82
ssg63
g3378
sg56
(lp3390
S':'
asbag49
(g70
g51
NtRp3391
(dp3392
g54
(dp3393
sg63
g3378
sg56
(lp3394
g49
(g50
g51
NtRp3395
(dp3396
g54
(dp3397
g62
I4
ssg63
g3391
sg56
(lp3398
g49
(g58
g51
NtRp3399
(dp3400
g54
(dp3401
g62
I3
ssg63
Nsg56
(lp3402
g49
(g65
g51
NtRp3403
(dp3404
g54
(dp3405
sg63
g3399
sg56
(lp3406
g49
(g70
g51
NtRp3407
(dp3408
g54
(dp3409
g74
g75
ssg63
g3403
sg56
(lp3410
g263
asbag49
(g70
g51
NtRp3411
(dp3412
g54
(dp3413
g81
g82
ssg63
g3403
sg56
(lp3414
S':'
asbag49
(g70
g51
NtRp3415
(dp3416
g54
(dp3417
sg63
g3403
sg56
(lp3418
g49
(g50
g51
NtRp3419
(dp3420
g54
(dp3421
g62
I3
ssg63
g3415
sg56
(lp3422
S''
asbasbasbag49
(g65
g51
NtRp3423
(dp3424
g54
(dp3425
sg63
g3399
sg56
(lp3426
g49
(g70
g51
NtRp3427
(dp3428
g54
(dp3429
g74
g75
ssg63
g3423
sg56
(lp3430
g284
asbag49
(g70
g51
NtRp3431
(dp3432
g54
(dp3433
g81
g82
ssg63
g3423
sg56
(lp3434
S':'
asbag49
(g70
g51
NtRp3435
(dp3436
g54
(dp3437
sg63
g3423
sg56
(lp3438
g49
(g50
g51
NtRp3439
(dp3440
g54
(dp3441
g62
I3
ssg63
g3435
sg56
(lp3442
S''
asbasbasbag49
(g65
g51
NtRp3443
(dp3444
g54
(dp3445
sg63
g3399
sg56
(lp3446
g49
(g70
g51
NtRp3447
(dp3448
g54
(dp3449
g74
g75
ssg63
g3443
sg56
(lp3450
g305
asbag49
(g70
g51
NtRp3451
(dp3452
g54
(dp3453
g81
g82
ssg63
g3443
sg56
(lp3454
S':'
asbag49
(g70
g51
NtRp3455
(dp3456
g54
(dp3457
sg63
g3443
sg56
(lp3458
g49
(g50
g51
NtRp3459
(dp3460
g54
(dp3461
g62
I3
ssg63
g3455
sg56
(lp3462
S'2592000'
p3463
asbasbasbag49
(g65
g51
NtRp3464
(dp3465
g54
(dp3466
sg63
g3399
sg56
(lp3467
g49
(g70
g51
NtRp3468
(dp3469
g54
(dp3470
g74
g75
ssg63
g3464
sg56
(lp3471
g326
asbag49
(g70
g51
NtRp3472
(dp3473
g54
(dp3474
g81
g82
ssg63
g3464
sg56
(lp3475
S':'
asbag49
(g70
g51
NtRp3476
(dp3477
g54
(dp3478
sg63
g3464
sg56
(lp3479
g49
(g50
g51
NtRp3480
(dp3481
g54
(dp3482
g62
I3
ssg63
g3476
sg56
(lp3483
S''
asbasbasbag49
(g65
g51
NtRp3484
(dp3485
g54
(dp3486
sg63
g3399
sg56
(lp3487
g49
(g70
g51
NtRp3488
(dp3489
g54
(dp3490
g74
g75
ssg63
g3484
sg56
(lp3491
g347
asbag49
(g70
g51
NtRp3492
(dp3493
g54
(dp3494
g81
g82
ssg63
g3484
sg56
(lp3495
S':'
asbag49
(g70
g51
NtRp3496
(dp3497
g54
(dp3498
sg63
g3484
sg56
(lp3499
g49
(g50
g51
NtRp3500
(dp3501
g54
(dp3502
g62
I3
ssg63
g3496
sg56
(lp3503
S'/'
asbasbasbag49
(g65
g51
NtRp3504
(dp3505
g54
(dp3506
sg63
g3399
sg56
(lp3507
g49
(g70
g51
NtRp3508
(dp3509
g54
(dp3510
g74
g75
ssg63
g3504
sg56
(lp3511
g368
asbag49
(g70
g51
NtRp3512
(dp3513
g54
(dp3514
g81
g82
ssg63
g3504
sg56
(lp3515
S':'
asbag49
(g70
g51
NtRp3516
(dp3517
g54
(dp3518
sg63
g3504
sg56
(lp3519
g49
(g50
g51
NtRp3520
(dp3521
g54
(dp3522
g62
I3
ssg63
g3516
sg56
(lp3523
S''
asbasbasbag49
(g65
g51
NtRp3524
(dp3525
g54
(dp3526
sg63
g3399
sg56
(lp3527
g49
(g70
g51
NtRp3528
(dp3529
g54
(dp3530
g74
g75
ssg63
g3524
sg56
(lp3531
g389
asbag49
(g70
g51
NtRp3532
(dp3533
g54
(dp3534
g81
g82
ssg63
g3524
sg56
(lp3535
S':'
asbag49
(g70
g51
NtRp3536
(dp3537
g54
(dp3538
sg63
g3524
sg56
(lp3539
g49
(g50
g51
NtRp3540
(dp3541
g54
(dp3542
g62
I3
ssg63
g3536
sg56
(lp3543
S''
asbasbasbasbasbasbasbasbasbasbasbag49
(g65
g51
NtRp3544
(dp3545
g54
(dp3546
sg63
g3329
sg56
(lp3547
g49
(g70
g51
NtRp3548
(dp3549
g54
(dp3550
g74
g75
ssg63
g3544
sg56
(lp3551
S'delimiters'
p3552
asbag49
(g70
g51
NtRp3553
(dp3554
g54
(dp3555
g81
g82
ssg63
g3544
sg56
(lp3556
S':'
asbag49
(g70
g51
NtRp3557
(dp3558
g54
(dp3559
sg63
g3544
sg56
(lp3560
g49
(g50
g51
NtRp3561
(dp3562
g54
(dp3563
g62
I5
ssg63
g3557
sg56
(lp3564
g49
(g58
g51
NtRp3565
(dp3566
g54
(dp3567
g62
I4
ssg63
Nsg56
(lp3568
g49
(g65
g51
NtRp3569
(dp3570
g54
(dp3571
sg63
g3565
sg56
(lp3572
g49
(g70
g51
NtRp3573
(dp3574
g54
(dp3575
sg63
g3569
sg56
(lp3576
g49
(g50
g51
NtRp3577
(dp3578
g54
(dp3579
g62
I4
ssg63
g3573
sg56
(lp3580
S'{{'
p3581
asbasbasbag49
(g65
g51
NtRp3582
(dp3583
g54
(dp3584
sg63
g3565
sg56
(lp3585
g49
(g70
g51
NtRp3586
(dp3587
g54
(dp3588
sg63
g3582
sg56
(lp3589
g49
(g50
g51
NtRp3590
(dp3591
g54
(dp3592
g62
I4
ssg63
g3586
sg56
(lp3593
S'}}'
p3594
asbasbasbasbasbasbasbag49
(g65
g51
NtRp3595
(dp3596
g54
(dp3597
sg63
g3329
sg56
(lp3598
g49
(g70
g51
NtRp3599
(dp3600
g54
(dp3601
g74
g75
ssg63
g3595
sg56
(lp3602
S'files'
p3603
asbag49
(g70
g51
NtRp3604
(dp3605
g54
(dp3606
g81
g82
ssg63
g3595
sg56
(lp3607
S':'
asbag49
(g70
g51
NtRp3608
(dp3609
g54
(dp3610
sg63
g3595
sg56
(lp3611
g49
(g50
g51
NtRp3612
(dp3613
g54
(dp3614
g62
I5
ssg63
g3608
sg56
(lp3615
g49
(g58
g51
NtRp3616
(dp3617
g54
(dp3618
g62
I4
ssg63
Nsg56
(lp3619
sbasbasbasbag49
(g65
g51
NtRp3620
(dp3621
g54
(dp3622
sg63
g3329
sg56
(lp3623
g49
(g70
g51
NtRp3624
(dp3625
g54
(dp3626
g74
g75
ssg63
g3620
sg56
(lp3627
S'flash'
p3628
asbag49
(g70
g51
NtRp3629
(dp3630
g54
(dp3631
g81
g82
ssg63
g3620
sg56
(lp3632
S':'
asbag49
(g70
g51
NtRp3633
(dp3634
g54
(dp3635
sg63
g3620
sg56
(lp3636
g49
(g50
g51
NtRp3637
(dp3638
g54
(dp3639
g62
I5
ssg63
g3633
sg56
(lp3640
S''
asbasbasbag49
(g65
g51
NtRp3641
(dp3642
g54
(dp3643
sg63
g3329
sg56
(lp3644
g49
(g70
g51
NtRp3645
(dp3646
g54
(dp3647
g74
g75
ssg63
g3641
sg56
(lp3648
S'generic_patterns'
p3649
asbag49
(g70
g51
NtRp3650
(dp3651
g54
(dp3652
g81
g82
ssg63
g3641
sg56
(lp3653
S':'
asbag49
(g70
g51
NtRp3654
(dp3655
g54
(dp3656
sg63
g3641
sg56
(lp3657
g49
(g50
g51
NtRp3658
(dp3659
g54
(dp3660
g62
I5
ssg63
g3654
sg56
(lp3661
g49
(g58
g51
NtRp3662
(dp3663
g54
(dp3664
g62
I4
ssg63
Nsg56
(lp3665
g49
(g65
g51
NtRp3666
(dp3667
g54
(dp3668
sg63
g3662
sg56
(lp3669
g49
(g70
g51
NtRp3670
(dp3671
g54
(dp3672
sg63
g3666
sg56
(lp3673
g49
(g50
g51
NtRp3674
(dp3675
g54
(dp3676
g62
I4
ssg63
g3670
sg56
(lp3677
S'*'
asbasbasbasbasbasbasbag49
(g65
g51
NtRp3678
(dp3679
g54
(dp3680
sg63
g3329
sg56
(lp3681
g49
(g70
g51
NtRp3682
(dp3683
g54
(dp3684
g74
g75
ssg63
g3678
sg56
(lp3685
S'headers'
p3686
asbag49
(g70
g51
NtRp3687
(dp3688
g54
(dp3689
g81
g82
ssg63
g3678
sg56
(lp3690
S':'
asbag49
(g70
g51
NtRp3691
(dp3692
g54
(dp3693
sg63
g3678
sg56
(lp3694
g49
(g50
g51
NtRp3695
(dp3696
g54
(dp3697
g62
I5
ssg63
g3691
sg56
(lp3698
g49
(g58
g51
NtRp3699
(dp3700
g54
(dp3701
g62
I4
ssg63
Nsg56
(lp3702
g49
(g65
g51
NtRp3703
(dp3704
g54
(dp3705
sg63
g3699
sg56
(lp3706
g49
(g70
g51
NtRp3707
(dp3708
g54
(dp3709
g74
g75
ssg63
g3703
sg56
(lp3710
S'Cache-Control'
p3711
asbag49
(g70
g51
NtRp3712
(dp3713
g54
(dp3714
g81
g82
ssg63
g3703
sg56
(lp3715
S':'
asbag49
(g70
g51
NtRp3716
(dp3717
g54
(dp3718
sg63
g3703
sg56
(lp3719
g49
(g50
g51
NtRp3720
(dp3721
g54
(dp3722
g62
I4
ssg63
g3716
sg56
(lp3723
S'no-store, no-cache, must-revalidate, post-check=0, pre-check=0'
p3724
asbasbasbag49
(g65
g51
NtRp3725
(dp3726
g54
(dp3727
sg63
g3699
sg56
(lp3728
g49
(g70
g51
NtRp3729
(dp3730
g54
(dp3731
g74
g75
ssg63
g3725
sg56
(lp3732
S'Content-Type'
p3733
asbag49
(g70
g51
NtRp3734
(dp3735
g54
(dp3736
g81
g82
ssg63
g3725
sg56
(lp3737
S':'
asbag49
(g70
g51
NtRp3738
(dp3739
g54
(dp3740
sg63
g3725
sg56
(lp3741
g49
(g50
g51
NtRp3742
(dp3743
g54
(dp3744
g62
I4
ssg63
g3738
sg56
(lp3745
S'text/html; charset=utf-8'
p3746
asbasbasbag49
(g65
g51
NtRp3747
(dp3748
g54
(dp3749
sg63
g3699
sg56
(lp3750
g49
(g70
g51
NtRp3751
(dp3752
g54
(dp3753
g74
g75
ssg63
g3747
sg56
(lp3754
S'Expires'
p3755
asbag49
(g70
g51
NtRp3756
(dp3757
g54
(dp3758
g81
g82
ssg63
g3747
sg56
(lp3759
S':'
asbag49
(g70
g51
NtRp3760
(dp3761
g54
(dp3762
sg63
g3747
sg56
(lp3763
g49
(g50
g51
NtRp3764
(dp3765
g54
(dp3766
g62
I4
ssg63
g3760
sg56
(lp3767
S'Tue, 13 Mar 2012 14:20:31 GMT'
p3768
asbasbasbag49
(g65
g51
NtRp3769
(dp3770
g54
(dp3771
sg63
g3699
sg56
(lp3772
g49
(g70
g51
NtRp3773
(dp3774
g54
(dp3775
g74
g75
ssg63
g3769
sg56
(lp3776
S'Pragma'
p3777
asbag49
(g70
g51
NtRp3778
(dp3779
g54
(dp3780
g81
g82
ssg63
g3769
sg56
(lp3781
S':'
asbag49
(g70
g51
NtRp3782
(dp3783
g54
(dp3784
sg63
g3769
sg56
(lp3785
g49
(g50
g51
NtRp3786
(dp3787
g54
(dp3788
g62
I4
ssg63
g3782
sg56
(lp3789
S'no-cache'
p3790
asbasbasbag49
(g65
g51
NtRp3791
(dp3792
g54
(dp3793
sg63
g3699
sg56
(lp3794
g49
(g70
g51
NtRp3795
(dp3796
g54
(dp3797
g74
g75
ssg63
g3791
sg56
(lp3798
S'X-Powered-By'
p3799
asbag49
(g70
g51
NtRp3800
(dp3801
g54
(dp3802
g81
g82
ssg63
g3791
sg56
(lp3803
S':'
asbag49
(g70
g51
NtRp3804
(dp3805
g54
(dp3806
sg63
g3791
sg56
(lp3807
g49
(g50
g51
NtRp3808
(dp3809
g54
(dp3810
g62
I4
ssg63
g3804
sg56
(lp3811
S'web2py'
p3812
asbasbasbasbasbasbasbag49
(g65
g51
NtRp3813
(dp3814
g54
(dp3815
sg63
g3329
sg56
(lp3816
g49
(g70
g51
NtRp3817
(dp3818
g54
(dp3819
g74
g75
ssg63
g3813
sg56
(lp3820
S'menu'
p3821
asbag49
(g70
g51
NtRp3822
(dp3823
g54
(dp3824
g81
g82
ssg63
g3813
sg56
(lp3825
S':'
asbag49
(g70
g51
NtRp3826
(dp3827
g54
(dp3828
sg63
g3813
sg56
(lp3829
g49
(g50
g51
NtRp3830
(dp3831
g54
(dp3832
g62
I5
ssg63
g3826
sg56
(lp3833
g49
(g58
g51
NtRp3834
(dp3835
g54
(dp3836
g62
I4
ssg63
Nsg56
(lp3837
g49
(g65
g51
NtRp3838
(dp3839
g54
(dp3840
sg63
g3834
sg56
(lp3841
g49
(g70
g51
NtRp3842
(dp3843
g54
(dp3844
sg63
g3838
sg56
(lp3845
g49
(g50
g51
NtRp3846
(dp3847
g54
(dp3848
g62
I4
ssg63
g3842
sg56
(lp3849
g49
(g58
g51
NtRp3850
(dp3851
g54
(dp3852
g62
I3
ssg63
Nsg56
(lp3853
g49
(g65
g51
NtRp3854
(dp3855
g54
(dp3856
sg63
g3850
sg56
(lp3857
g49
(g70
g51
NtRp3858
(dp3859
g54
(dp3860
sg63
g3854
sg56
(lp3861
g49
(g50
g51
NtRp3862
(dp3863
g54
(dp3864
g62
I3
ssg63
g3858
sg56
(lp3865
cgluon.languages
lazyT_unpickle
p3866
(S's\x04\x00\x00\x00Home'
tRp3867
asbasbasbag49
(g65
g51
NtRp3868
(dp3869
g54
(dp3870
sg63
g3850
sg56
(lp3871
g49
(g70
g51
NtRp3872
(dp3873
g54
(dp3874
sg63
g3868
sg56
(lp3875
g49
(g50
g51
NtRp3876
(dp3877
g54
(dp3878
g62
I3
ssg63
g3872
sg56
(lp3879
g92
asbasbasbag49
(g65
g51
NtRp3880
(dp3881
g54
(dp3882
sg63
g3850
sg56
(lp3883
g49
(g70
g51
NtRp3884
(dp3885
g54
(dp3886
sg63
g3880
sg56
(lp3887
g49
(g50
g51
NtRp3888
(dp3889
g54
(dp3890
g62
I3
ssg63
g3884
sg56
(lp3891
S'/'
asbasbasbag49
(g65
g51
NtRp3892
(dp3893
g54
(dp3894
sg63
g3850
sg56
(lp3895
g49
(g70
g51
NtRp3896
(dp3897
g54
(dp3898
sg63
g3892
sg56
(lp3899
g49
(g50
g51
NtRp3900
(dp3901
g54
(dp3902
g62
I3
ssg63
g3896
sg56
(lp3903
g49
(g58
g51
NtRp3904
(dp3905
g54
(dp3906
g62
I2
ssg63
Nsg56
(lp3907
sbasbasbasbasbasbasbasbag49
(g65
g51
NtRp3908
(dp3909
g54
(dp3910
sg63
g3834
sg56
(lp3911
g49
(g70
g51
NtRp3912
(dp3913
g54
(dp3914
sg63
g3908
sg56
(lp3915
g49
(g50
g51
NtRp3916
(dp3917
g54
(dp3918
g62
I4
ssg63
g3912
sg56
(lp3919
g49
(g58
g51
NtRp3920
(dp3921
g54
(dp3922
g62
I3
ssg63
Nsg56
(lp3923
g49
(g65
g51
NtRp3924
(dp3925
g54
(dp3926
sg63
g3920
sg56
(lp3927
g49
(g70
g51
NtRp3928
(dp3929
g54
(dp3930
sg63
g3924
sg56
(lp3931
g49
(g50
g51
NtRp3932
(dp3933
g54
(dp3934
g62
I3
ssg63
g3928
sg56
(lp3935
g49
(cgluon.html
SPAN
p3936
g51
NtRp3937
(dp3938
g54
(dp3939
g74
S'color:yellow'
p3940
ssg63
Nsg56
(lp3941
g3812
asbasbasbasbag49
(g65
g51
NtRp3942
(dp3943
g54
(dp3944
sg63
g3920
sg56
(lp3945
g49
(g70
g51
NtRp3946
(dp3947
g54
(dp3948
sg63
g3942
sg56
(lp3949
g49
(g50
g51
NtRp3950
(dp3951
g54
(dp3952
g62
I3
ssg63
g3946
sg56
(lp3953
g92
asbasbasbag49
(g65
g51
NtRp3954
(dp3955
g54
(dp3956
sg63
g3920
sg56
(lp3957
g49
(g70
g51
NtRp3958
(dp3959
g54
(dp3960
sg63
g3954
sg56
(lp3961
g49
(g50
g51
NtRp3962
(dp3963
g54
(dp3964
g62
I3
ssg63
g3958
sg56
(lp3965
S'None'
p3966
asbasbasbag49
(g65
g51
NtRp3967
(dp3968
g54
(dp3969
sg63
g3920
sg56
(lp3970
g49
(g70
g51
NtRp3971
(dp3972
g54
(dp3973
sg63
g3967
sg56
(lp3974
g49
(g50
g51
NtRp3975
(dp3976
g54
(dp3977
g62
I3
ssg63
g3971
sg56
(lp3978
g49
(g58
g51
NtRp3979
(dp3980
g54
(dp3981
g62
I2
ssg63
Nsg56
(lp3982
g49
(g65
g51
NtRp3983
(dp3984
g54
(dp3985
sg63
g3979
sg56
(lp3986
g49
(g70
g51
NtRp3987
(dp3988
g54
(dp3989
sg63
g3983
sg56
(lp3990
g49
(g50
g51
NtRp3991
(dp3992
g54
(dp3993
g62
I2
ssg63
g3987
sg56
(lp3994
g49
(g58
g51
NtRp3995
(dp3996
g54
(dp3997
g62
I1
ssg63
Nsg56
(lp3998
g49
(g65
g51
NtRp3999
(dp4000
g54
(dp4001
sg63
g3995
sg56
(lp4002
g49
(g70
g51
NtRp4003
(dp4004
g54
(dp4005
sg63
g3999
sg56
(lp4006
g49
(g50
g51
NtRp4007
(dp4008
g54
(dp4009
g62
I1
ssg63
g4003
sg56
(lp4010
g3866
(S's\x08\x00\x00\x00My Sites'
tRp4011
asbasbasbag49
(g65
g51
NtRp4012
(dp4013
g54
(dp4014
sg63
g3995
sg56
(lp4015
g49
(g70
g51
NtRp4016
(dp4017
g54
(dp4018
sg63
g4012
sg56
(lp4019
g49
(g50
g51
NtRp4020
(dp4021
g54
(dp4022
g62
I1
ssg63
g4016
sg56
(lp4023
I00
asbasbasbag49
(g65
g51
NtRp4024
(dp4025
g54
(dp4026
sg63
g3995
sg56
(lp4027
g49
(g70
g51
NtRp4028
(dp4029
g54
(dp4030
sg63
g4024
sg56
(lp4031
g49
(g50
g51
NtRp4032
(dp4033
g54
(dp4034
g62
I1
ssg63
g4028
sg56
(lp4035
S'/admin/site'
p4036
asbasbasbasbasbasbasbag49
(g65
g51
NtRp4037
(dp4038
g54
(dp4039
sg63
g3979
sg56
(lp4040
g49
(g70
g51
NtRp4041
(dp4042
g54
(dp4043
sg63
g4037
sg56
(lp4044
g49
(g50
g51
NtRp4045
(dp4046
g54
(dp4047
g62
I2
ssg63
g4041
sg56
(lp4048
g49
(g58
g51
NtRp4049
(dp4050
g54
(dp4051
g62
I1
ssg63
Nsg56
(lp4052
g49
(g65
g51
NtRp4053
(dp4054
g54
(dp4055
sg63
g4049
sg56
(lp4056
g49
(g70
g51
NtRp4057
(dp4058
g54
(dp4059
sg63
g4053
sg56
(lp4060
g49
(g50
g51
NtRp4061
(dp4062
g54
(dp4063
g62
I1
ssg63
g4057
sg56
(lp4064
g3866
(S's\x08\x00\x00\x00This App'
tRp4065
asbasbasbag49
(g65
g51
NtRp4066
(dp4067
g54
(dp4068
sg63
g4049
sg56
(lp4069
g49
(g70
g51
NtRp4070
(dp4071
g54
(dp4072
sg63
g4066
sg56
(lp4073
g49
(g50
g51
NtRp4074
(dp4075
g54
(dp4076
g62
I1
ssg63
g4070
sg56
(lp4077
I00
asbasbasbag49
(g65
g51
NtRp4078
(dp4079
g54
(dp4080
sg63
g4049
sg56
(lp4081
g49
(g70
g51
NtRp4082
(dp4083
g54
(dp4084
sg63
g4078
sg56
(lp4085
g49
(g50
g51
NtRp4086
(dp4087
g54
(dp4088
g62
I1
ssg63
g4082
sg56
(lp4089
S'/admin/design/udi0312'
p4090
asbasbasbag49
(g65
g51
NtRp4091
(dp4092
g54
(dp4093
sg63
g4049
sg56
(lp4094
g49
(g70
g51
NtRp4095
(dp4096
g54
(dp4097
sg63
g4091
sg56
(lp4098
g49
(g50
g51
NtRp4099
(dp4100
g54
(dp4101
g62
I1
ssg63
g4095
sg56
(lp4102
(lp4103
(g3866
(S's\n\x00\x00\x00Controller'
tRp4104
I00
S'/admin/edit/udi0312/controllers/default.py'
tp4105
a(g3866
(S's\x04\x00\x00\x00View'
tRp4106
I00
S'/admin/edit/udi0312/views/default/index.html'
tp4107
a(g3866
(S's\x06\x00\x00\x00Layout'
tRp4108
I00
S'/admin/edit/udi0312/views/layout.html'
tp4109
a(g3866
(S's\n\x00\x00\x00Stylesheet'
tRp4110
I00
S'/admin/edit/udi0312/static/css/web2py.css'
tp4111
a(g3866
(S's\x08\x00\x00\x00DB Model'
tRp4112
I00
S'/admin/edit/udi0312/models/db.py'
tp4113
a(g3866
(S's\n\x00\x00\x00Menu Model'
tRp4114
I00
S'/admin/edit/udi0312/models/menu.py'
tp4115
a(g3866
(S's\x08\x00\x00\x00Database'
tRp4116
I00
S'/appadmin'
tp4117
a(g3866
(S's\x06\x00\x00\x00Errors'
tRp4118
I00
S'/admin/errors/udi0312'
tp4119
a(g3866
(S's\x05\x00\x00\x00About'
tRp4120
I00
S'/admin/about/udi0312'
tp4121
aasbasbasbasbasbasbasbag49
(g65
g51
NtRp4122
(dp4123
g54
(dp4124
sg63
g3979
sg56
(lp4125
g49
(g70
g51
NtRp4126
(dp4127
g54
(dp4128
sg63
g4122
sg56
(lp4129
g49
(g50
g51
NtRp4130
(dp4131
g54
(dp4132
g62
I2
ssg63
g4126
sg56
(lp4133
g49
(g58
g51
NtRp4134
(dp4135
g54
(dp4136
g62
I1
ssg63
Nsg56
(lp4137
g49
(g65
g51
NtRp4138
(dp4139
g54
(dp4140
sg63
g4134
sg56
(lp4141
g49
(g70
g51
NtRp4142
(dp4143
g54
(dp4144
sg63
g4138
sg56
(lp4145
g49
(g50
g51
NtRp4146
(dp4147
g54
(dp4148
g62
I1
ssg63
g4142
sg56
(lp4149
S'web2py.com'
p4150
asbasbasbag49
(g65
g51
NtRp4151
(dp4152
g54
(dp4153
sg63
g4134
sg56
(lp4154
g49
(g70
g51
NtRp4155
(dp4156
g54
(dp4157
sg63
g4151
sg56
(lp4158
g49
(g50
g51
NtRp4159
(dp4160
g54
(dp4161
g62
I1
ssg63
g4155
sg56
(lp4162
I00
asbasbasbag49
(g65
g51
NtRp4163
(dp4164
g54
(dp4165
sg63
g4134
sg56
(lp4166
g49
(g70
g51
NtRp4167
(dp4168
g54
(dp4169
sg63
g4163
sg56
(lp4170
g49
(g50
g51
NtRp4171
(dp4172
g54
(dp4173
g62
I1
ssg63
g4167
sg56
(lp4174
S'http://www.web2py.com'
p4175
asbasbasbag49
(g65
g51
NtRp4176
(dp4177
g54
(dp4178
sg63
g4134
sg56
(lp4179
g49
(g70
g51
NtRp4180
(dp4181
g54
(dp4182
sg63
g4176
sg56
(lp4183
g49
(g50
g51
NtRp4184
(dp4185
g54
(dp4186
g62
I1
ssg63
g4180
sg56
(lp4187
(lp4188
(g3866
(S's\x08\x00\x00\x00Download'
tRp4189
I00
S'http://www.web2py.com/examples/default/download'
p4190
tp4191
a(g3866
(S's\x07\x00\x00\x00Support'
tRp4192
I00
S'http://www.web2py.com/examples/default/support'
p4193
tp4194
a(g3866
(S's\x04\x00\x00\x00Demo'
tRp4195
I00
S'http://web2py.com/demo_admin'
p4196
tp4197
a(g3866
(S's\x0e\x00\x00\x00Quick Examples'
tRp4198
I00
S'http://web2py.com/examples/default/examples'
p4199
tp4200
a(g3866
(S's\x03\x00\x00\x00FAQ'
tRp4201
I00
S'http://web2py.com/AlterEgo'
p4202
tp4203
a(g3866
(S's\x06\x00\x00\x00Videos'
tRp4204
I00
S'http://www.web2py.com/examples/default/videos/'
p4205
tp4206
a(g3866
(S's\x11\x00\x00\x00Free Applications'
tRp4207
I00
S'http://web2py.com/appliances'
p4208
tp4209
a(g3866
(S's\x07\x00\x00\x00Plugins'
tRp4210
I00
S'http://web2py.com/plugins'
p4211
tp4212
a(g3866
(S's\x07\x00\x00\x00Layouts'
tRp4213
I00
S'http://web2py.com/layouts'
p4214
tp4215
a(g3866
(S's\x07\x00\x00\x00Recipes'
tRp4216
I00
S'http://web2pyslices.com/'
p4217
tp4218
a(g3866
(S's\x08\x00\x00\x00Semantic'
tRp4219
I00
S'http://web2py.com/semantic'
p4220
tp4221
aasbasbasbasbasbasbasbag49
(g65
g51
NtRp4222
(dp4223
g54
(dp4224
sg63
g3979
sg56
(lp4225
g49
(g70
g51
NtRp4226
(dp4227
g54
(dp4228
sg63
g4222
sg56
(lp4229
g49
(g50
g51
NtRp4230
(dp4231
g54
(dp4232
g62
I2
ssg63
g4226
sg56
(lp4233
g49
(g58
g51
NtRp4234
(dp4235
g54
(dp4236
g62
I1
ssg63
Nsg56
(lp4237
g49
(g65
g51
NtRp4238
(dp4239
g54
(dp4240
sg63
g4234
sg56
(lp4241
g49
(g70
g51
NtRp4242
(dp4243
g54
(dp4244
sg63
g4238
sg56
(lp4245
g49
(g50
g51
NtRp4246
(dp4247
g54
(dp4248
g62
I1
ssg63
g4242
sg56
(lp4249
g3866
(S's\r\x00\x00\x00Documentation'
tRp4250
asbasbasbag49
(g65
g51
NtRp4251
(dp4252
g54
(dp4253
sg63
g4234
sg56
(lp4254
g49
(g70
g51
NtRp4255
(dp4256
g54
(dp4257
sg63
g4251
sg56
(lp4258
g49
(g50
g51
NtRp4259
(dp4260
g54
(dp4261
g62
I1
ssg63
g4255
sg56
(lp4262
I00
asbasbasbag49
(g65
g51
NtRp4263
(dp4264
g54
(dp4265
sg63
g4234
sg56
(lp4266
g49
(g70
g51
NtRp4267
(dp4268
g54
(dp4269
sg63
g4263
sg56
(lp4270
g49
(g50
g51
NtRp4271
(dp4272
g54
(dp4273
g62
I1
ssg63
g4267
sg56
(lp4274
S'http://www.web2py.com/book'
p4275
asbasbasbag49
(g65
g51
NtRp4276
(dp4277
g54
(dp4278
sg63
g4234
sg56
(lp4279
g49
(g70
g51
NtRp4280
(dp4281
g54
(dp4282
sg63
g4276
sg56
(lp4283
g49
(g50
g51
NtRp4284
(dp4285
g54
(dp4286
g62
I1
ssg63
g4280
sg56
(lp4287
(lp4288
(g3866
(S's\x07\x00\x00\x00Preface'
tRp4289
I00
S'http://www.web2py.com/book/default/chapter/00'
p4290
tp4291
a(g3866
(S's\x0c\x00\x00\x00Introduction'
tRp4292
I00
S'http://www.web2py.com/book/default/chapter/01'
p4293
tp4294
a(g3866
(S's\x06\x00\x00\x00Python'
tRp4295
I00
S'http://www.web2py.com/book/default/chapter/02'
p4296
tp4297
a(g3866
(S's\x08\x00\x00\x00Overview'
tRp4298
I00
S'http://www.web2py.com/book/default/chapter/03'
p4299
tp4300
a(g3866
(S's\x08\x00\x00\x00The Core'
tRp4301
I00
S'http://www.web2py.com/book/default/chapter/04'
p4302
tp4303
a(g3866
(S's\t\x00\x00\x00The Views'
tRp4304
I00
S'http://www.web2py.com/book/default/chapter/05'
p4305
tp4306
a(g3866
(S's\x08\x00\x00\x00Database'
tRp4307
I00
S'http://www.web2py.com/book/default/chapter/06'
p4308
tp4309
a(g3866
(S's\x14\x00\x00\x00Forms and Validators'
tRp4310
I00
S'http://www.web2py.com/book/default/chapter/07'
p4311
tp4312
a(g3866
(S's\r\x00\x00\x00Email and SMS'
tRp4313
I00
S'http://www.web2py.com/book/default/chapter/08'
p4314
tp4315
a(g3866
(S's\x0e\x00\x00\x00Access Control'
tRp4316
I00
S'http://www.web2py.com/book/default/chapter/09'
p4317
tp4318
a(g3866
(S's\x08\x00\x00\x00Services'
tRp4319
I00
S'http://www.web2py.com/book/default/chapter/10'
p4320
tp4321
a(g3866
(S's\x0c\x00\x00\x00Ajax Recipes'
tRp4322
I00
S'http://www.web2py.com/book/default/chapter/11'
p4323
tp4324
a(g3866
(S's\x16\x00\x00\x00Components and Plugins'
tRp4325
I00
S'http://www.web2py.com/book/default/chapter/12'
p4326
tp4327
a(g3866
(S's\x12\x00\x00\x00Deployment Recipes'
tRp4328
I00
S'http://www.web2py.com/book/default/chapter/13'
p4329
tp4330
a(g3866
(S's\r\x00\x00\x00Other Recipes'
tRp4331
I00
S'http://www.web2py.com/book/default/chapter/14'
p4332
tp4333
a(g3866
(S's\r\x00\x00\x00Buy this book'
tRp4334
I00
S'http://stores.lulu.com/web2py'
p4335
tp4336
aasbasbasbasbasbasbasbag49
(g65
g51
NtRp4337
(dp4338
g54
(dp4339
sg63
g3979
sg56
(lp4340
g49
(g70
g51
NtRp4341
(dp4342
g54
(dp4343
sg63
g4337
sg56
(lp4344
g49
(g50
g51
NtRp4345
(dp4346
g54
(dp4347
g62
I2
ssg63
g4341
sg56
(lp4348
g49
(g58
g51
NtRp4349
(dp4350
g54
(dp4351
g62
I1
ssg63
Nsg56
(lp4352
g49
(g65
g51
NtRp4353
(dp4354
g54
(dp4355
sg63
g4349
sg56
(lp4356
g49
(g70
g51
NtRp4357
(dp4358
g54
(dp4359
sg63
g4353
sg56
(lp4360
g49
(g50
g51
NtRp4361
(dp4362
g54
(dp4363
g62
I1
ssg63
g4357
sg56
(lp4364
g3866
(S's\t\x00\x00\x00Community'
tRp4365
asbasbasbag49
(g65
g51
NtRp4366
(dp4367
g54
(dp4368
sg63
g4349
sg56
(lp4369
g49
(g70
g51
NtRp4370
(dp4371
g54
(dp4372
sg63
g4366
sg56
(lp4373
g49
(g50
g51
NtRp4374
(dp4375
g54
(dp4376
g62
I1
ssg63
g4370
sg56
(lp4377
I00
asbasbasbag49
(g65
g51
NtRp4378
(dp4379
g54
(dp4380
sg63
g4349
sg56
(lp4381
g49
(g70
g51
NtRp4382
(dp4383
g54
(dp4384
sg63
g4378
sg56
(lp4385
g49
(g50
g51
NtRp4386
(dp4387
g54
(dp4388
g62
I1
ssg63
g4382
sg56
(lp4389
Nasbasbasbag49
(g65
g51
NtRp4390
(dp4391
g54
(dp4392
sg63
g4349
sg56
(lp4393
g49
(g70
g51
NtRp4394
(dp4395
g54
(dp4396
sg63
g4390
sg56
(lp4397
g49
(g50
g51
NtRp4398
(dp4399
g54
(dp4400
g62
I1
ssg63
g4394
sg56
(lp4401
(lp4402
(g3866
(S's\x06\x00\x00\x00Groups'
tRp4403
I00
S'http://www.web2py.com/examples/default/usergroups'
p4404
tp4405
a(g3866
(S's\x07\x00\x00\x00Twitter'
tRp4406
I00
S'http://twitter.com/web2py'
p4407
tp4408
a(g3866
(S's\t\x00\x00\x00Live Chat'
tRp4409
I00
S'http://webchat.freenode.net/?channels=web2py'
p4410
tp4411
aasbasbasbasbasbasbasbag49
(g65
g51
NtRp4412
(dp4413
g54
(dp4414
sg63
g3979
sg56
(lp4415
g49
(g70
g51
NtRp4416
(dp4417
g54
(dp4418
sg63
g4412
sg56
(lp4419
g49
(g50
g51
NtRp4420
(dp4421
g54
(dp4422
g62
I2
ssg63
g4416
sg56
(lp4423
g49
(g58
g51
NtRp4424
(dp4425
g54
(dp4426
g62
I1
ssg63
Nsg56
(lp4427
g49
(g65
g51
NtRp4428
(dp4429
g54
(dp4430
sg63
g4424
sg56
(lp4431
g49
(g70
g51
NtRp4432
(dp4433
g54
(dp4434
sg63
g4428
sg56
(lp4435
g49
(g50
g51
NtRp4436
(dp4437
g54
(dp4438
g62
I1
ssg63
g4432
sg56
(lp4439
g3866
(S's\x07\x00\x00\x00Plugins'
tRp4440
asbasbasbag49
(g65
g51
NtRp4441
(dp4442
g54
(dp4443
sg63
g4424
sg56
(lp4444
g49
(g70
g51
NtRp4445
(dp4446
g54
(dp4447
sg63
g4441
sg56
(lp4448
g49
(g50
g51
NtRp4449
(dp4450
g54
(dp4451
g62
I1
ssg63
g4445
sg56
(lp4452
I00
asbasbasbag49
(g65
g51
NtRp4453
(dp4454
g54
(dp4455
sg63
g4424
sg56
(lp4456
g49
(g70
g51
NtRp4457
(dp4458
g54
(dp4459
sg63
g4453
sg56
(lp4460
g49
(g50
g51
NtRp4461
(dp4462
g54
(dp4463
g62
I1
ssg63
g4457
sg56
(lp4464
Nasbasbasbag49
(g65
g51
NtRp4465
(dp4466
g54
(dp4467
sg63
g4424
sg56
(lp4468
g49
(g70
g51
NtRp4469
(dp4470
g54
(dp4471
sg63
g4465
sg56
(lp4472
g49
(g50
g51
NtRp4473
(dp4474
g54
(dp4475
g62
I1
ssg63
g4469
sg56
(lp4476
(lp4477
(S'plugin_wiki'
p4478
I00
S'http://web2py.com/examples/default/download'
p4479
tp4480
a(g3866
(S's\r\x00\x00\x00Other Plugins'
tRp4481
I00
g4211
tp4482
a(g3866
(S's\x0e\x00\x00\x00Layout Plugins'
tRp4483
I00
g4214
tp4484
aasbasbasbasbasbasbasbasbasbasbasbasbasbasbasbasbasbasbasbag49
(g65
g51
NtRp4485
(dp4486
g54
(dp4487
sg63
g3329
sg56
(lp4488
g49
(g70
g51
NtRp4489
(dp4490
g54
(dp4491
g74
g75
ssg63
g4485
sg56
(lp4492
S'meta'
p4493
asbag49
(g70
g51
NtRp4494
(dp4495
g54
(dp4496
g81
g82
ssg63
g4485
sg56
(lp4497
S':'
asbag49
(g70
g51
NtRp4498
(dp4499
g54
(dp4500
sg63
g4485
sg56
(lp4501
g49
(g50
g51
NtRp4502
(dp4503
g54
(dp4504
g62
I5
ssg63
g4498
sg56
(lp4505
g49
(g58
g51
NtRp4506
(dp4507
g54
(dp4508
g62
I4
ssg63
Nsg56
(lp4509
g49
(g65
g51
NtRp4510
(dp4511
g54
(dp4512
sg63
g4506
sg56
(lp4513
g49
(g70
g51
NtRp4514
(dp4515
g54
(dp4516
g74
g75
ssg63
g4510
sg56
(lp4517
S'author'
p4518
asbag49
(g70
g51
NtRp4519
(dp4520
g54
(dp4521
g81
g82
ssg63
g4510
sg56
(lp4522
S':'
asbag49
(g70
g51
NtRp4523
(dp4524
g54
(dp4525
sg63
g4510
sg56
(lp4526
g49
(g50
g51
NtRp4527
(dp4528
g54
(dp4529
g62
I4
ssg63
g4523
sg56
(lp4530
S'Your Name <you@example.com>'
p4531
asbasbasbag49
(g65
g51
NtRp4532
(dp4533
g54
(dp4534
sg63
g4506
sg56
(lp4535
g49
(g70
g51
NtRp4536
(dp4537
g54
(dp4538
g74
g75
ssg63
g4532
sg56
(lp4539
S'copyright'
p4540
asbag49
(g70
g51
NtRp4541
(dp4542
g54
(dp4543
g81
g82
ssg63
g4532
sg56
(lp4544
S':'
asbag49
(g70
g51
NtRp4545
(dp4546
g54
(dp4547
sg63
g4532
sg56
(lp4548
g49
(g50
g51
NtRp4549
(dp4550
g54
(dp4551
g62
I4
ssg63
g4545
sg56
(lp4552
S'Copyright 2011'
p4553
asbasbasbag49
(g65
g51
NtRp4554
(dp4555
g54
(dp4556
sg63
g4506
sg56
(lp4557
g49
(g70
g51
NtRp4558
(dp4559
g54
(dp4560
g74
g75
ssg63
g4554
sg56
(lp4561
S'description'
p4562
asbag49
(g70
g51
NtRp4563
(dp4564
g54
(dp4565
g81
g82
ssg63
g4554
sg56
(lp4566
S':'
asbag49
(g70
g51
NtRp4567
(dp4568
g54
(dp4569
sg63
g4554
sg56
(lp4570
g49
(g50
g51
NtRp4571
(dp4572
g54
(dp4573
g62
I4
ssg63
g4567
sg56
(lp4574
S'a cool new app'
p4575
asbasbasbag49
(g65
g51
NtRp4576
(dp4577
g54
(dp4578
sg63
g4506
sg56
(lp4579
g49
(g70
g51
NtRp4580
(dp4581
g54
(dp4582
g74
g75
ssg63
g4576
sg56
(lp4583
S'generator'
p4584
asbag49
(g70
g51
NtRp4585
(dp4586
g54
(dp4587
g81
g82
ssg63
g4576
sg56
(lp4588
S':'
asbag49
(g70
g51
NtRp4589
(dp4590
g54
(dp4591
sg63
g4576
sg56
(lp4592
g49
(g50
g51
NtRp4593
(dp4594
g54
(dp4595
g62
I4
ssg63
g4589
sg56
(lp4596
S'Web2py Web Framework'
p4597
asbasbasbag49
(g65
g51
NtRp4598
(dp4599
g54
(dp4600
sg63
g4506
sg56
(lp4601
g49
(g70
g51
NtRp4602
(dp4603
g54
(dp4604
g74
g75
ssg63
g4598
sg56
(lp4605
S'keywords'
p4606
asbag49
(g70
g51
NtRp4607
(dp4608
g54
(dp4609
g81
g82
ssg63
g4598
sg56
(lp4610
S':'
asbag49
(g70
g51
NtRp4611
(dp4612
g54
(dp4613
sg63
g4598
sg56
(lp4614
g49
(g50
g51
NtRp4615
(dp4616
g54
(dp4617
g62
I4
ssg63
g4611
sg56
(lp4618
S'web2py, python, framework'
p4619
asbasbasbasbasbasbasbag49
(g65
g51
NtRp4620
(dp4621
g54
(dp4622
sg63
g3329
sg56
(lp4623
g49
(g70
g51
NtRp4624
(dp4625
g54
(dp4626
g74
g75
ssg63
g4620
sg56
(lp4627
S'postprocessing'
p4628
asbag49
(g70
g51
NtRp4629
(dp4630
g54
(dp4631
g81
g82
ssg63
g4620
sg56
(lp4632
S':'
asbag49
(g70
g51
NtRp4633
(dp4634
g54
(dp4635
sg63
g4620
sg56
(lp4636
g49
(g50
g51
NtRp4637
(dp4638
g54
(dp4639
g62
I5
ssg63
g4633
sg56
(lp4640
g49
(g58
g51
NtRp4641
(dp4642
g54
(dp4643
g62
I4
ssg63
Nsg56
(lp4644
sbasbasbasbag49
(g65
g51
NtRp4645
(dp4646
g54
(dp4647
sg63
g3329
sg56
(lp4648
g49
(g70
g51
NtRp4649
(dp4650
g54
(dp4651
g74
g75
ssg63
g4645
sg56
(lp4652
S'session_file'
p4653
asbag49
(g70
g51
NtRp4654
(dp4655
g54
(dp4656
g81
g82
ssg63
g4645
sg56
(lp4657
S':'
asbag49
(g70
g51
NtRp4658
(dp4659
g54
(dp4660
sg63
g4645
sg56
(lp4661
g49
(g50
g51
NtRp4662
(dp4663
g54
(dp4664
g62
I5
ssg63
g4658
sg56
(lp4665
S"<open file '/Users/udimilo/Documents/web2py/applications/udi0312/sessions/127.0.0.1-fcd6a577-d448-4882-b7bc-f353da84ba3b', mode 'rb+' at 0xa6102a8>"
p4666
asbasbasbag49
(g65
g51
NtRp4667
(dp4668
g54
(dp4669
sg63
g3329
sg56
(lp4670
g49
(g70
g51
NtRp4671
(dp4672
g54
(dp4673
g74
g75
ssg63
g4667
sg56
(lp4674
S'session_filename'
p4675
asbag49
(g70
g51
NtRp4676
(dp4677
g54
(dp4678
g81
g82
ssg63
g4667
sg56
(lp4679
S':'
asbag49
(g70
g51
NtRp4680
(dp4681
g54
(dp4682
sg63
g4667
sg56
(lp4683
g49
(g50
g51
NtRp4684
(dp4685
g54
(dp4686
g62
I5
ssg63
g4680
sg56
(lp4687
S'/Users/udimilo/Documents/web2py/applications/udi0312/sessions/127.0.0.1-fcd6a577-d448-4882-b7bc-f353da84ba3b'
p4688
asbasbasbag49
(g65
g51
NtRp4689
(dp4690
g54
(dp4691
sg63
g3329
sg56
(lp4692
g49
(g70
g51
NtRp4693
(dp4694
g54
(dp4695
g74
g75
ssg63
g4689
sg56
(lp4696
S'session_id'
p4697
asbag49
(g70
g51
NtRp4698
(dp4699
g54
(dp4700
g81
g82
ssg63
g4689
sg56
(lp4701
S':'
asbag49
(g70
g51
NtRp4702
(dp4703
g54
(dp4704
sg63
g4689
sg56
(lp4705
g49
(g50
g51
NtRp4706
(dp4707
g54
(dp4708
g62
I5
ssg63
g4702
sg56
(lp4709
S'127.0.0.1-fcd6a577-d448-4882-b7bc-f353da84ba3b'
p4710
asbasbasbag49
(g65
g51
NtRp4711
(dp4712
g54
(dp4713
sg63
g3329
sg56
(lp4714
g49
(g70
g51
NtRp4715
(dp4716
g54
(dp4717
g74
g75
ssg63
g4711
sg56
(lp4718
S'session_id_name'
p4719
asbag49
(g70
g51
NtRp4720
(dp4721
g54
(dp4722
g81
g82
ssg63
g4711
sg56
(lp4723
S':'
asbag49
(g70
g51
NtRp4724
(dp4725
g54
(dp4726
sg63
g4711
sg56
(lp4727
g49
(g50
g51
NtRp4728
(dp4729
g54
(dp4730
g62
I5
ssg63
g4724
sg56
(lp4731
g3386
asbasbasbag49
(g65
g51
NtRp4732
(dp4733
g54
(dp4734
sg63
g3329
sg56
(lp4735
g49
(g70
g51
NtRp4736
(dp4737
g54
(dp4738
g74
g75
ssg63
g4732
sg56
(lp4739
S'session_locked'
p4740
asbag49
(g70
g51
NtRp4741
(dp4742
g54
(dp4743
g81
g82
ssg63
g4732
sg56
(lp4744
S':'
asbag49
(g70
g51
NtRp4745
(dp4746
g54
(dp4747
sg63
g4732
sg56
(lp4748
g49
(g50
g51
NtRp4749
(dp4750
g54
(dp4751
g62
I5
ssg63
g4745
sg56
(lp4752
g1486
asbasbasbag49
(g65
g51
NtRp4753
(dp4754
g54
(dp4755
sg63
g3329
sg56
(lp4756
g49
(g70
g51
NtRp4757
(dp4758
g54
(dp4759
g74
g75
ssg63
g4753
sg56
(lp4760
S'session_new'
p4761
asbag49
(g70
g51
NtRp4762
(dp4763
g54
(dp4764
g81
g82
ssg63
g4753
sg56
(lp4765
S':'
asbag49
(g70
g51
NtRp4766
(dp4767
g54
(dp4768
sg63
g4753
sg56
(lp4769
g49
(g50
g51
NtRp4770
(dp4771
g54
(dp4772
g62
I5
ssg63
g4766
sg56
(lp4773
g92
asbasbasbag49
(g65
g51
NtRp4774
(dp4775
g54
(dp4776
sg63
g3329
sg56
(lp4777
g49
(g70
g51
NtRp4778
(dp4779
g54
(dp4780
g74
g75
ssg63
g4774
sg56
(lp4781
S'status'
p4782
asbag49
(g70
g51
NtRp4783
(dp4784
g54
(dp4785
g81
g82
ssg63
g4774
sg56
(lp4786
S':'
asbag49
(g70
g51
NtRp4787
(dp4788
g54
(dp4789
sg63
g4774
sg56
(lp4790
g49
(g50
g51
NtRp4791
(dp4792
g54
(dp4793
g62
I5
ssg63
g4787
sg56
(lp4794
S'200'
p4795
asbasbasbag49
(g65
g51
NtRp4796
(dp4797
g54
(dp4798
sg63
g3329
sg56
(lp4799
g49
(g70
g51
NtRp4800
(dp4801
g54
(dp4802
g74
g75
ssg63
g4796
sg56
(lp4803
S'subtitle'
p4804
asbag49
(g70
g51
NtRp4805
(dp4806
g54
(dp4807
g81
g82
ssg63
g4796
sg56
(lp4808
S':'
asbag49
(g70
g51
NtRp4809
(dp4810
g54
(dp4811
sg63
g4796
sg56
(lp4812
g49
(g50
g51
NtRp4813
(dp4814
g54
(dp4815
g62
I5
ssg63
g4809
sg56
(lp4816
g3866
(S's\r\x00\x00\x00customize me!'
tRp4817
asbasbasbag49
(g65
g51
NtRp4818
(dp4819
g54
(dp4820
sg63
g3329
sg56
(lp4821
g49
(g70
g51
NtRp4822
(dp4823
g54
(dp4824
g74
g75
ssg63
g4818
sg56
(lp4825
S'title'
p4826
asbag49
(g70
g51
NtRp4827
(dp4828
g54
(dp4829
g81
g82
ssg63
g4818
sg56
(lp4830
S':'
asbag49
(g70
g51
NtRp4831
(dp4832
g54
(dp4833
sg63
g4818
sg56
(lp4834
g49
(g50
g51
NtRp4835
(dp4836
g54
(dp4837
g62
I5
ssg63
g4831
sg56
(lp4838
S'Udi0312'
p4839
asbasbasbag49
(g65
g51
NtRp4840
(dp4841
g54
(dp4842
sg63
g3329
sg56
(lp4843
g49
(g70
g51
NtRp4844
(dp4845
g54
(dp4846
g74
g75
ssg63
g4840
sg56
(lp4847
g2149
asbag49
(g70
g51
NtRp4848
(dp4849
g54
(dp4850
g81
g82
ssg63
g4840
sg56
(lp4851
S':'
asbag49
(g70
g51
NtRp4852
(dp4853
g54
(dp4854
sg63
g4840
sg56
(lp4855
g49
(g50
g51
NtRp4856
(dp4857
g54
(dp4858
g62
I5
ssg63
g4852
sg56
(lp4859
g2162
asbasbasbag49
(g65
g51
NtRp4860
(dp4861
g54
(dp4862
sg63
g3329
sg56
(lp4863
g49
(g70
g51
NtRp4864
(dp4865
g54
(dp4866
g74
g75
ssg63
g4860
sg56
(lp4867
S'view'
p4868
asbag49
(g70
g51
NtRp4869
(dp4870
g54
(dp4871
g81
g82
ssg63
g4860
sg56
(lp4872
S':'
asbag49
(g70
g51
NtRp4873
(dp4874
g54
(dp4875
sg63
g4860
sg56
(lp4876
g49
(g50
g51
NtRp4877
(dp4878
g54
(dp4879
g62
I5
ssg63
g4873
sg56
(lp4880
S'default/index.html'
p4881
asbasbasbasbasbsS'locals'
p4882
(dp4883
S'fromlist'
p4884
S"('readability',)"
p4885
sS'name'
p4886
S"'modules'"
p4887
sg62
S'-1'
p4888
sS'self'
p4889
S'<gluon.custom_import._Web2pyImporter object at 0x2222d70>'
p4890
sS'globals'
p4891
S"{'A': <class 'gluon.html.A'>, 'Auth': <class 'gluon.tools.Auth'>, 'B': <class 'gluon.html.B'>, 'BEAUTIFY': <class 'gluon.html.BEAUTIFY'>, 'BODY': <class 'gluon.html.BODY'>, 'BR': <class 'gluon.html.BR'>, 'BUTTON': <class 'gluon.html.BUTTON'>, 'CAT': <class 'gluon.html.CAT'>, 'CENTER': <class 'gluon.html.CENTER'>, 'CLEANUP': <class 'gluon.validators.CLEANUP'>, ...}"
p4892
sg4882
S"{'A': <class 'gluon.html.A'>, 'Auth': <class 'gluon.tools.Auth'>, 'B': <class 'gluon.html.B'>, 'BEAUTIFY': <class 'gluon.html.BEAUTIFY'>, 'BODY': <class 'gluon.html.BODY'>, 'BR': <class 'gluon.html.BR'>, 'BUTTON': <class 'gluon.html.BUTTON'>, 'CAT': <class 'gluon.html.CAT'>, 'CENTER': <class 'gluon.html.CENTER'>, 'CLEANUP': <class 'gluon.validators.CLEANUP'>, ...}"
p4893
sssS'traceback'
p4894
S'Traceback (most recent call last):\n  File "/users/udimilo/Documents/web2py/gluon/restricted.py", line 205, in restricted\n    exec ccode in environment\n  File "/Users/udimilo/Documents/web2py/applications/udi0312/controllers/default.py", line 11, in <module>\n    from modules import readability\n  File "/users/udimilo/Documents/web2py/gluon/custom_import.py", line 293, in __call__\n    fromlist, level)\n  File "/users/udimilo/Documents/web2py/gluon/custom_import.py", line 78, in __call__\n    level)\nImportError: No module named modules\n'
p4895
s.