(dp1
S'output'
p2
S"<type 'exceptions.AttributeError'> 'NoneType' object has no attribute 'select'"
p3
sS'layer'
p4
S'/Users/udimilo/Documents/web2py/applications/udi0312/controllers/default.py'
p5
sS'code'
p6
S'# -*- coding: utf-8 -*-\nfrom readability import Readability\nimport feedparser\nimport urlparse\nimport re\n\ndef get_pins(user):\n    boards = db(db.board.user==user.id).select() if user else []\n    pins = []\n    for board in boards:\n        pins.extend(board.pin.select())    \n    return pins\n\ndef index():\n    categories = db().select(db.category.ALL, orderby=db.category.name) if auth.user else []\n    boards = db(db.board.user==auth.user.id).select() if auth.user else []\n\n    if auth.user is None:\n        pins = db().select(db.pin.ALL, orderby=~db.pin.created_on)\n    else:\n        pins = get_pins(auth.user)\n        rels = db(db.user_user.follower == auth.user.id).select()\n        for r in rels:\n            pins.extend(get_pins(r.followee))\n        pins.sort(key=lambda x: x.created_on, reverse=True)\n        \n    return dict(pins=pins, categories=categories, boards=boards, show_pinner=True)\n\ndef all():\n    pins = db().select(db.pin.ALL, orderby=~db.pin.created_on)\n    return dict(pins=pins, show_pinner=True)\n    \ndef add_repin():\n    id = request.vars.id\n    board_name = request.vars.repin_board\n    board = db.board((db.board.user==auth.user.id)&(db.board.name==board_name)).select().first()\n    pin = db.pin(id)\n    return board\n    new_pin = db.pin.insert(article=pin.article.id, board=board.id)\n    return new_pin.id\n\ndef add_board():\n    name = request.vars.boardName\n    if re.match(\'(^[\\w\\s.-]+$)\', name): #sanitize the name\n        category = db(db.category.name==request.vars.category).select().first()\n        board = db.board.insert(user=auth.user.id, category=category.id, name=request.vars.boardName)\n        return board.id\n\n    return \'please use only alpha numeric characters\'\n    \ndef add_article():\n    board = db(db.board.name==request.vars.board).select().first()\n    if board is None:\n        return \'You must choose a board first\'\n        \n    url = request.vars.url\n    article = db(db.article.url == url).select().first()\n    if article is None:\n        r = Readability()\n        json = r.content(url)\n        article = db.article.insert(\n            height=300,\n            url=json[\'url\'],\n            readability_url=json[\'short_url\'],\n            title=json[\'title\'],\n            content=json[\'content\'],\n            domain=json[\'domain\'],\n            author=json[\'author\'],\n            excerpt=json[\'excerpt\'],\n            word_count=json[\'word_count\'],\n            total_pages=json[\'total_pages\'],\n            date_published=json[\'date_published\'],\n            next_page_id=json[\'next_page_id\'],\n            rendered_pages=json[\'rendered_pages\'],            \n        )\n    \n    pin = db((db.pin.board == board.id) & (db.pin.article == article.id)).select().first()\n    if pin is None:\n        pin = db.pin.insert(board=board.id, article=article.id)\n    \n    return pin.id\n    \ndef test():\n    url = request.vars.url\n    feed = feedparser.parse(url)\n    c = 0\n    for item in feed[\'entries\']:\n        url = item.get(\'feedburner_origlink\')\n        if url is None:\n            url = item.get(\'link\')\n        \n        domain = urlparse.urlsplit(url).hostname\n        \n        date = item.get(\'updated\')\n        if date is None:\n            date=item.get(\'published\'),\n            \n        article = db.article.insert(\n            height=300,\n            author=item.get(\'author\'),\n            content=item.content[0].value.strip(),\n            url=url,\n            domain=domain,\n            date_published=date,\n            excerpt=item.get(\'summary\'),\n            title=item.get(\'title\'),\n            )\n    return feed\n                \ndef user():\n    """\n    exposes:\n    http://..../[app]/default/user/login\n    http://..../[app]/default/user/logout\n    http://..../[app]/default/user/register\n    http://..../[app]/default/user/profile\n    http://..../[app]/default/user/retrieve_password\n    http://..../[app]/default/user/change_password\n    use @auth.requires_login()\n        @auth.requires_membership(\'group name\')\n        @auth.requires_permission(\'read\',\'table name\',record_id)\n    to decorate functions that need access control\n    """\n    return dict(form=auth())\n\n\ndef download():\n    """\n    allows downloading of uploaded files\n    http://..../[app]/default/download/[filename]\n    """\n    return response.download(request,db)\n\n\ndef call():\n    """\n    exposes services. for example:\n    http://..../[app]/default/call/jsonrpc\n    decorate with @services.jsonrpc the functions to expose\n    supports xml, json, xmlrpc, jsonrpc, amfrpc, rss, csv\n    """\n    return service()\n\n\n@auth.requires_signature()\ndef data():\n    """\n    http://..../[app]/default/data/tables\n    http://..../[app]/default/data/create/[table]\n    http://..../[app]/default/data/read/[table]/[id]\n    http://..../[app]/default/data/update/[table]/[id]\n    http://..../[app]/default/data/delete/[table]/[id]\n    http://..../[app]/default/data/select/[table]\n    http://..../[app]/default/data/search/[table]\n    but URLs must be signed, i.e. linked with\n      A(\'table\',_href=URL(\'data/tables\',user_signature=True))\n    or with the signed load operator\n      LOAD(\'default\',\'data.load\',args=\'tables\',ajax=True,user_signature=True)\n    """\n    return dict(form=crud())\n\nresponse._vars=response._caller(add_repin)\n'
p7
sS'snapshot'
p8
(dp9
S'exception'
p10
(dp11
S'__hash__'
p12
S"<method-wrapper '__hash__' of exceptions.AttributeError object at 0xa127580>"
p13
sS'__setattr__'
p14
S"<method-wrapper '__setattr__' of exceptions.AttributeError object at 0xa127580>"
p15
sS'__reduce_ex__'
p16
S'<built-in method __reduce_ex__ of exceptions.AttributeError object at 0xa127580>'
p17
sS'__getslice__'
p18
S"<method-wrapper '__getslice__' of exceptions.AttributeError object at 0xa127580>"
p19
sS'__getitem__'
p20
S"<method-wrapper '__getitem__' of exceptions.AttributeError object at 0xa127580>"
p21
sS'__setstate__'
p22
S'<built-in method __setstate__ of exceptions.AttributeError object at 0xa127580>'
p23
sS'__reduce__'
p24
S'<built-in method __reduce__ of exceptions.AttributeError object at 0xa127580>'
p25
sS'__str__'
p26
S"<method-wrapper '__str__' of exceptions.AttributeError object at 0xa127580>"
p27
sS'args'
p28
S'("\'NoneType\' object has no attribute \'select\'",)'
p29
sS'__getattribute__'
p30
S"<method-wrapper '__getattribute__' of exceptions.AttributeError object at 0xa127580>"
p31
sS'__class__'
p32
S"<type 'exceptions.AttributeError'>"
p33
sS'__delattr__'
p34
S"<method-wrapper '__delattr__' of exceptions.AttributeError object at 0xa127580>"
p35
sS'__repr__'
p36
S"<method-wrapper '__repr__' of exceptions.AttributeError object at 0xa127580>"
p37
sS'__dict__'
p38
S'{}'
p39
sS'__doc__'
p40
S"'Attribute not found.'"
p41
sS'__init__'
p42
S"<method-wrapper '__init__' of exceptions.AttributeError object at 0xa127580>"
p43
sS'__new__'
p44
S'<built-in method __new__ of type object at 0x1004a0>'
p45
ssS'evalue'
p46
S"'NoneType' object has no attribute 'select'"
p47
sS'request'
p48
ccopy_reg
_reconstructor
p49
(cgluon.html
BEAUTIFY
p50
c__builtin__
object
p51
NtRp52
(dp53
S'attributes'
p54
(dp55
sS'components'
p56
(lp57
g49
(cgluon.html
TABLE
p58
g51
NtRp59
(dp60
g54
(dp61
S'level'
p62
I5
ssS'parent'
p63
Nsg56
(lp64
g49
(cgluon.html
TR
p65
g51
NtRp66
(dp67
g54
(dp68
sg63
g59
sg56
(lp69
g49
(cgluon.html
TD
p70
g51
NtRp71
(dp72
g54
(dp73
S'_style'
p74
S'font-weight:bold;vertical-align:top'
p75
ssg63
g66
sg56
(lp76
S'ajax'
p77
asbag49
(g70
g51
NtRp78
(dp79
g54
(dp80
S'_valign'
p81
S'top'
p82
ssg63
g66
sg56
(lp83
S':'
asbag49
(g70
g51
NtRp84
(dp85
g54
(dp86
sg63
g66
sg56
(lp87
g49
(g50
g51
NtRp88
(dp89
g54
(dp90
g62
I5
ssg63
g84
sg56
(lp91
S'False'
p92
asbasbasbag49
(g65
g51
NtRp93
(dp94
g54
(dp95
sg63
g59
sg56
(lp96
g49
(g70
g51
NtRp97
(dp98
g54
(dp99
g74
g75
ssg63
g93
sg56
(lp100
S'application'
p101
asbag49
(g70
g51
NtRp102
(dp103
g54
(dp104
g81
g82
ssg63
g93
sg56
(lp105
S':'
asbag49
(g70
g51
NtRp106
(dp107
g54
(dp108
sg63
g93
sg56
(lp109
g49
(g50
g51
NtRp110
(dp111
g54
(dp112
g62
I5
ssg63
g106
sg56
(lp113
S'udi0312'
p114
asbasbasbag49
(g65
g51
NtRp115
(dp116
g54
(dp117
sg63
g59
sg56
(lp118
g49
(g70
g51
NtRp119
(dp120
g54
(dp121
g74
g75
ssg63
g115
sg56
(lp122
g28
asbag49
(g70
g51
NtRp123
(dp124
g54
(dp125
g81
g82
ssg63
g115
sg56
(lp126
S':'
asbag49
(g70
g51
NtRp127
(dp128
g54
(dp129
sg63
g115
sg56
(lp130
g49
(g50
g51
NtRp131
(dp132
g54
(dp133
g62
I5
ssg63
g127
sg56
(lp134
g49
(g58
g51
NtRp135
(dp136
g54
(dp137
g62
I4
ssg63
Nsg56
(lp138
sbasbasbasbag49
(g65
g51
NtRp139
(dp140
g54
(dp141
sg63
g59
sg56
(lp142
g49
(g70
g51
NtRp143
(dp144
g54
(dp145
g74
g75
ssg63
g139
sg56
(lp146
S'body'
p147
asbag49
(g70
g51
NtRp148
(dp149
g54
(dp150
g81
g82
ssg63
g139
sg56
(lp151
S':'
asbag49
(g70
g51
NtRp152
(dp153
g54
(dp154
sg63
g139
sg56
(lp155
g49
(g50
g51
NtRp156
(dp157
g54
(dp158
g62
I5
ssg63
g152
sg56
(lp159
S'<cStringIO.StringO object at 0x8ebc9e0>'
p160
asbasbasbag49
(g65
g51
NtRp161
(dp162
g54
(dp163
sg63
g59
sg56
(lp164
g49
(g70
g51
NtRp165
(dp166
g54
(dp167
g74
g75
ssg63
g161
sg56
(lp168
S'client'
p169
asbag49
(g70
g51
NtRp170
(dp171
g54
(dp172
g81
g82
ssg63
g161
sg56
(lp173
S':'
asbag49
(g70
g51
NtRp174
(dp175
g54
(dp176
sg63
g161
sg56
(lp177
g49
(g50
g51
NtRp178
(dp179
g54
(dp180
g62
I5
ssg63
g174
sg56
(lp181
S'127.0.0.1'
p182
asbasbasbag49
(g65
g51
NtRp183
(dp184
g54
(dp185
sg63
g59
sg56
(lp186
g49
(g70
g51
NtRp187
(dp188
g54
(dp189
g74
g75
ssg63
g183
sg56
(lp190
S'controller'
p191
asbag49
(g70
g51
NtRp192
(dp193
g54
(dp194
g81
g82
ssg63
g183
sg56
(lp195
S':'
asbag49
(g70
g51
NtRp196
(dp197
g54
(dp198
sg63
g183
sg56
(lp199
g49
(g50
g51
NtRp200
(dp201
g54
(dp202
g62
I5
ssg63
g196
sg56
(lp203
S'default'
p204
asbasbasbag49
(g65
g51
NtRp205
(dp206
g54
(dp207
sg63
g59
sg56
(lp208
g49
(g70
g51
NtRp209
(dp210
g54
(dp211
g74
g75
ssg63
g205
sg56
(lp212
S'cookies'
p213
asbag49
(g70
g51
NtRp214
(dp215
g54
(dp216
g81
g82
ssg63
g205
sg56
(lp217
S':'
asbag49
(g70
g51
NtRp218
(dp219
g54
(dp220
sg63
g205
sg56
(lp221
g49
(g50
g51
NtRp222
(dp223
g54
(dp224
g62
I5
ssg63
g218
sg56
(lp225
g49
(g58
g51
NtRp226
(dp227
g54
(dp228
g62
I4
ssg63
Nsg56
(lp229
g49
(g65
g51
NtRp230
(dp231
g54
(dp232
sg63
g226
sg56
(lp233
g49
(g70
g51
NtRp234
(dp235
g54
(dp236
g74
g75
ssg63
g230
sg56
(lp237
S'session_id_admin'
p238
asbag49
(g70
g51
NtRp239
(dp240
g54
(dp241
g81
g82
ssg63
g230
sg56
(lp242
S':'
asbag49
(g70
g51
NtRp243
(dp244
g54
(dp245
sg63
g230
sg56
(lp246
g49
(g50
g51
NtRp247
(dp248
g54
(dp249
g62
I4
ssg63
g243
sg56
(lp250
g49
(g58
g51
NtRp251
(dp252
g54
(dp253
g62
I3
ssg63
Nsg56
(lp254
g49
(g65
g51
NtRp255
(dp256
g54
(dp257
sg63
g251
sg56
(lp258
g49
(g70
g51
NtRp259
(dp260
g54
(dp261
g74
g75
ssg63
g255
sg56
(lp262
S'comment'
p263
asbag49
(g70
g51
NtRp264
(dp265
g54
(dp266
g81
g82
ssg63
g255
sg56
(lp267
S':'
asbag49
(g70
g51
NtRp268
(dp269
g54
(dp270
sg63
g255
sg56
(lp271
g49
(g50
g51
NtRp272
(dp273
g54
(dp274
g62
I3
ssg63
g268
sg56
(lp275
S''
asbasbasbag49
(g65
g51
NtRp276
(dp277
g54
(dp278
sg63
g251
sg56
(lp279
g49
(g70
g51
NtRp280
(dp281
g54
(dp282
g74
g75
ssg63
g276
sg56
(lp283
S'domain'
p284
asbag49
(g70
g51
NtRp285
(dp286
g54
(dp287
g81
g82
ssg63
g276
sg56
(lp288
S':'
asbag49
(g70
g51
NtRp289
(dp290
g54
(dp291
sg63
g276
sg56
(lp292
g49
(g50
g51
NtRp293
(dp294
g54
(dp295
g62
I3
ssg63
g289
sg56
(lp296
S''
asbasbasbag49
(g65
g51
NtRp297
(dp298
g54
(dp299
sg63
g251
sg56
(lp300
g49
(g70
g51
NtRp301
(dp302
g54
(dp303
g74
g75
ssg63
g297
sg56
(lp304
S'expires'
p305
asbag49
(g70
g51
NtRp306
(dp307
g54
(dp308
g81
g82
ssg63
g297
sg56
(lp309
S':'
asbag49
(g70
g51
NtRp310
(dp311
g54
(dp312
sg63
g297
sg56
(lp313
g49
(g50
g51
NtRp314
(dp315
g54
(dp316
g62
I3
ssg63
g310
sg56
(lp317
S''
asbasbasbag49
(g65
g51
NtRp318
(dp319
g54
(dp320
sg63
g251
sg56
(lp321
g49
(g70
g51
NtRp322
(dp323
g54
(dp324
g74
g75
ssg63
g318
sg56
(lp325
S'max-age'
p326
asbag49
(g70
g51
NtRp327
(dp328
g54
(dp329
g81
g82
ssg63
g318
sg56
(lp330
S':'
asbag49
(g70
g51
NtRp331
(dp332
g54
(dp333
sg63
g318
sg56
(lp334
g49
(g50
g51
NtRp335
(dp336
g54
(dp337
g62
I3
ssg63
g331
sg56
(lp338
S''
asbasbasbag49
(g65
g51
NtRp339
(dp340
g54
(dp341
sg63
g251
sg56
(lp342
g49
(g70
g51
NtRp343
(dp344
g54
(dp345
g74
g75
ssg63
g339
sg56
(lp346
S'path'
p347
asbag49
(g70
g51
NtRp348
(dp349
g54
(dp350
g81
g82
ssg63
g339
sg56
(lp351
S':'
asbag49
(g70
g51
NtRp352
(dp353
g54
(dp354
sg63
g339
sg56
(lp355
g49
(g50
g51
NtRp356
(dp357
g54
(dp358
g62
I3
ssg63
g352
sg56
(lp359
S''
asbasbasbag49
(g65
g51
NtRp360
(dp361
g54
(dp362
sg63
g251
sg56
(lp363
g49
(g70
g51
NtRp364
(dp365
g54
(dp366
g74
g75
ssg63
g360
sg56
(lp367
S'secure'
p368
asbag49
(g70
g51
NtRp369
(dp370
g54
(dp371
g81
g82
ssg63
g360
sg56
(lp372
S':'
asbag49
(g70
g51
NtRp373
(dp374
g54
(dp375
sg63
g360
sg56
(lp376
g49
(g50
g51
NtRp377
(dp378
g54
(dp379
g62
I3
ssg63
g373
sg56
(lp380
S''
asbasbasbag49
(g65
g51
NtRp381
(dp382
g54
(dp383
sg63
g251
sg56
(lp384
g49
(g70
g51
NtRp385
(dp386
g54
(dp387
g74
g75
ssg63
g381
sg56
(lp388
S'version'
p389
asbag49
(g70
g51
NtRp390
(dp391
g54
(dp392
g81
g82
ssg63
g381
sg56
(lp393
S':'
asbag49
(g70
g51
NtRp394
(dp395
g54
(dp396
sg63
g381
sg56
(lp397
g49
(g50
g51
NtRp398
(dp399
g54
(dp400
g62
I3
ssg63
g394
sg56
(lp401
S''
asbasbasbasbasbasbasbag49
(g65
g51
NtRp402
(dp403
g54
(dp404
sg63
g226
sg56
(lp405
g49
(g70
g51
NtRp406
(dp407
g54
(dp408
g74
g75
ssg63
g402
sg56
(lp409
S'session_id_udi0312'
p410
asbag49
(g70
g51
NtRp411
(dp412
g54
(dp413
g81
g82
ssg63
g402
sg56
(lp414
S':'
asbag49
(g70
g51
NtRp415
(dp416
g54
(dp417
sg63
g402
sg56
(lp418
g49
(g50
g51
NtRp419
(dp420
g54
(dp421
g62
I4
ssg63
g415
sg56
(lp422
g49
(g58
g51
NtRp423
(dp424
g54
(dp425
g62
I3
ssg63
Nsg56
(lp426
g49
(g65
g51
NtRp427
(dp428
g54
(dp429
sg63
g423
sg56
(lp430
g49
(g70
g51
NtRp431
(dp432
g54
(dp433
g74
g75
ssg63
g427
sg56
(lp434
g263
asbag49
(g70
g51
NtRp435
(dp436
g54
(dp437
g81
g82
ssg63
g427
sg56
(lp438
S':'
asbag49
(g70
g51
NtRp439
(dp440
g54
(dp441
sg63
g427
sg56
(lp442
g49
(g50
g51
NtRp443
(dp444
g54
(dp445
g62
I3
ssg63
g439
sg56
(lp446
S''
asbasbasbag49
(g65
g51
NtRp447
(dp448
g54
(dp449
sg63
g423
sg56
(lp450
g49
(g70
g51
NtRp451
(dp452
g54
(dp453
g74
g75
ssg63
g447
sg56
(lp454
g284
asbag49
(g70
g51
NtRp455
(dp456
g54
(dp457
g81
g82
ssg63
g447
sg56
(lp458
S':'
asbag49
(g70
g51
NtRp459
(dp460
g54
(dp461
sg63
g447
sg56
(lp462
g49
(g50
g51
NtRp463
(dp464
g54
(dp465
g62
I3
ssg63
g459
sg56
(lp466
S''
asbasbasbag49
(g65
g51
NtRp467
(dp468
g54
(dp469
sg63
g423
sg56
(lp470
g49
(g70
g51
NtRp471
(dp472
g54
(dp473
g74
g75
ssg63
g467
sg56
(lp474
g305
asbag49
(g70
g51
NtRp475
(dp476
g54
(dp477
g81
g82
ssg63
g467
sg56
(lp478
S':'
asbag49
(g70
g51
NtRp479
(dp480
g54
(dp481
sg63
g467
sg56
(lp482
g49
(g50
g51
NtRp483
(dp484
g54
(dp485
g62
I3
ssg63
g479
sg56
(lp486
S''
asbasbasbag49
(g65
g51
NtRp487
(dp488
g54
(dp489
sg63
g423
sg56
(lp490
g49
(g70
g51
NtRp491
(dp492
g54
(dp493
g74
g75
ssg63
g487
sg56
(lp494
g326
asbag49
(g70
g51
NtRp495
(dp496
g54
(dp497
g81
g82
ssg63
g487
sg56
(lp498
S':'
asbag49
(g70
g51
NtRp499
(dp500
g54
(dp501
sg63
g487
sg56
(lp502
g49
(g50
g51
NtRp503
(dp504
g54
(dp505
g62
I3
ssg63
g499
sg56
(lp506
S''
asbasbasbag49
(g65
g51
NtRp507
(dp508
g54
(dp509
sg63
g423
sg56
(lp510
g49
(g70
g51
NtRp511
(dp512
g54
(dp513
g74
g75
ssg63
g507
sg56
(lp514
g347
asbag49
(g70
g51
NtRp515
(dp516
g54
(dp517
g81
g82
ssg63
g507
sg56
(lp518
S':'
asbag49
(g70
g51
NtRp519
(dp520
g54
(dp521
sg63
g507
sg56
(lp522
g49
(g50
g51
NtRp523
(dp524
g54
(dp525
g62
I3
ssg63
g519
sg56
(lp526
S''
asbasbasbag49
(g65
g51
NtRp527
(dp528
g54
(dp529
sg63
g423
sg56
(lp530
g49
(g70
g51
NtRp531
(dp532
g54
(dp533
g74
g75
ssg63
g527
sg56
(lp534
g368
asbag49
(g70
g51
NtRp535
(dp536
g54
(dp537
g81
g82
ssg63
g527
sg56
(lp538
S':'
asbag49
(g70
g51
NtRp539
(dp540
g54
(dp541
sg63
g527
sg56
(lp542
g49
(g50
g51
NtRp543
(dp544
g54
(dp545
g62
I3
ssg63
g539
sg56
(lp546
S''
asbasbasbag49
(g65
g51
NtRp547
(dp548
g54
(dp549
sg63
g423
sg56
(lp550
g49
(g70
g51
NtRp551
(dp552
g54
(dp553
g74
g75
ssg63
g547
sg56
(lp554
g389
asbag49
(g70
g51
NtRp555
(dp556
g54
(dp557
g81
g82
ssg63
g547
sg56
(lp558
S':'
asbag49
(g70
g51
NtRp559
(dp560
g54
(dp561
sg63
g547
sg56
(lp562
g49
(g50
g51
NtRp563
(dp564
g54
(dp565
g62
I3
ssg63
g559
sg56
(lp566
S''
asbasbasbasbasbasbasbasbasbasbasbag49
(g65
g51
NtRp567
(dp568
g54
(dp569
sg63
g59
sg56
(lp570
g49
(g70
g51
NtRp571
(dp572
g54
(dp573
g74
g75
ssg63
g567
sg56
(lp574
S'env'
p575
asbag49
(g70
g51
NtRp576
(dp577
g54
(dp578
g81
g82
ssg63
g567
sg56
(lp579
S':'
asbag49
(g70
g51
NtRp580
(dp581
g54
(dp582
sg63
g567
sg56
(lp583
g49
(g50
g51
NtRp584
(dp585
g54
(dp586
g62
I5
ssg63
g580
sg56
(lp587
g49
(g58
g51
NtRp588
(dp589
g54
(dp590
g62
I4
ssg63
Nsg56
(lp591
g49
(g65
g51
NtRp592
(dp593
g54
(dp594
sg63
g588
sg56
(lp595
g49
(g70
g51
NtRp596
(dp597
g54
(dp598
g74
g75
ssg63
g592
sg56
(lp599
S'app_folders'
p600
asbag49
(g70
g51
NtRp601
(dp602
g54
(dp603
g81
g82
ssg63
g592
sg56
(lp604
S':'
asbag49
(g70
g51
NtRp605
(dp606
g54
(dp607
sg63
g592
sg56
(lp608
g49
(g50
g51
NtRp609
(dp610
g54
(dp611
g62
I4
ssg63
g605
sg56
(lp612
S"set(['/Users/udimilo/Documents/web2py/applications/udi0312/', '/Users/udimilo/Documents/web2py/applications/admin/'])"
p613
asbasbasbag49
(g65
g51
NtRp614
(dp615
g54
(dp616
sg63
g588
sg56
(lp617
g49
(g70
g51
NtRp618
(dp619
g54
(dp620
g74
g75
ssg63
g614
sg56
(lp621
S'applications_parent'
p622
asbag49
(g70
g51
NtRp623
(dp624
g54
(dp625
g81
g82
ssg63
g614
sg56
(lp626
S':'
asbag49
(g70
g51
NtRp627
(dp628
g54
(dp629
sg63
g614
sg56
(lp630
g49
(g50
g51
NtRp631
(dp632
g54
(dp633
g62
I4
ssg63
g627
sg56
(lp634
S'/Users/udimilo/Documents/web2py'
p635
asbasbasbag49
(g65
g51
NtRp636
(dp637
g54
(dp638
sg63
g588
sg56
(lp639
g49
(g70
g51
NtRp640
(dp641
g54
(dp642
g74
g75
ssg63
g636
sg56
(lp643
S'cmd_args'
p644
asbag49
(g70
g51
NtRp645
(dp646
g54
(dp647
g81
g82
ssg63
g636
sg56
(lp648
S':'
asbag49
(g70
g51
NtRp649
(dp650
g54
(dp651
sg63
g636
sg56
(lp652
g49
(g50
g51
NtRp653
(dp654
g54
(dp655
g62
I4
ssg63
g649
sg56
(lp656
g49
(g58
g51
NtRp657
(dp658
g54
(dp659
g62
I3
ssg63
Nsg56
(lp660
sbasbasbasbag49
(g65
g51
NtRp661
(dp662
g54
(dp663
sg63
g588
sg56
(lp664
g49
(g70
g51
NtRp665
(dp666
g54
(dp667
g74
g75
ssg63
g661
sg56
(lp668
S'cmd_options'
p669
asbag49
(g70
g51
NtRp670
(dp671
g54
(dp672
g81
g82
ssg63
g661
sg56
(lp673
S':'
asbag49
(g70
g51
NtRp674
(dp675
g54
(dp676
sg63
g661
sg56
(lp677
g49
(g50
g51
NtRp678
(dp679
g54
(dp680
g62
I4
ssg63
g674
sg56
(lp681
S"<Values at 0x23196e8: {'verbose': False, 'ip': '127.0.0.1', 'shutdown_timeout': 5, 'taskbar': False, 'nocron': False, 'pid_filename': 'httpserver.pid', 'maxthreads': None, 'softcron': False, 'server_name': 'Udi-Milos-MacBook-Pro.local', 'bpython': False, 'nogui': False, 'port': 8000, 'extcron': False, 'debuglevel': 30, 'test': None, 'folder': '/Users/udimilo/Documents/web2py', 'config': '', 'import_models': False, 'winservice': '', 'shell': None, 'run': '', 'log_filename': 'httpserver.log', 'args': [''], 'socket_timeout': 5, 'ssl_ca_certificate': None, 'scheduler': None, 'profiler_filename': None, 'ssl_private_key': '', 'password': '<ask>', 'request_queue_size': 5, 'ssl_certificate': '', 'cronjob': False, 'numthreads': None, 'quiet': False, 'interfaces': None, 'minthreads': None, 'timeout': 10, 'plain': False, 'nobanner': False}>"
p682
asbasbasbag49
(g65
g51
NtRp683
(dp684
g54
(dp685
sg63
g588
sg56
(lp686
g49
(g70
g51
NtRp687
(dp688
g54
(dp689
g74
g75
ssg63
g683
sg56
(lp690
S'db_sessions'
p691
asbag49
(g70
g51
NtRp692
(dp693
g54
(dp694
g81
g82
ssg63
g683
sg56
(lp695
S':'
asbag49
(g70
g51
NtRp696
(dp697
g54
(dp698
sg63
g683
sg56
(lp699
g49
(g50
g51
NtRp700
(dp701
g54
(dp702
g62
I4
ssg63
g696
sg56
(lp703
S'set([])'
p704
asbasbasbag49
(g65
g51
NtRp705
(dp706
g54
(dp707
sg63
g588
sg56
(lp708
g49
(g70
g51
NtRp709
(dp710
g54
(dp711
g74
g75
ssg63
g705
sg56
(lp712
S'debugging'
p713
asbag49
(g70
g51
NtRp714
(dp715
g54
(dp716
g81
g82
ssg63
g705
sg56
(lp717
S':'
asbag49
(g70
g51
NtRp718
(dp719
g54
(dp720
sg63
g705
sg56
(lp721
g49
(g50
g51
NtRp722
(dp723
g54
(dp724
g62
I4
ssg63
g718
sg56
(lp725
g92
asbasbasbag49
(g65
g51
NtRp726
(dp727
g54
(dp728
sg63
g588
sg56
(lp729
g49
(g70
g51
NtRp730
(dp731
g54
(dp732
g74
g75
ssg63
g726
sg56
(lp733
S'gluon_parent'
p734
asbag49
(g70
g51
NtRp735
(dp736
g54
(dp737
g81
g82
ssg63
g726
sg56
(lp738
S':'
asbag49
(g70
g51
NtRp739
(dp740
g54
(dp741
sg63
g726
sg56
(lp742
g49
(g50
g51
NtRp743
(dp744
g54
(dp745
g62
I4
ssg63
g739
sg56
(lp746
S'/Users/udimilo/Documents/web2py'
p747
asbasbasbag49
(g65
g51
NtRp748
(dp749
g54
(dp750
sg63
g588
sg56
(lp751
g49
(g70
g51
NtRp752
(dp753
g54
(dp754
g74
g75
ssg63
g748
sg56
(lp755
S'http_accept'
p756
asbag49
(g70
g51
NtRp757
(dp758
g54
(dp759
g81
g82
ssg63
g748
sg56
(lp760
S':'
asbag49
(g70
g51
NtRp761
(dp762
g54
(dp763
sg63
g748
sg56
(lp764
g49
(g50
g51
NtRp765
(dp766
g54
(dp767
g62
I4
ssg63
g761
sg56
(lp768
S'text/html,application/xhtml+xml,application/xml;q=0.9,*/*;q=0.8'
p769
asbasbasbag49
(g65
g51
NtRp770
(dp771
g54
(dp772
sg63
g588
sg56
(lp773
g49
(g70
g51
NtRp774
(dp775
g54
(dp776
g74
g75
ssg63
g770
sg56
(lp777
S'http_accept_charset'
p778
asbag49
(g70
g51
NtRp779
(dp780
g54
(dp781
g81
g82
ssg63
g770
sg56
(lp782
S':'
asbag49
(g70
g51
NtRp783
(dp784
g54
(dp785
sg63
g770
sg56
(lp786
g49
(g50
g51
NtRp787
(dp788
g54
(dp789
g62
I4
ssg63
g783
sg56
(lp790
S'ISO-8859-1,utf-8;q=0.7,*;q=0.3'
p791
asbasbasbag49
(g65
g51
NtRp792
(dp793
g54
(dp794
sg63
g588
sg56
(lp795
g49
(g70
g51
NtRp796
(dp797
g54
(dp798
g74
g75
ssg63
g792
sg56
(lp799
S'http_accept_encoding'
p800
asbag49
(g70
g51
NtRp801
(dp802
g54
(dp803
g81
g82
ssg63
g792
sg56
(lp804
S':'
asbag49
(g70
g51
NtRp805
(dp806
g54
(dp807
sg63
g792
sg56
(lp808
g49
(g50
g51
NtRp809
(dp810
g54
(dp811
g62
I4
ssg63
g805
sg56
(lp812
S'gzip,deflate,sdch'
p813
asbasbasbag49
(g65
g51
NtRp814
(dp815
g54
(dp816
sg63
g588
sg56
(lp817
g49
(g70
g51
NtRp818
(dp819
g54
(dp820
g74
g75
ssg63
g814
sg56
(lp821
S'http_accept_language'
p822
asbag49
(g70
g51
NtRp823
(dp824
g54
(dp825
g81
g82
ssg63
g814
sg56
(lp826
S':'
asbag49
(g70
g51
NtRp827
(dp828
g54
(dp829
sg63
g814
sg56
(lp830
g49
(g50
g51
NtRp831
(dp832
g54
(dp833
g62
I4
ssg63
g827
sg56
(lp834
S'en-US,en;q=0.8'
p835
asbasbasbag49
(g65
g51
NtRp836
(dp837
g54
(dp838
sg63
g588
sg56
(lp839
g49
(g70
g51
NtRp840
(dp841
g54
(dp842
g74
g75
ssg63
g836
sg56
(lp843
S'http_connection'
p844
asbag49
(g70
g51
NtRp845
(dp846
g54
(dp847
g81
g82
ssg63
g836
sg56
(lp848
S':'
asbag49
(g70
g51
NtRp849
(dp850
g54
(dp851
sg63
g836
sg56
(lp852
g49
(g50
g51
NtRp853
(dp854
g54
(dp855
g62
I4
ssg63
g849
sg56
(lp856
S'keep-alive'
p857
asbasbasbag49
(g65
g51
NtRp858
(dp859
g54
(dp860
sg63
g588
sg56
(lp861
g49
(g70
g51
NtRp862
(dp863
g54
(dp864
g74
g75
ssg63
g858
sg56
(lp865
S'http_cookie'
p866
asbag49
(g70
g51
NtRp867
(dp868
g54
(dp869
g81
g82
ssg63
g858
sg56
(lp870
S':'
asbag49
(g70
g51
NtRp871
(dp872
g54
(dp873
sg63
g858
sg56
(lp874
g49
(g50
g51
NtRp875
(dp876
g54
(dp877
g62
I4
ssg63
g871
sg56
(lp878
S'session_id_admin=127.0.0.1-f47c4092-5f2e-4786-84da-d4c3b1abe704; session_id_udi0312=127.0.0.1-fcd6a577-d448-4882-b7bc-f353da84ba3b'
p879
asbasbasbag49
(g65
g51
NtRp880
(dp881
g54
(dp882
sg63
g588
sg56
(lp883
g49
(g70
g51
NtRp884
(dp885
g54
(dp886
g74
g75
ssg63
g880
sg56
(lp887
S'http_host'
p888
asbag49
(g70
g51
NtRp889
(dp890
g54
(dp891
g81
g82
ssg63
g880
sg56
(lp892
S':'
asbag49
(g70
g51
NtRp893
(dp894
g54
(dp895
sg63
g880
sg56
(lp896
g49
(g50
g51
NtRp897
(dp898
g54
(dp899
g62
I4
ssg63
g893
sg56
(lp900
S'127.0.0.1:8000'
p901
asbasbasbag49
(g65
g51
NtRp902
(dp903
g54
(dp904
sg63
g588
sg56
(lp905
g49
(g70
g51
NtRp906
(dp907
g54
(dp908
g74
g75
ssg63
g902
sg56
(lp909
S'http_user_agent'
p910
asbag49
(g70
g51
NtRp911
(dp912
g54
(dp913
g81
g82
ssg63
g902
sg56
(lp914
S':'
asbag49
(g70
g51
NtRp915
(dp916
g54
(dp917
sg63
g902
sg56
(lp918
g49
(g50
g51
NtRp919
(dp920
g54
(dp921
g62
I4
ssg63
g915
sg56
(lp922
S'Mozilla/5.0 (Macintosh; Intel Mac OS X 10_7_3) AppleWebKit/535.11 (KHTML, like Gecko) Chrome/17.0.963.79 Safari/535.11'
p923
asbasbasbag49
(g65
g51
NtRp924
(dp925
g54
(dp926
sg63
g588
sg56
(lp927
g49
(g70
g51
NtRp928
(dp929
g54
(dp930
g74
g75
ssg63
g924
sg56
(lp931
S'is_jython'
p932
asbag49
(g70
g51
NtRp933
(dp934
g54
(dp935
g81
g82
ssg63
g924
sg56
(lp936
S':'
asbag49
(g70
g51
NtRp937
(dp938
g54
(dp939
sg63
g924
sg56
(lp940
g49
(g50
g51
NtRp941
(dp942
g54
(dp943
g62
I4
ssg63
g937
sg56
(lp944
g92
asbasbasbag49
(g65
g51
NtRp945
(dp946
g54
(dp947
sg63
g588
sg56
(lp948
g49
(g70
g51
NtRp949
(dp950
g54
(dp951
g74
g75
ssg63
g945
sg56
(lp952
S'is_pypy'
p953
asbag49
(g70
g51
NtRp954
(dp955
g54
(dp956
g81
g82
ssg63
g945
sg56
(lp957
S':'
asbag49
(g70
g51
NtRp958
(dp959
g54
(dp960
sg63
g945
sg56
(lp961
g49
(g50
g51
NtRp962
(dp963
g54
(dp964
g62
I4
ssg63
g958
sg56
(lp965
g92
asbasbasbag49
(g65
g51
NtRp966
(dp967
g54
(dp968
sg63
g588
sg56
(lp969
g49
(g70
g51
NtRp970
(dp971
g54
(dp972
g74
g75
ssg63
g966
sg56
(lp973
S'path_info'
p974
asbag49
(g70
g51
NtRp975
(dp976
g54
(dp977
g81
g82
ssg63
g966
sg56
(lp978
S':'
asbag49
(g70
g51
NtRp979
(dp980
g54
(dp981
sg63
g966
sg56
(lp982
g49
(g50
g51
NtRp983
(dp984
g54
(dp985
g62
I4
ssg63
g979
sg56
(lp986
S'/udi0312/default/add_repin'
p987
asbasbasbag49
(g65
g51
NtRp988
(dp989
g54
(dp990
sg63
g588
sg56
(lp991
g49
(g70
g51
NtRp992
(dp993
g54
(dp994
g74
g75
ssg63
g988
sg56
(lp995
S'query_string'
p996
asbag49
(g70
g51
NtRp997
(dp998
g54
(dp999
g81
g82
ssg63
g988
sg56
(lp1000
S':'
asbag49
(g70
g51
NtRp1001
(dp1002
g54
(dp1003
sg63
g988
sg56
(lp1004
g49
(g50
g51
NtRp1005
(dp1006
g54
(dp1007
g62
I4
ssg63
g1001
sg56
(lp1008
S''
asbasbasbag49
(g65
g51
NtRp1009
(dp1010
g54
(dp1011
sg63
g588
sg56
(lp1012
g49
(g70
g51
NtRp1013
(dp1014
g54
(dp1015
g74
g75
ssg63
g1009
sg56
(lp1016
S'remote_addr'
p1017
asbag49
(g70
g51
NtRp1018
(dp1019
g54
(dp1020
g81
g82
ssg63
g1009
sg56
(lp1021
S':'
asbag49
(g70
g51
NtRp1022
(dp1023
g54
(dp1024
sg63
g1009
sg56
(lp1025
g49
(g50
g51
NtRp1026
(dp1027
g54
(dp1028
g62
I4
ssg63
g1022
sg56
(lp1029
g182
asbasbasbag49
(g65
g51
NtRp1030
(dp1031
g54
(dp1032
sg63
g588
sg56
(lp1033
g49
(g70
g51
NtRp1034
(dp1035
g54
(dp1036
g74
g75
ssg63
g1030
sg56
(lp1037
S'remote_port'
p1038
asbag49
(g70
g51
NtRp1039
(dp1040
g54
(dp1041
g81
g82
ssg63
g1030
sg56
(lp1042
S':'
asbag49
(g70
g51
NtRp1043
(dp1044
g54
(dp1045
sg63
g1030
sg56
(lp1046
g49
(g50
g51
NtRp1047
(dp1048
g54
(dp1049
g62
I4
ssg63
g1043
sg56
(lp1050
S'55482'
p1051
asbasbasbag49
(g65
g51
NtRp1052
(dp1053
g54
(dp1054
sg63
g588
sg56
(lp1055
g49
(g70
g51
NtRp1056
(dp1057
g54
(dp1058
g74
g75
ssg63
g1052
sg56
(lp1059
S'request_method'
p1060
asbag49
(g70
g51
NtRp1061
(dp1062
g54
(dp1063
g81
g82
ssg63
g1052
sg56
(lp1064
S':'
asbag49
(g70
g51
NtRp1065
(dp1066
g54
(dp1067
sg63
g1052
sg56
(lp1068
g49
(g50
g51
NtRp1069
(dp1070
g54
(dp1071
g62
I4
ssg63
g1065
sg56
(lp1072
S'GET'
p1073
asbasbasbag49
(g65
g51
NtRp1074
(dp1075
g54
(dp1076
sg63
g588
sg56
(lp1077
g49
(g70
g51
NtRp1078
(dp1079
g54
(dp1080
g74
g75
ssg63
g1074
sg56
(lp1081
S'request_uri'
p1082
asbag49
(g70
g51
NtRp1083
(dp1084
g54
(dp1085
g81
g82
ssg63
g1074
sg56
(lp1086
S':'
asbag49
(g70
g51
NtRp1087
(dp1088
g54
(dp1089
sg63
g1074
sg56
(lp1090
g49
(g50
g51
NtRp1091
(dp1092
g54
(dp1093
g62
I4
ssg63
g1087
sg56
(lp1094
g987
asbasbasbag49
(g65
g51
NtRp1095
(dp1096
g54
(dp1097
sg63
g588
sg56
(lp1098
g49
(g70
g51
NtRp1099
(dp1100
g54
(dp1101
g74
g75
ssg63
g1095
sg56
(lp1102
S'script_name'
p1103
asbag49
(g70
g51
NtRp1104
(dp1105
g54
(dp1106
g81
g82
ssg63
g1095
sg56
(lp1107
S':'
asbag49
(g70
g51
NtRp1108
(dp1109
g54
(dp1110
sg63
g1095
sg56
(lp1111
g49
(g50
g51
NtRp1112
(dp1113
g54
(dp1114
g62
I4
ssg63
g1108
sg56
(lp1115
S''
asbasbasbag49
(g65
g51
NtRp1116
(dp1117
g54
(dp1118
sg63
g588
sg56
(lp1119
g49
(g70
g51
NtRp1120
(dp1121
g54
(dp1122
g74
g75
ssg63
g1116
sg56
(lp1123
S'server_name'
p1124
asbag49
(g70
g51
NtRp1125
(dp1126
g54
(dp1127
g81
g82
ssg63
g1116
sg56
(lp1128
S':'
asbag49
(g70
g51
NtRp1129
(dp1130
g54
(dp1131
sg63
g1116
sg56
(lp1132
g49
(g50
g51
NtRp1133
(dp1134
g54
(dp1135
g62
I4
ssg63
g1129
sg56
(lp1136
S'Udi-Milos-MacBook-Pro.local'
p1137
asbasbasbag49
(g65
g51
NtRp1138
(dp1139
g54
(dp1140
sg63
g588
sg56
(lp1141
g49
(g70
g51
NtRp1142
(dp1143
g54
(dp1144
g74
g75
ssg63
g1138
sg56
(lp1145
S'server_port'
p1146
asbag49
(g70
g51
NtRp1147
(dp1148
g54
(dp1149
g81
g82
ssg63
g1138
sg56
(lp1150
S':'
asbag49
(g70
g51
NtRp1151
(dp1152
g54
(dp1153
sg63
g1138
sg56
(lp1154
g49
(g50
g51
NtRp1155
(dp1156
g54
(dp1157
g62
I4
ssg63
g1151
sg56
(lp1158
S'8000'
p1159
asbasbasbag49
(g65
g51
NtRp1160
(dp1161
g54
(dp1162
sg63
g588
sg56
(lp1163
g49
(g70
g51
NtRp1164
(dp1165
g54
(dp1166
g74
g75
ssg63
g1160
sg56
(lp1167
S'server_protocol'
p1168
asbag49
(g70
g51
NtRp1169
(dp1170
g54
(dp1171
g81
g82
ssg63
g1160
sg56
(lp1172
S':'
asbag49
(g70
g51
NtRp1173
(dp1174
g54
(dp1175
sg63
g1160
sg56
(lp1176
g49
(g50
g51
NtRp1177
(dp1178
g54
(dp1179
g62
I4
ssg63
g1173
sg56
(lp1180
S'HTTP/1.1'
p1181
asbasbasbag49
(g65
g51
NtRp1182
(dp1183
g54
(dp1184
sg63
g588
sg56
(lp1185
g49
(g70
g51
NtRp1186
(dp1187
g54
(dp1188
g74
g75
ssg63
g1182
sg56
(lp1189
S'server_software'
p1190
asbag49
(g70
g51
NtRp1191
(dp1192
g54
(dp1193
g81
g82
ssg63
g1182
sg56
(lp1194
S':'
asbag49
(g70
g51
NtRp1195
(dp1196
g54
(dp1197
sg63
g1182
sg56
(lp1198
g49
(g50
g51
NtRp1199
(dp1200
g54
(dp1201
g62
I4
ssg63
g1195
sg56
(lp1202
S'Rocket 1.2.4'
p1203
asbasbasbag49
(g65
g51
NtRp1204
(dp1205
g54
(dp1206
sg63
g588
sg56
(lp1207
g49
(g70
g51
NtRp1208
(dp1209
g54
(dp1210
g74
g75
ssg63
g1204
sg56
(lp1211
S'web2py_crontype'
p1212
asbag49
(g70
g51
NtRp1213
(dp1214
g54
(dp1215
g81
g82
ssg63
g1204
sg56
(lp1216
S':'
asbag49
(g70
g51
NtRp1217
(dp1218
g54
(dp1219
sg63
g1204
sg56
(lp1220
g49
(g50
g51
NtRp1221
(dp1222
g54
(dp1223
g62
I4
ssg63
g1217
sg56
(lp1224
S'hard'
p1225
asbasbasbag49
(g65
g51
NtRp1226
(dp1227
g54
(dp1228
sg63
g588
sg56
(lp1229
g49
(g70
g51
NtRp1230
(dp1231
g54
(dp1232
g74
g75
ssg63
g1226
sg56
(lp1233
S'web2py_original_uri'
p1234
asbag49
(g70
g51
NtRp1235
(dp1236
g54
(dp1237
g81
g82
ssg63
g1226
sg56
(lp1238
S':'
asbag49
(g70
g51
NtRp1239
(dp1240
g54
(dp1241
sg63
g1226
sg56
(lp1242
g49
(g50
g51
NtRp1243
(dp1244
g54
(dp1245
g62
I4
ssg63
g1239
sg56
(lp1246
S'/add_repin'
p1247
asbasbasbag49
(g65
g51
NtRp1248
(dp1249
g54
(dp1250
sg63
g588
sg56
(lp1251
g49
(g70
g51
NtRp1252
(dp1253
g54
(dp1254
g74
g75
ssg63
g1248
sg56
(lp1255
S'web2py_path'
p1256
asbag49
(g70
g51
NtRp1257
(dp1258
g54
(dp1259
g81
g82
ssg63
g1248
sg56
(lp1260
S':'
asbag49
(g70
g51
NtRp1261
(dp1262
g54
(dp1263
sg63
g1248
sg56
(lp1264
g49
(g50
g51
NtRp1265
(dp1266
g54
(dp1267
g62
I4
ssg63
g1261
sg56
(lp1268
g635
asbasbasbag49
(g65
g51
NtRp1269
(dp1270
g54
(dp1271
sg63
g588
sg56
(lp1272
g49
(g70
g51
NtRp1273
(dp1274
g54
(dp1275
g74
g75
ssg63
g1269
sg56
(lp1276
S'web2py_version'
p1277
asbag49
(g70
g51
NtRp1278
(dp1279
g54
(dp1280
g81
g82
ssg63
g1269
sg56
(lp1281
S':'
asbag49
(g70
g51
NtRp1282
(dp1283
g54
(dp1284
sg63
g1269
sg56
(lp1285
g49
(g50
g51
NtRp1286
(dp1287
g54
(dp1288
g62
I4
ssg63
g1282
sg56
(lp1289
g49
(g58
g51
NtRp1290
(dp1291
g54
(dp1292
g62
I3
ssg63
Nsg56
(lp1293
g49
(g65
g51
NtRp1294
(dp1295
g54
(dp1296
sg63
g1290
sg56
(lp1297
g49
(g70
g51
NtRp1298
(dp1299
g54
(dp1300
sg63
g1294
sg56
(lp1301
g49
(g50
g51
NtRp1302
(dp1303
g54
(dp1304
g62
I3
ssg63
g1298
sg56
(lp1305
S'1'
asbasbasbag49
(g65
g51
NtRp1306
(dp1307
g54
(dp1308
sg63
g1290
sg56
(lp1309
g49
(g70
g51
NtRp1310
(dp1311
g54
(dp1312
sg63
g1306
sg56
(lp1313
g49
(g50
g51
NtRp1314
(dp1315
g54
(dp1316
g62
I3
ssg63
g1310
sg56
(lp1317
S'99'
p1318
asbasbasbag49
(g65
g51
NtRp1319
(dp1320
g54
(dp1321
sg63
g1290
sg56
(lp1322
g49
(g70
g51
NtRp1323
(dp1324
g54
(dp1325
sg63
g1319
sg56
(lp1326
g49
(g50
g51
NtRp1327
(dp1328
g54
(dp1329
g62
I3
ssg63
g1323
sg56
(lp1330
S'7'
asbasbasbag49
(g65
g51
NtRp1331
(dp1332
g54
(dp1333
sg63
g1290
sg56
(lp1334
g49
(g70
g51
NtRp1335
(dp1336
g54
(dp1337
sg63
g1331
sg56
(lp1338
g49
(g50
g51
NtRp1339
(dp1340
g54
(dp1341
g62
I3
ssg63
g1335
sg56
(lp1342
S'datetime.datetime(2012, 3, 4, 22, 12, 8)'
p1343
asbasbasbag49
(g65
g51
NtRp1344
(dp1345
g54
(dp1346
sg63
g1290
sg56
(lp1347
g49
(g70
g51
NtRp1348
(dp1349
g54
(dp1350
sg63
g1344
sg56
(lp1351
g49
(g50
g51
NtRp1352
(dp1353
g54
(dp1354
g62
I3
ssg63
g1348
sg56
(lp1355
S'stable'
p1356
asbasbasbasbasbasbasbag49
(g65
g51
NtRp1357
(dp1358
g54
(dp1359
sg63
g588
sg56
(lp1360
g49
(g70
g51
NtRp1361
(dp1362
g54
(dp1363
g74
g75
ssg63
g1357
sg56
(lp1364
S'wsgi_errors'
p1365
asbag49
(g70
g51
NtRp1366
(dp1367
g54
(dp1368
g81
g82
ssg63
g1357
sg56
(lp1369
S':'
asbag49
(g70
g51
NtRp1370
(dp1371
g54
(dp1372
sg63
g1357
sg56
(lp1373
g49
(g50
g51
NtRp1374
(dp1375
g54
(dp1376
g62
I4
ssg63
g1370
sg56
(lp1377
S"<open file '<stderr>', mode 'w' at 0x4220b0>"
p1378
asbasbasbag49
(g65
g51
NtRp1379
(dp1380
g54
(dp1381
sg63
g588
sg56
(lp1382
g49
(g70
g51
NtRp1383
(dp1384
g54
(dp1385
g74
g75
ssg63
g1379
sg56
(lp1386
S'wsgi_file_wrapper'
p1387
asbag49
(g70
g51
NtRp1388
(dp1389
g54
(dp1390
g81
g82
ssg63
g1379
sg56
(lp1391
S':'
asbag49
(g70
g51
NtRp1392
(dp1393
g54
(dp1394
sg63
g1379
sg56
(lp1395
g49
(g50
g51
NtRp1396
(dp1397
g54
(dp1398
g62
I4
ssg63
g1392
sg56
(lp1399
S'<class wsgiref.util.FileWrapper at 0x225e6c0>'
p1400
asbasbasbag49
(g65
g51
NtRp1401
(dp1402
g54
(dp1403
sg63
g588
sg56
(lp1404
g49
(g70
g51
NtRp1405
(dp1406
g54
(dp1407
g74
g75
ssg63
g1401
sg56
(lp1408
S'wsgi_input'
p1409
asbag49
(g70
g51
NtRp1410
(dp1411
g54
(dp1412
g81
g82
ssg63
g1401
sg56
(lp1413
S':'
asbag49
(g70
g51
NtRp1414
(dp1415
g54
(dp1416
sg63
g1401
sg56
(lp1417
g49
(g50
g51
NtRp1418
(dp1419
g54
(dp1420
g62
I4
ssg63
g1414
sg56
(lp1421
S'<socket._fileobject object at 0xa23c2b0>'
p1422
asbasbasbag49
(g65
g51
NtRp1423
(dp1424
g54
(dp1425
sg63
g588
sg56
(lp1426
g49
(g70
g51
NtRp1427
(dp1428
g54
(dp1429
g74
g75
ssg63
g1423
sg56
(lp1430
S'wsgi_multiprocess'
p1431
asbag49
(g70
g51
NtRp1432
(dp1433
g54
(dp1434
g81
g82
ssg63
g1423
sg56
(lp1435
S':'
asbag49
(g70
g51
NtRp1436
(dp1437
g54
(dp1438
sg63
g1423
sg56
(lp1439
g49
(g50
g51
NtRp1440
(dp1441
g54
(dp1442
g62
I4
ssg63
g1436
sg56
(lp1443
g92
asbasbasbag49
(g65
g51
NtRp1444
(dp1445
g54
(dp1446
sg63
g588
sg56
(lp1447
g49
(g70
g51
NtRp1448
(dp1449
g54
(dp1450
g74
g75
ssg63
g1444
sg56
(lp1451
S'wsgi_multithread'
p1452
asbag49
(g70
g51
NtRp1453
(dp1454
g54
(dp1455
g81
g82
ssg63
g1444
sg56
(lp1456
S':'
asbag49
(g70
g51
NtRp1457
(dp1458
g54
(dp1459
sg63
g1444
sg56
(lp1460
g49
(g50
g51
NtRp1461
(dp1462
g54
(dp1463
g62
I4
ssg63
g1457
sg56
(lp1464
S'True'
p1465
asbasbasbag49
(g65
g51
NtRp1466
(dp1467
g54
(dp1468
sg63
g588
sg56
(lp1469
g49
(g70
g51
NtRp1470
(dp1471
g54
(dp1472
g74
g75
ssg63
g1466
sg56
(lp1473
S'wsgi_run_once'
p1474
asbag49
(g70
g51
NtRp1475
(dp1476
g54
(dp1477
g81
g82
ssg63
g1466
sg56
(lp1478
S':'
asbag49
(g70
g51
NtRp1479
(dp1480
g54
(dp1481
sg63
g1466
sg56
(lp1482
g49
(g50
g51
NtRp1483
(dp1484
g54
(dp1485
g62
I4
ssg63
g1479
sg56
(lp1486
g92
asbasbasbag49
(g65
g51
NtRp1487
(dp1488
g54
(dp1489
sg63
g588
sg56
(lp1490
g49
(g70
g51
NtRp1491
(dp1492
g54
(dp1493
g74
g75
ssg63
g1487
sg56
(lp1494
S'wsgi_url_scheme'
p1495
asbag49
(g70
g51
NtRp1496
(dp1497
g54
(dp1498
g81
g82
ssg63
g1487
sg56
(lp1499
S':'
asbag49
(g70
g51
NtRp1500
(dp1501
g54
(dp1502
sg63
g1487
sg56
(lp1503
g49
(g50
g51
NtRp1504
(dp1505
g54
(dp1506
g62
I4
ssg63
g1500
sg56
(lp1507
S'http'
p1508
asbasbasbag49
(g65
g51
NtRp1509
(dp1510
g54
(dp1511
sg63
g588
sg56
(lp1512
g49
(g70
g51
NtRp1513
(dp1514
g54
(dp1515
g74
g75
ssg63
g1509
sg56
(lp1516
S'wsgi_version'
p1517
asbag49
(g70
g51
NtRp1518
(dp1519
g54
(dp1520
g81
g82
ssg63
g1509
sg56
(lp1521
S':'
asbag49
(g70
g51
NtRp1522
(dp1523
g54
(dp1524
sg63
g1509
sg56
(lp1525
g49
(g50
g51
NtRp1526
(dp1527
g54
(dp1528
g62
I4
ssg63
g1522
sg56
(lp1529
g49
(g58
g51
NtRp1530
(dp1531
g54
(dp1532
g62
I3
ssg63
Nsg56
(lp1533
g49
(g65
g51
NtRp1534
(dp1535
g54
(dp1536
sg63
g1530
sg56
(lp1537
g49
(g70
g51
NtRp1538
(dp1539
g54
(dp1540
sg63
g1534
sg56
(lp1541
g49
(g50
g51
NtRp1542
(dp1543
g54
(dp1544
g62
I3
ssg63
g1538
sg56
(lp1545
S'1'
asbasbasbag49
(g65
g51
NtRp1546
(dp1547
g54
(dp1548
sg63
g1530
sg56
(lp1549
g49
(g70
g51
NtRp1550
(dp1551
g54
(dp1552
sg63
g1546
sg56
(lp1553
g49
(g50
g51
NtRp1554
(dp1555
g54
(dp1556
g62
I3
ssg63
g1550
sg56
(lp1557
S'0'
asbasbasbasbasbasbasbasbasbasbasbag49
(g65
g51
NtRp1558
(dp1559
g54
(dp1560
sg63
g59
sg56
(lp1561
g49
(g70
g51
NtRp1562
(dp1563
g54
(dp1564
g74
g75
ssg63
g1558
sg56
(lp1565
S'extension'
p1566
asbag49
(g70
g51
NtRp1567
(dp1568
g54
(dp1569
g81
g82
ssg63
g1558
sg56
(lp1570
S':'
asbag49
(g70
g51
NtRp1571
(dp1572
g54
(dp1573
sg63
g1558
sg56
(lp1574
g49
(g50
g51
NtRp1575
(dp1576
g54
(dp1577
g62
I5
ssg63
g1571
sg56
(lp1578
S'html'
p1579
asbasbasbag49
(g65
g51
NtRp1580
(dp1581
g54
(dp1582
sg63
g59
sg56
(lp1583
g49
(g70
g51
NtRp1584
(dp1585
g54
(dp1586
g74
g75
ssg63
g1580
sg56
(lp1587
S'folder'
p1588
asbag49
(g70
g51
NtRp1589
(dp1590
g54
(dp1591
g81
g82
ssg63
g1580
sg56
(lp1592
S':'
asbag49
(g70
g51
NtRp1593
(dp1594
g54
(dp1595
sg63
g1580
sg56
(lp1596
g49
(g50
g51
NtRp1597
(dp1598
g54
(dp1599
g62
I5
ssg63
g1593
sg56
(lp1600
S'/Users/udimilo/Documents/web2py/applications/udi0312/'
p1601
asbasbasbag49
(g65
g51
NtRp1602
(dp1603
g54
(dp1604
sg63
g59
sg56
(lp1605
g49
(g70
g51
NtRp1606
(dp1607
g54
(dp1608
g74
g75
ssg63
g1602
sg56
(lp1609
S'function'
p1610
asbag49
(g70
g51
NtRp1611
(dp1612
g54
(dp1613
g81
g82
ssg63
g1602
sg56
(lp1614
S':'
asbag49
(g70
g51
NtRp1615
(dp1616
g54
(dp1617
sg63
g1602
sg56
(lp1618
g49
(g50
g51
NtRp1619
(dp1620
g54
(dp1621
g62
I5
ssg63
g1615
sg56
(lp1622
S'add_repin'
p1623
asbasbasbag49
(g65
g51
NtRp1624
(dp1625
g54
(dp1626
sg63
g59
sg56
(lp1627
g49
(g70
g51
NtRp1628
(dp1629
g54
(dp1630
g74
g75
ssg63
g1624
sg56
(lp1631
S'get_vars'
p1632
asbag49
(g70
g51
NtRp1633
(dp1634
g54
(dp1635
g81
g82
ssg63
g1624
sg56
(lp1636
S':'
asbag49
(g70
g51
NtRp1637
(dp1638
g54
(dp1639
sg63
g1624
sg56
(lp1640
g49
(g50
g51
NtRp1641
(dp1642
g54
(dp1643
g62
I5
ssg63
g1637
sg56
(lp1644
g49
(g58
g51
NtRp1645
(dp1646
g54
(dp1647
g62
I4
ssg63
Nsg56
(lp1648
sbasbasbasbag49
(g65
g51
NtRp1649
(dp1650
g54
(dp1651
sg63
g59
sg56
(lp1652
g49
(g70
g51
NtRp1653
(dp1654
g54
(dp1655
g74
g75
ssg63
g1649
sg56
(lp1656
S'global_settings'
p1657
asbag49
(g70
g51
NtRp1658
(dp1659
g54
(dp1660
g81
g82
ssg63
g1649
sg56
(lp1661
S':'
asbag49
(g70
g51
NtRp1662
(dp1663
g54
(dp1664
sg63
g1649
sg56
(lp1665
g49
(g50
g51
NtRp1666
(dp1667
g54
(dp1668
g62
I5
ssg63
g1662
sg56
(lp1669
g49
(g58
g51
NtRp1670
(dp1671
g54
(dp1672
g62
I4
ssg63
Nsg56
(lp1673
g49
(g65
g51
NtRp1674
(dp1675
g54
(dp1676
sg63
g1670
sg56
(lp1677
g49
(g70
g51
NtRp1678
(dp1679
g54
(dp1680
g74
g75
ssg63
g1674
sg56
(lp1681
g600
asbag49
(g70
g51
NtRp1682
(dp1683
g54
(dp1684
g81
g82
ssg63
g1674
sg56
(lp1685
S':'
asbag49
(g70
g51
NtRp1686
(dp1687
g54
(dp1688
sg63
g1674
sg56
(lp1689
g49
(g50
g51
NtRp1690
(dp1691
g54
(dp1692
g62
I4
ssg63
g1686
sg56
(lp1693
S"set(['/Users/udimilo/Documents/web2py/applications/udi0312/', '/Users/udimilo/Documents/web2py/applications/admin/'])"
p1694
asbasbasbag49
(g65
g51
NtRp1695
(dp1696
g54
(dp1697
sg63
g1670
sg56
(lp1698
g49
(g70
g51
NtRp1699
(dp1700
g54
(dp1701
g74
g75
ssg63
g1695
sg56
(lp1702
g622
asbag49
(g70
g51
NtRp1703
(dp1704
g54
(dp1705
g81
g82
ssg63
g1695
sg56
(lp1706
S':'
asbag49
(g70
g51
NtRp1707
(dp1708
g54
(dp1709
sg63
g1695
sg56
(lp1710
g49
(g50
g51
NtRp1711
(dp1712
g54
(dp1713
g62
I4
ssg63
g1707
sg56
(lp1714
g635
asbasbasbag49
(g65
g51
NtRp1715
(dp1716
g54
(dp1717
sg63
g1670
sg56
(lp1718
g49
(g70
g51
NtRp1719
(dp1720
g54
(dp1721
g74
g75
ssg63
g1715
sg56
(lp1722
g644
asbag49
(g70
g51
NtRp1723
(dp1724
g54
(dp1725
g81
g82
ssg63
g1715
sg56
(lp1726
S':'
asbag49
(g70
g51
NtRp1727
(dp1728
g54
(dp1729
sg63
g1715
sg56
(lp1730
g49
(g50
g51
NtRp1731
(dp1732
g54
(dp1733
g62
I4
ssg63
g1727
sg56
(lp1734
g49
(g58
g51
NtRp1735
(dp1736
g54
(dp1737
g62
I3
ssg63
Nsg56
(lp1738
sbasbasbasbag49
(g65
g51
NtRp1739
(dp1740
g54
(dp1741
sg63
g1670
sg56
(lp1742
g49
(g70
g51
NtRp1743
(dp1744
g54
(dp1745
g74
g75
ssg63
g1739
sg56
(lp1746
g669
asbag49
(g70
g51
NtRp1747
(dp1748
g54
(dp1749
g81
g82
ssg63
g1739
sg56
(lp1750
S':'
asbag49
(g70
g51
NtRp1751
(dp1752
g54
(dp1753
sg63
g1739
sg56
(lp1754
g49
(g50
g51
NtRp1755
(dp1756
g54
(dp1757
g62
I4
ssg63
g1751
sg56
(lp1758
S"<Values at 0x23196e8: {'verbose': False, 'ip': '127.0.0.1', 'shutdown_timeout': 5, 'taskbar': False, 'nocron': False, 'pid_filename': 'httpserver.pid', 'maxthreads': None, 'softcron': False, 'server_name': 'Udi-Milos-MacBook-Pro.local', 'bpython': False, 'nogui': False, 'port': 8000, 'extcron': False, 'debuglevel': 30, 'test': None, 'folder': '/Users/udimilo/Documents/web2py', 'config': '', 'import_models': False, 'winservice': '', 'shell': None, 'run': '', 'log_filename': 'httpserver.log', 'args': [''], 'socket_timeout': 5, 'ssl_ca_certificate': None, 'scheduler': None, 'profiler_filename': None, 'ssl_private_key': '', 'password': '<ask>', 'request_queue_size': 5, 'ssl_certificate': '', 'cronjob': False, 'numthreads': None, 'quiet': False, 'interfaces': None, 'minthreads': None, 'timeout': 10, 'plain': False, 'nobanner': False}>"
p1759
asbasbasbag49
(g65
g51
NtRp1760
(dp1761
g54
(dp1762
sg63
g1670
sg56
(lp1763
g49
(g70
g51
NtRp1764
(dp1765
g54
(dp1766
g74
g75
ssg63
g1760
sg56
(lp1767
g691
asbag49
(g70
g51
NtRp1768
(dp1769
g54
(dp1770
g81
g82
ssg63
g1760
sg56
(lp1771
S':'
asbag49
(g70
g51
NtRp1772
(dp1773
g54
(dp1774
sg63
g1760
sg56
(lp1775
g49
(g50
g51
NtRp1776
(dp1777
g54
(dp1778
g62
I4
ssg63
g1772
sg56
(lp1779
S'set([])'
p1780
asbasbasbag49
(g65
g51
NtRp1781
(dp1782
g54
(dp1783
sg63
g1670
sg56
(lp1784
g49
(g70
g51
NtRp1785
(dp1786
g54
(dp1787
g74
g75
ssg63
g1781
sg56
(lp1788
g713
asbag49
(g70
g51
NtRp1789
(dp1790
g54
(dp1791
g81
g82
ssg63
g1781
sg56
(lp1792
S':'
asbag49
(g70
g51
NtRp1793
(dp1794
g54
(dp1795
sg63
g1781
sg56
(lp1796
g49
(g50
g51
NtRp1797
(dp1798
g54
(dp1799
g62
I4
ssg63
g1793
sg56
(lp1800
g92
asbasbasbag49
(g65
g51
NtRp1801
(dp1802
g54
(dp1803
sg63
g1670
sg56
(lp1804
g49
(g70
g51
NtRp1805
(dp1806
g54
(dp1807
g74
g75
ssg63
g1801
sg56
(lp1808
g734
asbag49
(g70
g51
NtRp1809
(dp1810
g54
(dp1811
g81
g82
ssg63
g1801
sg56
(lp1812
S':'
asbag49
(g70
g51
NtRp1813
(dp1814
g54
(dp1815
sg63
g1801
sg56
(lp1816
g49
(g50
g51
NtRp1817
(dp1818
g54
(dp1819
g62
I4
ssg63
g1813
sg56
(lp1820
g747
asbasbasbag49
(g65
g51
NtRp1821
(dp1822
g54
(dp1823
sg63
g1670
sg56
(lp1824
g49
(g70
g51
NtRp1825
(dp1826
g54
(dp1827
g74
g75
ssg63
g1821
sg56
(lp1828
g932
asbag49
(g70
g51
NtRp1829
(dp1830
g54
(dp1831
g81
g82
ssg63
g1821
sg56
(lp1832
S':'
asbag49
(g70
g51
NtRp1833
(dp1834
g54
(dp1835
sg63
g1821
sg56
(lp1836
g49
(g50
g51
NtRp1837
(dp1838
g54
(dp1839
g62
I4
ssg63
g1833
sg56
(lp1840
g92
asbasbasbag49
(g65
g51
NtRp1841
(dp1842
g54
(dp1843
sg63
g1670
sg56
(lp1844
g49
(g70
g51
NtRp1845
(dp1846
g54
(dp1847
g74
g75
ssg63
g1841
sg56
(lp1848
g953
asbag49
(g70
g51
NtRp1849
(dp1850
g54
(dp1851
g81
g82
ssg63
g1841
sg56
(lp1852
S':'
asbag49
(g70
g51
NtRp1853
(dp1854
g54
(dp1855
sg63
g1841
sg56
(lp1856
g49
(g50
g51
NtRp1857
(dp1858
g54
(dp1859
g62
I4
ssg63
g1853
sg56
(lp1860
g92
asbasbasbag49
(g65
g51
NtRp1861
(dp1862
g54
(dp1863
sg63
g1670
sg56
(lp1864
g49
(g70
g51
NtRp1865
(dp1866
g54
(dp1867
g74
g75
ssg63
g1861
sg56
(lp1868
g1212
asbag49
(g70
g51
NtRp1869
(dp1870
g54
(dp1871
g81
g82
ssg63
g1861
sg56
(lp1872
S':'
asbag49
(g70
g51
NtRp1873
(dp1874
g54
(dp1875
sg63
g1861
sg56
(lp1876
g49
(g50
g51
NtRp1877
(dp1878
g54
(dp1879
g62
I4
ssg63
g1873
sg56
(lp1880
g1225
asbasbasbag49
(g65
g51
NtRp1881
(dp1882
g54
(dp1883
sg63
g1670
sg56
(lp1884
g49
(g70
g51
NtRp1885
(dp1886
g54
(dp1887
g74
g75
ssg63
g1881
sg56
(lp1888
g1277
asbag49
(g70
g51
NtRp1889
(dp1890
g54
(dp1891
g81
g82
ssg63
g1881
sg56
(lp1892
S':'
asbag49
(g70
g51
NtRp1893
(dp1894
g54
(dp1895
sg63
g1881
sg56
(lp1896
g49
(g50
g51
NtRp1897
(dp1898
g54
(dp1899
g62
I4
ssg63
g1893
sg56
(lp1900
g49
(g58
g51
NtRp1901
(dp1902
g54
(dp1903
g62
I3
ssg63
Nsg56
(lp1904
g49
(g65
g51
NtRp1905
(dp1906
g54
(dp1907
sg63
g1901
sg56
(lp1908
g49
(g70
g51
NtRp1909
(dp1910
g54
(dp1911
sg63
g1905
sg56
(lp1912
g49
(g50
g51
NtRp1913
(dp1914
g54
(dp1915
g62
I3
ssg63
g1909
sg56
(lp1916
S'1'
asbasbasbag49
(g65
g51
NtRp1917
(dp1918
g54
(dp1919
sg63
g1901
sg56
(lp1920
g49
(g70
g51
NtRp1921
(dp1922
g54
(dp1923
sg63
g1917
sg56
(lp1924
g49
(g50
g51
NtRp1925
(dp1926
g54
(dp1927
g62
I3
ssg63
g1921
sg56
(lp1928
S'99'
p1929
asbasbasbag49
(g65
g51
NtRp1930
(dp1931
g54
(dp1932
sg63
g1901
sg56
(lp1933
g49
(g70
g51
NtRp1934
(dp1935
g54
(dp1936
sg63
g1930
sg56
(lp1937
g49
(g50
g51
NtRp1938
(dp1939
g54
(dp1940
g62
I3
ssg63
g1934
sg56
(lp1941
S'7'
asbasbasbag49
(g65
g51
NtRp1942
(dp1943
g54
(dp1944
sg63
g1901
sg56
(lp1945
g49
(g70
g51
NtRp1946
(dp1947
g54
(dp1948
sg63
g1942
sg56
(lp1949
g49
(g50
g51
NtRp1950
(dp1951
g54
(dp1952
g62
I3
ssg63
g1946
sg56
(lp1953
S'datetime.datetime(2012, 3, 4, 22, 12, 8)'
p1954
asbasbasbag49
(g65
g51
NtRp1955
(dp1956
g54
(dp1957
sg63
g1901
sg56
(lp1958
g49
(g70
g51
NtRp1959
(dp1960
g54
(dp1961
sg63
g1955
sg56
(lp1962
g49
(g50
g51
NtRp1963
(dp1964
g54
(dp1965
g62
I3
ssg63
g1959
sg56
(lp1966
g1356
asbasbasbasbasbasbasbasbasbasbasbag49
(g65
g51
NtRp1967
(dp1968
g54
(dp1969
sg63
g59
sg56
(lp1970
g49
(g70
g51
NtRp1971
(dp1972
g54
(dp1973
g74
g75
ssg63
g1967
sg56
(lp1974
S'is_https'
p1975
asbag49
(g70
g51
NtRp1976
(dp1977
g54
(dp1978
g81
g82
ssg63
g1967
sg56
(lp1979
S':'
asbag49
(g70
g51
NtRp1980
(dp1981
g54
(dp1982
sg63
g1967
sg56
(lp1983
g49
(g50
g51
NtRp1984
(dp1985
g54
(dp1986
g62
I5
ssg63
g1980
sg56
(lp1987
g92
asbasbasbag49
(g65
g51
NtRp1988
(dp1989
g54
(dp1990
sg63
g59
sg56
(lp1991
g49
(g70
g51
NtRp1992
(dp1993
g54
(dp1994
g74
g75
ssg63
g1988
sg56
(lp1995
S'is_local'
p1996
asbag49
(g70
g51
NtRp1997
(dp1998
g54
(dp1999
g81
g82
ssg63
g1988
sg56
(lp2000
S':'
asbag49
(g70
g51
NtRp2001
(dp2002
g54
(dp2003
sg63
g1988
sg56
(lp2004
g49
(g50
g51
NtRp2005
(dp2006
g54
(dp2007
g62
I5
ssg63
g2001
sg56
(lp2008
g1465
asbasbasbag49
(g65
g51
NtRp2009
(dp2010
g54
(dp2011
sg63
g59
sg56
(lp2012
g49
(g70
g51
NtRp2013
(dp2014
g54
(dp2015
g74
g75
ssg63
g2009
sg56
(lp2016
S'is_restful'
p2017
asbag49
(g70
g51
NtRp2018
(dp2019
g54
(dp2020
g81
g82
ssg63
g2009
sg56
(lp2021
S':'
asbag49
(g70
g51
NtRp2022
(dp2023
g54
(dp2024
sg63
g2009
sg56
(lp2025
g49
(g50
g51
NtRp2026
(dp2027
g54
(dp2028
g62
I5
ssg63
g2022
sg56
(lp2029
g92
asbasbasbag49
(g65
g51
NtRp2030
(dp2031
g54
(dp2032
sg63
g59
sg56
(lp2033
g49
(g70
g51
NtRp2034
(dp2035
g54
(dp2036
g74
g75
ssg63
g2030
sg56
(lp2037
S'now'
p2038
asbag49
(g70
g51
NtRp2039
(dp2040
g54
(dp2041
g81
g82
ssg63
g2030
sg56
(lp2042
S':'
asbag49
(g70
g51
NtRp2043
(dp2044
g54
(dp2045
sg63
g2030
sg56
(lp2046
g49
(g50
g51
NtRp2047
(dp2048
g54
(dp2049
g62
I5
ssg63
g2043
sg56
(lp2050
S'datetime.datetime(2012, 3, 19, 12, 35, 31, 974005)'
p2051
asbasbasbag49
(g65
g51
NtRp2052
(dp2053
g54
(dp2054
sg63
g59
sg56
(lp2055
g49
(g70
g51
NtRp2056
(dp2057
g54
(dp2058
g74
g75
ssg63
g2052
sg56
(lp2059
S'post_vars'
p2060
asbag49
(g70
g51
NtRp2061
(dp2062
g54
(dp2063
g81
g82
ssg63
g2052
sg56
(lp2064
S':'
asbag49
(g70
g51
NtRp2065
(dp2066
g54
(dp2067
sg63
g2052
sg56
(lp2068
g49
(g50
g51
NtRp2069
(dp2070
g54
(dp2071
g62
I5
ssg63
g2065
sg56
(lp2072
g49
(g58
g51
NtRp2073
(dp2074
g54
(dp2075
g62
I4
ssg63
Nsg56
(lp2076
sbasbasbasbag49
(g65
g51
NtRp2077
(dp2078
g54
(dp2079
sg63
g59
sg56
(lp2080
g49
(g70
g51
NtRp2081
(dp2082
g54
(dp2083
g74
g75
ssg63
g2077
sg56
(lp2084
S'url'
p2085
asbag49
(g70
g51
NtRp2086
(dp2087
g54
(dp2088
g81
g82
ssg63
g2077
sg56
(lp2089
S':'
asbag49
(g70
g51
NtRp2090
(dp2091
g54
(dp2092
sg63
g2077
sg56
(lp2093
g49
(g50
g51
NtRp2094
(dp2095
g54
(dp2096
g62
I5
ssg63
g2090
sg56
(lp2097
S'/add_repin'
p2098
asbasbasbag49
(g65
g51
NtRp2099
(dp2100
g54
(dp2101
sg63
g59
sg56
(lp2102
g49
(g70
g51
NtRp2103
(dp2104
g54
(dp2105
g74
g75
ssg63
g2099
sg56
(lp2106
S'utcnow'
p2107
asbag49
(g70
g51
NtRp2108
(dp2109
g54
(dp2110
g81
g82
ssg63
g2099
sg56
(lp2111
S':'
asbag49
(g70
g51
NtRp2112
(dp2113
g54
(dp2114
sg63
g2099
sg56
(lp2115
g49
(g50
g51
NtRp2116
(dp2117
g54
(dp2118
g62
I5
ssg63
g2112
sg56
(lp2119
S'datetime.datetime(2012, 3, 19, 16, 35, 31, 974018)'
p2120
asbasbasbag49
(g65
g51
NtRp2121
(dp2122
g54
(dp2123
sg63
g59
sg56
(lp2124
g49
(g70
g51
NtRp2125
(dp2126
g54
(dp2127
g74
g75
ssg63
g2121
sg56
(lp2128
S'uuid'
p2129
asbag49
(g70
g51
NtRp2130
(dp2131
g54
(dp2132
g81
g82
ssg63
g2121
sg56
(lp2133
S':'
asbag49
(g70
g51
NtRp2134
(dp2135
g54
(dp2136
sg63
g2121
sg56
(lp2137
g49
(g50
g51
NtRp2138
(dp2139
g54
(dp2140
g62
I5
ssg63
g2134
sg56
(lp2141
S'udi0312/127.0.0.1.2012-03-19.12-35-31.610954c1-5595-4d05-bde5-0ca8e2e58737'
p2142
asbasbasbag49
(g65
g51
NtRp2143
(dp2144
g54
(dp2145
sg63
g59
sg56
(lp2146
g49
(g70
g51
NtRp2147
(dp2148
g54
(dp2149
g74
g75
ssg63
g2143
sg56
(lp2150
S'vars'
p2151
asbag49
(g70
g51
NtRp2152
(dp2153
g54
(dp2154
g81
g82
ssg63
g2143
sg56
(lp2155
S':'
asbag49
(g70
g51
NtRp2156
(dp2157
g54
(dp2158
sg63
g2143
sg56
(lp2159
g49
(g50
g51
NtRp2160
(dp2161
g54
(dp2162
g62
I5
ssg63
g2156
sg56
(lp2163
g49
(g58
g51
NtRp2164
(dp2165
g54
(dp2166
g62
I4
ssg63
Nsg56
(lp2167
sbasbasbasbag49
(g65
g51
NtRp2168
(dp2169
g54
(dp2170
sg63
g59
sg56
(lp2171
g49
(g70
g51
NtRp2172
(dp2173
g54
(dp2174
g74
g75
ssg63
g2168
sg56
(lp2175
S'wsgi'
p2176
asbag49
(g70
g51
NtRp2177
(dp2178
g54
(dp2179
g81
g82
ssg63
g2168
sg56
(lp2180
S':'
asbag49
(g70
g51
NtRp2181
(dp2182
g54
(dp2183
sg63
g2168
sg56
(lp2184
g49
(g50
g51
NtRp2185
(dp2186
g54
(dp2187
g62
I5
ssg63
g2181
sg56
(lp2188
g49
(g58
g51
NtRp2189
(dp2190
g54
(dp2191
g62
I4
ssg63
Nsg56
(lp2192
g49
(g65
g51
NtRp2193
(dp2194
g54
(dp2195
sg63
g2189
sg56
(lp2196
g49
(g70
g51
NtRp2197
(dp2198
g54
(dp2199
g74
g75
ssg63
g2193
sg56
(lp2200
S'environ'
p2201
asbag49
(g70
g51
NtRp2202
(dp2203
g54
(dp2204
g81
g82
ssg63
g2193
sg56
(lp2205
S':'
asbag49
(g70
g51
NtRp2206
(dp2207
g54
(dp2208
sg63
g2193
sg56
(lp2209
g49
(g50
g51
NtRp2210
(dp2211
g54
(dp2212
g62
I4
ssg63
g2206
sg56
(lp2213
g49
(g58
g51
NtRp2214
(dp2215
g54
(dp2216
g62
I3
ssg63
Nsg56
(lp2217
g49
(g65
g51
NtRp2218
(dp2219
g54
(dp2220
sg63
g2214
sg56
(lp2221
g49
(g70
g51
NtRp2222
(dp2223
g54
(dp2224
g74
g75
ssg63
g2218
sg56
(lp2225
S'HTTP_ACCEPT'
p2226
asbag49
(g70
g51
NtRp2227
(dp2228
g54
(dp2229
g81
g82
ssg63
g2218
sg56
(lp2230
S':'
asbag49
(g70
g51
NtRp2231
(dp2232
g54
(dp2233
sg63
g2218
sg56
(lp2234
g49
(g50
g51
NtRp2235
(dp2236
g54
(dp2237
g62
I3
ssg63
g2231
sg56
(lp2238
g769
asbasbasbag49
(g65
g51
NtRp2239
(dp2240
g54
(dp2241
sg63
g2214
sg56
(lp2242
g49
(g70
g51
NtRp2243
(dp2244
g54
(dp2245
g74
g75
ssg63
g2239
sg56
(lp2246
S'HTTP_ACCEPT_CHARSET'
p2247
asbag49
(g70
g51
NtRp2248
(dp2249
g54
(dp2250
g81
g82
ssg63
g2239
sg56
(lp2251
S':'
asbag49
(g70
g51
NtRp2252
(dp2253
g54
(dp2254
sg63
g2239
sg56
(lp2255
g49
(g50
g51
NtRp2256
(dp2257
g54
(dp2258
g62
I3
ssg63
g2252
sg56
(lp2259
g791
asbasbasbag49
(g65
g51
NtRp2260
(dp2261
g54
(dp2262
sg63
g2214
sg56
(lp2263
g49
(g70
g51
NtRp2264
(dp2265
g54
(dp2266
g74
g75
ssg63
g2260
sg56
(lp2267
S'HTTP_ACCEPT_ENCODING'
p2268
asbag49
(g70
g51
NtRp2269
(dp2270
g54
(dp2271
g81
g82
ssg63
g2260
sg56
(lp2272
S':'
asbag49
(g70
g51
NtRp2273
(dp2274
g54
(dp2275
sg63
g2260
sg56
(lp2276
g49
(g50
g51
NtRp2277
(dp2278
g54
(dp2279
g62
I3
ssg63
g2273
sg56
(lp2280
g813
asbasbasbag49
(g65
g51
NtRp2281
(dp2282
g54
(dp2283
sg63
g2214
sg56
(lp2284
g49
(g70
g51
NtRp2285
(dp2286
g54
(dp2287
g74
g75
ssg63
g2281
sg56
(lp2288
S'HTTP_ACCEPT_LANGUAGE'
p2289
asbag49
(g70
g51
NtRp2290
(dp2291
g54
(dp2292
g81
g82
ssg63
g2281
sg56
(lp2293
S':'
asbag49
(g70
g51
NtRp2294
(dp2295
g54
(dp2296
sg63
g2281
sg56
(lp2297
g49
(g50
g51
NtRp2298
(dp2299
g54
(dp2300
g62
I3
ssg63
g2294
sg56
(lp2301
g835
asbasbasbag49
(g65
g51
NtRp2302
(dp2303
g54
(dp2304
sg63
g2214
sg56
(lp2305
g49
(g70
g51
NtRp2306
(dp2307
g54
(dp2308
g74
g75
ssg63
g2302
sg56
(lp2309
S'HTTP_CONNECTION'
p2310
asbag49
(g70
g51
NtRp2311
(dp2312
g54
(dp2313
g81
g82
ssg63
g2302
sg56
(lp2314
S':'
asbag49
(g70
g51
NtRp2315
(dp2316
g54
(dp2317
sg63
g2302
sg56
(lp2318
g49
(g50
g51
NtRp2319
(dp2320
g54
(dp2321
g62
I3
ssg63
g2315
sg56
(lp2322
g857
asbasbasbag49
(g65
g51
NtRp2323
(dp2324
g54
(dp2325
sg63
g2214
sg56
(lp2326
g49
(g70
g51
NtRp2327
(dp2328
g54
(dp2329
g74
g75
ssg63
g2323
sg56
(lp2330
S'HTTP_COOKIE'
p2331
asbag49
(g70
g51
NtRp2332
(dp2333
g54
(dp2334
g81
g82
ssg63
g2323
sg56
(lp2335
S':'
asbag49
(g70
g51
NtRp2336
(dp2337
g54
(dp2338
sg63
g2323
sg56
(lp2339
g49
(g50
g51
NtRp2340
(dp2341
g54
(dp2342
g62
I3
ssg63
g2336
sg56
(lp2343
g879
asbasbasbag49
(g65
g51
NtRp2344
(dp2345
g54
(dp2346
sg63
g2214
sg56
(lp2347
g49
(g70
g51
NtRp2348
(dp2349
g54
(dp2350
g74
g75
ssg63
g2344
sg56
(lp2351
S'HTTP_HOST'
p2352
asbag49
(g70
g51
NtRp2353
(dp2354
g54
(dp2355
g81
g82
ssg63
g2344
sg56
(lp2356
S':'
asbag49
(g70
g51
NtRp2357
(dp2358
g54
(dp2359
sg63
g2344
sg56
(lp2360
g49
(g50
g51
NtRp2361
(dp2362
g54
(dp2363
g62
I3
ssg63
g2357
sg56
(lp2364
g901
asbasbasbag49
(g65
g51
NtRp2365
(dp2366
g54
(dp2367
sg63
g2214
sg56
(lp2368
g49
(g70
g51
NtRp2369
(dp2370
g54
(dp2371
g74
g75
ssg63
g2365
sg56
(lp2372
S'HTTP_USER_AGENT'
p2373
asbag49
(g70
g51
NtRp2374
(dp2375
g54
(dp2376
g81
g82
ssg63
g2365
sg56
(lp2377
S':'
asbag49
(g70
g51
NtRp2378
(dp2379
g54
(dp2380
sg63
g2365
sg56
(lp2381
g49
(g50
g51
NtRp2382
(dp2383
g54
(dp2384
g62
I3
ssg63
g2378
sg56
(lp2385
g923
asbasbasbag49
(g65
g51
NtRp2386
(dp2387
g54
(dp2388
sg63
g2214
sg56
(lp2389
g49
(g70
g51
NtRp2390
(dp2391
g54
(dp2392
g74
g75
ssg63
g2386
sg56
(lp2393
S'PATH_INFO'
p2394
asbag49
(g70
g51
NtRp2395
(dp2396
g54
(dp2397
g81
g82
ssg63
g2386
sg56
(lp2398
S':'
asbag49
(g70
g51
NtRp2399
(dp2400
g54
(dp2401
sg63
g2386
sg56
(lp2402
g49
(g50
g51
NtRp2403
(dp2404
g54
(dp2405
g62
I3
ssg63
g2399
sg56
(lp2406
g987
asbasbasbag49
(g65
g51
NtRp2407
(dp2408
g54
(dp2409
sg63
g2214
sg56
(lp2410
g49
(g70
g51
NtRp2411
(dp2412
g54
(dp2413
g74
g75
ssg63
g2407
sg56
(lp2414
S'QUERY_STRING'
p2415
asbag49
(g70
g51
NtRp2416
(dp2417
g54
(dp2418
g81
g82
ssg63
g2407
sg56
(lp2419
S':'
asbag49
(g70
g51
NtRp2420
(dp2421
g54
(dp2422
sg63
g2407
sg56
(lp2423
g49
(g50
g51
NtRp2424
(dp2425
g54
(dp2426
g62
I3
ssg63
g2420
sg56
(lp2427
S''
asbasbasbag49
(g65
g51
NtRp2428
(dp2429
g54
(dp2430
sg63
g2214
sg56
(lp2431
g49
(g70
g51
NtRp2432
(dp2433
g54
(dp2434
g74
g75
ssg63
g2428
sg56
(lp2435
S'REMOTE_ADDR'
p2436
asbag49
(g70
g51
NtRp2437
(dp2438
g54
(dp2439
g81
g82
ssg63
g2428
sg56
(lp2440
S':'
asbag49
(g70
g51
NtRp2441
(dp2442
g54
(dp2443
sg63
g2428
sg56
(lp2444
g49
(g50
g51
NtRp2445
(dp2446
g54
(dp2447
g62
I3
ssg63
g2441
sg56
(lp2448
g182
asbasbasbag49
(g65
g51
NtRp2449
(dp2450
g54
(dp2451
sg63
g2214
sg56
(lp2452
g49
(g70
g51
NtRp2453
(dp2454
g54
(dp2455
g74
g75
ssg63
g2449
sg56
(lp2456
S'REMOTE_PORT'
p2457
asbag49
(g70
g51
NtRp2458
(dp2459
g54
(dp2460
g81
g82
ssg63
g2449
sg56
(lp2461
S':'
asbag49
(g70
g51
NtRp2462
(dp2463
g54
(dp2464
sg63
g2449
sg56
(lp2465
g49
(g50
g51
NtRp2466
(dp2467
g54
(dp2468
g62
I3
ssg63
g2462
sg56
(lp2469
g1051
asbasbasbag49
(g65
g51
NtRp2470
(dp2471
g54
(dp2472
sg63
g2214
sg56
(lp2473
g49
(g70
g51
NtRp2474
(dp2475
g54
(dp2476
g74
g75
ssg63
g2470
sg56
(lp2477
S'REQUEST_METHOD'
p2478
asbag49
(g70
g51
NtRp2479
(dp2480
g54
(dp2481
g81
g82
ssg63
g2470
sg56
(lp2482
S':'
asbag49
(g70
g51
NtRp2483
(dp2484
g54
(dp2485
sg63
g2470
sg56
(lp2486
g49
(g50
g51
NtRp2487
(dp2488
g54
(dp2489
g62
I3
ssg63
g2483
sg56
(lp2490
g1073
asbasbasbag49
(g65
g51
NtRp2491
(dp2492
g54
(dp2493
sg63
g2214
sg56
(lp2494
g49
(g70
g51
NtRp2495
(dp2496
g54
(dp2497
g74
g75
ssg63
g2491
sg56
(lp2498
S'REQUEST_URI'
p2499
asbag49
(g70
g51
NtRp2500
(dp2501
g54
(dp2502
g81
g82
ssg63
g2491
sg56
(lp2503
S':'
asbag49
(g70
g51
NtRp2504
(dp2505
g54
(dp2506
sg63
g2491
sg56
(lp2507
g49
(g50
g51
NtRp2508
(dp2509
g54
(dp2510
g62
I3
ssg63
g2504
sg56
(lp2511
g987
asbasbasbag49
(g65
g51
NtRp2512
(dp2513
g54
(dp2514
sg63
g2214
sg56
(lp2515
g49
(g70
g51
NtRp2516
(dp2517
g54
(dp2518
g74
g75
ssg63
g2512
sg56
(lp2519
S'SCRIPT_NAME'
p2520
asbag49
(g70
g51
NtRp2521
(dp2522
g54
(dp2523
g81
g82
ssg63
g2512
sg56
(lp2524
S':'
asbag49
(g70
g51
NtRp2525
(dp2526
g54
(dp2527
sg63
g2512
sg56
(lp2528
g49
(g50
g51
NtRp2529
(dp2530
g54
(dp2531
g62
I3
ssg63
g2525
sg56
(lp2532
S''
asbasbasbag49
(g65
g51
NtRp2533
(dp2534
g54
(dp2535
sg63
g2214
sg56
(lp2536
g49
(g70
g51
NtRp2537
(dp2538
g54
(dp2539
g74
g75
ssg63
g2533
sg56
(lp2540
S'SERVER_NAME'
p2541
asbag49
(g70
g51
NtRp2542
(dp2543
g54
(dp2544
g81
g82
ssg63
g2533
sg56
(lp2545
S':'
asbag49
(g70
g51
NtRp2546
(dp2547
g54
(dp2548
sg63
g2533
sg56
(lp2549
g49
(g50
g51
NtRp2550
(dp2551
g54
(dp2552
g62
I3
ssg63
g2546
sg56
(lp2553
g1137
asbasbasbag49
(g65
g51
NtRp2554
(dp2555
g54
(dp2556
sg63
g2214
sg56
(lp2557
g49
(g70
g51
NtRp2558
(dp2559
g54
(dp2560
g74
g75
ssg63
g2554
sg56
(lp2561
S'SERVER_PORT'
p2562
asbag49
(g70
g51
NtRp2563
(dp2564
g54
(dp2565
g81
g82
ssg63
g2554
sg56
(lp2566
S':'
asbag49
(g70
g51
NtRp2567
(dp2568
g54
(dp2569
sg63
g2554
sg56
(lp2570
g49
(g50
g51
NtRp2571
(dp2572
g54
(dp2573
g62
I3
ssg63
g2567
sg56
(lp2574
g1159
asbasbasbag49
(g65
g51
NtRp2575
(dp2576
g54
(dp2577
sg63
g2214
sg56
(lp2578
g49
(g70
g51
NtRp2579
(dp2580
g54
(dp2581
g74
g75
ssg63
g2575
sg56
(lp2582
S'SERVER_PROTOCOL'
p2583
asbag49
(g70
g51
NtRp2584
(dp2585
g54
(dp2586
g81
g82
ssg63
g2575
sg56
(lp2587
S':'
asbag49
(g70
g51
NtRp2588
(dp2589
g54
(dp2590
sg63
g2575
sg56
(lp2591
g49
(g50
g51
NtRp2592
(dp2593
g54
(dp2594
g62
I3
ssg63
g2588
sg56
(lp2595
g1181
asbasbasbag49
(g65
g51
NtRp2596
(dp2597
g54
(dp2598
sg63
g2214
sg56
(lp2599
g49
(g70
g51
NtRp2600
(dp2601
g54
(dp2602
g74
g75
ssg63
g2596
sg56
(lp2603
S'SERVER_SOFTWARE'
p2604
asbag49
(g70
g51
NtRp2605
(dp2606
g54
(dp2607
g81
g82
ssg63
g2596
sg56
(lp2608
S':'
asbag49
(g70
g51
NtRp2609
(dp2610
g54
(dp2611
sg63
g2596
sg56
(lp2612
g49
(g50
g51
NtRp2613
(dp2614
g54
(dp2615
g62
I3
ssg63
g2609
sg56
(lp2616
g1203
asbasbasbag49
(g65
g51
NtRp2617
(dp2618
g54
(dp2619
sg63
g2214
sg56
(lp2620
g49
(g70
g51
NtRp2621
(dp2622
g54
(dp2623
g74
g75
ssg63
g2617
sg56
(lp2624
S'WEB2PY_ORIGINAL_URI'
p2625
asbag49
(g70
g51
NtRp2626
(dp2627
g54
(dp2628
g81
g82
ssg63
g2617
sg56
(lp2629
S':'
asbag49
(g70
g51
NtRp2630
(dp2631
g54
(dp2632
sg63
g2617
sg56
(lp2633
g49
(g50
g51
NtRp2634
(dp2635
g54
(dp2636
g62
I3
ssg63
g2630
sg56
(lp2637
g1247
asbasbasbag49
(g65
g51
NtRp2638
(dp2639
g54
(dp2640
sg63
g2214
sg56
(lp2641
g49
(g70
g51
NtRp2642
(dp2643
g54
(dp2644
g74
g75
ssg63
g2638
sg56
(lp2645
S'wsgi.errors'
p2646
asbag49
(g70
g51
NtRp2647
(dp2648
g54
(dp2649
g81
g82
ssg63
g2638
sg56
(lp2650
S':'
asbag49
(g70
g51
NtRp2651
(dp2652
g54
(dp2653
sg63
g2638
sg56
(lp2654
g49
(g50
g51
NtRp2655
(dp2656
g54
(dp2657
g62
I3
ssg63
g2651
sg56
(lp2658
S"<open file '<stderr>', mode 'w' at 0x4220b0>"
p2659
asbasbasbag49
(g65
g51
NtRp2660
(dp2661
g54
(dp2662
sg63
g2214
sg56
(lp2663
g49
(g70
g51
NtRp2664
(dp2665
g54
(dp2666
g74
g75
ssg63
g2660
sg56
(lp2667
S'wsgi.file_wrapper'
p2668
asbag49
(g70
g51
NtRp2669
(dp2670
g54
(dp2671
g81
g82
ssg63
g2660
sg56
(lp2672
S':'
asbag49
(g70
g51
NtRp2673
(dp2674
g54
(dp2675
sg63
g2660
sg56
(lp2676
g49
(g50
g51
NtRp2677
(dp2678
g54
(dp2679
g62
I3
ssg63
g2673
sg56
(lp2680
S'<class wsgiref.util.FileWrapper at 0x225e6c0>'
p2681
asbasbasbag49
(g65
g51
NtRp2682
(dp2683
g54
(dp2684
sg63
g2214
sg56
(lp2685
g49
(g70
g51
NtRp2686
(dp2687
g54
(dp2688
g74
g75
ssg63
g2682
sg56
(lp2689
S'wsgi.input'
p2690
asbag49
(g70
g51
NtRp2691
(dp2692
g54
(dp2693
g81
g82
ssg63
g2682
sg56
(lp2694
S':'
asbag49
(g70
g51
NtRp2695
(dp2696
g54
(dp2697
sg63
g2682
sg56
(lp2698
g49
(g50
g51
NtRp2699
(dp2700
g54
(dp2701
g62
I3
ssg63
g2695
sg56
(lp2702
S'<cStringIO.StringO object at 0x8ebc9e0>'
p2703
asbasbasbag49
(g65
g51
NtRp2704
(dp2705
g54
(dp2706
sg63
g2214
sg56
(lp2707
g49
(g70
g51
NtRp2708
(dp2709
g54
(dp2710
g74
g75
ssg63
g2704
sg56
(lp2711
S'wsgi.multiprocess'
p2712
asbag49
(g70
g51
NtRp2713
(dp2714
g54
(dp2715
g81
g82
ssg63
g2704
sg56
(lp2716
S':'
asbag49
(g70
g51
NtRp2717
(dp2718
g54
(dp2719
sg63
g2704
sg56
(lp2720
g49
(g50
g51
NtRp2721
(dp2722
g54
(dp2723
g62
I3
ssg63
g2717
sg56
(lp2724
g92
asbasbasbag49
(g65
g51
NtRp2725
(dp2726
g54
(dp2727
sg63
g2214
sg56
(lp2728
g49
(g70
g51
NtRp2729
(dp2730
g54
(dp2731
g74
g75
ssg63
g2725
sg56
(lp2732
S'wsgi.multithread'
p2733
asbag49
(g70
g51
NtRp2734
(dp2735
g54
(dp2736
g81
g82
ssg63
g2725
sg56
(lp2737
S':'
asbag49
(g70
g51
NtRp2738
(dp2739
g54
(dp2740
sg63
g2725
sg56
(lp2741
g49
(g50
g51
NtRp2742
(dp2743
g54
(dp2744
g62
I3
ssg63
g2738
sg56
(lp2745
g1465
asbasbasbag49
(g65
g51
NtRp2746
(dp2747
g54
(dp2748
sg63
g2214
sg56
(lp2749
g49
(g70
g51
NtRp2750
(dp2751
g54
(dp2752
g74
g75
ssg63
g2746
sg56
(lp2753
S'wsgi.run_once'
p2754
asbag49
(g70
g51
NtRp2755
(dp2756
g54
(dp2757
g81
g82
ssg63
g2746
sg56
(lp2758
S':'
asbag49
(g70
g51
NtRp2759
(dp2760
g54
(dp2761
sg63
g2746
sg56
(lp2762
g49
(g50
g51
NtRp2763
(dp2764
g54
(dp2765
g62
I3
ssg63
g2759
sg56
(lp2766
g92
asbasbasbag49
(g65
g51
NtRp2767
(dp2768
g54
(dp2769
sg63
g2214
sg56
(lp2770
g49
(g70
g51
NtRp2771
(dp2772
g54
(dp2773
g74
g75
ssg63
g2767
sg56
(lp2774
S'wsgi.url_scheme'
p2775
asbag49
(g70
g51
NtRp2776
(dp2777
g54
(dp2778
g81
g82
ssg63
g2767
sg56
(lp2779
S':'
asbag49
(g70
g51
NtRp2780
(dp2781
g54
(dp2782
sg63
g2767
sg56
(lp2783
g49
(g50
g51
NtRp2784
(dp2785
g54
(dp2786
g62
I3
ssg63
g2780
sg56
(lp2787
g1508
asbasbasbag49
(g65
g51
NtRp2788
(dp2789
g54
(dp2790
sg63
g2214
sg56
(lp2791
g49
(g70
g51
NtRp2792
(dp2793
g54
(dp2794
g74
g75
ssg63
g2788
sg56
(lp2795
S'wsgi.version'
p2796
asbag49
(g70
g51
NtRp2797
(dp2798
g54
(dp2799
g81
g82
ssg63
g2788
sg56
(lp2800
S':'
asbag49
(g70
g51
NtRp2801
(dp2802
g54
(dp2803
sg63
g2788
sg56
(lp2804
g49
(g50
g51
NtRp2805
(dp2806
g54
(dp2807
g62
I3
ssg63
g2801
sg56
(lp2808
S'1'
asbasbasbasbasbasbasbasbasbasbasbasbasbsS'frames'
p2809
(lp2810
(dp2811
S'file'
p2812
S'/users/udimilo/Documents/web2py/gluon/restricted.py'
p2813
sS'dump'
p2814
(dp2815
S'environment'
p2816
S"{'A': <class 'gluon.html.A'>, 'Auth': <class 'gluon.tools.Auth'>, 'B': <class 'gluon.html.B'>, 'BEAUTIFY': <class 'gluon.html.BEAUTIFY'>, 'BODY': <class 'gluon.html.BODY'>, 'BR': <class 'gluon.html.BR'>, 'BUTTON': <class 'gluon.html.BUTTON'>, 'CAT': <class 'gluon.html.CAT'>, 'CENTER': <class 'gluon.html.CENTER'>, 'CLEANUP': <class 'gluon.validators.CLEANUP'>, ...}"
p2817
sS'ccode'
p2818
S'<code object <module> at 0xa1957b8, file "/Users...ications/udi0312/controllers/default.py", line 2>'
p2819
ssS'lnum'
p2820
I205
sS'lines'
p2821
(dp2822
I200
S'    try:'
p2823
sI201
S'        if type(code) == types.CodeType:'
p2824
sI202
S'            ccode = code'
p2825
sI203
S'        else:'
p2826
sI204
S'            ccode = compile2(code,layer)'
p2827
sI205
S'        exec ccode in environment'
p2828
sI206
S'    except HTTP:'
p2829
sI207
S'        raise'
p2830
sI208
S'    except RestrictedError:'
p2831
sI209
S'        # do not encapsulate (obfuscate) the original RestrictedError'
p2832
ssS'call'
p2833
S"(code='# -*- coding: utf-8 -*-\\nfrom readability import ...d())\\n\\nresponse._vars=response._caller(add_repin)\\n', environment={'A': <class 'gluon.html.A'>, 'Auth': <class 'gluon.tools.Auth'>, 'B': <class 'gluon.html.B'>, 'BEAUTIFY': <class 'gluon.html.BEAUTIFY'>, 'BODY': <class 'gluon.html.BODY'>, 'BR': <class 'gluon.html.BR'>, 'BUTTON': <class 'gluon.html.BUTTON'>, 'CAT': <class 'gluon.html.CAT'>, 'CENTER': <class 'gluon.html.CENTER'>, 'CLEANUP': <class 'gluon.validators.CLEANUP'>, ...}, layer='/Users/udimilo/Documents/web2py/applications/udi0312/controllers/default.py')"
p2834
sS'func'
p2835
S'restricted'
p2836
sa(dp2837
g2812
S'/Users/udimilo/Documents/web2py/applications/udi0312/controllers/default.py'
p2838
sg2814
(dp2839
sg2820
I162
sg2821
(dp2840
I160
S'    return dict(form=crud())'
p2841
sI151
S'    http://..../[app]/default/data/update/[table]/[id]'
p2842
sI152
S'    http://..../[app]/default/data/delete/[table]/[id]'
p2843
sI153
S'    http://..../[app]/default/data/select/[table]'
p2844
sI154
S'    http://..../[app]/default/data/search/[table]'
p2845
sI155
S'    but URLs must be signed, i.e. linked with'
p2846
sI156
S"      A('table',_href=URL('data/tables',user_signature=True))"
p2847
sI157
S'    or with the signed load operator'
p2848
sI158
S"      LOAD('default','data.load',args='tables',ajax=True,user_signature=True)"
p2849
sI159
S'    """'
p2850
ssg2833
S'()'
p2851
sg2835
S'<module>'
p2852
sa(dp2853
g2812
S'/users/udimilo/Documents/web2py/gluon/globals.py'
p2854
sg2814
(dp2855
S'self'
p2856
S'undefined'
p2857
sS'f'
S'<function add_repin at 0xa331330>'
p2858
ssg2820
I173
sg2821
(dp2859
I168
S'        self.menu = []             # used by the default view layout'
p2860
sI169
S'        self.files = []            # used by web2py_ajax.html'
p2861
sI170
S'        self.generic_patterns = [] # patterns to allow generic views'
p2862
sI171
S"        self.delimiters = ('{{','}}')"
p2863
sI172
S'        self._vars = None'
p2864
sI173
S'        self._caller = lambda f: f()'
p2865
sI174
S'        self._view_environment = None'
p2866
sI175
S'        self._custom_commit = None'
p2867
sI176
S'        self._custom_rollback = None'
p2868
sI177
S''
ssg2833
S'(f=<function add_repin at 0xa331330>)'
p2869
sg2835
S'<lambda>'
p2870
sa(dp2871
g2812
S'/Users/udimilo/Documents/web2py/applications/udi0312/controllers/default.py'
p2872
sg2814
(dp2873
S'auth.user.id'
p2874
S'1'
sS'db.board'
p2875
S"<Table {'category': <gluon.dal.Field object at 0...0>, 'id': <gluon.dal.Field object at 0x9fbf730>}>"
p2876
sS'db.board.user'
p2877
S'<gluon.dal.Field object at 0x9fbfa70>'
p2878
sS'auth.user'
p2879
S"<Storage {'first_name': 'Udi', 'last_name': 'Mil...484a3f64a3468', 'registration_key': '', 'id': 1}>"
p2880
sS').select'
p2881
g2857
sS'global auth'
p2882
S'<gluon.tools.Auth object at 0xa1905f0>'
p2883
sS'board_name'
p2884
S'None'
p2885
sS'db.board.name'
p2886
S'<gluon.dal.Field object at 0x9fbf570>'
p2887
sS'board'
p2888
g2857
sS'global db'
p2889
S"<DAL {'auth_event': <Table {'origin': <gluon.dal...n_key': <gluon.dal.Field object at 0xa190310>}>}>"
p2890
ssg2820
I36
sg2821
(dp2891
I32
S''
sI33
S'def add_repin():'
p2892
sI34
S'    id = request.vars.id'
p2893
sI35
S'    board_name = request.vars.repin_board'
p2894
sI36
S'    board = db.board((db.board.user==auth.user.id)&(db.board.name==board_name)).select().first()'
p2895
sI37
S'    pin = db.pin(id)'
p2896
sI38
S'    return board'
p2897
sI39
S'    new_pin = db.pin.insert(article=pin.article.id, board=board.id)'
p2898
sI40
S'    return new_pin.id'
p2899
sI31
S'    return dict(pins=pins, show_pinner=True)'
p2900
ssg2833
S'()'
p2901
sg2835
S'add_repin'
p2902
sasS'pyver'
p2903
S'Python 2.5.4: /Library/Frameworks/Python.framework/Versions/2.5/Resources/Python.app/Contents/MacOS/Python'
p2904
sS'session'
p2905
g49
(g50
g51
NtRp2906
(dp2907
g54
(dp2908
sg56
(lp2909
g49
(g58
g51
NtRp2910
(dp2911
g54
(dp2912
g62
I5
ssg63
Nsg56
(lp2913
g49
(g65
g51
NtRp2914
(dp2915
g54
(dp2916
sg63
g2910
sg56
(lp2917
g49
(g70
g51
NtRp2918
(dp2919
g54
(dp2920
g74
g75
ssg63
g2914
sg56
(lp2921
S'auth'
p2922
asbag49
(g70
g51
NtRp2923
(dp2924
g54
(dp2925
g81
g82
ssg63
g2914
sg56
(lp2926
S':'
asbag49
(g70
g51
NtRp2927
(dp2928
g54
(dp2929
sg63
g2914
sg56
(lp2930
g49
(g50
g51
NtRp2931
(dp2932
g54
(dp2933
g62
I5
ssg63
g2927
sg56
(lp2934
g49
(g58
g51
NtRp2935
(dp2936
g54
(dp2937
g62
I4
ssg63
Nsg56
(lp2938
g49
(g65
g51
NtRp2939
(dp2940
g54
(dp2941
sg63
g2935
sg56
(lp2942
g49
(g70
g51
NtRp2943
(dp2944
g54
(dp2945
g74
g75
ssg63
g2939
sg56
(lp2946
S'expiration'
p2947
asbag49
(g70
g51
NtRp2948
(dp2949
g54
(dp2950
g81
g82
ssg63
g2939
sg56
(lp2951
S':'
asbag49
(g70
g51
NtRp2952
(dp2953
g54
(dp2954
sg63
g2939
sg56
(lp2955
g49
(g50
g51
NtRp2956
(dp2957
g54
(dp2958
g62
I4
ssg63
g2952
sg56
(lp2959
S'3600'
p2960
asbasbasbag49
(g65
g51
NtRp2961
(dp2962
g54
(dp2963
sg63
g2935
sg56
(lp2964
g49
(g70
g51
NtRp2965
(dp2966
g54
(dp2967
g74
g75
ssg63
g2961
sg56
(lp2968
S'hmac_key'
p2969
asbag49
(g70
g51
NtRp2970
(dp2971
g54
(dp2972
g81
g82
ssg63
g2961
sg56
(lp2973
S':'
asbag49
(g70
g51
NtRp2974
(dp2975
g54
(dp2976
sg63
g2961
sg56
(lp2977
g49
(g50
g51
NtRp2978
(dp2979
g54
(dp2980
g62
I4
ssg63
g2974
sg56
(lp2981
S'03a7b695-3166-4cc7-a732-4bee2d1f5f1e'
p2982
asbasbasbag49
(g65
g51
NtRp2983
(dp2984
g54
(dp2985
sg63
g2935
sg56
(lp2986
g49
(g70
g51
NtRp2987
(dp2988
g54
(dp2989
g74
g75
ssg63
g2983
sg56
(lp2990
S'last_visit'
p2991
asbag49
(g70
g51
NtRp2992
(dp2993
g54
(dp2994
g81
g82
ssg63
g2983
sg56
(lp2995
S':'
asbag49
(g70
g51
NtRp2996
(dp2997
g54
(dp2998
sg63
g2983
sg56
(lp2999
g49
(g50
g51
NtRp3000
(dp3001
g54
(dp3002
g62
I4
ssg63
g2996
sg56
(lp3003
S'datetime.datetime(2012, 3, 19, 12, 32, 42, 529388)'
p3004
asbasbasbag49
(g65
g51
NtRp3005
(dp3006
g54
(dp3007
sg63
g2935
sg56
(lp3008
g49
(g70
g51
NtRp3009
(dp3010
g54
(dp3011
g74
g75
ssg63
g3005
sg56
(lp3012
S'remember'
p3013
asbag49
(g70
g51
NtRp3014
(dp3015
g54
(dp3016
g81
g82
ssg63
g3005
sg56
(lp3017
S':'
asbag49
(g70
g51
NtRp3018
(dp3019
g54
(dp3020
sg63
g3005
sg56
(lp3021
g49
(g50
g51
NtRp3022
(dp3023
g54
(dp3024
g62
I4
ssg63
g3018
sg56
(lp3025
g92
asbasbasbag49
(g65
g51
NtRp3026
(dp3027
g54
(dp3028
sg63
g2935
sg56
(lp3029
g49
(g70
g51
NtRp3030
(dp3031
g54
(dp3032
g74
g75
ssg63
g3026
sg56
(lp3033
S'user'
p3034
asbag49
(g70
g51
NtRp3035
(dp3036
g54
(dp3037
g81
g82
ssg63
g3026
sg56
(lp3038
S':'
asbag49
(g70
g51
NtRp3039
(dp3040
g54
(dp3041
sg63
g3026
sg56
(lp3042
g49
(g50
g51
NtRp3043
(dp3044
g54
(dp3045
g62
I4
ssg63
g3039
sg56
(lp3046
g49
(g58
g51
NtRp3047
(dp3048
g54
(dp3049
g62
I3
ssg63
Nsg56
(lp3050
g49
(g65
g51
NtRp3051
(dp3052
g54
(dp3053
sg63
g3047
sg56
(lp3054
g49
(g70
g51
NtRp3055
(dp3056
g54
(dp3057
g74
g75
ssg63
g3051
sg56
(lp3058
S'email'
p3059
asbag49
(g70
g51
NtRp3060
(dp3061
g54
(dp3062
g81
g82
ssg63
g3051
sg56
(lp3063
S':'
asbag49
(g70
g51
NtRp3064
(dp3065
g54
(dp3066
sg63
g3051
sg56
(lp3067
g49
(g50
g51
NtRp3068
(dp3069
g54
(dp3070
g62
I3
ssg63
g3064
sg56
(lp3071
S'udimilo@gmail.com'
p3072
asbasbasbag49
(g65
g51
NtRp3073
(dp3074
g54
(dp3075
sg63
g3047
sg56
(lp3076
g49
(g70
g51
NtRp3077
(dp3078
g54
(dp3079
g74
g75
ssg63
g3073
sg56
(lp3080
S'first_name'
p3081
asbag49
(g70
g51
NtRp3082
(dp3083
g54
(dp3084
g81
g82
ssg63
g3073
sg56
(lp3085
S':'
asbag49
(g70
g51
NtRp3086
(dp3087
g54
(dp3088
sg63
g3073
sg56
(lp3089
g49
(g50
g51
NtRp3090
(dp3091
g54
(dp3092
g62
I3
ssg63
g3086
sg56
(lp3093
S'Udi'
p3094
asbasbasbag49
(g65
g51
NtRp3095
(dp3096
g54
(dp3097
sg63
g3047
sg56
(lp3098
g49
(g70
g51
NtRp3099
(dp3100
g54
(dp3101
g74
g75
ssg63
g3095
sg56
(lp3102
S'id'
p3103
asbag49
(g70
g51
NtRp3104
(dp3105
g54
(dp3106
g81
g82
ssg63
g3095
sg56
(lp3107
S':'
asbag49
(g70
g51
NtRp3108
(dp3109
g54
(dp3110
sg63
g3095
sg56
(lp3111
g49
(g50
g51
NtRp3112
(dp3113
g54
(dp3114
g62
I3
ssg63
g3108
sg56
(lp3115
S'1'
asbasbasbag49
(g65
g51
NtRp3116
(dp3117
g54
(dp3118
sg63
g3047
sg56
(lp3119
g49
(g70
g51
NtRp3120
(dp3121
g54
(dp3122
g74
g75
ssg63
g3116
sg56
(lp3123
S'last_name'
p3124
asbag49
(g70
g51
NtRp3125
(dp3126
g54
(dp3127
g81
g82
ssg63
g3116
sg56
(lp3128
S':'
asbag49
(g70
g51
NtRp3129
(dp3130
g54
(dp3131
sg63
g3116
sg56
(lp3132
g49
(g50
g51
NtRp3133
(dp3134
g54
(dp3135
g62
I3
ssg63
g3129
sg56
(lp3136
S'Milo'
p3137
asbasbasbag49
(g65
g51
NtRp3138
(dp3139
g54
(dp3140
sg63
g3047
sg56
(lp3141
g49
(g70
g51
NtRp3142
(dp3143
g54
(dp3144
g74
g75
ssg63
g3138
sg56
(lp3145
S'password'
p3146
asbag49
(g70
g51
NtRp3147
(dp3148
g54
(dp3149
g81
g82
ssg63
g3138
sg56
(lp3150
S':'
asbag49
(g70
g51
NtRp3151
(dp3152
g54
(dp3153
sg63
g3138
sg56
(lp3154
g49
(g50
g51
NtRp3155
(dp3156
g54
(dp3157
g62
I3
ssg63
g3151
sg56
(lp3158
S'7a6e3c6a68ceed66634484a3f64a3468'
p3159
asbasbasbag49
(g65
g51
NtRp3160
(dp3161
g54
(dp3162
sg63
g3047
sg56
(lp3163
g49
(g70
g51
NtRp3164
(dp3165
g54
(dp3166
g74
g75
ssg63
g3160
sg56
(lp3167
S'registration_id'
p3168
asbag49
(g70
g51
NtRp3169
(dp3170
g54
(dp3171
g81
g82
ssg63
g3160
sg56
(lp3172
S':'
asbag49
(g70
g51
NtRp3173
(dp3174
g54
(dp3175
sg63
g3160
sg56
(lp3176
g49
(g50
g51
NtRp3177
(dp3178
g54
(dp3179
g62
I3
ssg63
g3173
sg56
(lp3180
S''
asbasbasbag49
(g65
g51
NtRp3181
(dp3182
g54
(dp3183
sg63
g3047
sg56
(lp3184
g49
(g70
g51
NtRp3185
(dp3186
g54
(dp3187
g74
g75
ssg63
g3181
sg56
(lp3188
S'registration_key'
p3189
asbag49
(g70
g51
NtRp3190
(dp3191
g54
(dp3192
g81
g82
ssg63
g3181
sg56
(lp3193
S':'
asbag49
(g70
g51
NtRp3194
(dp3195
g54
(dp3196
sg63
g3181
sg56
(lp3197
g49
(g50
g51
NtRp3198
(dp3199
g54
(dp3200
g62
I3
ssg63
g3194
sg56
(lp3201
S''
asbasbasbag49
(g65
g51
NtRp3202
(dp3203
g54
(dp3204
sg63
g3047
sg56
(lp3205
g49
(g70
g51
NtRp3206
(dp3207
g54
(dp3208
g74
g75
ssg63
g3202
sg56
(lp3209
S'reset_password_key'
p3210
asbag49
(g70
g51
NtRp3211
(dp3212
g54
(dp3213
g81
g82
ssg63
g3202
sg56
(lp3214
S':'
asbag49
(g70
g51
NtRp3215
(dp3216
g54
(dp3217
sg63
g3202
sg56
(lp3218
g49
(g50
g51
NtRp3219
(dp3220
g54
(dp3221
g62
I3
ssg63
g3215
sg56
(lp3222
S''
asbasbasbasbasbasbasbag49
(g65
g51
NtRp3223
(dp3224
g54
(dp3225
sg63
g2935
sg56
(lp3226
g49
(g70
g51
NtRp3227
(dp3228
g54
(dp3229
g74
g75
ssg63
g3223
sg56
(lp3230
S'user_groups'
p3231
asbag49
(g70
g51
NtRp3232
(dp3233
g54
(dp3234
g81
g82
ssg63
g3223
sg56
(lp3235
S':'
asbag49
(g70
g51
NtRp3236
(dp3237
g54
(dp3238
sg63
g3223
sg56
(lp3239
g49
(g50
g51
NtRp3240
(dp3241
g54
(dp3242
g62
I4
ssg63
g3236
sg56
(lp3243
g49
(g58
g51
NtRp3244
(dp3245
g54
(dp3246
g62
I3
ssg63
Nsg56
(lp3247
g49
(g65
g51
NtRp3248
(dp3249
g54
(dp3250
sg63
g3244
sg56
(lp3251
g49
(g70
g51
NtRp3252
(dp3253
g54
(dp3254
g74
g75
ssg63
g3248
sg56
(lp3255
S'1'
asbag49
(g70
g51
NtRp3256
(dp3257
g54
(dp3258
g81
g82
ssg63
g3248
sg56
(lp3259
S':'
asbag49
(g70
g51
NtRp3260
(dp3261
g54
(dp3262
sg63
g3248
sg56
(lp3263
g49
(g50
g51
NtRp3264
(dp3265
g54
(dp3266
g62
I3
ssg63
g3260
sg56
(lp3267
S'user_1'
p3268
asbasbasbasbasbasbasbasbasbasbasbag49
(g65
g51
NtRp3269
(dp3270
g54
(dp3271
sg63
g2910
sg56
(lp3272
g49
(g70
g51
NtRp3273
(dp3274
g54
(dp3275
g74
g75
ssg63
g3269
sg56
(lp3276
S'last_query'
p3277
asbag49
(g70
g51
NtRp3278
(dp3279
g54
(dp3280
g81
g82
ssg63
g3269
sg56
(lp3281
S':'
asbag49
(g70
g51
NtRp3282
(dp3283
g54
(dp3284
sg63
g3269
sg56
(lp3285
g49
(g50
g51
NtRp3286
(dp3287
g54
(dp3288
g62
I5
ssg63
g3282
sg56
(lp3289
S'db.auth_user.id>0'
p3290
asbasbasbasbasbsS'etype'
p3291
S"<type 'exceptions.AttributeError'>"
p3292
sS'date'
p3293
S'Mon Mar 19 12:35:32 2012'
p3294
sS'response'
p3295
g49
(g50
g51
NtRp3296
(dp3297
g54
(dp3298
sg56
(lp3299
g49
(g58
g51
NtRp3300
(dp3301
g54
(dp3302
g62
I5
ssg63
Nsg56
(lp3303
g49
(g65
g51
NtRp3304
(dp3305
g54
(dp3306
sg63
g3300
sg56
(lp3307
g49
(g70
g51
NtRp3308
(dp3309
g54
(dp3310
g74
g75
ssg63
g3304
sg56
(lp3311
g147
asbag49
(g70
g51
NtRp3312
(dp3313
g54
(dp3314
g81
g82
ssg63
g3304
sg56
(lp3315
S':'
asbag49
(g70
g51
NtRp3316
(dp3317
g54
(dp3318
sg63
g3304
sg56
(lp3319
g49
(g50
g51
NtRp3320
(dp3321
g54
(dp3322
g62
I5
ssg63
g3316
sg56
(lp3323
S'<cStringIO.StringO object at 0x9fbb060>'
p3324
asbasbasbag49
(g65
g51
NtRp3325
(dp3326
g54
(dp3327
sg63
g3300
sg56
(lp3328
g49
(g70
g51
NtRp3329
(dp3330
g54
(dp3331
g74
g75
ssg63
g3325
sg56
(lp3332
g213
asbag49
(g70
g51
NtRp3333
(dp3334
g54
(dp3335
g81
g82
ssg63
g3325
sg56
(lp3336
S':'
asbag49
(g70
g51
NtRp3337
(dp3338
g54
(dp3339
sg63
g3325
sg56
(lp3340
g49
(g50
g51
NtRp3341
(dp3342
g54
(dp3343
g62
I5
ssg63
g3337
sg56
(lp3344
g49
(g58
g51
NtRp3345
(dp3346
g54
(dp3347
g62
I4
ssg63
Nsg56
(lp3348
g49
(g65
g51
NtRp3349
(dp3350
g54
(dp3351
sg63
g3345
sg56
(lp3352
g49
(g70
g51
NtRp3353
(dp3354
g54
(dp3355
g74
g75
ssg63
g3349
sg56
(lp3356
S'session_id_udi0312'
p3357
asbag49
(g70
g51
NtRp3358
(dp3359
g54
(dp3360
g81
g82
ssg63
g3349
sg56
(lp3361
S':'
asbag49
(g70
g51
NtRp3362
(dp3363
g54
(dp3364
sg63
g3349
sg56
(lp3365
g49
(g50
g51
NtRp3366
(dp3367
g54
(dp3368
g62
I4
ssg63
g3362
sg56
(lp3369
g49
(g58
g51
NtRp3370
(dp3371
g54
(dp3372
g62
I3
ssg63
Nsg56
(lp3373
g49
(g65
g51
NtRp3374
(dp3375
g54
(dp3376
sg63
g3370
sg56
(lp3377
g49
(g70
g51
NtRp3378
(dp3379
g54
(dp3380
g74
g75
ssg63
g3374
sg56
(lp3381
g263
asbag49
(g70
g51
NtRp3382
(dp3383
g54
(dp3384
g81
g82
ssg63
g3374
sg56
(lp3385
S':'
asbag49
(g70
g51
NtRp3386
(dp3387
g54
(dp3388
sg63
g3374
sg56
(lp3389
g49
(g50
g51
NtRp3390
(dp3391
g54
(dp3392
g62
I3
ssg63
g3386
sg56
(lp3393
S''
asbasbasbag49
(g65
g51
NtRp3394
(dp3395
g54
(dp3396
sg63
g3370
sg56
(lp3397
g49
(g70
g51
NtRp3398
(dp3399
g54
(dp3400
g74
g75
ssg63
g3394
sg56
(lp3401
g284
asbag49
(g70
g51
NtRp3402
(dp3403
g54
(dp3404
g81
g82
ssg63
g3394
sg56
(lp3405
S':'
asbag49
(g70
g51
NtRp3406
(dp3407
g54
(dp3408
sg63
g3394
sg56
(lp3409
g49
(g50
g51
NtRp3410
(dp3411
g54
(dp3412
g62
I3
ssg63
g3406
sg56
(lp3413
S''
asbasbasbag49
(g65
g51
NtRp3414
(dp3415
g54
(dp3416
sg63
g3370
sg56
(lp3417
g49
(g70
g51
NtRp3418
(dp3419
g54
(dp3420
g74
g75
ssg63
g3414
sg56
(lp3421
g305
asbag49
(g70
g51
NtRp3422
(dp3423
g54
(dp3424
g81
g82
ssg63
g3414
sg56
(lp3425
S':'
asbag49
(g70
g51
NtRp3426
(dp3427
g54
(dp3428
sg63
g3414
sg56
(lp3429
g49
(g50
g51
NtRp3430
(dp3431
g54
(dp3432
g62
I3
ssg63
g3426
sg56
(lp3433
S''
asbasbasbag49
(g65
g51
NtRp3434
(dp3435
g54
(dp3436
sg63
g3370
sg56
(lp3437
g49
(g70
g51
NtRp3438
(dp3439
g54
(dp3440
g74
g75
ssg63
g3434
sg56
(lp3441
g326
asbag49
(g70
g51
NtRp3442
(dp3443
g54
(dp3444
g81
g82
ssg63
g3434
sg56
(lp3445
S':'
asbag49
(g70
g51
NtRp3446
(dp3447
g54
(dp3448
sg63
g3434
sg56
(lp3449
g49
(g50
g51
NtRp3450
(dp3451
g54
(dp3452
g62
I3
ssg63
g3446
sg56
(lp3453
S''
asbasbasbag49
(g65
g51
NtRp3454
(dp3455
g54
(dp3456
sg63
g3370
sg56
(lp3457
g49
(g70
g51
NtRp3458
(dp3459
g54
(dp3460
g74
g75
ssg63
g3454
sg56
(lp3461
g347
asbag49
(g70
g51
NtRp3462
(dp3463
g54
(dp3464
g81
g82
ssg63
g3454
sg56
(lp3465
S':'
asbag49
(g70
g51
NtRp3466
(dp3467
g54
(dp3468
sg63
g3454
sg56
(lp3469
g49
(g50
g51
NtRp3470
(dp3471
g54
(dp3472
g62
I3
ssg63
g3466
sg56
(lp3473
S'/'
asbasbasbag49
(g65
g51
NtRp3474
(dp3475
g54
(dp3476
sg63
g3370
sg56
(lp3477
g49
(g70
g51
NtRp3478
(dp3479
g54
(dp3480
g74
g75
ssg63
g3474
sg56
(lp3481
g368
asbag49
(g70
g51
NtRp3482
(dp3483
g54
(dp3484
g81
g82
ssg63
g3474
sg56
(lp3485
S':'
asbag49
(g70
g51
NtRp3486
(dp3487
g54
(dp3488
sg63
g3474
sg56
(lp3489
g49
(g50
g51
NtRp3490
(dp3491
g54
(dp3492
g62
I3
ssg63
g3486
sg56
(lp3493
S''
asbasbasbag49
(g65
g51
NtRp3494
(dp3495
g54
(dp3496
sg63
g3370
sg56
(lp3497
g49
(g70
g51
NtRp3498
(dp3499
g54
(dp3500
g74
g75
ssg63
g3494
sg56
(lp3501
g389
asbag49
(g70
g51
NtRp3502
(dp3503
g54
(dp3504
g81
g82
ssg63
g3494
sg56
(lp3505
S':'
asbag49
(g70
g51
NtRp3506
(dp3507
g54
(dp3508
sg63
g3494
sg56
(lp3509
g49
(g50
g51
NtRp3510
(dp3511
g54
(dp3512
g62
I3
ssg63
g3506
sg56
(lp3513
S''
asbasbasbasbasbasbasbasbasbasbasbag49
(g65
g51
NtRp3514
(dp3515
g54
(dp3516
sg63
g3300
sg56
(lp3517
g49
(g70
g51
NtRp3518
(dp3519
g54
(dp3520
g74
g75
ssg63
g3514
sg56
(lp3521
S'delimiters'
p3522
asbag49
(g70
g51
NtRp3523
(dp3524
g54
(dp3525
g81
g82
ssg63
g3514
sg56
(lp3526
S':'
asbag49
(g70
g51
NtRp3527
(dp3528
g54
(dp3529
sg63
g3514
sg56
(lp3530
g49
(g50
g51
NtRp3531
(dp3532
g54
(dp3533
g62
I5
ssg63
g3527
sg56
(lp3534
g49
(g58
g51
NtRp3535
(dp3536
g54
(dp3537
g62
I4
ssg63
Nsg56
(lp3538
g49
(g65
g51
NtRp3539
(dp3540
g54
(dp3541
sg63
g3535
sg56
(lp3542
g49
(g70
g51
NtRp3543
(dp3544
g54
(dp3545
sg63
g3539
sg56
(lp3546
g49
(g50
g51
NtRp3547
(dp3548
g54
(dp3549
g62
I4
ssg63
g3543
sg56
(lp3550
S'{{'
p3551
asbasbasbag49
(g65
g51
NtRp3552
(dp3553
g54
(dp3554
sg63
g3535
sg56
(lp3555
g49
(g70
g51
NtRp3556
(dp3557
g54
(dp3558
sg63
g3552
sg56
(lp3559
g49
(g50
g51
NtRp3560
(dp3561
g54
(dp3562
g62
I4
ssg63
g3556
sg56
(lp3563
S'}}'
p3564
asbasbasbasbasbasbasbag49
(g65
g51
NtRp3565
(dp3566
g54
(dp3567
sg63
g3300
sg56
(lp3568
g49
(g70
g51
NtRp3569
(dp3570
g54
(dp3571
g74
g75
ssg63
g3565
sg56
(lp3572
S'files'
p3573
asbag49
(g70
g51
NtRp3574
(dp3575
g54
(dp3576
g81
g82
ssg63
g3565
sg56
(lp3577
S':'
asbag49
(g70
g51
NtRp3578
(dp3579
g54
(dp3580
sg63
g3565
sg56
(lp3581
g49
(g50
g51
NtRp3582
(dp3583
g54
(dp3584
g62
I5
ssg63
g3578
sg56
(lp3585
g49
(g58
g51
NtRp3586
(dp3587
g54
(dp3588
g62
I4
ssg63
Nsg56
(lp3589
sbasbasbasbag49
(g65
g51
NtRp3590
(dp3591
g54
(dp3592
sg63
g3300
sg56
(lp3593
g49
(g70
g51
NtRp3594
(dp3595
g54
(dp3596
g74
g75
ssg63
g3590
sg56
(lp3597
S'flash'
p3598
asbag49
(g70
g51
NtRp3599
(dp3600
g54
(dp3601
g81
g82
ssg63
g3590
sg56
(lp3602
S':'
asbag49
(g70
g51
NtRp3603
(dp3604
g54
(dp3605
sg63
g3590
sg56
(lp3606
g49
(g50
g51
NtRp3607
(dp3608
g54
(dp3609
g62
I5
ssg63
g3603
sg56
(lp3610
S''
asbasbasbag49
(g65
g51
NtRp3611
(dp3612
g54
(dp3613
sg63
g3300
sg56
(lp3614
g49
(g70
g51
NtRp3615
(dp3616
g54
(dp3617
g74
g75
ssg63
g3611
sg56
(lp3618
S'generic_patterns'
p3619
asbag49
(g70
g51
NtRp3620
(dp3621
g54
(dp3622
g81
g82
ssg63
g3611
sg56
(lp3623
S':'
asbag49
(g70
g51
NtRp3624
(dp3625
g54
(dp3626
sg63
g3611
sg56
(lp3627
g49
(g50
g51
NtRp3628
(dp3629
g54
(dp3630
g62
I5
ssg63
g3624
sg56
(lp3631
g49
(g58
g51
NtRp3632
(dp3633
g54
(dp3634
g62
I4
ssg63
Nsg56
(lp3635
g49
(g65
g51
NtRp3636
(dp3637
g54
(dp3638
sg63
g3632
sg56
(lp3639
g49
(g70
g51
NtRp3640
(dp3641
g54
(dp3642
sg63
g3636
sg56
(lp3643
g49
(g50
g51
NtRp3644
(dp3645
g54
(dp3646
g62
I4
ssg63
g3640
sg56
(lp3647
S'*'
asbasbasbasbasbasbasbag49
(g65
g51
NtRp3648
(dp3649
g54
(dp3650
sg63
g3300
sg56
(lp3651
g49
(g70
g51
NtRp3652
(dp3653
g54
(dp3654
g74
g75
ssg63
g3648
sg56
(lp3655
S'headers'
p3656
asbag49
(g70
g51
NtRp3657
(dp3658
g54
(dp3659
g81
g82
ssg63
g3648
sg56
(lp3660
S':'
asbag49
(g70
g51
NtRp3661
(dp3662
g54
(dp3663
sg63
g3648
sg56
(lp3664
g49
(g50
g51
NtRp3665
(dp3666
g54
(dp3667
g62
I5
ssg63
g3661
sg56
(lp3668
g49
(g58
g51
NtRp3669
(dp3670
g54
(dp3671
g62
I4
ssg63
Nsg56
(lp3672
g49
(g65
g51
NtRp3673
(dp3674
g54
(dp3675
sg63
g3669
sg56
(lp3676
g49
(g70
g51
NtRp3677
(dp3678
g54
(dp3679
g74
g75
ssg63
g3673
sg56
(lp3680
S'Cache-Control'
p3681
asbag49
(g70
g51
NtRp3682
(dp3683
g54
(dp3684
g81
g82
ssg63
g3673
sg56
(lp3685
S':'
asbag49
(g70
g51
NtRp3686
(dp3687
g54
(dp3688
sg63
g3673
sg56
(lp3689
g49
(g50
g51
NtRp3690
(dp3691
g54
(dp3692
g62
I4
ssg63
g3686
sg56
(lp3693
S'no-store, no-cache, must-revalidate, post-check=0, pre-check=0'
p3694
asbasbasbag49
(g65
g51
NtRp3695
(dp3696
g54
(dp3697
sg63
g3669
sg56
(lp3698
g49
(g70
g51
NtRp3699
(dp3700
g54
(dp3701
g74
g75
ssg63
g3695
sg56
(lp3702
S'Content-Type'
p3703
asbag49
(g70
g51
NtRp3704
(dp3705
g54
(dp3706
g81
g82
ssg63
g3695
sg56
(lp3707
S':'
asbag49
(g70
g51
NtRp3708
(dp3709
g54
(dp3710
sg63
g3695
sg56
(lp3711
g49
(g50
g51
NtRp3712
(dp3713
g54
(dp3714
g62
I4
ssg63
g3708
sg56
(lp3715
S'text/html; charset=utf-8'
p3716
asbasbasbag49
(g65
g51
NtRp3717
(dp3718
g54
(dp3719
sg63
g3669
sg56
(lp3720
g49
(g70
g51
NtRp3721
(dp3722
g54
(dp3723
g74
g75
ssg63
g3717
sg56
(lp3724
S'Expires'
p3725
asbag49
(g70
g51
NtRp3726
(dp3727
g54
(dp3728
g81
g82
ssg63
g3717
sg56
(lp3729
S':'
asbag49
(g70
g51
NtRp3730
(dp3731
g54
(dp3732
sg63
g3717
sg56
(lp3733
g49
(g50
g51
NtRp3734
(dp3735
g54
(dp3736
g62
I4
ssg63
g3730
sg56
(lp3737
S'Mon, 19 Mar 2012 16:35:31 GMT'
p3738
asbasbasbag49
(g65
g51
NtRp3739
(dp3740
g54
(dp3741
sg63
g3669
sg56
(lp3742
g49
(g70
g51
NtRp3743
(dp3744
g54
(dp3745
g74
g75
ssg63
g3739
sg56
(lp3746
S'Pragma'
p3747
asbag49
(g70
g51
NtRp3748
(dp3749
g54
(dp3750
g81
g82
ssg63
g3739
sg56
(lp3751
S':'
asbag49
(g70
g51
NtRp3752
(dp3753
g54
(dp3754
sg63
g3739
sg56
(lp3755
g49
(g50
g51
NtRp3756
(dp3757
g54
(dp3758
g62
I4
ssg63
g3752
sg56
(lp3759
S'no-cache'
p3760
asbasbasbag49
(g65
g51
NtRp3761
(dp3762
g54
(dp3763
sg63
g3669
sg56
(lp3764
g49
(g70
g51
NtRp3765
(dp3766
g54
(dp3767
g74
g75
ssg63
g3761
sg56
(lp3768
S'X-Powered-By'
p3769
asbag49
(g70
g51
NtRp3770
(dp3771
g54
(dp3772
g81
g82
ssg63
g3761
sg56
(lp3773
S':'
asbag49
(g70
g51
NtRp3774
(dp3775
g54
(dp3776
sg63
g3761
sg56
(lp3777
g49
(g50
g51
NtRp3778
(dp3779
g54
(dp3780
g62
I4
ssg63
g3774
sg56
(lp3781
S'web2py'
p3782
asbasbasbasbasbasbasbag49
(g65
g51
NtRp3783
(dp3784
g54
(dp3785
sg63
g3300
sg56
(lp3786
g49
(g70
g51
NtRp3787
(dp3788
g54
(dp3789
g74
g75
ssg63
g3783
sg56
(lp3790
S'menu'
p3791
asbag49
(g70
g51
NtRp3792
(dp3793
g54
(dp3794
g81
g82
ssg63
g3783
sg56
(lp3795
S':'
asbag49
(g70
g51
NtRp3796
(dp3797
g54
(dp3798
sg63
g3783
sg56
(lp3799
g49
(g50
g51
NtRp3800
(dp3801
g54
(dp3802
g62
I5
ssg63
g3796
sg56
(lp3803
g49
(g58
g51
NtRp3804
(dp3805
g54
(dp3806
g62
I4
ssg63
Nsg56
(lp3807
g49
(g65
g51
NtRp3808
(dp3809
g54
(dp3810
sg63
g3804
sg56
(lp3811
g49
(g70
g51
NtRp3812
(dp3813
g54
(dp3814
sg63
g3808
sg56
(lp3815
g49
(g50
g51
NtRp3816
(dp3817
g54
(dp3818
g62
I4
ssg63
g3812
sg56
(lp3819
g49
(g58
g51
NtRp3820
(dp3821
g54
(dp3822
g62
I3
ssg63
Nsg56
(lp3823
g49
(g65
g51
NtRp3824
(dp3825
g54
(dp3826
sg63
g3820
sg56
(lp3827
g49
(g70
g51
NtRp3828
(dp3829
g54
(dp3830
sg63
g3824
sg56
(lp3831
g49
(g50
g51
NtRp3832
(dp3833
g54
(dp3834
g62
I3
ssg63
g3828
sg56
(lp3835
cgluon.languages
lazyT_unpickle
p3836
(S's\x04\x00\x00\x00Home'
tRp3837
asbasbasbag49
(g65
g51
NtRp3838
(dp3839
g54
(dp3840
sg63
g3820
sg56
(lp3841
g49
(g70
g51
NtRp3842
(dp3843
g54
(dp3844
sg63
g3838
sg56
(lp3845
g49
(g50
g51
NtRp3846
(dp3847
g54
(dp3848
g62
I3
ssg63
g3842
sg56
(lp3849
g92
asbasbasbag49
(g65
g51
NtRp3850
(dp3851
g54
(dp3852
sg63
g3820
sg56
(lp3853
g49
(g70
g51
NtRp3854
(dp3855
g54
(dp3856
sg63
g3850
sg56
(lp3857
g49
(g50
g51
NtRp3858
(dp3859
g54
(dp3860
g62
I3
ssg63
g3854
sg56
(lp3861
S'/'
asbasbasbag49
(g65
g51
NtRp3862
(dp3863
g54
(dp3864
sg63
g3820
sg56
(lp3865
g49
(g70
g51
NtRp3866
(dp3867
g54
(dp3868
sg63
g3862
sg56
(lp3869
g49
(g50
g51
NtRp3870
(dp3871
g54
(dp3872
g62
I3
ssg63
g3866
sg56
(lp3873
g49
(g58
g51
NtRp3874
(dp3875
g54
(dp3876
g62
I2
ssg63
Nsg56
(lp3877
sbasbasbasbasbasbasbasbag49
(g65
g51
NtRp3878
(dp3879
g54
(dp3880
sg63
g3804
sg56
(lp3881
g49
(g70
g51
NtRp3882
(dp3883
g54
(dp3884
sg63
g3878
sg56
(lp3885
g49
(g50
g51
NtRp3886
(dp3887
g54
(dp3888
g62
I4
ssg63
g3882
sg56
(lp3889
g49
(g58
g51
NtRp3890
(dp3891
g54
(dp3892
g62
I3
ssg63
Nsg56
(lp3893
g49
(g65
g51
NtRp3894
(dp3895
g54
(dp3896
sg63
g3890
sg56
(lp3897
g49
(g70
g51
NtRp3898
(dp3899
g54
(dp3900
sg63
g3894
sg56
(lp3901
g49
(g50
g51
NtRp3902
(dp3903
g54
(dp3904
g62
I3
ssg63
g3898
sg56
(lp3905
g49
(cgluon.html
SPAN
p3906
g51
NtRp3907
(dp3908
g54
(dp3909
g74
S'color:yellow'
p3910
ssg63
Nsg56
(lp3911
g3782
asbasbasbasbag49
(g65
g51
NtRp3912
(dp3913
g54
(dp3914
sg63
g3890
sg56
(lp3915
g49
(g70
g51
NtRp3916
(dp3917
g54
(dp3918
sg63
g3912
sg56
(lp3919
g49
(g50
g51
NtRp3920
(dp3921
g54
(dp3922
g62
I3
ssg63
g3916
sg56
(lp3923
g92
asbasbasbag49
(g65
g51
NtRp3924
(dp3925
g54
(dp3926
sg63
g3890
sg56
(lp3927
g49
(g70
g51
NtRp3928
(dp3929
g54
(dp3930
sg63
g3924
sg56
(lp3931
g49
(g50
g51
NtRp3932
(dp3933
g54
(dp3934
g62
I3
ssg63
g3928
sg56
(lp3935
S'None'
p3936
asbasbasbag49
(g65
g51
NtRp3937
(dp3938
g54
(dp3939
sg63
g3890
sg56
(lp3940
g49
(g70
g51
NtRp3941
(dp3942
g54
(dp3943
sg63
g3937
sg56
(lp3944
g49
(g50
g51
NtRp3945
(dp3946
g54
(dp3947
g62
I3
ssg63
g3941
sg56
(lp3948
g49
(g58
g51
NtRp3949
(dp3950
g54
(dp3951
g62
I2
ssg63
Nsg56
(lp3952
g49
(g65
g51
NtRp3953
(dp3954
g54
(dp3955
sg63
g3949
sg56
(lp3956
g49
(g70
g51
NtRp3957
(dp3958
g54
(dp3959
sg63
g3953
sg56
(lp3960
g49
(g50
g51
NtRp3961
(dp3962
g54
(dp3963
g62
I2
ssg63
g3957
sg56
(lp3964
g49
(g58
g51
NtRp3965
(dp3966
g54
(dp3967
g62
I1
ssg63
Nsg56
(lp3968
g49
(g65
g51
NtRp3969
(dp3970
g54
(dp3971
sg63
g3965
sg56
(lp3972
g49
(g70
g51
NtRp3973
(dp3974
g54
(dp3975
sg63
g3969
sg56
(lp3976
g49
(g50
g51
NtRp3977
(dp3978
g54
(dp3979
g62
I1
ssg63
g3973
sg56
(lp3980
g3836
(S's\x08\x00\x00\x00My Sites'
tRp3981
asbasbasbag49
(g65
g51
NtRp3982
(dp3983
g54
(dp3984
sg63
g3965
sg56
(lp3985
g49
(g70
g51
NtRp3986
(dp3987
g54
(dp3988
sg63
g3982
sg56
(lp3989
g49
(g50
g51
NtRp3990
(dp3991
g54
(dp3992
g62
I1
ssg63
g3986
sg56
(lp3993
I00
asbasbasbag49
(g65
g51
NtRp3994
(dp3995
g54
(dp3996
sg63
g3965
sg56
(lp3997
g49
(g70
g51
NtRp3998
(dp3999
g54
(dp4000
sg63
g3994
sg56
(lp4001
g49
(g50
g51
NtRp4002
(dp4003
g54
(dp4004
g62
I1
ssg63
g3998
sg56
(lp4005
S'/admin/default/site'
p4006
asbasbasbasbasbasbasbag49
(g65
g51
NtRp4007
(dp4008
g54
(dp4009
sg63
g3949
sg56
(lp4010
g49
(g70
g51
NtRp4011
(dp4012
g54
(dp4013
sg63
g4007
sg56
(lp4014
g49
(g50
g51
NtRp4015
(dp4016
g54
(dp4017
g62
I2
ssg63
g4011
sg56
(lp4018
g49
(g58
g51
NtRp4019
(dp4020
g54
(dp4021
g62
I1
ssg63
Nsg56
(lp4022
g49
(g65
g51
NtRp4023
(dp4024
g54
(dp4025
sg63
g4019
sg56
(lp4026
g49
(g70
g51
NtRp4027
(dp4028
g54
(dp4029
sg63
g4023
sg56
(lp4030
g49
(g50
g51
NtRp4031
(dp4032
g54
(dp4033
g62
I1
ssg63
g4027
sg56
(lp4034
g3836
(S's\x08\x00\x00\x00This App'
tRp4035
asbasbasbag49
(g65
g51
NtRp4036
(dp4037
g54
(dp4038
sg63
g4019
sg56
(lp4039
g49
(g70
g51
NtRp4040
(dp4041
g54
(dp4042
sg63
g4036
sg56
(lp4043
g49
(g50
g51
NtRp4044
(dp4045
g54
(dp4046
g62
I1
ssg63
g4040
sg56
(lp4047
I00
asbasbasbag49
(g65
g51
NtRp4048
(dp4049
g54
(dp4050
sg63
g4019
sg56
(lp4051
g49
(g70
g51
NtRp4052
(dp4053
g54
(dp4054
sg63
g4048
sg56
(lp4055
g49
(g50
g51
NtRp4056
(dp4057
g54
(dp4058
g62
I1
ssg63
g4052
sg56
(lp4059
S'/admin/default/design/udi0312'
p4060
asbasbasbag49
(g65
g51
NtRp4061
(dp4062
g54
(dp4063
sg63
g4019
sg56
(lp4064
g49
(g70
g51
NtRp4065
(dp4066
g54
(dp4067
sg63
g4061
sg56
(lp4068
g49
(g50
g51
NtRp4069
(dp4070
g54
(dp4071
g62
I1
ssg63
g4065
sg56
(lp4072
(lp4073
(g3836
(S's\n\x00\x00\x00Controller'
tRp4074
I00
S'/admin/default/edit/udi0312/controllers/default.py'
tp4075
a(g3836
(S's\x04\x00\x00\x00View'
tRp4076
I00
S'/admin/default/edit/udi0312/views/default/add_repin.html'
tp4077
a(g3836
(S's\x06\x00\x00\x00Layout'
tRp4078
I00
S'/admin/default/edit/udi0312/views/layout.html'
tp4079
a(g3836
(S's\n\x00\x00\x00Stylesheet'
tRp4080
I00
S'/admin/default/edit/udi0312/static/css/web2py.css'
tp4081
a(g3836
(S's\x08\x00\x00\x00DB Model'
tRp4082
I00
S'/admin/default/edit/udi0312/models/db.py'
tp4083
a(g3836
(S's\n\x00\x00\x00Menu Model'
tRp4084
I00
S'/admin/default/edit/udi0312/models/menu.py'
tp4085
a(g3836
(S's\x08\x00\x00\x00Database'
tRp4086
I00
S'/udi0312/appadmin/index'
tp4087
a(g3836
(S's\x06\x00\x00\x00Errors'
tRp4088
I00
S'/admin/default/errors/udi0312'
tp4089
a(g3836
(S's\x05\x00\x00\x00About'
tRp4090
I00
S'/admin/default/about/udi0312'
tp4091
aasbasbasbasbasbasbasbag49
(g65
g51
NtRp4092
(dp4093
g54
(dp4094
sg63
g3949
sg56
(lp4095
g49
(g70
g51
NtRp4096
(dp4097
g54
(dp4098
sg63
g4092
sg56
(lp4099
g49
(g50
g51
NtRp4100
(dp4101
g54
(dp4102
g62
I2
ssg63
g4096
sg56
(lp4103
g49
(g58
g51
NtRp4104
(dp4105
g54
(dp4106
g62
I1
ssg63
Nsg56
(lp4107
g49
(g65
g51
NtRp4108
(dp4109
g54
(dp4110
sg63
g4104
sg56
(lp4111
g49
(g70
g51
NtRp4112
(dp4113
g54
(dp4114
sg63
g4108
sg56
(lp4115
g49
(g50
g51
NtRp4116
(dp4117
g54
(dp4118
g62
I1
ssg63
g4112
sg56
(lp4119
S'web2py.com'
p4120
asbasbasbag49
(g65
g51
NtRp4121
(dp4122
g54
(dp4123
sg63
g4104
sg56
(lp4124
g49
(g70
g51
NtRp4125
(dp4126
g54
(dp4127
sg63
g4121
sg56
(lp4128
g49
(g50
g51
NtRp4129
(dp4130
g54
(dp4131
g62
I1
ssg63
g4125
sg56
(lp4132
I00
asbasbasbag49
(g65
g51
NtRp4133
(dp4134
g54
(dp4135
sg63
g4104
sg56
(lp4136
g49
(g70
g51
NtRp4137
(dp4138
g54
(dp4139
sg63
g4133
sg56
(lp4140
g49
(g50
g51
NtRp4141
(dp4142
g54
(dp4143
g62
I1
ssg63
g4137
sg56
(lp4144
S'http://www.web2py.com'
p4145
asbasbasbag49
(g65
g51
NtRp4146
(dp4147
g54
(dp4148
sg63
g4104
sg56
(lp4149
g49
(g70
g51
NtRp4150
(dp4151
g54
(dp4152
sg63
g4146
sg56
(lp4153
g49
(g50
g51
NtRp4154
(dp4155
g54
(dp4156
g62
I1
ssg63
g4150
sg56
(lp4157
(lp4158
(g3836
(S's\x08\x00\x00\x00Download'
tRp4159
I00
S'http://www.web2py.com/examples/default/download'
p4160
tp4161
a(g3836
(S's\x07\x00\x00\x00Support'
tRp4162
I00
S'http://www.web2py.com/examples/default/support'
p4163
tp4164
a(g3836
(S's\x04\x00\x00\x00Demo'
tRp4165
I00
S'http://web2py.com/demo_admin'
p4166
tp4167
a(g3836
(S's\x0e\x00\x00\x00Quick Examples'
tRp4168
I00
S'http://web2py.com/examples/default/examples'
p4169
tp4170
a(g3836
(S's\x03\x00\x00\x00FAQ'
tRp4171
I00
S'http://web2py.com/AlterEgo'
p4172
tp4173
a(g3836
(S's\x06\x00\x00\x00Videos'
tRp4174
I00
S'http://www.web2py.com/examples/default/videos/'
p4175
tp4176
a(g3836
(S's\x11\x00\x00\x00Free Applications'
tRp4177
I00
S'http://web2py.com/appliances'
p4178
tp4179
a(g3836
(S's\x07\x00\x00\x00Plugins'
tRp4180
I00
S'http://web2py.com/plugins'
p4181
tp4182
a(g3836
(S's\x07\x00\x00\x00Layouts'
tRp4183
I00
S'http://web2py.com/layouts'
p4184
tp4185
a(g3836
(S's\x07\x00\x00\x00Recipes'
tRp4186
I00
S'http://web2pyslices.com/'
p4187
tp4188
a(g3836
(S's\x08\x00\x00\x00Semantic'
tRp4189
I00
S'http://web2py.com/semantic'
p4190
tp4191
aasbasbasbasbasbasbasbag49
(g65
g51
NtRp4192
(dp4193
g54
(dp4194
sg63
g3949
sg56
(lp4195
g49
(g70
g51
NtRp4196
(dp4197
g54
(dp4198
sg63
g4192
sg56
(lp4199
g49
(g50
g51
NtRp4200
(dp4201
g54
(dp4202
g62
I2
ssg63
g4196
sg56
(lp4203
g49
(g58
g51
NtRp4204
(dp4205
g54
(dp4206
g62
I1
ssg63
Nsg56
(lp4207
g49
(g65
g51
NtRp4208
(dp4209
g54
(dp4210
sg63
g4204
sg56
(lp4211
g49
(g70
g51
NtRp4212
(dp4213
g54
(dp4214
sg63
g4208
sg56
(lp4215
g49
(g50
g51
NtRp4216
(dp4217
g54
(dp4218
g62
I1
ssg63
g4212
sg56
(lp4219
g3836
(S's\r\x00\x00\x00Documentation'
tRp4220
asbasbasbag49
(g65
g51
NtRp4221
(dp4222
g54
(dp4223
sg63
g4204
sg56
(lp4224
g49
(g70
g51
NtRp4225
(dp4226
g54
(dp4227
sg63
g4221
sg56
(lp4228
g49
(g50
g51
NtRp4229
(dp4230
g54
(dp4231
g62
I1
ssg63
g4225
sg56
(lp4232
I00
asbasbasbag49
(g65
g51
NtRp4233
(dp4234
g54
(dp4235
sg63
g4204
sg56
(lp4236
g49
(g70
g51
NtRp4237
(dp4238
g54
(dp4239
sg63
g4233
sg56
(lp4240
g49
(g50
g51
NtRp4241
(dp4242
g54
(dp4243
g62
I1
ssg63
g4237
sg56
(lp4244
S'http://www.web2py.com/book'
p4245
asbasbasbag49
(g65
g51
NtRp4246
(dp4247
g54
(dp4248
sg63
g4204
sg56
(lp4249
g49
(g70
g51
NtRp4250
(dp4251
g54
(dp4252
sg63
g4246
sg56
(lp4253
g49
(g50
g51
NtRp4254
(dp4255
g54
(dp4256
g62
I1
ssg63
g4250
sg56
(lp4257
(lp4258
(g3836
(S's\x07\x00\x00\x00Preface'
tRp4259
I00
S'http://www.web2py.com/book/default/chapter/00'
p4260
tp4261
a(g3836
(S's\x0c\x00\x00\x00Introduction'
tRp4262
I00
S'http://www.web2py.com/book/default/chapter/01'
p4263
tp4264
a(g3836
(S's\x06\x00\x00\x00Python'
tRp4265
I00
S'http://www.web2py.com/book/default/chapter/02'
p4266
tp4267
a(g3836
(S's\x08\x00\x00\x00Overview'
tRp4268
I00
S'http://www.web2py.com/book/default/chapter/03'
p4269
tp4270
a(g3836
(S's\x08\x00\x00\x00The Core'
tRp4271
I00
S'http://www.web2py.com/book/default/chapter/04'
p4272
tp4273
a(g3836
(S's\t\x00\x00\x00The Views'
tRp4274
I00
S'http://www.web2py.com/book/default/chapter/05'
p4275
tp4276
a(g3836
(S's\x08\x00\x00\x00Database'
tRp4277
I00
S'http://www.web2py.com/book/default/chapter/06'
p4278
tp4279
a(g3836
(S's\x14\x00\x00\x00Forms and Validators'
tRp4280
I00
S'http://www.web2py.com/book/default/chapter/07'
p4281
tp4282
a(g3836
(S's\r\x00\x00\x00Email and SMS'
tRp4283
I00
S'http://www.web2py.com/book/default/chapter/08'
p4284
tp4285
a(g3836
(S's\x0e\x00\x00\x00Access Control'
tRp4286
I00
S'http://www.web2py.com/book/default/chapter/09'
p4287
tp4288
a(g3836
(S's\x08\x00\x00\x00Services'
tRp4289
I00
S'http://www.web2py.com/book/default/chapter/10'
p4290
tp4291
a(g3836
(S's\x0c\x00\x00\x00Ajax Recipes'
tRp4292
I00
S'http://www.web2py.com/book/default/chapter/11'
p4293
tp4294
a(g3836
(S's\x16\x00\x00\x00Components and Plugins'
tRp4295
I00
S'http://www.web2py.com/book/default/chapter/12'
p4296
tp4297
a(g3836
(S's\x12\x00\x00\x00Deployment Recipes'
tRp4298
I00
S'http://www.web2py.com/book/default/chapter/13'
p4299
tp4300
a(g3836
(S's\r\x00\x00\x00Other Recipes'
tRp4301
I00
S'http://www.web2py.com/book/default/chapter/14'
p4302
tp4303
a(g3836
(S's\r\x00\x00\x00Buy this book'
tRp4304
I00
S'http://stores.lulu.com/web2py'
p4305
tp4306
aasbasbasbasbasbasbasbag49
(g65
g51
NtRp4307
(dp4308
g54
(dp4309
sg63
g3949
sg56
(lp4310
g49
(g70
g51
NtRp4311
(dp4312
g54
(dp4313
sg63
g4307
sg56
(lp4314
g49
(g50
g51
NtRp4315
(dp4316
g54
(dp4317
g62
I2
ssg63
g4311
sg56
(lp4318
g49
(g58
g51
NtRp4319
(dp4320
g54
(dp4321
g62
I1
ssg63
Nsg56
(lp4322
g49
(g65
g51
NtRp4323
(dp4324
g54
(dp4325
sg63
g4319
sg56
(lp4326
g49
(g70
g51
NtRp4327
(dp4328
g54
(dp4329
sg63
g4323
sg56
(lp4330
g49
(g50
g51
NtRp4331
(dp4332
g54
(dp4333
g62
I1
ssg63
g4327
sg56
(lp4334
g3836
(S's\t\x00\x00\x00Community'
tRp4335
asbasbasbag49
(g65
g51
NtRp4336
(dp4337
g54
(dp4338
sg63
g4319
sg56
(lp4339
g49
(g70
g51
NtRp4340
(dp4341
g54
(dp4342
sg63
g4336
sg56
(lp4343
g49
(g50
g51
NtRp4344
(dp4345
g54
(dp4346
g62
I1
ssg63
g4340
sg56
(lp4347
I00
asbasbasbag49
(g65
g51
NtRp4348
(dp4349
g54
(dp4350
sg63
g4319
sg56
(lp4351
g49
(g70
g51
NtRp4352
(dp4353
g54
(dp4354
sg63
g4348
sg56
(lp4355
g49
(g50
g51
NtRp4356
(dp4357
g54
(dp4358
g62
I1
ssg63
g4352
sg56
(lp4359
Nasbasbasbag49
(g65
g51
NtRp4360
(dp4361
g54
(dp4362
sg63
g4319
sg56
(lp4363
g49
(g70
g51
NtRp4364
(dp4365
g54
(dp4366
sg63
g4360
sg56
(lp4367
g49
(g50
g51
NtRp4368
(dp4369
g54
(dp4370
g62
I1
ssg63
g4364
sg56
(lp4371
(lp4372
(g3836
(S's\x06\x00\x00\x00Groups'
tRp4373
I00
S'http://www.web2py.com/examples/default/usergroups'
p4374
tp4375
a(g3836
(S's\x07\x00\x00\x00Twitter'
tRp4376
I00
S'http://twitter.com/web2py'
p4377
tp4378
a(g3836
(S's\t\x00\x00\x00Live Chat'
tRp4379
I00
S'http://webchat.freenode.net/?channels=web2py'
p4380
tp4381
aasbasbasbasbasbasbasbag49
(g65
g51
NtRp4382
(dp4383
g54
(dp4384
sg63
g3949
sg56
(lp4385
g49
(g70
g51
NtRp4386
(dp4387
g54
(dp4388
sg63
g4382
sg56
(lp4389
g49
(g50
g51
NtRp4390
(dp4391
g54
(dp4392
g62
I2
ssg63
g4386
sg56
(lp4393
g49
(g58
g51
NtRp4394
(dp4395
g54
(dp4396
g62
I1
ssg63
Nsg56
(lp4397
g49
(g65
g51
NtRp4398
(dp4399
g54
(dp4400
sg63
g4394
sg56
(lp4401
g49
(g70
g51
NtRp4402
(dp4403
g54
(dp4404
sg63
g4398
sg56
(lp4405
g49
(g50
g51
NtRp4406
(dp4407
g54
(dp4408
g62
I1
ssg63
g4402
sg56
(lp4409
g3836
(S's\x07\x00\x00\x00Plugins'
tRp4410
asbasbasbag49
(g65
g51
NtRp4411
(dp4412
g54
(dp4413
sg63
g4394
sg56
(lp4414
g49
(g70
g51
NtRp4415
(dp4416
g54
(dp4417
sg63
g4411
sg56
(lp4418
g49
(g50
g51
NtRp4419
(dp4420
g54
(dp4421
g62
I1
ssg63
g4415
sg56
(lp4422
I00
asbasbasbag49
(g65
g51
NtRp4423
(dp4424
g54
(dp4425
sg63
g4394
sg56
(lp4426
g49
(g70
g51
NtRp4427
(dp4428
g54
(dp4429
sg63
g4423
sg56
(lp4430
g49
(g50
g51
NtRp4431
(dp4432
g54
(dp4433
g62
I1
ssg63
g4427
sg56
(lp4434
Nasbasbasbag49
(g65
g51
NtRp4435
(dp4436
g54
(dp4437
sg63
g4394
sg56
(lp4438
g49
(g70
g51
NtRp4439
(dp4440
g54
(dp4441
sg63
g4435
sg56
(lp4442
g49
(g50
g51
NtRp4443
(dp4444
g54
(dp4445
g62
I1
ssg63
g4439
sg56
(lp4446
(lp4447
(S'plugin_wiki'
p4448
I00
S'http://web2py.com/examples/default/download'
p4449
tp4450
a(g3836
(S's\r\x00\x00\x00Other Plugins'
tRp4451
I00
g4181
tp4452
a(g3836
(S's\x0e\x00\x00\x00Layout Plugins'
tRp4453
I00
g4184
tp4454
aasbasbasbasbasbasbasbasbasbasbasbasbasbasbasbasbasbasbasbag49
(g65
g51
NtRp4455
(dp4456
g54
(dp4457
sg63
g3300
sg56
(lp4458
g49
(g70
g51
NtRp4459
(dp4460
g54
(dp4461
g74
g75
ssg63
g4455
sg56
(lp4462
S'meta'
p4463
asbag49
(g70
g51
NtRp4464
(dp4465
g54
(dp4466
g81
g82
ssg63
g4455
sg56
(lp4467
S':'
asbag49
(g70
g51
NtRp4468
(dp4469
g54
(dp4470
sg63
g4455
sg56
(lp4471
g49
(g50
g51
NtRp4472
(dp4473
g54
(dp4474
g62
I5
ssg63
g4468
sg56
(lp4475
g49
(g58
g51
NtRp4476
(dp4477
g54
(dp4478
g62
I4
ssg63
Nsg56
(lp4479
g49
(g65
g51
NtRp4480
(dp4481
g54
(dp4482
sg63
g4476
sg56
(lp4483
g49
(g70
g51
NtRp4484
(dp4485
g54
(dp4486
g74
g75
ssg63
g4480
sg56
(lp4487
S'author'
p4488
asbag49
(g70
g51
NtRp4489
(dp4490
g54
(dp4491
g81
g82
ssg63
g4480
sg56
(lp4492
S':'
asbag49
(g70
g51
NtRp4493
(dp4494
g54
(dp4495
sg63
g4480
sg56
(lp4496
g49
(g50
g51
NtRp4497
(dp4498
g54
(dp4499
g62
I4
ssg63
g4493
sg56
(lp4500
S'Your Name <you@example.com>'
p4501
asbasbasbag49
(g65
g51
NtRp4502
(dp4503
g54
(dp4504
sg63
g4476
sg56
(lp4505
g49
(g70
g51
NtRp4506
(dp4507
g54
(dp4508
g74
g75
ssg63
g4502
sg56
(lp4509
S'copyright'
p4510
asbag49
(g70
g51
NtRp4511
(dp4512
g54
(dp4513
g81
g82
ssg63
g4502
sg56
(lp4514
S':'
asbag49
(g70
g51
NtRp4515
(dp4516
g54
(dp4517
sg63
g4502
sg56
(lp4518
g49
(g50
g51
NtRp4519
(dp4520
g54
(dp4521
g62
I4
ssg63
g4515
sg56
(lp4522
S'Copyright 2011'
p4523
asbasbasbag49
(g65
g51
NtRp4524
(dp4525
g54
(dp4526
sg63
g4476
sg56
(lp4527
g49
(g70
g51
NtRp4528
(dp4529
g54
(dp4530
g74
g75
ssg63
g4524
sg56
(lp4531
S'description'
p4532
asbag49
(g70
g51
NtRp4533
(dp4534
g54
(dp4535
g81
g82
ssg63
g4524
sg56
(lp4536
S':'
asbag49
(g70
g51
NtRp4537
(dp4538
g54
(dp4539
sg63
g4524
sg56
(lp4540
g49
(g50
g51
NtRp4541
(dp4542
g54
(dp4543
g62
I4
ssg63
g4537
sg56
(lp4544
S'a cool new app'
p4545
asbasbasbag49
(g65
g51
NtRp4546
(dp4547
g54
(dp4548
sg63
g4476
sg56
(lp4549
g49
(g70
g51
NtRp4550
(dp4551
g54
(dp4552
g74
g75
ssg63
g4546
sg56
(lp4553
S'generator'
p4554
asbag49
(g70
g51
NtRp4555
(dp4556
g54
(dp4557
g81
g82
ssg63
g4546
sg56
(lp4558
S':'
asbag49
(g70
g51
NtRp4559
(dp4560
g54
(dp4561
sg63
g4546
sg56
(lp4562
g49
(g50
g51
NtRp4563
(dp4564
g54
(dp4565
g62
I4
ssg63
g4559
sg56
(lp4566
S'Web2py Web Framework'
p4567
asbasbasbag49
(g65
g51
NtRp4568
(dp4569
g54
(dp4570
sg63
g4476
sg56
(lp4571
g49
(g70
g51
NtRp4572
(dp4573
g54
(dp4574
g74
g75
ssg63
g4568
sg56
(lp4575
S'keywords'
p4576
asbag49
(g70
g51
NtRp4577
(dp4578
g54
(dp4579
g81
g82
ssg63
g4568
sg56
(lp4580
S':'
asbag49
(g70
g51
NtRp4581
(dp4582
g54
(dp4583
sg63
g4568
sg56
(lp4584
g49
(g50
g51
NtRp4585
(dp4586
g54
(dp4587
g62
I4
ssg63
g4581
sg56
(lp4588
S'web2py, python, framework'
p4589
asbasbasbasbasbasbasbag49
(g65
g51
NtRp4590
(dp4591
g54
(dp4592
sg63
g3300
sg56
(lp4593
g49
(g70
g51
NtRp4594
(dp4595
g54
(dp4596
g74
g75
ssg63
g4590
sg56
(lp4597
S'postprocessing'
p4598
asbag49
(g70
g51
NtRp4599
(dp4600
g54
(dp4601
g81
g82
ssg63
g4590
sg56
(lp4602
S':'
asbag49
(g70
g51
NtRp4603
(dp4604
g54
(dp4605
sg63
g4590
sg56
(lp4606
g49
(g50
g51
NtRp4607
(dp4608
g54
(dp4609
g62
I5
ssg63
g4603
sg56
(lp4610
g49
(g58
g51
NtRp4611
(dp4612
g54
(dp4613
g62
I4
ssg63
Nsg56
(lp4614
sbasbasbasbag49
(g65
g51
NtRp4615
(dp4616
g54
(dp4617
sg63
g3300
sg56
(lp4618
g49
(g70
g51
NtRp4619
(dp4620
g54
(dp4621
g74
g75
ssg63
g4615
sg56
(lp4622
S'session_file'
p4623
asbag49
(g70
g51
NtRp4624
(dp4625
g54
(dp4626
g81
g82
ssg63
g4615
sg56
(lp4627
S':'
asbag49
(g70
g51
NtRp4628
(dp4629
g54
(dp4630
sg63
g4615
sg56
(lp4631
g49
(g50
g51
NtRp4632
(dp4633
g54
(dp4634
g62
I5
ssg63
g4628
sg56
(lp4635
S"<open file '/Users/udimilo/Documents/web2py/applications/udi0312/sessions/127.0.0.1-fcd6a577-d448-4882-b7bc-f353da84ba3b', mode 'rb+' at 0xa501458>"
p4636
asbasbasbag49
(g65
g51
NtRp4637
(dp4638
g54
(dp4639
sg63
g3300
sg56
(lp4640
g49
(g70
g51
NtRp4641
(dp4642
g54
(dp4643
g74
g75
ssg63
g4637
sg56
(lp4644
S'session_filename'
p4645
asbag49
(g70
g51
NtRp4646
(dp4647
g54
(dp4648
g81
g82
ssg63
g4637
sg56
(lp4649
S':'
asbag49
(g70
g51
NtRp4650
(dp4651
g54
(dp4652
sg63
g4637
sg56
(lp4653
g49
(g50
g51
NtRp4654
(dp4655
g54
(dp4656
g62
I5
ssg63
g4650
sg56
(lp4657
S'/Users/udimilo/Documents/web2py/applications/udi0312/sessions/127.0.0.1-fcd6a577-d448-4882-b7bc-f353da84ba3b'
p4658
asbasbasbag49
(g65
g51
NtRp4659
(dp4660
g54
(dp4661
sg63
g3300
sg56
(lp4662
g49
(g70
g51
NtRp4663
(dp4664
g54
(dp4665
g74
g75
ssg63
g4659
sg56
(lp4666
S'session_id'
p4667
asbag49
(g70
g51
NtRp4668
(dp4669
g54
(dp4670
g81
g82
ssg63
g4659
sg56
(lp4671
S':'
asbag49
(g70
g51
NtRp4672
(dp4673
g54
(dp4674
sg63
g4659
sg56
(lp4675
g49
(g50
g51
NtRp4676
(dp4677
g54
(dp4678
g62
I5
ssg63
g4672
sg56
(lp4679
S'127.0.0.1-fcd6a577-d448-4882-b7bc-f353da84ba3b'
p4680
asbasbasbag49
(g65
g51
NtRp4681
(dp4682
g54
(dp4683
sg63
g3300
sg56
(lp4684
g49
(g70
g51
NtRp4685
(dp4686
g54
(dp4687
g74
g75
ssg63
g4681
sg56
(lp4688
S'session_id_name'
p4689
asbag49
(g70
g51
NtRp4690
(dp4691
g54
(dp4692
g81
g82
ssg63
g4681
sg56
(lp4693
S':'
asbag49
(g70
g51
NtRp4694
(dp4695
g54
(dp4696
sg63
g4681
sg56
(lp4697
g49
(g50
g51
NtRp4698
(dp4699
g54
(dp4700
g62
I5
ssg63
g4694
sg56
(lp4701
g3357
asbasbasbag49
(g65
g51
NtRp4702
(dp4703
g54
(dp4704
sg63
g3300
sg56
(lp4705
g49
(g70
g51
NtRp4706
(dp4707
g54
(dp4708
g74
g75
ssg63
g4702
sg56
(lp4709
S'session_locked'
p4710
asbag49
(g70
g51
NtRp4711
(dp4712
g54
(dp4713
g81
g82
ssg63
g4702
sg56
(lp4714
S':'
asbag49
(g70
g51
NtRp4715
(dp4716
g54
(dp4717
sg63
g4702
sg56
(lp4718
g49
(g50
g51
NtRp4719
(dp4720
g54
(dp4721
g62
I5
ssg63
g4715
sg56
(lp4722
g1465
asbasbasbag49
(g65
g51
NtRp4723
(dp4724
g54
(dp4725
sg63
g3300
sg56
(lp4726
g49
(g70
g51
NtRp4727
(dp4728
g54
(dp4729
g74
g75
ssg63
g4723
sg56
(lp4730
S'session_new'
p4731
asbag49
(g70
g51
NtRp4732
(dp4733
g54
(dp4734
g81
g82
ssg63
g4723
sg56
(lp4735
S':'
asbag49
(g70
g51
NtRp4736
(dp4737
g54
(dp4738
sg63
g4723
sg56
(lp4739
g49
(g50
g51
NtRp4740
(dp4741
g54
(dp4742
g62
I5
ssg63
g4736
sg56
(lp4743
g92
asbasbasbag49
(g65
g51
NtRp4744
(dp4745
g54
(dp4746
sg63
g3300
sg56
(lp4747
g49
(g70
g51
NtRp4748
(dp4749
g54
(dp4750
g74
g75
ssg63
g4744
sg56
(lp4751
S'status'
p4752
asbag49
(g70
g51
NtRp4753
(dp4754
g54
(dp4755
g81
g82
ssg63
g4744
sg56
(lp4756
S':'
asbag49
(g70
g51
NtRp4757
(dp4758
g54
(dp4759
sg63
g4744
sg56
(lp4760
g49
(g50
g51
NtRp4761
(dp4762
g54
(dp4763
g62
I5
ssg63
g4757
sg56
(lp4764
S'200'
p4765
asbasbasbag49
(g65
g51
NtRp4766
(dp4767
g54
(dp4768
sg63
g3300
sg56
(lp4769
g49
(g70
g51
NtRp4770
(dp4771
g54
(dp4772
g74
g75
ssg63
g4766
sg56
(lp4773
S'subtitle'
p4774
asbag49
(g70
g51
NtRp4775
(dp4776
g54
(dp4777
g81
g82
ssg63
g4766
sg56
(lp4778
S':'
asbag49
(g70
g51
NtRp4779
(dp4780
g54
(dp4781
sg63
g4766
sg56
(lp4782
g49
(g50
g51
NtRp4783
(dp4784
g54
(dp4785
g62
I5
ssg63
g4779
sg56
(lp4786
g3836
(S's\r\x00\x00\x00customize me!'
tRp4787
asbasbasbag49
(g65
g51
NtRp4788
(dp4789
g54
(dp4790
sg63
g3300
sg56
(lp4791
g49
(g70
g51
NtRp4792
(dp4793
g54
(dp4794
g74
g75
ssg63
g4788
sg56
(lp4795
S'title'
p4796
asbag49
(g70
g51
NtRp4797
(dp4798
g54
(dp4799
g81
g82
ssg63
g4788
sg56
(lp4800
S':'
asbag49
(g70
g51
NtRp4801
(dp4802
g54
(dp4803
sg63
g4788
sg56
(lp4804
g49
(g50
g51
NtRp4805
(dp4806
g54
(dp4807
g62
I5
ssg63
g4801
sg56
(lp4808
S'Udi0312'
p4809
asbasbasbag49
(g65
g51
NtRp4810
(dp4811
g54
(dp4812
sg63
g3300
sg56
(lp4813
g49
(g70
g51
NtRp4814
(dp4815
g54
(dp4816
g74
g75
ssg63
g4810
sg56
(lp4817
g2129
asbag49
(g70
g51
NtRp4818
(dp4819
g54
(dp4820
g81
g82
ssg63
g4810
sg56
(lp4821
S':'
asbag49
(g70
g51
NtRp4822
(dp4823
g54
(dp4824
sg63
g4810
sg56
(lp4825
g49
(g50
g51
NtRp4826
(dp4827
g54
(dp4828
g62
I5
ssg63
g4822
sg56
(lp4829
g2142
asbasbasbag49
(g65
g51
NtRp4830
(dp4831
g54
(dp4832
sg63
g3300
sg56
(lp4833
g49
(g70
g51
NtRp4834
(dp4835
g54
(dp4836
g74
g75
ssg63
g4830
sg56
(lp4837
S'view'
p4838
asbag49
(g70
g51
NtRp4839
(dp4840
g54
(dp4841
g81
g82
ssg63
g4830
sg56
(lp4842
S':'
asbag49
(g70
g51
NtRp4843
(dp4844
g54
(dp4845
sg63
g4830
sg56
(lp4846
g49
(g50
g51
NtRp4847
(dp4848
g54
(dp4849
g62
I5
ssg63
g4843
sg56
(lp4850
S'default/add_repin.html'
p4851
asbasbasbasbasbsS'locals'
p4852
(dp4853
S'board_name'
p4854
S'None'
p4855
sS'id'
p4856
S'None'
p4857
sssS'traceback'
p4858
S'Traceback (most recent call last):\n  File "/users/udimilo/Documents/web2py/gluon/restricted.py", line 205, in restricted\n    exec ccode in environment\n  File "/Users/udimilo/Documents/web2py/applications/udi0312/controllers/default.py", line 162, in <module>\n  File "/users/udimilo/Documents/web2py/gluon/globals.py", line 173, in <lambda>\n    self._caller = lambda f: f()\n  File "/Users/udimilo/Documents/web2py/applications/udi0312/controllers/default.py", line 36, in add_repin\n    board = db.board((db.board.user==auth.user.id)&(db.board.name==board_name)).select().first()\nAttributeError: \'NoneType\' object has no attribute \'select\'\n'
p4859
s.