(dp1
S'output'
p2
S"<type 'exceptions.SyntaxError'> invalid syntax (index.html, line 22)"
p3
sS'layer'
p4
S'/Users/udimilo/Documents/web2py/applications/udi0312/views/default/index.html'
p5
sS'code'
p6
S'response.write(\'<html lan="en">\\n<head>\\n    <title>Biz</title>\\n    <script type="text/javascript" src="http://ajax.googleapis.com/ajax/libs/jquery/1.7.1/jquery.min.js"></script>\\n    <script type="text/javascript" src="/udi0312/static/js/jquery.wookmark.js"></script>\\n    <script type="text/javascript" src="/udi0312/static/js/web2py.js"></script>\\n    <link href=\\\'http://fonts.googleapis.com/css?family=PT+Sans\\\' rel=\\\'stylesheet\\\' type=\\\'text/css\\\'>\\n    <link href=\\\'/udi0312/static/css/site.css\\\' rel=\\\'stylesheet\\\' type=\\\'text/css\\\'>\\n</head>\\n<body>\\n    <div id="header">\\n        <div id="search">\\n            <input type="text" id="query" size="27" value="Search">\\n            <a id="query_button" href="#" class="lg"><img src="http://passets-cdn.pinterest.com/images/search.gif" alt=""></a>\\n        </div>\\n        <a id="logo" href="/"><img src="http://press.linkedin.com/sites/all/themes/presslinkedin/images/LinkedIn_IN_Icon_25px.png"/><span>formation</span></a>\\n        <ul id="navigation">\\n            <li>\', escape=False)\nresponse.write(\'auth\' in globals() and auth.navbar(separators=(\' \',\' | \',\'\')))\nresponse.write(\'</li>\\n        </ul>\\n    </div>\\n    <div id="showItem">\\n        <div id="itemHeader" class="clearfix">\\n            <div id="itemCreator">\\n                <div id="showItemClose"></div>\\n                <img src="http://profile.ak.fbcdn.net/hprofile-ak-snc4/373721_202953045644_22849796_q.jpg" />\\n                <div id="creatorName">Neytiri</div>\\n                <div id="creatorStats">Pinned 1 hour ago from TechCrunch.com</div>\\n            </div>\\n        </div>\\n        <div id="showItemContent" class="clearfix"></div>\\n    </div>\\n\', escape=False)\nresponse.write(\'\\n\', escape=False)\nresponse.write(\'\\n<div id="addBar">\\n    <div class="picker">\\n        <a href="#">switch page and board</a>\\n    </div>\\n    <div class="add" id="addPage">\\n        <form onsubmit="ajax(\\\'\', escape=False)\nresponse.write(URL(\'addPage\'))\nresponse.write(\'\\\', [\\\'url\\\',\\\'board\\\'], \\\'addBarMsg\\\');return false;">\\n            <ul>\\n                <li><span>URL</span><input name="url" /></li>\\n                <li>\\n                    <select name="board">\\n                    \', escape=False)\nfor board in boards:\n    response.write(\'\\n                        <option>\', escape=False)\n    response.write(board.name)\n    response.write(\'</option>\\n                    \', escape=False)\n    pass\nresponse.write(\'               \\n                     \\n                    </select>        \\n                </li>\\n                <li><input type="submit" /></li>\\n            </ul>\\n        </form>\\n    </div>\\n    <div class="add" id="addBoard" style="display:none;">\\n        <form onsubmit="ajax(\\\'\', escape=False)\nresponse.write(URL(\'addBoard\'))\nresponse.write(\'\\\', [\\\'boardName\\\',\\\'category\\\'], \\\'addBarMsg\\\');return false;">\\n            <ul>\\n                <li><span>Board</span><input name="boardName" /></li>\\n                <li>\\n                    <select name="category">\\n                    \', escape=False)\nfor cat in categories:\n    response.write(\'\\n                        <option>\', escape=False)\n    response.write(cat.name)\n    response.write(\'</option>\\n                    \', escape=False)\n    pass\nresponse.write(\'                \\n                    </select>        \\n                </li>\\n                <li><input type="submit" /></li>\\n            </ul>\\n        </form>\\n    </div>\\n    <div id="addBarMsg"></div>\\n</div>\\n<div id="categoriesBar">\\n    <ul id="categoriesNav">\\n        <li><b>Info you follow</b></li>\\n        <li><a href="#">Everything</a></li>\\n        <li><a href="#">Popular</a></li>\\n        <li><a href="#">Recommended</a></li>\\n        \', escape=False)\nif auth.user is no None\nresponse.write(\'<li><a href="#" id="addButton">Add +</a></li>\', escape=False)\npass\nresponse.write(\'\\n    </ul>\\n</div>\\n\\n<div id="wrapper">\\n    <ul id="example">\\n        \', escape=False)\nfor item in items:\n    response.write(\'\\n            <li style="height:\', escape=False)\n    response.write(item[\'height\'])\n    response.write(\'px">\\n                <div class="itemWrapper">\\n                    <div class="actions">\\n                        <a href="#" class="whiteButton repinButton"><em></em><strong>Repin</strong></a>\\n                        <a href="#" class="whiteButton likeButton"><em></em><strong>Like</strong></a>\\n                        <a href="#" class="whiteButton commentButton"><em></em><strong>Comment</strong></a>\\n                    </div>\\n                    <h1 class="itemTitle"><a href="\', escape=False)\n    response.write(item[\'url\'])\n    response.write(\'">\', escape=False)\n    response.write(item[\'title\'])\n    response.write(\'</a></h1>\\n                    <h2 class="itemSubtitle">\\n                        <a href="#">\\n                            <img src="\', escape=False)\n    response.write(item[\'iconURL\'])\n    response.write(\'"/>\\n                            <span>\', escape=False)\n    response.write(item[\'source\'])\n    response.write(\'<span>\\n                        </a>\\n                        <label class="itemTime">3 hours ago</label>\\n                    </h2>\\n                    <div class="itemContent">\\n                        <img src="\', escape=False)\n    response.write(item[\'imgURL\'])\n    response.write(\'" />\\n                        <label class="itemText" />\\n                    </div>\\n                </div>\\n            </li>\\n        \', escape=False)\n    pass\nresponse.write(\'\\n    </ul>\\n</div>\\n\', escape=False)\nresponse.write(\'\\n\', escape=False)\nresponse.write(\'\\n    <script type="text/javascript" src="/udi0312/static/js/site.js"></script>\\n</body>\\n</html>\\n\', escape=False)'
p7
sS'snapshot'
p8
(dp9
S'exception'
p10
(dp11
S'__getslice__'
p12
S"<method-wrapper '__getslice__' of exceptions.SyntaxError object at 0xa061270>"
p13
sS'text'
p14
S"'if auth.user is no None\\n'"
p15
sS'__str__'
p16
S"<method-wrapper '__str__' of exceptions.SyntaxError object at 0xa061270>"
p17
sS'__reduce__'
p18
S'<built-in method __reduce__ of exceptions.SyntaxError object at 0xa061270>'
p19
sS'__dict__'
p20
S'{}'
p21
sS'__init__'
p22
S"<method-wrapper '__init__' of exceptions.SyntaxError object at 0xa061270>"
p23
sS'__setattr__'
p24
S"<method-wrapper '__setattr__' of exceptions.SyntaxError object at 0xa061270>"
p25
sS'__reduce_ex__'
p26
S'<built-in method __reduce_ex__ of exceptions.SyntaxError object at 0xa061270>'
p27
sS'__new__'
p28
S'<built-in method __new__ of type object at 0x100320>'
p29
sS'__class__'
p30
S"<type 'exceptions.SyntaxError'>"
p31
sS'filename'
p32
S"'/Users/udimilo/Documents/web2py/applications/udi0312/views/default/index.html'"
p33
sS'lineno'
p34
S'22'
p35
sS'msg'
p36
S"'invalid syntax'"
p37
sS'__doc__'
p38
S"'Invalid syntax.'"
p39
sS'__getitem__'
p40
S"<method-wrapper '__getitem__' of exceptions.SyntaxError object at 0xa061270>"
p41
sS'__setstate__'
p42
S'<built-in method __setstate__ of exceptions.SyntaxError object at 0xa061270>'
p43
sS'__getattribute__'
p44
S"<method-wrapper '__getattribute__' of exceptions.SyntaxError object at 0xa061270>"
p45
sS'print_file_and_line'
p46
S'None'
p47
sS'args'
p48
S"('invalid syntax', ('/Users/udimilo/Documents/web2py/applications/udi0312/views/default/index.html', 22, 23, 'if auth.user is no None\\n'))"
p49
sS'offset'
p50
S'23'
p51
sS'__delattr__'
p52
S"<method-wrapper '__delattr__' of exceptions.SyntaxError object at 0xa061270>"
p53
sS'__repr__'
p54
S"<method-wrapper '__repr__' of exceptions.SyntaxError object at 0xa061270>"
p55
sS'__hash__'
p56
S"<method-wrapper '__hash__' of exceptions.SyntaxError object at 0xa061270>"
p57
ssS'evalue'
p58
S'invalid syntax (index.html, line 22)'
p59
sS'request'
p60
ccopy_reg
_reconstructor
p61
(cgluon.html
BEAUTIFY
p62
c__builtin__
object
p63
NtRp64
(dp65
S'attributes'
p66
(dp67
sS'components'
p68
(lp69
g61
(cgluon.html
TABLE
p70
g63
NtRp71
(dp72
g66
(dp73
S'level'
p74
I5
ssS'parent'
p75
Nsg68
(lp76
g61
(cgluon.html
TR
p77
g63
NtRp78
(dp79
g66
(dp80
sg75
g71
sg68
(lp81
g61
(cgluon.html
TD
p82
g63
NtRp83
(dp84
g66
(dp85
S'_style'
p86
S'font-weight:bold;vertical-align:top'
p87
ssg75
g78
sg68
(lp88
S'ajax'
p89
asbag61
(g82
g63
NtRp90
(dp91
g66
(dp92
S'_valign'
p93
S'top'
p94
ssg75
g78
sg68
(lp95
S':'
asbag61
(g82
g63
NtRp96
(dp97
g66
(dp98
sg75
g78
sg68
(lp99
g61
(g62
g63
NtRp100
(dp101
g66
(dp102
g74
I5
ssg75
g96
sg68
(lp103
S'False'
p104
asbasbasbag61
(g77
g63
NtRp105
(dp106
g66
(dp107
sg75
g71
sg68
(lp108
g61
(g82
g63
NtRp109
(dp110
g66
(dp111
g86
g87
ssg75
g105
sg68
(lp112
S'application'
p113
asbag61
(g82
g63
NtRp114
(dp115
g66
(dp116
g93
g94
ssg75
g105
sg68
(lp117
S':'
asbag61
(g82
g63
NtRp118
(dp119
g66
(dp120
sg75
g105
sg68
(lp121
g61
(g62
g63
NtRp122
(dp123
g66
(dp124
g74
I5
ssg75
g118
sg68
(lp125
S'udi0312'
p126
asbasbasbag61
(g77
g63
NtRp127
(dp128
g66
(dp129
sg75
g71
sg68
(lp130
g61
(g82
g63
NtRp131
(dp132
g66
(dp133
g86
g87
ssg75
g127
sg68
(lp134
g48
asbag61
(g82
g63
NtRp135
(dp136
g66
(dp137
g93
g94
ssg75
g127
sg68
(lp138
S':'
asbag61
(g82
g63
NtRp139
(dp140
g66
(dp141
sg75
g127
sg68
(lp142
g61
(g62
g63
NtRp143
(dp144
g66
(dp145
g74
I5
ssg75
g139
sg68
(lp146
g61
(g70
g63
NtRp147
(dp148
g66
(dp149
g74
I4
ssg75
Nsg68
(lp150
sbasbasbasbag61
(g77
g63
NtRp151
(dp152
g66
(dp153
sg75
g71
sg68
(lp154
g61
(g82
g63
NtRp155
(dp156
g66
(dp157
g86
g87
ssg75
g151
sg68
(lp158
S'body'
p159
asbag61
(g82
g63
NtRp160
(dp161
g66
(dp162
g93
g94
ssg75
g151
sg68
(lp163
S':'
asbag61
(g82
g63
NtRp164
(dp165
g66
(dp166
sg75
g151
sg68
(lp167
g61
(g62
g63
NtRp168
(dp169
g66
(dp170
g74
I5
ssg75
g164
sg68
(lp171
S'<cStringIO.StringO object at 0xa59e4e0>'
p172
asbasbasbag61
(g77
g63
NtRp173
(dp174
g66
(dp175
sg75
g71
sg68
(lp176
g61
(g82
g63
NtRp177
(dp178
g66
(dp179
g86
g87
ssg75
g173
sg68
(lp180
S'client'
p181
asbag61
(g82
g63
NtRp182
(dp183
g66
(dp184
g93
g94
ssg75
g173
sg68
(lp185
S':'
asbag61
(g82
g63
NtRp186
(dp187
g66
(dp188
sg75
g173
sg68
(lp189
g61
(g62
g63
NtRp190
(dp191
g66
(dp192
g74
I5
ssg75
g186
sg68
(lp193
S'127.0.0.1'
p194
asbasbasbag61
(g77
g63
NtRp195
(dp196
g66
(dp197
sg75
g71
sg68
(lp198
g61
(g82
g63
NtRp199
(dp200
g66
(dp201
g86
g87
ssg75
g195
sg68
(lp202
S'controller'
p203
asbag61
(g82
g63
NtRp204
(dp205
g66
(dp206
g93
g94
ssg75
g195
sg68
(lp207
S':'
asbag61
(g82
g63
NtRp208
(dp209
g66
(dp210
sg75
g195
sg68
(lp211
g61
(g62
g63
NtRp212
(dp213
g66
(dp214
g74
I5
ssg75
g208
sg68
(lp215
S'default'
p216
asbasbasbag61
(g77
g63
NtRp217
(dp218
g66
(dp219
sg75
g71
sg68
(lp220
g61
(g82
g63
NtRp221
(dp222
g66
(dp223
g86
g87
ssg75
g217
sg68
(lp224
S'cookies'
p225
asbag61
(g82
g63
NtRp226
(dp227
g66
(dp228
g93
g94
ssg75
g217
sg68
(lp229
S':'
asbag61
(g82
g63
NtRp230
(dp231
g66
(dp232
sg75
g217
sg68
(lp233
g61
(g62
g63
NtRp234
(dp235
g66
(dp236
g74
I5
ssg75
g230
sg68
(lp237
g61
(g70
g63
NtRp238
(dp239
g66
(dp240
g74
I4
ssg75
Nsg68
(lp241
g61
(g77
g63
NtRp242
(dp243
g66
(dp244
sg75
g238
sg68
(lp245
g61
(g82
g63
NtRp246
(dp247
g66
(dp248
g86
g87
ssg75
g242
sg68
(lp249
S'session_id_admin'
p250
asbag61
(g82
g63
NtRp251
(dp252
g66
(dp253
g93
g94
ssg75
g242
sg68
(lp254
S':'
asbag61
(g82
g63
NtRp255
(dp256
g66
(dp257
sg75
g242
sg68
(lp258
g61
(g62
g63
NtRp259
(dp260
g66
(dp261
g74
I4
ssg75
g255
sg68
(lp262
g61
(g70
g63
NtRp263
(dp264
g66
(dp265
g74
I3
ssg75
Nsg68
(lp266
g61
(g77
g63
NtRp267
(dp268
g66
(dp269
sg75
g263
sg68
(lp270
g61
(g82
g63
NtRp271
(dp272
g66
(dp273
g86
g87
ssg75
g267
sg68
(lp274
S'comment'
p275
asbag61
(g82
g63
NtRp276
(dp277
g66
(dp278
g93
g94
ssg75
g267
sg68
(lp279
S':'
asbag61
(g82
g63
NtRp280
(dp281
g66
(dp282
sg75
g267
sg68
(lp283
g61
(g62
g63
NtRp284
(dp285
g66
(dp286
g74
I3
ssg75
g280
sg68
(lp287
S''
asbasbasbag61
(g77
g63
NtRp288
(dp289
g66
(dp290
sg75
g263
sg68
(lp291
g61
(g82
g63
NtRp292
(dp293
g66
(dp294
g86
g87
ssg75
g288
sg68
(lp295
S'domain'
p296
asbag61
(g82
g63
NtRp297
(dp298
g66
(dp299
g93
g94
ssg75
g288
sg68
(lp300
S':'
asbag61
(g82
g63
NtRp301
(dp302
g66
(dp303
sg75
g288
sg68
(lp304
g61
(g62
g63
NtRp305
(dp306
g66
(dp307
g74
I3
ssg75
g301
sg68
(lp308
S''
asbasbasbag61
(g77
g63
NtRp309
(dp310
g66
(dp311
sg75
g263
sg68
(lp312
g61
(g82
g63
NtRp313
(dp314
g66
(dp315
g86
g87
ssg75
g309
sg68
(lp316
S'expires'
p317
asbag61
(g82
g63
NtRp318
(dp319
g66
(dp320
g93
g94
ssg75
g309
sg68
(lp321
S':'
asbag61
(g82
g63
NtRp322
(dp323
g66
(dp324
sg75
g309
sg68
(lp325
g61
(g62
g63
NtRp326
(dp327
g66
(dp328
g74
I3
ssg75
g322
sg68
(lp329
S''
asbasbasbag61
(g77
g63
NtRp330
(dp331
g66
(dp332
sg75
g263
sg68
(lp333
g61
(g82
g63
NtRp334
(dp335
g66
(dp336
g86
g87
ssg75
g330
sg68
(lp337
S'max-age'
p338
asbag61
(g82
g63
NtRp339
(dp340
g66
(dp341
g93
g94
ssg75
g330
sg68
(lp342
S':'
asbag61
(g82
g63
NtRp343
(dp344
g66
(dp345
sg75
g330
sg68
(lp346
g61
(g62
g63
NtRp347
(dp348
g66
(dp349
g74
I3
ssg75
g343
sg68
(lp350
S''
asbasbasbag61
(g77
g63
NtRp351
(dp352
g66
(dp353
sg75
g263
sg68
(lp354
g61
(g82
g63
NtRp355
(dp356
g66
(dp357
g86
g87
ssg75
g351
sg68
(lp358
S'path'
p359
asbag61
(g82
g63
NtRp360
(dp361
g66
(dp362
g93
g94
ssg75
g351
sg68
(lp363
S':'
asbag61
(g82
g63
NtRp364
(dp365
g66
(dp366
sg75
g351
sg68
(lp367
g61
(g62
g63
NtRp368
(dp369
g66
(dp370
g74
I3
ssg75
g364
sg68
(lp371
S''
asbasbasbag61
(g77
g63
NtRp372
(dp373
g66
(dp374
sg75
g263
sg68
(lp375
g61
(g82
g63
NtRp376
(dp377
g66
(dp378
g86
g87
ssg75
g372
sg68
(lp379
S'secure'
p380
asbag61
(g82
g63
NtRp381
(dp382
g66
(dp383
g93
g94
ssg75
g372
sg68
(lp384
S':'
asbag61
(g82
g63
NtRp385
(dp386
g66
(dp387
sg75
g372
sg68
(lp388
g61
(g62
g63
NtRp389
(dp390
g66
(dp391
g74
I3
ssg75
g385
sg68
(lp392
S''
asbasbasbag61
(g77
g63
NtRp393
(dp394
g66
(dp395
sg75
g263
sg68
(lp396
g61
(g82
g63
NtRp397
(dp398
g66
(dp399
g86
g87
ssg75
g393
sg68
(lp400
S'version'
p401
asbag61
(g82
g63
NtRp402
(dp403
g66
(dp404
g93
g94
ssg75
g393
sg68
(lp405
S':'
asbag61
(g82
g63
NtRp406
(dp407
g66
(dp408
sg75
g393
sg68
(lp409
g61
(g62
g63
NtRp410
(dp411
g66
(dp412
g74
I3
ssg75
g406
sg68
(lp413
S''
asbasbasbasbasbasbasbag61
(g77
g63
NtRp414
(dp415
g66
(dp416
sg75
g238
sg68
(lp417
g61
(g82
g63
NtRp418
(dp419
g66
(dp420
g86
g87
ssg75
g414
sg68
(lp421
S'session_id_udi0312'
p422
asbag61
(g82
g63
NtRp423
(dp424
g66
(dp425
g93
g94
ssg75
g414
sg68
(lp426
S':'
asbag61
(g82
g63
NtRp427
(dp428
g66
(dp429
sg75
g414
sg68
(lp430
g61
(g62
g63
NtRp431
(dp432
g66
(dp433
g74
I4
ssg75
g427
sg68
(lp434
g61
(g70
g63
NtRp435
(dp436
g66
(dp437
g74
I3
ssg75
Nsg68
(lp438
g61
(g77
g63
NtRp439
(dp440
g66
(dp441
sg75
g435
sg68
(lp442
g61
(g82
g63
NtRp443
(dp444
g66
(dp445
g86
g87
ssg75
g439
sg68
(lp446
g275
asbag61
(g82
g63
NtRp447
(dp448
g66
(dp449
g93
g94
ssg75
g439
sg68
(lp450
S':'
asbag61
(g82
g63
NtRp451
(dp452
g66
(dp453
sg75
g439
sg68
(lp454
g61
(g62
g63
NtRp455
(dp456
g66
(dp457
g74
I3
ssg75
g451
sg68
(lp458
S''
asbasbasbag61
(g77
g63
NtRp459
(dp460
g66
(dp461
sg75
g435
sg68
(lp462
g61
(g82
g63
NtRp463
(dp464
g66
(dp465
g86
g87
ssg75
g459
sg68
(lp466
g296
asbag61
(g82
g63
NtRp467
(dp468
g66
(dp469
g93
g94
ssg75
g459
sg68
(lp470
S':'
asbag61
(g82
g63
NtRp471
(dp472
g66
(dp473
sg75
g459
sg68
(lp474
g61
(g62
g63
NtRp475
(dp476
g66
(dp477
g74
I3
ssg75
g471
sg68
(lp478
S''
asbasbasbag61
(g77
g63
NtRp479
(dp480
g66
(dp481
sg75
g435
sg68
(lp482
g61
(g82
g63
NtRp483
(dp484
g66
(dp485
g86
g87
ssg75
g479
sg68
(lp486
g317
asbag61
(g82
g63
NtRp487
(dp488
g66
(dp489
g93
g94
ssg75
g479
sg68
(lp490
S':'
asbag61
(g82
g63
NtRp491
(dp492
g66
(dp493
sg75
g479
sg68
(lp494
g61
(g62
g63
NtRp495
(dp496
g66
(dp497
g74
I3
ssg75
g491
sg68
(lp498
S''
asbasbasbag61
(g77
g63
NtRp499
(dp500
g66
(dp501
sg75
g435
sg68
(lp502
g61
(g82
g63
NtRp503
(dp504
g66
(dp505
g86
g87
ssg75
g499
sg68
(lp506
g338
asbag61
(g82
g63
NtRp507
(dp508
g66
(dp509
g93
g94
ssg75
g499
sg68
(lp510
S':'
asbag61
(g82
g63
NtRp511
(dp512
g66
(dp513
sg75
g499
sg68
(lp514
g61
(g62
g63
NtRp515
(dp516
g66
(dp517
g74
I3
ssg75
g511
sg68
(lp518
S''
asbasbasbag61
(g77
g63
NtRp519
(dp520
g66
(dp521
sg75
g435
sg68
(lp522
g61
(g82
g63
NtRp523
(dp524
g66
(dp525
g86
g87
ssg75
g519
sg68
(lp526
g359
asbag61
(g82
g63
NtRp527
(dp528
g66
(dp529
g93
g94
ssg75
g519
sg68
(lp530
S':'
asbag61
(g82
g63
NtRp531
(dp532
g66
(dp533
sg75
g519
sg68
(lp534
g61
(g62
g63
NtRp535
(dp536
g66
(dp537
g74
I3
ssg75
g531
sg68
(lp538
S''
asbasbasbag61
(g77
g63
NtRp539
(dp540
g66
(dp541
sg75
g435
sg68
(lp542
g61
(g82
g63
NtRp543
(dp544
g66
(dp545
g86
g87
ssg75
g539
sg68
(lp546
g380
asbag61
(g82
g63
NtRp547
(dp548
g66
(dp549
g93
g94
ssg75
g539
sg68
(lp550
S':'
asbag61
(g82
g63
NtRp551
(dp552
g66
(dp553
sg75
g539
sg68
(lp554
g61
(g62
g63
NtRp555
(dp556
g66
(dp557
g74
I3
ssg75
g551
sg68
(lp558
S''
asbasbasbag61
(g77
g63
NtRp559
(dp560
g66
(dp561
sg75
g435
sg68
(lp562
g61
(g82
g63
NtRp563
(dp564
g66
(dp565
g86
g87
ssg75
g559
sg68
(lp566
g401
asbag61
(g82
g63
NtRp567
(dp568
g66
(dp569
g93
g94
ssg75
g559
sg68
(lp570
S':'
asbag61
(g82
g63
NtRp571
(dp572
g66
(dp573
sg75
g559
sg68
(lp574
g61
(g62
g63
NtRp575
(dp576
g66
(dp577
g74
I3
ssg75
g571
sg68
(lp578
S''
asbasbasbasbasbasbasbag61
(g77
g63
NtRp579
(dp580
g66
(dp581
sg75
g238
sg68
(lp582
g61
(g82
g63
NtRp583
(dp584
g66
(dp585
g86
g87
ssg75
g579
sg68
(lp586
S'session_id_welcome'
p587
asbag61
(g82
g63
NtRp588
(dp589
g66
(dp590
g93
g94
ssg75
g579
sg68
(lp591
S':'
asbag61
(g82
g63
NtRp592
(dp593
g66
(dp594
sg75
g579
sg68
(lp595
g61
(g62
g63
NtRp596
(dp597
g66
(dp598
g74
I4
ssg75
g592
sg68
(lp599
g61
(g70
g63
NtRp600
(dp601
g66
(dp602
g74
I3
ssg75
Nsg68
(lp603
g61
(g77
g63
NtRp604
(dp605
g66
(dp606
sg75
g600
sg68
(lp607
g61
(g82
g63
NtRp608
(dp609
g66
(dp610
g86
g87
ssg75
g604
sg68
(lp611
g275
asbag61
(g82
g63
NtRp612
(dp613
g66
(dp614
g93
g94
ssg75
g604
sg68
(lp615
S':'
asbag61
(g82
g63
NtRp616
(dp617
g66
(dp618
sg75
g604
sg68
(lp619
g61
(g62
g63
NtRp620
(dp621
g66
(dp622
g74
I3
ssg75
g616
sg68
(lp623
S''
asbasbasbag61
(g77
g63
NtRp624
(dp625
g66
(dp626
sg75
g600
sg68
(lp627
g61
(g82
g63
NtRp628
(dp629
g66
(dp630
g86
g87
ssg75
g624
sg68
(lp631
g296
asbag61
(g82
g63
NtRp632
(dp633
g66
(dp634
g93
g94
ssg75
g624
sg68
(lp635
S':'
asbag61
(g82
g63
NtRp636
(dp637
g66
(dp638
sg75
g624
sg68
(lp639
g61
(g62
g63
NtRp640
(dp641
g66
(dp642
g74
I3
ssg75
g636
sg68
(lp643
S''
asbasbasbag61
(g77
g63
NtRp644
(dp645
g66
(dp646
sg75
g600
sg68
(lp647
g61
(g82
g63
NtRp648
(dp649
g66
(dp650
g86
g87
ssg75
g644
sg68
(lp651
g317
asbag61
(g82
g63
NtRp652
(dp653
g66
(dp654
g93
g94
ssg75
g644
sg68
(lp655
S':'
asbag61
(g82
g63
NtRp656
(dp657
g66
(dp658
sg75
g644
sg68
(lp659
g61
(g62
g63
NtRp660
(dp661
g66
(dp662
g74
I3
ssg75
g656
sg68
(lp663
S''
asbasbasbag61
(g77
g63
NtRp664
(dp665
g66
(dp666
sg75
g600
sg68
(lp667
g61
(g82
g63
NtRp668
(dp669
g66
(dp670
g86
g87
ssg75
g664
sg68
(lp671
g338
asbag61
(g82
g63
NtRp672
(dp673
g66
(dp674
g93
g94
ssg75
g664
sg68
(lp675
S':'
asbag61
(g82
g63
NtRp676
(dp677
g66
(dp678
sg75
g664
sg68
(lp679
g61
(g62
g63
NtRp680
(dp681
g66
(dp682
g74
I3
ssg75
g676
sg68
(lp683
S''
asbasbasbag61
(g77
g63
NtRp684
(dp685
g66
(dp686
sg75
g600
sg68
(lp687
g61
(g82
g63
NtRp688
(dp689
g66
(dp690
g86
g87
ssg75
g684
sg68
(lp691
g359
asbag61
(g82
g63
NtRp692
(dp693
g66
(dp694
g93
g94
ssg75
g684
sg68
(lp695
S':'
asbag61
(g82
g63
NtRp696
(dp697
g66
(dp698
sg75
g684
sg68
(lp699
g61
(g62
g63
NtRp700
(dp701
g66
(dp702
g74
I3
ssg75
g696
sg68
(lp703
S''
asbasbasbag61
(g77
g63
NtRp704
(dp705
g66
(dp706
sg75
g600
sg68
(lp707
g61
(g82
g63
NtRp708
(dp709
g66
(dp710
g86
g87
ssg75
g704
sg68
(lp711
g380
asbag61
(g82
g63
NtRp712
(dp713
g66
(dp714
g93
g94
ssg75
g704
sg68
(lp715
S':'
asbag61
(g82
g63
NtRp716
(dp717
g66
(dp718
sg75
g704
sg68
(lp719
g61
(g62
g63
NtRp720
(dp721
g66
(dp722
g74
I3
ssg75
g716
sg68
(lp723
S''
asbasbasbag61
(g77
g63
NtRp724
(dp725
g66
(dp726
sg75
g600
sg68
(lp727
g61
(g82
g63
NtRp728
(dp729
g66
(dp730
g86
g87
ssg75
g724
sg68
(lp731
g401
asbag61
(g82
g63
NtRp732
(dp733
g66
(dp734
g93
g94
ssg75
g724
sg68
(lp735
S':'
asbag61
(g82
g63
NtRp736
(dp737
g66
(dp738
sg75
g724
sg68
(lp739
g61
(g62
g63
NtRp740
(dp741
g66
(dp742
g74
I3
ssg75
g736
sg68
(lp743
S''
asbasbasbasbasbasbasbasbasbasbasbag61
(g77
g63
NtRp744
(dp745
g66
(dp746
sg75
g71
sg68
(lp747
g61
(g82
g63
NtRp748
(dp749
g66
(dp750
g86
g87
ssg75
g744
sg68
(lp751
S'env'
p752
asbag61
(g82
g63
NtRp753
(dp754
g66
(dp755
g93
g94
ssg75
g744
sg68
(lp756
S':'
asbag61
(g82
g63
NtRp757
(dp758
g66
(dp759
sg75
g744
sg68
(lp760
g61
(g62
g63
NtRp761
(dp762
g66
(dp763
g74
I5
ssg75
g757
sg68
(lp764
g61
(g70
g63
NtRp765
(dp766
g66
(dp767
g74
I4
ssg75
Nsg68
(lp768
g61
(g77
g63
NtRp769
(dp770
g66
(dp771
sg75
g765
sg68
(lp772
g61
(g82
g63
NtRp773
(dp774
g66
(dp775
g86
g87
ssg75
g769
sg68
(lp776
S'app_folders'
p777
asbag61
(g82
g63
NtRp778
(dp779
g66
(dp780
g93
g94
ssg75
g769
sg68
(lp781
S':'
asbag61
(g82
g63
NtRp782
(dp783
g66
(dp784
sg75
g769
sg68
(lp785
g61
(g62
g63
NtRp786
(dp787
g66
(dp788
g74
I4
ssg75
g782
sg68
(lp789
S"set(['/Users/udimilo/Documents/web2py/applications/udi0312/', '/Users/udimilo/Documents/web2py/applications/admin/'])"
p790
asbasbasbag61
(g77
g63
NtRp791
(dp792
g66
(dp793
sg75
g765
sg68
(lp794
g61
(g82
g63
NtRp795
(dp796
g66
(dp797
g86
g87
ssg75
g791
sg68
(lp798
S'applications_parent'
p799
asbag61
(g82
g63
NtRp800
(dp801
g66
(dp802
g93
g94
ssg75
g791
sg68
(lp803
S':'
asbag61
(g82
g63
NtRp804
(dp805
g66
(dp806
sg75
g791
sg68
(lp807
g61
(g62
g63
NtRp808
(dp809
g66
(dp810
g74
I4
ssg75
g804
sg68
(lp811
S'/Users/udimilo/Documents/web2py'
p812
asbasbasbag61
(g77
g63
NtRp813
(dp814
g66
(dp815
sg75
g765
sg68
(lp816
g61
(g82
g63
NtRp817
(dp818
g66
(dp819
g86
g87
ssg75
g813
sg68
(lp820
S'cmd_args'
p821
asbag61
(g82
g63
NtRp822
(dp823
g66
(dp824
g93
g94
ssg75
g813
sg68
(lp825
S':'
asbag61
(g82
g63
NtRp826
(dp827
g66
(dp828
sg75
g813
sg68
(lp829
g61
(g62
g63
NtRp830
(dp831
g66
(dp832
g74
I4
ssg75
g826
sg68
(lp833
g61
(g70
g63
NtRp834
(dp835
g66
(dp836
g74
I3
ssg75
Nsg68
(lp837
sbasbasbasbag61
(g77
g63
NtRp838
(dp839
g66
(dp840
sg75
g765
sg68
(lp841
g61
(g82
g63
NtRp842
(dp843
g66
(dp844
g86
g87
ssg75
g838
sg68
(lp845
S'cmd_options'
p846
asbag61
(g82
g63
NtRp847
(dp848
g66
(dp849
g93
g94
ssg75
g838
sg68
(lp850
S':'
asbag61
(g82
g63
NtRp851
(dp852
g66
(dp853
sg75
g838
sg68
(lp854
g61
(g62
g63
NtRp855
(dp856
g66
(dp857
g74
I4
ssg75
g851
sg68
(lp858
S"<Values at 0x2c16058: {'verbose': False, 'ip': '127.0.0.1', 'shutdown_timeout': 5, 'taskbar': False, 'nocron': False, 'pid_filename': 'httpserver.pid', 'maxthreads': None, 'softcron': False, 'server_name': 'Udi-Milos-MacBook-Pro.local', 'bpython': False, 'nogui': False, 'port': 8000, 'extcron': False, 'debuglevel': 30, 'test': None, 'folder': '/Users/udimilo/Documents/web2py', 'config': '', 'import_models': False, 'winservice': '', 'shell': None, 'run': '', 'log_filename': 'httpserver.log', 'args': [''], 'socket_timeout': 5, 'ssl_ca_certificate': None, 'scheduler': None, 'profiler_filename': None, 'ssl_private_key': '', 'password': '<ask>', 'request_queue_size': 5, 'ssl_certificate': '', 'cronjob': False, 'numthreads': None, 'quiet': False, 'interfaces': None, 'minthreads': None, 'timeout': 10, 'plain': False, 'nobanner': False}>"
p859
asbasbasbag61
(g77
g63
NtRp860
(dp861
g66
(dp862
sg75
g765
sg68
(lp863
g61
(g82
g63
NtRp864
(dp865
g66
(dp866
g86
g87
ssg75
g860
sg68
(lp867
S'db_sessions'
p868
asbag61
(g82
g63
NtRp869
(dp870
g66
(dp871
g93
g94
ssg75
g860
sg68
(lp872
S':'
asbag61
(g82
g63
NtRp873
(dp874
g66
(dp875
sg75
g860
sg68
(lp876
g61
(g62
g63
NtRp877
(dp878
g66
(dp879
g74
I4
ssg75
g873
sg68
(lp880
S'set([])'
p881
asbasbasbag61
(g77
g63
NtRp882
(dp883
g66
(dp884
sg75
g765
sg68
(lp885
g61
(g82
g63
NtRp886
(dp887
g66
(dp888
g86
g87
ssg75
g882
sg68
(lp889
S'debugging'
p890
asbag61
(g82
g63
NtRp891
(dp892
g66
(dp893
g93
g94
ssg75
g882
sg68
(lp894
S':'
asbag61
(g82
g63
NtRp895
(dp896
g66
(dp897
sg75
g882
sg68
(lp898
g61
(g62
g63
NtRp899
(dp900
g66
(dp901
g74
I4
ssg75
g895
sg68
(lp902
g104
asbasbasbag61
(g77
g63
NtRp903
(dp904
g66
(dp905
sg75
g765
sg68
(lp906
g61
(g82
g63
NtRp907
(dp908
g66
(dp909
g86
g87
ssg75
g903
sg68
(lp910
S'gluon_parent'
p911
asbag61
(g82
g63
NtRp912
(dp913
g66
(dp914
g93
g94
ssg75
g903
sg68
(lp915
S':'
asbag61
(g82
g63
NtRp916
(dp917
g66
(dp918
sg75
g903
sg68
(lp919
g61
(g62
g63
NtRp920
(dp921
g66
(dp922
g74
I4
ssg75
g916
sg68
(lp923
S'/Users/udimilo/Documents/web2py'
p924
asbasbasbag61
(g77
g63
NtRp925
(dp926
g66
(dp927
sg75
g765
sg68
(lp928
g61
(g82
g63
NtRp929
(dp930
g66
(dp931
g86
g87
ssg75
g925
sg68
(lp932
S'http_accept'
p933
asbag61
(g82
g63
NtRp934
(dp935
g66
(dp936
g93
g94
ssg75
g925
sg68
(lp937
S':'
asbag61
(g82
g63
NtRp938
(dp939
g66
(dp940
sg75
g925
sg68
(lp941
g61
(g62
g63
NtRp942
(dp943
g66
(dp944
g74
I4
ssg75
g938
sg68
(lp945
S'text/html,application/xhtml+xml,application/xml;q=0.9,*/*;q=0.8'
p946
asbasbasbag61
(g77
g63
NtRp947
(dp948
g66
(dp949
sg75
g765
sg68
(lp950
g61
(g82
g63
NtRp951
(dp952
g66
(dp953
g86
g87
ssg75
g947
sg68
(lp954
S'http_accept_charset'
p955
asbag61
(g82
g63
NtRp956
(dp957
g66
(dp958
g93
g94
ssg75
g947
sg68
(lp959
S':'
asbag61
(g82
g63
NtRp960
(dp961
g66
(dp962
sg75
g947
sg68
(lp963
g61
(g62
g63
NtRp964
(dp965
g66
(dp966
g74
I4
ssg75
g960
sg68
(lp967
S'ISO-8859-1,utf-8;q=0.7,*;q=0.3'
p968
asbasbasbag61
(g77
g63
NtRp969
(dp970
g66
(dp971
sg75
g765
sg68
(lp972
g61
(g82
g63
NtRp973
(dp974
g66
(dp975
g86
g87
ssg75
g969
sg68
(lp976
S'http_accept_encoding'
p977
asbag61
(g82
g63
NtRp978
(dp979
g66
(dp980
g93
g94
ssg75
g969
sg68
(lp981
S':'
asbag61
(g82
g63
NtRp982
(dp983
g66
(dp984
sg75
g969
sg68
(lp985
g61
(g62
g63
NtRp986
(dp987
g66
(dp988
g74
I4
ssg75
g982
sg68
(lp989
S'gzip,deflate,sdch'
p990
asbasbasbag61
(g77
g63
NtRp991
(dp992
g66
(dp993
sg75
g765
sg68
(lp994
g61
(g82
g63
NtRp995
(dp996
g66
(dp997
g86
g87
ssg75
g991
sg68
(lp998
S'http_accept_language'
p999
asbag61
(g82
g63
NtRp1000
(dp1001
g66
(dp1002
g93
g94
ssg75
g991
sg68
(lp1003
S':'
asbag61
(g82
g63
NtRp1004
(dp1005
g66
(dp1006
sg75
g991
sg68
(lp1007
g61
(g62
g63
NtRp1008
(dp1009
g66
(dp1010
g74
I4
ssg75
g1004
sg68
(lp1011
S'en-US,en;q=0.8'
p1012
asbasbasbag61
(g77
g63
NtRp1013
(dp1014
g66
(dp1015
sg75
g765
sg68
(lp1016
g61
(g82
g63
NtRp1017
(dp1018
g66
(dp1019
g86
g87
ssg75
g1013
sg68
(lp1020
S'http_cache_control'
p1021
asbag61
(g82
g63
NtRp1022
(dp1023
g66
(dp1024
g93
g94
ssg75
g1013
sg68
(lp1025
S':'
asbag61
(g82
g63
NtRp1026
(dp1027
g66
(dp1028
sg75
g1013
sg68
(lp1029
g61
(g62
g63
NtRp1030
(dp1031
g66
(dp1032
g74
I4
ssg75
g1026
sg68
(lp1033
S'max-age=0'
p1034
asbasbasbag61
(g77
g63
NtRp1035
(dp1036
g66
(dp1037
sg75
g765
sg68
(lp1038
g61
(g82
g63
NtRp1039
(dp1040
g66
(dp1041
g86
g87
ssg75
g1035
sg68
(lp1042
S'http_connection'
p1043
asbag61
(g82
g63
NtRp1044
(dp1045
g66
(dp1046
g93
g94
ssg75
g1035
sg68
(lp1047
S':'
asbag61
(g82
g63
NtRp1048
(dp1049
g66
(dp1050
sg75
g1035
sg68
(lp1051
g61
(g62
g63
NtRp1052
(dp1053
g66
(dp1054
g74
I4
ssg75
g1048
sg68
(lp1055
S'keep-alive'
p1056
asbasbasbag61
(g77
g63
NtRp1057
(dp1058
g66
(dp1059
sg75
g765
sg68
(lp1060
g61
(g82
g63
NtRp1061
(dp1062
g66
(dp1063
g86
g87
ssg75
g1057
sg68
(lp1064
S'http_cookie'
p1065
asbag61
(g82
g63
NtRp1066
(dp1067
g66
(dp1068
g93
g94
ssg75
g1057
sg68
(lp1069
S':'
asbag61
(g82
g63
NtRp1070
(dp1071
g66
(dp1072
sg75
g1057
sg68
(lp1073
g61
(g62
g63
NtRp1074
(dp1075
g66
(dp1076
g74
I4
ssg75
g1070
sg68
(lp1077
S'session_id_welcome=127.0.0.1-a504b24f-4d61-4d9a-9b5b-4625969b9aa0; session_id_udi0312=127.0.0.1-fcd6a577-d448-4882-b7bc-f353da84ba3b; session_id_admin=127.0.0.1-c37d4097-328c-4376-a48b-6f3b5af77d17'
p1078
asbasbasbag61
(g77
g63
NtRp1079
(dp1080
g66
(dp1081
sg75
g765
sg68
(lp1082
g61
(g82
g63
NtRp1083
(dp1084
g66
(dp1085
g86
g87
ssg75
g1079
sg68
(lp1086
S'http_host'
p1087
asbag61
(g82
g63
NtRp1088
(dp1089
g66
(dp1090
g93
g94
ssg75
g1079
sg68
(lp1091
S':'
asbag61
(g82
g63
NtRp1092
(dp1093
g66
(dp1094
sg75
g1079
sg68
(lp1095
g61
(g62
g63
NtRp1096
(dp1097
g66
(dp1098
g74
I4
ssg75
g1092
sg68
(lp1099
S'127.0.0.1:8000'
p1100
asbasbasbag61
(g77
g63
NtRp1101
(dp1102
g66
(dp1103
sg75
g765
sg68
(lp1104
g61
(g82
g63
NtRp1105
(dp1106
g66
(dp1107
g86
g87
ssg75
g1101
sg68
(lp1108
S'http_referer'
p1109
asbag61
(g82
g63
NtRp1110
(dp1111
g66
(dp1112
g93
g94
ssg75
g1101
sg68
(lp1113
S':'
asbag61
(g82
g63
NtRp1114
(dp1115
g66
(dp1116
sg75
g1101
sg68
(lp1117
g61
(g62
g63
NtRp1118
(dp1119
g66
(dp1120
g74
I4
ssg75
g1114
sg68
(lp1121
S'http://127.0.0.1:8000/user/login?_next=/'
p1122
asbasbasbag61
(g77
g63
NtRp1123
(dp1124
g66
(dp1125
sg75
g765
sg68
(lp1126
g61
(g82
g63
NtRp1127
(dp1128
g66
(dp1129
g86
g87
ssg75
g1123
sg68
(lp1130
S'http_user_agent'
p1131
asbag61
(g82
g63
NtRp1132
(dp1133
g66
(dp1134
g93
g94
ssg75
g1123
sg68
(lp1135
S':'
asbag61
(g82
g63
NtRp1136
(dp1137
g66
(dp1138
sg75
g1123
sg68
(lp1139
g61
(g62
g63
NtRp1140
(dp1141
g66
(dp1142
g74
I4
ssg75
g1136
sg68
(lp1143
S'Mozilla/5.0 (Macintosh; Intel Mac OS X 10_7_3) AppleWebKit/535.11 (KHTML, like Gecko) Chrome/17.0.963.65 Safari/535.11'
p1144
asbasbasbag61
(g77
g63
NtRp1145
(dp1146
g66
(dp1147
sg75
g765
sg68
(lp1148
g61
(g82
g63
NtRp1149
(dp1150
g66
(dp1151
g86
g87
ssg75
g1145
sg68
(lp1152
S'is_jython'
p1153
asbag61
(g82
g63
NtRp1154
(dp1155
g66
(dp1156
g93
g94
ssg75
g1145
sg68
(lp1157
S':'
asbag61
(g82
g63
NtRp1158
(dp1159
g66
(dp1160
sg75
g1145
sg68
(lp1161
g61
(g62
g63
NtRp1162
(dp1163
g66
(dp1164
g74
I4
ssg75
g1158
sg68
(lp1165
g104
asbasbasbag61
(g77
g63
NtRp1166
(dp1167
g66
(dp1168
sg75
g765
sg68
(lp1169
g61
(g82
g63
NtRp1170
(dp1171
g66
(dp1172
g86
g87
ssg75
g1166
sg68
(lp1173
S'is_pypy'
p1174
asbag61
(g82
g63
NtRp1175
(dp1176
g66
(dp1177
g93
g94
ssg75
g1166
sg68
(lp1178
S':'
asbag61
(g82
g63
NtRp1179
(dp1180
g66
(dp1181
sg75
g1166
sg68
(lp1182
g61
(g62
g63
NtRp1183
(dp1184
g66
(dp1185
g74
I4
ssg75
g1179
sg68
(lp1186
g104
asbasbasbag61
(g77
g63
NtRp1187
(dp1188
g66
(dp1189
sg75
g765
sg68
(lp1190
g61
(g82
g63
NtRp1191
(dp1192
g66
(dp1193
g86
g87
ssg75
g1187
sg68
(lp1194
S'path_info'
p1195
asbag61
(g82
g63
NtRp1196
(dp1197
g66
(dp1198
g93
g94
ssg75
g1187
sg68
(lp1199
S':'
asbag61
(g82
g63
NtRp1200
(dp1201
g66
(dp1202
sg75
g1187
sg68
(lp1203
g61
(g62
g63
NtRp1204
(dp1205
g66
(dp1206
g74
I4
ssg75
g1200
sg68
(lp1207
S'/'
asbasbasbag61
(g77
g63
NtRp1208
(dp1209
g66
(dp1210
sg75
g765
sg68
(lp1211
g61
(g82
g63
NtRp1212
(dp1213
g66
(dp1214
g86
g87
ssg75
g1208
sg68
(lp1215
S'query_string'
p1216
asbag61
(g82
g63
NtRp1217
(dp1218
g66
(dp1219
g93
g94
ssg75
g1208
sg68
(lp1220
S':'
asbag61
(g82
g63
NtRp1221
(dp1222
g66
(dp1223
sg75
g1208
sg68
(lp1224
g61
(g62
g63
NtRp1225
(dp1226
g66
(dp1227
g74
I4
ssg75
g1221
sg68
(lp1228
S''
asbasbasbag61
(g77
g63
NtRp1229
(dp1230
g66
(dp1231
sg75
g765
sg68
(lp1232
g61
(g82
g63
NtRp1233
(dp1234
g66
(dp1235
g86
g87
ssg75
g1229
sg68
(lp1236
S'remote_addr'
p1237
asbag61
(g82
g63
NtRp1238
(dp1239
g66
(dp1240
g93
g94
ssg75
g1229
sg68
(lp1241
S':'
asbag61
(g82
g63
NtRp1242
(dp1243
g66
(dp1244
sg75
g1229
sg68
(lp1245
g61
(g62
g63
NtRp1246
(dp1247
g66
(dp1248
g74
I4
ssg75
g1242
sg68
(lp1249
g194
asbasbasbag61
(g77
g63
NtRp1250
(dp1251
g66
(dp1252
sg75
g765
sg68
(lp1253
g61
(g82
g63
NtRp1254
(dp1255
g66
(dp1256
g86
g87
ssg75
g1250
sg68
(lp1257
S'remote_port'
p1258
asbag61
(g82
g63
NtRp1259
(dp1260
g66
(dp1261
g93
g94
ssg75
g1250
sg68
(lp1262
S':'
asbag61
(g82
g63
NtRp1263
(dp1264
g66
(dp1265
sg75
g1250
sg68
(lp1266
g61
(g62
g63
NtRp1267
(dp1268
g66
(dp1269
g74
I4
ssg75
g1263
sg68
(lp1270
S'57994'
p1271
asbasbasbag61
(g77
g63
NtRp1272
(dp1273
g66
(dp1274
sg75
g765
sg68
(lp1275
g61
(g82
g63
NtRp1276
(dp1277
g66
(dp1278
g86
g87
ssg75
g1272
sg68
(lp1279
S'request_method'
p1280
asbag61
(g82
g63
NtRp1281
(dp1282
g66
(dp1283
g93
g94
ssg75
g1272
sg68
(lp1284
S':'
asbag61
(g82
g63
NtRp1285
(dp1286
g66
(dp1287
sg75
g1272
sg68
(lp1288
g61
(g62
g63
NtRp1289
(dp1290
g66
(dp1291
g74
I4
ssg75
g1285
sg68
(lp1292
S'GET'
p1293
asbasbasbag61
(g77
g63
NtRp1294
(dp1295
g66
(dp1296
sg75
g765
sg68
(lp1297
g61
(g82
g63
NtRp1298
(dp1299
g66
(dp1300
g86
g87
ssg75
g1294
sg68
(lp1301
S'request_uri'
p1302
asbag61
(g82
g63
NtRp1303
(dp1304
g66
(dp1305
g93
g94
ssg75
g1294
sg68
(lp1306
S':'
asbag61
(g82
g63
NtRp1307
(dp1308
g66
(dp1309
sg75
g1294
sg68
(lp1310
g61
(g62
g63
NtRp1311
(dp1312
g66
(dp1313
g74
I4
ssg75
g1307
sg68
(lp1314
S'/udi0312/default/index'
p1315
asbasbasbag61
(g77
g63
NtRp1316
(dp1317
g66
(dp1318
sg75
g765
sg68
(lp1319
g61
(g82
g63
NtRp1320
(dp1321
g66
(dp1322
g86
g87
ssg75
g1316
sg68
(lp1323
S'script_name'
p1324
asbag61
(g82
g63
NtRp1325
(dp1326
g66
(dp1327
g93
g94
ssg75
g1316
sg68
(lp1328
S':'
asbag61
(g82
g63
NtRp1329
(dp1330
g66
(dp1331
sg75
g1316
sg68
(lp1332
g61
(g62
g63
NtRp1333
(dp1334
g66
(dp1335
g74
I4
ssg75
g1329
sg68
(lp1336
S''
asbasbasbag61
(g77
g63
NtRp1337
(dp1338
g66
(dp1339
sg75
g765
sg68
(lp1340
g61
(g82
g63
NtRp1341
(dp1342
g66
(dp1343
g86
g87
ssg75
g1337
sg68
(lp1344
S'server_name'
p1345
asbag61
(g82
g63
NtRp1346
(dp1347
g66
(dp1348
g93
g94
ssg75
g1337
sg68
(lp1349
S':'
asbag61
(g82
g63
NtRp1350
(dp1351
g66
(dp1352
sg75
g1337
sg68
(lp1353
g61
(g62
g63
NtRp1354
(dp1355
g66
(dp1356
g74
I4
ssg75
g1350
sg68
(lp1357
S'Udi-Milos-MacBook-Pro.local'
p1358
asbasbasbag61
(g77
g63
NtRp1359
(dp1360
g66
(dp1361
sg75
g765
sg68
(lp1362
g61
(g82
g63
NtRp1363
(dp1364
g66
(dp1365
g86
g87
ssg75
g1359
sg68
(lp1366
S'server_port'
p1367
asbag61
(g82
g63
NtRp1368
(dp1369
g66
(dp1370
g93
g94
ssg75
g1359
sg68
(lp1371
S':'
asbag61
(g82
g63
NtRp1372
(dp1373
g66
(dp1374
sg75
g1359
sg68
(lp1375
g61
(g62
g63
NtRp1376
(dp1377
g66
(dp1378
g74
I4
ssg75
g1372
sg68
(lp1379
S'8000'
p1380
asbasbasbag61
(g77
g63
NtRp1381
(dp1382
g66
(dp1383
sg75
g765
sg68
(lp1384
g61
(g82
g63
NtRp1385
(dp1386
g66
(dp1387
g86
g87
ssg75
g1381
sg68
(lp1388
S'server_protocol'
p1389
asbag61
(g82
g63
NtRp1390
(dp1391
g66
(dp1392
g93
g94
ssg75
g1381
sg68
(lp1393
S':'
asbag61
(g82
g63
NtRp1394
(dp1395
g66
(dp1396
sg75
g1381
sg68
(lp1397
g61
(g62
g63
NtRp1398
(dp1399
g66
(dp1400
g74
I4
ssg75
g1394
sg68
(lp1401
S'HTTP/1.1'
p1402
asbasbasbag61
(g77
g63
NtRp1403
(dp1404
g66
(dp1405
sg75
g765
sg68
(lp1406
g61
(g82
g63
NtRp1407
(dp1408
g66
(dp1409
g86
g87
ssg75
g1403
sg68
(lp1410
S'server_software'
p1411
asbag61
(g82
g63
NtRp1412
(dp1413
g66
(dp1414
g93
g94
ssg75
g1403
sg68
(lp1415
S':'
asbag61
(g82
g63
NtRp1416
(dp1417
g66
(dp1418
sg75
g1403
sg68
(lp1419
g61
(g62
g63
NtRp1420
(dp1421
g66
(dp1422
g74
I4
ssg75
g1416
sg68
(lp1423
S'Rocket 1.2.4'
p1424
asbasbasbag61
(g77
g63
NtRp1425
(dp1426
g66
(dp1427
sg75
g765
sg68
(lp1428
g61
(g82
g63
NtRp1429
(dp1430
g66
(dp1431
g86
g87
ssg75
g1425
sg68
(lp1432
S'web2py_crontype'
p1433
asbag61
(g82
g63
NtRp1434
(dp1435
g66
(dp1436
g93
g94
ssg75
g1425
sg68
(lp1437
S':'
asbag61
(g82
g63
NtRp1438
(dp1439
g66
(dp1440
sg75
g1425
sg68
(lp1441
g61
(g62
g63
NtRp1442
(dp1443
g66
(dp1444
g74
I4
ssg75
g1438
sg68
(lp1445
S'hard'
p1446
asbasbasbag61
(g77
g63
NtRp1447
(dp1448
g66
(dp1449
sg75
g765
sg68
(lp1450
g61
(g82
g63
NtRp1451
(dp1452
g66
(dp1453
g86
g87
ssg75
g1447
sg68
(lp1454
S'web2py_original_uri'
p1455
asbag61
(g82
g63
NtRp1456
(dp1457
g66
(dp1458
g93
g94
ssg75
g1447
sg68
(lp1459
S':'
asbag61
(g82
g63
NtRp1460
(dp1461
g66
(dp1462
sg75
g1447
sg68
(lp1463
g61
(g62
g63
NtRp1464
(dp1465
g66
(dp1466
g74
I4
ssg75
g1460
sg68
(lp1467
S'/'
asbasbasbag61
(g77
g63
NtRp1468
(dp1469
g66
(dp1470
sg75
g765
sg68
(lp1471
g61
(g82
g63
NtRp1472
(dp1473
g66
(dp1474
g86
g87
ssg75
g1468
sg68
(lp1475
S'web2py_path'
p1476
asbag61
(g82
g63
NtRp1477
(dp1478
g66
(dp1479
g93
g94
ssg75
g1468
sg68
(lp1480
S':'
asbag61
(g82
g63
NtRp1481
(dp1482
g66
(dp1483
sg75
g1468
sg68
(lp1484
g61
(g62
g63
NtRp1485
(dp1486
g66
(dp1487
g74
I4
ssg75
g1481
sg68
(lp1488
g812
asbasbasbag61
(g77
g63
NtRp1489
(dp1490
g66
(dp1491
sg75
g765
sg68
(lp1492
g61
(g82
g63
NtRp1493
(dp1494
g66
(dp1495
g86
g87
ssg75
g1489
sg68
(lp1496
S'web2py_version'
p1497
asbag61
(g82
g63
NtRp1498
(dp1499
g66
(dp1500
g93
g94
ssg75
g1489
sg68
(lp1501
S':'
asbag61
(g82
g63
NtRp1502
(dp1503
g66
(dp1504
sg75
g1489
sg68
(lp1505
g61
(g62
g63
NtRp1506
(dp1507
g66
(dp1508
g74
I4
ssg75
g1502
sg68
(lp1509
g61
(g70
g63
NtRp1510
(dp1511
g66
(dp1512
g74
I3
ssg75
Nsg68
(lp1513
g61
(g77
g63
NtRp1514
(dp1515
g66
(dp1516
sg75
g1510
sg68
(lp1517
g61
(g82
g63
NtRp1518
(dp1519
g66
(dp1520
sg75
g1514
sg68
(lp1521
g61
(g62
g63
NtRp1522
(dp1523
g66
(dp1524
g74
I3
ssg75
g1518
sg68
(lp1525
S'1'
asbasbasbag61
(g77
g63
NtRp1526
(dp1527
g66
(dp1528
sg75
g1510
sg68
(lp1529
g61
(g82
g63
NtRp1530
(dp1531
g66
(dp1532
sg75
g1526
sg68
(lp1533
g61
(g62
g63
NtRp1534
(dp1535
g66
(dp1536
g74
I3
ssg75
g1530
sg68
(lp1537
S'99'
p1538
asbasbasbag61
(g77
g63
NtRp1539
(dp1540
g66
(dp1541
sg75
g1510
sg68
(lp1542
g61
(g82
g63
NtRp1543
(dp1544
g66
(dp1545
sg75
g1539
sg68
(lp1546
g61
(g62
g63
NtRp1547
(dp1548
g66
(dp1549
g74
I3
ssg75
g1543
sg68
(lp1550
S'7'
asbasbasbag61
(g77
g63
NtRp1551
(dp1552
g66
(dp1553
sg75
g1510
sg68
(lp1554
g61
(g82
g63
NtRp1555
(dp1556
g66
(dp1557
sg75
g1551
sg68
(lp1558
g61
(g62
g63
NtRp1559
(dp1560
g66
(dp1561
g74
I3
ssg75
g1555
sg68
(lp1562
S'datetime.datetime(2012, 3, 4, 22, 12, 8)'
p1563
asbasbasbag61
(g77
g63
NtRp1564
(dp1565
g66
(dp1566
sg75
g1510
sg68
(lp1567
g61
(g82
g63
NtRp1568
(dp1569
g66
(dp1570
sg75
g1564
sg68
(lp1571
g61
(g62
g63
NtRp1572
(dp1573
g66
(dp1574
g74
I3
ssg75
g1568
sg68
(lp1575
S'stable'
p1576
asbasbasbasbasbasbasbag61
(g77
g63
NtRp1577
(dp1578
g66
(dp1579
sg75
g765
sg68
(lp1580
g61
(g82
g63
NtRp1581
(dp1582
g66
(dp1583
g86
g87
ssg75
g1577
sg68
(lp1584
S'wsgi_errors'
p1585
asbag61
(g82
g63
NtRp1586
(dp1587
g66
(dp1588
g93
g94
ssg75
g1577
sg68
(lp1589
S':'
asbag61
(g82
g63
NtRp1590
(dp1591
g66
(dp1592
sg75
g1577
sg68
(lp1593
g61
(g62
g63
NtRp1594
(dp1595
g66
(dp1596
g74
I4
ssg75
g1590
sg68
(lp1597
S"<open file '<stderr>', mode 'w' at 0x4220b0>"
p1598
asbasbasbag61
(g77
g63
NtRp1599
(dp1600
g66
(dp1601
sg75
g765
sg68
(lp1602
g61
(g82
g63
NtRp1603
(dp1604
g66
(dp1605
g86
g87
ssg75
g1599
sg68
(lp1606
S'wsgi_file_wrapper'
p1607
asbag61
(g82
g63
NtRp1608
(dp1609
g66
(dp1610
g93
g94
ssg75
g1599
sg68
(lp1611
S':'
asbag61
(g82
g63
NtRp1612
(dp1613
g66
(dp1614
sg75
g1599
sg68
(lp1615
g61
(g62
g63
NtRp1616
(dp1617
g66
(dp1618
g74
I4
ssg75
g1612
sg68
(lp1619
S'<class wsgiref.util.FileWrapper at 0x2b60450>'
p1620
asbasbasbag61
(g77
g63
NtRp1621
(dp1622
g66
(dp1623
sg75
g765
sg68
(lp1624
g61
(g82
g63
NtRp1625
(dp1626
g66
(dp1627
g86
g87
ssg75
g1621
sg68
(lp1628
S'wsgi_input'
p1629
asbag61
(g82
g63
NtRp1630
(dp1631
g66
(dp1632
g93
g94
ssg75
g1621
sg68
(lp1633
S':'
asbag61
(g82
g63
NtRp1634
(dp1635
g66
(dp1636
sg75
g1621
sg68
(lp1637
g61
(g62
g63
NtRp1638
(dp1639
g66
(dp1640
g74
I4
ssg75
g1634
sg68
(lp1641
S'<socket._fileobject object at 0x8edfe70>'
p1642
asbasbasbag61
(g77
g63
NtRp1643
(dp1644
g66
(dp1645
sg75
g765
sg68
(lp1646
g61
(g82
g63
NtRp1647
(dp1648
g66
(dp1649
g86
g87
ssg75
g1643
sg68
(lp1650
S'wsgi_multiprocess'
p1651
asbag61
(g82
g63
NtRp1652
(dp1653
g66
(dp1654
g93
g94
ssg75
g1643
sg68
(lp1655
S':'
asbag61
(g82
g63
NtRp1656
(dp1657
g66
(dp1658
sg75
g1643
sg68
(lp1659
g61
(g62
g63
NtRp1660
(dp1661
g66
(dp1662
g74
I4
ssg75
g1656
sg68
(lp1663
g104
asbasbasbag61
(g77
g63
NtRp1664
(dp1665
g66
(dp1666
sg75
g765
sg68
(lp1667
g61
(g82
g63
NtRp1668
(dp1669
g66
(dp1670
g86
g87
ssg75
g1664
sg68
(lp1671
S'wsgi_multithread'
p1672
asbag61
(g82
g63
NtRp1673
(dp1674
g66
(dp1675
g93
g94
ssg75
g1664
sg68
(lp1676
S':'
asbag61
(g82
g63
NtRp1677
(dp1678
g66
(dp1679
sg75
g1664
sg68
(lp1680
g61
(g62
g63
NtRp1681
(dp1682
g66
(dp1683
g74
I4
ssg75
g1677
sg68
(lp1684
S'True'
p1685
asbasbasbag61
(g77
g63
NtRp1686
(dp1687
g66
(dp1688
sg75
g765
sg68
(lp1689
g61
(g82
g63
NtRp1690
(dp1691
g66
(dp1692
g86
g87
ssg75
g1686
sg68
(lp1693
S'wsgi_run_once'
p1694
asbag61
(g82
g63
NtRp1695
(dp1696
g66
(dp1697
g93
g94
ssg75
g1686
sg68
(lp1698
S':'
asbag61
(g82
g63
NtRp1699
(dp1700
g66
(dp1701
sg75
g1686
sg68
(lp1702
g61
(g62
g63
NtRp1703
(dp1704
g66
(dp1705
g74
I4
ssg75
g1699
sg68
(lp1706
g104
asbasbasbag61
(g77
g63
NtRp1707
(dp1708
g66
(dp1709
sg75
g765
sg68
(lp1710
g61
(g82
g63
NtRp1711
(dp1712
g66
(dp1713
g86
g87
ssg75
g1707
sg68
(lp1714
S'wsgi_url_scheme'
p1715
asbag61
(g82
g63
NtRp1716
(dp1717
g66
(dp1718
g93
g94
ssg75
g1707
sg68
(lp1719
S':'
asbag61
(g82
g63
NtRp1720
(dp1721
g66
(dp1722
sg75
g1707
sg68
(lp1723
g61
(g62
g63
NtRp1724
(dp1725
g66
(dp1726
g74
I4
ssg75
g1720
sg68
(lp1727
S'http'
p1728
asbasbasbag61
(g77
g63
NtRp1729
(dp1730
g66
(dp1731
sg75
g765
sg68
(lp1732
g61
(g82
g63
NtRp1733
(dp1734
g66
(dp1735
g86
g87
ssg75
g1729
sg68
(lp1736
S'wsgi_version'
p1737
asbag61
(g82
g63
NtRp1738
(dp1739
g66
(dp1740
g93
g94
ssg75
g1729
sg68
(lp1741
S':'
asbag61
(g82
g63
NtRp1742
(dp1743
g66
(dp1744
sg75
g1729
sg68
(lp1745
g61
(g62
g63
NtRp1746
(dp1747
g66
(dp1748
g74
I4
ssg75
g1742
sg68
(lp1749
g61
(g70
g63
NtRp1750
(dp1751
g66
(dp1752
g74
I3
ssg75
Nsg68
(lp1753
g61
(g77
g63
NtRp1754
(dp1755
g66
(dp1756
sg75
g1750
sg68
(lp1757
g61
(g82
g63
NtRp1758
(dp1759
g66
(dp1760
sg75
g1754
sg68
(lp1761
g61
(g62
g63
NtRp1762
(dp1763
g66
(dp1764
g74
I3
ssg75
g1758
sg68
(lp1765
S'1'
asbasbasbag61
(g77
g63
NtRp1766
(dp1767
g66
(dp1768
sg75
g1750
sg68
(lp1769
g61
(g82
g63
NtRp1770
(dp1771
g66
(dp1772
sg75
g1766
sg68
(lp1773
g61
(g62
g63
NtRp1774
(dp1775
g66
(dp1776
g74
I3
ssg75
g1770
sg68
(lp1777
S'0'
asbasbasbasbasbasbasbasbasbasbasbag61
(g77
g63
NtRp1778
(dp1779
g66
(dp1780
sg75
g71
sg68
(lp1781
g61
(g82
g63
NtRp1782
(dp1783
g66
(dp1784
g86
g87
ssg75
g1778
sg68
(lp1785
S'extension'
p1786
asbag61
(g82
g63
NtRp1787
(dp1788
g66
(dp1789
g93
g94
ssg75
g1778
sg68
(lp1790
S':'
asbag61
(g82
g63
NtRp1791
(dp1792
g66
(dp1793
sg75
g1778
sg68
(lp1794
g61
(g62
g63
NtRp1795
(dp1796
g66
(dp1797
g74
I5
ssg75
g1791
sg68
(lp1798
S'html'
p1799
asbasbasbag61
(g77
g63
NtRp1800
(dp1801
g66
(dp1802
sg75
g71
sg68
(lp1803
g61
(g82
g63
NtRp1804
(dp1805
g66
(dp1806
g86
g87
ssg75
g1800
sg68
(lp1807
S'folder'
p1808
asbag61
(g82
g63
NtRp1809
(dp1810
g66
(dp1811
g93
g94
ssg75
g1800
sg68
(lp1812
S':'
asbag61
(g82
g63
NtRp1813
(dp1814
g66
(dp1815
sg75
g1800
sg68
(lp1816
g61
(g62
g63
NtRp1817
(dp1818
g66
(dp1819
g74
I5
ssg75
g1813
sg68
(lp1820
S'/Users/udimilo/Documents/web2py/applications/udi0312/'
p1821
asbasbasbag61
(g77
g63
NtRp1822
(dp1823
g66
(dp1824
sg75
g71
sg68
(lp1825
g61
(g82
g63
NtRp1826
(dp1827
g66
(dp1828
g86
g87
ssg75
g1822
sg68
(lp1829
S'function'
p1830
asbag61
(g82
g63
NtRp1831
(dp1832
g66
(dp1833
g93
g94
ssg75
g1822
sg68
(lp1834
S':'
asbag61
(g82
g63
NtRp1835
(dp1836
g66
(dp1837
sg75
g1822
sg68
(lp1838
g61
(g62
g63
NtRp1839
(dp1840
g66
(dp1841
g74
I5
ssg75
g1835
sg68
(lp1842
S'index'
p1843
asbasbasbag61
(g77
g63
NtRp1844
(dp1845
g66
(dp1846
sg75
g71
sg68
(lp1847
g61
(g82
g63
NtRp1848
(dp1849
g66
(dp1850
g86
g87
ssg75
g1844
sg68
(lp1851
S'get_vars'
p1852
asbag61
(g82
g63
NtRp1853
(dp1854
g66
(dp1855
g93
g94
ssg75
g1844
sg68
(lp1856
S':'
asbag61
(g82
g63
NtRp1857
(dp1858
g66
(dp1859
sg75
g1844
sg68
(lp1860
g61
(g62
g63
NtRp1861
(dp1862
g66
(dp1863
g74
I5
ssg75
g1857
sg68
(lp1864
g61
(g70
g63
NtRp1865
(dp1866
g66
(dp1867
g74
I4
ssg75
Nsg68
(lp1868
sbasbasbasbag61
(g77
g63
NtRp1869
(dp1870
g66
(dp1871
sg75
g71
sg68
(lp1872
g61
(g82
g63
NtRp1873
(dp1874
g66
(dp1875
g86
g87
ssg75
g1869
sg68
(lp1876
S'global_settings'
p1877
asbag61
(g82
g63
NtRp1878
(dp1879
g66
(dp1880
g93
g94
ssg75
g1869
sg68
(lp1881
S':'
asbag61
(g82
g63
NtRp1882
(dp1883
g66
(dp1884
sg75
g1869
sg68
(lp1885
g61
(g62
g63
NtRp1886
(dp1887
g66
(dp1888
g74
I5
ssg75
g1882
sg68
(lp1889
g61
(g70
g63
NtRp1890
(dp1891
g66
(dp1892
g74
I4
ssg75
Nsg68
(lp1893
g61
(g77
g63
NtRp1894
(dp1895
g66
(dp1896
sg75
g1890
sg68
(lp1897
g61
(g82
g63
NtRp1898
(dp1899
g66
(dp1900
g86
g87
ssg75
g1894
sg68
(lp1901
g777
asbag61
(g82
g63
NtRp1902
(dp1903
g66
(dp1904
g93
g94
ssg75
g1894
sg68
(lp1905
S':'
asbag61
(g82
g63
NtRp1906
(dp1907
g66
(dp1908
sg75
g1894
sg68
(lp1909
g61
(g62
g63
NtRp1910
(dp1911
g66
(dp1912
g74
I4
ssg75
g1906
sg68
(lp1913
S"set(['/Users/udimilo/Documents/web2py/applications/udi0312/', '/Users/udimilo/Documents/web2py/applications/admin/'])"
p1914
asbasbasbag61
(g77
g63
NtRp1915
(dp1916
g66
(dp1917
sg75
g1890
sg68
(lp1918
g61
(g82
g63
NtRp1919
(dp1920
g66
(dp1921
g86
g87
ssg75
g1915
sg68
(lp1922
g799
asbag61
(g82
g63
NtRp1923
(dp1924
g66
(dp1925
g93
g94
ssg75
g1915
sg68
(lp1926
S':'
asbag61
(g82
g63
NtRp1927
(dp1928
g66
(dp1929
sg75
g1915
sg68
(lp1930
g61
(g62
g63
NtRp1931
(dp1932
g66
(dp1933
g74
I4
ssg75
g1927
sg68
(lp1934
g812
asbasbasbag61
(g77
g63
NtRp1935
(dp1936
g66
(dp1937
sg75
g1890
sg68
(lp1938
g61
(g82
g63
NtRp1939
(dp1940
g66
(dp1941
g86
g87
ssg75
g1935
sg68
(lp1942
g821
asbag61
(g82
g63
NtRp1943
(dp1944
g66
(dp1945
g93
g94
ssg75
g1935
sg68
(lp1946
S':'
asbag61
(g82
g63
NtRp1947
(dp1948
g66
(dp1949
sg75
g1935
sg68
(lp1950
g61
(g62
g63
NtRp1951
(dp1952
g66
(dp1953
g74
I4
ssg75
g1947
sg68
(lp1954
g61
(g70
g63
NtRp1955
(dp1956
g66
(dp1957
g74
I3
ssg75
Nsg68
(lp1958
sbasbasbasbag61
(g77
g63
NtRp1959
(dp1960
g66
(dp1961
sg75
g1890
sg68
(lp1962
g61
(g82
g63
NtRp1963
(dp1964
g66
(dp1965
g86
g87
ssg75
g1959
sg68
(lp1966
g846
asbag61
(g82
g63
NtRp1967
(dp1968
g66
(dp1969
g93
g94
ssg75
g1959
sg68
(lp1970
S':'
asbag61
(g82
g63
NtRp1971
(dp1972
g66
(dp1973
sg75
g1959
sg68
(lp1974
g61
(g62
g63
NtRp1975
(dp1976
g66
(dp1977
g74
I4
ssg75
g1971
sg68
(lp1978
S"<Values at 0x2c16058: {'verbose': False, 'ip': '127.0.0.1', 'shutdown_timeout': 5, 'taskbar': False, 'nocron': False, 'pid_filename': 'httpserver.pid', 'maxthreads': None, 'softcron': False, 'server_name': 'Udi-Milos-MacBook-Pro.local', 'bpython': False, 'nogui': False, 'port': 8000, 'extcron': False, 'debuglevel': 30, 'test': None, 'folder': '/Users/udimilo/Documents/web2py', 'config': '', 'import_models': False, 'winservice': '', 'shell': None, 'run': '', 'log_filename': 'httpserver.log', 'args': [''], 'socket_timeout': 5, 'ssl_ca_certificate': None, 'scheduler': None, 'profiler_filename': None, 'ssl_private_key': '', 'password': '<ask>', 'request_queue_size': 5, 'ssl_certificate': '', 'cronjob': False, 'numthreads': None, 'quiet': False, 'interfaces': None, 'minthreads': None, 'timeout': 10, 'plain': False, 'nobanner': False}>"
p1979
asbasbasbag61
(g77
g63
NtRp1980
(dp1981
g66
(dp1982
sg75
g1890
sg68
(lp1983
g61
(g82
g63
NtRp1984
(dp1985
g66
(dp1986
g86
g87
ssg75
g1980
sg68
(lp1987
g868
asbag61
(g82
g63
NtRp1988
(dp1989
g66
(dp1990
g93
g94
ssg75
g1980
sg68
(lp1991
S':'
asbag61
(g82
g63
NtRp1992
(dp1993
g66
(dp1994
sg75
g1980
sg68
(lp1995
g61
(g62
g63
NtRp1996
(dp1997
g66
(dp1998
g74
I4
ssg75
g1992
sg68
(lp1999
S'set([])'
p2000
asbasbasbag61
(g77
g63
NtRp2001
(dp2002
g66
(dp2003
sg75
g1890
sg68
(lp2004
g61
(g82
g63
NtRp2005
(dp2006
g66
(dp2007
g86
g87
ssg75
g2001
sg68
(lp2008
g890
asbag61
(g82
g63
NtRp2009
(dp2010
g66
(dp2011
g93
g94
ssg75
g2001
sg68
(lp2012
S':'
asbag61
(g82
g63
NtRp2013
(dp2014
g66
(dp2015
sg75
g2001
sg68
(lp2016
g61
(g62
g63
NtRp2017
(dp2018
g66
(dp2019
g74
I4
ssg75
g2013
sg68
(lp2020
g104
asbasbasbag61
(g77
g63
NtRp2021
(dp2022
g66
(dp2023
sg75
g1890
sg68
(lp2024
g61
(g82
g63
NtRp2025
(dp2026
g66
(dp2027
g86
g87
ssg75
g2021
sg68
(lp2028
g911
asbag61
(g82
g63
NtRp2029
(dp2030
g66
(dp2031
g93
g94
ssg75
g2021
sg68
(lp2032
S':'
asbag61
(g82
g63
NtRp2033
(dp2034
g66
(dp2035
sg75
g2021
sg68
(lp2036
g61
(g62
g63
NtRp2037
(dp2038
g66
(dp2039
g74
I4
ssg75
g2033
sg68
(lp2040
g924
asbasbasbag61
(g77
g63
NtRp2041
(dp2042
g66
(dp2043
sg75
g1890
sg68
(lp2044
g61
(g82
g63
NtRp2045
(dp2046
g66
(dp2047
g86
g87
ssg75
g2041
sg68
(lp2048
g1153
asbag61
(g82
g63
NtRp2049
(dp2050
g66
(dp2051
g93
g94
ssg75
g2041
sg68
(lp2052
S':'
asbag61
(g82
g63
NtRp2053
(dp2054
g66
(dp2055
sg75
g2041
sg68
(lp2056
g61
(g62
g63
NtRp2057
(dp2058
g66
(dp2059
g74
I4
ssg75
g2053
sg68
(lp2060
g104
asbasbasbag61
(g77
g63
NtRp2061
(dp2062
g66
(dp2063
sg75
g1890
sg68
(lp2064
g61
(g82
g63
NtRp2065
(dp2066
g66
(dp2067
g86
g87
ssg75
g2061
sg68
(lp2068
g1174
asbag61
(g82
g63
NtRp2069
(dp2070
g66
(dp2071
g93
g94
ssg75
g2061
sg68
(lp2072
S':'
asbag61
(g82
g63
NtRp2073
(dp2074
g66
(dp2075
sg75
g2061
sg68
(lp2076
g61
(g62
g63
NtRp2077
(dp2078
g66
(dp2079
g74
I4
ssg75
g2073
sg68
(lp2080
g104
asbasbasbag61
(g77
g63
NtRp2081
(dp2082
g66
(dp2083
sg75
g1890
sg68
(lp2084
g61
(g82
g63
NtRp2085
(dp2086
g66
(dp2087
g86
g87
ssg75
g2081
sg68
(lp2088
g1433
asbag61
(g82
g63
NtRp2089
(dp2090
g66
(dp2091
g93
g94
ssg75
g2081
sg68
(lp2092
S':'
asbag61
(g82
g63
NtRp2093
(dp2094
g66
(dp2095
sg75
g2081
sg68
(lp2096
g61
(g62
g63
NtRp2097
(dp2098
g66
(dp2099
g74
I4
ssg75
g2093
sg68
(lp2100
g1446
asbasbasbag61
(g77
g63
NtRp2101
(dp2102
g66
(dp2103
sg75
g1890
sg68
(lp2104
g61
(g82
g63
NtRp2105
(dp2106
g66
(dp2107
g86
g87
ssg75
g2101
sg68
(lp2108
g1497
asbag61
(g82
g63
NtRp2109
(dp2110
g66
(dp2111
g93
g94
ssg75
g2101
sg68
(lp2112
S':'
asbag61
(g82
g63
NtRp2113
(dp2114
g66
(dp2115
sg75
g2101
sg68
(lp2116
g61
(g62
g63
NtRp2117
(dp2118
g66
(dp2119
g74
I4
ssg75
g2113
sg68
(lp2120
g61
(g70
g63
NtRp2121
(dp2122
g66
(dp2123
g74
I3
ssg75
Nsg68
(lp2124
g61
(g77
g63
NtRp2125
(dp2126
g66
(dp2127
sg75
g2121
sg68
(lp2128
g61
(g82
g63
NtRp2129
(dp2130
g66
(dp2131
sg75
g2125
sg68
(lp2132
g61
(g62
g63
NtRp2133
(dp2134
g66
(dp2135
g74
I3
ssg75
g2129
sg68
(lp2136
S'1'
asbasbasbag61
(g77
g63
NtRp2137
(dp2138
g66
(dp2139
sg75
g2121
sg68
(lp2140
g61
(g82
g63
NtRp2141
(dp2142
g66
(dp2143
sg75
g2137
sg68
(lp2144
g61
(g62
g63
NtRp2145
(dp2146
g66
(dp2147
g74
I3
ssg75
g2141
sg68
(lp2148
S'99'
p2149
asbasbasbag61
(g77
g63
NtRp2150
(dp2151
g66
(dp2152
sg75
g2121
sg68
(lp2153
g61
(g82
g63
NtRp2154
(dp2155
g66
(dp2156
sg75
g2150
sg68
(lp2157
g61
(g62
g63
NtRp2158
(dp2159
g66
(dp2160
g74
I3
ssg75
g2154
sg68
(lp2161
S'7'
asbasbasbag61
(g77
g63
NtRp2162
(dp2163
g66
(dp2164
sg75
g2121
sg68
(lp2165
g61
(g82
g63
NtRp2166
(dp2167
g66
(dp2168
sg75
g2162
sg68
(lp2169
g61
(g62
g63
NtRp2170
(dp2171
g66
(dp2172
g74
I3
ssg75
g2166
sg68
(lp2173
S'datetime.datetime(2012, 3, 4, 22, 12, 8)'
p2174
asbasbasbag61
(g77
g63
NtRp2175
(dp2176
g66
(dp2177
sg75
g2121
sg68
(lp2178
g61
(g82
g63
NtRp2179
(dp2180
g66
(dp2181
sg75
g2175
sg68
(lp2182
g61
(g62
g63
NtRp2183
(dp2184
g66
(dp2185
g74
I3
ssg75
g2179
sg68
(lp2186
g1576
asbasbasbasbasbasbasbasbasbasbasbag61
(g77
g63
NtRp2187
(dp2188
g66
(dp2189
sg75
g71
sg68
(lp2190
g61
(g82
g63
NtRp2191
(dp2192
g66
(dp2193
g86
g87
ssg75
g2187
sg68
(lp2194
S'is_https'
p2195
asbag61
(g82
g63
NtRp2196
(dp2197
g66
(dp2198
g93
g94
ssg75
g2187
sg68
(lp2199
S':'
asbag61
(g82
g63
NtRp2200
(dp2201
g66
(dp2202
sg75
g2187
sg68
(lp2203
g61
(g62
g63
NtRp2204
(dp2205
g66
(dp2206
g74
I5
ssg75
g2200
sg68
(lp2207
g104
asbasbasbag61
(g77
g63
NtRp2208
(dp2209
g66
(dp2210
sg75
g71
sg68
(lp2211
g61
(g82
g63
NtRp2212
(dp2213
g66
(dp2214
g86
g87
ssg75
g2208
sg68
(lp2215
S'is_local'
p2216
asbag61
(g82
g63
NtRp2217
(dp2218
g66
(dp2219
g93
g94
ssg75
g2208
sg68
(lp2220
S':'
asbag61
(g82
g63
NtRp2221
(dp2222
g66
(dp2223
sg75
g2208
sg68
(lp2224
g61
(g62
g63
NtRp2225
(dp2226
g66
(dp2227
g74
I5
ssg75
g2221
sg68
(lp2228
g1685
asbasbasbag61
(g77
g63
NtRp2229
(dp2230
g66
(dp2231
sg75
g71
sg68
(lp2232
g61
(g82
g63
NtRp2233
(dp2234
g66
(dp2235
g86
g87
ssg75
g2229
sg68
(lp2236
S'is_restful'
p2237
asbag61
(g82
g63
NtRp2238
(dp2239
g66
(dp2240
g93
g94
ssg75
g2229
sg68
(lp2241
S':'
asbag61
(g82
g63
NtRp2242
(dp2243
g66
(dp2244
sg75
g2229
sg68
(lp2245
g61
(g62
g63
NtRp2246
(dp2247
g66
(dp2248
g74
I5
ssg75
g2242
sg68
(lp2249
g104
asbasbasbag61
(g77
g63
NtRp2250
(dp2251
g66
(dp2252
sg75
g71
sg68
(lp2253
g61
(g82
g63
NtRp2254
(dp2255
g66
(dp2256
g86
g87
ssg75
g2250
sg68
(lp2257
S'now'
p2258
asbag61
(g82
g63
NtRp2259
(dp2260
g66
(dp2261
g93
g94
ssg75
g2250
sg68
(lp2262
S':'
asbag61
(g82
g63
NtRp2263
(dp2264
g66
(dp2265
sg75
g2250
sg68
(lp2266
g61
(g62
g63
NtRp2267
(dp2268
g66
(dp2269
g74
I5
ssg75
g2263
sg68
(lp2270
S'datetime.datetime(2012, 3, 8, 22, 13, 21, 653163)'
p2271
asbasbasbag61
(g77
g63
NtRp2272
(dp2273
g66
(dp2274
sg75
g71
sg68
(lp2275
g61
(g82
g63
NtRp2276
(dp2277
g66
(dp2278
g86
g87
ssg75
g2272
sg68
(lp2279
S'post_vars'
p2280
asbag61
(g82
g63
NtRp2281
(dp2282
g66
(dp2283
g93
g94
ssg75
g2272
sg68
(lp2284
S':'
asbag61
(g82
g63
NtRp2285
(dp2286
g66
(dp2287
sg75
g2272
sg68
(lp2288
g61
(g62
g63
NtRp2289
(dp2290
g66
(dp2291
g74
I5
ssg75
g2285
sg68
(lp2292
g61
(g70
g63
NtRp2293
(dp2294
g66
(dp2295
g74
I4
ssg75
Nsg68
(lp2296
sbasbasbasbag61
(g77
g63
NtRp2297
(dp2298
g66
(dp2299
sg75
g71
sg68
(lp2300
g61
(g82
g63
NtRp2301
(dp2302
g66
(dp2303
g86
g87
ssg75
g2297
sg68
(lp2304
S'url'
p2305
asbag61
(g82
g63
NtRp2306
(dp2307
g66
(dp2308
g93
g94
ssg75
g2297
sg68
(lp2309
S':'
asbag61
(g82
g63
NtRp2310
(dp2311
g66
(dp2312
sg75
g2297
sg68
(lp2313
g61
(g62
g63
NtRp2314
(dp2315
g66
(dp2316
g74
I5
ssg75
g2310
sg68
(lp2317
S'/'
asbasbasbag61
(g77
g63
NtRp2318
(dp2319
g66
(dp2320
sg75
g71
sg68
(lp2321
g61
(g82
g63
NtRp2322
(dp2323
g66
(dp2324
g86
g87
ssg75
g2318
sg68
(lp2325
S'utcnow'
p2326
asbag61
(g82
g63
NtRp2327
(dp2328
g66
(dp2329
g93
g94
ssg75
g2318
sg68
(lp2330
S':'
asbag61
(g82
g63
NtRp2331
(dp2332
g66
(dp2333
sg75
g2318
sg68
(lp2334
g61
(g62
g63
NtRp2335
(dp2336
g66
(dp2337
g74
I5
ssg75
g2331
sg68
(lp2338
S'datetime.datetime(2012, 3, 9, 3, 13, 21, 653182)'
p2339
asbasbasbag61
(g77
g63
NtRp2340
(dp2341
g66
(dp2342
sg75
g71
sg68
(lp2343
g61
(g82
g63
NtRp2344
(dp2345
g66
(dp2346
g86
g87
ssg75
g2340
sg68
(lp2347
S'uuid'
p2348
asbag61
(g82
g63
NtRp2349
(dp2350
g66
(dp2351
g93
g94
ssg75
g2340
sg68
(lp2352
S':'
asbag61
(g82
g63
NtRp2353
(dp2354
g66
(dp2355
sg75
g2340
sg68
(lp2356
g61
(g62
g63
NtRp2357
(dp2358
g66
(dp2359
g74
I5
ssg75
g2353
sg68
(lp2360
S'udi0312/127.0.0.1.2012-03-08.22-13-21.429e044e-215b-45ca-be11-4a46e1974c73'
p2361
asbasbasbag61
(g77
g63
NtRp2362
(dp2363
g66
(dp2364
sg75
g71
sg68
(lp2365
g61
(g82
g63
NtRp2366
(dp2367
g66
(dp2368
g86
g87
ssg75
g2362
sg68
(lp2369
S'vars'
p2370
asbag61
(g82
g63
NtRp2371
(dp2372
g66
(dp2373
g93
g94
ssg75
g2362
sg68
(lp2374
S':'
asbag61
(g82
g63
NtRp2375
(dp2376
g66
(dp2377
sg75
g2362
sg68
(lp2378
g61
(g62
g63
NtRp2379
(dp2380
g66
(dp2381
g74
I5
ssg75
g2375
sg68
(lp2382
g61
(g70
g63
NtRp2383
(dp2384
g66
(dp2385
g74
I4
ssg75
Nsg68
(lp2386
sbasbasbasbag61
(g77
g63
NtRp2387
(dp2388
g66
(dp2389
sg75
g71
sg68
(lp2390
g61
(g82
g63
NtRp2391
(dp2392
g66
(dp2393
g86
g87
ssg75
g2387
sg68
(lp2394
S'wsgi'
p2395
asbag61
(g82
g63
NtRp2396
(dp2397
g66
(dp2398
g93
g94
ssg75
g2387
sg68
(lp2399
S':'
asbag61
(g82
g63
NtRp2400
(dp2401
g66
(dp2402
sg75
g2387
sg68
(lp2403
g61
(g62
g63
NtRp2404
(dp2405
g66
(dp2406
g74
I5
ssg75
g2400
sg68
(lp2407
g61
(g70
g63
NtRp2408
(dp2409
g66
(dp2410
g74
I4
ssg75
Nsg68
(lp2411
g61
(g77
g63
NtRp2412
(dp2413
g66
(dp2414
sg75
g2408
sg68
(lp2415
g61
(g82
g63
NtRp2416
(dp2417
g66
(dp2418
g86
g87
ssg75
g2412
sg68
(lp2419
S'environ'
p2420
asbag61
(g82
g63
NtRp2421
(dp2422
g66
(dp2423
g93
g94
ssg75
g2412
sg68
(lp2424
S':'
asbag61
(g82
g63
NtRp2425
(dp2426
g66
(dp2427
sg75
g2412
sg68
(lp2428
g61
(g62
g63
NtRp2429
(dp2430
g66
(dp2431
g74
I4
ssg75
g2425
sg68
(lp2432
g61
(g70
g63
NtRp2433
(dp2434
g66
(dp2435
g74
I3
ssg75
Nsg68
(lp2436
g61
(g77
g63
NtRp2437
(dp2438
g66
(dp2439
sg75
g2433
sg68
(lp2440
g61
(g82
g63
NtRp2441
(dp2442
g66
(dp2443
g86
g87
ssg75
g2437
sg68
(lp2444
S'HTTP_ACCEPT'
p2445
asbag61
(g82
g63
NtRp2446
(dp2447
g66
(dp2448
g93
g94
ssg75
g2437
sg68
(lp2449
S':'
asbag61
(g82
g63
NtRp2450
(dp2451
g66
(dp2452
sg75
g2437
sg68
(lp2453
g61
(g62
g63
NtRp2454
(dp2455
g66
(dp2456
g74
I3
ssg75
g2450
sg68
(lp2457
g946
asbasbasbag61
(g77
g63
NtRp2458
(dp2459
g66
(dp2460
sg75
g2433
sg68
(lp2461
g61
(g82
g63
NtRp2462
(dp2463
g66
(dp2464
g86
g87
ssg75
g2458
sg68
(lp2465
S'HTTP_ACCEPT_CHARSET'
p2466
asbag61
(g82
g63
NtRp2467
(dp2468
g66
(dp2469
g93
g94
ssg75
g2458
sg68
(lp2470
S':'
asbag61
(g82
g63
NtRp2471
(dp2472
g66
(dp2473
sg75
g2458
sg68
(lp2474
g61
(g62
g63
NtRp2475
(dp2476
g66
(dp2477
g74
I3
ssg75
g2471
sg68
(lp2478
g968
asbasbasbag61
(g77
g63
NtRp2479
(dp2480
g66
(dp2481
sg75
g2433
sg68
(lp2482
g61
(g82
g63
NtRp2483
(dp2484
g66
(dp2485
g86
g87
ssg75
g2479
sg68
(lp2486
S'HTTP_ACCEPT_ENCODING'
p2487
asbag61
(g82
g63
NtRp2488
(dp2489
g66
(dp2490
g93
g94
ssg75
g2479
sg68
(lp2491
S':'
asbag61
(g82
g63
NtRp2492
(dp2493
g66
(dp2494
sg75
g2479
sg68
(lp2495
g61
(g62
g63
NtRp2496
(dp2497
g66
(dp2498
g74
I3
ssg75
g2492
sg68
(lp2499
g990
asbasbasbag61
(g77
g63
NtRp2500
(dp2501
g66
(dp2502
sg75
g2433
sg68
(lp2503
g61
(g82
g63
NtRp2504
(dp2505
g66
(dp2506
g86
g87
ssg75
g2500
sg68
(lp2507
S'HTTP_ACCEPT_LANGUAGE'
p2508
asbag61
(g82
g63
NtRp2509
(dp2510
g66
(dp2511
g93
g94
ssg75
g2500
sg68
(lp2512
S':'
asbag61
(g82
g63
NtRp2513
(dp2514
g66
(dp2515
sg75
g2500
sg68
(lp2516
g61
(g62
g63
NtRp2517
(dp2518
g66
(dp2519
g74
I3
ssg75
g2513
sg68
(lp2520
g1012
asbasbasbag61
(g77
g63
NtRp2521
(dp2522
g66
(dp2523
sg75
g2433
sg68
(lp2524
g61
(g82
g63
NtRp2525
(dp2526
g66
(dp2527
g86
g87
ssg75
g2521
sg68
(lp2528
S'HTTP_CACHE_CONTROL'
p2529
asbag61
(g82
g63
NtRp2530
(dp2531
g66
(dp2532
g93
g94
ssg75
g2521
sg68
(lp2533
S':'
asbag61
(g82
g63
NtRp2534
(dp2535
g66
(dp2536
sg75
g2521
sg68
(lp2537
g61
(g62
g63
NtRp2538
(dp2539
g66
(dp2540
g74
I3
ssg75
g2534
sg68
(lp2541
g1034
asbasbasbag61
(g77
g63
NtRp2542
(dp2543
g66
(dp2544
sg75
g2433
sg68
(lp2545
g61
(g82
g63
NtRp2546
(dp2547
g66
(dp2548
g86
g87
ssg75
g2542
sg68
(lp2549
S'HTTP_CONNECTION'
p2550
asbag61
(g82
g63
NtRp2551
(dp2552
g66
(dp2553
g93
g94
ssg75
g2542
sg68
(lp2554
S':'
asbag61
(g82
g63
NtRp2555
(dp2556
g66
(dp2557
sg75
g2542
sg68
(lp2558
g61
(g62
g63
NtRp2559
(dp2560
g66
(dp2561
g74
I3
ssg75
g2555
sg68
(lp2562
g1056
asbasbasbag61
(g77
g63
NtRp2563
(dp2564
g66
(dp2565
sg75
g2433
sg68
(lp2566
g61
(g82
g63
NtRp2567
(dp2568
g66
(dp2569
g86
g87
ssg75
g2563
sg68
(lp2570
S'HTTP_COOKIE'
p2571
asbag61
(g82
g63
NtRp2572
(dp2573
g66
(dp2574
g93
g94
ssg75
g2563
sg68
(lp2575
S':'
asbag61
(g82
g63
NtRp2576
(dp2577
g66
(dp2578
sg75
g2563
sg68
(lp2579
g61
(g62
g63
NtRp2580
(dp2581
g66
(dp2582
g74
I3
ssg75
g2576
sg68
(lp2583
g1078
asbasbasbag61
(g77
g63
NtRp2584
(dp2585
g66
(dp2586
sg75
g2433
sg68
(lp2587
g61
(g82
g63
NtRp2588
(dp2589
g66
(dp2590
g86
g87
ssg75
g2584
sg68
(lp2591
S'HTTP_HOST'
p2592
asbag61
(g82
g63
NtRp2593
(dp2594
g66
(dp2595
g93
g94
ssg75
g2584
sg68
(lp2596
S':'
asbag61
(g82
g63
NtRp2597
(dp2598
g66
(dp2599
sg75
g2584
sg68
(lp2600
g61
(g62
g63
NtRp2601
(dp2602
g66
(dp2603
g74
I3
ssg75
g2597
sg68
(lp2604
g1100
asbasbasbag61
(g77
g63
NtRp2605
(dp2606
g66
(dp2607
sg75
g2433
sg68
(lp2608
g61
(g82
g63
NtRp2609
(dp2610
g66
(dp2611
g86
g87
ssg75
g2605
sg68
(lp2612
S'HTTP_REFERER'
p2613
asbag61
(g82
g63
NtRp2614
(dp2615
g66
(dp2616
g93
g94
ssg75
g2605
sg68
(lp2617
S':'
asbag61
(g82
g63
NtRp2618
(dp2619
g66
(dp2620
sg75
g2605
sg68
(lp2621
g61
(g62
g63
NtRp2622
(dp2623
g66
(dp2624
g74
I3
ssg75
g2618
sg68
(lp2625
g1122
asbasbasbag61
(g77
g63
NtRp2626
(dp2627
g66
(dp2628
sg75
g2433
sg68
(lp2629
g61
(g82
g63
NtRp2630
(dp2631
g66
(dp2632
g86
g87
ssg75
g2626
sg68
(lp2633
S'HTTP_USER_AGENT'
p2634
asbag61
(g82
g63
NtRp2635
(dp2636
g66
(dp2637
g93
g94
ssg75
g2626
sg68
(lp2638
S':'
asbag61
(g82
g63
NtRp2639
(dp2640
g66
(dp2641
sg75
g2626
sg68
(lp2642
g61
(g62
g63
NtRp2643
(dp2644
g66
(dp2645
g74
I3
ssg75
g2639
sg68
(lp2646
g1144
asbasbasbag61
(g77
g63
NtRp2647
(dp2648
g66
(dp2649
sg75
g2433
sg68
(lp2650
g61
(g82
g63
NtRp2651
(dp2652
g66
(dp2653
g86
g87
ssg75
g2647
sg68
(lp2654
S'PATH_INFO'
p2655
asbag61
(g82
g63
NtRp2656
(dp2657
g66
(dp2658
g93
g94
ssg75
g2647
sg68
(lp2659
S':'
asbag61
(g82
g63
NtRp2660
(dp2661
g66
(dp2662
sg75
g2647
sg68
(lp2663
g61
(g62
g63
NtRp2664
(dp2665
g66
(dp2666
g74
I3
ssg75
g2660
sg68
(lp2667
S'/'
asbasbasbag61
(g77
g63
NtRp2668
(dp2669
g66
(dp2670
sg75
g2433
sg68
(lp2671
g61
(g82
g63
NtRp2672
(dp2673
g66
(dp2674
g86
g87
ssg75
g2668
sg68
(lp2675
S'QUERY_STRING'
p2676
asbag61
(g82
g63
NtRp2677
(dp2678
g66
(dp2679
g93
g94
ssg75
g2668
sg68
(lp2680
S':'
asbag61
(g82
g63
NtRp2681
(dp2682
g66
(dp2683
sg75
g2668
sg68
(lp2684
g61
(g62
g63
NtRp2685
(dp2686
g66
(dp2687
g74
I3
ssg75
g2681
sg68
(lp2688
S''
asbasbasbag61
(g77
g63
NtRp2689
(dp2690
g66
(dp2691
sg75
g2433
sg68
(lp2692
g61
(g82
g63
NtRp2693
(dp2694
g66
(dp2695
g86
g87
ssg75
g2689
sg68
(lp2696
S'REMOTE_ADDR'
p2697
asbag61
(g82
g63
NtRp2698
(dp2699
g66
(dp2700
g93
g94
ssg75
g2689
sg68
(lp2701
S':'
asbag61
(g82
g63
NtRp2702
(dp2703
g66
(dp2704
sg75
g2689
sg68
(lp2705
g61
(g62
g63
NtRp2706
(dp2707
g66
(dp2708
g74
I3
ssg75
g2702
sg68
(lp2709
g194
asbasbasbag61
(g77
g63
NtRp2710
(dp2711
g66
(dp2712
sg75
g2433
sg68
(lp2713
g61
(g82
g63
NtRp2714
(dp2715
g66
(dp2716
g86
g87
ssg75
g2710
sg68
(lp2717
S'REMOTE_PORT'
p2718
asbag61
(g82
g63
NtRp2719
(dp2720
g66
(dp2721
g93
g94
ssg75
g2710
sg68
(lp2722
S':'
asbag61
(g82
g63
NtRp2723
(dp2724
g66
(dp2725
sg75
g2710
sg68
(lp2726
g61
(g62
g63
NtRp2727
(dp2728
g66
(dp2729
g74
I3
ssg75
g2723
sg68
(lp2730
g1271
asbasbasbag61
(g77
g63
NtRp2731
(dp2732
g66
(dp2733
sg75
g2433
sg68
(lp2734
g61
(g82
g63
NtRp2735
(dp2736
g66
(dp2737
g86
g87
ssg75
g2731
sg68
(lp2738
S'REQUEST_METHOD'
p2739
asbag61
(g82
g63
NtRp2740
(dp2741
g66
(dp2742
g93
g94
ssg75
g2731
sg68
(lp2743
S':'
asbag61
(g82
g63
NtRp2744
(dp2745
g66
(dp2746
sg75
g2731
sg68
(lp2747
g61
(g62
g63
NtRp2748
(dp2749
g66
(dp2750
g74
I3
ssg75
g2744
sg68
(lp2751
g1293
asbasbasbag61
(g77
g63
NtRp2752
(dp2753
g66
(dp2754
sg75
g2433
sg68
(lp2755
g61
(g82
g63
NtRp2756
(dp2757
g66
(dp2758
g86
g87
ssg75
g2752
sg68
(lp2759
S'REQUEST_URI'
p2760
asbag61
(g82
g63
NtRp2761
(dp2762
g66
(dp2763
g93
g94
ssg75
g2752
sg68
(lp2764
S':'
asbag61
(g82
g63
NtRp2765
(dp2766
g66
(dp2767
sg75
g2752
sg68
(lp2768
g61
(g62
g63
NtRp2769
(dp2770
g66
(dp2771
g74
I3
ssg75
g2765
sg68
(lp2772
g1315
asbasbasbag61
(g77
g63
NtRp2773
(dp2774
g66
(dp2775
sg75
g2433
sg68
(lp2776
g61
(g82
g63
NtRp2777
(dp2778
g66
(dp2779
g86
g87
ssg75
g2773
sg68
(lp2780
S'SCRIPT_NAME'
p2781
asbag61
(g82
g63
NtRp2782
(dp2783
g66
(dp2784
g93
g94
ssg75
g2773
sg68
(lp2785
S':'
asbag61
(g82
g63
NtRp2786
(dp2787
g66
(dp2788
sg75
g2773
sg68
(lp2789
g61
(g62
g63
NtRp2790
(dp2791
g66
(dp2792
g74
I3
ssg75
g2786
sg68
(lp2793
S''
asbasbasbag61
(g77
g63
NtRp2794
(dp2795
g66
(dp2796
sg75
g2433
sg68
(lp2797
g61
(g82
g63
NtRp2798
(dp2799
g66
(dp2800
g86
g87
ssg75
g2794
sg68
(lp2801
S'SERVER_NAME'
p2802
asbag61
(g82
g63
NtRp2803
(dp2804
g66
(dp2805
g93
g94
ssg75
g2794
sg68
(lp2806
S':'
asbag61
(g82
g63
NtRp2807
(dp2808
g66
(dp2809
sg75
g2794
sg68
(lp2810
g61
(g62
g63
NtRp2811
(dp2812
g66
(dp2813
g74
I3
ssg75
g2807
sg68
(lp2814
g1358
asbasbasbag61
(g77
g63
NtRp2815
(dp2816
g66
(dp2817
sg75
g2433
sg68
(lp2818
g61
(g82
g63
NtRp2819
(dp2820
g66
(dp2821
g86
g87
ssg75
g2815
sg68
(lp2822
S'SERVER_PORT'
p2823
asbag61
(g82
g63
NtRp2824
(dp2825
g66
(dp2826
g93
g94
ssg75
g2815
sg68
(lp2827
S':'
asbag61
(g82
g63
NtRp2828
(dp2829
g66
(dp2830
sg75
g2815
sg68
(lp2831
g61
(g62
g63
NtRp2832
(dp2833
g66
(dp2834
g74
I3
ssg75
g2828
sg68
(lp2835
g1380
asbasbasbag61
(g77
g63
NtRp2836
(dp2837
g66
(dp2838
sg75
g2433
sg68
(lp2839
g61
(g82
g63
NtRp2840
(dp2841
g66
(dp2842
g86
g87
ssg75
g2836
sg68
(lp2843
S'SERVER_PROTOCOL'
p2844
asbag61
(g82
g63
NtRp2845
(dp2846
g66
(dp2847
g93
g94
ssg75
g2836
sg68
(lp2848
S':'
asbag61
(g82
g63
NtRp2849
(dp2850
g66
(dp2851
sg75
g2836
sg68
(lp2852
g61
(g62
g63
NtRp2853
(dp2854
g66
(dp2855
g74
I3
ssg75
g2849
sg68
(lp2856
g1402
asbasbasbag61
(g77
g63
NtRp2857
(dp2858
g66
(dp2859
sg75
g2433
sg68
(lp2860
g61
(g82
g63
NtRp2861
(dp2862
g66
(dp2863
g86
g87
ssg75
g2857
sg68
(lp2864
S'SERVER_SOFTWARE'
p2865
asbag61
(g82
g63
NtRp2866
(dp2867
g66
(dp2868
g93
g94
ssg75
g2857
sg68
(lp2869
S':'
asbag61
(g82
g63
NtRp2870
(dp2871
g66
(dp2872
sg75
g2857
sg68
(lp2873
g61
(g62
g63
NtRp2874
(dp2875
g66
(dp2876
g74
I3
ssg75
g2870
sg68
(lp2877
g1424
asbasbasbag61
(g77
g63
NtRp2878
(dp2879
g66
(dp2880
sg75
g2433
sg68
(lp2881
g61
(g82
g63
NtRp2882
(dp2883
g66
(dp2884
g86
g87
ssg75
g2878
sg68
(lp2885
S'WEB2PY_ORIGINAL_URI'
p2886
asbag61
(g82
g63
NtRp2887
(dp2888
g66
(dp2889
g93
g94
ssg75
g2878
sg68
(lp2890
S':'
asbag61
(g82
g63
NtRp2891
(dp2892
g66
(dp2893
sg75
g2878
sg68
(lp2894
g61
(g62
g63
NtRp2895
(dp2896
g66
(dp2897
g74
I3
ssg75
g2891
sg68
(lp2898
S'/'
asbasbasbag61
(g77
g63
NtRp2899
(dp2900
g66
(dp2901
sg75
g2433
sg68
(lp2902
g61
(g82
g63
NtRp2903
(dp2904
g66
(dp2905
g86
g87
ssg75
g2899
sg68
(lp2906
S'wsgi.errors'
p2907
asbag61
(g82
g63
NtRp2908
(dp2909
g66
(dp2910
g93
g94
ssg75
g2899
sg68
(lp2911
S':'
asbag61
(g82
g63
NtRp2912
(dp2913
g66
(dp2914
sg75
g2899
sg68
(lp2915
g61
(g62
g63
NtRp2916
(dp2917
g66
(dp2918
g74
I3
ssg75
g2912
sg68
(lp2919
S"<open file '<stderr>', mode 'w' at 0x4220b0>"
p2920
asbasbasbag61
(g77
g63
NtRp2921
(dp2922
g66
(dp2923
sg75
g2433
sg68
(lp2924
g61
(g82
g63
NtRp2925
(dp2926
g66
(dp2927
g86
g87
ssg75
g2921
sg68
(lp2928
S'wsgi.file_wrapper'
p2929
asbag61
(g82
g63
NtRp2930
(dp2931
g66
(dp2932
g93
g94
ssg75
g2921
sg68
(lp2933
S':'
asbag61
(g82
g63
NtRp2934
(dp2935
g66
(dp2936
sg75
g2921
sg68
(lp2937
g61
(g62
g63
NtRp2938
(dp2939
g66
(dp2940
g74
I3
ssg75
g2934
sg68
(lp2941
S'<class wsgiref.util.FileWrapper at 0x2b60450>'
p2942
asbasbasbag61
(g77
g63
NtRp2943
(dp2944
g66
(dp2945
sg75
g2433
sg68
(lp2946
g61
(g82
g63
NtRp2947
(dp2948
g66
(dp2949
g86
g87
ssg75
g2943
sg68
(lp2950
S'wsgi.input'
p2951
asbag61
(g82
g63
NtRp2952
(dp2953
g66
(dp2954
g93
g94
ssg75
g2943
sg68
(lp2955
S':'
asbag61
(g82
g63
NtRp2956
(dp2957
g66
(dp2958
sg75
g2943
sg68
(lp2959
g61
(g62
g63
NtRp2960
(dp2961
g66
(dp2962
g74
I3
ssg75
g2956
sg68
(lp2963
S'<cStringIO.StringO object at 0xa59e4e0>'
p2964
asbasbasbag61
(g77
g63
NtRp2965
(dp2966
g66
(dp2967
sg75
g2433
sg68
(lp2968
g61
(g82
g63
NtRp2969
(dp2970
g66
(dp2971
g86
g87
ssg75
g2965
sg68
(lp2972
S'wsgi.multiprocess'
p2973
asbag61
(g82
g63
NtRp2974
(dp2975
g66
(dp2976
g93
g94
ssg75
g2965
sg68
(lp2977
S':'
asbag61
(g82
g63
NtRp2978
(dp2979
g66
(dp2980
sg75
g2965
sg68
(lp2981
g61
(g62
g63
NtRp2982
(dp2983
g66
(dp2984
g74
I3
ssg75
g2978
sg68
(lp2985
g104
asbasbasbag61
(g77
g63
NtRp2986
(dp2987
g66
(dp2988
sg75
g2433
sg68
(lp2989
g61
(g82
g63
NtRp2990
(dp2991
g66
(dp2992
g86
g87
ssg75
g2986
sg68
(lp2993
S'wsgi.multithread'
p2994
asbag61
(g82
g63
NtRp2995
(dp2996
g66
(dp2997
g93
g94
ssg75
g2986
sg68
(lp2998
S':'
asbag61
(g82
g63
NtRp2999
(dp3000
g66
(dp3001
sg75
g2986
sg68
(lp3002
g61
(g62
g63
NtRp3003
(dp3004
g66
(dp3005
g74
I3
ssg75
g2999
sg68
(lp3006
g1685
asbasbasbag61
(g77
g63
NtRp3007
(dp3008
g66
(dp3009
sg75
g2433
sg68
(lp3010
g61
(g82
g63
NtRp3011
(dp3012
g66
(dp3013
g86
g87
ssg75
g3007
sg68
(lp3014
S'wsgi.run_once'
p3015
asbag61
(g82
g63
NtRp3016
(dp3017
g66
(dp3018
g93
g94
ssg75
g3007
sg68
(lp3019
S':'
asbag61
(g82
g63
NtRp3020
(dp3021
g66
(dp3022
sg75
g3007
sg68
(lp3023
g61
(g62
g63
NtRp3024
(dp3025
g66
(dp3026
g74
I3
ssg75
g3020
sg68
(lp3027
g104
asbasbasbag61
(g77
g63
NtRp3028
(dp3029
g66
(dp3030
sg75
g2433
sg68
(lp3031
g61
(g82
g63
NtRp3032
(dp3033
g66
(dp3034
g86
g87
ssg75
g3028
sg68
(lp3035
S'wsgi.url_scheme'
p3036
asbag61
(g82
g63
NtRp3037
(dp3038
g66
(dp3039
g93
g94
ssg75
g3028
sg68
(lp3040
S':'
asbag61
(g82
g63
NtRp3041
(dp3042
g66
(dp3043
sg75
g3028
sg68
(lp3044
g61
(g62
g63
NtRp3045
(dp3046
g66
(dp3047
g74
I3
ssg75
g3041
sg68
(lp3048
g1728
asbasbasbag61
(g77
g63
NtRp3049
(dp3050
g66
(dp3051
sg75
g2433
sg68
(lp3052
g61
(g82
g63
NtRp3053
(dp3054
g66
(dp3055
g86
g87
ssg75
g3049
sg68
(lp3056
S'wsgi.version'
p3057
asbag61
(g82
g63
NtRp3058
(dp3059
g66
(dp3060
g93
g94
ssg75
g3049
sg68
(lp3061
S':'
asbag61
(g82
g63
NtRp3062
(dp3063
g66
(dp3064
sg75
g3049
sg68
(lp3065
g61
(g62
g63
NtRp3066
(dp3067
g66
(dp3068
g74
I3
ssg75
g3062
sg68
(lp3069
S'1'
asbasbasbasbasbasbasbasbasbasbasbasbasbsS'frames'
p3070
(lp3071
(dp3072
S'file'
p3073
S'/users/udimilo/Documents/web2py/gluon/restricted.py'
p3074
sS'dump'
p3075
(dp3076
S'code'
p3077
S'\'response.write(\\\'<html lan="en">\\\\n<head>\\\\n    <ti...js"></script>\\\\n</body>\\\\n</html>\\\\n\\\', escape=False)\''
p3078
sS'layer'
p3079
S"'/Users/udimilo/Documents/web2py/applications/udi0312/views/default/index.html'"
p3080
sS'global compile2'
p3081
S'<function compile2 at 0x2ae2d30>'
p3082
sS'ccode'
p3083
S'undefined'
p3084
ssS'lnum'
p3085
I204
sS'lines'
p3086
(dp3087
I199
S"    environment['__name__'] = '__restricted__'"
p3088
sI200
S'    try:'
p3089
sI201
S'        if type(code) == types.CodeType:'
p3090
sI202
S'            ccode = code'
p3091
sI203
S'        else:'
p3092
sI204
S'            ccode = compile2(code,layer)'
p3093
sI205
S'        exec ccode in environment'
p3094
sI206
S'    except HTTP:'
p3095
sI207
S'        raise'
p3096
sI208
S'    except RestrictedError:'
p3097
ssS'call'
p3098
S'(code=\'response.write(\\\'<html lan="en">\\\\n<head>\\\\n    <ti...js"></script>\\\\n</body>\\\\n</html>\\\\n\\\', escape=False)\', environment={\'A\': <class \'gluon.html.A\'>, \'Auth\': <class \'gluon.tools.Auth\'>, \'B\': <class \'gluon.html.B\'>, \'BEAUTIFY\': <class \'gluon.html.BEAUTIFY\'>, \'BODY\': <class \'gluon.html.BODY\'>, \'BR\': <class \'gluon.html.BR\'>, \'BUTTON\': <class \'gluon.html.BUTTON\'>, \'CAT\': <class \'gluon.html.CAT\'>, \'CENTER\': <class \'gluon.html.CENTER\'>, \'CLEANUP\': <class \'gluon.validators.CLEANUP\'>, ...}, layer=\'/Users/udimilo/Documents/web2py/applications/udi0312/views/default/index.html\')'
p3099
sS'func'
p3100
S'restricted'
p3101
sa(dp3102
g3073
S'/users/udimilo/Documents/web2py/gluon/restricted.py'
p3103
sg3075
(dp3104
S'builtincompile'
p3105
S'<built-in function compile>'
p3106
sS'code'
p3107
S'\'response.write(\\\'<html lan="en">\\\\n<head>\\\\n    <ti...js"></script>\\\\n</body>\\\\n</html>\\\\n\\\', escape=False)\''
p3108
sS'code.rstrip'
p3109
S'<built-in method rstrip of str object at 0x3be2a00>'
p3110
sS').replace'
p3111
g3084
sS'layer'
p3112
S"'/Users/udimilo/Documents/web2py/applications/udi0312/views/default/index.html'"
p3113
ssg3085
I189
sg3086
(dp3114
I192
S'    """'
p3115
sI193
S'    runs code in environment and returns the output. if an exception occurs'
p3116
sI184
S''
sI185
S'def compile2(code,layer):'
p3117
sI186
S'    """'
p3118
sI187
S"    The +'\\n' is necessary else compile fails when code ends in a comment."
p3119
sI188
S'    """'
p3120
sI189
S"    return compile(code.rstrip().replace('\\r\\n','\\n')+'\\n', layer, 'exec')"
p3121
sI190
S''
sI191
S"def restricted(code, environment=None, layer='Unknown'):"
p3122
ssg3098
S'(code=\'response.write(\\\'<html lan="en">\\\\n<head>\\\\n    <ti...js"></script>\\\\n</body>\\\\n</html>\\\\n\\\', escape=False)\', layer=\'/Users/udimilo/Documents/web2py/applications/udi0312/views/default/index.html\')'
p3123
sg3100
S'compile2'
p3124
sasS'pyver'
p3125
S'Python 2.5.4: /Library/Frameworks/Python.framework/Versions/2.5/Resources/Python.app/Contents/MacOS/Python'
p3126
sS'session'
p3127
g61
(g62
g63
NtRp3128
(dp3129
g66
(dp3130
sg68
(lp3131
g61
(g70
g63
NtRp3132
(dp3133
g66
(dp3134
g74
I5
ssg75
Nsg68
(lp3135
g61
(g77
g63
NtRp3136
(dp3137
g66
(dp3138
sg75
g3132
sg68
(lp3139
g61
(g82
g63
NtRp3140
(dp3141
g66
(dp3142
g86
g87
ssg75
g3136
sg68
(lp3143
S'auth'
p3144
asbag61
(g82
g63
NtRp3145
(dp3146
g66
(dp3147
g93
g94
ssg75
g3136
sg68
(lp3148
S':'
asbag61
(g82
g63
NtRp3149
(dp3150
g66
(dp3151
sg75
g3136
sg68
(lp3152
g61
(g62
g63
NtRp3153
(dp3154
g66
(dp3155
g74
I5
ssg75
g3149
sg68
(lp3156
g61
(g70
g63
NtRp3157
(dp3158
g66
(dp3159
g74
I4
ssg75
Nsg68
(lp3160
g61
(g77
g63
NtRp3161
(dp3162
g66
(dp3163
sg75
g3157
sg68
(lp3164
g61
(g82
g63
NtRp3165
(dp3166
g66
(dp3167
g86
g87
ssg75
g3161
sg68
(lp3168
S'expiration'
p3169
asbag61
(g82
g63
NtRp3170
(dp3171
g66
(dp3172
g93
g94
ssg75
g3161
sg68
(lp3173
S':'
asbag61
(g82
g63
NtRp3174
(dp3175
g66
(dp3176
sg75
g3161
sg68
(lp3177
g61
(g62
g63
NtRp3178
(dp3179
g66
(dp3180
g74
I4
ssg75
g3174
sg68
(lp3181
S'2592000'
p3182
asbasbasbag61
(g77
g63
NtRp3183
(dp3184
g66
(dp3185
sg75
g3157
sg68
(lp3186
g61
(g82
g63
NtRp3187
(dp3188
g66
(dp3189
g86
g87
ssg75
g3183
sg68
(lp3190
S'hmac_key'
p3191
asbag61
(g82
g63
NtRp3192
(dp3193
g66
(dp3194
g93
g94
ssg75
g3183
sg68
(lp3195
S':'
asbag61
(g82
g63
NtRp3196
(dp3197
g66
(dp3198
sg75
g3183
sg68
(lp3199
g61
(g62
g63
NtRp3200
(dp3201
g66
(dp3202
g74
I4
ssg75
g3196
sg68
(lp3203
S'e95fb5e0-f68d-430e-a660-5148e97bc5df'
p3204
asbasbasbag61
(g77
g63
NtRp3205
(dp3206
g66
(dp3207
sg75
g3157
sg68
(lp3208
g61
(g82
g63
NtRp3209
(dp3210
g66
(dp3211
g86
g87
ssg75
g3205
sg68
(lp3212
S'last_visit'
p3213
asbag61
(g82
g63
NtRp3214
(dp3215
g66
(dp3216
g93
g94
ssg75
g3205
sg68
(lp3217
S':'
asbag61
(g82
g63
NtRp3218
(dp3219
g66
(dp3220
sg75
g3205
sg68
(lp3221
g61
(g62
g63
NtRp3222
(dp3223
g66
(dp3224
g74
I4
ssg75
g3218
sg68
(lp3225
S'datetime.datetime(2012, 3, 8, 21, 10, 48, 287338)'
p3226
asbasbasbag61
(g77
g63
NtRp3227
(dp3228
g66
(dp3229
sg75
g3157
sg68
(lp3230
g61
(g82
g63
NtRp3231
(dp3232
g66
(dp3233
g86
g87
ssg75
g3227
sg68
(lp3234
S'remember'
p3235
asbag61
(g82
g63
NtRp3236
(dp3237
g66
(dp3238
g93
g94
ssg75
g3227
sg68
(lp3239
S':'
asbag61
(g82
g63
NtRp3240
(dp3241
g66
(dp3242
sg75
g3227
sg68
(lp3243
g61
(g62
g63
NtRp3244
(dp3245
g66
(dp3246
g74
I4
ssg75
g3240
sg68
(lp3247
g1685
asbasbasbag61
(g77
g63
NtRp3248
(dp3249
g66
(dp3250
sg75
g3157
sg68
(lp3251
g61
(g82
g63
NtRp3252
(dp3253
g66
(dp3254
g86
g87
ssg75
g3248
sg68
(lp3255
S'user'
p3256
asbag61
(g82
g63
NtRp3257
(dp3258
g66
(dp3259
g93
g94
ssg75
g3248
sg68
(lp3260
S':'
asbag61
(g82
g63
NtRp3261
(dp3262
g66
(dp3263
sg75
g3248
sg68
(lp3264
g61
(g62
g63
NtRp3265
(dp3266
g66
(dp3267
g74
I4
ssg75
g3261
sg68
(lp3268
g61
(g70
g63
NtRp3269
(dp3270
g66
(dp3271
g74
I3
ssg75
Nsg68
(lp3272
g61
(g77
g63
NtRp3273
(dp3274
g66
(dp3275
sg75
g3269
sg68
(lp3276
g61
(g82
g63
NtRp3277
(dp3278
g66
(dp3279
g86
g87
ssg75
g3273
sg68
(lp3280
S'email'
p3281
asbag61
(g82
g63
NtRp3282
(dp3283
g66
(dp3284
g93
g94
ssg75
g3273
sg68
(lp3285
S':'
asbag61
(g82
g63
NtRp3286
(dp3287
g66
(dp3288
sg75
g3273
sg68
(lp3289
g61
(g62
g63
NtRp3290
(dp3291
g66
(dp3292
g74
I3
ssg75
g3286
sg68
(lp3293
S'udimilo@gmail.com'
p3294
asbasbasbag61
(g77
g63
NtRp3295
(dp3296
g66
(dp3297
sg75
g3269
sg68
(lp3298
g61
(g82
g63
NtRp3299
(dp3300
g66
(dp3301
g86
g87
ssg75
g3295
sg68
(lp3302
S'first_name'
p3303
asbag61
(g82
g63
NtRp3304
(dp3305
g66
(dp3306
g93
g94
ssg75
g3295
sg68
(lp3307
S':'
asbag61
(g82
g63
NtRp3308
(dp3309
g66
(dp3310
sg75
g3295
sg68
(lp3311
g61
(g62
g63
NtRp3312
(dp3313
g66
(dp3314
g74
I3
ssg75
g3308
sg68
(lp3315
S'Udi'
p3316
asbasbasbag61
(g77
g63
NtRp3317
(dp3318
g66
(dp3319
sg75
g3269
sg68
(lp3320
g61
(g82
g63
NtRp3321
(dp3322
g66
(dp3323
g86
g87
ssg75
g3317
sg68
(lp3324
S'id'
p3325
asbag61
(g82
g63
NtRp3326
(dp3327
g66
(dp3328
g93
g94
ssg75
g3317
sg68
(lp3329
S':'
asbag61
(g82
g63
NtRp3330
(dp3331
g66
(dp3332
sg75
g3317
sg68
(lp3333
g61
(g62
g63
NtRp3334
(dp3335
g66
(dp3336
g74
I3
ssg75
g3330
sg68
(lp3337
S'1'
asbasbasbag61
(g77
g63
NtRp3338
(dp3339
g66
(dp3340
sg75
g3269
sg68
(lp3341
g61
(g82
g63
NtRp3342
(dp3343
g66
(dp3344
g86
g87
ssg75
g3338
sg68
(lp3345
S'last_name'
p3346
asbag61
(g82
g63
NtRp3347
(dp3348
g66
(dp3349
g93
g94
ssg75
g3338
sg68
(lp3350
S':'
asbag61
(g82
g63
NtRp3351
(dp3352
g66
(dp3353
sg75
g3338
sg68
(lp3354
g61
(g62
g63
NtRp3355
(dp3356
g66
(dp3357
g74
I3
ssg75
g3351
sg68
(lp3358
S'Milo'
p3359
asbasbasbag61
(g77
g63
NtRp3360
(dp3361
g66
(dp3362
sg75
g3269
sg68
(lp3363
g61
(g82
g63
NtRp3364
(dp3365
g66
(dp3366
g86
g87
ssg75
g3360
sg68
(lp3367
S'password'
p3368
asbag61
(g82
g63
NtRp3369
(dp3370
g66
(dp3371
g93
g94
ssg75
g3360
sg68
(lp3372
S':'
asbag61
(g82
g63
NtRp3373
(dp3374
g66
(dp3375
sg75
g3360
sg68
(lp3376
g61
(g62
g63
NtRp3377
(dp3378
g66
(dp3379
g74
I3
ssg75
g3373
sg68
(lp3380
S'7a6e3c6a68ceed66634484a3f64a3468'
p3381
asbasbasbag61
(g77
g63
NtRp3382
(dp3383
g66
(dp3384
sg75
g3269
sg68
(lp3385
g61
(g82
g63
NtRp3386
(dp3387
g66
(dp3388
g86
g87
ssg75
g3382
sg68
(lp3389
S'registration_id'
p3390
asbag61
(g82
g63
NtRp3391
(dp3392
g66
(dp3393
g93
g94
ssg75
g3382
sg68
(lp3394
S':'
asbag61
(g82
g63
NtRp3395
(dp3396
g66
(dp3397
sg75
g3382
sg68
(lp3398
g61
(g62
g63
NtRp3399
(dp3400
g66
(dp3401
g74
I3
ssg75
g3395
sg68
(lp3402
S''
asbasbasbag61
(g77
g63
NtRp3403
(dp3404
g66
(dp3405
sg75
g3269
sg68
(lp3406
g61
(g82
g63
NtRp3407
(dp3408
g66
(dp3409
g86
g87
ssg75
g3403
sg68
(lp3410
S'registration_key'
p3411
asbag61
(g82
g63
NtRp3412
(dp3413
g66
(dp3414
g93
g94
ssg75
g3403
sg68
(lp3415
S':'
asbag61
(g82
g63
NtRp3416
(dp3417
g66
(dp3418
sg75
g3403
sg68
(lp3419
g61
(g62
g63
NtRp3420
(dp3421
g66
(dp3422
g74
I3
ssg75
g3416
sg68
(lp3423
S''
asbasbasbag61
(g77
g63
NtRp3424
(dp3425
g66
(dp3426
sg75
g3269
sg68
(lp3427
g61
(g82
g63
NtRp3428
(dp3429
g66
(dp3430
g86
g87
ssg75
g3424
sg68
(lp3431
S'reset_password_key'
p3432
asbag61
(g82
g63
NtRp3433
(dp3434
g66
(dp3435
g93
g94
ssg75
g3424
sg68
(lp3436
S':'
asbag61
(g82
g63
NtRp3437
(dp3438
g66
(dp3439
sg75
g3424
sg68
(lp3440
g61
(g62
g63
NtRp3441
(dp3442
g66
(dp3443
g74
I3
ssg75
g3437
sg68
(lp3444
S''
asbasbasbasbasbasbasbag61
(g77
g63
NtRp3445
(dp3446
g66
(dp3447
sg75
g3157
sg68
(lp3448
g61
(g82
g63
NtRp3449
(dp3450
g66
(dp3451
g86
g87
ssg75
g3445
sg68
(lp3452
S'user_groups'
p3453
asbag61
(g82
g63
NtRp3454
(dp3455
g66
(dp3456
g93
g94
ssg75
g3445
sg68
(lp3457
S':'
asbag61
(g82
g63
NtRp3458
(dp3459
g66
(dp3460
sg75
g3445
sg68
(lp3461
g61
(g62
g63
NtRp3462
(dp3463
g66
(dp3464
g74
I4
ssg75
g3458
sg68
(lp3465
g61
(g70
g63
NtRp3466
(dp3467
g66
(dp3468
g74
I3
ssg75
Nsg68
(lp3469
g61
(g77
g63
NtRp3470
(dp3471
g66
(dp3472
sg75
g3466
sg68
(lp3473
g61
(g82
g63
NtRp3474
(dp3475
g66
(dp3476
g86
g87
ssg75
g3470
sg68
(lp3477
S'1'
asbag61
(g82
g63
NtRp3478
(dp3479
g66
(dp3480
g93
g94
ssg75
g3470
sg68
(lp3481
S':'
asbag61
(g82
g63
NtRp3482
(dp3483
g66
(dp3484
sg75
g3470
sg68
(lp3485
g61
(g62
g63
NtRp3486
(dp3487
g66
(dp3488
g74
I3
ssg75
g3482
sg68
(lp3489
S'user_1'
p3490
asbasbasbasbasbasbasbasbasbasbasbag61
(g77
g63
NtRp3491
(dp3492
g66
(dp3493
sg75
g3132
sg68
(lp3494
g61
(g82
g63
NtRp3495
(dp3496
g66
(dp3497
g86
g87
ssg75
g3491
sg68
(lp3498
S'last_query'
p3499
asbag61
(g82
g63
NtRp3500
(dp3501
g66
(dp3502
g93
g94
ssg75
g3491
sg68
(lp3503
S':'
asbag61
(g82
g63
NtRp3504
(dp3505
g66
(dp3506
sg75
g3491
sg68
(lp3507
g61
(g62
g63
NtRp3508
(dp3509
g66
(dp3510
g74
I5
ssg75
g3504
sg68
(lp3511
S'db.board.id>0'
p3512
asbasbasbasbasbsS'etype'
p3513
S"<type 'exceptions.SyntaxError'>"
p3514
sS'date'
p3515
S'Thu Mar  8 22:13:21 2012'
p3516
sS'response'
p3517
g61
(g62
g63
NtRp3518
(dp3519
g66
(dp3520
sg68
(lp3521
g61
(g70
g63
NtRp3522
(dp3523
g66
(dp3524
g74
I5
ssg75
Nsg68
(lp3525
g61
(g77
g63
NtRp3526
(dp3527
g66
(dp3528
sg75
g3522
sg68
(lp3529
g61
(g82
g63
NtRp3530
(dp3531
g66
(dp3532
g86
g87
ssg75
g3526
sg68
(lp3533
g159
asbag61
(g82
g63
NtRp3534
(dp3535
g66
(dp3536
g93
g94
ssg75
g3526
sg68
(lp3537
S':'
asbag61
(g82
g63
NtRp3538
(dp3539
g66
(dp3540
sg75
g3526
sg68
(lp3541
g61
(g62
g63
NtRp3542
(dp3543
g66
(dp3544
g74
I5
ssg75
g3538
sg68
(lp3545
S'<cStringIO.StringO object at 0xa55ee80>'
p3546
asbasbasbag61
(g77
g63
NtRp3547
(dp3548
g66
(dp3549
sg75
g3522
sg68
(lp3550
g61
(g82
g63
NtRp3551
(dp3552
g66
(dp3553
g86
g87
ssg75
g3547
sg68
(lp3554
g225
asbag61
(g82
g63
NtRp3555
(dp3556
g66
(dp3557
g93
g94
ssg75
g3547
sg68
(lp3558
S':'
asbag61
(g82
g63
NtRp3559
(dp3560
g66
(dp3561
sg75
g3547
sg68
(lp3562
g61
(g62
g63
NtRp3563
(dp3564
g66
(dp3565
g74
I5
ssg75
g3559
sg68
(lp3566
g61
(g70
g63
NtRp3567
(dp3568
g66
(dp3569
g74
I4
ssg75
Nsg68
(lp3570
g61
(g77
g63
NtRp3571
(dp3572
g66
(dp3573
sg75
g3567
sg68
(lp3574
g61
(g82
g63
NtRp3575
(dp3576
g66
(dp3577
g86
g87
ssg75
g3571
sg68
(lp3578
S'session_id_udi0312'
p3579
asbag61
(g82
g63
NtRp3580
(dp3581
g66
(dp3582
g93
g94
ssg75
g3571
sg68
(lp3583
S':'
asbag61
(g82
g63
NtRp3584
(dp3585
g66
(dp3586
sg75
g3571
sg68
(lp3587
g61
(g62
g63
NtRp3588
(dp3589
g66
(dp3590
g74
I4
ssg75
g3584
sg68
(lp3591
g61
(g70
g63
NtRp3592
(dp3593
g66
(dp3594
g74
I3
ssg75
Nsg68
(lp3595
g61
(g77
g63
NtRp3596
(dp3597
g66
(dp3598
sg75
g3592
sg68
(lp3599
g61
(g82
g63
NtRp3600
(dp3601
g66
(dp3602
g86
g87
ssg75
g3596
sg68
(lp3603
g275
asbag61
(g82
g63
NtRp3604
(dp3605
g66
(dp3606
g93
g94
ssg75
g3596
sg68
(lp3607
S':'
asbag61
(g82
g63
NtRp3608
(dp3609
g66
(dp3610
sg75
g3596
sg68
(lp3611
g61
(g62
g63
NtRp3612
(dp3613
g66
(dp3614
g74
I3
ssg75
g3608
sg68
(lp3615
S''
asbasbasbag61
(g77
g63
NtRp3616
(dp3617
g66
(dp3618
sg75
g3592
sg68
(lp3619
g61
(g82
g63
NtRp3620
(dp3621
g66
(dp3622
g86
g87
ssg75
g3616
sg68
(lp3623
g296
asbag61
(g82
g63
NtRp3624
(dp3625
g66
(dp3626
g93
g94
ssg75
g3616
sg68
(lp3627
S':'
asbag61
(g82
g63
NtRp3628
(dp3629
g66
(dp3630
sg75
g3616
sg68
(lp3631
g61
(g62
g63
NtRp3632
(dp3633
g66
(dp3634
g74
I3
ssg75
g3628
sg68
(lp3635
S''
asbasbasbag61
(g77
g63
NtRp3636
(dp3637
g66
(dp3638
sg75
g3592
sg68
(lp3639
g61
(g82
g63
NtRp3640
(dp3641
g66
(dp3642
g86
g87
ssg75
g3636
sg68
(lp3643
g317
asbag61
(g82
g63
NtRp3644
(dp3645
g66
(dp3646
g93
g94
ssg75
g3636
sg68
(lp3647
S':'
asbag61
(g82
g63
NtRp3648
(dp3649
g66
(dp3650
sg75
g3636
sg68
(lp3651
g61
(g62
g63
NtRp3652
(dp3653
g66
(dp3654
g74
I3
ssg75
g3648
sg68
(lp3655
S'2592000'
p3656
asbasbasbag61
(g77
g63
NtRp3657
(dp3658
g66
(dp3659
sg75
g3592
sg68
(lp3660
g61
(g82
g63
NtRp3661
(dp3662
g66
(dp3663
g86
g87
ssg75
g3657
sg68
(lp3664
g338
asbag61
(g82
g63
NtRp3665
(dp3666
g66
(dp3667
g93
g94
ssg75
g3657
sg68
(lp3668
S':'
asbag61
(g82
g63
NtRp3669
(dp3670
g66
(dp3671
sg75
g3657
sg68
(lp3672
g61
(g62
g63
NtRp3673
(dp3674
g66
(dp3675
g74
I3
ssg75
g3669
sg68
(lp3676
S''
asbasbasbag61
(g77
g63
NtRp3677
(dp3678
g66
(dp3679
sg75
g3592
sg68
(lp3680
g61
(g82
g63
NtRp3681
(dp3682
g66
(dp3683
g86
g87
ssg75
g3677
sg68
(lp3684
g359
asbag61
(g82
g63
NtRp3685
(dp3686
g66
(dp3687
g93
g94
ssg75
g3677
sg68
(lp3688
S':'
asbag61
(g82
g63
NtRp3689
(dp3690
g66
(dp3691
sg75
g3677
sg68
(lp3692
g61
(g62
g63
NtRp3693
(dp3694
g66
(dp3695
g74
I3
ssg75
g3689
sg68
(lp3696
S'/'
asbasbasbag61
(g77
g63
NtRp3697
(dp3698
g66
(dp3699
sg75
g3592
sg68
(lp3700
g61
(g82
g63
NtRp3701
(dp3702
g66
(dp3703
g86
g87
ssg75
g3697
sg68
(lp3704
g380
asbag61
(g82
g63
NtRp3705
(dp3706
g66
(dp3707
g93
g94
ssg75
g3697
sg68
(lp3708
S':'
asbag61
(g82
g63
NtRp3709
(dp3710
g66
(dp3711
sg75
g3697
sg68
(lp3712
g61
(g62
g63
NtRp3713
(dp3714
g66
(dp3715
g74
I3
ssg75
g3709
sg68
(lp3716
S''
asbasbasbag61
(g77
g63
NtRp3717
(dp3718
g66
(dp3719
sg75
g3592
sg68
(lp3720
g61
(g82
g63
NtRp3721
(dp3722
g66
(dp3723
g86
g87
ssg75
g3717
sg68
(lp3724
g401
asbag61
(g82
g63
NtRp3725
(dp3726
g66
(dp3727
g93
g94
ssg75
g3717
sg68
(lp3728
S':'
asbag61
(g82
g63
NtRp3729
(dp3730
g66
(dp3731
sg75
g3717
sg68
(lp3732
g61
(g62
g63
NtRp3733
(dp3734
g66
(dp3735
g74
I3
ssg75
g3729
sg68
(lp3736
S''
asbasbasbasbasbasbasbasbasbasbasbag61
(g77
g63
NtRp3737
(dp3738
g66
(dp3739
sg75
g3522
sg68
(lp3740
g61
(g82
g63
NtRp3741
(dp3742
g66
(dp3743
g86
g87
ssg75
g3737
sg68
(lp3744
S'delimiters'
p3745
asbag61
(g82
g63
NtRp3746
(dp3747
g66
(dp3748
g93
g94
ssg75
g3737
sg68
(lp3749
S':'
asbag61
(g82
g63
NtRp3750
(dp3751
g66
(dp3752
sg75
g3737
sg68
(lp3753
g61
(g62
g63
NtRp3754
(dp3755
g66
(dp3756
g74
I5
ssg75
g3750
sg68
(lp3757
g61
(g70
g63
NtRp3758
(dp3759
g66
(dp3760
g74
I4
ssg75
Nsg68
(lp3761
g61
(g77
g63
NtRp3762
(dp3763
g66
(dp3764
sg75
g3758
sg68
(lp3765
g61
(g82
g63
NtRp3766
(dp3767
g66
(dp3768
sg75
g3762
sg68
(lp3769
g61
(g62
g63
NtRp3770
(dp3771
g66
(dp3772
g74
I4
ssg75
g3766
sg68
(lp3773
S'{{'
p3774
asbasbasbag61
(g77
g63
NtRp3775
(dp3776
g66
(dp3777
sg75
g3758
sg68
(lp3778
g61
(g82
g63
NtRp3779
(dp3780
g66
(dp3781
sg75
g3775
sg68
(lp3782
g61
(g62
g63
NtRp3783
(dp3784
g66
(dp3785
g74
I4
ssg75
g3779
sg68
(lp3786
S'}}'
p3787
asbasbasbasbasbasbasbag61
(g77
g63
NtRp3788
(dp3789
g66
(dp3790
sg75
g3522
sg68
(lp3791
g61
(g82
g63
NtRp3792
(dp3793
g66
(dp3794
g86
g87
ssg75
g3788
sg68
(lp3795
S'files'
p3796
asbag61
(g82
g63
NtRp3797
(dp3798
g66
(dp3799
g93
g94
ssg75
g3788
sg68
(lp3800
S':'
asbag61
(g82
g63
NtRp3801
(dp3802
g66
(dp3803
sg75
g3788
sg68
(lp3804
g61
(g62
g63
NtRp3805
(dp3806
g66
(dp3807
g74
I5
ssg75
g3801
sg68
(lp3808
g61
(g70
g63
NtRp3809
(dp3810
g66
(dp3811
g74
I4
ssg75
Nsg68
(lp3812
sbasbasbasbag61
(g77
g63
NtRp3813
(dp3814
g66
(dp3815
sg75
g3522
sg68
(lp3816
g61
(g82
g63
NtRp3817
(dp3818
g66
(dp3819
g86
g87
ssg75
g3813
sg68
(lp3820
S'flash'
p3821
asbag61
(g82
g63
NtRp3822
(dp3823
g66
(dp3824
g93
g94
ssg75
g3813
sg68
(lp3825
S':'
asbag61
(g82
g63
NtRp3826
(dp3827
g66
(dp3828
sg75
g3813
sg68
(lp3829
g61
(g62
g63
NtRp3830
(dp3831
g66
(dp3832
g74
I5
ssg75
g3826
sg68
(lp3833
S''
asbasbasbag61
(g77
g63
NtRp3834
(dp3835
g66
(dp3836
sg75
g3522
sg68
(lp3837
g61
(g82
g63
NtRp3838
(dp3839
g66
(dp3840
g86
g87
ssg75
g3834
sg68
(lp3841
S'generic_patterns'
p3842
asbag61
(g82
g63
NtRp3843
(dp3844
g66
(dp3845
g93
g94
ssg75
g3834
sg68
(lp3846
S':'
asbag61
(g82
g63
NtRp3847
(dp3848
g66
(dp3849
sg75
g3834
sg68
(lp3850
g61
(g62
g63
NtRp3851
(dp3852
g66
(dp3853
g74
I5
ssg75
g3847
sg68
(lp3854
g61
(g70
g63
NtRp3855
(dp3856
g66
(dp3857
g74
I4
ssg75
Nsg68
(lp3858
g61
(g77
g63
NtRp3859
(dp3860
g66
(dp3861
sg75
g3855
sg68
(lp3862
g61
(g82
g63
NtRp3863
(dp3864
g66
(dp3865
sg75
g3859
sg68
(lp3866
g61
(g62
g63
NtRp3867
(dp3868
g66
(dp3869
g74
I4
ssg75
g3863
sg68
(lp3870
S'*'
asbasbasbasbasbasbasbag61
(g77
g63
NtRp3871
(dp3872
g66
(dp3873
sg75
g3522
sg68
(lp3874
g61
(g82
g63
NtRp3875
(dp3876
g66
(dp3877
g86
g87
ssg75
g3871
sg68
(lp3878
S'headers'
p3879
asbag61
(g82
g63
NtRp3880
(dp3881
g66
(dp3882
g93
g94
ssg75
g3871
sg68
(lp3883
S':'
asbag61
(g82
g63
NtRp3884
(dp3885
g66
(dp3886
sg75
g3871
sg68
(lp3887
g61
(g62
g63
NtRp3888
(dp3889
g66
(dp3890
g74
I5
ssg75
g3884
sg68
(lp3891
g61
(g70
g63
NtRp3892
(dp3893
g66
(dp3894
g74
I4
ssg75
Nsg68
(lp3895
g61
(g77
g63
NtRp3896
(dp3897
g66
(dp3898
sg75
g3892
sg68
(lp3899
g61
(g82
g63
NtRp3900
(dp3901
g66
(dp3902
g86
g87
ssg75
g3896
sg68
(lp3903
S'Cache-Control'
p3904
asbag61
(g82
g63
NtRp3905
(dp3906
g66
(dp3907
g93
g94
ssg75
g3896
sg68
(lp3908
S':'
asbag61
(g82
g63
NtRp3909
(dp3910
g66
(dp3911
sg75
g3896
sg68
(lp3912
g61
(g62
g63
NtRp3913
(dp3914
g66
(dp3915
g74
I4
ssg75
g3909
sg68
(lp3916
S'no-store, no-cache, must-revalidate, post-check=0, pre-check=0'
p3917
asbasbasbag61
(g77
g63
NtRp3918
(dp3919
g66
(dp3920
sg75
g3892
sg68
(lp3921
g61
(g82
g63
NtRp3922
(dp3923
g66
(dp3924
g86
g87
ssg75
g3918
sg68
(lp3925
S'Content-Type'
p3926
asbag61
(g82
g63
NtRp3927
(dp3928
g66
(dp3929
g93
g94
ssg75
g3918
sg68
(lp3930
S':'
asbag61
(g82
g63
NtRp3931
(dp3932
g66
(dp3933
sg75
g3918
sg68
(lp3934
g61
(g62
g63
NtRp3935
(dp3936
g66
(dp3937
g74
I4
ssg75
g3931
sg68
(lp3938
S'text/html; charset=utf-8'
p3939
asbasbasbag61
(g77
g63
NtRp3940
(dp3941
g66
(dp3942
sg75
g3892
sg68
(lp3943
g61
(g82
g63
NtRp3944
(dp3945
g66
(dp3946
g86
g87
ssg75
g3940
sg68
(lp3947
S'Expires'
p3948
asbag61
(g82
g63
NtRp3949
(dp3950
g66
(dp3951
g93
g94
ssg75
g3940
sg68
(lp3952
S':'
asbag61
(g82
g63
NtRp3953
(dp3954
g66
(dp3955
sg75
g3940
sg68
(lp3956
g61
(g62
g63
NtRp3957
(dp3958
g66
(dp3959
g74
I4
ssg75
g3953
sg68
(lp3960
S'Fri, 09 Mar 2012 03:13:21 GMT'
p3961
asbasbasbag61
(g77
g63
NtRp3962
(dp3963
g66
(dp3964
sg75
g3892
sg68
(lp3965
g61
(g82
g63
NtRp3966
(dp3967
g66
(dp3968
g86
g87
ssg75
g3962
sg68
(lp3969
S'Pragma'
p3970
asbag61
(g82
g63
NtRp3971
(dp3972
g66
(dp3973
g93
g94
ssg75
g3962
sg68
(lp3974
S':'
asbag61
(g82
g63
NtRp3975
(dp3976
g66
(dp3977
sg75
g3962
sg68
(lp3978
g61
(g62
g63
NtRp3979
(dp3980
g66
(dp3981
g74
I4
ssg75
g3975
sg68
(lp3982
S'no-cache'
p3983
asbasbasbag61
(g77
g63
NtRp3984
(dp3985
g66
(dp3986
sg75
g3892
sg68
(lp3987
g61
(g82
g63
NtRp3988
(dp3989
g66
(dp3990
g86
g87
ssg75
g3984
sg68
(lp3991
S'X-Powered-By'
p3992
asbag61
(g82
g63
NtRp3993
(dp3994
g66
(dp3995
g93
g94
ssg75
g3984
sg68
(lp3996
S':'
asbag61
(g82
g63
NtRp3997
(dp3998
g66
(dp3999
sg75
g3984
sg68
(lp4000
g61
(g62
g63
NtRp4001
(dp4002
g66
(dp4003
g74
I4
ssg75
g3997
sg68
(lp4004
S'web2py'
p4005
asbasbasbasbasbasbasbag61
(g77
g63
NtRp4006
(dp4007
g66
(dp4008
sg75
g3522
sg68
(lp4009
g61
(g82
g63
NtRp4010
(dp4011
g66
(dp4012
g86
g87
ssg75
g4006
sg68
(lp4013
S'menu'
p4014
asbag61
(g82
g63
NtRp4015
(dp4016
g66
(dp4017
g93
g94
ssg75
g4006
sg68
(lp4018
S':'
asbag61
(g82
g63
NtRp4019
(dp4020
g66
(dp4021
sg75
g4006
sg68
(lp4022
g61
(g62
g63
NtRp4023
(dp4024
g66
(dp4025
g74
I5
ssg75
g4019
sg68
(lp4026
g61
(g70
g63
NtRp4027
(dp4028
g66
(dp4029
g74
I4
ssg75
Nsg68
(lp4030
g61
(g77
g63
NtRp4031
(dp4032
g66
(dp4033
sg75
g4027
sg68
(lp4034
g61
(g82
g63
NtRp4035
(dp4036
g66
(dp4037
sg75
g4031
sg68
(lp4038
g61
(g62
g63
NtRp4039
(dp4040
g66
(dp4041
g74
I4
ssg75
g4035
sg68
(lp4042
g61
(g70
g63
NtRp4043
(dp4044
g66
(dp4045
g74
I3
ssg75
Nsg68
(lp4046
g61
(g77
g63
NtRp4047
(dp4048
g66
(dp4049
sg75
g4043
sg68
(lp4050
g61
(g82
g63
NtRp4051
(dp4052
g66
(dp4053
sg75
g4047
sg68
(lp4054
g61
(g62
g63
NtRp4055
(dp4056
g66
(dp4057
g74
I3
ssg75
g4051
sg68
(lp4058
cgluon.languages
lazyT_unpickle
p4059
(S's\x04\x00\x00\x00Home'
tRp4060
asbasbasbag61
(g77
g63
NtRp4061
(dp4062
g66
(dp4063
sg75
g4043
sg68
(lp4064
g61
(g82
g63
NtRp4065
(dp4066
g66
(dp4067
sg75
g4061
sg68
(lp4068
g61
(g62
g63
NtRp4069
(dp4070
g66
(dp4071
g74
I3
ssg75
g4065
sg68
(lp4072
g104
asbasbasbag61
(g77
g63
NtRp4073
(dp4074
g66
(dp4075
sg75
g4043
sg68
(lp4076
g61
(g82
g63
NtRp4077
(dp4078
g66
(dp4079
sg75
g4073
sg68
(lp4080
g61
(g62
g63
NtRp4081
(dp4082
g66
(dp4083
g74
I3
ssg75
g4077
sg68
(lp4084
S'/'
asbasbasbag61
(g77
g63
NtRp4085
(dp4086
g66
(dp4087
sg75
g4043
sg68
(lp4088
g61
(g82
g63
NtRp4089
(dp4090
g66
(dp4091
sg75
g4085
sg68
(lp4092
g61
(g62
g63
NtRp4093
(dp4094
g66
(dp4095
g74
I3
ssg75
g4089
sg68
(lp4096
g61
(g70
g63
NtRp4097
(dp4098
g66
(dp4099
g74
I2
ssg75
Nsg68
(lp4100
sbasbasbasbasbasbasbasbag61
(g77
g63
NtRp4101
(dp4102
g66
(dp4103
sg75
g4027
sg68
(lp4104
g61
(g82
g63
NtRp4105
(dp4106
g66
(dp4107
sg75
g4101
sg68
(lp4108
g61
(g62
g63
NtRp4109
(dp4110
g66
(dp4111
g74
I4
ssg75
g4105
sg68
(lp4112
g61
(g70
g63
NtRp4113
(dp4114
g66
(dp4115
g74
I3
ssg75
Nsg68
(lp4116
g61
(g77
g63
NtRp4117
(dp4118
g66
(dp4119
sg75
g4113
sg68
(lp4120
g61
(g82
g63
NtRp4121
(dp4122
g66
(dp4123
sg75
g4117
sg68
(lp4124
g61
(g62
g63
NtRp4125
(dp4126
g66
(dp4127
g74
I3
ssg75
g4121
sg68
(lp4128
g61
(cgluon.html
SPAN
p4129
g63
NtRp4130
(dp4131
g66
(dp4132
g86
S'color:yellow'
p4133
ssg75
Nsg68
(lp4134
g4005
asbasbasbasbag61
(g77
g63
NtRp4135
(dp4136
g66
(dp4137
sg75
g4113
sg68
(lp4138
g61
(g82
g63
NtRp4139
(dp4140
g66
(dp4141
sg75
g4135
sg68
(lp4142
g61
(g62
g63
NtRp4143
(dp4144
g66
(dp4145
g74
I3
ssg75
g4139
sg68
(lp4146
g104
asbasbasbag61
(g77
g63
NtRp4147
(dp4148
g66
(dp4149
sg75
g4113
sg68
(lp4150
g61
(g82
g63
NtRp4151
(dp4152
g66
(dp4153
sg75
g4147
sg68
(lp4154
g61
(g62
g63
NtRp4155
(dp4156
g66
(dp4157
g74
I3
ssg75
g4151
sg68
(lp4158
S'None'
p4159
asbasbasbag61
(g77
g63
NtRp4160
(dp4161
g66
(dp4162
sg75
g4113
sg68
(lp4163
g61
(g82
g63
NtRp4164
(dp4165
g66
(dp4166
sg75
g4160
sg68
(lp4167
g61
(g62
g63
NtRp4168
(dp4169
g66
(dp4170
g74
I3
ssg75
g4164
sg68
(lp4171
g61
(g70
g63
NtRp4172
(dp4173
g66
(dp4174
g74
I2
ssg75
Nsg68
(lp4175
g61
(g77
g63
NtRp4176
(dp4177
g66
(dp4178
sg75
g4172
sg68
(lp4179
g61
(g82
g63
NtRp4180
(dp4181
g66
(dp4182
sg75
g4176
sg68
(lp4183
g61
(g62
g63
NtRp4184
(dp4185
g66
(dp4186
g74
I2
ssg75
g4180
sg68
(lp4187
g61
(g70
g63
NtRp4188
(dp4189
g66
(dp4190
g74
I1
ssg75
Nsg68
(lp4191
g61
(g77
g63
NtRp4192
(dp4193
g66
(dp4194
sg75
g4188
sg68
(lp4195
g61
(g82
g63
NtRp4196
(dp4197
g66
(dp4198
sg75
g4192
sg68
(lp4199
g61
(g62
g63
NtRp4200
(dp4201
g66
(dp4202
g74
I1
ssg75
g4196
sg68
(lp4203
g4059
(S's\x08\x00\x00\x00My Sites'
tRp4204
asbasbasbag61
(g77
g63
NtRp4205
(dp4206
g66
(dp4207
sg75
g4188
sg68
(lp4208
g61
(g82
g63
NtRp4209
(dp4210
g66
(dp4211
sg75
g4205
sg68
(lp4212
g61
(g62
g63
NtRp4213
(dp4214
g66
(dp4215
g74
I1
ssg75
g4209
sg68
(lp4216
I00
asbasbasbag61
(g77
g63
NtRp4217
(dp4218
g66
(dp4219
sg75
g4188
sg68
(lp4220
g61
(g82
g63
NtRp4221
(dp4222
g66
(dp4223
sg75
g4217
sg68
(lp4224
g61
(g62
g63
NtRp4225
(dp4226
g66
(dp4227
g74
I1
ssg75
g4221
sg68
(lp4228
S'/admin/site'
p4229
asbasbasbasbasbasbasbag61
(g77
g63
NtRp4230
(dp4231
g66
(dp4232
sg75
g4172
sg68
(lp4233
g61
(g82
g63
NtRp4234
(dp4235
g66
(dp4236
sg75
g4230
sg68
(lp4237
g61
(g62
g63
NtRp4238
(dp4239
g66
(dp4240
g74
I2
ssg75
g4234
sg68
(lp4241
g61
(g70
g63
NtRp4242
(dp4243
g66
(dp4244
g74
I1
ssg75
Nsg68
(lp4245
g61
(g77
g63
NtRp4246
(dp4247
g66
(dp4248
sg75
g4242
sg68
(lp4249
g61
(g82
g63
NtRp4250
(dp4251
g66
(dp4252
sg75
g4246
sg68
(lp4253
g61
(g62
g63
NtRp4254
(dp4255
g66
(dp4256
g74
I1
ssg75
g4250
sg68
(lp4257
g4059
(S's\x08\x00\x00\x00This App'
tRp4258
asbasbasbag61
(g77
g63
NtRp4259
(dp4260
g66
(dp4261
sg75
g4242
sg68
(lp4262
g61
(g82
g63
NtRp4263
(dp4264
g66
(dp4265
sg75
g4259
sg68
(lp4266
g61
(g62
g63
NtRp4267
(dp4268
g66
(dp4269
g74
I1
ssg75
g4263
sg68
(lp4270
I00
asbasbasbag61
(g77
g63
NtRp4271
(dp4272
g66
(dp4273
sg75
g4242
sg68
(lp4274
g61
(g82
g63
NtRp4275
(dp4276
g66
(dp4277
sg75
g4271
sg68
(lp4278
g61
(g62
g63
NtRp4279
(dp4280
g66
(dp4281
g74
I1
ssg75
g4275
sg68
(lp4282
S'/admin/design/udi0312'
p4283
asbasbasbag61
(g77
g63
NtRp4284
(dp4285
g66
(dp4286
sg75
g4242
sg68
(lp4287
g61
(g82
g63
NtRp4288
(dp4289
g66
(dp4290
sg75
g4284
sg68
(lp4291
g61
(g62
g63
NtRp4292
(dp4293
g66
(dp4294
g74
I1
ssg75
g4288
sg68
(lp4295
(lp4296
(g4059
(S's\n\x00\x00\x00Controller'
tRp4297
I00
S'/admin/edit/udi0312/controllers/default.py'
tp4298
a(g4059
(S's\x04\x00\x00\x00View'
tRp4299
I00
S'/admin/edit/udi0312/views/default/index.html'
tp4300
a(g4059
(S's\x06\x00\x00\x00Layout'
tRp4301
I00
S'/admin/edit/udi0312/views/layout.html'
tp4302
a(g4059
(S's\n\x00\x00\x00Stylesheet'
tRp4303
I00
S'/admin/edit/udi0312/static/css/web2py.css'
tp4304
a(g4059
(S's\x08\x00\x00\x00DB Model'
tRp4305
I00
S'/admin/edit/udi0312/models/db.py'
tp4306
a(g4059
(S's\n\x00\x00\x00Menu Model'
tRp4307
I00
S'/admin/edit/udi0312/models/menu.py'
tp4308
a(g4059
(S's\x08\x00\x00\x00Database'
tRp4309
I00
S'/appadmin'
tp4310
a(g4059
(S's\x06\x00\x00\x00Errors'
tRp4311
I00
S'/admin/errors/udi0312'
tp4312
a(g4059
(S's\x05\x00\x00\x00About'
tRp4313
I00
S'/admin/about/udi0312'
tp4314
aasbasbasbasbasbasbasbag61
(g77
g63
NtRp4315
(dp4316
g66
(dp4317
sg75
g4172
sg68
(lp4318
g61
(g82
g63
NtRp4319
(dp4320
g66
(dp4321
sg75
g4315
sg68
(lp4322
g61
(g62
g63
NtRp4323
(dp4324
g66
(dp4325
g74
I2
ssg75
g4319
sg68
(lp4326
g61
(g70
g63
NtRp4327
(dp4328
g66
(dp4329
g74
I1
ssg75
Nsg68
(lp4330
g61
(g77
g63
NtRp4331
(dp4332
g66
(dp4333
sg75
g4327
sg68
(lp4334
g61
(g82
g63
NtRp4335
(dp4336
g66
(dp4337
sg75
g4331
sg68
(lp4338
g61
(g62
g63
NtRp4339
(dp4340
g66
(dp4341
g74
I1
ssg75
g4335
sg68
(lp4342
S'web2py.com'
p4343
asbasbasbag61
(g77
g63
NtRp4344
(dp4345
g66
(dp4346
sg75
g4327
sg68
(lp4347
g61
(g82
g63
NtRp4348
(dp4349
g66
(dp4350
sg75
g4344
sg68
(lp4351
g61
(g62
g63
NtRp4352
(dp4353
g66
(dp4354
g74
I1
ssg75
g4348
sg68
(lp4355
I00
asbasbasbag61
(g77
g63
NtRp4356
(dp4357
g66
(dp4358
sg75
g4327
sg68
(lp4359
g61
(g82
g63
NtRp4360
(dp4361
g66
(dp4362
sg75
g4356
sg68
(lp4363
g61
(g62
g63
NtRp4364
(dp4365
g66
(dp4366
g74
I1
ssg75
g4360
sg68
(lp4367
S'http://www.web2py.com'
p4368
asbasbasbag61
(g77
g63
NtRp4369
(dp4370
g66
(dp4371
sg75
g4327
sg68
(lp4372
g61
(g82
g63
NtRp4373
(dp4374
g66
(dp4375
sg75
g4369
sg68
(lp4376
g61
(g62
g63
NtRp4377
(dp4378
g66
(dp4379
g74
I1
ssg75
g4373
sg68
(lp4380
(lp4381
(g4059
(S's\x08\x00\x00\x00Download'
tRp4382
I00
S'http://www.web2py.com/examples/default/download'
p4383
tp4384
a(g4059
(S's\x07\x00\x00\x00Support'
tRp4385
I00
S'http://www.web2py.com/examples/default/support'
p4386
tp4387
a(g4059
(S's\x04\x00\x00\x00Demo'
tRp4388
I00
S'http://web2py.com/demo_admin'
p4389
tp4390
a(g4059
(S's\x0e\x00\x00\x00Quick Examples'
tRp4391
I00
S'http://web2py.com/examples/default/examples'
p4392
tp4393
a(g4059
(S's\x03\x00\x00\x00FAQ'
tRp4394
I00
S'http://web2py.com/AlterEgo'
p4395
tp4396
a(g4059
(S's\x06\x00\x00\x00Videos'
tRp4397
I00
S'http://www.web2py.com/examples/default/videos/'
p4398
tp4399
a(g4059
(S's\x11\x00\x00\x00Free Applications'
tRp4400
I00
S'http://web2py.com/appliances'
p4401
tp4402
a(g4059
(S's\x07\x00\x00\x00Plugins'
tRp4403
I00
S'http://web2py.com/plugins'
p4404
tp4405
a(g4059
(S's\x07\x00\x00\x00Layouts'
tRp4406
I00
S'http://web2py.com/layouts'
p4407
tp4408
a(g4059
(S's\x07\x00\x00\x00Recipes'
tRp4409
I00
S'http://web2pyslices.com/'
p4410
tp4411
a(g4059
(S's\x08\x00\x00\x00Semantic'
tRp4412
I00
S'http://web2py.com/semantic'
p4413
tp4414
aasbasbasbasbasbasbasbag61
(g77
g63
NtRp4415
(dp4416
g66
(dp4417
sg75
g4172
sg68
(lp4418
g61
(g82
g63
NtRp4419
(dp4420
g66
(dp4421
sg75
g4415
sg68
(lp4422
g61
(g62
g63
NtRp4423
(dp4424
g66
(dp4425
g74
I2
ssg75
g4419
sg68
(lp4426
g61
(g70
g63
NtRp4427
(dp4428
g66
(dp4429
g74
I1
ssg75
Nsg68
(lp4430
g61
(g77
g63
NtRp4431
(dp4432
g66
(dp4433
sg75
g4427
sg68
(lp4434
g61
(g82
g63
NtRp4435
(dp4436
g66
(dp4437
sg75
g4431
sg68
(lp4438
g61
(g62
g63
NtRp4439
(dp4440
g66
(dp4441
g74
I1
ssg75
g4435
sg68
(lp4442
g4059
(S's\r\x00\x00\x00Documentation'
tRp4443
asbasbasbag61
(g77
g63
NtRp4444
(dp4445
g66
(dp4446
sg75
g4427
sg68
(lp4447
g61
(g82
g63
NtRp4448
(dp4449
g66
(dp4450
sg75
g4444
sg68
(lp4451
g61
(g62
g63
NtRp4452
(dp4453
g66
(dp4454
g74
I1
ssg75
g4448
sg68
(lp4455
I00
asbasbasbag61
(g77
g63
NtRp4456
(dp4457
g66
(dp4458
sg75
g4427
sg68
(lp4459
g61
(g82
g63
NtRp4460
(dp4461
g66
(dp4462
sg75
g4456
sg68
(lp4463
g61
(g62
g63
NtRp4464
(dp4465
g66
(dp4466
g74
I1
ssg75
g4460
sg68
(lp4467
S'http://www.web2py.com/book'
p4468
asbasbasbag61
(g77
g63
NtRp4469
(dp4470
g66
(dp4471
sg75
g4427
sg68
(lp4472
g61
(g82
g63
NtRp4473
(dp4474
g66
(dp4475
sg75
g4469
sg68
(lp4476
g61
(g62
g63
NtRp4477
(dp4478
g66
(dp4479
g74
I1
ssg75
g4473
sg68
(lp4480
(lp4481
(g4059
(S's\x07\x00\x00\x00Preface'
tRp4482
I00
S'http://www.web2py.com/book/default/chapter/00'
p4483
tp4484
a(g4059
(S's\x0c\x00\x00\x00Introduction'
tRp4485
I00
S'http://www.web2py.com/book/default/chapter/01'
p4486
tp4487
a(g4059
(S's\x06\x00\x00\x00Python'
tRp4488
I00
S'http://www.web2py.com/book/default/chapter/02'
p4489
tp4490
a(g4059
(S's\x08\x00\x00\x00Overview'
tRp4491
I00
S'http://www.web2py.com/book/default/chapter/03'
p4492
tp4493
a(g4059
(S's\x08\x00\x00\x00The Core'
tRp4494
I00
S'http://www.web2py.com/book/default/chapter/04'
p4495
tp4496
a(g4059
(S's\t\x00\x00\x00The Views'
tRp4497
I00
S'http://www.web2py.com/book/default/chapter/05'
p4498
tp4499
a(g4059
(S's\x08\x00\x00\x00Database'
tRp4500
I00
S'http://www.web2py.com/book/default/chapter/06'
p4501
tp4502
a(g4059
(S's\x14\x00\x00\x00Forms and Validators'
tRp4503
I00
S'http://www.web2py.com/book/default/chapter/07'
p4504
tp4505
a(g4059
(S's\r\x00\x00\x00Email and SMS'
tRp4506
I00
S'http://www.web2py.com/book/default/chapter/08'
p4507
tp4508
a(g4059
(S's\x0e\x00\x00\x00Access Control'
tRp4509
I00
S'http://www.web2py.com/book/default/chapter/09'
p4510
tp4511
a(g4059
(S's\x08\x00\x00\x00Services'
tRp4512
I00
S'http://www.web2py.com/book/default/chapter/10'
p4513
tp4514
a(g4059
(S's\x0c\x00\x00\x00Ajax Recipes'
tRp4515
I00
S'http://www.web2py.com/book/default/chapter/11'
p4516
tp4517
a(g4059
(S's\x16\x00\x00\x00Components and Plugins'
tRp4518
I00
S'http://www.web2py.com/book/default/chapter/12'
p4519
tp4520
a(g4059
(S's\x12\x00\x00\x00Deployment Recipes'
tRp4521
I00
S'http://www.web2py.com/book/default/chapter/13'
p4522
tp4523
a(g4059
(S's\r\x00\x00\x00Other Recipes'
tRp4524
I00
S'http://www.web2py.com/book/default/chapter/14'
p4525
tp4526
a(g4059
(S's\r\x00\x00\x00Buy this book'
tRp4527
I00
S'http://stores.lulu.com/web2py'
p4528
tp4529
aasbasbasbasbasbasbasbag61
(g77
g63
NtRp4530
(dp4531
g66
(dp4532
sg75
g4172
sg68
(lp4533
g61
(g82
g63
NtRp4534
(dp4535
g66
(dp4536
sg75
g4530
sg68
(lp4537
g61
(g62
g63
NtRp4538
(dp4539
g66
(dp4540
g74
I2
ssg75
g4534
sg68
(lp4541
g61
(g70
g63
NtRp4542
(dp4543
g66
(dp4544
g74
I1
ssg75
Nsg68
(lp4545
g61
(g77
g63
NtRp4546
(dp4547
g66
(dp4548
sg75
g4542
sg68
(lp4549
g61
(g82
g63
NtRp4550
(dp4551
g66
(dp4552
sg75
g4546
sg68
(lp4553
g61
(g62
g63
NtRp4554
(dp4555
g66
(dp4556
g74
I1
ssg75
g4550
sg68
(lp4557
g4059
(S's\t\x00\x00\x00Community'
tRp4558
asbasbasbag61
(g77
g63
NtRp4559
(dp4560
g66
(dp4561
sg75
g4542
sg68
(lp4562
g61
(g82
g63
NtRp4563
(dp4564
g66
(dp4565
sg75
g4559
sg68
(lp4566
g61
(g62
g63
NtRp4567
(dp4568
g66
(dp4569
g74
I1
ssg75
g4563
sg68
(lp4570
I00
asbasbasbag61
(g77
g63
NtRp4571
(dp4572
g66
(dp4573
sg75
g4542
sg68
(lp4574
g61
(g82
g63
NtRp4575
(dp4576
g66
(dp4577
sg75
g4571
sg68
(lp4578
g61
(g62
g63
NtRp4579
(dp4580
g66
(dp4581
g74
I1
ssg75
g4575
sg68
(lp4582
Nasbasbasbag61
(g77
g63
NtRp4583
(dp4584
g66
(dp4585
sg75
g4542
sg68
(lp4586
g61
(g82
g63
NtRp4587
(dp4588
g66
(dp4589
sg75
g4583
sg68
(lp4590
g61
(g62
g63
NtRp4591
(dp4592
g66
(dp4593
g74
I1
ssg75
g4587
sg68
(lp4594
(lp4595
(g4059
(S's\x06\x00\x00\x00Groups'
tRp4596
I00
S'http://www.web2py.com/examples/default/usergroups'
p4597
tp4598
a(g4059
(S's\x07\x00\x00\x00Twitter'
tRp4599
I00
S'http://twitter.com/web2py'
p4600
tp4601
a(g4059
(S's\t\x00\x00\x00Live Chat'
tRp4602
I00
S'http://webchat.freenode.net/?channels=web2py'
p4603
tp4604
aasbasbasbasbasbasbasbag61
(g77
g63
NtRp4605
(dp4606
g66
(dp4607
sg75
g4172
sg68
(lp4608
g61
(g82
g63
NtRp4609
(dp4610
g66
(dp4611
sg75
g4605
sg68
(lp4612
g61
(g62
g63
NtRp4613
(dp4614
g66
(dp4615
g74
I2
ssg75
g4609
sg68
(lp4616
g61
(g70
g63
NtRp4617
(dp4618
g66
(dp4619
g74
I1
ssg75
Nsg68
(lp4620
g61
(g77
g63
NtRp4621
(dp4622
g66
(dp4623
sg75
g4617
sg68
(lp4624
g61
(g82
g63
NtRp4625
(dp4626
g66
(dp4627
sg75
g4621
sg68
(lp4628
g61
(g62
g63
NtRp4629
(dp4630
g66
(dp4631
g74
I1
ssg75
g4625
sg68
(lp4632
g4059
(S's\x07\x00\x00\x00Plugins'
tRp4633
asbasbasbag61
(g77
g63
NtRp4634
(dp4635
g66
(dp4636
sg75
g4617
sg68
(lp4637
g61
(g82
g63
NtRp4638
(dp4639
g66
(dp4640
sg75
g4634
sg68
(lp4641
g61
(g62
g63
NtRp4642
(dp4643
g66
(dp4644
g74
I1
ssg75
g4638
sg68
(lp4645
I00
asbasbasbag61
(g77
g63
NtRp4646
(dp4647
g66
(dp4648
sg75
g4617
sg68
(lp4649
g61
(g82
g63
NtRp4650
(dp4651
g66
(dp4652
sg75
g4646
sg68
(lp4653
g61
(g62
g63
NtRp4654
(dp4655
g66
(dp4656
g74
I1
ssg75
g4650
sg68
(lp4657
Nasbasbasbag61
(g77
g63
NtRp4658
(dp4659
g66
(dp4660
sg75
g4617
sg68
(lp4661
g61
(g82
g63
NtRp4662
(dp4663
g66
(dp4664
sg75
g4658
sg68
(lp4665
g61
(g62
g63
NtRp4666
(dp4667
g66
(dp4668
g74
I1
ssg75
g4662
sg68
(lp4669
(lp4670
(S'plugin_wiki'
p4671
I00
S'http://web2py.com/examples/default/download'
p4672
tp4673
a(g4059
(S's\r\x00\x00\x00Other Plugins'
tRp4674
I00
g4404
tp4675
a(g4059
(S's\x0e\x00\x00\x00Layout Plugins'
tRp4676
I00
g4407
tp4677
aasbasbasbasbasbasbasbasbasbasbasbasbasbasbasbasbasbasbasbag61
(g77
g63
NtRp4678
(dp4679
g66
(dp4680
sg75
g3522
sg68
(lp4681
g61
(g82
g63
NtRp4682
(dp4683
g66
(dp4684
g86
g87
ssg75
g4678
sg68
(lp4685
S'meta'
p4686
asbag61
(g82
g63
NtRp4687
(dp4688
g66
(dp4689
g93
g94
ssg75
g4678
sg68
(lp4690
S':'
asbag61
(g82
g63
NtRp4691
(dp4692
g66
(dp4693
sg75
g4678
sg68
(lp4694
g61
(g62
g63
NtRp4695
(dp4696
g66
(dp4697
g74
I5
ssg75
g4691
sg68
(lp4698
g61
(g70
g63
NtRp4699
(dp4700
g66
(dp4701
g74
I4
ssg75
Nsg68
(lp4702
g61
(g77
g63
NtRp4703
(dp4704
g66
(dp4705
sg75
g4699
sg68
(lp4706
g61
(g82
g63
NtRp4707
(dp4708
g66
(dp4709
g86
g87
ssg75
g4703
sg68
(lp4710
S'author'
p4711
asbag61
(g82
g63
NtRp4712
(dp4713
g66
(dp4714
g93
g94
ssg75
g4703
sg68
(lp4715
S':'
asbag61
(g82
g63
NtRp4716
(dp4717
g66
(dp4718
sg75
g4703
sg68
(lp4719
g61
(g62
g63
NtRp4720
(dp4721
g66
(dp4722
g74
I4
ssg75
g4716
sg68
(lp4723
S'Your Name <you@example.com>'
p4724
asbasbasbag61
(g77
g63
NtRp4725
(dp4726
g66
(dp4727
sg75
g4699
sg68
(lp4728
g61
(g82
g63
NtRp4729
(dp4730
g66
(dp4731
g86
g87
ssg75
g4725
sg68
(lp4732
S'copyright'
p4733
asbag61
(g82
g63
NtRp4734
(dp4735
g66
(dp4736
g93
g94
ssg75
g4725
sg68
(lp4737
S':'
asbag61
(g82
g63
NtRp4738
(dp4739
g66
(dp4740
sg75
g4725
sg68
(lp4741
g61
(g62
g63
NtRp4742
(dp4743
g66
(dp4744
g74
I4
ssg75
g4738
sg68
(lp4745
S'Copyright 2011'
p4746
asbasbasbag61
(g77
g63
NtRp4747
(dp4748
g66
(dp4749
sg75
g4699
sg68
(lp4750
g61
(g82
g63
NtRp4751
(dp4752
g66
(dp4753
g86
g87
ssg75
g4747
sg68
(lp4754
S'description'
p4755
asbag61
(g82
g63
NtRp4756
(dp4757
g66
(dp4758
g93
g94
ssg75
g4747
sg68
(lp4759
S':'
asbag61
(g82
g63
NtRp4760
(dp4761
g66
(dp4762
sg75
g4747
sg68
(lp4763
g61
(g62
g63
NtRp4764
(dp4765
g66
(dp4766
g74
I4
ssg75
g4760
sg68
(lp4767
S'a cool new app'
p4768
asbasbasbag61
(g77
g63
NtRp4769
(dp4770
g66
(dp4771
sg75
g4699
sg68
(lp4772
g61
(g82
g63
NtRp4773
(dp4774
g66
(dp4775
g86
g87
ssg75
g4769
sg68
(lp4776
S'generator'
p4777
asbag61
(g82
g63
NtRp4778
(dp4779
g66
(dp4780
g93
g94
ssg75
g4769
sg68
(lp4781
S':'
asbag61
(g82
g63
NtRp4782
(dp4783
g66
(dp4784
sg75
g4769
sg68
(lp4785
g61
(g62
g63
NtRp4786
(dp4787
g66
(dp4788
g74
I4
ssg75
g4782
sg68
(lp4789
S'Web2py Web Framework'
p4790
asbasbasbag61
(g77
g63
NtRp4791
(dp4792
g66
(dp4793
sg75
g4699
sg68
(lp4794
g61
(g82
g63
NtRp4795
(dp4796
g66
(dp4797
g86
g87
ssg75
g4791
sg68
(lp4798
S'keywords'
p4799
asbag61
(g82
g63
NtRp4800
(dp4801
g66
(dp4802
g93
g94
ssg75
g4791
sg68
(lp4803
S':'
asbag61
(g82
g63
NtRp4804
(dp4805
g66
(dp4806
sg75
g4791
sg68
(lp4807
g61
(g62
g63
NtRp4808
(dp4809
g66
(dp4810
g74
I4
ssg75
g4804
sg68
(lp4811
S'web2py, python, framework'
p4812
asbasbasbasbasbasbasbag61
(g77
g63
NtRp4813
(dp4814
g66
(dp4815
sg75
g3522
sg68
(lp4816
g61
(g82
g63
NtRp4817
(dp4818
g66
(dp4819
g86
g87
ssg75
g4813
sg68
(lp4820
S'postprocessing'
p4821
asbag61
(g82
g63
NtRp4822
(dp4823
g66
(dp4824
g93
g94
ssg75
g4813
sg68
(lp4825
S':'
asbag61
(g82
g63
NtRp4826
(dp4827
g66
(dp4828
sg75
g4813
sg68
(lp4829
g61
(g62
g63
NtRp4830
(dp4831
g66
(dp4832
g74
I5
ssg75
g4826
sg68
(lp4833
g61
(g70
g63
NtRp4834
(dp4835
g66
(dp4836
g74
I4
ssg75
Nsg68
(lp4837
sbasbasbasbag61
(g77
g63
NtRp4838
(dp4839
g66
(dp4840
sg75
g3522
sg68
(lp4841
g61
(g82
g63
NtRp4842
(dp4843
g66
(dp4844
g86
g87
ssg75
g4838
sg68
(lp4845
S'session_file'
p4846
asbag61
(g82
g63
NtRp4847
(dp4848
g66
(dp4849
g93
g94
ssg75
g4838
sg68
(lp4850
S':'
asbag61
(g82
g63
NtRp4851
(dp4852
g66
(dp4853
sg75
g4838
sg68
(lp4854
g61
(g62
g63
NtRp4855
(dp4856
g66
(dp4857
g74
I5
ssg75
g4851
sg68
(lp4858
S"<open file '/Users/udimilo/Documents/web2py/applications/udi0312/sessions/127.0.0.1-fcd6a577-d448-4882-b7bc-f353da84ba3b', mode 'rb+' at 0xa35d188>"
p4859
asbasbasbag61
(g77
g63
NtRp4860
(dp4861
g66
(dp4862
sg75
g3522
sg68
(lp4863
g61
(g82
g63
NtRp4864
(dp4865
g66
(dp4866
g86
g87
ssg75
g4860
sg68
(lp4867
S'session_filename'
p4868
asbag61
(g82
g63
NtRp4869
(dp4870
g66
(dp4871
g93
g94
ssg75
g4860
sg68
(lp4872
S':'
asbag61
(g82
g63
NtRp4873
(dp4874
g66
(dp4875
sg75
g4860
sg68
(lp4876
g61
(g62
g63
NtRp4877
(dp4878
g66
(dp4879
g74
I5
ssg75
g4873
sg68
(lp4880
S'/Users/udimilo/Documents/web2py/applications/udi0312/sessions/127.0.0.1-fcd6a577-d448-4882-b7bc-f353da84ba3b'
p4881
asbasbasbag61
(g77
g63
NtRp4882
(dp4883
g66
(dp4884
sg75
g3522
sg68
(lp4885
g61
(g82
g63
NtRp4886
(dp4887
g66
(dp4888
g86
g87
ssg75
g4882
sg68
(lp4889
S'session_id'
p4890
asbag61
(g82
g63
NtRp4891
(dp4892
g66
(dp4893
g93
g94
ssg75
g4882
sg68
(lp4894
S':'
asbag61
(g82
g63
NtRp4895
(dp4896
g66
(dp4897
sg75
g4882
sg68
(lp4898
g61
(g62
g63
NtRp4899
(dp4900
g66
(dp4901
g74
I5
ssg75
g4895
sg68
(lp4902
S'127.0.0.1-fcd6a577-d448-4882-b7bc-f353da84ba3b'
p4903
asbasbasbag61
(g77
g63
NtRp4904
(dp4905
g66
(dp4906
sg75
g3522
sg68
(lp4907
g61
(g82
g63
NtRp4908
(dp4909
g66
(dp4910
g86
g87
ssg75
g4904
sg68
(lp4911
S'session_id_name'
p4912
asbag61
(g82
g63
NtRp4913
(dp4914
g66
(dp4915
g93
g94
ssg75
g4904
sg68
(lp4916
S':'
asbag61
(g82
g63
NtRp4917
(dp4918
g66
(dp4919
sg75
g4904
sg68
(lp4920
g61
(g62
g63
NtRp4921
(dp4922
g66
(dp4923
g74
I5
ssg75
g4917
sg68
(lp4924
g3579
asbasbasbag61
(g77
g63
NtRp4925
(dp4926
g66
(dp4927
sg75
g3522
sg68
(lp4928
g61
(g82
g63
NtRp4929
(dp4930
g66
(dp4931
g86
g87
ssg75
g4925
sg68
(lp4932
S'session_locked'
p4933
asbag61
(g82
g63
NtRp4934
(dp4935
g66
(dp4936
g93
g94
ssg75
g4925
sg68
(lp4937
S':'
asbag61
(g82
g63
NtRp4938
(dp4939
g66
(dp4940
sg75
g4925
sg68
(lp4941
g61
(g62
g63
NtRp4942
(dp4943
g66
(dp4944
g74
I5
ssg75
g4938
sg68
(lp4945
g1685
asbasbasbag61
(g77
g63
NtRp4946
(dp4947
g66
(dp4948
sg75
g3522
sg68
(lp4949
g61
(g82
g63
NtRp4950
(dp4951
g66
(dp4952
g86
g87
ssg75
g4946
sg68
(lp4953
S'session_new'
p4954
asbag61
(g82
g63
NtRp4955
(dp4956
g66
(dp4957
g93
g94
ssg75
g4946
sg68
(lp4958
S':'
asbag61
(g82
g63
NtRp4959
(dp4960
g66
(dp4961
sg75
g4946
sg68
(lp4962
g61
(g62
g63
NtRp4963
(dp4964
g66
(dp4965
g74
I5
ssg75
g4959
sg68
(lp4966
g104
asbasbasbag61
(g77
g63
NtRp4967
(dp4968
g66
(dp4969
sg75
g3522
sg68
(lp4970
g61
(g82
g63
NtRp4971
(dp4972
g66
(dp4973
g86
g87
ssg75
g4967
sg68
(lp4974
S'status'
p4975
asbag61
(g82
g63
NtRp4976
(dp4977
g66
(dp4978
g93
g94
ssg75
g4967
sg68
(lp4979
S':'
asbag61
(g82
g63
NtRp4980
(dp4981
g66
(dp4982
sg75
g4967
sg68
(lp4983
g61
(g62
g63
NtRp4984
(dp4985
g66
(dp4986
g74
I5
ssg75
g4980
sg68
(lp4987
S'200'
p4988
asbasbasbag61
(g77
g63
NtRp4989
(dp4990
g66
(dp4991
sg75
g3522
sg68
(lp4992
g61
(g82
g63
NtRp4993
(dp4994
g66
(dp4995
g86
g87
ssg75
g4989
sg68
(lp4996
S'subtitle'
p4997
asbag61
(g82
g63
NtRp4998
(dp4999
g66
(dp5000
g93
g94
ssg75
g4989
sg68
(lp5001
S':'
asbag61
(g82
g63
NtRp5002
(dp5003
g66
(dp5004
sg75
g4989
sg68
(lp5005
g61
(g62
g63
NtRp5006
(dp5007
g66
(dp5008
g74
I5
ssg75
g5002
sg68
(lp5009
g4059
(S's\r\x00\x00\x00customize me!'
tRp5010
asbasbasbag61
(g77
g63
NtRp5011
(dp5012
g66
(dp5013
sg75
g3522
sg68
(lp5014
g61
(g82
g63
NtRp5015
(dp5016
g66
(dp5017
g86
g87
ssg75
g5011
sg68
(lp5018
S'title'
p5019
asbag61
(g82
g63
NtRp5020
(dp5021
g66
(dp5022
g93
g94
ssg75
g5011
sg68
(lp5023
S':'
asbag61
(g82
g63
NtRp5024
(dp5025
g66
(dp5026
sg75
g5011
sg68
(lp5027
g61
(g62
g63
NtRp5028
(dp5029
g66
(dp5030
g74
I5
ssg75
g5024
sg68
(lp5031
S'Udi0312'
p5032
asbasbasbag61
(g77
g63
NtRp5033
(dp5034
g66
(dp5035
sg75
g3522
sg68
(lp5036
g61
(g82
g63
NtRp5037
(dp5038
g66
(dp5039
g86
g87
ssg75
g5033
sg68
(lp5040
g2348
asbag61
(g82
g63
NtRp5041
(dp5042
g66
(dp5043
g93
g94
ssg75
g5033
sg68
(lp5044
S':'
asbag61
(g82
g63
NtRp5045
(dp5046
g66
(dp5047
sg75
g5033
sg68
(lp5048
g61
(g62
g63
NtRp5049
(dp5050
g66
(dp5051
g74
I5
ssg75
g5045
sg68
(lp5052
g2361
asbasbasbag61
(g77
g63
NtRp5053
(dp5054
g66
(dp5055
sg75
g3522
sg68
(lp5056
g61
(g82
g63
NtRp5057
(dp5058
g66
(dp5059
g86
g87
ssg75
g5053
sg68
(lp5060
S'view'
p5061
asbag61
(g82
g63
NtRp5062
(dp5063
g66
(dp5064
g93
g94
ssg75
g5053
sg68
(lp5065
S':'
asbag61
(g82
g63
NtRp5066
(dp5067
g66
(dp5068
sg75
g5053
sg68
(lp5069
g61
(g62
g63
NtRp5070
(dp5071
g66
(dp5072
g74
I5
ssg75
g5066
sg68
(lp5073
S'default/index.html'
p5074
asbasbasbasbasbsS'locals'
p5075
(dp5076
g4
S"'/Users/udimilo/Documents/web2py/applications/udi0312/views/default/index.html'"
p5077
sg6
S'\'response.write(\\\'<html lan="en">\\\\n<head>\\\\n    <ti...js"></script>\\\\n</body>\\\\n</html>\\\\n\\\', escape=False)\''
p5078
sssS'traceback'
p5079
S'Traceback (most recent call last):\n  File "/users/udimilo/Documents/web2py/gluon/restricted.py", line 204, in restricted\n    ccode = compile2(code,layer)\n  File "/users/udimilo/Documents/web2py/gluon/restricted.py", line 189, in compile2\n    return compile(code.rstrip().replace(\'\\r\\n\',\'\\n\')+\'\\n\', layer, \'exec\')\n  File "/Users/udimilo/Documents/web2py/applications/udi0312/views/default/index.html", line 22\n    if auth.user is no None\n                          ^\nSyntaxError: invalid syntax\n'
p5080
s.