(dp1
S'output'
p2
S"<type 'exceptions.NameError'> global name 're' is not defined"
p3
sS'layer'
p4
S'/Users/udimilo/Documents/web2py/applications/udi0312/controllers/default.py'
p5
sS'code'
p6
S'# -*- coding: utf-8 -*-\n# this file is released under public domain and you can use without limitations\n\n#########################################################################\n## This is a samples controller\n## - index is the default action of any application\n## - user is required for authentication and authorization\n## - download is for downloading files uploaded in the db (does streaming)\n## - call exposes all registered services (none by default)\n#########################################################################\nfrom readability import Readability\nimport feedparser\nimport urlparse\n\ndef index():\n    articles = db().select(db.article.ALL)\n    categories = db().select(db.category.ALL, orderby=db.category.name)\n    boards = db(db.board.user_id==auth.user.id).select() if auth.user else []\n    return dict(items=articles, categories=categories, boards=boards)\n\ndef add_board():\n    name = request.vars.boardName\n    if re.match(\'(^[\\w\\s.-]+$)\', name):\n        return name\n        category = db(db.category.name==request.vars.category).select().first()\n        board = db.board.insert(user_id=auth.user.id, category_id=category.id, name=request.vars.boardName)\n        return board.id\n    return \'please use only alpha numerican characters\'\n    \ndef add_article():\n    board = db(db.board.name==request.vars.board).select().first()\n    if board is None:\n        return \'You must choose a board first\'\n        \n    url = request.vars.url\n    article = db(db.article.url == url).select().first()\n    if article is None:\n        r = Readability()\n        json = r.content(url)\n        article = db.article.insert(\n            height=300,\n            url=json[\'url\'],\n            readability_url=json[\'short_url\'],\n            title=json[\'title\'],\n            content=json[\'content\'],\n            domain=json[\'domain\'],\n            author=json[\'author\'],\n            excerpt=json[\'excerpt\'],\n            word_count=json[\'word_count\'],\n            total_pages=json[\'total_pages\'],\n            date_published=json[\'date_published\'],\n            next_page_id=json[\'next_page_id\'],\n            rendered_pages=json[\'rendered_pages\'],            \n            )\n    \n    \n    pin = db((db.pin.board_id == board.id) & (db.pin.article_id == article.id)).select().first()\n    if pin is None:\n        pin = db.pin.insert(board_id=board.id, article_id=article.id)\n    \n    return pin.id\n    \ndef follow_user():\n    follower = auth.user\n    followee = db.auth_user(request.vars.followee)\n    if followee is None:\n        return \'no followee\'\n        \n    rel = db((db.user_user.follower_id == follower.id) & (db.user_user.followee_id == followee.id)).select().first()\n\n    if rel is None:\n        rel = db.user_user.insert(follower_id = follower.id, followee_id = followee.id)\n        return \'added\' #http code\n        \n    return rel #http code\n\ndef unfollow_user():\n    follower = auth.user\n    followee = db.auth_user(request.vars.followee)\n    if followee is None:\n        return \'no followee\'\n        \n    rel = db((db.user_user.follower_id == follower.id) & (db.user_user.followee_id == followee.id)).select().first()\n    if rel is None:\n        return \'no rel\'\n    \n    db.user_user.remove(id == rel.id)\n    return \'deleted\'\n\ndef test():\n    url = request.vars.url\n    feed = feedparser.parse(url)\n    c = 0\n    for item in feed[\'entries\']:\n        url = item.get(\'feedburner_origlink\')\n        if url is None:\n            url = item.get(\'link\')\n        \n        domain = urlparse.urlsplit(url).hostname\n        \n        date = item.get(\'updated\')\n        if date is None:\n            date=item.get(\'published\'),\n            \n        article = db.article.insert(\n            height=300,\n            author=item.get(\'author\'),\n            content=item.content[0].value.strip(),\n            url=url,\n            domain=domain,\n            date_published=date,\n            excerpt=item.get(\'summary\'),\n            title=item.get(\'title\'),\n            )\n    return feed\n                \ndef user():\n    """\n    exposes:\n    http://..../[app]/default/user/login\n    http://..../[app]/default/user/logout\n    http://..../[app]/default/user/register\n    http://..../[app]/default/user/profile\n    http://..../[app]/default/user/retrieve_password\n    http://..../[app]/default/user/change_password\n    use @auth.requires_login()\n        @auth.requires_membership(\'group name\')\n        @auth.requires_permission(\'read\',\'table name\',record_id)\n    to decorate functions that need access control\n    """\n    return dict(form=auth())\n\n\ndef download():\n    """\n    allows downloading of uploaded files\n    http://..../[app]/default/download/[filename]\n    """\n    return response.download(request,db)\n\n\ndef call():\n    """\n    exposes services. for example:\n    http://..../[app]/default/call/jsonrpc\n    decorate with @services.jsonrpc the functions to expose\n    supports xml, json, xmlrpc, jsonrpc, amfrpc, rss, csv\n    """\n    return service()\n\n\n@auth.requires_signature()\ndef data():\n    """\n    http://..../[app]/default/data/tables\n    http://..../[app]/default/data/create/[table]\n    http://..../[app]/default/data/read/[table]/[id]\n    http://..../[app]/default/data/update/[table]/[id]\n    http://..../[app]/default/data/delete/[table]/[id]\n    http://..../[app]/default/data/select/[table]\n    http://..../[app]/default/data/search/[table]\n    but URLs must be signed, i.e. linked with\n      A(\'table\',_href=URL(\'data/tables\',user_signature=True))\n    or with the signed load operator\n      LOAD(\'default\',\'data.load\',args=\'tables\',ajax=True,user_signature=True)\n    """\n    return dict(form=crud())\n\nresponse._vars=response._caller(add_board)\n'
p7
sS'snapshot'
p8
(dp9
S'exception'
p10
(dp11
S'__hash__'
p12
S"<method-wrapper '__hash__' of exceptions.NameError object at 0xa185fd0>"
p13
sS'__setattr__'
p14
S"<method-wrapper '__setattr__' of exceptions.NameError object at 0xa185fd0>"
p15
sS'__reduce_ex__'
p16
S'<built-in method __reduce_ex__ of exceptions.NameError object at 0xa185fd0>'
p17
sS'__getslice__'
p18
S"<method-wrapper '__getslice__' of exceptions.NameError object at 0xa185fd0>"
p19
sS'__getitem__'
p20
S"<method-wrapper '__getitem__' of exceptions.NameError object at 0xa185fd0>"
p21
sS'__setstate__'
p22
S'<built-in method __setstate__ of exceptions.NameError object at 0xa185fd0>'
p23
sS'__reduce__'
p24
S'<built-in method __reduce__ of exceptions.NameError object at 0xa185fd0>'
p25
sS'__str__'
p26
S"<method-wrapper '__str__' of exceptions.NameError object at 0xa185fd0>"
p27
sS'args'
p28
S'("global name \'re\' is not defined",)'
p29
sS'__getattribute__'
p30
S"<method-wrapper '__getattribute__' of exceptions.NameError object at 0xa185fd0>"
p31
sS'__class__'
p32
S"<type 'exceptions.NameError'>"
p33
sS'__delattr__'
p34
S"<method-wrapper '__delattr__' of exceptions.NameError object at 0xa185fd0>"
p35
sS'__repr__'
p36
S"<method-wrapper '__repr__' of exceptions.NameError object at 0xa185fd0>"
p37
sS'__dict__'
p38
S'{}'
p39
sS'__doc__'
p40
S"'Name not found globally.'"
p41
sS'__init__'
p42
S"<method-wrapper '__init__' of exceptions.NameError object at 0xa185fd0>"
p43
sS'__new__'
p44
S'<built-in method __new__ of type object at 0x100640>'
p45
ssS'evalue'
p46
S"global name 're' is not defined"
p47
sS'request'
p48
ccopy_reg
_reconstructor
p49
(cgluon.html
BEAUTIFY
p50
c__builtin__
object
p51
NtRp52
(dp53
S'attributes'
p54
(dp55
sS'components'
p56
(lp57
g49
(cgluon.html
TABLE
p58
g51
NtRp59
(dp60
g54
(dp61
S'level'
p62
I5
ssS'parent'
p63
Nsg56
(lp64
g49
(cgluon.html
TR
p65
g51
NtRp66
(dp67
g54
(dp68
sg63
g59
sg56
(lp69
g49
(cgluon.html
TD
p70
g51
NtRp71
(dp72
g54
(dp73
S'_style'
p74
S'font-weight:bold;vertical-align:top'
p75
ssg63
g66
sg56
(lp76
S'ajax'
p77
asbag49
(g70
g51
NtRp78
(dp79
g54
(dp80
S'_valign'
p81
S'top'
p82
ssg63
g66
sg56
(lp83
S':'
asbag49
(g70
g51
NtRp84
(dp85
g54
(dp86
sg63
g66
sg56
(lp87
g49
(g50
g51
NtRp88
(dp89
g54
(dp90
g62
I5
ssg63
g84
sg56
(lp91
S'True'
p92
asbasbasbag49
(g65
g51
NtRp93
(dp94
g54
(dp95
sg63
g59
sg56
(lp96
g49
(g70
g51
NtRp97
(dp98
g54
(dp99
g74
g75
ssg63
g93
sg56
(lp100
S'application'
p101
asbag49
(g70
g51
NtRp102
(dp103
g54
(dp104
g81
g82
ssg63
g93
sg56
(lp105
S':'
asbag49
(g70
g51
NtRp106
(dp107
g54
(dp108
sg63
g93
sg56
(lp109
g49
(g50
g51
NtRp110
(dp111
g54
(dp112
g62
I5
ssg63
g106
sg56
(lp113
S'udi0312'
p114
asbasbasbag49
(g65
g51
NtRp115
(dp116
g54
(dp117
sg63
g59
sg56
(lp118
g49
(g70
g51
NtRp119
(dp120
g54
(dp121
g74
g75
ssg63
g115
sg56
(lp122
g28
asbag49
(g70
g51
NtRp123
(dp124
g54
(dp125
g81
g82
ssg63
g115
sg56
(lp126
S':'
asbag49
(g70
g51
NtRp127
(dp128
g54
(dp129
sg63
g115
sg56
(lp130
g49
(g50
g51
NtRp131
(dp132
g54
(dp133
g62
I5
ssg63
g127
sg56
(lp134
g49
(g58
g51
NtRp135
(dp136
g54
(dp137
g62
I4
ssg63
Nsg56
(lp138
sbasbasbasbag49
(g65
g51
NtRp139
(dp140
g54
(dp141
sg63
g59
sg56
(lp142
g49
(g70
g51
NtRp143
(dp144
g54
(dp145
g74
g75
ssg63
g139
sg56
(lp146
S'body'
p147
asbag49
(g70
g51
NtRp148
(dp149
g54
(dp150
g81
g82
ssg63
g139
sg56
(lp151
S':'
asbag49
(g70
g51
NtRp152
(dp153
g54
(dp154
sg63
g139
sg56
(lp155
g49
(g50
g51
NtRp156
(dp157
g54
(dp158
g62
I5
ssg63
g152
sg56
(lp159
S"<open file '<fdopen>', mode 'w+b' at 0x8e572a8>"
p160
asbasbasbag49
(g65
g51
NtRp161
(dp162
g54
(dp163
sg63
g59
sg56
(lp164
g49
(g70
g51
NtRp165
(dp166
g54
(dp167
g74
g75
ssg63
g161
sg56
(lp168
S'client'
p169
asbag49
(g70
g51
NtRp170
(dp171
g54
(dp172
g81
g82
ssg63
g161
sg56
(lp173
S':'
asbag49
(g70
g51
NtRp174
(dp175
g54
(dp176
sg63
g161
sg56
(lp177
g49
(g50
g51
NtRp178
(dp179
g54
(dp180
g62
I5
ssg63
g174
sg56
(lp181
S'127.0.0.1'
p182
asbasbasbag49
(g65
g51
NtRp183
(dp184
g54
(dp185
sg63
g59
sg56
(lp186
g49
(g70
g51
NtRp187
(dp188
g54
(dp189
g74
g75
ssg63
g183
sg56
(lp190
S'controller'
p191
asbag49
(g70
g51
NtRp192
(dp193
g54
(dp194
g81
g82
ssg63
g183
sg56
(lp195
S':'
asbag49
(g70
g51
NtRp196
(dp197
g54
(dp198
sg63
g183
sg56
(lp199
g49
(g50
g51
NtRp200
(dp201
g54
(dp202
g62
I5
ssg63
g196
sg56
(lp203
S'default'
p204
asbasbasbag49
(g65
g51
NtRp205
(dp206
g54
(dp207
sg63
g59
sg56
(lp208
g49
(g70
g51
NtRp209
(dp210
g54
(dp211
g74
g75
ssg63
g205
sg56
(lp212
S'cookies'
p213
asbag49
(g70
g51
NtRp214
(dp215
g54
(dp216
g81
g82
ssg63
g205
sg56
(lp217
S':'
asbag49
(g70
g51
NtRp218
(dp219
g54
(dp220
sg63
g205
sg56
(lp221
g49
(g50
g51
NtRp222
(dp223
g54
(dp224
g62
I5
ssg63
g218
sg56
(lp225
g49
(g58
g51
NtRp226
(dp227
g54
(dp228
g62
I4
ssg63
Nsg56
(lp229
g49
(g65
g51
NtRp230
(dp231
g54
(dp232
sg63
g226
sg56
(lp233
g49
(g70
g51
NtRp234
(dp235
g54
(dp236
g74
g75
ssg63
g230
sg56
(lp237
S'session_id_admin'
p238
asbag49
(g70
g51
NtRp239
(dp240
g54
(dp241
g81
g82
ssg63
g230
sg56
(lp242
S':'
asbag49
(g70
g51
NtRp243
(dp244
g54
(dp245
sg63
g230
sg56
(lp246
g49
(g50
g51
NtRp247
(dp248
g54
(dp249
g62
I4
ssg63
g243
sg56
(lp250
g49
(g58
g51
NtRp251
(dp252
g54
(dp253
g62
I3
ssg63
Nsg56
(lp254
g49
(g65
g51
NtRp255
(dp256
g54
(dp257
sg63
g251
sg56
(lp258
g49
(g70
g51
NtRp259
(dp260
g54
(dp261
g74
g75
ssg63
g255
sg56
(lp262
S'comment'
p263
asbag49
(g70
g51
NtRp264
(dp265
g54
(dp266
g81
g82
ssg63
g255
sg56
(lp267
S':'
asbag49
(g70
g51
NtRp268
(dp269
g54
(dp270
sg63
g255
sg56
(lp271
g49
(g50
g51
NtRp272
(dp273
g54
(dp274
g62
I3
ssg63
g268
sg56
(lp275
S''
asbasbasbag49
(g65
g51
NtRp276
(dp277
g54
(dp278
sg63
g251
sg56
(lp279
g49
(g70
g51
NtRp280
(dp281
g54
(dp282
g74
g75
ssg63
g276
sg56
(lp283
S'domain'
p284
asbag49
(g70
g51
NtRp285
(dp286
g54
(dp287
g81
g82
ssg63
g276
sg56
(lp288
S':'
asbag49
(g70
g51
NtRp289
(dp290
g54
(dp291
sg63
g276
sg56
(lp292
g49
(g50
g51
NtRp293
(dp294
g54
(dp295
g62
I3
ssg63
g289
sg56
(lp296
S''
asbasbasbag49
(g65
g51
NtRp297
(dp298
g54
(dp299
sg63
g251
sg56
(lp300
g49
(g70
g51
NtRp301
(dp302
g54
(dp303
g74
g75
ssg63
g297
sg56
(lp304
S'expires'
p305
asbag49
(g70
g51
NtRp306
(dp307
g54
(dp308
g81
g82
ssg63
g297
sg56
(lp309
S':'
asbag49
(g70
g51
NtRp310
(dp311
g54
(dp312
sg63
g297
sg56
(lp313
g49
(g50
g51
NtRp314
(dp315
g54
(dp316
g62
I3
ssg63
g310
sg56
(lp317
S''
asbasbasbag49
(g65
g51
NtRp318
(dp319
g54
(dp320
sg63
g251
sg56
(lp321
g49
(g70
g51
NtRp322
(dp323
g54
(dp324
g74
g75
ssg63
g318
sg56
(lp325
S'max-age'
p326
asbag49
(g70
g51
NtRp327
(dp328
g54
(dp329
g81
g82
ssg63
g318
sg56
(lp330
S':'
asbag49
(g70
g51
NtRp331
(dp332
g54
(dp333
sg63
g318
sg56
(lp334
g49
(g50
g51
NtRp335
(dp336
g54
(dp337
g62
I3
ssg63
g331
sg56
(lp338
S''
asbasbasbag49
(g65
g51
NtRp339
(dp340
g54
(dp341
sg63
g251
sg56
(lp342
g49
(g70
g51
NtRp343
(dp344
g54
(dp345
g74
g75
ssg63
g339
sg56
(lp346
S'path'
p347
asbag49
(g70
g51
NtRp348
(dp349
g54
(dp350
g81
g82
ssg63
g339
sg56
(lp351
S':'
asbag49
(g70
g51
NtRp352
(dp353
g54
(dp354
sg63
g339
sg56
(lp355
g49
(g50
g51
NtRp356
(dp357
g54
(dp358
g62
I3
ssg63
g352
sg56
(lp359
S''
asbasbasbag49
(g65
g51
NtRp360
(dp361
g54
(dp362
sg63
g251
sg56
(lp363
g49
(g70
g51
NtRp364
(dp365
g54
(dp366
g74
g75
ssg63
g360
sg56
(lp367
S'secure'
p368
asbag49
(g70
g51
NtRp369
(dp370
g54
(dp371
g81
g82
ssg63
g360
sg56
(lp372
S':'
asbag49
(g70
g51
NtRp373
(dp374
g54
(dp375
sg63
g360
sg56
(lp376
g49
(g50
g51
NtRp377
(dp378
g54
(dp379
g62
I3
ssg63
g373
sg56
(lp380
S''
asbasbasbag49
(g65
g51
NtRp381
(dp382
g54
(dp383
sg63
g251
sg56
(lp384
g49
(g70
g51
NtRp385
(dp386
g54
(dp387
g74
g75
ssg63
g381
sg56
(lp388
S'version'
p389
asbag49
(g70
g51
NtRp390
(dp391
g54
(dp392
g81
g82
ssg63
g381
sg56
(lp393
S':'
asbag49
(g70
g51
NtRp394
(dp395
g54
(dp396
sg63
g381
sg56
(lp397
g49
(g50
g51
NtRp398
(dp399
g54
(dp400
g62
I3
ssg63
g394
sg56
(lp401
S''
asbasbasbasbasbasbasbag49
(g65
g51
NtRp402
(dp403
g54
(dp404
sg63
g226
sg56
(lp405
g49
(g70
g51
NtRp406
(dp407
g54
(dp408
g74
g75
ssg63
g402
sg56
(lp409
S'session_id_udi0312'
p410
asbag49
(g70
g51
NtRp411
(dp412
g54
(dp413
g81
g82
ssg63
g402
sg56
(lp414
S':'
asbag49
(g70
g51
NtRp415
(dp416
g54
(dp417
sg63
g402
sg56
(lp418
g49
(g50
g51
NtRp419
(dp420
g54
(dp421
g62
I4
ssg63
g415
sg56
(lp422
g49
(g58
g51
NtRp423
(dp424
g54
(dp425
g62
I3
ssg63
Nsg56
(lp426
g49
(g65
g51
NtRp427
(dp428
g54
(dp429
sg63
g423
sg56
(lp430
g49
(g70
g51
NtRp431
(dp432
g54
(dp433
g74
g75
ssg63
g427
sg56
(lp434
g263
asbag49
(g70
g51
NtRp435
(dp436
g54
(dp437
g81
g82
ssg63
g427
sg56
(lp438
S':'
asbag49
(g70
g51
NtRp439
(dp440
g54
(dp441
sg63
g427
sg56
(lp442
g49
(g50
g51
NtRp443
(dp444
g54
(dp445
g62
I3
ssg63
g439
sg56
(lp446
S''
asbasbasbag49
(g65
g51
NtRp447
(dp448
g54
(dp449
sg63
g423
sg56
(lp450
g49
(g70
g51
NtRp451
(dp452
g54
(dp453
g74
g75
ssg63
g447
sg56
(lp454
g284
asbag49
(g70
g51
NtRp455
(dp456
g54
(dp457
g81
g82
ssg63
g447
sg56
(lp458
S':'
asbag49
(g70
g51
NtRp459
(dp460
g54
(dp461
sg63
g447
sg56
(lp462
g49
(g50
g51
NtRp463
(dp464
g54
(dp465
g62
I3
ssg63
g459
sg56
(lp466
S''
asbasbasbag49
(g65
g51
NtRp467
(dp468
g54
(dp469
sg63
g423
sg56
(lp470
g49
(g70
g51
NtRp471
(dp472
g54
(dp473
g74
g75
ssg63
g467
sg56
(lp474
g305
asbag49
(g70
g51
NtRp475
(dp476
g54
(dp477
g81
g82
ssg63
g467
sg56
(lp478
S':'
asbag49
(g70
g51
NtRp479
(dp480
g54
(dp481
sg63
g467
sg56
(lp482
g49
(g50
g51
NtRp483
(dp484
g54
(dp485
g62
I3
ssg63
g479
sg56
(lp486
S''
asbasbasbag49
(g65
g51
NtRp487
(dp488
g54
(dp489
sg63
g423
sg56
(lp490
g49
(g70
g51
NtRp491
(dp492
g54
(dp493
g74
g75
ssg63
g487
sg56
(lp494
g326
asbag49
(g70
g51
NtRp495
(dp496
g54
(dp497
g81
g82
ssg63
g487
sg56
(lp498
S':'
asbag49
(g70
g51
NtRp499
(dp500
g54
(dp501
sg63
g487
sg56
(lp502
g49
(g50
g51
NtRp503
(dp504
g54
(dp505
g62
I3
ssg63
g499
sg56
(lp506
S''
asbasbasbag49
(g65
g51
NtRp507
(dp508
g54
(dp509
sg63
g423
sg56
(lp510
g49
(g70
g51
NtRp511
(dp512
g54
(dp513
g74
g75
ssg63
g507
sg56
(lp514
g347
asbag49
(g70
g51
NtRp515
(dp516
g54
(dp517
g81
g82
ssg63
g507
sg56
(lp518
S':'
asbag49
(g70
g51
NtRp519
(dp520
g54
(dp521
sg63
g507
sg56
(lp522
g49
(g50
g51
NtRp523
(dp524
g54
(dp525
g62
I3
ssg63
g519
sg56
(lp526
S''
asbasbasbag49
(g65
g51
NtRp527
(dp528
g54
(dp529
sg63
g423
sg56
(lp530
g49
(g70
g51
NtRp531
(dp532
g54
(dp533
g74
g75
ssg63
g527
sg56
(lp534
g368
asbag49
(g70
g51
NtRp535
(dp536
g54
(dp537
g81
g82
ssg63
g527
sg56
(lp538
S':'
asbag49
(g70
g51
NtRp539
(dp540
g54
(dp541
sg63
g527
sg56
(lp542
g49
(g50
g51
NtRp543
(dp544
g54
(dp545
g62
I3
ssg63
g539
sg56
(lp546
S''
asbasbasbag49
(g65
g51
NtRp547
(dp548
g54
(dp549
sg63
g423
sg56
(lp550
g49
(g70
g51
NtRp551
(dp552
g54
(dp553
g74
g75
ssg63
g547
sg56
(lp554
g389
asbag49
(g70
g51
NtRp555
(dp556
g54
(dp557
g81
g82
ssg63
g547
sg56
(lp558
S':'
asbag49
(g70
g51
NtRp559
(dp560
g54
(dp561
sg63
g547
sg56
(lp562
g49
(g50
g51
NtRp563
(dp564
g54
(dp565
g62
I3
ssg63
g559
sg56
(lp566
S''
asbasbasbasbasbasbasbasbasbasbasbag49
(g65
g51
NtRp567
(dp568
g54
(dp569
sg63
g59
sg56
(lp570
g49
(g70
g51
NtRp571
(dp572
g54
(dp573
g74
g75
ssg63
g567
sg56
(lp574
S'env'
p575
asbag49
(g70
g51
NtRp576
(dp577
g54
(dp578
g81
g82
ssg63
g567
sg56
(lp579
S':'
asbag49
(g70
g51
NtRp580
(dp581
g54
(dp582
sg63
g567
sg56
(lp583
g49
(g50
g51
NtRp584
(dp585
g54
(dp586
g62
I5
ssg63
g580
sg56
(lp587
g49
(g58
g51
NtRp588
(dp589
g54
(dp590
g62
I4
ssg63
Nsg56
(lp591
g49
(g65
g51
NtRp592
(dp593
g54
(dp594
sg63
g588
sg56
(lp595
g49
(g70
g51
NtRp596
(dp597
g54
(dp598
g74
g75
ssg63
g592
sg56
(lp599
S'app_folders'
p600
asbag49
(g70
g51
NtRp601
(dp602
g54
(dp603
g81
g82
ssg63
g592
sg56
(lp604
S':'
asbag49
(g70
g51
NtRp605
(dp606
g54
(dp607
sg63
g592
sg56
(lp608
g49
(g50
g51
NtRp609
(dp610
g54
(dp611
g62
I4
ssg63
g605
sg56
(lp612
S"set(['/Users/udimilo/Documents/web2py/applications/udi0312/', '/Users/udimilo/Documents/web2py/applications/admin/'])"
p613
asbasbasbag49
(g65
g51
NtRp614
(dp615
g54
(dp616
sg63
g588
sg56
(lp617
g49
(g70
g51
NtRp618
(dp619
g54
(dp620
g74
g75
ssg63
g614
sg56
(lp621
S'applications_parent'
p622
asbag49
(g70
g51
NtRp623
(dp624
g54
(dp625
g81
g82
ssg63
g614
sg56
(lp626
S':'
asbag49
(g70
g51
NtRp627
(dp628
g54
(dp629
sg63
g614
sg56
(lp630
g49
(g50
g51
NtRp631
(dp632
g54
(dp633
g62
I4
ssg63
g627
sg56
(lp634
S'/Users/udimilo/Documents/web2py'
p635
asbasbasbag49
(g65
g51
NtRp636
(dp637
g54
(dp638
sg63
g588
sg56
(lp639
g49
(g70
g51
NtRp640
(dp641
g54
(dp642
g74
g75
ssg63
g636
sg56
(lp643
S'cmd_args'
p644
asbag49
(g70
g51
NtRp645
(dp646
g54
(dp647
g81
g82
ssg63
g636
sg56
(lp648
S':'
asbag49
(g70
g51
NtRp649
(dp650
g54
(dp651
sg63
g636
sg56
(lp652
g49
(g50
g51
NtRp653
(dp654
g54
(dp655
g62
I4
ssg63
g649
sg56
(lp656
g49
(g58
g51
NtRp657
(dp658
g54
(dp659
g62
I3
ssg63
Nsg56
(lp660
sbasbasbasbag49
(g65
g51
NtRp661
(dp662
g54
(dp663
sg63
g588
sg56
(lp664
g49
(g70
g51
NtRp665
(dp666
g54
(dp667
g74
g75
ssg63
g661
sg56
(lp668
S'cmd_options'
p669
asbag49
(g70
g51
NtRp670
(dp671
g54
(dp672
g81
g82
ssg63
g661
sg56
(lp673
S':'
asbag49
(g70
g51
NtRp674
(dp675
g54
(dp676
sg63
g661
sg56
(lp677
g49
(g50
g51
NtRp678
(dp679
g54
(dp680
g62
I4
ssg63
g674
sg56
(lp681
S"<Values at 0x24300a8: {'verbose': False, 'ip': '127.0.0.1', 'shutdown_timeout': 5, 'taskbar': False, 'nocron': False, 'pid_filename': 'httpserver.pid', 'maxthreads': None, 'softcron': False, 'server_name': 'Udi-Milos-MacBook-Pro.local', 'bpython': False, 'nogui': False, 'port': 8000, 'extcron': False, 'debuglevel': 30, 'test': None, 'folder': '/Users/udimilo/Documents/web2py', 'config': '', 'import_models': False, 'winservice': '', 'shell': None, 'run': '', 'log_filename': 'httpserver.log', 'args': [''], 'socket_timeout': 5, 'ssl_ca_certificate': None, 'scheduler': None, 'profiler_filename': None, 'ssl_private_key': '', 'password': '<ask>', 'request_queue_size': 5, 'ssl_certificate': '', 'cronjob': False, 'numthreads': None, 'quiet': False, 'interfaces': None, 'minthreads': None, 'timeout': 10, 'plain': False, 'nobanner': False}>"
p682
asbasbasbag49
(g65
g51
NtRp683
(dp684
g54
(dp685
sg63
g588
sg56
(lp686
g49
(g70
g51
NtRp687
(dp688
g54
(dp689
g74
g75
ssg63
g683
sg56
(lp690
S'content_length'
p691
asbag49
(g70
g51
NtRp692
(dp693
g54
(dp694
g81
g82
ssg63
g683
sg56
(lp695
S':'
asbag49
(g70
g51
NtRp696
(dp697
g54
(dp698
sg63
g683
sg56
(lp699
g49
(g50
g51
NtRp700
(dp701
g54
(dp702
g62
I4
ssg63
g696
sg56
(lp703
S'30'
p704
asbasbasbag49
(g65
g51
NtRp705
(dp706
g54
(dp707
sg63
g588
sg56
(lp708
g49
(g70
g51
NtRp709
(dp710
g54
(dp711
g74
g75
ssg63
g705
sg56
(lp712
S'content_type'
p713
asbag49
(g70
g51
NtRp714
(dp715
g54
(dp716
g81
g82
ssg63
g705
sg56
(lp717
S':'
asbag49
(g70
g51
NtRp718
(dp719
g54
(dp720
sg63
g705
sg56
(lp721
g49
(g50
g51
NtRp722
(dp723
g54
(dp724
g62
I4
ssg63
g718
sg56
(lp725
S'application/x-www-form-urlencoded'
p726
asbasbasbag49
(g65
g51
NtRp727
(dp728
g54
(dp729
sg63
g588
sg56
(lp730
g49
(g70
g51
NtRp731
(dp732
g54
(dp733
g74
g75
ssg63
g727
sg56
(lp734
S'db_sessions'
p735
asbag49
(g70
g51
NtRp736
(dp737
g54
(dp738
g81
g82
ssg63
g727
sg56
(lp739
S':'
asbag49
(g70
g51
NtRp740
(dp741
g54
(dp742
sg63
g727
sg56
(lp743
g49
(g50
g51
NtRp744
(dp745
g54
(dp746
g62
I4
ssg63
g740
sg56
(lp747
S'set([])'
p748
asbasbasbag49
(g65
g51
NtRp749
(dp750
g54
(dp751
sg63
g588
sg56
(lp752
g49
(g70
g51
NtRp753
(dp754
g54
(dp755
g74
g75
ssg63
g749
sg56
(lp756
S'debugging'
p757
asbag49
(g70
g51
NtRp758
(dp759
g54
(dp760
g81
g82
ssg63
g749
sg56
(lp761
S':'
asbag49
(g70
g51
NtRp762
(dp763
g54
(dp764
sg63
g749
sg56
(lp765
g49
(g50
g51
NtRp766
(dp767
g54
(dp768
g62
I4
ssg63
g762
sg56
(lp769
S'False'
p770
asbasbasbag49
(g65
g51
NtRp771
(dp772
g54
(dp773
sg63
g588
sg56
(lp774
g49
(g70
g51
NtRp775
(dp776
g54
(dp777
g74
g75
ssg63
g771
sg56
(lp778
S'gluon_parent'
p779
asbag49
(g70
g51
NtRp780
(dp781
g54
(dp782
g81
g82
ssg63
g771
sg56
(lp783
S':'
asbag49
(g70
g51
NtRp784
(dp785
g54
(dp786
sg63
g771
sg56
(lp787
g49
(g50
g51
NtRp788
(dp789
g54
(dp790
g62
I4
ssg63
g784
sg56
(lp791
S'/Users/udimilo/Documents/web2py'
p792
asbasbasbag49
(g65
g51
NtRp793
(dp794
g54
(dp795
sg63
g588
sg56
(lp796
g49
(g70
g51
NtRp797
(dp798
g54
(dp799
g74
g75
ssg63
g793
sg56
(lp800
S'http_accept'
p801
asbag49
(g70
g51
NtRp802
(dp803
g54
(dp804
g81
g82
ssg63
g793
sg56
(lp805
S':'
asbag49
(g70
g51
NtRp806
(dp807
g54
(dp808
sg63
g793
sg56
(lp809
g49
(g50
g51
NtRp810
(dp811
g54
(dp812
g62
I4
ssg63
g806
sg56
(lp813
S'*/*'
p814
asbasbasbag49
(g65
g51
NtRp815
(dp816
g54
(dp817
sg63
g588
sg56
(lp818
g49
(g70
g51
NtRp819
(dp820
g54
(dp821
g74
g75
ssg63
g815
sg56
(lp822
S'http_accept_charset'
p823
asbag49
(g70
g51
NtRp824
(dp825
g54
(dp826
g81
g82
ssg63
g815
sg56
(lp827
S':'
asbag49
(g70
g51
NtRp828
(dp829
g54
(dp830
sg63
g815
sg56
(lp831
g49
(g50
g51
NtRp832
(dp833
g54
(dp834
g62
I4
ssg63
g828
sg56
(lp835
S'ISO-8859-1,utf-8;q=0.7,*;q=0.3'
p836
asbasbasbag49
(g65
g51
NtRp837
(dp838
g54
(dp839
sg63
g588
sg56
(lp840
g49
(g70
g51
NtRp841
(dp842
g54
(dp843
g74
g75
ssg63
g837
sg56
(lp844
S'http_accept_encoding'
p845
asbag49
(g70
g51
NtRp846
(dp847
g54
(dp848
g81
g82
ssg63
g837
sg56
(lp849
S':'
asbag49
(g70
g51
NtRp850
(dp851
g54
(dp852
sg63
g837
sg56
(lp853
g49
(g50
g51
NtRp854
(dp855
g54
(dp856
g62
I4
ssg63
g850
sg56
(lp857
S'gzip,deflate,sdch'
p858
asbasbasbag49
(g65
g51
NtRp859
(dp860
g54
(dp861
sg63
g588
sg56
(lp862
g49
(g70
g51
NtRp863
(dp864
g54
(dp865
g74
g75
ssg63
g859
sg56
(lp866
S'http_accept_language'
p867
asbag49
(g70
g51
NtRp868
(dp869
g54
(dp870
g81
g82
ssg63
g859
sg56
(lp871
S':'
asbag49
(g70
g51
NtRp872
(dp873
g54
(dp874
sg63
g859
sg56
(lp875
g49
(g50
g51
NtRp876
(dp877
g54
(dp878
g62
I4
ssg63
g872
sg56
(lp879
S'en-US,en;q=0.8'
p880
asbasbasbag49
(g65
g51
NtRp881
(dp882
g54
(dp883
sg63
g588
sg56
(lp884
g49
(g70
g51
NtRp885
(dp886
g54
(dp887
g74
g75
ssg63
g881
sg56
(lp888
S'http_connection'
p889
asbag49
(g70
g51
NtRp890
(dp891
g54
(dp892
g81
g82
ssg63
g881
sg56
(lp893
S':'
asbag49
(g70
g51
NtRp894
(dp895
g54
(dp896
sg63
g881
sg56
(lp897
g49
(g50
g51
NtRp898
(dp899
g54
(dp900
g62
I4
ssg63
g894
sg56
(lp901
S'keep-alive'
p902
asbasbasbag49
(g65
g51
NtRp903
(dp904
g54
(dp905
sg63
g588
sg56
(lp906
g49
(g70
g51
NtRp907
(dp908
g54
(dp909
g74
g75
ssg63
g903
sg56
(lp910
S'http_content_length'
p911
asbag49
(g70
g51
NtRp912
(dp913
g54
(dp914
g81
g82
ssg63
g903
sg56
(lp915
S':'
asbag49
(g70
g51
NtRp916
(dp917
g54
(dp918
sg63
g903
sg56
(lp919
g49
(g50
g51
NtRp920
(dp921
g54
(dp922
g62
I4
ssg63
g916
sg56
(lp923
g704
asbasbasbag49
(g65
g51
NtRp924
(dp925
g54
(dp926
sg63
g588
sg56
(lp927
g49
(g70
g51
NtRp928
(dp929
g54
(dp930
g74
g75
ssg63
g924
sg56
(lp931
S'http_content_type'
p932
asbag49
(g70
g51
NtRp933
(dp934
g54
(dp935
g81
g82
ssg63
g924
sg56
(lp936
S':'
asbag49
(g70
g51
NtRp937
(dp938
g54
(dp939
sg63
g924
sg56
(lp940
g49
(g50
g51
NtRp941
(dp942
g54
(dp943
g62
I4
ssg63
g937
sg56
(lp944
g726
asbasbasbag49
(g65
g51
NtRp945
(dp946
g54
(dp947
sg63
g588
sg56
(lp948
g49
(g70
g51
NtRp949
(dp950
g54
(dp951
g74
g75
ssg63
g945
sg56
(lp952
S'http_cookie'
p953
asbag49
(g70
g51
NtRp954
(dp955
g54
(dp956
g81
g82
ssg63
g945
sg56
(lp957
S':'
asbag49
(g70
g51
NtRp958
(dp959
g54
(dp960
sg63
g945
sg56
(lp961
g49
(g50
g51
NtRp962
(dp963
g54
(dp964
g62
I4
ssg63
g958
sg56
(lp965
S'session_id_admin=127.0.0.1-a5927d21-0975-440c-b919-57f659913b6f; session_id_udi0312=127.0.0.1-fcd6a577-d448-4882-b7bc-f353da84ba3b'
p966
asbasbasbag49
(g65
g51
NtRp967
(dp968
g54
(dp969
sg63
g588
sg56
(lp970
g49
(g70
g51
NtRp971
(dp972
g54
(dp973
g74
g75
ssg63
g967
sg56
(lp974
S'http_host'
p975
asbag49
(g70
g51
NtRp976
(dp977
g54
(dp978
g81
g82
ssg63
g967
sg56
(lp979
S':'
asbag49
(g70
g51
NtRp980
(dp981
g54
(dp982
sg63
g967
sg56
(lp983
g49
(g50
g51
NtRp984
(dp985
g54
(dp986
g62
I4
ssg63
g980
sg56
(lp987
S'127.0.0.1:8000'
p988
asbasbasbag49
(g65
g51
NtRp989
(dp990
g54
(dp991
sg63
g588
sg56
(lp992
g49
(g70
g51
NtRp993
(dp994
g54
(dp995
g74
g75
ssg63
g989
sg56
(lp996
S'http_origin'
p997
asbag49
(g70
g51
NtRp998
(dp999
g54
(dp1000
g81
g82
ssg63
g989
sg56
(lp1001
S':'
asbag49
(g70
g51
NtRp1002
(dp1003
g54
(dp1004
sg63
g989
sg56
(lp1005
g49
(g50
g51
NtRp1006
(dp1007
g54
(dp1008
g62
I4
ssg63
g1002
sg56
(lp1009
S'http://127.0.0.1:8000'
p1010
asbasbasbag49
(g65
g51
NtRp1011
(dp1012
g54
(dp1013
sg63
g588
sg56
(lp1014
g49
(g70
g51
NtRp1015
(dp1016
g54
(dp1017
g74
g75
ssg63
g1011
sg56
(lp1018
S'http_referer'
p1019
asbag49
(g70
g51
NtRp1020
(dp1021
g54
(dp1022
g81
g82
ssg63
g1011
sg56
(lp1023
S':'
asbag49
(g70
g51
NtRp1024
(dp1025
g54
(dp1026
sg63
g1011
sg56
(lp1027
g49
(g50
g51
NtRp1028
(dp1029
g54
(dp1030
g62
I4
ssg63
g1024
sg56
(lp1031
S'http://127.0.0.1:8000/'
p1032
asbasbasbag49
(g65
g51
NtRp1033
(dp1034
g54
(dp1035
sg63
g588
sg56
(lp1036
g49
(g70
g51
NtRp1037
(dp1038
g54
(dp1039
g74
g75
ssg63
g1033
sg56
(lp1040
S'http_user_agent'
p1041
asbag49
(g70
g51
NtRp1042
(dp1043
g54
(dp1044
g81
g82
ssg63
g1033
sg56
(lp1045
S':'
asbag49
(g70
g51
NtRp1046
(dp1047
g54
(dp1048
sg63
g1033
sg56
(lp1049
g49
(g50
g51
NtRp1050
(dp1051
g54
(dp1052
g62
I4
ssg63
g1046
sg56
(lp1053
S'Mozilla/5.0 (Macintosh; Intel Mac OS X 10_7_3) AppleWebKit/535.11 (KHTML, like Gecko) Chrome/17.0.963.79 Safari/535.11'
p1054
asbasbasbag49
(g65
g51
NtRp1055
(dp1056
g54
(dp1057
sg63
g588
sg56
(lp1058
g49
(g70
g51
NtRp1059
(dp1060
g54
(dp1061
g74
g75
ssg63
g1055
sg56
(lp1062
S'http_x_requested_with'
p1063
asbag49
(g70
g51
NtRp1064
(dp1065
g54
(dp1066
g81
g82
ssg63
g1055
sg56
(lp1067
S':'
asbag49
(g70
g51
NtRp1068
(dp1069
g54
(dp1070
sg63
g1055
sg56
(lp1071
g49
(g50
g51
NtRp1072
(dp1073
g54
(dp1074
g62
I4
ssg63
g1068
sg56
(lp1075
S'XMLHttpRequest'
p1076
asbasbasbag49
(g65
g51
NtRp1077
(dp1078
g54
(dp1079
sg63
g588
sg56
(lp1080
g49
(g70
g51
NtRp1081
(dp1082
g54
(dp1083
g74
g75
ssg63
g1077
sg56
(lp1084
S'is_jython'
p1085
asbag49
(g70
g51
NtRp1086
(dp1087
g54
(dp1088
g81
g82
ssg63
g1077
sg56
(lp1089
S':'
asbag49
(g70
g51
NtRp1090
(dp1091
g54
(dp1092
sg63
g1077
sg56
(lp1093
g49
(g50
g51
NtRp1094
(dp1095
g54
(dp1096
g62
I4
ssg63
g1090
sg56
(lp1097
g770
asbasbasbag49
(g65
g51
NtRp1098
(dp1099
g54
(dp1100
sg63
g588
sg56
(lp1101
g49
(g70
g51
NtRp1102
(dp1103
g54
(dp1104
g74
g75
ssg63
g1098
sg56
(lp1105
S'is_pypy'
p1106
asbag49
(g70
g51
NtRp1107
(dp1108
g54
(dp1109
g81
g82
ssg63
g1098
sg56
(lp1110
S':'
asbag49
(g70
g51
NtRp1111
(dp1112
g54
(dp1113
sg63
g1098
sg56
(lp1114
g49
(g50
g51
NtRp1115
(dp1116
g54
(dp1117
g62
I4
ssg63
g1111
sg56
(lp1118
g770
asbasbasbag49
(g65
g51
NtRp1119
(dp1120
g54
(dp1121
sg63
g588
sg56
(lp1122
g49
(g70
g51
NtRp1123
(dp1124
g54
(dp1125
g74
g75
ssg63
g1119
sg56
(lp1126
S'path_info'
p1127
asbag49
(g70
g51
NtRp1128
(dp1129
g54
(dp1130
g81
g82
ssg63
g1119
sg56
(lp1131
S':'
asbag49
(g70
g51
NtRp1132
(dp1133
g54
(dp1134
sg63
g1119
sg56
(lp1135
g49
(g50
g51
NtRp1136
(dp1137
g54
(dp1138
g62
I4
ssg63
g1132
sg56
(lp1139
S'/add_board'
p1140
asbasbasbag49
(g65
g51
NtRp1141
(dp1142
g54
(dp1143
sg63
g588
sg56
(lp1144
g49
(g70
g51
NtRp1145
(dp1146
g54
(dp1147
g74
g75
ssg63
g1141
sg56
(lp1148
S'query_string'
p1149
asbag49
(g70
g51
NtRp1150
(dp1151
g54
(dp1152
g81
g82
ssg63
g1141
sg56
(lp1153
S':'
asbag49
(g70
g51
NtRp1154
(dp1155
g54
(dp1156
sg63
g1141
sg56
(lp1157
g49
(g50
g51
NtRp1158
(dp1159
g54
(dp1160
g62
I4
ssg63
g1154
sg56
(lp1161
S''
asbasbasbag49
(g65
g51
NtRp1162
(dp1163
g54
(dp1164
sg63
g588
sg56
(lp1165
g49
(g70
g51
NtRp1166
(dp1167
g54
(dp1168
g74
g75
ssg63
g1162
sg56
(lp1169
S'remote_addr'
p1170
asbag49
(g70
g51
NtRp1171
(dp1172
g54
(dp1173
g81
g82
ssg63
g1162
sg56
(lp1174
S':'
asbag49
(g70
g51
NtRp1175
(dp1176
g54
(dp1177
sg63
g1162
sg56
(lp1178
g49
(g50
g51
NtRp1179
(dp1180
g54
(dp1181
g62
I4
ssg63
g1175
sg56
(lp1182
g182
asbasbasbag49
(g65
g51
NtRp1183
(dp1184
g54
(dp1185
sg63
g588
sg56
(lp1186
g49
(g70
g51
NtRp1187
(dp1188
g54
(dp1189
g74
g75
ssg63
g1183
sg56
(lp1190
S'remote_port'
p1191
asbag49
(g70
g51
NtRp1192
(dp1193
g54
(dp1194
g81
g82
ssg63
g1183
sg56
(lp1195
S':'
asbag49
(g70
g51
NtRp1196
(dp1197
g54
(dp1198
sg63
g1183
sg56
(lp1199
g49
(g50
g51
NtRp1200
(dp1201
g54
(dp1202
g62
I4
ssg63
g1196
sg56
(lp1203
S'51416'
p1204
asbasbasbag49
(g65
g51
NtRp1205
(dp1206
g54
(dp1207
sg63
g588
sg56
(lp1208
g49
(g70
g51
NtRp1209
(dp1210
g54
(dp1211
g74
g75
ssg63
g1205
sg56
(lp1212
S'request_method'
p1213
asbag49
(g70
g51
NtRp1214
(dp1215
g54
(dp1216
g81
g82
ssg63
g1205
sg56
(lp1217
S':'
asbag49
(g70
g51
NtRp1218
(dp1219
g54
(dp1220
sg63
g1205
sg56
(lp1221
g49
(g50
g51
NtRp1222
(dp1223
g54
(dp1224
g62
I4
ssg63
g1218
sg56
(lp1225
S'POST'
p1226
asbasbasbag49
(g65
g51
NtRp1227
(dp1228
g54
(dp1229
sg63
g588
sg56
(lp1230
g49
(g70
g51
NtRp1231
(dp1232
g54
(dp1233
g74
g75
ssg63
g1227
sg56
(lp1234
S'request_uri'
p1235
asbag49
(g70
g51
NtRp1236
(dp1237
g54
(dp1238
g81
g82
ssg63
g1227
sg56
(lp1239
S':'
asbag49
(g70
g51
NtRp1240
(dp1241
g54
(dp1242
sg63
g1227
sg56
(lp1243
g49
(g50
g51
NtRp1244
(dp1245
g54
(dp1246
g62
I4
ssg63
g1240
sg56
(lp1247
S'/udi0312/default/add_board'
p1248
asbasbasbag49
(g65
g51
NtRp1249
(dp1250
g54
(dp1251
sg63
g588
sg56
(lp1252
g49
(g70
g51
NtRp1253
(dp1254
g54
(dp1255
g74
g75
ssg63
g1249
sg56
(lp1256
S'script_name'
p1257
asbag49
(g70
g51
NtRp1258
(dp1259
g54
(dp1260
g81
g82
ssg63
g1249
sg56
(lp1261
S':'
asbag49
(g70
g51
NtRp1262
(dp1263
g54
(dp1264
sg63
g1249
sg56
(lp1265
g49
(g50
g51
NtRp1266
(dp1267
g54
(dp1268
g62
I4
ssg63
g1262
sg56
(lp1269
S''
asbasbasbag49
(g65
g51
NtRp1270
(dp1271
g54
(dp1272
sg63
g588
sg56
(lp1273
g49
(g70
g51
NtRp1274
(dp1275
g54
(dp1276
g74
g75
ssg63
g1270
sg56
(lp1277
S'server_name'
p1278
asbag49
(g70
g51
NtRp1279
(dp1280
g54
(dp1281
g81
g82
ssg63
g1270
sg56
(lp1282
S':'
asbag49
(g70
g51
NtRp1283
(dp1284
g54
(dp1285
sg63
g1270
sg56
(lp1286
g49
(g50
g51
NtRp1287
(dp1288
g54
(dp1289
g62
I4
ssg63
g1283
sg56
(lp1290
S'Udi-Milos-MacBook-Pro.local'
p1291
asbasbasbag49
(g65
g51
NtRp1292
(dp1293
g54
(dp1294
sg63
g588
sg56
(lp1295
g49
(g70
g51
NtRp1296
(dp1297
g54
(dp1298
g74
g75
ssg63
g1292
sg56
(lp1299
S'server_port'
p1300
asbag49
(g70
g51
NtRp1301
(dp1302
g54
(dp1303
g81
g82
ssg63
g1292
sg56
(lp1304
S':'
asbag49
(g70
g51
NtRp1305
(dp1306
g54
(dp1307
sg63
g1292
sg56
(lp1308
g49
(g50
g51
NtRp1309
(dp1310
g54
(dp1311
g62
I4
ssg63
g1305
sg56
(lp1312
S'8000'
p1313
asbasbasbag49
(g65
g51
NtRp1314
(dp1315
g54
(dp1316
sg63
g588
sg56
(lp1317
g49
(g70
g51
NtRp1318
(dp1319
g54
(dp1320
g74
g75
ssg63
g1314
sg56
(lp1321
S'server_protocol'
p1322
asbag49
(g70
g51
NtRp1323
(dp1324
g54
(dp1325
g81
g82
ssg63
g1314
sg56
(lp1326
S':'
asbag49
(g70
g51
NtRp1327
(dp1328
g54
(dp1329
sg63
g1314
sg56
(lp1330
g49
(g50
g51
NtRp1331
(dp1332
g54
(dp1333
g62
I4
ssg63
g1327
sg56
(lp1334
S'HTTP/1.1'
p1335
asbasbasbag49
(g65
g51
NtRp1336
(dp1337
g54
(dp1338
sg63
g588
sg56
(lp1339
g49
(g70
g51
NtRp1340
(dp1341
g54
(dp1342
g74
g75
ssg63
g1336
sg56
(lp1343
S'server_software'
p1344
asbag49
(g70
g51
NtRp1345
(dp1346
g54
(dp1347
g81
g82
ssg63
g1336
sg56
(lp1348
S':'
asbag49
(g70
g51
NtRp1349
(dp1350
g54
(dp1351
sg63
g1336
sg56
(lp1352
g49
(g50
g51
NtRp1353
(dp1354
g54
(dp1355
g62
I4
ssg63
g1349
sg56
(lp1356
S'Rocket 1.2.4'
p1357
asbasbasbag49
(g65
g51
NtRp1358
(dp1359
g54
(dp1360
sg63
g588
sg56
(lp1361
g49
(g70
g51
NtRp1362
(dp1363
g54
(dp1364
g74
g75
ssg63
g1358
sg56
(lp1365
S'web2py_crontype'
p1366
asbag49
(g70
g51
NtRp1367
(dp1368
g54
(dp1369
g81
g82
ssg63
g1358
sg56
(lp1370
S':'
asbag49
(g70
g51
NtRp1371
(dp1372
g54
(dp1373
sg63
g1358
sg56
(lp1374
g49
(g50
g51
NtRp1375
(dp1376
g54
(dp1377
g62
I4
ssg63
g1371
sg56
(lp1378
S'hard'
p1379
asbasbasbag49
(g65
g51
NtRp1380
(dp1381
g54
(dp1382
sg63
g588
sg56
(lp1383
g49
(g70
g51
NtRp1384
(dp1385
g54
(dp1386
g74
g75
ssg63
g1380
sg56
(lp1387
S'web2py_original_uri'
p1388
asbag49
(g70
g51
NtRp1389
(dp1390
g54
(dp1391
g81
g82
ssg63
g1380
sg56
(lp1392
S':'
asbag49
(g70
g51
NtRp1393
(dp1394
g54
(dp1395
sg63
g1380
sg56
(lp1396
g49
(g50
g51
NtRp1397
(dp1398
g54
(dp1399
g62
I4
ssg63
g1393
sg56
(lp1400
g1140
asbasbasbag49
(g65
g51
NtRp1401
(dp1402
g54
(dp1403
sg63
g588
sg56
(lp1404
g49
(g70
g51
NtRp1405
(dp1406
g54
(dp1407
g74
g75
ssg63
g1401
sg56
(lp1408
S'web2py_path'
p1409
asbag49
(g70
g51
NtRp1410
(dp1411
g54
(dp1412
g81
g82
ssg63
g1401
sg56
(lp1413
S':'
asbag49
(g70
g51
NtRp1414
(dp1415
g54
(dp1416
sg63
g1401
sg56
(lp1417
g49
(g50
g51
NtRp1418
(dp1419
g54
(dp1420
g62
I4
ssg63
g1414
sg56
(lp1421
g635
asbasbasbag49
(g65
g51
NtRp1422
(dp1423
g54
(dp1424
sg63
g588
sg56
(lp1425
g49
(g70
g51
NtRp1426
(dp1427
g54
(dp1428
g74
g75
ssg63
g1422
sg56
(lp1429
S'web2py_version'
p1430
asbag49
(g70
g51
NtRp1431
(dp1432
g54
(dp1433
g81
g82
ssg63
g1422
sg56
(lp1434
S':'
asbag49
(g70
g51
NtRp1435
(dp1436
g54
(dp1437
sg63
g1422
sg56
(lp1438
g49
(g50
g51
NtRp1439
(dp1440
g54
(dp1441
g62
I4
ssg63
g1435
sg56
(lp1442
g49
(g58
g51
NtRp1443
(dp1444
g54
(dp1445
g62
I3
ssg63
Nsg56
(lp1446
g49
(g65
g51
NtRp1447
(dp1448
g54
(dp1449
sg63
g1443
sg56
(lp1450
g49
(g70
g51
NtRp1451
(dp1452
g54
(dp1453
sg63
g1447
sg56
(lp1454
g49
(g50
g51
NtRp1455
(dp1456
g54
(dp1457
g62
I3
ssg63
g1451
sg56
(lp1458
S'1'
asbasbasbag49
(g65
g51
NtRp1459
(dp1460
g54
(dp1461
sg63
g1443
sg56
(lp1462
g49
(g70
g51
NtRp1463
(dp1464
g54
(dp1465
sg63
g1459
sg56
(lp1466
g49
(g50
g51
NtRp1467
(dp1468
g54
(dp1469
g62
I3
ssg63
g1463
sg56
(lp1470
S'99'
p1471
asbasbasbag49
(g65
g51
NtRp1472
(dp1473
g54
(dp1474
sg63
g1443
sg56
(lp1475
g49
(g70
g51
NtRp1476
(dp1477
g54
(dp1478
sg63
g1472
sg56
(lp1479
g49
(g50
g51
NtRp1480
(dp1481
g54
(dp1482
g62
I3
ssg63
g1476
sg56
(lp1483
S'7'
asbasbasbag49
(g65
g51
NtRp1484
(dp1485
g54
(dp1486
sg63
g1443
sg56
(lp1487
g49
(g70
g51
NtRp1488
(dp1489
g54
(dp1490
sg63
g1484
sg56
(lp1491
g49
(g50
g51
NtRp1492
(dp1493
g54
(dp1494
g62
I3
ssg63
g1488
sg56
(lp1495
S'datetime.datetime(2012, 3, 4, 22, 12, 8)'
p1496
asbasbasbag49
(g65
g51
NtRp1497
(dp1498
g54
(dp1499
sg63
g1443
sg56
(lp1500
g49
(g70
g51
NtRp1501
(dp1502
g54
(dp1503
sg63
g1497
sg56
(lp1504
g49
(g50
g51
NtRp1505
(dp1506
g54
(dp1507
g62
I3
ssg63
g1501
sg56
(lp1508
S'stable'
p1509
asbasbasbasbasbasbasbag49
(g65
g51
NtRp1510
(dp1511
g54
(dp1512
sg63
g588
sg56
(lp1513
g49
(g70
g51
NtRp1514
(dp1515
g54
(dp1516
g74
g75
ssg63
g1510
sg56
(lp1517
S'wsgi_errors'
p1518
asbag49
(g70
g51
NtRp1519
(dp1520
g54
(dp1521
g81
g82
ssg63
g1510
sg56
(lp1522
S':'
asbag49
(g70
g51
NtRp1523
(dp1524
g54
(dp1525
sg63
g1510
sg56
(lp1526
g49
(g50
g51
NtRp1527
(dp1528
g54
(dp1529
g62
I4
ssg63
g1523
sg56
(lp1530
S"<open file '<stderr>', mode 'w' at 0x4220b0>"
p1531
asbasbasbag49
(g65
g51
NtRp1532
(dp1533
g54
(dp1534
sg63
g588
sg56
(lp1535
g49
(g70
g51
NtRp1536
(dp1537
g54
(dp1538
g74
g75
ssg63
g1532
sg56
(lp1539
S'wsgi_file_wrapper'
p1540
asbag49
(g70
g51
NtRp1541
(dp1542
g54
(dp1543
g81
g82
ssg63
g1532
sg56
(lp1544
S':'
asbag49
(g70
g51
NtRp1545
(dp1546
g54
(dp1547
sg63
g1532
sg56
(lp1548
g49
(g50
g51
NtRp1549
(dp1550
g54
(dp1551
g62
I4
ssg63
g1545
sg56
(lp1552
S'<class wsgiref.util.FileWrapper at 0x23746c0>'
p1553
asbasbasbag49
(g65
g51
NtRp1554
(dp1555
g54
(dp1556
sg63
g588
sg56
(lp1557
g49
(g70
g51
NtRp1558
(dp1559
g54
(dp1560
g74
g75
ssg63
g1554
sg56
(lp1561
S'wsgi_input'
p1562
asbag49
(g70
g51
NtRp1563
(dp1564
g54
(dp1565
g81
g82
ssg63
g1554
sg56
(lp1566
S':'
asbag49
(g70
g51
NtRp1567
(dp1568
g54
(dp1569
sg63
g1554
sg56
(lp1570
g49
(g50
g51
NtRp1571
(dp1572
g54
(dp1573
g62
I4
ssg63
g1567
sg56
(lp1574
S'<socket._fileobject object at 0xa0efc70>'
p1575
asbasbasbag49
(g65
g51
NtRp1576
(dp1577
g54
(dp1578
sg63
g588
sg56
(lp1579
g49
(g70
g51
NtRp1580
(dp1581
g54
(dp1582
g74
g75
ssg63
g1576
sg56
(lp1583
S'wsgi_multiprocess'
p1584
asbag49
(g70
g51
NtRp1585
(dp1586
g54
(dp1587
g81
g82
ssg63
g1576
sg56
(lp1588
S':'
asbag49
(g70
g51
NtRp1589
(dp1590
g54
(dp1591
sg63
g1576
sg56
(lp1592
g49
(g50
g51
NtRp1593
(dp1594
g54
(dp1595
g62
I4
ssg63
g1589
sg56
(lp1596
g770
asbasbasbag49
(g65
g51
NtRp1597
(dp1598
g54
(dp1599
sg63
g588
sg56
(lp1600
g49
(g70
g51
NtRp1601
(dp1602
g54
(dp1603
g74
g75
ssg63
g1597
sg56
(lp1604
S'wsgi_multithread'
p1605
asbag49
(g70
g51
NtRp1606
(dp1607
g54
(dp1608
g81
g82
ssg63
g1597
sg56
(lp1609
S':'
asbag49
(g70
g51
NtRp1610
(dp1611
g54
(dp1612
sg63
g1597
sg56
(lp1613
g49
(g50
g51
NtRp1614
(dp1615
g54
(dp1616
g62
I4
ssg63
g1610
sg56
(lp1617
g92
asbasbasbag49
(g65
g51
NtRp1618
(dp1619
g54
(dp1620
sg63
g588
sg56
(lp1621
g49
(g70
g51
NtRp1622
(dp1623
g54
(dp1624
g74
g75
ssg63
g1618
sg56
(lp1625
S'wsgi_run_once'
p1626
asbag49
(g70
g51
NtRp1627
(dp1628
g54
(dp1629
g81
g82
ssg63
g1618
sg56
(lp1630
S':'
asbag49
(g70
g51
NtRp1631
(dp1632
g54
(dp1633
sg63
g1618
sg56
(lp1634
g49
(g50
g51
NtRp1635
(dp1636
g54
(dp1637
g62
I4
ssg63
g1631
sg56
(lp1638
g770
asbasbasbag49
(g65
g51
NtRp1639
(dp1640
g54
(dp1641
sg63
g588
sg56
(lp1642
g49
(g70
g51
NtRp1643
(dp1644
g54
(dp1645
g74
g75
ssg63
g1639
sg56
(lp1646
S'wsgi_url_scheme'
p1647
asbag49
(g70
g51
NtRp1648
(dp1649
g54
(dp1650
g81
g82
ssg63
g1639
sg56
(lp1651
S':'
asbag49
(g70
g51
NtRp1652
(dp1653
g54
(dp1654
sg63
g1639
sg56
(lp1655
g49
(g50
g51
NtRp1656
(dp1657
g54
(dp1658
g62
I4
ssg63
g1652
sg56
(lp1659
S'http'
p1660
asbasbasbag49
(g65
g51
NtRp1661
(dp1662
g54
(dp1663
sg63
g588
sg56
(lp1664
g49
(g70
g51
NtRp1665
(dp1666
g54
(dp1667
g74
g75
ssg63
g1661
sg56
(lp1668
S'wsgi_version'
p1669
asbag49
(g70
g51
NtRp1670
(dp1671
g54
(dp1672
g81
g82
ssg63
g1661
sg56
(lp1673
S':'
asbag49
(g70
g51
NtRp1674
(dp1675
g54
(dp1676
sg63
g1661
sg56
(lp1677
g49
(g50
g51
NtRp1678
(dp1679
g54
(dp1680
g62
I4
ssg63
g1674
sg56
(lp1681
g49
(g58
g51
NtRp1682
(dp1683
g54
(dp1684
g62
I3
ssg63
Nsg56
(lp1685
g49
(g65
g51
NtRp1686
(dp1687
g54
(dp1688
sg63
g1682
sg56
(lp1689
g49
(g70
g51
NtRp1690
(dp1691
g54
(dp1692
sg63
g1686
sg56
(lp1693
g49
(g50
g51
NtRp1694
(dp1695
g54
(dp1696
g62
I3
ssg63
g1690
sg56
(lp1697
S'1'
asbasbasbag49
(g65
g51
NtRp1698
(dp1699
g54
(dp1700
sg63
g1682
sg56
(lp1701
g49
(g70
g51
NtRp1702
(dp1703
g54
(dp1704
sg63
g1698
sg56
(lp1705
g49
(g50
g51
NtRp1706
(dp1707
g54
(dp1708
g62
I3
ssg63
g1702
sg56
(lp1709
S'0'
asbasbasbasbasbasbasbasbasbasbasbag49
(g65
g51
NtRp1710
(dp1711
g54
(dp1712
sg63
g59
sg56
(lp1713
g49
(g70
g51
NtRp1714
(dp1715
g54
(dp1716
g74
g75
ssg63
g1710
sg56
(lp1717
S'extension'
p1718
asbag49
(g70
g51
NtRp1719
(dp1720
g54
(dp1721
g81
g82
ssg63
g1710
sg56
(lp1722
S':'
asbag49
(g70
g51
NtRp1723
(dp1724
g54
(dp1725
sg63
g1710
sg56
(lp1726
g49
(g50
g51
NtRp1727
(dp1728
g54
(dp1729
g62
I5
ssg63
g1723
sg56
(lp1730
S'html'
p1731
asbasbasbag49
(g65
g51
NtRp1732
(dp1733
g54
(dp1734
sg63
g59
sg56
(lp1735
g49
(g70
g51
NtRp1736
(dp1737
g54
(dp1738
g74
g75
ssg63
g1732
sg56
(lp1739
S'folder'
p1740
asbag49
(g70
g51
NtRp1741
(dp1742
g54
(dp1743
g81
g82
ssg63
g1732
sg56
(lp1744
S':'
asbag49
(g70
g51
NtRp1745
(dp1746
g54
(dp1747
sg63
g1732
sg56
(lp1748
g49
(g50
g51
NtRp1749
(dp1750
g54
(dp1751
g62
I5
ssg63
g1745
sg56
(lp1752
S'/Users/udimilo/Documents/web2py/applications/udi0312/'
p1753
asbasbasbag49
(g65
g51
NtRp1754
(dp1755
g54
(dp1756
sg63
g59
sg56
(lp1757
g49
(g70
g51
NtRp1758
(dp1759
g54
(dp1760
g74
g75
ssg63
g1754
sg56
(lp1761
S'function'
p1762
asbag49
(g70
g51
NtRp1763
(dp1764
g54
(dp1765
g81
g82
ssg63
g1754
sg56
(lp1766
S':'
asbag49
(g70
g51
NtRp1767
(dp1768
g54
(dp1769
sg63
g1754
sg56
(lp1770
g49
(g50
g51
NtRp1771
(dp1772
g54
(dp1773
g62
I5
ssg63
g1767
sg56
(lp1774
S'add_board'
p1775
asbasbasbag49
(g65
g51
NtRp1776
(dp1777
g54
(dp1778
sg63
g59
sg56
(lp1779
g49
(g70
g51
NtRp1780
(dp1781
g54
(dp1782
g74
g75
ssg63
g1776
sg56
(lp1783
S'get_vars'
p1784
asbag49
(g70
g51
NtRp1785
(dp1786
g54
(dp1787
g81
g82
ssg63
g1776
sg56
(lp1788
S':'
asbag49
(g70
g51
NtRp1789
(dp1790
g54
(dp1791
sg63
g1776
sg56
(lp1792
g49
(g50
g51
NtRp1793
(dp1794
g54
(dp1795
g62
I5
ssg63
g1789
sg56
(lp1796
g49
(g58
g51
NtRp1797
(dp1798
g54
(dp1799
g62
I4
ssg63
Nsg56
(lp1800
sbasbasbasbag49
(g65
g51
NtRp1801
(dp1802
g54
(dp1803
sg63
g59
sg56
(lp1804
g49
(g70
g51
NtRp1805
(dp1806
g54
(dp1807
g74
g75
ssg63
g1801
sg56
(lp1808
S'global_settings'
p1809
asbag49
(g70
g51
NtRp1810
(dp1811
g54
(dp1812
g81
g82
ssg63
g1801
sg56
(lp1813
S':'
asbag49
(g70
g51
NtRp1814
(dp1815
g54
(dp1816
sg63
g1801
sg56
(lp1817
g49
(g50
g51
NtRp1818
(dp1819
g54
(dp1820
g62
I5
ssg63
g1814
sg56
(lp1821
g49
(g58
g51
NtRp1822
(dp1823
g54
(dp1824
g62
I4
ssg63
Nsg56
(lp1825
g49
(g65
g51
NtRp1826
(dp1827
g54
(dp1828
sg63
g1822
sg56
(lp1829
g49
(g70
g51
NtRp1830
(dp1831
g54
(dp1832
g74
g75
ssg63
g1826
sg56
(lp1833
g600
asbag49
(g70
g51
NtRp1834
(dp1835
g54
(dp1836
g81
g82
ssg63
g1826
sg56
(lp1837
S':'
asbag49
(g70
g51
NtRp1838
(dp1839
g54
(dp1840
sg63
g1826
sg56
(lp1841
g49
(g50
g51
NtRp1842
(dp1843
g54
(dp1844
g62
I4
ssg63
g1838
sg56
(lp1845
S"set(['/Users/udimilo/Documents/web2py/applications/udi0312/', '/Users/udimilo/Documents/web2py/applications/admin/'])"
p1846
asbasbasbag49
(g65
g51
NtRp1847
(dp1848
g54
(dp1849
sg63
g1822
sg56
(lp1850
g49
(g70
g51
NtRp1851
(dp1852
g54
(dp1853
g74
g75
ssg63
g1847
sg56
(lp1854
g622
asbag49
(g70
g51
NtRp1855
(dp1856
g54
(dp1857
g81
g82
ssg63
g1847
sg56
(lp1858
S':'
asbag49
(g70
g51
NtRp1859
(dp1860
g54
(dp1861
sg63
g1847
sg56
(lp1862
g49
(g50
g51
NtRp1863
(dp1864
g54
(dp1865
g62
I4
ssg63
g1859
sg56
(lp1866
g635
asbasbasbag49
(g65
g51
NtRp1867
(dp1868
g54
(dp1869
sg63
g1822
sg56
(lp1870
g49
(g70
g51
NtRp1871
(dp1872
g54
(dp1873
g74
g75
ssg63
g1867
sg56
(lp1874
g644
asbag49
(g70
g51
NtRp1875
(dp1876
g54
(dp1877
g81
g82
ssg63
g1867
sg56
(lp1878
S':'
asbag49
(g70
g51
NtRp1879
(dp1880
g54
(dp1881
sg63
g1867
sg56
(lp1882
g49
(g50
g51
NtRp1883
(dp1884
g54
(dp1885
g62
I4
ssg63
g1879
sg56
(lp1886
g49
(g58
g51
NtRp1887
(dp1888
g54
(dp1889
g62
I3
ssg63
Nsg56
(lp1890
sbasbasbasbag49
(g65
g51
NtRp1891
(dp1892
g54
(dp1893
sg63
g1822
sg56
(lp1894
g49
(g70
g51
NtRp1895
(dp1896
g54
(dp1897
g74
g75
ssg63
g1891
sg56
(lp1898
g669
asbag49
(g70
g51
NtRp1899
(dp1900
g54
(dp1901
g81
g82
ssg63
g1891
sg56
(lp1902
S':'
asbag49
(g70
g51
NtRp1903
(dp1904
g54
(dp1905
sg63
g1891
sg56
(lp1906
g49
(g50
g51
NtRp1907
(dp1908
g54
(dp1909
g62
I4
ssg63
g1903
sg56
(lp1910
S"<Values at 0x24300a8: {'verbose': False, 'ip': '127.0.0.1', 'shutdown_timeout': 5, 'taskbar': False, 'nocron': False, 'pid_filename': 'httpserver.pid', 'maxthreads': None, 'softcron': False, 'server_name': 'Udi-Milos-MacBook-Pro.local', 'bpython': False, 'nogui': False, 'port': 8000, 'extcron': False, 'debuglevel': 30, 'test': None, 'folder': '/Users/udimilo/Documents/web2py', 'config': '', 'import_models': False, 'winservice': '', 'shell': None, 'run': '', 'log_filename': 'httpserver.log', 'args': [''], 'socket_timeout': 5, 'ssl_ca_certificate': None, 'scheduler': None, 'profiler_filename': None, 'ssl_private_key': '', 'password': '<ask>', 'request_queue_size': 5, 'ssl_certificate': '', 'cronjob': False, 'numthreads': None, 'quiet': False, 'interfaces': None, 'minthreads': None, 'timeout': 10, 'plain': False, 'nobanner': False}>"
p1911
asbasbasbag49
(g65
g51
NtRp1912
(dp1913
g54
(dp1914
sg63
g1822
sg56
(lp1915
g49
(g70
g51
NtRp1916
(dp1917
g54
(dp1918
g74
g75
ssg63
g1912
sg56
(lp1919
g735
asbag49
(g70
g51
NtRp1920
(dp1921
g54
(dp1922
g81
g82
ssg63
g1912
sg56
(lp1923
S':'
asbag49
(g70
g51
NtRp1924
(dp1925
g54
(dp1926
sg63
g1912
sg56
(lp1927
g49
(g50
g51
NtRp1928
(dp1929
g54
(dp1930
g62
I4
ssg63
g1924
sg56
(lp1931
S'set([])'
p1932
asbasbasbag49
(g65
g51
NtRp1933
(dp1934
g54
(dp1935
sg63
g1822
sg56
(lp1936
g49
(g70
g51
NtRp1937
(dp1938
g54
(dp1939
g74
g75
ssg63
g1933
sg56
(lp1940
g757
asbag49
(g70
g51
NtRp1941
(dp1942
g54
(dp1943
g81
g82
ssg63
g1933
sg56
(lp1944
S':'
asbag49
(g70
g51
NtRp1945
(dp1946
g54
(dp1947
sg63
g1933
sg56
(lp1948
g49
(g50
g51
NtRp1949
(dp1950
g54
(dp1951
g62
I4
ssg63
g1945
sg56
(lp1952
g770
asbasbasbag49
(g65
g51
NtRp1953
(dp1954
g54
(dp1955
sg63
g1822
sg56
(lp1956
g49
(g70
g51
NtRp1957
(dp1958
g54
(dp1959
g74
g75
ssg63
g1953
sg56
(lp1960
g779
asbag49
(g70
g51
NtRp1961
(dp1962
g54
(dp1963
g81
g82
ssg63
g1953
sg56
(lp1964
S':'
asbag49
(g70
g51
NtRp1965
(dp1966
g54
(dp1967
sg63
g1953
sg56
(lp1968
g49
(g50
g51
NtRp1969
(dp1970
g54
(dp1971
g62
I4
ssg63
g1965
sg56
(lp1972
g792
asbasbasbag49
(g65
g51
NtRp1973
(dp1974
g54
(dp1975
sg63
g1822
sg56
(lp1976
g49
(g70
g51
NtRp1977
(dp1978
g54
(dp1979
g74
g75
ssg63
g1973
sg56
(lp1980
g1085
asbag49
(g70
g51
NtRp1981
(dp1982
g54
(dp1983
g81
g82
ssg63
g1973
sg56
(lp1984
S':'
asbag49
(g70
g51
NtRp1985
(dp1986
g54
(dp1987
sg63
g1973
sg56
(lp1988
g49
(g50
g51
NtRp1989
(dp1990
g54
(dp1991
g62
I4
ssg63
g1985
sg56
(lp1992
g770
asbasbasbag49
(g65
g51
NtRp1993
(dp1994
g54
(dp1995
sg63
g1822
sg56
(lp1996
g49
(g70
g51
NtRp1997
(dp1998
g54
(dp1999
g74
g75
ssg63
g1993
sg56
(lp2000
g1106
asbag49
(g70
g51
NtRp2001
(dp2002
g54
(dp2003
g81
g82
ssg63
g1993
sg56
(lp2004
S':'
asbag49
(g70
g51
NtRp2005
(dp2006
g54
(dp2007
sg63
g1993
sg56
(lp2008
g49
(g50
g51
NtRp2009
(dp2010
g54
(dp2011
g62
I4
ssg63
g2005
sg56
(lp2012
g770
asbasbasbag49
(g65
g51
NtRp2013
(dp2014
g54
(dp2015
sg63
g1822
sg56
(lp2016
g49
(g70
g51
NtRp2017
(dp2018
g54
(dp2019
g74
g75
ssg63
g2013
sg56
(lp2020
g1366
asbag49
(g70
g51
NtRp2021
(dp2022
g54
(dp2023
g81
g82
ssg63
g2013
sg56
(lp2024
S':'
asbag49
(g70
g51
NtRp2025
(dp2026
g54
(dp2027
sg63
g2013
sg56
(lp2028
g49
(g50
g51
NtRp2029
(dp2030
g54
(dp2031
g62
I4
ssg63
g2025
sg56
(lp2032
g1379
asbasbasbag49
(g65
g51
NtRp2033
(dp2034
g54
(dp2035
sg63
g1822
sg56
(lp2036
g49
(g70
g51
NtRp2037
(dp2038
g54
(dp2039
g74
g75
ssg63
g2033
sg56
(lp2040
g1430
asbag49
(g70
g51
NtRp2041
(dp2042
g54
(dp2043
g81
g82
ssg63
g2033
sg56
(lp2044
S':'
asbag49
(g70
g51
NtRp2045
(dp2046
g54
(dp2047
sg63
g2033
sg56
(lp2048
g49
(g50
g51
NtRp2049
(dp2050
g54
(dp2051
g62
I4
ssg63
g2045
sg56
(lp2052
g49
(g58
g51
NtRp2053
(dp2054
g54
(dp2055
g62
I3
ssg63
Nsg56
(lp2056
g49
(g65
g51
NtRp2057
(dp2058
g54
(dp2059
sg63
g2053
sg56
(lp2060
g49
(g70
g51
NtRp2061
(dp2062
g54
(dp2063
sg63
g2057
sg56
(lp2064
g49
(g50
g51
NtRp2065
(dp2066
g54
(dp2067
g62
I3
ssg63
g2061
sg56
(lp2068
S'1'
asbasbasbag49
(g65
g51
NtRp2069
(dp2070
g54
(dp2071
sg63
g2053
sg56
(lp2072
g49
(g70
g51
NtRp2073
(dp2074
g54
(dp2075
sg63
g2069
sg56
(lp2076
g49
(g50
g51
NtRp2077
(dp2078
g54
(dp2079
g62
I3
ssg63
g2073
sg56
(lp2080
S'99'
p2081
asbasbasbag49
(g65
g51
NtRp2082
(dp2083
g54
(dp2084
sg63
g2053
sg56
(lp2085
g49
(g70
g51
NtRp2086
(dp2087
g54
(dp2088
sg63
g2082
sg56
(lp2089
g49
(g50
g51
NtRp2090
(dp2091
g54
(dp2092
g62
I3
ssg63
g2086
sg56
(lp2093
S'7'
asbasbasbag49
(g65
g51
NtRp2094
(dp2095
g54
(dp2096
sg63
g2053
sg56
(lp2097
g49
(g70
g51
NtRp2098
(dp2099
g54
(dp2100
sg63
g2094
sg56
(lp2101
g49
(g50
g51
NtRp2102
(dp2103
g54
(dp2104
g62
I3
ssg63
g2098
sg56
(lp2105
S'datetime.datetime(2012, 3, 4, 22, 12, 8)'
p2106
asbasbasbag49
(g65
g51
NtRp2107
(dp2108
g54
(dp2109
sg63
g2053
sg56
(lp2110
g49
(g70
g51
NtRp2111
(dp2112
g54
(dp2113
sg63
g2107
sg56
(lp2114
g49
(g50
g51
NtRp2115
(dp2116
g54
(dp2117
g62
I3
ssg63
g2111
sg56
(lp2118
g1509
asbasbasbasbasbasbasbasbasbasbasbag49
(g65
g51
NtRp2119
(dp2120
g54
(dp2121
sg63
g59
sg56
(lp2122
g49
(g70
g51
NtRp2123
(dp2124
g54
(dp2125
g74
g75
ssg63
g2119
sg56
(lp2126
S'is_https'
p2127
asbag49
(g70
g51
NtRp2128
(dp2129
g54
(dp2130
g81
g82
ssg63
g2119
sg56
(lp2131
S':'
asbag49
(g70
g51
NtRp2132
(dp2133
g54
(dp2134
sg63
g2119
sg56
(lp2135
g49
(g50
g51
NtRp2136
(dp2137
g54
(dp2138
g62
I5
ssg63
g2132
sg56
(lp2139
g770
asbasbasbag49
(g65
g51
NtRp2140
(dp2141
g54
(dp2142
sg63
g59
sg56
(lp2143
g49
(g70
g51
NtRp2144
(dp2145
g54
(dp2146
g74
g75
ssg63
g2140
sg56
(lp2147
S'is_local'
p2148
asbag49
(g70
g51
NtRp2149
(dp2150
g54
(dp2151
g81
g82
ssg63
g2140
sg56
(lp2152
S':'
asbag49
(g70
g51
NtRp2153
(dp2154
g54
(dp2155
sg63
g2140
sg56
(lp2156
g49
(g50
g51
NtRp2157
(dp2158
g54
(dp2159
g62
I5
ssg63
g2153
sg56
(lp2160
g92
asbasbasbag49
(g65
g51
NtRp2161
(dp2162
g54
(dp2163
sg63
g59
sg56
(lp2164
g49
(g70
g51
NtRp2165
(dp2166
g54
(dp2167
g74
g75
ssg63
g2161
sg56
(lp2168
S'is_restful'
p2169
asbag49
(g70
g51
NtRp2170
(dp2171
g54
(dp2172
g81
g82
ssg63
g2161
sg56
(lp2173
S':'
asbag49
(g70
g51
NtRp2174
(dp2175
g54
(dp2176
sg63
g2161
sg56
(lp2177
g49
(g50
g51
NtRp2178
(dp2179
g54
(dp2180
g62
I5
ssg63
g2174
sg56
(lp2181
g770
asbasbasbag49
(g65
g51
NtRp2182
(dp2183
g54
(dp2184
sg63
g59
sg56
(lp2185
g49
(g70
g51
NtRp2186
(dp2187
g54
(dp2188
g74
g75
ssg63
g2182
sg56
(lp2189
S'now'
p2190
asbag49
(g70
g51
NtRp2191
(dp2192
g54
(dp2193
g81
g82
ssg63
g2182
sg56
(lp2194
S':'
asbag49
(g70
g51
NtRp2195
(dp2196
g54
(dp2197
sg63
g2182
sg56
(lp2198
g49
(g50
g51
NtRp2199
(dp2200
g54
(dp2201
g62
I5
ssg63
g2195
sg56
(lp2202
S'datetime.datetime(2012, 3, 15, 23, 6, 54, 279422)'
p2203
asbasbasbag49
(g65
g51
NtRp2204
(dp2205
g54
(dp2206
sg63
g59
sg56
(lp2207
g49
(g70
g51
NtRp2208
(dp2209
g54
(dp2210
g74
g75
ssg63
g2204
sg56
(lp2211
S'post_vars'
p2212
asbag49
(g70
g51
NtRp2213
(dp2214
g54
(dp2215
g81
g82
ssg63
g2204
sg56
(lp2216
S':'
asbag49
(g70
g51
NtRp2217
(dp2218
g54
(dp2219
sg63
g2204
sg56
(lp2220
g49
(g50
g51
NtRp2221
(dp2222
g54
(dp2223
g62
I5
ssg63
g2217
sg56
(lp2224
g49
(g58
g51
NtRp2225
(dp2226
g54
(dp2227
g62
I4
ssg63
Nsg56
(lp2228
g49
(g65
g51
NtRp2229
(dp2230
g54
(dp2231
sg63
g2225
sg56
(lp2232
g49
(g70
g51
NtRp2233
(dp2234
g54
(dp2235
g74
g75
ssg63
g2229
sg56
(lp2236
S'boardName'
p2237
asbag49
(g70
g51
NtRp2238
(dp2239
g54
(dp2240
g81
g82
ssg63
g2229
sg56
(lp2241
S':'
asbag49
(g70
g51
NtRp2242
(dp2243
g54
(dp2244
sg63
g2229
sg56
(lp2245
g49
(g50
g51
NtRp2246
(dp2247
g54
(dp2248
g62
I4
ssg63
g2242
sg56
(lp2249
S'<'
asbasbasbag49
(g65
g51
NtRp2250
(dp2251
g54
(dp2252
sg63
g2225
sg56
(lp2253
g49
(g70
g51
NtRp2254
(dp2255
g54
(dp2256
g74
g75
ssg63
g2250
sg56
(lp2257
S'category'
p2258
asbag49
(g70
g51
NtRp2259
(dp2260
g54
(dp2261
g81
g82
ssg63
g2250
sg56
(lp2262
S':'
asbag49
(g70
g51
NtRp2263
(dp2264
g54
(dp2265
sg63
g2250
sg56
(lp2266
g49
(g50
g51
NtRp2267
(dp2268
g54
(dp2269
g62
I4
ssg63
g2263
sg56
(lp2270
S'ad tech'
p2271
asbasbasbasbasbasbasbag49
(g65
g51
NtRp2272
(dp2273
g54
(dp2274
sg63
g59
sg56
(lp2275
g49
(g70
g51
NtRp2276
(dp2277
g54
(dp2278
g74
g75
ssg63
g2272
sg56
(lp2279
S'url'
p2280
asbag49
(g70
g51
NtRp2281
(dp2282
g54
(dp2283
g81
g82
ssg63
g2272
sg56
(lp2284
S':'
asbag49
(g70
g51
NtRp2285
(dp2286
g54
(dp2287
sg63
g2272
sg56
(lp2288
g49
(g50
g51
NtRp2289
(dp2290
g54
(dp2291
g62
I5
ssg63
g2285
sg56
(lp2292
S'/add_board'
p2293
asbasbasbag49
(g65
g51
NtRp2294
(dp2295
g54
(dp2296
sg63
g59
sg56
(lp2297
g49
(g70
g51
NtRp2298
(dp2299
g54
(dp2300
g74
g75
ssg63
g2294
sg56
(lp2301
S'utcnow'
p2302
asbag49
(g70
g51
NtRp2303
(dp2304
g54
(dp2305
g81
g82
ssg63
g2294
sg56
(lp2306
S':'
asbag49
(g70
g51
NtRp2307
(dp2308
g54
(dp2309
sg63
g2294
sg56
(lp2310
g49
(g50
g51
NtRp2311
(dp2312
g54
(dp2313
g62
I5
ssg63
g2307
sg56
(lp2314
S'datetime.datetime(2012, 3, 16, 3, 6, 54, 279439)'
p2315
asbasbasbag49
(g65
g51
NtRp2316
(dp2317
g54
(dp2318
sg63
g59
sg56
(lp2319
g49
(g70
g51
NtRp2320
(dp2321
g54
(dp2322
g74
g75
ssg63
g2316
sg56
(lp2323
S'uuid'
p2324
asbag49
(g70
g51
NtRp2325
(dp2326
g54
(dp2327
g81
g82
ssg63
g2316
sg56
(lp2328
S':'
asbag49
(g70
g51
NtRp2329
(dp2330
g54
(dp2331
sg63
g2316
sg56
(lp2332
g49
(g50
g51
NtRp2333
(dp2334
g54
(dp2335
g62
I5
ssg63
g2329
sg56
(lp2336
S'udi0312/127.0.0.1.2012-03-15.23-06-54.51092456-bf02-4074-ab36-d3517b75c076'
p2337
asbasbasbag49
(g65
g51
NtRp2338
(dp2339
g54
(dp2340
sg63
g59
sg56
(lp2341
g49
(g70
g51
NtRp2342
(dp2343
g54
(dp2344
g74
g75
ssg63
g2338
sg56
(lp2345
S'vars'
p2346
asbag49
(g70
g51
NtRp2347
(dp2348
g54
(dp2349
g81
g82
ssg63
g2338
sg56
(lp2350
S':'
asbag49
(g70
g51
NtRp2351
(dp2352
g54
(dp2353
sg63
g2338
sg56
(lp2354
g49
(g50
g51
NtRp2355
(dp2356
g54
(dp2357
g62
I5
ssg63
g2351
sg56
(lp2358
g49
(g58
g51
NtRp2359
(dp2360
g54
(dp2361
g62
I4
ssg63
Nsg56
(lp2362
g49
(g65
g51
NtRp2363
(dp2364
g54
(dp2365
sg63
g2359
sg56
(lp2366
g49
(g70
g51
NtRp2367
(dp2368
g54
(dp2369
g74
g75
ssg63
g2363
sg56
(lp2370
g2237
asbag49
(g70
g51
NtRp2371
(dp2372
g54
(dp2373
g81
g82
ssg63
g2363
sg56
(lp2374
S':'
asbag49
(g70
g51
NtRp2375
(dp2376
g54
(dp2377
sg63
g2363
sg56
(lp2378
g49
(g50
g51
NtRp2379
(dp2380
g54
(dp2381
g62
I4
ssg63
g2375
sg56
(lp2382
S'<'
asbasbasbag49
(g65
g51
NtRp2383
(dp2384
g54
(dp2385
sg63
g2359
sg56
(lp2386
g49
(g70
g51
NtRp2387
(dp2388
g54
(dp2389
g74
g75
ssg63
g2383
sg56
(lp2390
g2258
asbag49
(g70
g51
NtRp2391
(dp2392
g54
(dp2393
g81
g82
ssg63
g2383
sg56
(lp2394
S':'
asbag49
(g70
g51
NtRp2395
(dp2396
g54
(dp2397
sg63
g2383
sg56
(lp2398
g49
(g50
g51
NtRp2399
(dp2400
g54
(dp2401
g62
I4
ssg63
g2395
sg56
(lp2402
g2271
asbasbasbasbasbasbasbag49
(g65
g51
NtRp2403
(dp2404
g54
(dp2405
sg63
g59
sg56
(lp2406
g49
(g70
g51
NtRp2407
(dp2408
g54
(dp2409
g74
g75
ssg63
g2403
sg56
(lp2410
S'wsgi'
p2411
asbag49
(g70
g51
NtRp2412
(dp2413
g54
(dp2414
g81
g82
ssg63
g2403
sg56
(lp2415
S':'
asbag49
(g70
g51
NtRp2416
(dp2417
g54
(dp2418
sg63
g2403
sg56
(lp2419
g49
(g50
g51
NtRp2420
(dp2421
g54
(dp2422
g62
I5
ssg63
g2416
sg56
(lp2423
g49
(g58
g51
NtRp2424
(dp2425
g54
(dp2426
g62
I4
ssg63
Nsg56
(lp2427
g49
(g65
g51
NtRp2428
(dp2429
g54
(dp2430
sg63
g2424
sg56
(lp2431
g49
(g70
g51
NtRp2432
(dp2433
g54
(dp2434
g74
g75
ssg63
g2428
sg56
(lp2435
S'environ'
p2436
asbag49
(g70
g51
NtRp2437
(dp2438
g54
(dp2439
g81
g82
ssg63
g2428
sg56
(lp2440
S':'
asbag49
(g70
g51
NtRp2441
(dp2442
g54
(dp2443
sg63
g2428
sg56
(lp2444
g49
(g50
g51
NtRp2445
(dp2446
g54
(dp2447
g62
I4
ssg63
g2441
sg56
(lp2448
g49
(g58
g51
NtRp2449
(dp2450
g54
(dp2451
g62
I3
ssg63
Nsg56
(lp2452
g49
(g65
g51
NtRp2453
(dp2454
g54
(dp2455
sg63
g2449
sg56
(lp2456
g49
(g70
g51
NtRp2457
(dp2458
g54
(dp2459
g74
g75
ssg63
g2453
sg56
(lp2460
S'CONTENT_LENGTH'
p2461
asbag49
(g70
g51
NtRp2462
(dp2463
g54
(dp2464
g81
g82
ssg63
g2453
sg56
(lp2465
S':'
asbag49
(g70
g51
NtRp2466
(dp2467
g54
(dp2468
sg63
g2453
sg56
(lp2469
g49
(g50
g51
NtRp2470
(dp2471
g54
(dp2472
g62
I3
ssg63
g2466
sg56
(lp2473
g704
asbasbasbag49
(g65
g51
NtRp2474
(dp2475
g54
(dp2476
sg63
g2449
sg56
(lp2477
g49
(g70
g51
NtRp2478
(dp2479
g54
(dp2480
g74
g75
ssg63
g2474
sg56
(lp2481
S'CONTENT_TYPE'
p2482
asbag49
(g70
g51
NtRp2483
(dp2484
g54
(dp2485
g81
g82
ssg63
g2474
sg56
(lp2486
S':'
asbag49
(g70
g51
NtRp2487
(dp2488
g54
(dp2489
sg63
g2474
sg56
(lp2490
g49
(g50
g51
NtRp2491
(dp2492
g54
(dp2493
g62
I3
ssg63
g2487
sg56
(lp2494
g726
asbasbasbag49
(g65
g51
NtRp2495
(dp2496
g54
(dp2497
sg63
g2449
sg56
(lp2498
g49
(g70
g51
NtRp2499
(dp2500
g54
(dp2501
g74
g75
ssg63
g2495
sg56
(lp2502
S'HTTP_ACCEPT'
p2503
asbag49
(g70
g51
NtRp2504
(dp2505
g54
(dp2506
g81
g82
ssg63
g2495
sg56
(lp2507
S':'
asbag49
(g70
g51
NtRp2508
(dp2509
g54
(dp2510
sg63
g2495
sg56
(lp2511
g49
(g50
g51
NtRp2512
(dp2513
g54
(dp2514
g62
I3
ssg63
g2508
sg56
(lp2515
g814
asbasbasbag49
(g65
g51
NtRp2516
(dp2517
g54
(dp2518
sg63
g2449
sg56
(lp2519
g49
(g70
g51
NtRp2520
(dp2521
g54
(dp2522
g74
g75
ssg63
g2516
sg56
(lp2523
S'HTTP_ACCEPT_CHARSET'
p2524
asbag49
(g70
g51
NtRp2525
(dp2526
g54
(dp2527
g81
g82
ssg63
g2516
sg56
(lp2528
S':'
asbag49
(g70
g51
NtRp2529
(dp2530
g54
(dp2531
sg63
g2516
sg56
(lp2532
g49
(g50
g51
NtRp2533
(dp2534
g54
(dp2535
g62
I3
ssg63
g2529
sg56
(lp2536
g836
asbasbasbag49
(g65
g51
NtRp2537
(dp2538
g54
(dp2539
sg63
g2449
sg56
(lp2540
g49
(g70
g51
NtRp2541
(dp2542
g54
(dp2543
g74
g75
ssg63
g2537
sg56
(lp2544
S'HTTP_ACCEPT_ENCODING'
p2545
asbag49
(g70
g51
NtRp2546
(dp2547
g54
(dp2548
g81
g82
ssg63
g2537
sg56
(lp2549
S':'
asbag49
(g70
g51
NtRp2550
(dp2551
g54
(dp2552
sg63
g2537
sg56
(lp2553
g49
(g50
g51
NtRp2554
(dp2555
g54
(dp2556
g62
I3
ssg63
g2550
sg56
(lp2557
g858
asbasbasbag49
(g65
g51
NtRp2558
(dp2559
g54
(dp2560
sg63
g2449
sg56
(lp2561
g49
(g70
g51
NtRp2562
(dp2563
g54
(dp2564
g74
g75
ssg63
g2558
sg56
(lp2565
S'HTTP_ACCEPT_LANGUAGE'
p2566
asbag49
(g70
g51
NtRp2567
(dp2568
g54
(dp2569
g81
g82
ssg63
g2558
sg56
(lp2570
S':'
asbag49
(g70
g51
NtRp2571
(dp2572
g54
(dp2573
sg63
g2558
sg56
(lp2574
g49
(g50
g51
NtRp2575
(dp2576
g54
(dp2577
g62
I3
ssg63
g2571
sg56
(lp2578
g880
asbasbasbag49
(g65
g51
NtRp2579
(dp2580
g54
(dp2581
sg63
g2449
sg56
(lp2582
g49
(g70
g51
NtRp2583
(dp2584
g54
(dp2585
g74
g75
ssg63
g2579
sg56
(lp2586
S'HTTP_CONNECTION'
p2587
asbag49
(g70
g51
NtRp2588
(dp2589
g54
(dp2590
g81
g82
ssg63
g2579
sg56
(lp2591
S':'
asbag49
(g70
g51
NtRp2592
(dp2593
g54
(dp2594
sg63
g2579
sg56
(lp2595
g49
(g50
g51
NtRp2596
(dp2597
g54
(dp2598
g62
I3
ssg63
g2592
sg56
(lp2599
g902
asbasbasbag49
(g65
g51
NtRp2600
(dp2601
g54
(dp2602
sg63
g2449
sg56
(lp2603
g49
(g70
g51
NtRp2604
(dp2605
g54
(dp2606
g74
g75
ssg63
g2600
sg56
(lp2607
S'HTTP_CONTENT_LENGTH'
p2608
asbag49
(g70
g51
NtRp2609
(dp2610
g54
(dp2611
g81
g82
ssg63
g2600
sg56
(lp2612
S':'
asbag49
(g70
g51
NtRp2613
(dp2614
g54
(dp2615
sg63
g2600
sg56
(lp2616
g49
(g50
g51
NtRp2617
(dp2618
g54
(dp2619
g62
I3
ssg63
g2613
sg56
(lp2620
g704
asbasbasbag49
(g65
g51
NtRp2621
(dp2622
g54
(dp2623
sg63
g2449
sg56
(lp2624
g49
(g70
g51
NtRp2625
(dp2626
g54
(dp2627
g74
g75
ssg63
g2621
sg56
(lp2628
S'HTTP_CONTENT_TYPE'
p2629
asbag49
(g70
g51
NtRp2630
(dp2631
g54
(dp2632
g81
g82
ssg63
g2621
sg56
(lp2633
S':'
asbag49
(g70
g51
NtRp2634
(dp2635
g54
(dp2636
sg63
g2621
sg56
(lp2637
g49
(g50
g51
NtRp2638
(dp2639
g54
(dp2640
g62
I3
ssg63
g2634
sg56
(lp2641
g726
asbasbasbag49
(g65
g51
NtRp2642
(dp2643
g54
(dp2644
sg63
g2449
sg56
(lp2645
g49
(g70
g51
NtRp2646
(dp2647
g54
(dp2648
g74
g75
ssg63
g2642
sg56
(lp2649
S'HTTP_COOKIE'
p2650
asbag49
(g70
g51
NtRp2651
(dp2652
g54
(dp2653
g81
g82
ssg63
g2642
sg56
(lp2654
S':'
asbag49
(g70
g51
NtRp2655
(dp2656
g54
(dp2657
sg63
g2642
sg56
(lp2658
g49
(g50
g51
NtRp2659
(dp2660
g54
(dp2661
g62
I3
ssg63
g2655
sg56
(lp2662
g966
asbasbasbag49
(g65
g51
NtRp2663
(dp2664
g54
(dp2665
sg63
g2449
sg56
(lp2666
g49
(g70
g51
NtRp2667
(dp2668
g54
(dp2669
g74
g75
ssg63
g2663
sg56
(lp2670
S'HTTP_HOST'
p2671
asbag49
(g70
g51
NtRp2672
(dp2673
g54
(dp2674
g81
g82
ssg63
g2663
sg56
(lp2675
S':'
asbag49
(g70
g51
NtRp2676
(dp2677
g54
(dp2678
sg63
g2663
sg56
(lp2679
g49
(g50
g51
NtRp2680
(dp2681
g54
(dp2682
g62
I3
ssg63
g2676
sg56
(lp2683
g988
asbasbasbag49
(g65
g51
NtRp2684
(dp2685
g54
(dp2686
sg63
g2449
sg56
(lp2687
g49
(g70
g51
NtRp2688
(dp2689
g54
(dp2690
g74
g75
ssg63
g2684
sg56
(lp2691
S'HTTP_ORIGIN'
p2692
asbag49
(g70
g51
NtRp2693
(dp2694
g54
(dp2695
g81
g82
ssg63
g2684
sg56
(lp2696
S':'
asbag49
(g70
g51
NtRp2697
(dp2698
g54
(dp2699
sg63
g2684
sg56
(lp2700
g49
(g50
g51
NtRp2701
(dp2702
g54
(dp2703
g62
I3
ssg63
g2697
sg56
(lp2704
g1010
asbasbasbag49
(g65
g51
NtRp2705
(dp2706
g54
(dp2707
sg63
g2449
sg56
(lp2708
g49
(g70
g51
NtRp2709
(dp2710
g54
(dp2711
g74
g75
ssg63
g2705
sg56
(lp2712
S'HTTP_REFERER'
p2713
asbag49
(g70
g51
NtRp2714
(dp2715
g54
(dp2716
g81
g82
ssg63
g2705
sg56
(lp2717
S':'
asbag49
(g70
g51
NtRp2718
(dp2719
g54
(dp2720
sg63
g2705
sg56
(lp2721
g49
(g50
g51
NtRp2722
(dp2723
g54
(dp2724
g62
I3
ssg63
g2718
sg56
(lp2725
g1032
asbasbasbag49
(g65
g51
NtRp2726
(dp2727
g54
(dp2728
sg63
g2449
sg56
(lp2729
g49
(g70
g51
NtRp2730
(dp2731
g54
(dp2732
g74
g75
ssg63
g2726
sg56
(lp2733
S'HTTP_USER_AGENT'
p2734
asbag49
(g70
g51
NtRp2735
(dp2736
g54
(dp2737
g81
g82
ssg63
g2726
sg56
(lp2738
S':'
asbag49
(g70
g51
NtRp2739
(dp2740
g54
(dp2741
sg63
g2726
sg56
(lp2742
g49
(g50
g51
NtRp2743
(dp2744
g54
(dp2745
g62
I3
ssg63
g2739
sg56
(lp2746
g1054
asbasbasbag49
(g65
g51
NtRp2747
(dp2748
g54
(dp2749
sg63
g2449
sg56
(lp2750
g49
(g70
g51
NtRp2751
(dp2752
g54
(dp2753
g74
g75
ssg63
g2747
sg56
(lp2754
S'HTTP_X_REQUESTED_WITH'
p2755
asbag49
(g70
g51
NtRp2756
(dp2757
g54
(dp2758
g81
g82
ssg63
g2747
sg56
(lp2759
S':'
asbag49
(g70
g51
NtRp2760
(dp2761
g54
(dp2762
sg63
g2747
sg56
(lp2763
g49
(g50
g51
NtRp2764
(dp2765
g54
(dp2766
g62
I3
ssg63
g2760
sg56
(lp2767
g1076
asbasbasbag49
(g65
g51
NtRp2768
(dp2769
g54
(dp2770
sg63
g2449
sg56
(lp2771
g49
(g70
g51
NtRp2772
(dp2773
g54
(dp2774
g74
g75
ssg63
g2768
sg56
(lp2775
S'PATH_INFO'
p2776
asbag49
(g70
g51
NtRp2777
(dp2778
g54
(dp2779
g81
g82
ssg63
g2768
sg56
(lp2780
S':'
asbag49
(g70
g51
NtRp2781
(dp2782
g54
(dp2783
sg63
g2768
sg56
(lp2784
g49
(g50
g51
NtRp2785
(dp2786
g54
(dp2787
g62
I3
ssg63
g2781
sg56
(lp2788
g1140
asbasbasbag49
(g65
g51
NtRp2789
(dp2790
g54
(dp2791
sg63
g2449
sg56
(lp2792
g49
(g70
g51
NtRp2793
(dp2794
g54
(dp2795
g74
g75
ssg63
g2789
sg56
(lp2796
S'QUERY_STRING'
p2797
asbag49
(g70
g51
NtRp2798
(dp2799
g54
(dp2800
g81
g82
ssg63
g2789
sg56
(lp2801
S':'
asbag49
(g70
g51
NtRp2802
(dp2803
g54
(dp2804
sg63
g2789
sg56
(lp2805
g49
(g50
g51
NtRp2806
(dp2807
g54
(dp2808
g62
I3
ssg63
g2802
sg56
(lp2809
S''
asbasbasbag49
(g65
g51
NtRp2810
(dp2811
g54
(dp2812
sg63
g2449
sg56
(lp2813
g49
(g70
g51
NtRp2814
(dp2815
g54
(dp2816
g74
g75
ssg63
g2810
sg56
(lp2817
S'REMOTE_ADDR'
p2818
asbag49
(g70
g51
NtRp2819
(dp2820
g54
(dp2821
g81
g82
ssg63
g2810
sg56
(lp2822
S':'
asbag49
(g70
g51
NtRp2823
(dp2824
g54
(dp2825
sg63
g2810
sg56
(lp2826
g49
(g50
g51
NtRp2827
(dp2828
g54
(dp2829
g62
I3
ssg63
g2823
sg56
(lp2830
g182
asbasbasbag49
(g65
g51
NtRp2831
(dp2832
g54
(dp2833
sg63
g2449
sg56
(lp2834
g49
(g70
g51
NtRp2835
(dp2836
g54
(dp2837
g74
g75
ssg63
g2831
sg56
(lp2838
S'REMOTE_PORT'
p2839
asbag49
(g70
g51
NtRp2840
(dp2841
g54
(dp2842
g81
g82
ssg63
g2831
sg56
(lp2843
S':'
asbag49
(g70
g51
NtRp2844
(dp2845
g54
(dp2846
sg63
g2831
sg56
(lp2847
g49
(g50
g51
NtRp2848
(dp2849
g54
(dp2850
g62
I3
ssg63
g2844
sg56
(lp2851
g1204
asbasbasbag49
(g65
g51
NtRp2852
(dp2853
g54
(dp2854
sg63
g2449
sg56
(lp2855
g49
(g70
g51
NtRp2856
(dp2857
g54
(dp2858
g74
g75
ssg63
g2852
sg56
(lp2859
S'REQUEST_METHOD'
p2860
asbag49
(g70
g51
NtRp2861
(dp2862
g54
(dp2863
g81
g82
ssg63
g2852
sg56
(lp2864
S':'
asbag49
(g70
g51
NtRp2865
(dp2866
g54
(dp2867
sg63
g2852
sg56
(lp2868
g49
(g50
g51
NtRp2869
(dp2870
g54
(dp2871
g62
I3
ssg63
g2865
sg56
(lp2872
g1226
asbasbasbag49
(g65
g51
NtRp2873
(dp2874
g54
(dp2875
sg63
g2449
sg56
(lp2876
g49
(g70
g51
NtRp2877
(dp2878
g54
(dp2879
g74
g75
ssg63
g2873
sg56
(lp2880
S'REQUEST_URI'
p2881
asbag49
(g70
g51
NtRp2882
(dp2883
g54
(dp2884
g81
g82
ssg63
g2873
sg56
(lp2885
S':'
asbag49
(g70
g51
NtRp2886
(dp2887
g54
(dp2888
sg63
g2873
sg56
(lp2889
g49
(g50
g51
NtRp2890
(dp2891
g54
(dp2892
g62
I3
ssg63
g2886
sg56
(lp2893
g1248
asbasbasbag49
(g65
g51
NtRp2894
(dp2895
g54
(dp2896
sg63
g2449
sg56
(lp2897
g49
(g70
g51
NtRp2898
(dp2899
g54
(dp2900
g74
g75
ssg63
g2894
sg56
(lp2901
S'SCRIPT_NAME'
p2902
asbag49
(g70
g51
NtRp2903
(dp2904
g54
(dp2905
g81
g82
ssg63
g2894
sg56
(lp2906
S':'
asbag49
(g70
g51
NtRp2907
(dp2908
g54
(dp2909
sg63
g2894
sg56
(lp2910
g49
(g50
g51
NtRp2911
(dp2912
g54
(dp2913
g62
I3
ssg63
g2907
sg56
(lp2914
S''
asbasbasbag49
(g65
g51
NtRp2915
(dp2916
g54
(dp2917
sg63
g2449
sg56
(lp2918
g49
(g70
g51
NtRp2919
(dp2920
g54
(dp2921
g74
g75
ssg63
g2915
sg56
(lp2922
S'SERVER_NAME'
p2923
asbag49
(g70
g51
NtRp2924
(dp2925
g54
(dp2926
g81
g82
ssg63
g2915
sg56
(lp2927
S':'
asbag49
(g70
g51
NtRp2928
(dp2929
g54
(dp2930
sg63
g2915
sg56
(lp2931
g49
(g50
g51
NtRp2932
(dp2933
g54
(dp2934
g62
I3
ssg63
g2928
sg56
(lp2935
g1291
asbasbasbag49
(g65
g51
NtRp2936
(dp2937
g54
(dp2938
sg63
g2449
sg56
(lp2939
g49
(g70
g51
NtRp2940
(dp2941
g54
(dp2942
g74
g75
ssg63
g2936
sg56
(lp2943
S'SERVER_PORT'
p2944
asbag49
(g70
g51
NtRp2945
(dp2946
g54
(dp2947
g81
g82
ssg63
g2936
sg56
(lp2948
S':'
asbag49
(g70
g51
NtRp2949
(dp2950
g54
(dp2951
sg63
g2936
sg56
(lp2952
g49
(g50
g51
NtRp2953
(dp2954
g54
(dp2955
g62
I3
ssg63
g2949
sg56
(lp2956
g1313
asbasbasbag49
(g65
g51
NtRp2957
(dp2958
g54
(dp2959
sg63
g2449
sg56
(lp2960
g49
(g70
g51
NtRp2961
(dp2962
g54
(dp2963
g74
g75
ssg63
g2957
sg56
(lp2964
S'SERVER_PROTOCOL'
p2965
asbag49
(g70
g51
NtRp2966
(dp2967
g54
(dp2968
g81
g82
ssg63
g2957
sg56
(lp2969
S':'
asbag49
(g70
g51
NtRp2970
(dp2971
g54
(dp2972
sg63
g2957
sg56
(lp2973
g49
(g50
g51
NtRp2974
(dp2975
g54
(dp2976
g62
I3
ssg63
g2970
sg56
(lp2977
g1335
asbasbasbag49
(g65
g51
NtRp2978
(dp2979
g54
(dp2980
sg63
g2449
sg56
(lp2981
g49
(g70
g51
NtRp2982
(dp2983
g54
(dp2984
g74
g75
ssg63
g2978
sg56
(lp2985
S'SERVER_SOFTWARE'
p2986
asbag49
(g70
g51
NtRp2987
(dp2988
g54
(dp2989
g81
g82
ssg63
g2978
sg56
(lp2990
S':'
asbag49
(g70
g51
NtRp2991
(dp2992
g54
(dp2993
sg63
g2978
sg56
(lp2994
g49
(g50
g51
NtRp2995
(dp2996
g54
(dp2997
g62
I3
ssg63
g2991
sg56
(lp2998
g1357
asbasbasbag49
(g65
g51
NtRp2999
(dp3000
g54
(dp3001
sg63
g2449
sg56
(lp3002
g49
(g70
g51
NtRp3003
(dp3004
g54
(dp3005
g74
g75
ssg63
g2999
sg56
(lp3006
S'WEB2PY_ORIGINAL_URI'
p3007
asbag49
(g70
g51
NtRp3008
(dp3009
g54
(dp3010
g81
g82
ssg63
g2999
sg56
(lp3011
S':'
asbag49
(g70
g51
NtRp3012
(dp3013
g54
(dp3014
sg63
g2999
sg56
(lp3015
g49
(g50
g51
NtRp3016
(dp3017
g54
(dp3018
g62
I3
ssg63
g3012
sg56
(lp3019
g1140
asbasbasbag49
(g65
g51
NtRp3020
(dp3021
g54
(dp3022
sg63
g2449
sg56
(lp3023
g49
(g70
g51
NtRp3024
(dp3025
g54
(dp3026
g74
g75
ssg63
g3020
sg56
(lp3027
S'wsgi.errors'
p3028
asbag49
(g70
g51
NtRp3029
(dp3030
g54
(dp3031
g81
g82
ssg63
g3020
sg56
(lp3032
S':'
asbag49
(g70
g51
NtRp3033
(dp3034
g54
(dp3035
sg63
g3020
sg56
(lp3036
g49
(g50
g51
NtRp3037
(dp3038
g54
(dp3039
g62
I3
ssg63
g3033
sg56
(lp3040
S"<open file '<stderr>', mode 'w' at 0x4220b0>"
p3041
asbasbasbag49
(g65
g51
NtRp3042
(dp3043
g54
(dp3044
sg63
g2449
sg56
(lp3045
g49
(g70
g51
NtRp3046
(dp3047
g54
(dp3048
g74
g75
ssg63
g3042
sg56
(lp3049
S'wsgi.file_wrapper'
p3050
asbag49
(g70
g51
NtRp3051
(dp3052
g54
(dp3053
g81
g82
ssg63
g3042
sg56
(lp3054
S':'
asbag49
(g70
g51
NtRp3055
(dp3056
g54
(dp3057
sg63
g3042
sg56
(lp3058
g49
(g50
g51
NtRp3059
(dp3060
g54
(dp3061
g62
I3
ssg63
g3055
sg56
(lp3062
S'<class wsgiref.util.FileWrapper at 0x23746c0>'
p3063
asbasbasbag49
(g65
g51
NtRp3064
(dp3065
g54
(dp3066
sg63
g2449
sg56
(lp3067
g49
(g70
g51
NtRp3068
(dp3069
g54
(dp3070
g74
g75
ssg63
g3064
sg56
(lp3071
S'wsgi.input'
p3072
asbag49
(g70
g51
NtRp3073
(dp3074
g54
(dp3075
g81
g82
ssg63
g3064
sg56
(lp3076
S':'
asbag49
(g70
g51
NtRp3077
(dp3078
g54
(dp3079
sg63
g3064
sg56
(lp3080
g49
(g50
g51
NtRp3081
(dp3082
g54
(dp3083
g62
I3
ssg63
g3077
sg56
(lp3084
S"<open file '<fdopen>', mode 'w+b' at 0x8e572a8>"
p3085
asbasbasbag49
(g65
g51
NtRp3086
(dp3087
g54
(dp3088
sg63
g2449
sg56
(lp3089
g49
(g70
g51
NtRp3090
(dp3091
g54
(dp3092
g74
g75
ssg63
g3086
sg56
(lp3093
S'wsgi.multiprocess'
p3094
asbag49
(g70
g51
NtRp3095
(dp3096
g54
(dp3097
g81
g82
ssg63
g3086
sg56
(lp3098
S':'
asbag49
(g70
g51
NtRp3099
(dp3100
g54
(dp3101
sg63
g3086
sg56
(lp3102
g49
(g50
g51
NtRp3103
(dp3104
g54
(dp3105
g62
I3
ssg63
g3099
sg56
(lp3106
g770
asbasbasbag49
(g65
g51
NtRp3107
(dp3108
g54
(dp3109
sg63
g2449
sg56
(lp3110
g49
(g70
g51
NtRp3111
(dp3112
g54
(dp3113
g74
g75
ssg63
g3107
sg56
(lp3114
S'wsgi.multithread'
p3115
asbag49
(g70
g51
NtRp3116
(dp3117
g54
(dp3118
g81
g82
ssg63
g3107
sg56
(lp3119
S':'
asbag49
(g70
g51
NtRp3120
(dp3121
g54
(dp3122
sg63
g3107
sg56
(lp3123
g49
(g50
g51
NtRp3124
(dp3125
g54
(dp3126
g62
I3
ssg63
g3120
sg56
(lp3127
g92
asbasbasbag49
(g65
g51
NtRp3128
(dp3129
g54
(dp3130
sg63
g2449
sg56
(lp3131
g49
(g70
g51
NtRp3132
(dp3133
g54
(dp3134
g74
g75
ssg63
g3128
sg56
(lp3135
S'wsgi.run_once'
p3136
asbag49
(g70
g51
NtRp3137
(dp3138
g54
(dp3139
g81
g82
ssg63
g3128
sg56
(lp3140
S':'
asbag49
(g70
g51
NtRp3141
(dp3142
g54
(dp3143
sg63
g3128
sg56
(lp3144
g49
(g50
g51
NtRp3145
(dp3146
g54
(dp3147
g62
I3
ssg63
g3141
sg56
(lp3148
g770
asbasbasbag49
(g65
g51
NtRp3149
(dp3150
g54
(dp3151
sg63
g2449
sg56
(lp3152
g49
(g70
g51
NtRp3153
(dp3154
g54
(dp3155
g74
g75
ssg63
g3149
sg56
(lp3156
S'wsgi.url_scheme'
p3157
asbag49
(g70
g51
NtRp3158
(dp3159
g54
(dp3160
g81
g82
ssg63
g3149
sg56
(lp3161
S':'
asbag49
(g70
g51
NtRp3162
(dp3163
g54
(dp3164
sg63
g3149
sg56
(lp3165
g49
(g50
g51
NtRp3166
(dp3167
g54
(dp3168
g62
I3
ssg63
g3162
sg56
(lp3169
g1660
asbasbasbag49
(g65
g51
NtRp3170
(dp3171
g54
(dp3172
sg63
g2449
sg56
(lp3173
g49
(g70
g51
NtRp3174
(dp3175
g54
(dp3176
g74
g75
ssg63
g3170
sg56
(lp3177
S'wsgi.version'
p3178
asbag49
(g70
g51
NtRp3179
(dp3180
g54
(dp3181
g81
g82
ssg63
g3170
sg56
(lp3182
S':'
asbag49
(g70
g51
NtRp3183
(dp3184
g54
(dp3185
sg63
g3170
sg56
(lp3186
g49
(g50
g51
NtRp3187
(dp3188
g54
(dp3189
g62
I3
ssg63
g3183
sg56
(lp3190
S'1'
asbasbasbasbasbasbasbasbasbasbasbasbasbsS'frames'
p3191
(lp3192
(dp3193
S'file'
p3194
S'/users/udimilo/Documents/web2py/gluon/restricted.py'
p3195
sS'dump'
p3196
(dp3197
S'environment'
p3198
S"{'A': <class 'gluon.html.A'>, 'Auth': <class 'gluon.tools.Auth'>, 'B': <class 'gluon.html.B'>, 'BEAUTIFY': <class 'gluon.html.BEAUTIFY'>, 'BODY': <class 'gluon.html.BODY'>, 'BR': <class 'gluon.html.BR'>, 'BUTTON': <class 'gluon.html.BUTTON'>, 'CAT': <class 'gluon.html.CAT'>, 'CENTER': <class 'gluon.html.CENTER'>, 'CLEANUP': <class 'gluon.validators.CLEANUP'>, ...}"
p3199
sS'ccode'
p3200
S'<code object <module> at 0x9f80890, file "/Users...cations/udi0312/controllers/default.py", line 11>'
p3201
ssS'lnum'
p3202
I205
sS'lines'
p3203
(dp3204
I200
S'    try:'
p3205
sI201
S'        if type(code) == types.CodeType:'
p3206
sI202
S'            ccode = code'
p3207
sI203
S'        else:'
p3208
sI204
S'            ccode = compile2(code,layer)'
p3209
sI205
S'        exec ccode in environment'
p3210
sI206
S'    except HTTP:'
p3211
sI207
S'        raise'
p3212
sI208
S'    except RestrictedError:'
p3213
sI209
S'        # do not encapsulate (obfuscate) the original RestrictedError'
p3214
ssS'call'
p3215
S"(code='# -*- coding: utf-8 -*-\\n# this file is released ...d())\\n\\nresponse._vars=response._caller(add_board)\\n', environment={'A': <class 'gluon.html.A'>, 'Auth': <class 'gluon.tools.Auth'>, 'B': <class 'gluon.html.B'>, 'BEAUTIFY': <class 'gluon.html.BEAUTIFY'>, 'BODY': <class 'gluon.html.BODY'>, 'BR': <class 'gluon.html.BR'>, 'BUTTON': <class 'gluon.html.BUTTON'>, 'CAT': <class 'gluon.html.CAT'>, 'CENTER': <class 'gluon.html.CENTER'>, 'CLEANUP': <class 'gluon.validators.CLEANUP'>, ...}, layer='/Users/udimilo/Documents/web2py/applications/udi0312/controllers/default.py')"
p3216
sS'func'
p3217
S'restricted'
p3218
sa(dp3219
g3194
S'/Users/udimilo/Documents/web2py/applications/udi0312/controllers/default.py'
p3220
sg3196
(dp3221
sg3202
I169
sg3203
(dp3222
I160
S'    http://..../[app]/default/data/select/[table]'
p3223
sI161
S'    http://..../[app]/default/data/search/[table]'
p3224
sI162
S'    but URLs must be signed, i.e. linked with'
p3225
sI163
S"      A('table',_href=URL('data/tables',user_signature=True))"
p3226
sI164
S'    or with the signed load operator'
p3227
sI165
S"      LOAD('default','data.load',args='tables',ajax=True,user_signature=True)"
p3228
sI166
S'    """'
p3229
sI167
S'    return dict(form=crud())'
p3230
sI158
S'    http://..../[app]/default/data/update/[table]/[id]'
p3231
sI159
S'    http://..../[app]/default/data/delete/[table]/[id]'
p3232
ssg3215
S'()'
p3233
sg3217
S'<module>'
p3234
sa(dp3235
g3194
S'/users/udimilo/Documents/web2py/gluon/globals.py'
p3236
sg3196
(dp3237
S'self'
p3238
S'undefined'
p3239
sS'f'
S'<function add_board at 0x8eebcb0>'
p3240
ssg3202
I173
sg3203
(dp3241
I168
S'        self.menu = []             # used by the default view layout'
p3242
sI169
S'        self.files = []            # used by web2py_ajax.html'
p3243
sI170
S'        self.generic_patterns = [] # patterns to allow generic views'
p3244
sI171
S"        self.delimiters = ('{{','}}')"
p3245
sI172
S'        self._vars = None'
p3246
sI173
S'        self._caller = lambda f: f()'
p3247
sI174
S'        self._view_environment = None'
p3248
sI175
S'        self._custom_commit = None'
p3249
sI176
S'        self._custom_rollback = None'
p3250
sI177
S''
ssg3215
S'(f=<function add_board at 0x8eebcb0>)'
p3251
sg3217
S'<lambda>'
p3252
sa(dp3253
g3194
S'/Users/udimilo/Documents/web2py/applications/udi0312/controllers/default.py'
p3254
sg3196
(dp3255
S're'
p3256
g3239
sS'name'
p3257
S"'<'"
p3258
ssg3202
I23
sg3203
(dp3259
I18
S'    boards = db(db.board.user_id==auth.user.id).select() if auth.user else []'
p3260
sI19
S'    return dict(items=articles, categories=categories, boards=boards)'
p3261
sI20
S''
sI21
S'def add_board():'
p3262
sI22
S'    name = request.vars.boardName'
p3263
sI23
S"    if re.match('(^[\\w\\s.-]+$)', name):"
p3264
sI24
S'        return name'
p3265
sI25
S'        category = db(db.category.name==request.vars.category).select().first()'
p3266
sI26
S'        board = db.board.insert(user_id=auth.user.id, category_id=category.id, name=request.vars.boardName)'
p3267
sI27
S'        return board.id'
p3268
ssg3215
S'()'
p3269
sg3217
S'add_board'
p3270
sasS'pyver'
p3271
S'Python 2.5.4: /Library/Frameworks/Python.framework/Versions/2.5/Resources/Python.app/Contents/MacOS/Python'
p3272
sS'session'
p3273
g49
(g50
g51
NtRp3274
(dp3275
g54
(dp3276
sg56
(lp3277
g49
(g58
g51
NtRp3278
(dp3279
g54
(dp3280
g62
I5
ssg63
Nsg56
(lp3281
g49
(g65
g51
NtRp3282
(dp3283
g54
(dp3284
sg63
g3278
sg56
(lp3285
g49
(g70
g51
NtRp3286
(dp3287
g54
(dp3288
g74
g75
ssg63
g3282
sg56
(lp3289
S'last_query'
p3290
asbag49
(g70
g51
NtRp3291
(dp3292
g54
(dp3293
g81
g82
ssg63
g3282
sg56
(lp3294
S':'
asbag49
(g70
g51
NtRp3295
(dp3296
g54
(dp3297
sg63
g3282
sg56
(lp3298
g49
(g50
g51
NtRp3299
(dp3300
g54
(dp3301
g62
I5
ssg63
g3295
sg56
(lp3302
S'db.rss_feeds.id>0'
p3303
asbasbasbasbasbsS'etype'
p3304
S"<type 'exceptions.NameError'>"
p3305
sS'date'
p3306
S'Thu Mar 15 23:06:54 2012'
p3307
sS'response'
p3308
g49
(g50
g51
NtRp3309
(dp3310
g54
(dp3311
sg56
(lp3312
g49
(g58
g51
NtRp3313
(dp3314
g54
(dp3315
g62
I5
ssg63
Nsg56
(lp3316
g49
(g65
g51
NtRp3317
(dp3318
g54
(dp3319
sg63
g3313
sg56
(lp3320
g49
(g70
g51
NtRp3321
(dp3322
g54
(dp3323
g74
g75
ssg63
g3317
sg56
(lp3324
g147
asbag49
(g70
g51
NtRp3325
(dp3326
g54
(dp3327
g81
g82
ssg63
g3317
sg56
(lp3328
S':'
asbag49
(g70
g51
NtRp3329
(dp3330
g54
(dp3331
sg63
g3317
sg56
(lp3332
g49
(g50
g51
NtRp3333
(dp3334
g54
(dp3335
g62
I5
ssg63
g3329
sg56
(lp3336
S'<cStringIO.StringO object at 0x8e50b00>'
p3337
asbasbasbag49
(g65
g51
NtRp3338
(dp3339
g54
(dp3340
sg63
g3313
sg56
(lp3341
g49
(g70
g51
NtRp3342
(dp3343
g54
(dp3344
g74
g75
ssg63
g3338
sg56
(lp3345
g213
asbag49
(g70
g51
NtRp3346
(dp3347
g54
(dp3348
g81
g82
ssg63
g3338
sg56
(lp3349
S':'
asbag49
(g70
g51
NtRp3350
(dp3351
g54
(dp3352
sg63
g3338
sg56
(lp3353
g49
(g50
g51
NtRp3354
(dp3355
g54
(dp3356
g62
I5
ssg63
g3350
sg56
(lp3357
g49
(g58
g51
NtRp3358
(dp3359
g54
(dp3360
g62
I4
ssg63
Nsg56
(lp3361
g49
(g65
g51
NtRp3362
(dp3363
g54
(dp3364
sg63
g3358
sg56
(lp3365
g49
(g70
g51
NtRp3366
(dp3367
g54
(dp3368
g74
g75
ssg63
g3362
sg56
(lp3369
S'session_id_udi0312'
p3370
asbag49
(g70
g51
NtRp3371
(dp3372
g54
(dp3373
g81
g82
ssg63
g3362
sg56
(lp3374
S':'
asbag49
(g70
g51
NtRp3375
(dp3376
g54
(dp3377
sg63
g3362
sg56
(lp3378
g49
(g50
g51
NtRp3379
(dp3380
g54
(dp3381
g62
I4
ssg63
g3375
sg56
(lp3382
g49
(g58
g51
NtRp3383
(dp3384
g54
(dp3385
g62
I3
ssg63
Nsg56
(lp3386
g49
(g65
g51
NtRp3387
(dp3388
g54
(dp3389
sg63
g3383
sg56
(lp3390
g49
(g70
g51
NtRp3391
(dp3392
g54
(dp3393
g74
g75
ssg63
g3387
sg56
(lp3394
g263
asbag49
(g70
g51
NtRp3395
(dp3396
g54
(dp3397
g81
g82
ssg63
g3387
sg56
(lp3398
S':'
asbag49
(g70
g51
NtRp3399
(dp3400
g54
(dp3401
sg63
g3387
sg56
(lp3402
g49
(g50
g51
NtRp3403
(dp3404
g54
(dp3405
g62
I3
ssg63
g3399
sg56
(lp3406
S''
asbasbasbag49
(g65
g51
NtRp3407
(dp3408
g54
(dp3409
sg63
g3383
sg56
(lp3410
g49
(g70
g51
NtRp3411
(dp3412
g54
(dp3413
g74
g75
ssg63
g3407
sg56
(lp3414
g284
asbag49
(g70
g51
NtRp3415
(dp3416
g54
(dp3417
g81
g82
ssg63
g3407
sg56
(lp3418
S':'
asbag49
(g70
g51
NtRp3419
(dp3420
g54
(dp3421
sg63
g3407
sg56
(lp3422
g49
(g50
g51
NtRp3423
(dp3424
g54
(dp3425
g62
I3
ssg63
g3419
sg56
(lp3426
S''
asbasbasbag49
(g65
g51
NtRp3427
(dp3428
g54
(dp3429
sg63
g3383
sg56
(lp3430
g49
(g70
g51
NtRp3431
(dp3432
g54
(dp3433
g74
g75
ssg63
g3427
sg56
(lp3434
g305
asbag49
(g70
g51
NtRp3435
(dp3436
g54
(dp3437
g81
g82
ssg63
g3427
sg56
(lp3438
S':'
asbag49
(g70
g51
NtRp3439
(dp3440
g54
(dp3441
sg63
g3427
sg56
(lp3442
g49
(g50
g51
NtRp3443
(dp3444
g54
(dp3445
g62
I3
ssg63
g3439
sg56
(lp3446
S''
asbasbasbag49
(g65
g51
NtRp3447
(dp3448
g54
(dp3449
sg63
g3383
sg56
(lp3450
g49
(g70
g51
NtRp3451
(dp3452
g54
(dp3453
g74
g75
ssg63
g3447
sg56
(lp3454
g326
asbag49
(g70
g51
NtRp3455
(dp3456
g54
(dp3457
g81
g82
ssg63
g3447
sg56
(lp3458
S':'
asbag49
(g70
g51
NtRp3459
(dp3460
g54
(dp3461
sg63
g3447
sg56
(lp3462
g49
(g50
g51
NtRp3463
(dp3464
g54
(dp3465
g62
I3
ssg63
g3459
sg56
(lp3466
S''
asbasbasbag49
(g65
g51
NtRp3467
(dp3468
g54
(dp3469
sg63
g3383
sg56
(lp3470
g49
(g70
g51
NtRp3471
(dp3472
g54
(dp3473
g74
g75
ssg63
g3467
sg56
(lp3474
g347
asbag49
(g70
g51
NtRp3475
(dp3476
g54
(dp3477
g81
g82
ssg63
g3467
sg56
(lp3478
S':'
asbag49
(g70
g51
NtRp3479
(dp3480
g54
(dp3481
sg63
g3467
sg56
(lp3482
g49
(g50
g51
NtRp3483
(dp3484
g54
(dp3485
g62
I3
ssg63
g3479
sg56
(lp3486
S'/'
asbasbasbag49
(g65
g51
NtRp3487
(dp3488
g54
(dp3489
sg63
g3383
sg56
(lp3490
g49
(g70
g51
NtRp3491
(dp3492
g54
(dp3493
g74
g75
ssg63
g3487
sg56
(lp3494
g368
asbag49
(g70
g51
NtRp3495
(dp3496
g54
(dp3497
g81
g82
ssg63
g3487
sg56
(lp3498
S':'
asbag49
(g70
g51
NtRp3499
(dp3500
g54
(dp3501
sg63
g3487
sg56
(lp3502
g49
(g50
g51
NtRp3503
(dp3504
g54
(dp3505
g62
I3
ssg63
g3499
sg56
(lp3506
S''
asbasbasbag49
(g65
g51
NtRp3507
(dp3508
g54
(dp3509
sg63
g3383
sg56
(lp3510
g49
(g70
g51
NtRp3511
(dp3512
g54
(dp3513
g74
g75
ssg63
g3507
sg56
(lp3514
g389
asbag49
(g70
g51
NtRp3515
(dp3516
g54
(dp3517
g81
g82
ssg63
g3507
sg56
(lp3518
S':'
asbag49
(g70
g51
NtRp3519
(dp3520
g54
(dp3521
sg63
g3507
sg56
(lp3522
g49
(g50
g51
NtRp3523
(dp3524
g54
(dp3525
g62
I3
ssg63
g3519
sg56
(lp3526
S''
asbasbasbasbasbasbasbasbasbasbasbag49
(g65
g51
NtRp3527
(dp3528
g54
(dp3529
sg63
g3313
sg56
(lp3530
g49
(g70
g51
NtRp3531
(dp3532
g54
(dp3533
g74
g75
ssg63
g3527
sg56
(lp3534
S'delimiters'
p3535
asbag49
(g70
g51
NtRp3536
(dp3537
g54
(dp3538
g81
g82
ssg63
g3527
sg56
(lp3539
S':'
asbag49
(g70
g51
NtRp3540
(dp3541
g54
(dp3542
sg63
g3527
sg56
(lp3543
g49
(g50
g51
NtRp3544
(dp3545
g54
(dp3546
g62
I5
ssg63
g3540
sg56
(lp3547
g49
(g58
g51
NtRp3548
(dp3549
g54
(dp3550
g62
I4
ssg63
Nsg56
(lp3551
g49
(g65
g51
NtRp3552
(dp3553
g54
(dp3554
sg63
g3548
sg56
(lp3555
g49
(g70
g51
NtRp3556
(dp3557
g54
(dp3558
sg63
g3552
sg56
(lp3559
g49
(g50
g51
NtRp3560
(dp3561
g54
(dp3562
g62
I4
ssg63
g3556
sg56
(lp3563
S'{{'
p3564
asbasbasbag49
(g65
g51
NtRp3565
(dp3566
g54
(dp3567
sg63
g3548
sg56
(lp3568
g49
(g70
g51
NtRp3569
(dp3570
g54
(dp3571
sg63
g3565
sg56
(lp3572
g49
(g50
g51
NtRp3573
(dp3574
g54
(dp3575
g62
I4
ssg63
g3569
sg56
(lp3576
S'}}'
p3577
asbasbasbasbasbasbasbag49
(g65
g51
NtRp3578
(dp3579
g54
(dp3580
sg63
g3313
sg56
(lp3581
g49
(g70
g51
NtRp3582
(dp3583
g54
(dp3584
g74
g75
ssg63
g3578
sg56
(lp3585
S'files'
p3586
asbag49
(g70
g51
NtRp3587
(dp3588
g54
(dp3589
g81
g82
ssg63
g3578
sg56
(lp3590
S':'
asbag49
(g70
g51
NtRp3591
(dp3592
g54
(dp3593
sg63
g3578
sg56
(lp3594
g49
(g50
g51
NtRp3595
(dp3596
g54
(dp3597
g62
I5
ssg63
g3591
sg56
(lp3598
g49
(g58
g51
NtRp3599
(dp3600
g54
(dp3601
g62
I4
ssg63
Nsg56
(lp3602
sbasbasbasbag49
(g65
g51
NtRp3603
(dp3604
g54
(dp3605
sg63
g3313
sg56
(lp3606
g49
(g70
g51
NtRp3607
(dp3608
g54
(dp3609
g74
g75
ssg63
g3603
sg56
(lp3610
S'flash'
p3611
asbag49
(g70
g51
NtRp3612
(dp3613
g54
(dp3614
g81
g82
ssg63
g3603
sg56
(lp3615
S':'
asbag49
(g70
g51
NtRp3616
(dp3617
g54
(dp3618
sg63
g3603
sg56
(lp3619
g49
(g50
g51
NtRp3620
(dp3621
g54
(dp3622
g62
I5
ssg63
g3616
sg56
(lp3623
S''
asbasbasbag49
(g65
g51
NtRp3624
(dp3625
g54
(dp3626
sg63
g3313
sg56
(lp3627
g49
(g70
g51
NtRp3628
(dp3629
g54
(dp3630
g74
g75
ssg63
g3624
sg56
(lp3631
S'generic_patterns'
p3632
asbag49
(g70
g51
NtRp3633
(dp3634
g54
(dp3635
g81
g82
ssg63
g3624
sg56
(lp3636
S':'
asbag49
(g70
g51
NtRp3637
(dp3638
g54
(dp3639
sg63
g3624
sg56
(lp3640
g49
(g50
g51
NtRp3641
(dp3642
g54
(dp3643
g62
I5
ssg63
g3637
sg56
(lp3644
g49
(g58
g51
NtRp3645
(dp3646
g54
(dp3647
g62
I4
ssg63
Nsg56
(lp3648
g49
(g65
g51
NtRp3649
(dp3650
g54
(dp3651
sg63
g3645
sg56
(lp3652
g49
(g70
g51
NtRp3653
(dp3654
g54
(dp3655
sg63
g3649
sg56
(lp3656
g49
(g50
g51
NtRp3657
(dp3658
g54
(dp3659
g62
I4
ssg63
g3653
sg56
(lp3660
S'*'
asbasbasbasbasbasbasbag49
(g65
g51
NtRp3661
(dp3662
g54
(dp3663
sg63
g3313
sg56
(lp3664
g49
(g70
g51
NtRp3665
(dp3666
g54
(dp3667
g74
g75
ssg63
g3661
sg56
(lp3668
S'headers'
p3669
asbag49
(g70
g51
NtRp3670
(dp3671
g54
(dp3672
g81
g82
ssg63
g3661
sg56
(lp3673
S':'
asbag49
(g70
g51
NtRp3674
(dp3675
g54
(dp3676
sg63
g3661
sg56
(lp3677
g49
(g50
g51
NtRp3678
(dp3679
g54
(dp3680
g62
I5
ssg63
g3674
sg56
(lp3681
g49
(g58
g51
NtRp3682
(dp3683
g54
(dp3684
g62
I4
ssg63
Nsg56
(lp3685
g49
(g65
g51
NtRp3686
(dp3687
g54
(dp3688
sg63
g3682
sg56
(lp3689
g49
(g70
g51
NtRp3690
(dp3691
g54
(dp3692
g74
g75
ssg63
g3686
sg56
(lp3693
S'Cache-Control'
p3694
asbag49
(g70
g51
NtRp3695
(dp3696
g54
(dp3697
g81
g82
ssg63
g3686
sg56
(lp3698
S':'
asbag49
(g70
g51
NtRp3699
(dp3700
g54
(dp3701
sg63
g3686
sg56
(lp3702
g49
(g50
g51
NtRp3703
(dp3704
g54
(dp3705
g62
I4
ssg63
g3699
sg56
(lp3706
S'no-store, no-cache, must-revalidate, post-check=0, pre-check=0'
p3707
asbasbasbag49
(g65
g51
NtRp3708
(dp3709
g54
(dp3710
sg63
g3682
sg56
(lp3711
g49
(g70
g51
NtRp3712
(dp3713
g54
(dp3714
g74
g75
ssg63
g3708
sg56
(lp3715
S'Content-Type'
p3716
asbag49
(g70
g51
NtRp3717
(dp3718
g54
(dp3719
g81
g82
ssg63
g3708
sg56
(lp3720
S':'
asbag49
(g70
g51
NtRp3721
(dp3722
g54
(dp3723
sg63
g3708
sg56
(lp3724
g49
(g50
g51
NtRp3725
(dp3726
g54
(dp3727
g62
I4
ssg63
g3721
sg56
(lp3728
S'text/html; charset=utf-8'
p3729
asbasbasbag49
(g65
g51
NtRp3730
(dp3731
g54
(dp3732
sg63
g3682
sg56
(lp3733
g49
(g70
g51
NtRp3734
(dp3735
g54
(dp3736
g74
g75
ssg63
g3730
sg56
(lp3737
S'Expires'
p3738
asbag49
(g70
g51
NtRp3739
(dp3740
g54
(dp3741
g81
g82
ssg63
g3730
sg56
(lp3742
S':'
asbag49
(g70
g51
NtRp3743
(dp3744
g54
(dp3745
sg63
g3730
sg56
(lp3746
g49
(g50
g51
NtRp3747
(dp3748
g54
(dp3749
g62
I4
ssg63
g3743
sg56
(lp3750
S'Fri, 16 Mar 2012 03:06:54 GMT'
p3751
asbasbasbag49
(g65
g51
NtRp3752
(dp3753
g54
(dp3754
sg63
g3682
sg56
(lp3755
g49
(g70
g51
NtRp3756
(dp3757
g54
(dp3758
g74
g75
ssg63
g3752
sg56
(lp3759
S'Pragma'
p3760
asbag49
(g70
g51
NtRp3761
(dp3762
g54
(dp3763
g81
g82
ssg63
g3752
sg56
(lp3764
S':'
asbag49
(g70
g51
NtRp3765
(dp3766
g54
(dp3767
sg63
g3752
sg56
(lp3768
g49
(g50
g51
NtRp3769
(dp3770
g54
(dp3771
g62
I4
ssg63
g3765
sg56
(lp3772
S'no-cache'
p3773
asbasbasbag49
(g65
g51
NtRp3774
(dp3775
g54
(dp3776
sg63
g3682
sg56
(lp3777
g49
(g70
g51
NtRp3778
(dp3779
g54
(dp3780
g74
g75
ssg63
g3774
sg56
(lp3781
S'X-Powered-By'
p3782
asbag49
(g70
g51
NtRp3783
(dp3784
g54
(dp3785
g81
g82
ssg63
g3774
sg56
(lp3786
S':'
asbag49
(g70
g51
NtRp3787
(dp3788
g54
(dp3789
sg63
g3774
sg56
(lp3790
g49
(g50
g51
NtRp3791
(dp3792
g54
(dp3793
g62
I4
ssg63
g3787
sg56
(lp3794
S'web2py'
p3795
asbasbasbasbasbasbasbag49
(g65
g51
NtRp3796
(dp3797
g54
(dp3798
sg63
g3313
sg56
(lp3799
g49
(g70
g51
NtRp3800
(dp3801
g54
(dp3802
g74
g75
ssg63
g3796
sg56
(lp3803
S'menu'
p3804
asbag49
(g70
g51
NtRp3805
(dp3806
g54
(dp3807
g81
g82
ssg63
g3796
sg56
(lp3808
S':'
asbag49
(g70
g51
NtRp3809
(dp3810
g54
(dp3811
sg63
g3796
sg56
(lp3812
g49
(g50
g51
NtRp3813
(dp3814
g54
(dp3815
g62
I5
ssg63
g3809
sg56
(lp3816
g49
(g58
g51
NtRp3817
(dp3818
g54
(dp3819
g62
I4
ssg63
Nsg56
(lp3820
g49
(g65
g51
NtRp3821
(dp3822
g54
(dp3823
sg63
g3817
sg56
(lp3824
g49
(g70
g51
NtRp3825
(dp3826
g54
(dp3827
sg63
g3821
sg56
(lp3828
g49
(g50
g51
NtRp3829
(dp3830
g54
(dp3831
g62
I4
ssg63
g3825
sg56
(lp3832
g49
(g58
g51
NtRp3833
(dp3834
g54
(dp3835
g62
I3
ssg63
Nsg56
(lp3836
g49
(g65
g51
NtRp3837
(dp3838
g54
(dp3839
sg63
g3833
sg56
(lp3840
g49
(g70
g51
NtRp3841
(dp3842
g54
(dp3843
sg63
g3837
sg56
(lp3844
g49
(g50
g51
NtRp3845
(dp3846
g54
(dp3847
g62
I3
ssg63
g3841
sg56
(lp3848
cgluon.languages
lazyT_unpickle
p3849
(S's\x04\x00\x00\x00Home'
tRp3850
asbasbasbag49
(g65
g51
NtRp3851
(dp3852
g54
(dp3853
sg63
g3833
sg56
(lp3854
g49
(g70
g51
NtRp3855
(dp3856
g54
(dp3857
sg63
g3851
sg56
(lp3858
g49
(g50
g51
NtRp3859
(dp3860
g54
(dp3861
g62
I3
ssg63
g3855
sg56
(lp3862
g770
asbasbasbag49
(g65
g51
NtRp3863
(dp3864
g54
(dp3865
sg63
g3833
sg56
(lp3866
g49
(g70
g51
NtRp3867
(dp3868
g54
(dp3869
sg63
g3863
sg56
(lp3870
g49
(g50
g51
NtRp3871
(dp3872
g54
(dp3873
g62
I3
ssg63
g3867
sg56
(lp3874
S'/'
asbasbasbag49
(g65
g51
NtRp3875
(dp3876
g54
(dp3877
sg63
g3833
sg56
(lp3878
g49
(g70
g51
NtRp3879
(dp3880
g54
(dp3881
sg63
g3875
sg56
(lp3882
g49
(g50
g51
NtRp3883
(dp3884
g54
(dp3885
g62
I3
ssg63
g3879
sg56
(lp3886
g49
(g58
g51
NtRp3887
(dp3888
g54
(dp3889
g62
I2
ssg63
Nsg56
(lp3890
sbasbasbasbasbasbasbasbag49
(g65
g51
NtRp3891
(dp3892
g54
(dp3893
sg63
g3817
sg56
(lp3894
g49
(g70
g51
NtRp3895
(dp3896
g54
(dp3897
sg63
g3891
sg56
(lp3898
g49
(g50
g51
NtRp3899
(dp3900
g54
(dp3901
g62
I4
ssg63
g3895
sg56
(lp3902
g49
(g58
g51
NtRp3903
(dp3904
g54
(dp3905
g62
I3
ssg63
Nsg56
(lp3906
g49
(g65
g51
NtRp3907
(dp3908
g54
(dp3909
sg63
g3903
sg56
(lp3910
g49
(g70
g51
NtRp3911
(dp3912
g54
(dp3913
sg63
g3907
sg56
(lp3914
g49
(g50
g51
NtRp3915
(dp3916
g54
(dp3917
g62
I3
ssg63
g3911
sg56
(lp3918
g49
(cgluon.html
SPAN
p3919
g51
NtRp3920
(dp3921
g54
(dp3922
g74
S'color:yellow'
p3923
ssg63
Nsg56
(lp3924
g3795
asbasbasbasbag49
(g65
g51
NtRp3925
(dp3926
g54
(dp3927
sg63
g3903
sg56
(lp3928
g49
(g70
g51
NtRp3929
(dp3930
g54
(dp3931
sg63
g3925
sg56
(lp3932
g49
(g50
g51
NtRp3933
(dp3934
g54
(dp3935
g62
I3
ssg63
g3929
sg56
(lp3936
g770
asbasbasbag49
(g65
g51
NtRp3937
(dp3938
g54
(dp3939
sg63
g3903
sg56
(lp3940
g49
(g70
g51
NtRp3941
(dp3942
g54
(dp3943
sg63
g3937
sg56
(lp3944
g49
(g50
g51
NtRp3945
(dp3946
g54
(dp3947
g62
I3
ssg63
g3941
sg56
(lp3948
S'None'
p3949
asbasbasbag49
(g65
g51
NtRp3950
(dp3951
g54
(dp3952
sg63
g3903
sg56
(lp3953
g49
(g70
g51
NtRp3954
(dp3955
g54
(dp3956
sg63
g3950
sg56
(lp3957
g49
(g50
g51
NtRp3958
(dp3959
g54
(dp3960
g62
I3
ssg63
g3954
sg56
(lp3961
g49
(g58
g51
NtRp3962
(dp3963
g54
(dp3964
g62
I2
ssg63
Nsg56
(lp3965
g49
(g65
g51
NtRp3966
(dp3967
g54
(dp3968
sg63
g3962
sg56
(lp3969
g49
(g70
g51
NtRp3970
(dp3971
g54
(dp3972
sg63
g3966
sg56
(lp3973
g49
(g50
g51
NtRp3974
(dp3975
g54
(dp3976
g62
I2
ssg63
g3970
sg56
(lp3977
g49
(g58
g51
NtRp3978
(dp3979
g54
(dp3980
g62
I1
ssg63
Nsg56
(lp3981
g49
(g65
g51
NtRp3982
(dp3983
g54
(dp3984
sg63
g3978
sg56
(lp3985
g49
(g70
g51
NtRp3986
(dp3987
g54
(dp3988
sg63
g3982
sg56
(lp3989
g49
(g50
g51
NtRp3990
(dp3991
g54
(dp3992
g62
I1
ssg63
g3986
sg56
(lp3993
g3849
(S's\x08\x00\x00\x00My Sites'
tRp3994
asbasbasbag49
(g65
g51
NtRp3995
(dp3996
g54
(dp3997
sg63
g3978
sg56
(lp3998
g49
(g70
g51
NtRp3999
(dp4000
g54
(dp4001
sg63
g3995
sg56
(lp4002
g49
(g50
g51
NtRp4003
(dp4004
g54
(dp4005
g62
I1
ssg63
g3999
sg56
(lp4006
I00
asbasbasbag49
(g65
g51
NtRp4007
(dp4008
g54
(dp4009
sg63
g3978
sg56
(lp4010
g49
(g70
g51
NtRp4011
(dp4012
g54
(dp4013
sg63
g4007
sg56
(lp4014
g49
(g50
g51
NtRp4015
(dp4016
g54
(dp4017
g62
I1
ssg63
g4011
sg56
(lp4018
S'/admin/site'
p4019
asbasbasbasbasbasbasbag49
(g65
g51
NtRp4020
(dp4021
g54
(dp4022
sg63
g3962
sg56
(lp4023
g49
(g70
g51
NtRp4024
(dp4025
g54
(dp4026
sg63
g4020
sg56
(lp4027
g49
(g50
g51
NtRp4028
(dp4029
g54
(dp4030
g62
I2
ssg63
g4024
sg56
(lp4031
g49
(g58
g51
NtRp4032
(dp4033
g54
(dp4034
g62
I1
ssg63
Nsg56
(lp4035
g49
(g65
g51
NtRp4036
(dp4037
g54
(dp4038
sg63
g4032
sg56
(lp4039
g49
(g70
g51
NtRp4040
(dp4041
g54
(dp4042
sg63
g4036
sg56
(lp4043
g49
(g50
g51
NtRp4044
(dp4045
g54
(dp4046
g62
I1
ssg63
g4040
sg56
(lp4047
g3849
(S's\x08\x00\x00\x00This App'
tRp4048
asbasbasbag49
(g65
g51
NtRp4049
(dp4050
g54
(dp4051
sg63
g4032
sg56
(lp4052
g49
(g70
g51
NtRp4053
(dp4054
g54
(dp4055
sg63
g4049
sg56
(lp4056
g49
(g50
g51
NtRp4057
(dp4058
g54
(dp4059
g62
I1
ssg63
g4053
sg56
(lp4060
I00
asbasbasbag49
(g65
g51
NtRp4061
(dp4062
g54
(dp4063
sg63
g4032
sg56
(lp4064
g49
(g70
g51
NtRp4065
(dp4066
g54
(dp4067
sg63
g4061
sg56
(lp4068
g49
(g50
g51
NtRp4069
(dp4070
g54
(dp4071
g62
I1
ssg63
g4065
sg56
(lp4072
S'/admin/design/udi0312'
p4073
asbasbasbag49
(g65
g51
NtRp4074
(dp4075
g54
(dp4076
sg63
g4032
sg56
(lp4077
g49
(g70
g51
NtRp4078
(dp4079
g54
(dp4080
sg63
g4074
sg56
(lp4081
g49
(g50
g51
NtRp4082
(dp4083
g54
(dp4084
g62
I1
ssg63
g4078
sg56
(lp4085
(lp4086
(g3849
(S's\n\x00\x00\x00Controller'
tRp4087
I00
S'/admin/edit/udi0312/controllers/default.py'
tp4088
a(g3849
(S's\x04\x00\x00\x00View'
tRp4089
I00
S'/admin/edit/udi0312/views/default/add_board.html'
tp4090
a(g3849
(S's\x06\x00\x00\x00Layout'
tRp4091
I00
S'/admin/edit/udi0312/views/layout.html'
tp4092
a(g3849
(S's\n\x00\x00\x00Stylesheet'
tRp4093
I00
S'/admin/edit/udi0312/static/css/web2py.css'
tp4094
a(g3849
(S's\x08\x00\x00\x00DB Model'
tRp4095
I00
S'/admin/edit/udi0312/models/db.py'
tp4096
a(g3849
(S's\n\x00\x00\x00Menu Model'
tRp4097
I00
S'/admin/edit/udi0312/models/menu.py'
tp4098
a(g3849
(S's\x08\x00\x00\x00Database'
tRp4099
I00
S'/appadmin'
tp4100
a(g3849
(S's\x06\x00\x00\x00Errors'
tRp4101
I00
S'/admin/errors/udi0312'
tp4102
a(g3849
(S's\x05\x00\x00\x00About'
tRp4103
I00
S'/admin/about/udi0312'
tp4104
aasbasbasbasbasbasbasbag49
(g65
g51
NtRp4105
(dp4106
g54
(dp4107
sg63
g3962
sg56
(lp4108
g49
(g70
g51
NtRp4109
(dp4110
g54
(dp4111
sg63
g4105
sg56
(lp4112
g49
(g50
g51
NtRp4113
(dp4114
g54
(dp4115
g62
I2
ssg63
g4109
sg56
(lp4116
g49
(g58
g51
NtRp4117
(dp4118
g54
(dp4119
g62
I1
ssg63
Nsg56
(lp4120
g49
(g65
g51
NtRp4121
(dp4122
g54
(dp4123
sg63
g4117
sg56
(lp4124
g49
(g70
g51
NtRp4125
(dp4126
g54
(dp4127
sg63
g4121
sg56
(lp4128
g49
(g50
g51
NtRp4129
(dp4130
g54
(dp4131
g62
I1
ssg63
g4125
sg56
(lp4132
S'web2py.com'
p4133
asbasbasbag49
(g65
g51
NtRp4134
(dp4135
g54
(dp4136
sg63
g4117
sg56
(lp4137
g49
(g70
g51
NtRp4138
(dp4139
g54
(dp4140
sg63
g4134
sg56
(lp4141
g49
(g50
g51
NtRp4142
(dp4143
g54
(dp4144
g62
I1
ssg63
g4138
sg56
(lp4145
I00
asbasbasbag49
(g65
g51
NtRp4146
(dp4147
g54
(dp4148
sg63
g4117
sg56
(lp4149
g49
(g70
g51
NtRp4150
(dp4151
g54
(dp4152
sg63
g4146
sg56
(lp4153
g49
(g50
g51
NtRp4154
(dp4155
g54
(dp4156
g62
I1
ssg63
g4150
sg56
(lp4157
S'http://www.web2py.com'
p4158
asbasbasbag49
(g65
g51
NtRp4159
(dp4160
g54
(dp4161
sg63
g4117
sg56
(lp4162
g49
(g70
g51
NtRp4163
(dp4164
g54
(dp4165
sg63
g4159
sg56
(lp4166
g49
(g50
g51
NtRp4167
(dp4168
g54
(dp4169
g62
I1
ssg63
g4163
sg56
(lp4170
(lp4171
(g3849
(S's\x08\x00\x00\x00Download'
tRp4172
I00
S'http://www.web2py.com/examples/default/download'
p4173
tp4174
a(g3849
(S's\x07\x00\x00\x00Support'
tRp4175
I00
S'http://www.web2py.com/examples/default/support'
p4176
tp4177
a(g3849
(S's\x04\x00\x00\x00Demo'
tRp4178
I00
S'http://web2py.com/demo_admin'
p4179
tp4180
a(g3849
(S's\x0e\x00\x00\x00Quick Examples'
tRp4181
I00
S'http://web2py.com/examples/default/examples'
p4182
tp4183
a(g3849
(S's\x03\x00\x00\x00FAQ'
tRp4184
I00
S'http://web2py.com/AlterEgo'
p4185
tp4186
a(g3849
(S's\x06\x00\x00\x00Videos'
tRp4187
I00
S'http://www.web2py.com/examples/default/videos/'
p4188
tp4189
a(g3849
(S's\x11\x00\x00\x00Free Applications'
tRp4190
I00
S'http://web2py.com/appliances'
p4191
tp4192
a(g3849
(S's\x07\x00\x00\x00Plugins'
tRp4193
I00
S'http://web2py.com/plugins'
p4194
tp4195
a(g3849
(S's\x07\x00\x00\x00Layouts'
tRp4196
I00
S'http://web2py.com/layouts'
p4197
tp4198
a(g3849
(S's\x07\x00\x00\x00Recipes'
tRp4199
I00
S'http://web2pyslices.com/'
p4200
tp4201
a(g3849
(S's\x08\x00\x00\x00Semantic'
tRp4202
I00
S'http://web2py.com/semantic'
p4203
tp4204
aasbasbasbasbasbasbasbag49
(g65
g51
NtRp4205
(dp4206
g54
(dp4207
sg63
g3962
sg56
(lp4208
g49
(g70
g51
NtRp4209
(dp4210
g54
(dp4211
sg63
g4205
sg56
(lp4212
g49
(g50
g51
NtRp4213
(dp4214
g54
(dp4215
g62
I2
ssg63
g4209
sg56
(lp4216
g49
(g58
g51
NtRp4217
(dp4218
g54
(dp4219
g62
I1
ssg63
Nsg56
(lp4220
g49
(g65
g51
NtRp4221
(dp4222
g54
(dp4223
sg63
g4217
sg56
(lp4224
g49
(g70
g51
NtRp4225
(dp4226
g54
(dp4227
sg63
g4221
sg56
(lp4228
g49
(g50
g51
NtRp4229
(dp4230
g54
(dp4231
g62
I1
ssg63
g4225
sg56
(lp4232
g3849
(S's\r\x00\x00\x00Documentation'
tRp4233
asbasbasbag49
(g65
g51
NtRp4234
(dp4235
g54
(dp4236
sg63
g4217
sg56
(lp4237
g49
(g70
g51
NtRp4238
(dp4239
g54
(dp4240
sg63
g4234
sg56
(lp4241
g49
(g50
g51
NtRp4242
(dp4243
g54
(dp4244
g62
I1
ssg63
g4238
sg56
(lp4245
I00
asbasbasbag49
(g65
g51
NtRp4246
(dp4247
g54
(dp4248
sg63
g4217
sg56
(lp4249
g49
(g70
g51
NtRp4250
(dp4251
g54
(dp4252
sg63
g4246
sg56
(lp4253
g49
(g50
g51
NtRp4254
(dp4255
g54
(dp4256
g62
I1
ssg63
g4250
sg56
(lp4257
S'http://www.web2py.com/book'
p4258
asbasbasbag49
(g65
g51
NtRp4259
(dp4260
g54
(dp4261
sg63
g4217
sg56
(lp4262
g49
(g70
g51
NtRp4263
(dp4264
g54
(dp4265
sg63
g4259
sg56
(lp4266
g49
(g50
g51
NtRp4267
(dp4268
g54
(dp4269
g62
I1
ssg63
g4263
sg56
(lp4270
(lp4271
(g3849
(S's\x07\x00\x00\x00Preface'
tRp4272
I00
S'http://www.web2py.com/book/default/chapter/00'
p4273
tp4274
a(g3849
(S's\x0c\x00\x00\x00Introduction'
tRp4275
I00
S'http://www.web2py.com/book/default/chapter/01'
p4276
tp4277
a(g3849
(S's\x06\x00\x00\x00Python'
tRp4278
I00
S'http://www.web2py.com/book/default/chapter/02'
p4279
tp4280
a(g3849
(S's\x08\x00\x00\x00Overview'
tRp4281
I00
S'http://www.web2py.com/book/default/chapter/03'
p4282
tp4283
a(g3849
(S's\x08\x00\x00\x00The Core'
tRp4284
I00
S'http://www.web2py.com/book/default/chapter/04'
p4285
tp4286
a(g3849
(S's\t\x00\x00\x00The Views'
tRp4287
I00
S'http://www.web2py.com/book/default/chapter/05'
p4288
tp4289
a(g3849
(S's\x08\x00\x00\x00Database'
tRp4290
I00
S'http://www.web2py.com/book/default/chapter/06'
p4291
tp4292
a(g3849
(S's\x14\x00\x00\x00Forms and Validators'
tRp4293
I00
S'http://www.web2py.com/book/default/chapter/07'
p4294
tp4295
a(g3849
(S's\r\x00\x00\x00Email and SMS'
tRp4296
I00
S'http://www.web2py.com/book/default/chapter/08'
p4297
tp4298
a(g3849
(S's\x0e\x00\x00\x00Access Control'
tRp4299
I00
S'http://www.web2py.com/book/default/chapter/09'
p4300
tp4301
a(g3849
(S's\x08\x00\x00\x00Services'
tRp4302
I00
S'http://www.web2py.com/book/default/chapter/10'
p4303
tp4304
a(g3849
(S's\x0c\x00\x00\x00Ajax Recipes'
tRp4305
I00
S'http://www.web2py.com/book/default/chapter/11'
p4306
tp4307
a(g3849
(S's\x16\x00\x00\x00Components and Plugins'
tRp4308
I00
S'http://www.web2py.com/book/default/chapter/12'
p4309
tp4310
a(g3849
(S's\x12\x00\x00\x00Deployment Recipes'
tRp4311
I00
S'http://www.web2py.com/book/default/chapter/13'
p4312
tp4313
a(g3849
(S's\r\x00\x00\x00Other Recipes'
tRp4314
I00
S'http://www.web2py.com/book/default/chapter/14'
p4315
tp4316
a(g3849
(S's\r\x00\x00\x00Buy this book'
tRp4317
I00
S'http://stores.lulu.com/web2py'
p4318
tp4319
aasbasbasbasbasbasbasbag49
(g65
g51
NtRp4320
(dp4321
g54
(dp4322
sg63
g3962
sg56
(lp4323
g49
(g70
g51
NtRp4324
(dp4325
g54
(dp4326
sg63
g4320
sg56
(lp4327
g49
(g50
g51
NtRp4328
(dp4329
g54
(dp4330
g62
I2
ssg63
g4324
sg56
(lp4331
g49
(g58
g51
NtRp4332
(dp4333
g54
(dp4334
g62
I1
ssg63
Nsg56
(lp4335
g49
(g65
g51
NtRp4336
(dp4337
g54
(dp4338
sg63
g4332
sg56
(lp4339
g49
(g70
g51
NtRp4340
(dp4341
g54
(dp4342
sg63
g4336
sg56
(lp4343
g49
(g50
g51
NtRp4344
(dp4345
g54
(dp4346
g62
I1
ssg63
g4340
sg56
(lp4347
g3849
(S's\t\x00\x00\x00Community'
tRp4348
asbasbasbag49
(g65
g51
NtRp4349
(dp4350
g54
(dp4351
sg63
g4332
sg56
(lp4352
g49
(g70
g51
NtRp4353
(dp4354
g54
(dp4355
sg63
g4349
sg56
(lp4356
g49
(g50
g51
NtRp4357
(dp4358
g54
(dp4359
g62
I1
ssg63
g4353
sg56
(lp4360
I00
asbasbasbag49
(g65
g51
NtRp4361
(dp4362
g54
(dp4363
sg63
g4332
sg56
(lp4364
g49
(g70
g51
NtRp4365
(dp4366
g54
(dp4367
sg63
g4361
sg56
(lp4368
g49
(g50
g51
NtRp4369
(dp4370
g54
(dp4371
g62
I1
ssg63
g4365
sg56
(lp4372
Nasbasbasbag49
(g65
g51
NtRp4373
(dp4374
g54
(dp4375
sg63
g4332
sg56
(lp4376
g49
(g70
g51
NtRp4377
(dp4378
g54
(dp4379
sg63
g4373
sg56
(lp4380
g49
(g50
g51
NtRp4381
(dp4382
g54
(dp4383
g62
I1
ssg63
g4377
sg56
(lp4384
(lp4385
(g3849
(S's\x06\x00\x00\x00Groups'
tRp4386
I00
S'http://www.web2py.com/examples/default/usergroups'
p4387
tp4388
a(g3849
(S's\x07\x00\x00\x00Twitter'
tRp4389
I00
S'http://twitter.com/web2py'
p4390
tp4391
a(g3849
(S's\t\x00\x00\x00Live Chat'
tRp4392
I00
S'http://webchat.freenode.net/?channels=web2py'
p4393
tp4394
aasbasbasbasbasbasbasbag49
(g65
g51
NtRp4395
(dp4396
g54
(dp4397
sg63
g3962
sg56
(lp4398
g49
(g70
g51
NtRp4399
(dp4400
g54
(dp4401
sg63
g4395
sg56
(lp4402
g49
(g50
g51
NtRp4403
(dp4404
g54
(dp4405
g62
I2
ssg63
g4399
sg56
(lp4406
g49
(g58
g51
NtRp4407
(dp4408
g54
(dp4409
g62
I1
ssg63
Nsg56
(lp4410
g49
(g65
g51
NtRp4411
(dp4412
g54
(dp4413
sg63
g4407
sg56
(lp4414
g49
(g70
g51
NtRp4415
(dp4416
g54
(dp4417
sg63
g4411
sg56
(lp4418
g49
(g50
g51
NtRp4419
(dp4420
g54
(dp4421
g62
I1
ssg63
g4415
sg56
(lp4422
g3849
(S's\x07\x00\x00\x00Plugins'
tRp4423
asbasbasbag49
(g65
g51
NtRp4424
(dp4425
g54
(dp4426
sg63
g4407
sg56
(lp4427
g49
(g70
g51
NtRp4428
(dp4429
g54
(dp4430
sg63
g4424
sg56
(lp4431
g49
(g50
g51
NtRp4432
(dp4433
g54
(dp4434
g62
I1
ssg63
g4428
sg56
(lp4435
I00
asbasbasbag49
(g65
g51
NtRp4436
(dp4437
g54
(dp4438
sg63
g4407
sg56
(lp4439
g49
(g70
g51
NtRp4440
(dp4441
g54
(dp4442
sg63
g4436
sg56
(lp4443
g49
(g50
g51
NtRp4444
(dp4445
g54
(dp4446
g62
I1
ssg63
g4440
sg56
(lp4447
Nasbasbasbag49
(g65
g51
NtRp4448
(dp4449
g54
(dp4450
sg63
g4407
sg56
(lp4451
g49
(g70
g51
NtRp4452
(dp4453
g54
(dp4454
sg63
g4448
sg56
(lp4455
g49
(g50
g51
NtRp4456
(dp4457
g54
(dp4458
g62
I1
ssg63
g4452
sg56
(lp4459
(lp4460
(S'plugin_wiki'
p4461
I00
S'http://web2py.com/examples/default/download'
p4462
tp4463
a(g3849
(S's\r\x00\x00\x00Other Plugins'
tRp4464
I00
g4194
tp4465
a(g3849
(S's\x0e\x00\x00\x00Layout Plugins'
tRp4466
I00
g4197
tp4467
aasbasbasbasbasbasbasbasbasbasbasbasbasbasbasbasbasbasbasbag49
(g65
g51
NtRp4468
(dp4469
g54
(dp4470
sg63
g3313
sg56
(lp4471
g49
(g70
g51
NtRp4472
(dp4473
g54
(dp4474
g74
g75
ssg63
g4468
sg56
(lp4475
S'meta'
p4476
asbag49
(g70
g51
NtRp4477
(dp4478
g54
(dp4479
g81
g82
ssg63
g4468
sg56
(lp4480
S':'
asbag49
(g70
g51
NtRp4481
(dp4482
g54
(dp4483
sg63
g4468
sg56
(lp4484
g49
(g50
g51
NtRp4485
(dp4486
g54
(dp4487
g62
I5
ssg63
g4481
sg56
(lp4488
g49
(g58
g51
NtRp4489
(dp4490
g54
(dp4491
g62
I4
ssg63
Nsg56
(lp4492
g49
(g65
g51
NtRp4493
(dp4494
g54
(dp4495
sg63
g4489
sg56
(lp4496
g49
(g70
g51
NtRp4497
(dp4498
g54
(dp4499
g74
g75
ssg63
g4493
sg56
(lp4500
S'author'
p4501
asbag49
(g70
g51
NtRp4502
(dp4503
g54
(dp4504
g81
g82
ssg63
g4493
sg56
(lp4505
S':'
asbag49
(g70
g51
NtRp4506
(dp4507
g54
(dp4508
sg63
g4493
sg56
(lp4509
g49
(g50
g51
NtRp4510
(dp4511
g54
(dp4512
g62
I4
ssg63
g4506
sg56
(lp4513
S'Your Name <you@example.com>'
p4514
asbasbasbag49
(g65
g51
NtRp4515
(dp4516
g54
(dp4517
sg63
g4489
sg56
(lp4518
g49
(g70
g51
NtRp4519
(dp4520
g54
(dp4521
g74
g75
ssg63
g4515
sg56
(lp4522
S'copyright'
p4523
asbag49
(g70
g51
NtRp4524
(dp4525
g54
(dp4526
g81
g82
ssg63
g4515
sg56
(lp4527
S':'
asbag49
(g70
g51
NtRp4528
(dp4529
g54
(dp4530
sg63
g4515
sg56
(lp4531
g49
(g50
g51
NtRp4532
(dp4533
g54
(dp4534
g62
I4
ssg63
g4528
sg56
(lp4535
S'Copyright 2011'
p4536
asbasbasbag49
(g65
g51
NtRp4537
(dp4538
g54
(dp4539
sg63
g4489
sg56
(lp4540
g49
(g70
g51
NtRp4541
(dp4542
g54
(dp4543
g74
g75
ssg63
g4537
sg56
(lp4544
S'description'
p4545
asbag49
(g70
g51
NtRp4546
(dp4547
g54
(dp4548
g81
g82
ssg63
g4537
sg56
(lp4549
S':'
asbag49
(g70
g51
NtRp4550
(dp4551
g54
(dp4552
sg63
g4537
sg56
(lp4553
g49
(g50
g51
NtRp4554
(dp4555
g54
(dp4556
g62
I4
ssg63
g4550
sg56
(lp4557
S'a cool new app'
p4558
asbasbasbag49
(g65
g51
NtRp4559
(dp4560
g54
(dp4561
sg63
g4489
sg56
(lp4562
g49
(g70
g51
NtRp4563
(dp4564
g54
(dp4565
g74
g75
ssg63
g4559
sg56
(lp4566
S'generator'
p4567
asbag49
(g70
g51
NtRp4568
(dp4569
g54
(dp4570
g81
g82
ssg63
g4559
sg56
(lp4571
S':'
asbag49
(g70
g51
NtRp4572
(dp4573
g54
(dp4574
sg63
g4559
sg56
(lp4575
g49
(g50
g51
NtRp4576
(dp4577
g54
(dp4578
g62
I4
ssg63
g4572
sg56
(lp4579
S'Web2py Web Framework'
p4580
asbasbasbag49
(g65
g51
NtRp4581
(dp4582
g54
(dp4583
sg63
g4489
sg56
(lp4584
g49
(g70
g51
NtRp4585
(dp4586
g54
(dp4587
g74
g75
ssg63
g4581
sg56
(lp4588
S'keywords'
p4589
asbag49
(g70
g51
NtRp4590
(dp4591
g54
(dp4592
g81
g82
ssg63
g4581
sg56
(lp4593
S':'
asbag49
(g70
g51
NtRp4594
(dp4595
g54
(dp4596
sg63
g4581
sg56
(lp4597
g49
(g50
g51
NtRp4598
(dp4599
g54
(dp4600
g62
I4
ssg63
g4594
sg56
(lp4601
S'web2py, python, framework'
p4602
asbasbasbasbasbasbasbag49
(g65
g51
NtRp4603
(dp4604
g54
(dp4605
sg63
g3313
sg56
(lp4606
g49
(g70
g51
NtRp4607
(dp4608
g54
(dp4609
g74
g75
ssg63
g4603
sg56
(lp4610
S'postprocessing'
p4611
asbag49
(g70
g51
NtRp4612
(dp4613
g54
(dp4614
g81
g82
ssg63
g4603
sg56
(lp4615
S':'
asbag49
(g70
g51
NtRp4616
(dp4617
g54
(dp4618
sg63
g4603
sg56
(lp4619
g49
(g50
g51
NtRp4620
(dp4621
g54
(dp4622
g62
I5
ssg63
g4616
sg56
(lp4623
g49
(g58
g51
NtRp4624
(dp4625
g54
(dp4626
g62
I4
ssg63
Nsg56
(lp4627
sbasbasbasbag49
(g65
g51
NtRp4628
(dp4629
g54
(dp4630
sg63
g3313
sg56
(lp4631
g49
(g70
g51
NtRp4632
(dp4633
g54
(dp4634
g74
g75
ssg63
g4628
sg56
(lp4635
S'session_file'
p4636
asbag49
(g70
g51
NtRp4637
(dp4638
g54
(dp4639
g81
g82
ssg63
g4628
sg56
(lp4640
S':'
asbag49
(g70
g51
NtRp4641
(dp4642
g54
(dp4643
sg63
g4628
sg56
(lp4644
g49
(g50
g51
NtRp4645
(dp4646
g54
(dp4647
g62
I5
ssg63
g4641
sg56
(lp4648
S"<open file '/Users/udimilo/Documents/web2py/applications/udi0312/sessions/127.0.0.1-fcd6a577-d448-4882-b7bc-f353da84ba3b', mode 'rb+' at 0x9f80068>"
p4649
asbasbasbag49
(g65
g51
NtRp4650
(dp4651
g54
(dp4652
sg63
g3313
sg56
(lp4653
g49
(g70
g51
NtRp4654
(dp4655
g54
(dp4656
g74
g75
ssg63
g4650
sg56
(lp4657
S'session_filename'
p4658
asbag49
(g70
g51
NtRp4659
(dp4660
g54
(dp4661
g81
g82
ssg63
g4650
sg56
(lp4662
S':'
asbag49
(g70
g51
NtRp4663
(dp4664
g54
(dp4665
sg63
g4650
sg56
(lp4666
g49
(g50
g51
NtRp4667
(dp4668
g54
(dp4669
g62
I5
ssg63
g4663
sg56
(lp4670
S'/Users/udimilo/Documents/web2py/applications/udi0312/sessions/127.0.0.1-fcd6a577-d448-4882-b7bc-f353da84ba3b'
p4671
asbasbasbag49
(g65
g51
NtRp4672
(dp4673
g54
(dp4674
sg63
g3313
sg56
(lp4675
g49
(g70
g51
NtRp4676
(dp4677
g54
(dp4678
g74
g75
ssg63
g4672
sg56
(lp4679
S'session_id'
p4680
asbag49
(g70
g51
NtRp4681
(dp4682
g54
(dp4683
g81
g82
ssg63
g4672
sg56
(lp4684
S':'
asbag49
(g70
g51
NtRp4685
(dp4686
g54
(dp4687
sg63
g4672
sg56
(lp4688
g49
(g50
g51
NtRp4689
(dp4690
g54
(dp4691
g62
I5
ssg63
g4685
sg56
(lp4692
S'127.0.0.1-fcd6a577-d448-4882-b7bc-f353da84ba3b'
p4693
asbasbasbag49
(g65
g51
NtRp4694
(dp4695
g54
(dp4696
sg63
g3313
sg56
(lp4697
g49
(g70
g51
NtRp4698
(dp4699
g54
(dp4700
g74
g75
ssg63
g4694
sg56
(lp4701
S'session_id_name'
p4702
asbag49
(g70
g51
NtRp4703
(dp4704
g54
(dp4705
g81
g82
ssg63
g4694
sg56
(lp4706
S':'
asbag49
(g70
g51
NtRp4707
(dp4708
g54
(dp4709
sg63
g4694
sg56
(lp4710
g49
(g50
g51
NtRp4711
(dp4712
g54
(dp4713
g62
I5
ssg63
g4707
sg56
(lp4714
g3370
asbasbasbag49
(g65
g51
NtRp4715
(dp4716
g54
(dp4717
sg63
g3313
sg56
(lp4718
g49
(g70
g51
NtRp4719
(dp4720
g54
(dp4721
g74
g75
ssg63
g4715
sg56
(lp4722
S'session_locked'
p4723
asbag49
(g70
g51
NtRp4724
(dp4725
g54
(dp4726
g81
g82
ssg63
g4715
sg56
(lp4727
S':'
asbag49
(g70
g51
NtRp4728
(dp4729
g54
(dp4730
sg63
g4715
sg56
(lp4731
g49
(g50
g51
NtRp4732
(dp4733
g54
(dp4734
g62
I5
ssg63
g4728
sg56
(lp4735
g92
asbasbasbag49
(g65
g51
NtRp4736
(dp4737
g54
(dp4738
sg63
g3313
sg56
(lp4739
g49
(g70
g51
NtRp4740
(dp4741
g54
(dp4742
g74
g75
ssg63
g4736
sg56
(lp4743
S'session_new'
p4744
asbag49
(g70
g51
NtRp4745
(dp4746
g54
(dp4747
g81
g82
ssg63
g4736
sg56
(lp4748
S':'
asbag49
(g70
g51
NtRp4749
(dp4750
g54
(dp4751
sg63
g4736
sg56
(lp4752
g49
(g50
g51
NtRp4753
(dp4754
g54
(dp4755
g62
I5
ssg63
g4749
sg56
(lp4756
g770
asbasbasbag49
(g65
g51
NtRp4757
(dp4758
g54
(dp4759
sg63
g3313
sg56
(lp4760
g49
(g70
g51
NtRp4761
(dp4762
g54
(dp4763
g74
g75
ssg63
g4757
sg56
(lp4764
S'status'
p4765
asbag49
(g70
g51
NtRp4766
(dp4767
g54
(dp4768
g81
g82
ssg63
g4757
sg56
(lp4769
S':'
asbag49
(g70
g51
NtRp4770
(dp4771
g54
(dp4772
sg63
g4757
sg56
(lp4773
g49
(g50
g51
NtRp4774
(dp4775
g54
(dp4776
g62
I5
ssg63
g4770
sg56
(lp4777
S'200'
p4778
asbasbasbag49
(g65
g51
NtRp4779
(dp4780
g54
(dp4781
sg63
g3313
sg56
(lp4782
g49
(g70
g51
NtRp4783
(dp4784
g54
(dp4785
g74
g75
ssg63
g4779
sg56
(lp4786
S'subtitle'
p4787
asbag49
(g70
g51
NtRp4788
(dp4789
g54
(dp4790
g81
g82
ssg63
g4779
sg56
(lp4791
S':'
asbag49
(g70
g51
NtRp4792
(dp4793
g54
(dp4794
sg63
g4779
sg56
(lp4795
g49
(g50
g51
NtRp4796
(dp4797
g54
(dp4798
g62
I5
ssg63
g4792
sg56
(lp4799
g3849
(S's\r\x00\x00\x00customize me!'
tRp4800
asbasbasbag49
(g65
g51
NtRp4801
(dp4802
g54
(dp4803
sg63
g3313
sg56
(lp4804
g49
(g70
g51
NtRp4805
(dp4806
g54
(dp4807
g74
g75
ssg63
g4801
sg56
(lp4808
S'title'
p4809
asbag49
(g70
g51
NtRp4810
(dp4811
g54
(dp4812
g81
g82
ssg63
g4801
sg56
(lp4813
S':'
asbag49
(g70
g51
NtRp4814
(dp4815
g54
(dp4816
sg63
g4801
sg56
(lp4817
g49
(g50
g51
NtRp4818
(dp4819
g54
(dp4820
g62
I5
ssg63
g4814
sg56
(lp4821
S'Udi0312'
p4822
asbasbasbag49
(g65
g51
NtRp4823
(dp4824
g54
(dp4825
sg63
g3313
sg56
(lp4826
g49
(g70
g51
NtRp4827
(dp4828
g54
(dp4829
g74
g75
ssg63
g4823
sg56
(lp4830
g2324
asbag49
(g70
g51
NtRp4831
(dp4832
g54
(dp4833
g81
g82
ssg63
g4823
sg56
(lp4834
S':'
asbag49
(g70
g51
NtRp4835
(dp4836
g54
(dp4837
sg63
g4823
sg56
(lp4838
g49
(g50
g51
NtRp4839
(dp4840
g54
(dp4841
g62
I5
ssg63
g4835
sg56
(lp4842
g2337
asbasbasbag49
(g65
g51
NtRp4843
(dp4844
g54
(dp4845
sg63
g3313
sg56
(lp4846
g49
(g70
g51
NtRp4847
(dp4848
g54
(dp4849
g74
g75
ssg63
g4843
sg56
(lp4850
S'view'
p4851
asbag49
(g70
g51
NtRp4852
(dp4853
g54
(dp4854
g81
g82
ssg63
g4843
sg56
(lp4855
S':'
asbag49
(g70
g51
NtRp4856
(dp4857
g54
(dp4858
sg63
g4843
sg56
(lp4859
g49
(g50
g51
NtRp4860
(dp4861
g54
(dp4862
g62
I5
ssg63
g4856
sg56
(lp4863
S'default/add_board.html'
p4864
asbasbasbasbasbsS'locals'
p4865
(dp4866
S'name'
p4867
S"'<'"
p4868
sssS'traceback'
p4869
S'Traceback (most recent call last):\n  File "/users/udimilo/Documents/web2py/gluon/restricted.py", line 205, in restricted\n    exec ccode in environment\n  File "/Users/udimilo/Documents/web2py/applications/udi0312/controllers/default.py", line 169, in <module>\n  File "/users/udimilo/Documents/web2py/gluon/globals.py", line 173, in <lambda>\n    self._caller = lambda f: f()\n  File "/Users/udimilo/Documents/web2py/applications/udi0312/controllers/default.py", line 23, in add_board\n    if re.match(\'(^[\\w\\s.-]+$)\', name):\nNameError: global name \'re\' is not defined\n'
p4870
s.