(dp1
S'output'
p2
S"<type 'exceptions.ImportError'> No module named google.appengine.api"
p3
sS'layer'
p4
S'/Users/udimilo/Documents/web2py/applications/udi0312/models/db.py'
p5
sS'code'
p6
S"# -*- coding: utf-8 -*-\n\n#########################################################################\n## This scaffolding model makes your app work on Google App Engine too\n## File is released under public domain and you can use without limitations\n#########################################################################\n\n## if SSL/HTTPS is properly configured and you want all HTTP requests to\n## be redirected to HTTPS, uncomment the line below:\n# request.requires_https()\n\nif not request.env.web2py_runtime_gae:\n    ## if NOT running on Google App Engine use SQLite or other DB\n    db = DAL('sqlite://storage.sqlite')\nelse:\n    ## connect to Google BigTable (optional 'google:datastore://namespace')\n    db = DAL('google:datastore')\n    ## store sessions and tickets there\n    session.connect(request, response, db = db)\n    ## or store session in Memcache, Redis, etc.\n    ## from gluon.contrib.memdb import MEMDB\n    ## from google.appengine.api.memcache import Client\n    ## session.connect(request, response, db = MEMDB(Client()))\n\n## by default give a view/generic.extension to all actions from localhost\n## none otherwise. a pattern can be 'controller/function.extension'\nresponse.generic_patterns = ['*'] if request.is_local else []\n## (optional) optimize handling of static files\n# response.optimize_css = 'concat,minify,inline'\n# response.optimize_js = 'concat,minify,inline'\n\n#########################################################################\n## Here is sample code if you need for\n## - email capabilities\n## - authentication (registration, login, logout, ... )\n## - authorization (role based authorization)\n## - services (xml, csv, json, xmlrpc, jsonrpc, amf, rss)\n## - old style crud actions\n## (more options discussed in gluon/tools.py)\n#########################################################################\n\nfrom gluon.tools import Auth, Crud, Service, PluginManager, prettydate\nauth = Auth(db, hmac_key=Auth.get_or_create_key())\ncrud, service, plugins = Crud(db), Service(), PluginManager()\n\n## create all tables needed by auth if not custom tables\nauth.define_tables()\n\n## configure email\nmail=auth.settings.mailer\nmail.settings.server = 'logging' or 'smtp.gmail.com:587'\nmail.settings.sender = 'you@gmail.com'\nmail.settings.login = 'username:password'\n\n## configure auth policy\nauth.settings.registration_requires_verification = False\nauth.settings.registration_requires_approval = False\nauth.settings.reset_password_requires_verification = True\n\n## if you need to use OpenID, Facebook, MySpace, Twitter, Linkedin, etc.\n## register with janrain.com, write your domain:api_key in private/janrain.key\n##from gluon.contrib.login_methods.rpx_account import use_janrain\n##use_janrain(auth,filename='private/janrain.key')\n\n## LinkedIn\nfrom linkedinAccount import LinkedInAccount\nauth.settings.login_form=LinkedInAccount(\n    request,\n    'wFNJekVpDCJtRPFX812pQsJee-gt0zO4X5XmG6wcfSOSlLocxodAXNMbl0_hw3Vl',\n    'daJDa6_8UcnGMw1yuq9TjoO_PMKukXMo8vEMo7Qv5J-G3SPgrAV0FqFCd0TNjQyG',\n    'http://127.0.0.1:8000')\n\n#########################################################################\n## Define your tables below (or better in another model file) for example\n##\n## >>> db.define_table('mytable',Field('myfield','string'))\n##\n## Fields can be 'string','text','password','integer','double','boolean'\n##       'date','time','datetime','blob','upload', 'reference TABLENAME'\n## There is an implicit 'id integer autoincrement' field\n## Consult manual for more options, validators, etc.\n##\n## More API examples for controllers:\n##\n## >>> db.mytable.insert(myfield='value')\n## >>> rows=db(db.mytable.myfield=='value').select(db.mytable.ALL)\n## >>> for row in rows: print row.id, row.myfield\n#########################################################################\n    \ndb.define_table('category',\n    Field('name'),\n    Field('created_on', 'datetime', default=request.now),\n    format = '%(name)s')\n    \ndb.define_table('board',\n    Field('name'),\n    Field('user', db.auth_user),\n    Field('category', db.category),\n    Field('created_on', 'datetime', default=request.now),\n    format = '%(name)s')\n\ndb.define_table('article',\n    Field('url'),\n    Field('readability_url'),\n    Field('title'),\n    Field('content', 'text'),\n    Field('domain'),\n    Field('author'),\n    Field('excerpt', 'text'),\n    Field('word_count'),\n    Field('total_pages'),\n    Field('date_published'),\n    Field('next_page_id'),\n    Field('rendered_pages'),\n    Field('created_on', 'datetime', default=request.now),\n    format = '%(title)s')\n\ndb.define_table('pin',\n    Field('board', db.board),\n    Field('board_name'),\n    Field('user', db.auth_user),\n    Field('user_name'),\n    Field('article', db.article),\n    Field('article_title'),\n    Field('article_domain'),\n    Field('article_content', 'text'),\n    Field('article_excerpt', 'text'),\n    Field('original_pin', 'reference pin'),\n    Field('created_on', 'datetime', default=request.now),)\n\ndb.define_table('comment',\n    Field('user', db.auth_user),\n    Field('pin', db.pin),\n    Field('content'),\n    Field('created_on', 'datetime', default=request.now),)\n\ndb.define_table('star',\n    Field('article', db.article),\n    Field('user', db.auth_user),\n    Field('created_on', 'datetime', default=request.now),)\n    \ndb.define_table('user_user',\n    Field('follower', db.auth_user),\n    Field('followee', db.auth_user),\n    Field('created_on', 'datetime', default=request.now),)\n    \ndb.define_table('user_board',\n    Field('follower', db.auth_user),\n    Field('board', db.board),\n    Field('created_on', 'datetime', default=request.now),)\n\ndb.define_table('rss_feed',\n    Field('url'),\n    Field('board', db.board),\n    Field('created_on', 'datetime', default=request.now),)\n"
p7
sS'snapshot'
p8
(dp9
S'exception'
p10
(dp11
S'__hash__'
p12
S"<method-wrapper '__hash__' of exceptions.ImportError object at 0x8e9deb8>"
p13
sS'__setattr__'
p14
S"<method-wrapper '__setattr__' of exceptions.ImportError object at 0x8e9deb8>"
p15
sS'__reduce_ex__'
p16
S'<built-in method __reduce_ex__ of exceptions.ImportError object at 0x8e9deb8>'
p17
sS'__getslice__'
p18
S"<method-wrapper '__getslice__' of exceptions.ImportError object at 0x8e9deb8>"
p19
sS'__getitem__'
p20
S"<method-wrapper '__getitem__' of exceptions.ImportError object at 0x8e9deb8>"
p21
sS'__setstate__'
p22
S'<built-in method __setstate__ of exceptions.ImportError object at 0x8e9deb8>'
p23
sS'__reduce__'
p24
S'<built-in method __reduce__ of exceptions.ImportError object at 0x8e9deb8>'
p25
sS'__str__'
p26
S"<method-wrapper '__str__' of exceptions.ImportError object at 0x8e9deb8>"
p27
sS'args'
p28
S"('No module named google.appengine.api',)"
p29
sS'__getattribute__'
p30
S"<method-wrapper '__getattribute__' of exceptions.ImportError object at 0x8e9deb8>"
p31
sS'__class__'
p32
S"<type 'exceptions.ImportError'>"
p33
sS'__delattr__'
p34
S"<method-wrapper '__delattr__' of exceptions.ImportError object at 0x8e9deb8>"
p35
sS'__repr__'
p36
S"<method-wrapper '__repr__' of exceptions.ImportError object at 0x8e9deb8>"
p37
sS'__dict__'
p38
S'{}'
p39
sS'__doc__'
p40
S'"Import can\'t find module, or can\'t find name in module."'
p41
sS'__init__'
p42
S"<method-wrapper '__init__' of exceptions.ImportError object at 0x8e9deb8>"
p43
sS'__new__'
p44
S'<built-in method __new__ of type object at 0x100cc0>'
p45
ssS'evalue'
p46
S'No module named google.appengine.api'
p47
sS'request'
p48
ccopy_reg
_reconstructor
p49
(cgluon.html
BEAUTIFY
p50
c__builtin__
object
p51
NtRp52
(dp53
S'attributes'
p54
(dp55
sS'components'
p56
(lp57
g49
(cgluon.html
TABLE
p58
g51
NtRp59
(dp60
g54
(dp61
S'level'
p62
I5
ssS'parent'
p63
Nsg56
(lp64
g49
(cgluon.html
TR
p65
g51
NtRp66
(dp67
g54
(dp68
sg63
g59
sg56
(lp69
g49
(cgluon.html
TD
p70
g51
NtRp71
(dp72
g54
(dp73
S'_style'
p74
S'font-weight:bold;vertical-align:top'
p75
ssg63
g66
sg56
(lp76
S'ajax'
p77
asbag49
(g70
g51
NtRp78
(dp79
g54
(dp80
S'_valign'
p81
S'top'
p82
ssg63
g66
sg56
(lp83
S':'
asbag49
(g70
g51
NtRp84
(dp85
g54
(dp86
sg63
g66
sg56
(lp87
g49
(g50
g51
NtRp88
(dp89
g54
(dp90
g62
I5
ssg63
g84
sg56
(lp91
S'False'
p92
asbasbasbag49
(g65
g51
NtRp93
(dp94
g54
(dp95
sg63
g59
sg56
(lp96
g49
(g70
g51
NtRp97
(dp98
g54
(dp99
g74
g75
ssg63
g93
sg56
(lp100
S'application'
p101
asbag49
(g70
g51
NtRp102
(dp103
g54
(dp104
g81
g82
ssg63
g93
sg56
(lp105
S':'
asbag49
(g70
g51
NtRp106
(dp107
g54
(dp108
sg63
g93
sg56
(lp109
g49
(g50
g51
NtRp110
(dp111
g54
(dp112
g62
I5
ssg63
g106
sg56
(lp113
S'udi0312'
p114
asbasbasbag49
(g65
g51
NtRp115
(dp116
g54
(dp117
sg63
g59
sg56
(lp118
g49
(g70
g51
NtRp119
(dp120
g54
(dp121
g74
g75
ssg63
g115
sg56
(lp122
g28
asbag49
(g70
g51
NtRp123
(dp124
g54
(dp125
g81
g82
ssg63
g115
sg56
(lp126
S':'
asbag49
(g70
g51
NtRp127
(dp128
g54
(dp129
sg63
g115
sg56
(lp130
g49
(g50
g51
NtRp131
(dp132
g54
(dp133
g62
I5
ssg63
g127
sg56
(lp134
g49
(g58
g51
NtRp135
(dp136
g54
(dp137
g62
I4
ssg63
Nsg56
(lp138
g49
(g65
g51
NtRp139
(dp140
g54
(dp141
sg63
g135
sg56
(lp142
g49
(g70
g51
NtRp143
(dp144
g54
(dp145
sg63
g139
sg56
(lp146
g49
(g50
g51
NtRp147
(dp148
g54
(dp149
g62
I4
ssg63
g143
sg56
(lp150
S'login'
p151
asbasbasbasbasbasbasbag49
(g65
g51
NtRp152
(dp153
g54
(dp154
sg63
g59
sg56
(lp155
g49
(g70
g51
NtRp156
(dp157
g54
(dp158
g74
g75
ssg63
g152
sg56
(lp159
S'body'
p160
asbag49
(g70
g51
NtRp161
(dp162
g54
(dp163
g81
g82
ssg63
g152
sg56
(lp164
S':'
asbag49
(g70
g51
NtRp165
(dp166
g54
(dp167
sg63
g152
sg56
(lp168
g49
(g50
g51
NtRp169
(dp170
g54
(dp171
g62
I5
ssg63
g165
sg56
(lp172
S'<cStringIO.StringO object at 0x8d43de0>'
p173
asbasbasbag49
(g65
g51
NtRp174
(dp175
g54
(dp176
sg63
g59
sg56
(lp177
g49
(g70
g51
NtRp178
(dp179
g54
(dp180
g74
g75
ssg63
g174
sg56
(lp181
S'client'
p182
asbag49
(g70
g51
NtRp183
(dp184
g54
(dp185
g81
g82
ssg63
g174
sg56
(lp186
S':'
asbag49
(g70
g51
NtRp187
(dp188
g54
(dp189
sg63
g174
sg56
(lp190
g49
(g50
g51
NtRp191
(dp192
g54
(dp193
g62
I5
ssg63
g187
sg56
(lp194
S'127.0.0.1'
p195
asbasbasbag49
(g65
g51
NtRp196
(dp197
g54
(dp198
sg63
g59
sg56
(lp199
g49
(g70
g51
NtRp200
(dp201
g54
(dp202
g74
g75
ssg63
g196
sg56
(lp203
S'controller'
p204
asbag49
(g70
g51
NtRp205
(dp206
g54
(dp207
g81
g82
ssg63
g196
sg56
(lp208
S':'
asbag49
(g70
g51
NtRp209
(dp210
g54
(dp211
sg63
g196
sg56
(lp212
g49
(g50
g51
NtRp213
(dp214
g54
(dp215
g62
I5
ssg63
g209
sg56
(lp216
S'default'
p217
asbasbasbag49
(g65
g51
NtRp218
(dp219
g54
(dp220
sg63
g59
sg56
(lp221
g49
(g70
g51
NtRp222
(dp223
g54
(dp224
g74
g75
ssg63
g218
sg56
(lp225
S'cookies'
p226
asbag49
(g70
g51
NtRp227
(dp228
g54
(dp229
g81
g82
ssg63
g218
sg56
(lp230
S':'
asbag49
(g70
g51
NtRp231
(dp232
g54
(dp233
sg63
g218
sg56
(lp234
g49
(g50
g51
NtRp235
(dp236
g54
(dp237
g62
I5
ssg63
g231
sg56
(lp238
g49
(g58
g51
NtRp239
(dp240
g54
(dp241
g62
I4
ssg63
Nsg56
(lp242
g49
(g65
g51
NtRp243
(dp244
g54
(dp245
sg63
g239
sg56
(lp246
g49
(g70
g51
NtRp247
(dp248
g54
(dp249
g74
g75
ssg63
g243
sg56
(lp250
S'session_id_admin'
p251
asbag49
(g70
g51
NtRp252
(dp253
g54
(dp254
g81
g82
ssg63
g243
sg56
(lp255
S':'
asbag49
(g70
g51
NtRp256
(dp257
g54
(dp258
sg63
g243
sg56
(lp259
g49
(g50
g51
NtRp260
(dp261
g54
(dp262
g62
I4
ssg63
g256
sg56
(lp263
g49
(g58
g51
NtRp264
(dp265
g54
(dp266
g62
I3
ssg63
Nsg56
(lp267
g49
(g65
g51
NtRp268
(dp269
g54
(dp270
sg63
g264
sg56
(lp271
g49
(g70
g51
NtRp272
(dp273
g54
(dp274
g74
g75
ssg63
g268
sg56
(lp275
S'comment'
p276
asbag49
(g70
g51
NtRp277
(dp278
g54
(dp279
g81
g82
ssg63
g268
sg56
(lp280
S':'
asbag49
(g70
g51
NtRp281
(dp282
g54
(dp283
sg63
g268
sg56
(lp284
g49
(g50
g51
NtRp285
(dp286
g54
(dp287
g62
I3
ssg63
g281
sg56
(lp288
S''
asbasbasbag49
(g65
g51
NtRp289
(dp290
g54
(dp291
sg63
g264
sg56
(lp292
g49
(g70
g51
NtRp293
(dp294
g54
(dp295
g74
g75
ssg63
g289
sg56
(lp296
S'domain'
p297
asbag49
(g70
g51
NtRp298
(dp299
g54
(dp300
g81
g82
ssg63
g289
sg56
(lp301
S':'
asbag49
(g70
g51
NtRp302
(dp303
g54
(dp304
sg63
g289
sg56
(lp305
g49
(g50
g51
NtRp306
(dp307
g54
(dp308
g62
I3
ssg63
g302
sg56
(lp309
S''
asbasbasbag49
(g65
g51
NtRp310
(dp311
g54
(dp312
sg63
g264
sg56
(lp313
g49
(g70
g51
NtRp314
(dp315
g54
(dp316
g74
g75
ssg63
g310
sg56
(lp317
S'expires'
p318
asbag49
(g70
g51
NtRp319
(dp320
g54
(dp321
g81
g82
ssg63
g310
sg56
(lp322
S':'
asbag49
(g70
g51
NtRp323
(dp324
g54
(dp325
sg63
g310
sg56
(lp326
g49
(g50
g51
NtRp327
(dp328
g54
(dp329
g62
I3
ssg63
g323
sg56
(lp330
S''
asbasbasbag49
(g65
g51
NtRp331
(dp332
g54
(dp333
sg63
g264
sg56
(lp334
g49
(g70
g51
NtRp335
(dp336
g54
(dp337
g74
g75
ssg63
g331
sg56
(lp338
S'max-age'
p339
asbag49
(g70
g51
NtRp340
(dp341
g54
(dp342
g81
g82
ssg63
g331
sg56
(lp343
S':'
asbag49
(g70
g51
NtRp344
(dp345
g54
(dp346
sg63
g331
sg56
(lp347
g49
(g50
g51
NtRp348
(dp349
g54
(dp350
g62
I3
ssg63
g344
sg56
(lp351
S''
asbasbasbag49
(g65
g51
NtRp352
(dp353
g54
(dp354
sg63
g264
sg56
(lp355
g49
(g70
g51
NtRp356
(dp357
g54
(dp358
g74
g75
ssg63
g352
sg56
(lp359
S'path'
p360
asbag49
(g70
g51
NtRp361
(dp362
g54
(dp363
g81
g82
ssg63
g352
sg56
(lp364
S':'
asbag49
(g70
g51
NtRp365
(dp366
g54
(dp367
sg63
g352
sg56
(lp368
g49
(g50
g51
NtRp369
(dp370
g54
(dp371
g62
I3
ssg63
g365
sg56
(lp372
S''
asbasbasbag49
(g65
g51
NtRp373
(dp374
g54
(dp375
sg63
g264
sg56
(lp376
g49
(g70
g51
NtRp377
(dp378
g54
(dp379
g74
g75
ssg63
g373
sg56
(lp380
S'secure'
p381
asbag49
(g70
g51
NtRp382
(dp383
g54
(dp384
g81
g82
ssg63
g373
sg56
(lp385
S':'
asbag49
(g70
g51
NtRp386
(dp387
g54
(dp388
sg63
g373
sg56
(lp389
g49
(g50
g51
NtRp390
(dp391
g54
(dp392
g62
I3
ssg63
g386
sg56
(lp393
S''
asbasbasbag49
(g65
g51
NtRp394
(dp395
g54
(dp396
sg63
g264
sg56
(lp397
g49
(g70
g51
NtRp398
(dp399
g54
(dp400
g74
g75
ssg63
g394
sg56
(lp401
S'version'
p402
asbag49
(g70
g51
NtRp403
(dp404
g54
(dp405
g81
g82
ssg63
g394
sg56
(lp406
S':'
asbag49
(g70
g51
NtRp407
(dp408
g54
(dp409
sg63
g394
sg56
(lp410
g49
(g50
g51
NtRp411
(dp412
g54
(dp413
g62
I3
ssg63
g407
sg56
(lp414
S''
asbasbasbasbasbasbasbag49
(g65
g51
NtRp415
(dp416
g54
(dp417
sg63
g239
sg56
(lp418
g49
(g70
g51
NtRp419
(dp420
g54
(dp421
g74
g75
ssg63
g415
sg56
(lp422
S'session_id_udi0312'
p423
asbag49
(g70
g51
NtRp424
(dp425
g54
(dp426
g81
g82
ssg63
g415
sg56
(lp427
S':'
asbag49
(g70
g51
NtRp428
(dp429
g54
(dp430
sg63
g415
sg56
(lp431
g49
(g50
g51
NtRp432
(dp433
g54
(dp434
g62
I4
ssg63
g428
sg56
(lp435
g49
(g58
g51
NtRp436
(dp437
g54
(dp438
g62
I3
ssg63
Nsg56
(lp439
g49
(g65
g51
NtRp440
(dp441
g54
(dp442
sg63
g436
sg56
(lp443
g49
(g70
g51
NtRp444
(dp445
g54
(dp446
g74
g75
ssg63
g440
sg56
(lp447
g276
asbag49
(g70
g51
NtRp448
(dp449
g54
(dp450
g81
g82
ssg63
g440
sg56
(lp451
S':'
asbag49
(g70
g51
NtRp452
(dp453
g54
(dp454
sg63
g440
sg56
(lp455
g49
(g50
g51
NtRp456
(dp457
g54
(dp458
g62
I3
ssg63
g452
sg56
(lp459
S''
asbasbasbag49
(g65
g51
NtRp460
(dp461
g54
(dp462
sg63
g436
sg56
(lp463
g49
(g70
g51
NtRp464
(dp465
g54
(dp466
g74
g75
ssg63
g460
sg56
(lp467
g297
asbag49
(g70
g51
NtRp468
(dp469
g54
(dp470
g81
g82
ssg63
g460
sg56
(lp471
S':'
asbag49
(g70
g51
NtRp472
(dp473
g54
(dp474
sg63
g460
sg56
(lp475
g49
(g50
g51
NtRp476
(dp477
g54
(dp478
g62
I3
ssg63
g472
sg56
(lp479
S''
asbasbasbag49
(g65
g51
NtRp480
(dp481
g54
(dp482
sg63
g436
sg56
(lp483
g49
(g70
g51
NtRp484
(dp485
g54
(dp486
g74
g75
ssg63
g480
sg56
(lp487
g318
asbag49
(g70
g51
NtRp488
(dp489
g54
(dp490
g81
g82
ssg63
g480
sg56
(lp491
S':'
asbag49
(g70
g51
NtRp492
(dp493
g54
(dp494
sg63
g480
sg56
(lp495
g49
(g50
g51
NtRp496
(dp497
g54
(dp498
g62
I3
ssg63
g492
sg56
(lp499
S''
asbasbasbag49
(g65
g51
NtRp500
(dp501
g54
(dp502
sg63
g436
sg56
(lp503
g49
(g70
g51
NtRp504
(dp505
g54
(dp506
g74
g75
ssg63
g500
sg56
(lp507
g339
asbag49
(g70
g51
NtRp508
(dp509
g54
(dp510
g81
g82
ssg63
g500
sg56
(lp511
S':'
asbag49
(g70
g51
NtRp512
(dp513
g54
(dp514
sg63
g500
sg56
(lp515
g49
(g50
g51
NtRp516
(dp517
g54
(dp518
g62
I3
ssg63
g512
sg56
(lp519
S''
asbasbasbag49
(g65
g51
NtRp520
(dp521
g54
(dp522
sg63
g436
sg56
(lp523
g49
(g70
g51
NtRp524
(dp525
g54
(dp526
g74
g75
ssg63
g520
sg56
(lp527
g360
asbag49
(g70
g51
NtRp528
(dp529
g54
(dp530
g81
g82
ssg63
g520
sg56
(lp531
S':'
asbag49
(g70
g51
NtRp532
(dp533
g54
(dp534
sg63
g520
sg56
(lp535
g49
(g50
g51
NtRp536
(dp537
g54
(dp538
g62
I3
ssg63
g532
sg56
(lp539
S''
asbasbasbag49
(g65
g51
NtRp540
(dp541
g54
(dp542
sg63
g436
sg56
(lp543
g49
(g70
g51
NtRp544
(dp545
g54
(dp546
g74
g75
ssg63
g540
sg56
(lp547
g381
asbag49
(g70
g51
NtRp548
(dp549
g54
(dp550
g81
g82
ssg63
g540
sg56
(lp551
S':'
asbag49
(g70
g51
NtRp552
(dp553
g54
(dp554
sg63
g540
sg56
(lp555
g49
(g50
g51
NtRp556
(dp557
g54
(dp558
g62
I3
ssg63
g552
sg56
(lp559
S''
asbasbasbag49
(g65
g51
NtRp560
(dp561
g54
(dp562
sg63
g436
sg56
(lp563
g49
(g70
g51
NtRp564
(dp565
g54
(dp566
g74
g75
ssg63
g560
sg56
(lp567
g402
asbag49
(g70
g51
NtRp568
(dp569
g54
(dp570
g81
g82
ssg63
g560
sg56
(lp571
S':'
asbag49
(g70
g51
NtRp572
(dp573
g54
(dp574
sg63
g560
sg56
(lp575
g49
(g50
g51
NtRp576
(dp577
g54
(dp578
g62
I3
ssg63
g572
sg56
(lp579
S''
asbasbasbasbasbasbasbasbasbasbasbag49
(g65
g51
NtRp580
(dp581
g54
(dp582
sg63
g59
sg56
(lp583
g49
(g70
g51
NtRp584
(dp585
g54
(dp586
g74
g75
ssg63
g580
sg56
(lp587
S'env'
p588
asbag49
(g70
g51
NtRp589
(dp590
g54
(dp591
g81
g82
ssg63
g580
sg56
(lp592
S':'
asbag49
(g70
g51
NtRp593
(dp594
g54
(dp595
sg63
g580
sg56
(lp596
g49
(g50
g51
NtRp597
(dp598
g54
(dp599
g62
I5
ssg63
g593
sg56
(lp600
g49
(g58
g51
NtRp601
(dp602
g54
(dp603
g62
I4
ssg63
Nsg56
(lp604
g49
(g65
g51
NtRp605
(dp606
g54
(dp607
sg63
g601
sg56
(lp608
g49
(g70
g51
NtRp609
(dp610
g54
(dp611
g74
g75
ssg63
g605
sg56
(lp612
S'app_folders'
p613
asbag49
(g70
g51
NtRp614
(dp615
g54
(dp616
g81
g82
ssg63
g605
sg56
(lp617
S':'
asbag49
(g70
g51
NtRp618
(dp619
g54
(dp620
sg63
g605
sg56
(lp621
g49
(g50
g51
NtRp622
(dp623
g54
(dp624
g62
I4
ssg63
g618
sg56
(lp625
S"set(['/Users/udimilo/Documents/web2py/applications/udi0312/', '/Users/udimilo/Documents/web2py/applications/admin/'])"
p626
asbasbasbag49
(g65
g51
NtRp627
(dp628
g54
(dp629
sg63
g601
sg56
(lp630
g49
(g70
g51
NtRp631
(dp632
g54
(dp633
g74
g75
ssg63
g627
sg56
(lp634
S'applications_parent'
p635
asbag49
(g70
g51
NtRp636
(dp637
g54
(dp638
g81
g82
ssg63
g627
sg56
(lp639
S':'
asbag49
(g70
g51
NtRp640
(dp641
g54
(dp642
sg63
g627
sg56
(lp643
g49
(g50
g51
NtRp644
(dp645
g54
(dp646
g62
I4
ssg63
g640
sg56
(lp647
S'/Users/udimilo/Documents/web2py'
p648
asbasbasbag49
(g65
g51
NtRp649
(dp650
g54
(dp651
sg63
g601
sg56
(lp652
g49
(g70
g51
NtRp653
(dp654
g54
(dp655
g74
g75
ssg63
g649
sg56
(lp656
S'cmd_args'
p657
asbag49
(g70
g51
NtRp658
(dp659
g54
(dp660
g81
g82
ssg63
g649
sg56
(lp661
S':'
asbag49
(g70
g51
NtRp662
(dp663
g54
(dp664
sg63
g649
sg56
(lp665
g49
(g50
g51
NtRp666
(dp667
g54
(dp668
g62
I4
ssg63
g662
sg56
(lp669
g49
(g58
g51
NtRp670
(dp671
g54
(dp672
g62
I3
ssg63
Nsg56
(lp673
sbasbasbasbag49
(g65
g51
NtRp674
(dp675
g54
(dp676
sg63
g601
sg56
(lp677
g49
(g70
g51
NtRp678
(dp679
g54
(dp680
g74
g75
ssg63
g674
sg56
(lp681
S'cmd_options'
p682
asbag49
(g70
g51
NtRp683
(dp684
g54
(dp685
g81
g82
ssg63
g674
sg56
(lp686
S':'
asbag49
(g70
g51
NtRp687
(dp688
g54
(dp689
sg63
g674
sg56
(lp690
g49
(g50
g51
NtRp691
(dp692
g54
(dp693
g62
I4
ssg63
g687
sg56
(lp694
S"<Values at 0x251a0a8: {'verbose': False, 'ip': '127.0.0.1', 'shutdown_timeout': 5, 'taskbar': False, 'nocron': False, 'pid_filename': 'httpserver.pid', 'maxthreads': None, 'softcron': False, 'server_name': 'Udi-Milos-MacBook-Pro.local', 'bpython': False, 'nogui': False, 'port': 8000, 'extcron': False, 'debuglevel': 30, 'test': None, 'folder': '/Users/udimilo/Documents/web2py', 'config': '', 'import_models': False, 'winservice': '', 'shell': None, 'run': '', 'log_filename': 'httpserver.log', 'args': [''], 'socket_timeout': 5, 'ssl_ca_certificate': None, 'scheduler': None, 'profiler_filename': None, 'ssl_private_key': '', 'password': '<ask>', 'request_queue_size': 5, 'ssl_certificate': '', 'cronjob': False, 'numthreads': None, 'quiet': False, 'interfaces': None, 'minthreads': None, 'timeout': 10, 'plain': False, 'nobanner': False}>"
p695
asbasbasbag49
(g65
g51
NtRp696
(dp697
g54
(dp698
sg63
g601
sg56
(lp699
g49
(g70
g51
NtRp700
(dp701
g54
(dp702
g74
g75
ssg63
g696
sg56
(lp703
S'db_sessions'
p704
asbag49
(g70
g51
NtRp705
(dp706
g54
(dp707
g81
g82
ssg63
g696
sg56
(lp708
S':'
asbag49
(g70
g51
NtRp709
(dp710
g54
(dp711
sg63
g696
sg56
(lp712
g49
(g50
g51
NtRp713
(dp714
g54
(dp715
g62
I4
ssg63
g709
sg56
(lp716
S'set([])'
p717
asbasbasbag49
(g65
g51
NtRp718
(dp719
g54
(dp720
sg63
g601
sg56
(lp721
g49
(g70
g51
NtRp722
(dp723
g54
(dp724
g74
g75
ssg63
g718
sg56
(lp725
S'debugging'
p726
asbag49
(g70
g51
NtRp727
(dp728
g54
(dp729
g81
g82
ssg63
g718
sg56
(lp730
S':'
asbag49
(g70
g51
NtRp731
(dp732
g54
(dp733
sg63
g718
sg56
(lp734
g49
(g50
g51
NtRp735
(dp736
g54
(dp737
g62
I4
ssg63
g731
sg56
(lp738
g92
asbasbasbag49
(g65
g51
NtRp739
(dp740
g54
(dp741
sg63
g601
sg56
(lp742
g49
(g70
g51
NtRp743
(dp744
g54
(dp745
g74
g75
ssg63
g739
sg56
(lp746
S'gluon_parent'
p747
asbag49
(g70
g51
NtRp748
(dp749
g54
(dp750
g81
g82
ssg63
g739
sg56
(lp751
S':'
asbag49
(g70
g51
NtRp752
(dp753
g54
(dp754
sg63
g739
sg56
(lp755
g49
(g50
g51
NtRp756
(dp757
g54
(dp758
g62
I4
ssg63
g752
sg56
(lp759
S'/Users/udimilo/Documents/web2py'
p760
asbasbasbag49
(g65
g51
NtRp761
(dp762
g54
(dp763
sg63
g601
sg56
(lp764
g49
(g70
g51
NtRp765
(dp766
g54
(dp767
g74
g75
ssg63
g761
sg56
(lp768
S'http_accept'
p769
asbag49
(g70
g51
NtRp770
(dp771
g54
(dp772
g81
g82
ssg63
g761
sg56
(lp773
S':'
asbag49
(g70
g51
NtRp774
(dp775
g54
(dp776
sg63
g761
sg56
(lp777
g49
(g50
g51
NtRp778
(dp779
g54
(dp780
g62
I4
ssg63
g774
sg56
(lp781
S'text/html,application/xhtml+xml,application/xml;q=0.9,*/*;q=0.8'
p782
asbasbasbag49
(g65
g51
NtRp783
(dp784
g54
(dp785
sg63
g601
sg56
(lp786
g49
(g70
g51
NtRp787
(dp788
g54
(dp789
g74
g75
ssg63
g783
sg56
(lp790
S'http_accept_charset'
p791
asbag49
(g70
g51
NtRp792
(dp793
g54
(dp794
g81
g82
ssg63
g783
sg56
(lp795
S':'
asbag49
(g70
g51
NtRp796
(dp797
g54
(dp798
sg63
g783
sg56
(lp799
g49
(g50
g51
NtRp800
(dp801
g54
(dp802
g62
I4
ssg63
g796
sg56
(lp803
S'ISO-8859-1,utf-8;q=0.7,*;q=0.3'
p804
asbasbasbag49
(g65
g51
NtRp805
(dp806
g54
(dp807
sg63
g601
sg56
(lp808
g49
(g70
g51
NtRp809
(dp810
g54
(dp811
g74
g75
ssg63
g805
sg56
(lp812
S'http_accept_encoding'
p813
asbag49
(g70
g51
NtRp814
(dp815
g54
(dp816
g81
g82
ssg63
g805
sg56
(lp817
S':'
asbag49
(g70
g51
NtRp818
(dp819
g54
(dp820
sg63
g805
sg56
(lp821
g49
(g50
g51
NtRp822
(dp823
g54
(dp824
g62
I4
ssg63
g818
sg56
(lp825
S'gzip,deflate,sdch'
p826
asbasbasbag49
(g65
g51
NtRp827
(dp828
g54
(dp829
sg63
g601
sg56
(lp830
g49
(g70
g51
NtRp831
(dp832
g54
(dp833
g74
g75
ssg63
g827
sg56
(lp834
S'http_accept_language'
p835
asbag49
(g70
g51
NtRp836
(dp837
g54
(dp838
g81
g82
ssg63
g827
sg56
(lp839
S':'
asbag49
(g70
g51
NtRp840
(dp841
g54
(dp842
sg63
g827
sg56
(lp843
g49
(g50
g51
NtRp844
(dp845
g54
(dp846
g62
I4
ssg63
g840
sg56
(lp847
S'en-US,en;q=0.8'
p848
asbasbasbag49
(g65
g51
NtRp849
(dp850
g54
(dp851
sg63
g601
sg56
(lp852
g49
(g70
g51
NtRp853
(dp854
g54
(dp855
g74
g75
ssg63
g849
sg56
(lp856
S'http_cache_control'
p857
asbag49
(g70
g51
NtRp858
(dp859
g54
(dp860
g81
g82
ssg63
g849
sg56
(lp861
S':'
asbag49
(g70
g51
NtRp862
(dp863
g54
(dp864
sg63
g849
sg56
(lp865
g49
(g50
g51
NtRp866
(dp867
g54
(dp868
g62
I4
ssg63
g862
sg56
(lp869
S'max-age=0'
p870
asbasbasbag49
(g65
g51
NtRp871
(dp872
g54
(dp873
sg63
g601
sg56
(lp874
g49
(g70
g51
NtRp875
(dp876
g54
(dp877
g74
g75
ssg63
g871
sg56
(lp878
S'http_connection'
p879
asbag49
(g70
g51
NtRp880
(dp881
g54
(dp882
g81
g82
ssg63
g871
sg56
(lp883
S':'
asbag49
(g70
g51
NtRp884
(dp885
g54
(dp886
sg63
g871
sg56
(lp887
g49
(g50
g51
NtRp888
(dp889
g54
(dp890
g62
I4
ssg63
g884
sg56
(lp891
S'keep-alive'
p892
asbasbasbag49
(g65
g51
NtRp893
(dp894
g54
(dp895
sg63
g601
sg56
(lp896
g49
(g70
g51
NtRp897
(dp898
g54
(dp899
g74
g75
ssg63
g893
sg56
(lp900
S'http_cookie'
p901
asbag49
(g70
g51
NtRp902
(dp903
g54
(dp904
g81
g82
ssg63
g893
sg56
(lp905
S':'
asbag49
(g70
g51
NtRp906
(dp907
g54
(dp908
sg63
g893
sg56
(lp909
g49
(g50
g51
NtRp910
(dp911
g54
(dp912
g62
I4
ssg63
g906
sg56
(lp913
S'session_id_udi0312=127.0.0.1-88956cb9-e566-4ca4-b2b2-97289ba4f51d; session_id_admin=127.0.0.1-45c3ac7e-43ea-40c7-a267-6d449e9d9e8c'
p914
asbasbasbag49
(g65
g51
NtRp915
(dp916
g54
(dp917
sg63
g601
sg56
(lp918
g49
(g70
g51
NtRp919
(dp920
g54
(dp921
g74
g75
ssg63
g915
sg56
(lp922
S'http_host'
p923
asbag49
(g70
g51
NtRp924
(dp925
g54
(dp926
g81
g82
ssg63
g915
sg56
(lp927
S':'
asbag49
(g70
g51
NtRp928
(dp929
g54
(dp930
sg63
g915
sg56
(lp931
g49
(g50
g51
NtRp932
(dp933
g54
(dp934
g62
I4
ssg63
g928
sg56
(lp935
S'127.0.0.1:8000'
p936
asbasbasbag49
(g65
g51
NtRp937
(dp938
g54
(dp939
sg63
g601
sg56
(lp940
g49
(g70
g51
NtRp941
(dp942
g54
(dp943
g74
g75
ssg63
g937
sg56
(lp944
S'http_referer'
p945
asbag49
(g70
g51
NtRp946
(dp947
g54
(dp948
g81
g82
ssg63
g937
sg56
(lp949
S':'
asbag49
(g70
g51
NtRp950
(dp951
g54
(dp952
sg63
g937
sg56
(lp953
g49
(g50
g51
NtRp954
(dp955
g54
(dp956
g62
I4
ssg63
g950
sg56
(lp957
S'http://127.0.0.1:8000/'
p958
asbasbasbag49
(g65
g51
NtRp959
(dp960
g54
(dp961
sg63
g601
sg56
(lp962
g49
(g70
g51
NtRp963
(dp964
g54
(dp965
g74
g75
ssg63
g959
sg56
(lp966
S'http_user_agent'
p967
asbag49
(g70
g51
NtRp968
(dp969
g54
(dp970
g81
g82
ssg63
g959
sg56
(lp971
S':'
asbag49
(g70
g51
NtRp972
(dp973
g54
(dp974
sg63
g959
sg56
(lp975
g49
(g50
g51
NtRp976
(dp977
g54
(dp978
g62
I4
ssg63
g972
sg56
(lp979
S'Mozilla/5.0 (Macintosh; Intel Mac OS X 10_7_3) AppleWebKit/535.11 (KHTML, like Gecko) Chrome/17.0.963.83 Safari/535.11'
p980
asbasbasbag49
(g65
g51
NtRp981
(dp982
g54
(dp983
sg63
g601
sg56
(lp984
g49
(g70
g51
NtRp985
(dp986
g54
(dp987
g74
g75
ssg63
g981
sg56
(lp988
S'is_jython'
p989
asbag49
(g70
g51
NtRp990
(dp991
g54
(dp992
g81
g82
ssg63
g981
sg56
(lp993
S':'
asbag49
(g70
g51
NtRp994
(dp995
g54
(dp996
sg63
g981
sg56
(lp997
g49
(g50
g51
NtRp998
(dp999
g54
(dp1000
g62
I4
ssg63
g994
sg56
(lp1001
g92
asbasbasbag49
(g65
g51
NtRp1002
(dp1003
g54
(dp1004
sg63
g601
sg56
(lp1005
g49
(g70
g51
NtRp1006
(dp1007
g54
(dp1008
g74
g75
ssg63
g1002
sg56
(lp1009
S'is_pypy'
p1010
asbag49
(g70
g51
NtRp1011
(dp1012
g54
(dp1013
g81
g82
ssg63
g1002
sg56
(lp1014
S':'
asbag49
(g70
g51
NtRp1015
(dp1016
g54
(dp1017
sg63
g1002
sg56
(lp1018
g49
(g50
g51
NtRp1019
(dp1020
g54
(dp1021
g62
I4
ssg63
g1015
sg56
(lp1022
g92
asbasbasbag49
(g65
g51
NtRp1023
(dp1024
g54
(dp1025
sg63
g601
sg56
(lp1026
g49
(g70
g51
NtRp1027
(dp1028
g54
(dp1029
g74
g75
ssg63
g1023
sg56
(lp1030
S'path_info'
p1031
asbag49
(g70
g51
NtRp1032
(dp1033
g54
(dp1034
g81
g82
ssg63
g1023
sg56
(lp1035
S':'
asbag49
(g70
g51
NtRp1036
(dp1037
g54
(dp1038
sg63
g1023
sg56
(lp1039
g49
(g50
g51
NtRp1040
(dp1041
g54
(dp1042
g62
I4
ssg63
g1036
sg56
(lp1043
S'/user/login'
p1044
asbasbasbag49
(g65
g51
NtRp1045
(dp1046
g54
(dp1047
sg63
g601
sg56
(lp1048
g49
(g70
g51
NtRp1049
(dp1050
g54
(dp1051
g74
g75
ssg63
g1045
sg56
(lp1052
S'query_string'
p1053
asbag49
(g70
g51
NtRp1054
(dp1055
g54
(dp1056
g81
g82
ssg63
g1045
sg56
(lp1057
S':'
asbag49
(g70
g51
NtRp1058
(dp1059
g54
(dp1060
sg63
g1045
sg56
(lp1061
g49
(g50
g51
NtRp1062
(dp1063
g54
(dp1064
g62
I4
ssg63
g1058
sg56
(lp1065
S'_next=/'
p1066
asbasbasbag49
(g65
g51
NtRp1067
(dp1068
g54
(dp1069
sg63
g601
sg56
(lp1070
g49
(g70
g51
NtRp1071
(dp1072
g54
(dp1073
g74
g75
ssg63
g1067
sg56
(lp1074
S'remote_addr'
p1075
asbag49
(g70
g51
NtRp1076
(dp1077
g54
(dp1078
g81
g82
ssg63
g1067
sg56
(lp1079
S':'
asbag49
(g70
g51
NtRp1080
(dp1081
g54
(dp1082
sg63
g1067
sg56
(lp1083
g49
(g50
g51
NtRp1084
(dp1085
g54
(dp1086
g62
I4
ssg63
g1080
sg56
(lp1087
g195
asbasbasbag49
(g65
g51
NtRp1088
(dp1089
g54
(dp1090
sg63
g601
sg56
(lp1091
g49
(g70
g51
NtRp1092
(dp1093
g54
(dp1094
g74
g75
ssg63
g1088
sg56
(lp1095
S'remote_port'
p1096
asbag49
(g70
g51
NtRp1097
(dp1098
g54
(dp1099
g81
g82
ssg63
g1088
sg56
(lp1100
S':'
asbag49
(g70
g51
NtRp1101
(dp1102
g54
(dp1103
sg63
g1088
sg56
(lp1104
g49
(g50
g51
NtRp1105
(dp1106
g54
(dp1107
g62
I4
ssg63
g1101
sg56
(lp1108
S'51766'
p1109
asbasbasbag49
(g65
g51
NtRp1110
(dp1111
g54
(dp1112
sg63
g601
sg56
(lp1113
g49
(g70
g51
NtRp1114
(dp1115
g54
(dp1116
g74
g75
ssg63
g1110
sg56
(lp1117
S'request_method'
p1118
asbag49
(g70
g51
NtRp1119
(dp1120
g54
(dp1121
g81
g82
ssg63
g1110
sg56
(lp1122
S':'
asbag49
(g70
g51
NtRp1123
(dp1124
g54
(dp1125
sg63
g1110
sg56
(lp1126
g49
(g50
g51
NtRp1127
(dp1128
g54
(dp1129
g62
I4
ssg63
g1123
sg56
(lp1130
S'GET'
p1131
asbasbasbag49
(g65
g51
NtRp1132
(dp1133
g54
(dp1134
sg63
g601
sg56
(lp1135
g49
(g70
g51
NtRp1136
(dp1137
g54
(dp1138
g74
g75
ssg63
g1132
sg56
(lp1139
S'request_uri'
p1140
asbag49
(g70
g51
NtRp1141
(dp1142
g54
(dp1143
g81
g82
ssg63
g1132
sg56
(lp1144
S':'
asbag49
(g70
g51
NtRp1145
(dp1146
g54
(dp1147
sg63
g1132
sg56
(lp1148
g49
(g50
g51
NtRp1149
(dp1150
g54
(dp1151
g62
I4
ssg63
g1145
sg56
(lp1152
S'/udi0312/default/user/login?_next=/'
p1153
asbasbasbag49
(g65
g51
NtRp1154
(dp1155
g54
(dp1156
sg63
g601
sg56
(lp1157
g49
(g70
g51
NtRp1158
(dp1159
g54
(dp1160
g74
g75
ssg63
g1154
sg56
(lp1161
S'script_name'
p1162
asbag49
(g70
g51
NtRp1163
(dp1164
g54
(dp1165
g81
g82
ssg63
g1154
sg56
(lp1166
S':'
asbag49
(g70
g51
NtRp1167
(dp1168
g54
(dp1169
sg63
g1154
sg56
(lp1170
g49
(g50
g51
NtRp1171
(dp1172
g54
(dp1173
g62
I4
ssg63
g1167
sg56
(lp1174
S''
asbasbasbag49
(g65
g51
NtRp1175
(dp1176
g54
(dp1177
sg63
g601
sg56
(lp1178
g49
(g70
g51
NtRp1179
(dp1180
g54
(dp1181
g74
g75
ssg63
g1175
sg56
(lp1182
S'server_name'
p1183
asbag49
(g70
g51
NtRp1184
(dp1185
g54
(dp1186
g81
g82
ssg63
g1175
sg56
(lp1187
S':'
asbag49
(g70
g51
NtRp1188
(dp1189
g54
(dp1190
sg63
g1175
sg56
(lp1191
g49
(g50
g51
NtRp1192
(dp1193
g54
(dp1194
g62
I4
ssg63
g1188
sg56
(lp1195
S'Udi-Milos-MacBook-Pro.local'
p1196
asbasbasbag49
(g65
g51
NtRp1197
(dp1198
g54
(dp1199
sg63
g601
sg56
(lp1200
g49
(g70
g51
NtRp1201
(dp1202
g54
(dp1203
g74
g75
ssg63
g1197
sg56
(lp1204
S'server_port'
p1205
asbag49
(g70
g51
NtRp1206
(dp1207
g54
(dp1208
g81
g82
ssg63
g1197
sg56
(lp1209
S':'
asbag49
(g70
g51
NtRp1210
(dp1211
g54
(dp1212
sg63
g1197
sg56
(lp1213
g49
(g50
g51
NtRp1214
(dp1215
g54
(dp1216
g62
I4
ssg63
g1210
sg56
(lp1217
S'8000'
p1218
asbasbasbag49
(g65
g51
NtRp1219
(dp1220
g54
(dp1221
sg63
g601
sg56
(lp1222
g49
(g70
g51
NtRp1223
(dp1224
g54
(dp1225
g74
g75
ssg63
g1219
sg56
(lp1226
S'server_protocol'
p1227
asbag49
(g70
g51
NtRp1228
(dp1229
g54
(dp1230
g81
g82
ssg63
g1219
sg56
(lp1231
S':'
asbag49
(g70
g51
NtRp1232
(dp1233
g54
(dp1234
sg63
g1219
sg56
(lp1235
g49
(g50
g51
NtRp1236
(dp1237
g54
(dp1238
g62
I4
ssg63
g1232
sg56
(lp1239
S'HTTP/1.1'
p1240
asbasbasbag49
(g65
g51
NtRp1241
(dp1242
g54
(dp1243
sg63
g601
sg56
(lp1244
g49
(g70
g51
NtRp1245
(dp1246
g54
(dp1247
g74
g75
ssg63
g1241
sg56
(lp1248
S'server_software'
p1249
asbag49
(g70
g51
NtRp1250
(dp1251
g54
(dp1252
g81
g82
ssg63
g1241
sg56
(lp1253
S':'
asbag49
(g70
g51
NtRp1254
(dp1255
g54
(dp1256
sg63
g1241
sg56
(lp1257
g49
(g50
g51
NtRp1258
(dp1259
g54
(dp1260
g62
I4
ssg63
g1254
sg56
(lp1261
S'Rocket 1.2.4'
p1262
asbasbasbag49
(g65
g51
NtRp1263
(dp1264
g54
(dp1265
sg63
g601
sg56
(lp1266
g49
(g70
g51
NtRp1267
(dp1268
g54
(dp1269
g74
g75
ssg63
g1263
sg56
(lp1270
S'web2py_crontype'
p1271
asbag49
(g70
g51
NtRp1272
(dp1273
g54
(dp1274
g81
g82
ssg63
g1263
sg56
(lp1275
S':'
asbag49
(g70
g51
NtRp1276
(dp1277
g54
(dp1278
sg63
g1263
sg56
(lp1279
g49
(g50
g51
NtRp1280
(dp1281
g54
(dp1282
g62
I4
ssg63
g1276
sg56
(lp1283
S'hard'
p1284
asbasbasbag49
(g65
g51
NtRp1285
(dp1286
g54
(dp1287
sg63
g601
sg56
(lp1288
g49
(g70
g51
NtRp1289
(dp1290
g54
(dp1291
g74
g75
ssg63
g1285
sg56
(lp1292
S'web2py_original_uri'
p1293
asbag49
(g70
g51
NtRp1294
(dp1295
g54
(dp1296
g81
g82
ssg63
g1285
sg56
(lp1297
S':'
asbag49
(g70
g51
NtRp1298
(dp1299
g54
(dp1300
sg63
g1285
sg56
(lp1301
g49
(g50
g51
NtRp1302
(dp1303
g54
(dp1304
g62
I4
ssg63
g1298
sg56
(lp1305
S'/user/login?_next=/'
p1306
asbasbasbag49
(g65
g51
NtRp1307
(dp1308
g54
(dp1309
sg63
g601
sg56
(lp1310
g49
(g70
g51
NtRp1311
(dp1312
g54
(dp1313
g74
g75
ssg63
g1307
sg56
(lp1314
S'web2py_path'
p1315
asbag49
(g70
g51
NtRp1316
(dp1317
g54
(dp1318
g81
g82
ssg63
g1307
sg56
(lp1319
S':'
asbag49
(g70
g51
NtRp1320
(dp1321
g54
(dp1322
sg63
g1307
sg56
(lp1323
g49
(g50
g51
NtRp1324
(dp1325
g54
(dp1326
g62
I4
ssg63
g1320
sg56
(lp1327
g648
asbasbasbag49
(g65
g51
NtRp1328
(dp1329
g54
(dp1330
sg63
g601
sg56
(lp1331
g49
(g70
g51
NtRp1332
(dp1333
g54
(dp1334
g74
g75
ssg63
g1328
sg56
(lp1335
S'web2py_version'
p1336
asbag49
(g70
g51
NtRp1337
(dp1338
g54
(dp1339
g81
g82
ssg63
g1328
sg56
(lp1340
S':'
asbag49
(g70
g51
NtRp1341
(dp1342
g54
(dp1343
sg63
g1328
sg56
(lp1344
g49
(g50
g51
NtRp1345
(dp1346
g54
(dp1347
g62
I4
ssg63
g1341
sg56
(lp1348
g49
(g58
g51
NtRp1349
(dp1350
g54
(dp1351
g62
I3
ssg63
Nsg56
(lp1352
g49
(g65
g51
NtRp1353
(dp1354
g54
(dp1355
sg63
g1349
sg56
(lp1356
g49
(g70
g51
NtRp1357
(dp1358
g54
(dp1359
sg63
g1353
sg56
(lp1360
g49
(g50
g51
NtRp1361
(dp1362
g54
(dp1363
g62
I3
ssg63
g1357
sg56
(lp1364
S'1'
asbasbasbag49
(g65
g51
NtRp1365
(dp1366
g54
(dp1367
sg63
g1349
sg56
(lp1368
g49
(g70
g51
NtRp1369
(dp1370
g54
(dp1371
sg63
g1365
sg56
(lp1372
g49
(g50
g51
NtRp1373
(dp1374
g54
(dp1375
g62
I3
ssg63
g1369
sg56
(lp1376
S'99'
p1377
asbasbasbag49
(g65
g51
NtRp1378
(dp1379
g54
(dp1380
sg63
g1349
sg56
(lp1381
g49
(g70
g51
NtRp1382
(dp1383
g54
(dp1384
sg63
g1378
sg56
(lp1385
g49
(g50
g51
NtRp1386
(dp1387
g54
(dp1388
g62
I3
ssg63
g1382
sg56
(lp1389
S'7'
asbasbasbag49
(g65
g51
NtRp1390
(dp1391
g54
(dp1392
sg63
g1349
sg56
(lp1393
g49
(g70
g51
NtRp1394
(dp1395
g54
(dp1396
sg63
g1390
sg56
(lp1397
g49
(g50
g51
NtRp1398
(dp1399
g54
(dp1400
g62
I3
ssg63
g1394
sg56
(lp1401
S'datetime.datetime(2012, 3, 4, 22, 12, 8)'
p1402
asbasbasbag49
(g65
g51
NtRp1403
(dp1404
g54
(dp1405
sg63
g1349
sg56
(lp1406
g49
(g70
g51
NtRp1407
(dp1408
g54
(dp1409
sg63
g1403
sg56
(lp1410
g49
(g50
g51
NtRp1411
(dp1412
g54
(dp1413
g62
I3
ssg63
g1407
sg56
(lp1414
S'stable'
p1415
asbasbasbasbasbasbasbag49
(g65
g51
NtRp1416
(dp1417
g54
(dp1418
sg63
g601
sg56
(lp1419
g49
(g70
g51
NtRp1420
(dp1421
g54
(dp1422
g74
g75
ssg63
g1416
sg56
(lp1423
S'wsgi_errors'
p1424
asbag49
(g70
g51
NtRp1425
(dp1426
g54
(dp1427
g81
g82
ssg63
g1416
sg56
(lp1428
S':'
asbag49
(g70
g51
NtRp1429
(dp1430
g54
(dp1431
sg63
g1416
sg56
(lp1432
g49
(g50
g51
NtRp1433
(dp1434
g54
(dp1435
g62
I4
ssg63
g1429
sg56
(lp1436
S"<open file '<stderr>', mode 'w' at 0x4220b0>"
p1437
asbasbasbag49
(g65
g51
NtRp1438
(dp1439
g54
(dp1440
sg63
g601
sg56
(lp1441
g49
(g70
g51
NtRp1442
(dp1443
g54
(dp1444
g74
g75
ssg63
g1438
sg56
(lp1445
S'wsgi_file_wrapper'
p1446
asbag49
(g70
g51
NtRp1447
(dp1448
g54
(dp1449
g81
g82
ssg63
g1438
sg56
(lp1450
S':'
asbag49
(g70
g51
NtRp1451
(dp1452
g54
(dp1453
sg63
g1438
sg56
(lp1454
g49
(g50
g51
NtRp1455
(dp1456
g54
(dp1457
g62
I4
ssg63
g1451
sg56
(lp1458
S'<class wsgiref.util.FileWrapper at 0x245e6c0>'
p1459
asbasbasbag49
(g65
g51
NtRp1460
(dp1461
g54
(dp1462
sg63
g601
sg56
(lp1463
g49
(g70
g51
NtRp1464
(dp1465
g54
(dp1466
g74
g75
ssg63
g1460
sg56
(lp1467
S'wsgi_input'
p1468
asbag49
(g70
g51
NtRp1469
(dp1470
g54
(dp1471
g81
g82
ssg63
g1460
sg56
(lp1472
S':'
asbag49
(g70
g51
NtRp1473
(dp1474
g54
(dp1475
sg63
g1460
sg56
(lp1476
g49
(g50
g51
NtRp1477
(dp1478
g54
(dp1479
g62
I4
ssg63
g1473
sg56
(lp1480
S'<socket._fileobject object at 0x9ef4130>'
p1481
asbasbasbag49
(g65
g51
NtRp1482
(dp1483
g54
(dp1484
sg63
g601
sg56
(lp1485
g49
(g70
g51
NtRp1486
(dp1487
g54
(dp1488
g74
g75
ssg63
g1482
sg56
(lp1489
S'wsgi_multiprocess'
p1490
asbag49
(g70
g51
NtRp1491
(dp1492
g54
(dp1493
g81
g82
ssg63
g1482
sg56
(lp1494
S':'
asbag49
(g70
g51
NtRp1495
(dp1496
g54
(dp1497
sg63
g1482
sg56
(lp1498
g49
(g50
g51
NtRp1499
(dp1500
g54
(dp1501
g62
I4
ssg63
g1495
sg56
(lp1502
g92
asbasbasbag49
(g65
g51
NtRp1503
(dp1504
g54
(dp1505
sg63
g601
sg56
(lp1506
g49
(g70
g51
NtRp1507
(dp1508
g54
(dp1509
g74
g75
ssg63
g1503
sg56
(lp1510
S'wsgi_multithread'
p1511
asbag49
(g70
g51
NtRp1512
(dp1513
g54
(dp1514
g81
g82
ssg63
g1503
sg56
(lp1515
S':'
asbag49
(g70
g51
NtRp1516
(dp1517
g54
(dp1518
sg63
g1503
sg56
(lp1519
g49
(g50
g51
NtRp1520
(dp1521
g54
(dp1522
g62
I4
ssg63
g1516
sg56
(lp1523
S'True'
p1524
asbasbasbag49
(g65
g51
NtRp1525
(dp1526
g54
(dp1527
sg63
g601
sg56
(lp1528
g49
(g70
g51
NtRp1529
(dp1530
g54
(dp1531
g74
g75
ssg63
g1525
sg56
(lp1532
S'wsgi_run_once'
p1533
asbag49
(g70
g51
NtRp1534
(dp1535
g54
(dp1536
g81
g82
ssg63
g1525
sg56
(lp1537
S':'
asbag49
(g70
g51
NtRp1538
(dp1539
g54
(dp1540
sg63
g1525
sg56
(lp1541
g49
(g50
g51
NtRp1542
(dp1543
g54
(dp1544
g62
I4
ssg63
g1538
sg56
(lp1545
g92
asbasbasbag49
(g65
g51
NtRp1546
(dp1547
g54
(dp1548
sg63
g601
sg56
(lp1549
g49
(g70
g51
NtRp1550
(dp1551
g54
(dp1552
g74
g75
ssg63
g1546
sg56
(lp1553
S'wsgi_url_scheme'
p1554
asbag49
(g70
g51
NtRp1555
(dp1556
g54
(dp1557
g81
g82
ssg63
g1546
sg56
(lp1558
S':'
asbag49
(g70
g51
NtRp1559
(dp1560
g54
(dp1561
sg63
g1546
sg56
(lp1562
g49
(g50
g51
NtRp1563
(dp1564
g54
(dp1565
g62
I4
ssg63
g1559
sg56
(lp1566
S'http'
p1567
asbasbasbag49
(g65
g51
NtRp1568
(dp1569
g54
(dp1570
sg63
g601
sg56
(lp1571
g49
(g70
g51
NtRp1572
(dp1573
g54
(dp1574
g74
g75
ssg63
g1568
sg56
(lp1575
S'wsgi_version'
p1576
asbag49
(g70
g51
NtRp1577
(dp1578
g54
(dp1579
g81
g82
ssg63
g1568
sg56
(lp1580
S':'
asbag49
(g70
g51
NtRp1581
(dp1582
g54
(dp1583
sg63
g1568
sg56
(lp1584
g49
(g50
g51
NtRp1585
(dp1586
g54
(dp1587
g62
I4
ssg63
g1581
sg56
(lp1588
g49
(g58
g51
NtRp1589
(dp1590
g54
(dp1591
g62
I3
ssg63
Nsg56
(lp1592
g49
(g65
g51
NtRp1593
(dp1594
g54
(dp1595
sg63
g1589
sg56
(lp1596
g49
(g70
g51
NtRp1597
(dp1598
g54
(dp1599
sg63
g1593
sg56
(lp1600
g49
(g50
g51
NtRp1601
(dp1602
g54
(dp1603
g62
I3
ssg63
g1597
sg56
(lp1604
S'1'
asbasbasbag49
(g65
g51
NtRp1605
(dp1606
g54
(dp1607
sg63
g1589
sg56
(lp1608
g49
(g70
g51
NtRp1609
(dp1610
g54
(dp1611
sg63
g1605
sg56
(lp1612
g49
(g50
g51
NtRp1613
(dp1614
g54
(dp1615
g62
I3
ssg63
g1609
sg56
(lp1616
S'0'
asbasbasbasbasbasbasbasbasbasbasbag49
(g65
g51
NtRp1617
(dp1618
g54
(dp1619
sg63
g59
sg56
(lp1620
g49
(g70
g51
NtRp1621
(dp1622
g54
(dp1623
g74
g75
ssg63
g1617
sg56
(lp1624
S'extension'
p1625
asbag49
(g70
g51
NtRp1626
(dp1627
g54
(dp1628
g81
g82
ssg63
g1617
sg56
(lp1629
S':'
asbag49
(g70
g51
NtRp1630
(dp1631
g54
(dp1632
sg63
g1617
sg56
(lp1633
g49
(g50
g51
NtRp1634
(dp1635
g54
(dp1636
g62
I5
ssg63
g1630
sg56
(lp1637
S'html'
p1638
asbasbasbag49
(g65
g51
NtRp1639
(dp1640
g54
(dp1641
sg63
g59
sg56
(lp1642
g49
(g70
g51
NtRp1643
(dp1644
g54
(dp1645
g74
g75
ssg63
g1639
sg56
(lp1646
S'folder'
p1647
asbag49
(g70
g51
NtRp1648
(dp1649
g54
(dp1650
g81
g82
ssg63
g1639
sg56
(lp1651
S':'
asbag49
(g70
g51
NtRp1652
(dp1653
g54
(dp1654
sg63
g1639
sg56
(lp1655
g49
(g50
g51
NtRp1656
(dp1657
g54
(dp1658
g62
I5
ssg63
g1652
sg56
(lp1659
S'/Users/udimilo/Documents/web2py/applications/udi0312/'
p1660
asbasbasbag49
(g65
g51
NtRp1661
(dp1662
g54
(dp1663
sg63
g59
sg56
(lp1664
g49
(g70
g51
NtRp1665
(dp1666
g54
(dp1667
g74
g75
ssg63
g1661
sg56
(lp1668
S'function'
p1669
asbag49
(g70
g51
NtRp1670
(dp1671
g54
(dp1672
g81
g82
ssg63
g1661
sg56
(lp1673
S':'
asbag49
(g70
g51
NtRp1674
(dp1675
g54
(dp1676
sg63
g1661
sg56
(lp1677
g49
(g50
g51
NtRp1678
(dp1679
g54
(dp1680
g62
I5
ssg63
g1674
sg56
(lp1681
S'user'
p1682
asbasbasbag49
(g65
g51
NtRp1683
(dp1684
g54
(dp1685
sg63
g59
sg56
(lp1686
g49
(g70
g51
NtRp1687
(dp1688
g54
(dp1689
g74
g75
ssg63
g1683
sg56
(lp1690
S'get_vars'
p1691
asbag49
(g70
g51
NtRp1692
(dp1693
g54
(dp1694
g81
g82
ssg63
g1683
sg56
(lp1695
S':'
asbag49
(g70
g51
NtRp1696
(dp1697
g54
(dp1698
sg63
g1683
sg56
(lp1699
g49
(g50
g51
NtRp1700
(dp1701
g54
(dp1702
g62
I5
ssg63
g1696
sg56
(lp1703
g49
(g58
g51
NtRp1704
(dp1705
g54
(dp1706
g62
I4
ssg63
Nsg56
(lp1707
sbasbasbasbag49
(g65
g51
NtRp1708
(dp1709
g54
(dp1710
sg63
g59
sg56
(lp1711
g49
(g70
g51
NtRp1712
(dp1713
g54
(dp1714
g74
g75
ssg63
g1708
sg56
(lp1715
S'global_settings'
p1716
asbag49
(g70
g51
NtRp1717
(dp1718
g54
(dp1719
g81
g82
ssg63
g1708
sg56
(lp1720
S':'
asbag49
(g70
g51
NtRp1721
(dp1722
g54
(dp1723
sg63
g1708
sg56
(lp1724
g49
(g50
g51
NtRp1725
(dp1726
g54
(dp1727
g62
I5
ssg63
g1721
sg56
(lp1728
g49
(g58
g51
NtRp1729
(dp1730
g54
(dp1731
g62
I4
ssg63
Nsg56
(lp1732
g49
(g65
g51
NtRp1733
(dp1734
g54
(dp1735
sg63
g1729
sg56
(lp1736
g49
(g70
g51
NtRp1737
(dp1738
g54
(dp1739
g74
g75
ssg63
g1733
sg56
(lp1740
g613
asbag49
(g70
g51
NtRp1741
(dp1742
g54
(dp1743
g81
g82
ssg63
g1733
sg56
(lp1744
S':'
asbag49
(g70
g51
NtRp1745
(dp1746
g54
(dp1747
sg63
g1733
sg56
(lp1748
g49
(g50
g51
NtRp1749
(dp1750
g54
(dp1751
g62
I4
ssg63
g1745
sg56
(lp1752
S"set(['/Users/udimilo/Documents/web2py/applications/udi0312/', '/Users/udimilo/Documents/web2py/applications/admin/'])"
p1753
asbasbasbag49
(g65
g51
NtRp1754
(dp1755
g54
(dp1756
sg63
g1729
sg56
(lp1757
g49
(g70
g51
NtRp1758
(dp1759
g54
(dp1760
g74
g75
ssg63
g1754
sg56
(lp1761
g635
asbag49
(g70
g51
NtRp1762
(dp1763
g54
(dp1764
g81
g82
ssg63
g1754
sg56
(lp1765
S':'
asbag49
(g70
g51
NtRp1766
(dp1767
g54
(dp1768
sg63
g1754
sg56
(lp1769
g49
(g50
g51
NtRp1770
(dp1771
g54
(dp1772
g62
I4
ssg63
g1766
sg56
(lp1773
g648
asbasbasbag49
(g65
g51
NtRp1774
(dp1775
g54
(dp1776
sg63
g1729
sg56
(lp1777
g49
(g70
g51
NtRp1778
(dp1779
g54
(dp1780
g74
g75
ssg63
g1774
sg56
(lp1781
g657
asbag49
(g70
g51
NtRp1782
(dp1783
g54
(dp1784
g81
g82
ssg63
g1774
sg56
(lp1785
S':'
asbag49
(g70
g51
NtRp1786
(dp1787
g54
(dp1788
sg63
g1774
sg56
(lp1789
g49
(g50
g51
NtRp1790
(dp1791
g54
(dp1792
g62
I4
ssg63
g1786
sg56
(lp1793
g49
(g58
g51
NtRp1794
(dp1795
g54
(dp1796
g62
I3
ssg63
Nsg56
(lp1797
sbasbasbasbag49
(g65
g51
NtRp1798
(dp1799
g54
(dp1800
sg63
g1729
sg56
(lp1801
g49
(g70
g51
NtRp1802
(dp1803
g54
(dp1804
g74
g75
ssg63
g1798
sg56
(lp1805
g682
asbag49
(g70
g51
NtRp1806
(dp1807
g54
(dp1808
g81
g82
ssg63
g1798
sg56
(lp1809
S':'
asbag49
(g70
g51
NtRp1810
(dp1811
g54
(dp1812
sg63
g1798
sg56
(lp1813
g49
(g50
g51
NtRp1814
(dp1815
g54
(dp1816
g62
I4
ssg63
g1810
sg56
(lp1817
S"<Values at 0x251a0a8: {'verbose': False, 'ip': '127.0.0.1', 'shutdown_timeout': 5, 'taskbar': False, 'nocron': False, 'pid_filename': 'httpserver.pid', 'maxthreads': None, 'softcron': False, 'server_name': 'Udi-Milos-MacBook-Pro.local', 'bpython': False, 'nogui': False, 'port': 8000, 'extcron': False, 'debuglevel': 30, 'test': None, 'folder': '/Users/udimilo/Documents/web2py', 'config': '', 'import_models': False, 'winservice': '', 'shell': None, 'run': '', 'log_filename': 'httpserver.log', 'args': [''], 'socket_timeout': 5, 'ssl_ca_certificate': None, 'scheduler': None, 'profiler_filename': None, 'ssl_private_key': '', 'password': '<ask>', 'request_queue_size': 5, 'ssl_certificate': '', 'cronjob': False, 'numthreads': None, 'quiet': False, 'interfaces': None, 'minthreads': None, 'timeout': 10, 'plain': False, 'nobanner': False}>"
p1818
asbasbasbag49
(g65
g51
NtRp1819
(dp1820
g54
(dp1821
sg63
g1729
sg56
(lp1822
g49
(g70
g51
NtRp1823
(dp1824
g54
(dp1825
g74
g75
ssg63
g1819
sg56
(lp1826
g704
asbag49
(g70
g51
NtRp1827
(dp1828
g54
(dp1829
g81
g82
ssg63
g1819
sg56
(lp1830
S':'
asbag49
(g70
g51
NtRp1831
(dp1832
g54
(dp1833
sg63
g1819
sg56
(lp1834
g49
(g50
g51
NtRp1835
(dp1836
g54
(dp1837
g62
I4
ssg63
g1831
sg56
(lp1838
S'set([])'
p1839
asbasbasbag49
(g65
g51
NtRp1840
(dp1841
g54
(dp1842
sg63
g1729
sg56
(lp1843
g49
(g70
g51
NtRp1844
(dp1845
g54
(dp1846
g74
g75
ssg63
g1840
sg56
(lp1847
g726
asbag49
(g70
g51
NtRp1848
(dp1849
g54
(dp1850
g81
g82
ssg63
g1840
sg56
(lp1851
S':'
asbag49
(g70
g51
NtRp1852
(dp1853
g54
(dp1854
sg63
g1840
sg56
(lp1855
g49
(g50
g51
NtRp1856
(dp1857
g54
(dp1858
g62
I4
ssg63
g1852
sg56
(lp1859
g92
asbasbasbag49
(g65
g51
NtRp1860
(dp1861
g54
(dp1862
sg63
g1729
sg56
(lp1863
g49
(g70
g51
NtRp1864
(dp1865
g54
(dp1866
g74
g75
ssg63
g1860
sg56
(lp1867
g747
asbag49
(g70
g51
NtRp1868
(dp1869
g54
(dp1870
g81
g82
ssg63
g1860
sg56
(lp1871
S':'
asbag49
(g70
g51
NtRp1872
(dp1873
g54
(dp1874
sg63
g1860
sg56
(lp1875
g49
(g50
g51
NtRp1876
(dp1877
g54
(dp1878
g62
I4
ssg63
g1872
sg56
(lp1879
g760
asbasbasbag49
(g65
g51
NtRp1880
(dp1881
g54
(dp1882
sg63
g1729
sg56
(lp1883
g49
(g70
g51
NtRp1884
(dp1885
g54
(dp1886
g74
g75
ssg63
g1880
sg56
(lp1887
g989
asbag49
(g70
g51
NtRp1888
(dp1889
g54
(dp1890
g81
g82
ssg63
g1880
sg56
(lp1891
S':'
asbag49
(g70
g51
NtRp1892
(dp1893
g54
(dp1894
sg63
g1880
sg56
(lp1895
g49
(g50
g51
NtRp1896
(dp1897
g54
(dp1898
g62
I4
ssg63
g1892
sg56
(lp1899
g92
asbasbasbag49
(g65
g51
NtRp1900
(dp1901
g54
(dp1902
sg63
g1729
sg56
(lp1903
g49
(g70
g51
NtRp1904
(dp1905
g54
(dp1906
g74
g75
ssg63
g1900
sg56
(lp1907
g1010
asbag49
(g70
g51
NtRp1908
(dp1909
g54
(dp1910
g81
g82
ssg63
g1900
sg56
(lp1911
S':'
asbag49
(g70
g51
NtRp1912
(dp1913
g54
(dp1914
sg63
g1900
sg56
(lp1915
g49
(g50
g51
NtRp1916
(dp1917
g54
(dp1918
g62
I4
ssg63
g1912
sg56
(lp1919
g92
asbasbasbag49
(g65
g51
NtRp1920
(dp1921
g54
(dp1922
sg63
g1729
sg56
(lp1923
g49
(g70
g51
NtRp1924
(dp1925
g54
(dp1926
g74
g75
ssg63
g1920
sg56
(lp1927
g1271
asbag49
(g70
g51
NtRp1928
(dp1929
g54
(dp1930
g81
g82
ssg63
g1920
sg56
(lp1931
S':'
asbag49
(g70
g51
NtRp1932
(dp1933
g54
(dp1934
sg63
g1920
sg56
(lp1935
g49
(g50
g51
NtRp1936
(dp1937
g54
(dp1938
g62
I4
ssg63
g1932
sg56
(lp1939
g1284
asbasbasbag49
(g65
g51
NtRp1940
(dp1941
g54
(dp1942
sg63
g1729
sg56
(lp1943
g49
(g70
g51
NtRp1944
(dp1945
g54
(dp1946
g74
g75
ssg63
g1940
sg56
(lp1947
g1336
asbag49
(g70
g51
NtRp1948
(dp1949
g54
(dp1950
g81
g82
ssg63
g1940
sg56
(lp1951
S':'
asbag49
(g70
g51
NtRp1952
(dp1953
g54
(dp1954
sg63
g1940
sg56
(lp1955
g49
(g50
g51
NtRp1956
(dp1957
g54
(dp1958
g62
I4
ssg63
g1952
sg56
(lp1959
g49
(g58
g51
NtRp1960
(dp1961
g54
(dp1962
g62
I3
ssg63
Nsg56
(lp1963
g49
(g65
g51
NtRp1964
(dp1965
g54
(dp1966
sg63
g1960
sg56
(lp1967
g49
(g70
g51
NtRp1968
(dp1969
g54
(dp1970
sg63
g1964
sg56
(lp1971
g49
(g50
g51
NtRp1972
(dp1973
g54
(dp1974
g62
I3
ssg63
g1968
sg56
(lp1975
S'1'
asbasbasbag49
(g65
g51
NtRp1976
(dp1977
g54
(dp1978
sg63
g1960
sg56
(lp1979
g49
(g70
g51
NtRp1980
(dp1981
g54
(dp1982
sg63
g1976
sg56
(lp1983
g49
(g50
g51
NtRp1984
(dp1985
g54
(dp1986
g62
I3
ssg63
g1980
sg56
(lp1987
S'99'
p1988
asbasbasbag49
(g65
g51
NtRp1989
(dp1990
g54
(dp1991
sg63
g1960
sg56
(lp1992
g49
(g70
g51
NtRp1993
(dp1994
g54
(dp1995
sg63
g1989
sg56
(lp1996
g49
(g50
g51
NtRp1997
(dp1998
g54
(dp1999
g62
I3
ssg63
g1993
sg56
(lp2000
S'7'
asbasbasbag49
(g65
g51
NtRp2001
(dp2002
g54
(dp2003
sg63
g1960
sg56
(lp2004
g49
(g70
g51
NtRp2005
(dp2006
g54
(dp2007
sg63
g2001
sg56
(lp2008
g49
(g50
g51
NtRp2009
(dp2010
g54
(dp2011
g62
I3
ssg63
g2005
sg56
(lp2012
S'datetime.datetime(2012, 3, 4, 22, 12, 8)'
p2013
asbasbasbag49
(g65
g51
NtRp2014
(dp2015
g54
(dp2016
sg63
g1960
sg56
(lp2017
g49
(g70
g51
NtRp2018
(dp2019
g54
(dp2020
sg63
g2014
sg56
(lp2021
g49
(g50
g51
NtRp2022
(dp2023
g54
(dp2024
g62
I3
ssg63
g2018
sg56
(lp2025
g1415
asbasbasbasbasbasbasbasbasbasbasbag49
(g65
g51
NtRp2026
(dp2027
g54
(dp2028
sg63
g59
sg56
(lp2029
g49
(g70
g51
NtRp2030
(dp2031
g54
(dp2032
g74
g75
ssg63
g2026
sg56
(lp2033
S'is_https'
p2034
asbag49
(g70
g51
NtRp2035
(dp2036
g54
(dp2037
g81
g82
ssg63
g2026
sg56
(lp2038
S':'
asbag49
(g70
g51
NtRp2039
(dp2040
g54
(dp2041
sg63
g2026
sg56
(lp2042
g49
(g50
g51
NtRp2043
(dp2044
g54
(dp2045
g62
I5
ssg63
g2039
sg56
(lp2046
g92
asbasbasbag49
(g65
g51
NtRp2047
(dp2048
g54
(dp2049
sg63
g59
sg56
(lp2050
g49
(g70
g51
NtRp2051
(dp2052
g54
(dp2053
g74
g75
ssg63
g2047
sg56
(lp2054
S'is_local'
p2055
asbag49
(g70
g51
NtRp2056
(dp2057
g54
(dp2058
g81
g82
ssg63
g2047
sg56
(lp2059
S':'
asbag49
(g70
g51
NtRp2060
(dp2061
g54
(dp2062
sg63
g2047
sg56
(lp2063
g49
(g50
g51
NtRp2064
(dp2065
g54
(dp2066
g62
I5
ssg63
g2060
sg56
(lp2067
g1524
asbasbasbag49
(g65
g51
NtRp2068
(dp2069
g54
(dp2070
sg63
g59
sg56
(lp2071
g49
(g70
g51
NtRp2072
(dp2073
g54
(dp2074
g74
g75
ssg63
g2068
sg56
(lp2075
S'is_restful'
p2076
asbag49
(g70
g51
NtRp2077
(dp2078
g54
(dp2079
g81
g82
ssg63
g2068
sg56
(lp2080
S':'
asbag49
(g70
g51
NtRp2081
(dp2082
g54
(dp2083
sg63
g2068
sg56
(lp2084
g49
(g50
g51
NtRp2085
(dp2086
g54
(dp2087
g62
I5
ssg63
g2081
sg56
(lp2088
g92
asbasbasbag49
(g65
g51
NtRp2089
(dp2090
g54
(dp2091
sg63
g59
sg56
(lp2092
g49
(g70
g51
NtRp2093
(dp2094
g54
(dp2095
g74
g75
ssg63
g2089
sg56
(lp2096
S'now'
p2097
asbag49
(g70
g51
NtRp2098
(dp2099
g54
(dp2100
g81
g82
ssg63
g2089
sg56
(lp2101
S':'
asbag49
(g70
g51
NtRp2102
(dp2103
g54
(dp2104
sg63
g2089
sg56
(lp2105
g49
(g50
g51
NtRp2106
(dp2107
g54
(dp2108
g62
I5
ssg63
g2102
sg56
(lp2109
S'datetime.datetime(2012, 3, 28, 16, 35, 24, 92955)'
p2110
asbasbasbag49
(g65
g51
NtRp2111
(dp2112
g54
(dp2113
sg63
g59
sg56
(lp2114
g49
(g70
g51
NtRp2115
(dp2116
g54
(dp2117
g74
g75
ssg63
g2111
sg56
(lp2118
S'post_vars'
p2119
asbag49
(g70
g51
NtRp2120
(dp2121
g54
(dp2122
g81
g82
ssg63
g2111
sg56
(lp2123
S':'
asbag49
(g70
g51
NtRp2124
(dp2125
g54
(dp2126
sg63
g2111
sg56
(lp2127
g49
(g50
g51
NtRp2128
(dp2129
g54
(dp2130
g62
I5
ssg63
g2124
sg56
(lp2131
g49
(g58
g51
NtRp2132
(dp2133
g54
(dp2134
g62
I4
ssg63
Nsg56
(lp2135
sbasbasbasbag49
(g65
g51
NtRp2136
(dp2137
g54
(dp2138
sg63
g59
sg56
(lp2139
g49
(g70
g51
NtRp2140
(dp2141
g54
(dp2142
g74
g75
ssg63
g2136
sg56
(lp2143
S'url'
p2144
asbag49
(g70
g51
NtRp2145
(dp2146
g54
(dp2147
g81
g82
ssg63
g2136
sg56
(lp2148
S':'
asbag49
(g70
g51
NtRp2149
(dp2150
g54
(dp2151
sg63
g2136
sg56
(lp2152
g49
(g50
g51
NtRp2153
(dp2154
g54
(dp2155
g62
I5
ssg63
g2149
sg56
(lp2156
S'/user/login'
p2157
asbasbasbag49
(g65
g51
NtRp2158
(dp2159
g54
(dp2160
sg63
g59
sg56
(lp2161
g49
(g70
g51
NtRp2162
(dp2163
g54
(dp2164
g74
g75
ssg63
g2158
sg56
(lp2165
S'utcnow'
p2166
asbag49
(g70
g51
NtRp2167
(dp2168
g54
(dp2169
g81
g82
ssg63
g2158
sg56
(lp2170
S':'
asbag49
(g70
g51
NtRp2171
(dp2172
g54
(dp2173
sg63
g2158
sg56
(lp2174
g49
(g50
g51
NtRp2175
(dp2176
g54
(dp2177
g62
I5
ssg63
g2171
sg56
(lp2178
S'datetime.datetime(2012, 3, 28, 20, 35, 24, 92970)'
p2179
asbasbasbag49
(g65
g51
NtRp2180
(dp2181
g54
(dp2182
sg63
g59
sg56
(lp2183
g49
(g70
g51
NtRp2184
(dp2185
g54
(dp2186
g74
g75
ssg63
g2180
sg56
(lp2187
S'uuid'
p2188
asbag49
(g70
g51
NtRp2189
(dp2190
g54
(dp2191
g81
g82
ssg63
g2180
sg56
(lp2192
S':'
asbag49
(g70
g51
NtRp2193
(dp2194
g54
(dp2195
sg63
g2180
sg56
(lp2196
g49
(g50
g51
NtRp2197
(dp2198
g54
(dp2199
g62
I5
ssg63
g2193
sg56
(lp2200
S'udi0312/127.0.0.1.2012-03-28.16-35-24.a58da64c-f726-4235-b7ac-cf06c0e0f086'
p2201
asbasbasbag49
(g65
g51
NtRp2202
(dp2203
g54
(dp2204
sg63
g59
sg56
(lp2205
g49
(g70
g51
NtRp2206
(dp2207
g54
(dp2208
g74
g75
ssg63
g2202
sg56
(lp2209
S'vars'
p2210
asbag49
(g70
g51
NtRp2211
(dp2212
g54
(dp2213
g81
g82
ssg63
g2202
sg56
(lp2214
S':'
asbag49
(g70
g51
NtRp2215
(dp2216
g54
(dp2217
sg63
g2202
sg56
(lp2218
g49
(g50
g51
NtRp2219
(dp2220
g54
(dp2221
g62
I5
ssg63
g2215
sg56
(lp2222
g49
(g58
g51
NtRp2223
(dp2224
g54
(dp2225
g62
I4
ssg63
Nsg56
(lp2226
sbasbasbasbag49
(g65
g51
NtRp2227
(dp2228
g54
(dp2229
sg63
g59
sg56
(lp2230
g49
(g70
g51
NtRp2231
(dp2232
g54
(dp2233
g74
g75
ssg63
g2227
sg56
(lp2234
S'wsgi'
p2235
asbag49
(g70
g51
NtRp2236
(dp2237
g54
(dp2238
g81
g82
ssg63
g2227
sg56
(lp2239
S':'
asbag49
(g70
g51
NtRp2240
(dp2241
g54
(dp2242
sg63
g2227
sg56
(lp2243
g49
(g50
g51
NtRp2244
(dp2245
g54
(dp2246
g62
I5
ssg63
g2240
sg56
(lp2247
g49
(g58
g51
NtRp2248
(dp2249
g54
(dp2250
g62
I4
ssg63
Nsg56
(lp2251
g49
(g65
g51
NtRp2252
(dp2253
g54
(dp2254
sg63
g2248
sg56
(lp2255
g49
(g70
g51
NtRp2256
(dp2257
g54
(dp2258
g74
g75
ssg63
g2252
sg56
(lp2259
S'environ'
p2260
asbag49
(g70
g51
NtRp2261
(dp2262
g54
(dp2263
g81
g82
ssg63
g2252
sg56
(lp2264
S':'
asbag49
(g70
g51
NtRp2265
(dp2266
g54
(dp2267
sg63
g2252
sg56
(lp2268
g49
(g50
g51
NtRp2269
(dp2270
g54
(dp2271
g62
I4
ssg63
g2265
sg56
(lp2272
g49
(g58
g51
NtRp2273
(dp2274
g54
(dp2275
g62
I3
ssg63
Nsg56
(lp2276
g49
(g65
g51
NtRp2277
(dp2278
g54
(dp2279
sg63
g2273
sg56
(lp2280
g49
(g70
g51
NtRp2281
(dp2282
g54
(dp2283
g74
g75
ssg63
g2277
sg56
(lp2284
S'HTTP_ACCEPT'
p2285
asbag49
(g70
g51
NtRp2286
(dp2287
g54
(dp2288
g81
g82
ssg63
g2277
sg56
(lp2289
S':'
asbag49
(g70
g51
NtRp2290
(dp2291
g54
(dp2292
sg63
g2277
sg56
(lp2293
g49
(g50
g51
NtRp2294
(dp2295
g54
(dp2296
g62
I3
ssg63
g2290
sg56
(lp2297
g782
asbasbasbag49
(g65
g51
NtRp2298
(dp2299
g54
(dp2300
sg63
g2273
sg56
(lp2301
g49
(g70
g51
NtRp2302
(dp2303
g54
(dp2304
g74
g75
ssg63
g2298
sg56
(lp2305
S'HTTP_ACCEPT_CHARSET'
p2306
asbag49
(g70
g51
NtRp2307
(dp2308
g54
(dp2309
g81
g82
ssg63
g2298
sg56
(lp2310
S':'
asbag49
(g70
g51
NtRp2311
(dp2312
g54
(dp2313
sg63
g2298
sg56
(lp2314
g49
(g50
g51
NtRp2315
(dp2316
g54
(dp2317
g62
I3
ssg63
g2311
sg56
(lp2318
g804
asbasbasbag49
(g65
g51
NtRp2319
(dp2320
g54
(dp2321
sg63
g2273
sg56
(lp2322
g49
(g70
g51
NtRp2323
(dp2324
g54
(dp2325
g74
g75
ssg63
g2319
sg56
(lp2326
S'HTTP_ACCEPT_ENCODING'
p2327
asbag49
(g70
g51
NtRp2328
(dp2329
g54
(dp2330
g81
g82
ssg63
g2319
sg56
(lp2331
S':'
asbag49
(g70
g51
NtRp2332
(dp2333
g54
(dp2334
sg63
g2319
sg56
(lp2335
g49
(g50
g51
NtRp2336
(dp2337
g54
(dp2338
g62
I3
ssg63
g2332
sg56
(lp2339
g826
asbasbasbag49
(g65
g51
NtRp2340
(dp2341
g54
(dp2342
sg63
g2273
sg56
(lp2343
g49
(g70
g51
NtRp2344
(dp2345
g54
(dp2346
g74
g75
ssg63
g2340
sg56
(lp2347
S'HTTP_ACCEPT_LANGUAGE'
p2348
asbag49
(g70
g51
NtRp2349
(dp2350
g54
(dp2351
g81
g82
ssg63
g2340
sg56
(lp2352
S':'
asbag49
(g70
g51
NtRp2353
(dp2354
g54
(dp2355
sg63
g2340
sg56
(lp2356
g49
(g50
g51
NtRp2357
(dp2358
g54
(dp2359
g62
I3
ssg63
g2353
sg56
(lp2360
g848
asbasbasbag49
(g65
g51
NtRp2361
(dp2362
g54
(dp2363
sg63
g2273
sg56
(lp2364
g49
(g70
g51
NtRp2365
(dp2366
g54
(dp2367
g74
g75
ssg63
g2361
sg56
(lp2368
S'HTTP_CACHE_CONTROL'
p2369
asbag49
(g70
g51
NtRp2370
(dp2371
g54
(dp2372
g81
g82
ssg63
g2361
sg56
(lp2373
S':'
asbag49
(g70
g51
NtRp2374
(dp2375
g54
(dp2376
sg63
g2361
sg56
(lp2377
g49
(g50
g51
NtRp2378
(dp2379
g54
(dp2380
g62
I3
ssg63
g2374
sg56
(lp2381
g870
asbasbasbag49
(g65
g51
NtRp2382
(dp2383
g54
(dp2384
sg63
g2273
sg56
(lp2385
g49
(g70
g51
NtRp2386
(dp2387
g54
(dp2388
g74
g75
ssg63
g2382
sg56
(lp2389
S'HTTP_CONNECTION'
p2390
asbag49
(g70
g51
NtRp2391
(dp2392
g54
(dp2393
g81
g82
ssg63
g2382
sg56
(lp2394
S':'
asbag49
(g70
g51
NtRp2395
(dp2396
g54
(dp2397
sg63
g2382
sg56
(lp2398
g49
(g50
g51
NtRp2399
(dp2400
g54
(dp2401
g62
I3
ssg63
g2395
sg56
(lp2402
g892
asbasbasbag49
(g65
g51
NtRp2403
(dp2404
g54
(dp2405
sg63
g2273
sg56
(lp2406
g49
(g70
g51
NtRp2407
(dp2408
g54
(dp2409
g74
g75
ssg63
g2403
sg56
(lp2410
S'HTTP_COOKIE'
p2411
asbag49
(g70
g51
NtRp2412
(dp2413
g54
(dp2414
g81
g82
ssg63
g2403
sg56
(lp2415
S':'
asbag49
(g70
g51
NtRp2416
(dp2417
g54
(dp2418
sg63
g2403
sg56
(lp2419
g49
(g50
g51
NtRp2420
(dp2421
g54
(dp2422
g62
I3
ssg63
g2416
sg56
(lp2423
g914
asbasbasbag49
(g65
g51
NtRp2424
(dp2425
g54
(dp2426
sg63
g2273
sg56
(lp2427
g49
(g70
g51
NtRp2428
(dp2429
g54
(dp2430
g74
g75
ssg63
g2424
sg56
(lp2431
S'HTTP_HOST'
p2432
asbag49
(g70
g51
NtRp2433
(dp2434
g54
(dp2435
g81
g82
ssg63
g2424
sg56
(lp2436
S':'
asbag49
(g70
g51
NtRp2437
(dp2438
g54
(dp2439
sg63
g2424
sg56
(lp2440
g49
(g50
g51
NtRp2441
(dp2442
g54
(dp2443
g62
I3
ssg63
g2437
sg56
(lp2444
g936
asbasbasbag49
(g65
g51
NtRp2445
(dp2446
g54
(dp2447
sg63
g2273
sg56
(lp2448
g49
(g70
g51
NtRp2449
(dp2450
g54
(dp2451
g74
g75
ssg63
g2445
sg56
(lp2452
S'HTTP_REFERER'
p2453
asbag49
(g70
g51
NtRp2454
(dp2455
g54
(dp2456
g81
g82
ssg63
g2445
sg56
(lp2457
S':'
asbag49
(g70
g51
NtRp2458
(dp2459
g54
(dp2460
sg63
g2445
sg56
(lp2461
g49
(g50
g51
NtRp2462
(dp2463
g54
(dp2464
g62
I3
ssg63
g2458
sg56
(lp2465
g958
asbasbasbag49
(g65
g51
NtRp2466
(dp2467
g54
(dp2468
sg63
g2273
sg56
(lp2469
g49
(g70
g51
NtRp2470
(dp2471
g54
(dp2472
g74
g75
ssg63
g2466
sg56
(lp2473
S'HTTP_USER_AGENT'
p2474
asbag49
(g70
g51
NtRp2475
(dp2476
g54
(dp2477
g81
g82
ssg63
g2466
sg56
(lp2478
S':'
asbag49
(g70
g51
NtRp2479
(dp2480
g54
(dp2481
sg63
g2466
sg56
(lp2482
g49
(g50
g51
NtRp2483
(dp2484
g54
(dp2485
g62
I3
ssg63
g2479
sg56
(lp2486
g980
asbasbasbag49
(g65
g51
NtRp2487
(dp2488
g54
(dp2489
sg63
g2273
sg56
(lp2490
g49
(g70
g51
NtRp2491
(dp2492
g54
(dp2493
g74
g75
ssg63
g2487
sg56
(lp2494
S'PATH_INFO'
p2495
asbag49
(g70
g51
NtRp2496
(dp2497
g54
(dp2498
g81
g82
ssg63
g2487
sg56
(lp2499
S':'
asbag49
(g70
g51
NtRp2500
(dp2501
g54
(dp2502
sg63
g2487
sg56
(lp2503
g49
(g50
g51
NtRp2504
(dp2505
g54
(dp2506
g62
I3
ssg63
g2500
sg56
(lp2507
g1044
asbasbasbag49
(g65
g51
NtRp2508
(dp2509
g54
(dp2510
sg63
g2273
sg56
(lp2511
g49
(g70
g51
NtRp2512
(dp2513
g54
(dp2514
g74
g75
ssg63
g2508
sg56
(lp2515
S'QUERY_STRING'
p2516
asbag49
(g70
g51
NtRp2517
(dp2518
g54
(dp2519
g81
g82
ssg63
g2508
sg56
(lp2520
S':'
asbag49
(g70
g51
NtRp2521
(dp2522
g54
(dp2523
sg63
g2508
sg56
(lp2524
g49
(g50
g51
NtRp2525
(dp2526
g54
(dp2527
g62
I3
ssg63
g2521
sg56
(lp2528
g1066
asbasbasbag49
(g65
g51
NtRp2529
(dp2530
g54
(dp2531
sg63
g2273
sg56
(lp2532
g49
(g70
g51
NtRp2533
(dp2534
g54
(dp2535
g74
g75
ssg63
g2529
sg56
(lp2536
S'REMOTE_ADDR'
p2537
asbag49
(g70
g51
NtRp2538
(dp2539
g54
(dp2540
g81
g82
ssg63
g2529
sg56
(lp2541
S':'
asbag49
(g70
g51
NtRp2542
(dp2543
g54
(dp2544
sg63
g2529
sg56
(lp2545
g49
(g50
g51
NtRp2546
(dp2547
g54
(dp2548
g62
I3
ssg63
g2542
sg56
(lp2549
g195
asbasbasbag49
(g65
g51
NtRp2550
(dp2551
g54
(dp2552
sg63
g2273
sg56
(lp2553
g49
(g70
g51
NtRp2554
(dp2555
g54
(dp2556
g74
g75
ssg63
g2550
sg56
(lp2557
S'REMOTE_PORT'
p2558
asbag49
(g70
g51
NtRp2559
(dp2560
g54
(dp2561
g81
g82
ssg63
g2550
sg56
(lp2562
S':'
asbag49
(g70
g51
NtRp2563
(dp2564
g54
(dp2565
sg63
g2550
sg56
(lp2566
g49
(g50
g51
NtRp2567
(dp2568
g54
(dp2569
g62
I3
ssg63
g2563
sg56
(lp2570
g1109
asbasbasbag49
(g65
g51
NtRp2571
(dp2572
g54
(dp2573
sg63
g2273
sg56
(lp2574
g49
(g70
g51
NtRp2575
(dp2576
g54
(dp2577
g74
g75
ssg63
g2571
sg56
(lp2578
S'REQUEST_METHOD'
p2579
asbag49
(g70
g51
NtRp2580
(dp2581
g54
(dp2582
g81
g82
ssg63
g2571
sg56
(lp2583
S':'
asbag49
(g70
g51
NtRp2584
(dp2585
g54
(dp2586
sg63
g2571
sg56
(lp2587
g49
(g50
g51
NtRp2588
(dp2589
g54
(dp2590
g62
I3
ssg63
g2584
sg56
(lp2591
g1131
asbasbasbag49
(g65
g51
NtRp2592
(dp2593
g54
(dp2594
sg63
g2273
sg56
(lp2595
g49
(g70
g51
NtRp2596
(dp2597
g54
(dp2598
g74
g75
ssg63
g2592
sg56
(lp2599
S'REQUEST_URI'
p2600
asbag49
(g70
g51
NtRp2601
(dp2602
g54
(dp2603
g81
g82
ssg63
g2592
sg56
(lp2604
S':'
asbag49
(g70
g51
NtRp2605
(dp2606
g54
(dp2607
sg63
g2592
sg56
(lp2608
g49
(g50
g51
NtRp2609
(dp2610
g54
(dp2611
g62
I3
ssg63
g2605
sg56
(lp2612
g1153
asbasbasbag49
(g65
g51
NtRp2613
(dp2614
g54
(dp2615
sg63
g2273
sg56
(lp2616
g49
(g70
g51
NtRp2617
(dp2618
g54
(dp2619
g74
g75
ssg63
g2613
sg56
(lp2620
S'SCRIPT_NAME'
p2621
asbag49
(g70
g51
NtRp2622
(dp2623
g54
(dp2624
g81
g82
ssg63
g2613
sg56
(lp2625
S':'
asbag49
(g70
g51
NtRp2626
(dp2627
g54
(dp2628
sg63
g2613
sg56
(lp2629
g49
(g50
g51
NtRp2630
(dp2631
g54
(dp2632
g62
I3
ssg63
g2626
sg56
(lp2633
S''
asbasbasbag49
(g65
g51
NtRp2634
(dp2635
g54
(dp2636
sg63
g2273
sg56
(lp2637
g49
(g70
g51
NtRp2638
(dp2639
g54
(dp2640
g74
g75
ssg63
g2634
sg56
(lp2641
S'SERVER_NAME'
p2642
asbag49
(g70
g51
NtRp2643
(dp2644
g54
(dp2645
g81
g82
ssg63
g2634
sg56
(lp2646
S':'
asbag49
(g70
g51
NtRp2647
(dp2648
g54
(dp2649
sg63
g2634
sg56
(lp2650
g49
(g50
g51
NtRp2651
(dp2652
g54
(dp2653
g62
I3
ssg63
g2647
sg56
(lp2654
g1196
asbasbasbag49
(g65
g51
NtRp2655
(dp2656
g54
(dp2657
sg63
g2273
sg56
(lp2658
g49
(g70
g51
NtRp2659
(dp2660
g54
(dp2661
g74
g75
ssg63
g2655
sg56
(lp2662
S'SERVER_PORT'
p2663
asbag49
(g70
g51
NtRp2664
(dp2665
g54
(dp2666
g81
g82
ssg63
g2655
sg56
(lp2667
S':'
asbag49
(g70
g51
NtRp2668
(dp2669
g54
(dp2670
sg63
g2655
sg56
(lp2671
g49
(g50
g51
NtRp2672
(dp2673
g54
(dp2674
g62
I3
ssg63
g2668
sg56
(lp2675
g1218
asbasbasbag49
(g65
g51
NtRp2676
(dp2677
g54
(dp2678
sg63
g2273
sg56
(lp2679
g49
(g70
g51
NtRp2680
(dp2681
g54
(dp2682
g74
g75
ssg63
g2676
sg56
(lp2683
S'SERVER_PROTOCOL'
p2684
asbag49
(g70
g51
NtRp2685
(dp2686
g54
(dp2687
g81
g82
ssg63
g2676
sg56
(lp2688
S':'
asbag49
(g70
g51
NtRp2689
(dp2690
g54
(dp2691
sg63
g2676
sg56
(lp2692
g49
(g50
g51
NtRp2693
(dp2694
g54
(dp2695
g62
I3
ssg63
g2689
sg56
(lp2696
g1240
asbasbasbag49
(g65
g51
NtRp2697
(dp2698
g54
(dp2699
sg63
g2273
sg56
(lp2700
g49
(g70
g51
NtRp2701
(dp2702
g54
(dp2703
g74
g75
ssg63
g2697
sg56
(lp2704
S'SERVER_SOFTWARE'
p2705
asbag49
(g70
g51
NtRp2706
(dp2707
g54
(dp2708
g81
g82
ssg63
g2697
sg56
(lp2709
S':'
asbag49
(g70
g51
NtRp2710
(dp2711
g54
(dp2712
sg63
g2697
sg56
(lp2713
g49
(g50
g51
NtRp2714
(dp2715
g54
(dp2716
g62
I3
ssg63
g2710
sg56
(lp2717
g1262
asbasbasbag49
(g65
g51
NtRp2718
(dp2719
g54
(dp2720
sg63
g2273
sg56
(lp2721
g49
(g70
g51
NtRp2722
(dp2723
g54
(dp2724
g74
g75
ssg63
g2718
sg56
(lp2725
S'WEB2PY_ORIGINAL_URI'
p2726
asbag49
(g70
g51
NtRp2727
(dp2728
g54
(dp2729
g81
g82
ssg63
g2718
sg56
(lp2730
S':'
asbag49
(g70
g51
NtRp2731
(dp2732
g54
(dp2733
sg63
g2718
sg56
(lp2734
g49
(g50
g51
NtRp2735
(dp2736
g54
(dp2737
g62
I3
ssg63
g2731
sg56
(lp2738
g1306
asbasbasbag49
(g65
g51
NtRp2739
(dp2740
g54
(dp2741
sg63
g2273
sg56
(lp2742
g49
(g70
g51
NtRp2743
(dp2744
g54
(dp2745
g74
g75
ssg63
g2739
sg56
(lp2746
S'wsgi.errors'
p2747
asbag49
(g70
g51
NtRp2748
(dp2749
g54
(dp2750
g81
g82
ssg63
g2739
sg56
(lp2751
S':'
asbag49
(g70
g51
NtRp2752
(dp2753
g54
(dp2754
sg63
g2739
sg56
(lp2755
g49
(g50
g51
NtRp2756
(dp2757
g54
(dp2758
g62
I3
ssg63
g2752
sg56
(lp2759
S"<open file '<stderr>', mode 'w' at 0x4220b0>"
p2760
asbasbasbag49
(g65
g51
NtRp2761
(dp2762
g54
(dp2763
sg63
g2273
sg56
(lp2764
g49
(g70
g51
NtRp2765
(dp2766
g54
(dp2767
g74
g75
ssg63
g2761
sg56
(lp2768
S'wsgi.file_wrapper'
p2769
asbag49
(g70
g51
NtRp2770
(dp2771
g54
(dp2772
g81
g82
ssg63
g2761
sg56
(lp2773
S':'
asbag49
(g70
g51
NtRp2774
(dp2775
g54
(dp2776
sg63
g2761
sg56
(lp2777
g49
(g50
g51
NtRp2778
(dp2779
g54
(dp2780
g62
I3
ssg63
g2774
sg56
(lp2781
S'<class wsgiref.util.FileWrapper at 0x245e6c0>'
p2782
asbasbasbag49
(g65
g51
NtRp2783
(dp2784
g54
(dp2785
sg63
g2273
sg56
(lp2786
g49
(g70
g51
NtRp2787
(dp2788
g54
(dp2789
g74
g75
ssg63
g2783
sg56
(lp2790
S'wsgi.input'
p2791
asbag49
(g70
g51
NtRp2792
(dp2793
g54
(dp2794
g81
g82
ssg63
g2783
sg56
(lp2795
S':'
asbag49
(g70
g51
NtRp2796
(dp2797
g54
(dp2798
sg63
g2783
sg56
(lp2799
g49
(g50
g51
NtRp2800
(dp2801
g54
(dp2802
g62
I3
ssg63
g2796
sg56
(lp2803
S'<cStringIO.StringO object at 0x8d43de0>'
p2804
asbasbasbag49
(g65
g51
NtRp2805
(dp2806
g54
(dp2807
sg63
g2273
sg56
(lp2808
g49
(g70
g51
NtRp2809
(dp2810
g54
(dp2811
g74
g75
ssg63
g2805
sg56
(lp2812
S'wsgi.multiprocess'
p2813
asbag49
(g70
g51
NtRp2814
(dp2815
g54
(dp2816
g81
g82
ssg63
g2805
sg56
(lp2817
S':'
asbag49
(g70
g51
NtRp2818
(dp2819
g54
(dp2820
sg63
g2805
sg56
(lp2821
g49
(g50
g51
NtRp2822
(dp2823
g54
(dp2824
g62
I3
ssg63
g2818
sg56
(lp2825
g92
asbasbasbag49
(g65
g51
NtRp2826
(dp2827
g54
(dp2828
sg63
g2273
sg56
(lp2829
g49
(g70
g51
NtRp2830
(dp2831
g54
(dp2832
g74
g75
ssg63
g2826
sg56
(lp2833
S'wsgi.multithread'
p2834
asbag49
(g70
g51
NtRp2835
(dp2836
g54
(dp2837
g81
g82
ssg63
g2826
sg56
(lp2838
S':'
asbag49
(g70
g51
NtRp2839
(dp2840
g54
(dp2841
sg63
g2826
sg56
(lp2842
g49
(g50
g51
NtRp2843
(dp2844
g54
(dp2845
g62
I3
ssg63
g2839
sg56
(lp2846
g1524
asbasbasbag49
(g65
g51
NtRp2847
(dp2848
g54
(dp2849
sg63
g2273
sg56
(lp2850
g49
(g70
g51
NtRp2851
(dp2852
g54
(dp2853
g74
g75
ssg63
g2847
sg56
(lp2854
S'wsgi.run_once'
p2855
asbag49
(g70
g51
NtRp2856
(dp2857
g54
(dp2858
g81
g82
ssg63
g2847
sg56
(lp2859
S':'
asbag49
(g70
g51
NtRp2860
(dp2861
g54
(dp2862
sg63
g2847
sg56
(lp2863
g49
(g50
g51
NtRp2864
(dp2865
g54
(dp2866
g62
I3
ssg63
g2860
sg56
(lp2867
g92
asbasbasbag49
(g65
g51
NtRp2868
(dp2869
g54
(dp2870
sg63
g2273
sg56
(lp2871
g49
(g70
g51
NtRp2872
(dp2873
g54
(dp2874
g74
g75
ssg63
g2868
sg56
(lp2875
S'wsgi.url_scheme'
p2876
asbag49
(g70
g51
NtRp2877
(dp2878
g54
(dp2879
g81
g82
ssg63
g2868
sg56
(lp2880
S':'
asbag49
(g70
g51
NtRp2881
(dp2882
g54
(dp2883
sg63
g2868
sg56
(lp2884
g49
(g50
g51
NtRp2885
(dp2886
g54
(dp2887
g62
I3
ssg63
g2881
sg56
(lp2888
g1567
asbasbasbag49
(g65
g51
NtRp2889
(dp2890
g54
(dp2891
sg63
g2273
sg56
(lp2892
g49
(g70
g51
NtRp2893
(dp2894
g54
(dp2895
g74
g75
ssg63
g2889
sg56
(lp2896
S'wsgi.version'
p2897
asbag49
(g70
g51
NtRp2898
(dp2899
g54
(dp2900
g81
g82
ssg63
g2889
sg56
(lp2901
S':'
asbag49
(g70
g51
NtRp2902
(dp2903
g54
(dp2904
sg63
g2889
sg56
(lp2905
g49
(g50
g51
NtRp2906
(dp2907
g54
(dp2908
g62
I3
ssg63
g2902
sg56
(lp2909
S'1'
asbasbasbasbasbasbasbasbasbasbasbasbasbsS'frames'
p2910
(lp2911
(dp2912
S'file'
p2913
S'/users/udimilo/Documents/web2py/gluon/restricted.py'
p2914
sS'dump'
p2915
(dp2916
S'environment'
p2917
S"{'A': <class 'gluon.html.A'>, 'Auth': <class 'gluon.tools.Auth'>, 'B': <class 'gluon.html.B'>, 'BEAUTIFY': <class 'gluon.html.BEAUTIFY'>, 'BODY': <class 'gluon.html.BODY'>, 'BR': <class 'gluon.html.BR'>, 'BUTTON': <class 'gluon.html.BUTTON'>, 'CAT': <class 'gluon.html.CAT'>, 'CENTER': <class 'gluon.html.CENTER'>, 'CLEANUP': <class 'gluon.validators.CLEANUP'>, ...}"
p2918
sS'ccode'
p2919
S'<code object <module> at 0x8d5b920, file "/Users...b2py/applications/udi0312/models/db.py", line 12>'
p2920
ssS'lnum'
p2921
I205
sS'lines'
p2922
(dp2923
I200
S'    try:'
p2924
sI201
S'        if type(code) == types.CodeType:'
p2925
sI202
S'            ccode = code'
p2926
sI203
S'        else:'
p2927
sI204
S'            ccode = compile2(code,layer)'
p2928
sI205
S'        exec ccode in environment'
p2929
sI206
S'    except HTTP:'
p2930
sI207
S'        raise'
p2931
sI208
S'    except RestrictedError:'
p2932
sI209
S'        # do not encapsulate (obfuscate) the original RestrictedError'
p2933
ssS'call'
p2934
S'(code="# -*- coding: utf-8 -*-\\n\\n#######################...\'created_on\', \'datetime\', default=request.now),)\\n", environment={\'A\': <class \'gluon.html.A\'>, \'Auth\': <class \'gluon.tools.Auth\'>, \'B\': <class \'gluon.html.B\'>, \'BEAUTIFY\': <class \'gluon.html.BEAUTIFY\'>, \'BODY\': <class \'gluon.html.BODY\'>, \'BR\': <class \'gluon.html.BR\'>, \'BUTTON\': <class \'gluon.html.BUTTON\'>, \'CAT\': <class \'gluon.html.CAT\'>, \'CENTER\': <class \'gluon.html.CENTER\'>, \'CLEANUP\': <class \'gluon.validators.CLEANUP\'>, ...}, layer=\'/Users/udimilo/Documents/web2py/applications/udi0312/models/db.py\')'
p2935
sS'func'
p2936
S'restricted'
p2937
sa(dp2938
g2913
S'/Users/udimilo/Documents/web2py/applications/udi0312/models/db.py'
p2939
sg2915
(dp2940
sg2921
I71
sg2922
(dp2941
I66
S'from linkedinAccount import LinkedInAccount'
p2942
sI67
S'auth.settings.login_form=LinkedInAccount('
p2943
sI68
S'    request,'
p2944
sI69
S"    'wFNJekVpDCJtRPFX812pQsJee-gt0zO4X5XmG6wcfSOSlLocxodAXNMbl0_hw3Vl',"
p2945
sI70
S"    'daJDa6_8UcnGMw1yuq9TjoO_PMKukXMo8vEMo7Qv5J-G3SPgrAV0FqFCd0TNjQyG',"
p2946
sI71
S"    'http://127.0.0.1:8000')"
p2947
sI72
S''
sI73
S'#########################################################################'
p2948
sI74
S'## Define your tables below (or better in another model file) for example'
p2949
sI75
S'##'
p2950
ssg2934
S'()'
p2951
sg2936
S'<module>'
p2952
sa(dp2953
g2913
S'/Users/udimilo/Documents/web2py/applications/udi0312/modules/linkedinAccount.py'
p2954
sg2915
(dp2955
S'self.token'
p2956
S'undefined'
p2957
sS'self'
p2958
S'<applications.udi0312.modules.linkedinAccount.LinkedInAccount object at 0xa06bfb0>'
p2959
sS'self.api'
p2960
S'<applications.udi0312.modules.linkedin.LinkedIn object at 0xa06b2f0>'
p2961
sS'result'
p2962
g2957
sS'self.api.request_token'
p2963
S'<bound method LinkedIn.request_token of <applica...2.modules.linkedin.LinkedIn object at 0xa06b2f0>>'
p2964
ssg2921
I33
sg2922
(dp2965
I32
S'        self.api = linkedin.LinkedIn(key,secret,return_url, gae=True)'
p2966
sI33
S'        self.token = result = self.api.request_token()'
p2967
sI34
S''
sI35
S'    def login_url(self, next="/"):'
p2968
sI36
S'        return self.api.getAuthorizeURL()'
p2969
sI37
S''
sI28
S'    """'
p2970
sI29
S''
sI30
S'    def __init__(self,request,key,secret,return_url):'
p2971
sI31
S'        self.request = request'
p2972
ssg2934
S"(self=<applications.udi0312.modules.linkedinAccount.LinkedInAccount object at 0xa06bfb0>, request=<Storage {'body': <cStringIO.StringO object at 0...rage {'_next': '/'}>, 'post_vars': <Storage {}>}>, key='wFNJekVpDCJtRPFX812pQsJee-gt0zO4X5XmG6wcfSOSlLocxodAXNMbl0_hw3Vl', secret='daJDa6_8UcnGMw1yuq9TjoO_PMKukXMo8vEMo7Qv5J-G3SPgrAV0FqFCd0TNjQyG', return_url='http://127.0.0.1:8000')"
p2973
sg2936
g42
sa(dp2974
g2913
S'/Users/udimilo/Documents/web2py/applications/udi0312/modules/linkedin.py'
p2975
sg2915
(dp2976
S'relative_url'
p2977
S"'/uas/oauth/requestToken'"
p2978
sS'self'
p2979
S'<applications.udi0312.modules.linkedin.LinkedIn object at 0xa06b2f0>'
p2980
sS'query_dict'
p2981
S"{'oauth_callback': 'http://127.0.0.1:8000', 'oauth_consumer_key': 'wFNJekVpDCJtRPFX812pQsJee-gt0zO4X5XmG6wcfSOSlLocxodAXNMbl0_hw3Vl', 'oauth_nonce': 'prqlstbyQqGuSpBKwWky', 'oauth_signature': '3UgcNCBz0sAO7VlkEuTxJQbiJSQ=', 'oauth_signature_method': 'HMAC-SHA1', 'oauth_timestamp': '1332966924', 'oauth_version': '1.0'}"
p2982
sS'response'
p2983
g2957
sS'self._https_connection'
p2984
S'<bound method LinkedIn._https_connection of <app...2.modules.linkedin.LinkedIn object at 0xa06b2f0>>'
p2985
sS'method'
p2986
S"'GET'"
p2987
ssg2921
I158
sg2922
(dp2988
I160
S'            return False'
p2989
sI161
S''
sI162
S'        oauth_problem = self._get_value_from_raw_qs("oauth_problem", response)'
p2990
sI153
S'        query_dict = self._query_dict({"oauth_callback" : self._callback_url})'
p2991
sI154
S''
sI155
S'        self._calc_signature(self._get_url(relative_url), query_dict, self._request_token_secret, method)'
p2992
sI156
S''
sI157
S'        try:'
p2993
sI158
S'            response = self._https_connection(method, relative_url, query_dict)'
p2994
sI159
S'        except ConnectionError:'
p2995
ssg2934
S'(self=<applications.udi0312.modules.linkedin.LinkedIn object at 0xa06b2f0>)'
p2996
sg2936
S'request_token'
p2997
sa(dp2998
g2913
S'/Users/udimilo/Documents/web2py/applications/udi0312/modules/linkedin.py'
p2999
sg2915
(dp3000
S'body'
p3001
S'None'
p3002
sS'relative_url'
p3003
S"'/uas/oauth/requestToken'"
p3004
sS'self'
p3005
S'<applications.udi0312.modules.linkedin.LinkedIn object at 0xa06b2f0>'
p3006
sS'query_dict'
p3007
S"{'oauth_callback': 'http://127.0.0.1:8000', 'oauth_consumer_key': 'wFNJekVpDCJtRPFX812pQsJee-gt0zO4X5XmG6wcfSOSlLocxodAXNMbl0_hw3Vl', 'oauth_nonce': 'prqlstbyQqGuSpBKwWky', 'oauth_signature': '3UgcNCBz0sAO7VlkEuTxJQbiJSQ=', 'oauth_signature_method': 'HMAC-SHA1', 'oauth_timestamp': '1332966924', 'oauth_version': '1.0'}"
p3008
sS'self._https_connection_gae'
p3009
S'<bound method LinkedIn._https_connection_gae of ...2.modules.linkedin.LinkedIn object at 0xa06b2f0>>'
p3010
sS'method'
p3011
S"'GET'"
p3012
ssg2921
I792
sg2922
(dp3013
I787
S'            query_dict["oauth_signature"] = signature'
p3014
sI788
S'        return signature'
p3015
sI789
S''
sI790
S'    def _https_connection(self, method, relative_url, query_dict, body=None):'
p3016
sI791
S'        if (self._gae):'
p3017
sI792
S'            return self._https_connection_gae(method, relative_url, query_dict, body)'
p3018
sI793
S'        else:'
p3019
sI794
S'            return self._https_connection_regular(method, relative_url, query_dict, body)'
p3020
sI795
S''
sI796
S'    def _https_connection_regular(self, method, relative_url, query_dict, body = None):'
p3021
ssg2934
S"(self=<applications.udi0312.modules.linkedin.LinkedIn object at 0xa06b2f0>, method='GET', relative_url='/uas/oauth/requestToken', query_dict={'oauth_callback': 'http://127.0.0.1:8000', 'oauth_consumer_key': 'wFNJekVpDCJtRPFX812pQsJee-gt0zO4X5XmG6wcfSOSlLocxodAXNMbl0_hw3Vl', 'oauth_nonce': 'prqlstbyQqGuSpBKwWky', 'oauth_signature': '3UgcNCBz0sAO7VlkEuTxJQbiJSQ=', 'oauth_signature_method': 'HMAC-SHA1', 'oauth_timestamp': '1332966924', 'oauth_version': '1.0'}, body=None)"
p3022
sg2936
S'_https_connection'
p3023
sa(dp3024
g2913
S'/Users/udimilo/Documents/web2py/applications/udi0312/modules/linkedin.py'
p3025
sg2915
(dp3026
S'google'
p3027
g2957
sS'urlfetch'
p3028
g2957
ssg2921
I814
sg2922
(dp3029
I809
S'        finally:'
p3030
sI810
S'            if (connection):'
p3031
sI811
S'                connection.close()'
p3032
sI812
S''
sI813
S'    def _https_connection_gae(self, method, relative_url, query_dict, body = None):'
p3033
sI814
S'        from google.appengine.api import urlfetch'
p3034
sI815
S'        if (method == "GET"):'
p3035
sI816
S'            method = urlfetch.GET'
p3036
sI817
S'        elif (method == "POST"):'
p3037
sI818
S'            method = urlfetch.POST'
p3038
ssg2934
S"(self=<applications.udi0312.modules.linkedin.LinkedIn object at 0xa06b2f0>, method='GET', relative_url='/uas/oauth/requestToken', query_dict={'oauth_callback': 'http://127.0.0.1:8000', 'oauth_consumer_key': 'wFNJekVpDCJtRPFX812pQsJee-gt0zO4X5XmG6wcfSOSlLocxodAXNMbl0_hw3Vl', 'oauth_nonce': 'prqlstbyQqGuSpBKwWky', 'oauth_signature': '3UgcNCBz0sAO7VlkEuTxJQbiJSQ=', 'oauth_signature_method': 'HMAC-SHA1', 'oauth_timestamp': '1332966924', 'oauth_version': '1.0'}, body=None)"
p3039
sg2936
S'_https_connection_gae'
p3040
sa(dp3041
g2913
S'/users/udimilo/Documents/web2py/gluon/custom_import.py'
p3042
sg2915
(dp3043
S'fromlist'
p3044
S"('urlfetch',)"
p3045
sS'level'
p3046
S'-1'
p3047
ssg2921
I293
sg2922
(dp3048
I288
S'                            .__call__(modules_prefix+"."+name,'
p3049
sI289
S'                                    globals, locals, fromlist, level)'
p3050
sI290
S'                except ImportError:'
p3051
sI291
S'                    pass'
p3052
sI292
S'        return super(_Web2pyImporter, self).__call__(name, globals, locals,'
p3053
sI293
S'                                                    fromlist, level)'
p3054
sI294
S'        #except Exception, e:'
p3055
sI295
S"        #    raise e  # Don't hide something that went wrong"
p3056
sI296
S'        #finally:'
p3057
sI297
S'        self.end()'
p3058
ssg2934
S"(self=<gluon.custom_import._Web2pyImporter object at 0x240cd70>, name='google.appengine.api', globals={'ConnectionError': <class 'applications.udi0312.modules.linkedin.ConnectionError'>, 'Education': <class applications.udi0312.modules.model.Education at 0xa029ae0>, 'HTMLParser': <class HTMLParser.HTMLParser at 0x11f2c30>, 'LinkedIn': <class 'applications.udi0312.modules.linkedin.LinkedIn'>, 'LinkedInModel': <class applications.udi0312.modules.model.LinkedInModel at 0xa03e810>, 'OAuthError': <class 'applications.udi0312.modules.linkedin.OAuthError'>, 'Position': <class applications.udi0312.modules.model.Position at 0x8df8150>, 'Profile': <class applications.udi0312.modules.model.Profile at 0x8df83c0>, 'Stripper': <class applications.udi0312.modules.linkedin.Stripper at 0x8e08c90>, 'XMLBuilder': <class 'applications.udi0312.modules.linkedin.XMLBuilder'>, ...}, locals={}, fromlist=('urlfetch',), level=-1)"
p3059
sg2936
S'__call__'
p3060
sa(dp3061
g2913
S'/users/udimilo/Documents/web2py/gluon/custom_import.py'
p3062
sg2915
(dp3063
S'level'
p3064
S'-1'
p3065
ssg2921
I78
sg2922
(dp3066
I73
S'        """'
p3067
sI74
S'        return _STANDARD_PYTHON_IMPORTER(name,'
p3068
sI75
S'                                         globals,'
p3069
sI76
S'                                         locals,'
p3070
sI77
S'                                         fromlist,'
p3071
sI78
S'                                         level)'
p3072
sI79
S''
sI80
S'    def end(self):'
p3073
sI81
S'        """'
p3074
sI82
S'        Needed for clean up.'
p3075
ssg2934
S"(self=<gluon.custom_import._Web2pyImporter object at 0x240cd70>, name='google.appengine.api', globals={'ConnectionError': <class 'applications.udi0312.modules.linkedin.ConnectionError'>, 'Education': <class applications.udi0312.modules.model.Education at 0xa029ae0>, 'HTMLParser': <class HTMLParser.HTMLParser at 0x11f2c30>, 'LinkedIn': <class 'applications.udi0312.modules.linkedin.LinkedIn'>, 'LinkedInModel': <class applications.udi0312.modules.model.LinkedInModel at 0xa03e810>, 'OAuthError': <class 'applications.udi0312.modules.linkedin.OAuthError'>, 'Position': <class applications.udi0312.modules.model.Position at 0x8df8150>, 'Profile': <class applications.udi0312.modules.model.Profile at 0x8df83c0>, 'Stripper': <class applications.udi0312.modules.linkedin.Stripper at 0x8e08c90>, 'XMLBuilder': <class 'applications.udi0312.modules.linkedin.XMLBuilder'>, ...}, locals={}, fromlist=('urlfetch',), level=-1)"
p3076
sg2936
g3060
sasS'pyver'
p3077
S'Python 2.5.4: /Library/Frameworks/Python.framework/Versions/2.5/Resources/Python.app/Contents/MacOS/Python'
p3078
sS'session'
p3079
g49
(g50
g51
NtRp3080
(dp3081
g54
(dp3082
sg56
(lp3083
g49
(g58
g51
NtRp3084
(dp3085
g54
(dp3086
g62
I5
ssg63
Nsg56
(lp3087
sbasbsS'etype'
p3088
S"<type 'exceptions.ImportError'>"
p3089
sS'date'
p3090
S'Wed Mar 28 16:35:24 2012'
p3091
sS'response'
p3092
g49
(g50
g51
NtRp3093
(dp3094
g54
(dp3095
sg56
(lp3096
g49
(g58
g51
NtRp3097
(dp3098
g54
(dp3099
g62
I5
ssg63
Nsg56
(lp3100
g49
(g65
g51
NtRp3101
(dp3102
g54
(dp3103
sg63
g3097
sg56
(lp3104
g49
(g70
g51
NtRp3105
(dp3106
g54
(dp3107
g74
g75
ssg63
g3101
sg56
(lp3108
g160
asbag49
(g70
g51
NtRp3109
(dp3110
g54
(dp3111
g81
g82
ssg63
g3101
sg56
(lp3112
S':'
asbag49
(g70
g51
NtRp3113
(dp3114
g54
(dp3115
sg63
g3101
sg56
(lp3116
g49
(g50
g51
NtRp3117
(dp3118
g54
(dp3119
g62
I5
ssg63
g3113
sg56
(lp3120
S'<cStringIO.StringO object at 0x8d43420>'
p3121
asbasbasbag49
(g65
g51
NtRp3122
(dp3123
g54
(dp3124
sg63
g3097
sg56
(lp3125
g49
(g70
g51
NtRp3126
(dp3127
g54
(dp3128
g74
g75
ssg63
g3122
sg56
(lp3129
g226
asbag49
(g70
g51
NtRp3130
(dp3131
g54
(dp3132
g81
g82
ssg63
g3122
sg56
(lp3133
S':'
asbag49
(g70
g51
NtRp3134
(dp3135
g54
(dp3136
sg63
g3122
sg56
(lp3137
g49
(g50
g51
NtRp3138
(dp3139
g54
(dp3140
g62
I5
ssg63
g3134
sg56
(lp3141
g49
(g58
g51
NtRp3142
(dp3143
g54
(dp3144
g62
I4
ssg63
Nsg56
(lp3145
g49
(g65
g51
NtRp3146
(dp3147
g54
(dp3148
sg63
g3142
sg56
(lp3149
g49
(g70
g51
NtRp3150
(dp3151
g54
(dp3152
g74
g75
ssg63
g3146
sg56
(lp3153
S'session_id_udi0312'
p3154
asbag49
(g70
g51
NtRp3155
(dp3156
g54
(dp3157
g81
g82
ssg63
g3146
sg56
(lp3158
S':'
asbag49
(g70
g51
NtRp3159
(dp3160
g54
(dp3161
sg63
g3146
sg56
(lp3162
g49
(g50
g51
NtRp3163
(dp3164
g54
(dp3165
g62
I4
ssg63
g3159
sg56
(lp3166
g49
(g58
g51
NtRp3167
(dp3168
g54
(dp3169
g62
I3
ssg63
Nsg56
(lp3170
g49
(g65
g51
NtRp3171
(dp3172
g54
(dp3173
sg63
g3167
sg56
(lp3174
g49
(g70
g51
NtRp3175
(dp3176
g54
(dp3177
g74
g75
ssg63
g3171
sg56
(lp3178
g276
asbag49
(g70
g51
NtRp3179
(dp3180
g54
(dp3181
g81
g82
ssg63
g3171
sg56
(lp3182
S':'
asbag49
(g70
g51
NtRp3183
(dp3184
g54
(dp3185
sg63
g3171
sg56
(lp3186
g49
(g50
g51
NtRp3187
(dp3188
g54
(dp3189
g62
I3
ssg63
g3183
sg56
(lp3190
S''
asbasbasbag49
(g65
g51
NtRp3191
(dp3192
g54
(dp3193
sg63
g3167
sg56
(lp3194
g49
(g70
g51
NtRp3195
(dp3196
g54
(dp3197
g74
g75
ssg63
g3191
sg56
(lp3198
g297
asbag49
(g70
g51
NtRp3199
(dp3200
g54
(dp3201
g81
g82
ssg63
g3191
sg56
(lp3202
S':'
asbag49
(g70
g51
NtRp3203
(dp3204
g54
(dp3205
sg63
g3191
sg56
(lp3206
g49
(g50
g51
NtRp3207
(dp3208
g54
(dp3209
g62
I3
ssg63
g3203
sg56
(lp3210
S''
asbasbasbag49
(g65
g51
NtRp3211
(dp3212
g54
(dp3213
sg63
g3167
sg56
(lp3214
g49
(g70
g51
NtRp3215
(dp3216
g54
(dp3217
g74
g75
ssg63
g3211
sg56
(lp3218
g318
asbag49
(g70
g51
NtRp3219
(dp3220
g54
(dp3221
g81
g82
ssg63
g3211
sg56
(lp3222
S':'
asbag49
(g70
g51
NtRp3223
(dp3224
g54
(dp3225
sg63
g3211
sg56
(lp3226
g49
(g50
g51
NtRp3227
(dp3228
g54
(dp3229
g62
I3
ssg63
g3223
sg56
(lp3230
S''
asbasbasbag49
(g65
g51
NtRp3231
(dp3232
g54
(dp3233
sg63
g3167
sg56
(lp3234
g49
(g70
g51
NtRp3235
(dp3236
g54
(dp3237
g74
g75
ssg63
g3231
sg56
(lp3238
g339
asbag49
(g70
g51
NtRp3239
(dp3240
g54
(dp3241
g81
g82
ssg63
g3231
sg56
(lp3242
S':'
asbag49
(g70
g51
NtRp3243
(dp3244
g54
(dp3245
sg63
g3231
sg56
(lp3246
g49
(g50
g51
NtRp3247
(dp3248
g54
(dp3249
g62
I3
ssg63
g3243
sg56
(lp3250
S''
asbasbasbag49
(g65
g51
NtRp3251
(dp3252
g54
(dp3253
sg63
g3167
sg56
(lp3254
g49
(g70
g51
NtRp3255
(dp3256
g54
(dp3257
g74
g75
ssg63
g3251
sg56
(lp3258
g360
asbag49
(g70
g51
NtRp3259
(dp3260
g54
(dp3261
g81
g82
ssg63
g3251
sg56
(lp3262
S':'
asbag49
(g70
g51
NtRp3263
(dp3264
g54
(dp3265
sg63
g3251
sg56
(lp3266
g49
(g50
g51
NtRp3267
(dp3268
g54
(dp3269
g62
I3
ssg63
g3263
sg56
(lp3270
S'/'
asbasbasbag49
(g65
g51
NtRp3271
(dp3272
g54
(dp3273
sg63
g3167
sg56
(lp3274
g49
(g70
g51
NtRp3275
(dp3276
g54
(dp3277
g74
g75
ssg63
g3271
sg56
(lp3278
g381
asbag49
(g70
g51
NtRp3279
(dp3280
g54
(dp3281
g81
g82
ssg63
g3271
sg56
(lp3282
S':'
asbag49
(g70
g51
NtRp3283
(dp3284
g54
(dp3285
sg63
g3271
sg56
(lp3286
g49
(g50
g51
NtRp3287
(dp3288
g54
(dp3289
g62
I3
ssg63
g3283
sg56
(lp3290
S''
asbasbasbag49
(g65
g51
NtRp3291
(dp3292
g54
(dp3293
sg63
g3167
sg56
(lp3294
g49
(g70
g51
NtRp3295
(dp3296
g54
(dp3297
g74
g75
ssg63
g3291
sg56
(lp3298
g402
asbag49
(g70
g51
NtRp3299
(dp3300
g54
(dp3301
g81
g82
ssg63
g3291
sg56
(lp3302
S':'
asbag49
(g70
g51
NtRp3303
(dp3304
g54
(dp3305
sg63
g3291
sg56
(lp3306
g49
(g50
g51
NtRp3307
(dp3308
g54
(dp3309
g62
I3
ssg63
g3303
sg56
(lp3310
S''
asbasbasbasbasbasbasbasbasbasbasbag49
(g65
g51
NtRp3311
(dp3312
g54
(dp3313
sg63
g3097
sg56
(lp3314
g49
(g70
g51
NtRp3315
(dp3316
g54
(dp3317
g74
g75
ssg63
g3311
sg56
(lp3318
S'delimiters'
p3319
asbag49
(g70
g51
NtRp3320
(dp3321
g54
(dp3322
g81
g82
ssg63
g3311
sg56
(lp3323
S':'
asbag49
(g70
g51
NtRp3324
(dp3325
g54
(dp3326
sg63
g3311
sg56
(lp3327
g49
(g50
g51
NtRp3328
(dp3329
g54
(dp3330
g62
I5
ssg63
g3324
sg56
(lp3331
g49
(g58
g51
NtRp3332
(dp3333
g54
(dp3334
g62
I4
ssg63
Nsg56
(lp3335
g49
(g65
g51
NtRp3336
(dp3337
g54
(dp3338
sg63
g3332
sg56
(lp3339
g49
(g70
g51
NtRp3340
(dp3341
g54
(dp3342
sg63
g3336
sg56
(lp3343
g49
(g50
g51
NtRp3344
(dp3345
g54
(dp3346
g62
I4
ssg63
g3340
sg56
(lp3347
S'{{'
p3348
asbasbasbag49
(g65
g51
NtRp3349
(dp3350
g54
(dp3351
sg63
g3332
sg56
(lp3352
g49
(g70
g51
NtRp3353
(dp3354
g54
(dp3355
sg63
g3349
sg56
(lp3356
g49
(g50
g51
NtRp3357
(dp3358
g54
(dp3359
g62
I4
ssg63
g3353
sg56
(lp3360
S'}}'
p3361
asbasbasbasbasbasbasbag49
(g65
g51
NtRp3362
(dp3363
g54
(dp3364
sg63
g3097
sg56
(lp3365
g49
(g70
g51
NtRp3366
(dp3367
g54
(dp3368
g74
g75
ssg63
g3362
sg56
(lp3369
S'files'
p3370
asbag49
(g70
g51
NtRp3371
(dp3372
g54
(dp3373
g81
g82
ssg63
g3362
sg56
(lp3374
S':'
asbag49
(g70
g51
NtRp3375
(dp3376
g54
(dp3377
sg63
g3362
sg56
(lp3378
g49
(g50
g51
NtRp3379
(dp3380
g54
(dp3381
g62
I5
ssg63
g3375
sg56
(lp3382
g49
(g58
g51
NtRp3383
(dp3384
g54
(dp3385
g62
I4
ssg63
Nsg56
(lp3386
sbasbasbasbag49
(g65
g51
NtRp3387
(dp3388
g54
(dp3389
sg63
g3097
sg56
(lp3390
g49
(g70
g51
NtRp3391
(dp3392
g54
(dp3393
g74
g75
ssg63
g3387
sg56
(lp3394
S'flash'
p3395
asbag49
(g70
g51
NtRp3396
(dp3397
g54
(dp3398
g81
g82
ssg63
g3387
sg56
(lp3399
S':'
asbag49
(g70
g51
NtRp3400
(dp3401
g54
(dp3402
sg63
g3387
sg56
(lp3403
g49
(g50
g51
NtRp3404
(dp3405
g54
(dp3406
g62
I5
ssg63
g3400
sg56
(lp3407
S''
asbasbasbag49
(g65
g51
NtRp3408
(dp3409
g54
(dp3410
sg63
g3097
sg56
(lp3411
g49
(g70
g51
NtRp3412
(dp3413
g54
(dp3414
g74
g75
ssg63
g3408
sg56
(lp3415
S'generic_patterns'
p3416
asbag49
(g70
g51
NtRp3417
(dp3418
g54
(dp3419
g81
g82
ssg63
g3408
sg56
(lp3420
S':'
asbag49
(g70
g51
NtRp3421
(dp3422
g54
(dp3423
sg63
g3408
sg56
(lp3424
g49
(g50
g51
NtRp3425
(dp3426
g54
(dp3427
g62
I5
ssg63
g3421
sg56
(lp3428
g49
(g58
g51
NtRp3429
(dp3430
g54
(dp3431
g62
I4
ssg63
Nsg56
(lp3432
g49
(g65
g51
NtRp3433
(dp3434
g54
(dp3435
sg63
g3429
sg56
(lp3436
g49
(g70
g51
NtRp3437
(dp3438
g54
(dp3439
sg63
g3433
sg56
(lp3440
g49
(g50
g51
NtRp3441
(dp3442
g54
(dp3443
g62
I4
ssg63
g3437
sg56
(lp3444
S'*'
asbasbasbasbasbasbasbag49
(g65
g51
NtRp3445
(dp3446
g54
(dp3447
sg63
g3097
sg56
(lp3448
g49
(g70
g51
NtRp3449
(dp3450
g54
(dp3451
g74
g75
ssg63
g3445
sg56
(lp3452
S'headers'
p3453
asbag49
(g70
g51
NtRp3454
(dp3455
g54
(dp3456
g81
g82
ssg63
g3445
sg56
(lp3457
S':'
asbag49
(g70
g51
NtRp3458
(dp3459
g54
(dp3460
sg63
g3445
sg56
(lp3461
g49
(g50
g51
NtRp3462
(dp3463
g54
(dp3464
g62
I5
ssg63
g3458
sg56
(lp3465
g49
(g58
g51
NtRp3466
(dp3467
g54
(dp3468
g62
I4
ssg63
Nsg56
(lp3469
g49
(g65
g51
NtRp3470
(dp3471
g54
(dp3472
sg63
g3466
sg56
(lp3473
g49
(g70
g51
NtRp3474
(dp3475
g54
(dp3476
g74
g75
ssg63
g3470
sg56
(lp3477
S'Cache-Control'
p3478
asbag49
(g70
g51
NtRp3479
(dp3480
g54
(dp3481
g81
g82
ssg63
g3470
sg56
(lp3482
S':'
asbag49
(g70
g51
NtRp3483
(dp3484
g54
(dp3485
sg63
g3470
sg56
(lp3486
g49
(g50
g51
NtRp3487
(dp3488
g54
(dp3489
g62
I4
ssg63
g3483
sg56
(lp3490
S'no-store, no-cache, must-revalidate, post-check=0, pre-check=0'
p3491
asbasbasbag49
(g65
g51
NtRp3492
(dp3493
g54
(dp3494
sg63
g3466
sg56
(lp3495
g49
(g70
g51
NtRp3496
(dp3497
g54
(dp3498
g74
g75
ssg63
g3492
sg56
(lp3499
S'Content-Type'
p3500
asbag49
(g70
g51
NtRp3501
(dp3502
g54
(dp3503
g81
g82
ssg63
g3492
sg56
(lp3504
S':'
asbag49
(g70
g51
NtRp3505
(dp3506
g54
(dp3507
sg63
g3492
sg56
(lp3508
g49
(g50
g51
NtRp3509
(dp3510
g54
(dp3511
g62
I4
ssg63
g3505
sg56
(lp3512
S'text/html; charset=utf-8'
p3513
asbasbasbag49
(g65
g51
NtRp3514
(dp3515
g54
(dp3516
sg63
g3466
sg56
(lp3517
g49
(g70
g51
NtRp3518
(dp3519
g54
(dp3520
g74
g75
ssg63
g3514
sg56
(lp3521
S'Expires'
p3522
asbag49
(g70
g51
NtRp3523
(dp3524
g54
(dp3525
g81
g82
ssg63
g3514
sg56
(lp3526
S':'
asbag49
(g70
g51
NtRp3527
(dp3528
g54
(dp3529
sg63
g3514
sg56
(lp3530
g49
(g50
g51
NtRp3531
(dp3532
g54
(dp3533
g62
I4
ssg63
g3527
sg56
(lp3534
S'Wed, 28 Mar 2012 20:35:24 GMT'
p3535
asbasbasbag49
(g65
g51
NtRp3536
(dp3537
g54
(dp3538
sg63
g3466
sg56
(lp3539
g49
(g70
g51
NtRp3540
(dp3541
g54
(dp3542
g74
g75
ssg63
g3536
sg56
(lp3543
S'Pragma'
p3544
asbag49
(g70
g51
NtRp3545
(dp3546
g54
(dp3547
g81
g82
ssg63
g3536
sg56
(lp3548
S':'
asbag49
(g70
g51
NtRp3549
(dp3550
g54
(dp3551
sg63
g3536
sg56
(lp3552
g49
(g50
g51
NtRp3553
(dp3554
g54
(dp3555
g62
I4
ssg63
g3549
sg56
(lp3556
S'no-cache'
p3557
asbasbasbag49
(g65
g51
NtRp3558
(dp3559
g54
(dp3560
sg63
g3466
sg56
(lp3561
g49
(g70
g51
NtRp3562
(dp3563
g54
(dp3564
g74
g75
ssg63
g3558
sg56
(lp3565
S'X-Powered-By'
p3566
asbag49
(g70
g51
NtRp3567
(dp3568
g54
(dp3569
g81
g82
ssg63
g3558
sg56
(lp3570
S':'
asbag49
(g70
g51
NtRp3571
(dp3572
g54
(dp3573
sg63
g3558
sg56
(lp3574
g49
(g50
g51
NtRp3575
(dp3576
g54
(dp3577
g62
I4
ssg63
g3571
sg56
(lp3578
S'web2py'
p3579
asbasbasbasbasbasbasbag49
(g65
g51
NtRp3580
(dp3581
g54
(dp3582
sg63
g3097
sg56
(lp3583
g49
(g70
g51
NtRp3584
(dp3585
g54
(dp3586
g74
g75
ssg63
g3580
sg56
(lp3587
S'menu'
p3588
asbag49
(g70
g51
NtRp3589
(dp3590
g54
(dp3591
g81
g82
ssg63
g3580
sg56
(lp3592
S':'
asbag49
(g70
g51
NtRp3593
(dp3594
g54
(dp3595
sg63
g3580
sg56
(lp3596
g49
(g50
g51
NtRp3597
(dp3598
g54
(dp3599
g62
I5
ssg63
g3593
sg56
(lp3600
g49
(g58
g51
NtRp3601
(dp3602
g54
(dp3603
g62
I4
ssg63
Nsg56
(lp3604
sbasbasbasbag49
(g65
g51
NtRp3605
(dp3606
g54
(dp3607
sg63
g3097
sg56
(lp3608
g49
(g70
g51
NtRp3609
(dp3610
g54
(dp3611
g74
g75
ssg63
g3605
sg56
(lp3612
S'meta'
p3613
asbag49
(g70
g51
NtRp3614
(dp3615
g54
(dp3616
g81
g82
ssg63
g3605
sg56
(lp3617
S':'
asbag49
(g70
g51
NtRp3618
(dp3619
g54
(dp3620
sg63
g3605
sg56
(lp3621
g49
(g50
g51
NtRp3622
(dp3623
g54
(dp3624
g62
I5
ssg63
g3618
sg56
(lp3625
g49
(g58
g51
NtRp3626
(dp3627
g54
(dp3628
g62
I4
ssg63
Nsg56
(lp3629
sbasbasbasbag49
(g65
g51
NtRp3630
(dp3631
g54
(dp3632
sg63
g3097
sg56
(lp3633
g49
(g70
g51
NtRp3634
(dp3635
g54
(dp3636
g74
g75
ssg63
g3630
sg56
(lp3637
S'postprocessing'
p3638
asbag49
(g70
g51
NtRp3639
(dp3640
g54
(dp3641
g81
g82
ssg63
g3630
sg56
(lp3642
S':'
asbag49
(g70
g51
NtRp3643
(dp3644
g54
(dp3645
sg63
g3630
sg56
(lp3646
g49
(g50
g51
NtRp3647
(dp3648
g54
(dp3649
g62
I5
ssg63
g3643
sg56
(lp3650
g49
(g58
g51
NtRp3651
(dp3652
g54
(dp3653
g62
I4
ssg63
Nsg56
(lp3654
sbasbasbasbag49
(g65
g51
NtRp3655
(dp3656
g54
(dp3657
sg63
g3097
sg56
(lp3658
g49
(g70
g51
NtRp3659
(dp3660
g54
(dp3661
g74
g75
ssg63
g3655
sg56
(lp3662
S'session_filename'
p3663
asbag49
(g70
g51
NtRp3664
(dp3665
g54
(dp3666
g81
g82
ssg63
g3655
sg56
(lp3667
S':'
asbag49
(g70
g51
NtRp3668
(dp3669
g54
(dp3670
sg63
g3655
sg56
(lp3671
g49
(g50
g51
NtRp3672
(dp3673
g54
(dp3674
g62
I5
ssg63
g3668
sg56
(lp3675
S'/Users/udimilo/Documents/web2py/applications/udi0312/sessions/127.0.0.1-0d5145a1-b85d-4d35-a303-b279d827befd'
p3676
asbasbasbag49
(g65
g51
NtRp3677
(dp3678
g54
(dp3679
sg63
g3097
sg56
(lp3680
g49
(g70
g51
NtRp3681
(dp3682
g54
(dp3683
g74
g75
ssg63
g3677
sg56
(lp3684
S'session_id'
p3685
asbag49
(g70
g51
NtRp3686
(dp3687
g54
(dp3688
g81
g82
ssg63
g3677
sg56
(lp3689
S':'
asbag49
(g70
g51
NtRp3690
(dp3691
g54
(dp3692
sg63
g3677
sg56
(lp3693
g49
(g50
g51
NtRp3694
(dp3695
g54
(dp3696
g62
I5
ssg63
g3690
sg56
(lp3697
S'127.0.0.1-0d5145a1-b85d-4d35-a303-b279d827befd'
p3698
asbasbasbag49
(g65
g51
NtRp3699
(dp3700
g54
(dp3701
sg63
g3097
sg56
(lp3702
g49
(g70
g51
NtRp3703
(dp3704
g54
(dp3705
g74
g75
ssg63
g3699
sg56
(lp3706
S'session_id_name'
p3707
asbag49
(g70
g51
NtRp3708
(dp3709
g54
(dp3710
g81
g82
ssg63
g3699
sg56
(lp3711
S':'
asbag49
(g70
g51
NtRp3712
(dp3713
g54
(dp3714
sg63
g3699
sg56
(lp3715
g49
(g50
g51
NtRp3716
(dp3717
g54
(dp3718
g62
I5
ssg63
g3712
sg56
(lp3719
g3154
asbasbasbag49
(g65
g51
NtRp3720
(dp3721
g54
(dp3722
sg63
g3097
sg56
(lp3723
g49
(g70
g51
NtRp3724
(dp3725
g54
(dp3726
g74
g75
ssg63
g3720
sg56
(lp3727
S'session_new'
p3728
asbag49
(g70
g51
NtRp3729
(dp3730
g54
(dp3731
g81
g82
ssg63
g3720
sg56
(lp3732
S':'
asbag49
(g70
g51
NtRp3733
(dp3734
g54
(dp3735
sg63
g3720
sg56
(lp3736
g49
(g50
g51
NtRp3737
(dp3738
g54
(dp3739
g62
I5
ssg63
g3733
sg56
(lp3740
g1524
asbasbasbag49
(g65
g51
NtRp3741
(dp3742
g54
(dp3743
sg63
g3097
sg56
(lp3744
g49
(g70
g51
NtRp3745
(dp3746
g54
(dp3747
g74
g75
ssg63
g3741
sg56
(lp3748
S'status'
p3749
asbag49
(g70
g51
NtRp3750
(dp3751
g54
(dp3752
g81
g82
ssg63
g3741
sg56
(lp3753
S':'
asbag49
(g70
g51
NtRp3754
(dp3755
g54
(dp3756
sg63
g3741
sg56
(lp3757
g49
(g50
g51
NtRp3758
(dp3759
g54
(dp3760
g62
I5
ssg63
g3754
sg56
(lp3761
S'200'
p3762
asbasbasbag49
(g65
g51
NtRp3763
(dp3764
g54
(dp3765
sg63
g3097
sg56
(lp3766
g49
(g70
g51
NtRp3767
(dp3768
g54
(dp3769
g74
g75
ssg63
g3763
sg56
(lp3770
g2188
asbag49
(g70
g51
NtRp3771
(dp3772
g54
(dp3773
g81
g82
ssg63
g3763
sg56
(lp3774
S':'
asbag49
(g70
g51
NtRp3775
(dp3776
g54
(dp3777
sg63
g3763
sg56
(lp3778
g49
(g50
g51
NtRp3779
(dp3780
g54
(dp3781
g62
I5
ssg63
g3775
sg56
(lp3782
g2201
asbasbasbag49
(g65
g51
NtRp3783
(dp3784
g54
(dp3785
sg63
g3097
sg56
(lp3786
g49
(g70
g51
NtRp3787
(dp3788
g54
(dp3789
g74
g75
ssg63
g3783
sg56
(lp3790
S'view'
p3791
asbag49
(g70
g51
NtRp3792
(dp3793
g54
(dp3794
g81
g82
ssg63
g3783
sg56
(lp3795
S':'
asbag49
(g70
g51
NtRp3796
(dp3797
g54
(dp3798
sg63
g3783
sg56
(lp3799
g49
(g50
g51
NtRp3800
(dp3801
g54
(dp3802
g62
I5
ssg63
g3796
sg56
(lp3803
S'default/user.html'
p3804
asbasbasbasbasbsS'locals'
p3805
(dp3806
S'fromlist'
p3807
S"('urlfetch',)"
p3808
sS'name'
p3809
S"'google.appengine.api'"
p3810
sg62
S'-1'
p3811
sS'self'
p3812
S'<gluon.custom_import._Web2pyImporter object at 0x240cd70>'
p3813
sS'globals'
p3814
S"{'ConnectionError': <class 'applications.udi0312.modules.linkedin.ConnectionError'>, 'Education': <class applications.udi0312.modules.model.Education at 0xa029ae0>, 'HTMLParser': <class HTMLParser.HTMLParser at 0x11f2c30>, 'LinkedIn': <class 'applications.udi0312.modules.linkedin.LinkedIn'>, 'LinkedInModel': <class applications.udi0312.modules.model.LinkedInModel at 0xa03e810>, 'OAuthError': <class 'applications.udi0312.modules.linkedin.OAuthError'>, 'Position': <class applications.udi0312.modules.model.Position at 0x8df8150>, 'Profile': <class applications.udi0312.modules.model.Profile at 0x8df83c0>, 'Stripper': <class applications.udi0312.modules.linkedin.Stripper at 0x8e08c90>, 'XMLBuilder': <class 'applications.udi0312.modules.linkedin.XMLBuilder'>, ...}"
p3815
sg3805
g39
sssS'traceback'
p3816
S'Traceback (most recent call last):\n  File "/users/udimilo/Documents/web2py/gluon/restricted.py", line 205, in restricted\n    exec ccode in environment\n  File "/Users/udimilo/Documents/web2py/applications/udi0312/models/db.py", line 71, in <module>\n    \'http://127.0.0.1:8000\')\n  File "applications/udi0312/modules/linkedinAccount.py", line 33, in __init__\n    self.token = result = self.api.request_token()\n  File "applications/udi0312/modules/linkedin.py", line 158, in request_token\n    response = self._https_connection(method, relative_url, query_dict)\n  File "applications/udi0312/modules/linkedin.py", line 792, in _https_connection\n    return self._https_connection_gae(method, relative_url, query_dict, body)\n  File "applications/udi0312/modules/linkedin.py", line 814, in _https_connection_gae\n    from google.appengine.api import urlfetch\n  File "/users/udimilo/Documents/web2py/gluon/custom_import.py", line 293, in __call__\n    fromlist, level)\n  File "/users/udimilo/Documents/web2py/gluon/custom_import.py", line 78, in __call__\n    level)\nImportError: No module named google.appengine.api\n'
p3817
s.