(dp1
S'output'
p2
S"<type 'exceptions.TypeError'> 'set' object is unsubscriptable"
p3
sS'layer'
p4
S'/Users/udimilo/Documents/web2py/applications/udi0312/views/default/index.html'
p5
sS'code'
p6
S'response.write(\'<html lan="en">\\n<head>\\n    <title>\', escape=False)\nresponse.write(response.title or request.application)\nresponse.write(\'</title>\\n    <meta name="viewport" content="width=device-width, initial-scale=1.0, user-scalable=yes">\\n    <meta name="description" content="\', escape=False)\nresponse.write(response.meta.description)\nresponse.write(\'" />\\n    <meta name="author" content="\', escape=False)\nresponse.write(response.meta.author)\nresponse.write(\'" />        \\n\\n    <script type="text/javascript" src="http://ajax.googleapis.com/ajax/libs/jquery/1.7.1/jquery.min.js"></script>\\n    <script type="text/javascript" src="/udi0312/static/js/jquery.wookmark.js"></script>\\n    <script type="text/javascript" src="http://easydate.parshap.com/files/jquery.easydate-0.2.4.min.js"></script>\\n    <script type="text/javascript" src="/udi0312/static/js/web2py.js"></script>\\n    <script type="text/javascript" src="http://jacklmoore.com/colorbox/colorbox/jquery.colorbox.js"></script>   \\n    <link href=\\\'http://fonts.googleapis.com/css?family=PT+Sans\\\' rel=\\\'stylesheet\\\' type=\\\'text/css\\\'>\\n    <link href=\\\'/udi0312/static/css/site.css\\\' rel=\\\'stylesheet\\\' type=\\\'text/css\\\'>\\n</head>\\n<body>\\n    <div id="header">\\n        <div id="search">\\n            <input type="text" id="query" size="27" value="Search">\\n            <a id="query_button" href="#" class="lg"><img src="http://passets-cdn.pinterest.com/images/search.gif" alt=""></a>\\n        </div>\\n        <img id="ajax_loader" src="/udi0312/static/images/ajax_loader.gif" />\\n        <a id="logo" href="/">\\n            <img src="http://press.linkedin.com/sites/all/themes/presslinkedin/images/LinkedIn_IN_Icon_25px.png"/>\\n            <span>formation</span>\\n        </a>\\n        <ul id="navigation">\\n            <li>\', escape=False)\nresponse.write(\'auth\' in globals() and auth.navbar(separators=(\' \',\' | \',\'\')))\nresponse.write(\'</li>\\n        </ul>\\n    </div>\\n    <div id="msg">\\n        <span></span>\\n    </div>\\n    <!-- hidden colorbox elements -->\\n    <div style="display:none;">\\n        <div id="showItem">\\n            <div id="showItemContent" class="clearfix"></div>\\n        </div>\\n        \', escape=False)\nif auth.user:\n    response.write(\'\\n        <div id="repin">\\n            <form onsubmit="ajax_with_msg(\\\'\', escape=False)\n    response.write(URL(\'api\', \'add_repin\'))\n    response.write(\'\\\', [\\\'id\\\',\\\'repin_board\\\']);return false;">\\n                <h1>Repin</h1>\\n                <div class="pin">\\n                    <h2 class="title"></h2> \\n                    <select name="repin_board">\\n                    \', escape=False)\n    for board in boards:\n        response.write(\'\\n                        <option value="\', escape=False)\n        response.write(board.id)\n        response.write(\'">\', escape=False)\n        response.write(board.name)\n        response.write(\'</option>\\n                    \', escape=False)\n        pass\n    response.write(\'\\n                    </select>\\n                    <input type="hidden" name="id"/>\\n                    <input type="submit" />\\n                </div>\\n            </form>\\n        </div>\\n        \', escape=False)\n    pass\nresponse.write(\'\\n    </div>\\n\', escape=False)\nresponse.write(\'\\n\', escape=False)\nresponse.write(\'\\n\', escape=False)\nresponse.write(\'\\n\', escape=False)\nresponse.write(\'\\n<div id="addBar">\\n    <div class="picker">\\n        <a href="#">switch page and board</a>\\n    </div>\\n    <div class="add" id="addPage">\\n        <form onsubmit="ajax_with_msg(\\\'\', escape=False)\nresponse.write(URL(\'api\', \'add_article\'))\nresponse.write(\'\\\', [\\\'url\\\',\\\'board\\\']);return false;">\\n            <ul>\\n                <li><span>URL</span><input name="url" /></li>\\n                <li>\\n                    <select name="board">\\n                    \', escape=False)\nfor board in boards:\n    response.write(\'\\n                        <option value="\', escape=False)\n    response.write(board.id)\n    response.write(\'">\', escape=False)\n    response.write(board.name)\n    response.write(\'</option>\\n                    \', escape=False)\n    pass\nresponse.write(\'                                    \\n                    </select>        \\n                </li>\\n                <li><input type="submit" /></li>\\n            </ul>\\n        </form>\\n    </div>\\n    <div class="add" id="addBoard" style="display:none;">\\n        <form onsubmit="ajax_with_msg(\\\'\', escape=False)\nresponse.write(URL(\'api\', \'add_board\'))\nresponse.write(\'\\\', [\\\'name\\\',\\\'category\\\']);return false;">\\n            <ul>\\n                <li><span>Board</span><input name="name" /></li>\\n                <li>\\n                    <select name="category">\\n                    \', escape=False)\nfor cat in categories:\n    response.write(\'\\n                        <option value="\', escape=False)\n    response.write(cat.id)\n    response.write(\'">\', escape=False)\n    response.write(cat.name)\n    response.write(\'</option>\\n                    \', escape=False)\n    pass\nresponse.write(\'                \\n                    </select>        \\n                </li>\\n                <li><input type="submit" /></li>\\n            </ul>\\n        </form>\\n    </div>\\n    <div id="addBarMsg"></div>\\n</div>\\n<div id="categoriesBar" class="topMenu">\\n    <ul id="categoriesNav">\\n        <li><b>Info you follow</b></li>\\n        <li><a href="\', escape=False)\nresponse.write(URL(\'default\',\'all\'))\nresponse.write(\'">Everything</a></li>\\n        <li><a>Popular</a></li>\\n        <li><a>Recommended</a></li>\\n        <li><a href="#" id="addButton">Add +</a></li>\\n    </ul>\\n</div>\\n\', escape=False)\nresponse.write(\'\\n\', escape=False)\nresponse.write(\'\\n<div id="wrapper">\\n    <ul id="example">\\n        \', escape=False)\nfor pin in sorted(result[\'pins\'].values(), key=lambda p: p.created_on, reverse=True):\n    response.write(\'\\n            <li style="height:350px">\\n                <div class="itemWrapper">\\n                    <div class="actions">\\n                        <a href="#" class="whiteButton repinButton" id="\', escape=False)\n    response.write(pin.id)\n    response.write(\'" title="\', escape=False)\n    response.write(result[\'articles\'][pin.article].title)\n    response.write(\'"><em></em><strong>Repin</strong></a>\\n                        <a href="#" class="whiteButton likeButton"><em></em><strong>Like</strong></a>\\n                        <a href="#" class="whiteButton commentButton"><em></em><strong>Comment</strong></a>\\n                    </div>\\n                    <div class="content">\\n                        \', escape=False)\n    if show_pinner:\n        response.write(\'\\n                        <div class="pinner">\\n                            <a href="\', escape=False)\n        response.write(URL(\'users\', args=[result[\'boards\'][pin.board].user]))\n        response.write(\'">\', escape=False)\n        response.write(result[\'users\'][result[\'boards\'][pin.board].user].first_name)\n        response.write(\' \', escape=False)\n        response.write(result[\'users\'][result[\'boards\'][pin.board].user].last_name)\n        response.write(\'</a>\\n                            \', escape=False)\n        if pin.original_pin:\n            response.write(\'\\n                                via <a href="\', escape=False)\n            response.write(URL(\'users\', args=[result[\'boards\'][result[\'pins\'][pin.original_pin].board].user]))\n            response.write(\'">\', escape=False)\n            response.write(result[\'users\'][result[\'boards\'][result[\'pins\'][pin.original_pin].board].user].first_name)\n            response.write(\' \', escape=False)\n            response.write(result[\'users\'][result[\'boards\'][result[\'pins\'][pin.original_pin].board].user].last_name)\n            response.write(\'</a>\\n                            \', escape=False)\n            pass\n        response.write(\'\\n                            onto <a href="\', escape=False)\n        response.write(URL(\'boards\', args=[pin.board]))\n        response.write(\'">\', escape=False)\n        response.write(result[\'boards\'][pin.board].name)\n        response.write(\'</a>\\n                        </div>\\n                        \', escape=False)\n        pass\n    response.write(\'\\n                        <div class="inner">\\n                            <h1>\', escape=False)\n    response.write(result[\'articles\'][pin.article].title)\n    response.write(\'</h1>\\n                            <h2 class="subTitle">\\n                                <a href="#">\\n                                    <img src="http://www.google.com/s2/u/0/favicons?domain=\', escape=False)\n    response.write(result[\'articles\'][pin.article].domain)\n    response.write(\'"/>\\n                                    <span>\', escape=False)\n    response.write(result[\'articles\'][pin.article].domain)\n    response.write(\'<span>\\n                                </a>\\n                                <label class="time easydate">\', escape=False)\n    response.write(result[\'articles\'][pin.article].created_on)\n    response.write(\'</label>\\n                            </h2>\\n                            <article class="blob">\\n                                \', escape=False)\n    response.write(XML(result[\'articles\'][pin.article].content, sanitize=True))\n    response.write(\'\\n                            </article>\\n                        </div>\\n                    </div>\\n                </div>\\n            </li>                        \\n        \', escape=False)\n    pass\nresponse.write(\'\\n    </ul>\\n</div>\\n\', escape=False)\nresponse.write(\'\\n\', escape=False)\nresponse.write(\'\\n    <script type="text/javascript" src="/udi0312/static/js/site.js"></script>\\n</body>\\n</html>\\n\', escape=False)'
p7
sS'snapshot'
p8
(dp9
S'exception'
p10
(dp11
S'__hash__'
p12
S"<method-wrapper '__hash__' of exceptions.TypeError object at 0x9f79760>"
p13
sS'__setattr__'
p14
S"<method-wrapper '__setattr__' of exceptions.TypeError object at 0x9f79760>"
p15
sS'__reduce_ex__'
p16
S'<built-in method __reduce_ex__ of exceptions.TypeError object at 0x9f79760>'
p17
sS'__getslice__'
p18
S"<method-wrapper '__getslice__' of exceptions.TypeError object at 0x9f79760>"
p19
sS'__getitem__'
p20
S"<method-wrapper '__getitem__' of exceptions.TypeError object at 0x9f79760>"
p21
sS'__setstate__'
p22
S'<built-in method __setstate__ of exceptions.TypeError object at 0x9f79760>'
p23
sS'__reduce__'
p24
S'<built-in method __reduce__ of exceptions.TypeError object at 0x9f79760>'
p25
sS'__str__'
p26
S"<method-wrapper '__str__' of exceptions.TypeError object at 0x9f79760>"
p27
sS'args'
p28
S'("\'set\' object is unsubscriptable",)'
p29
sS'__getattribute__'
p30
S"<method-wrapper '__getattribute__' of exceptions.TypeError object at 0x9f79760>"
p31
sS'__class__'
p32
S"<type 'exceptions.TypeError'>"
p33
sS'__delattr__'
p34
S"<method-wrapper '__delattr__' of exceptions.TypeError object at 0x9f79760>"
p35
sS'__repr__'
p36
S"<method-wrapper '__repr__' of exceptions.TypeError object at 0x9f79760>"
p37
sS'__dict__'
p38
S'{}'
p39
sS'__doc__'
p40
S"'Inappropriate argument type.'"
p41
sS'__init__'
p42
S"<method-wrapper '__init__' of exceptions.TypeError object at 0x9f79760>"
p43
sS'__new__'
p44
S'<built-in method __new__ of type object at 0x101140>'
p45
ssS'evalue'
p46
S"'set' object is unsubscriptable"
p47
sS'request'
p48
ccopy_reg
_reconstructor
p49
(cgluon.html
BEAUTIFY
p50
c__builtin__
object
p51
NtRp52
(dp53
S'attributes'
p54
(dp55
sS'components'
p56
(lp57
g49
(cgluon.html
TABLE
p58
g51
NtRp59
(dp60
g54
(dp61
S'level'
p62
I5
ssS'parent'
p63
Nsg56
(lp64
g49
(cgluon.html
TR
p65
g51
NtRp66
(dp67
g54
(dp68
sg63
g59
sg56
(lp69
g49
(cgluon.html
TD
p70
g51
NtRp71
(dp72
g54
(dp73
S'_style'
p74
S'font-weight:bold;vertical-align:top'
p75
ssg63
g66
sg56
(lp76
S'ajax'
p77
asbag49
(g70
g51
NtRp78
(dp79
g54
(dp80
S'_valign'
p81
S'top'
p82
ssg63
g66
sg56
(lp83
S':'
asbag49
(g70
g51
NtRp84
(dp85
g54
(dp86
sg63
g66
sg56
(lp87
g49
(g50
g51
NtRp88
(dp89
g54
(dp90
g62
I5
ssg63
g84
sg56
(lp91
S'False'
p92
asbasbasbag49
(g65
g51
NtRp93
(dp94
g54
(dp95
sg63
g59
sg56
(lp96
g49
(g70
g51
NtRp97
(dp98
g54
(dp99
g74
g75
ssg63
g93
sg56
(lp100
S'application'
p101
asbag49
(g70
g51
NtRp102
(dp103
g54
(dp104
g81
g82
ssg63
g93
sg56
(lp105
S':'
asbag49
(g70
g51
NtRp106
(dp107
g54
(dp108
sg63
g93
sg56
(lp109
g49
(g50
g51
NtRp110
(dp111
g54
(dp112
g62
I5
ssg63
g106
sg56
(lp113
S'udi0312'
p114
asbasbasbag49
(g65
g51
NtRp115
(dp116
g54
(dp117
sg63
g59
sg56
(lp118
g49
(g70
g51
NtRp119
(dp120
g54
(dp121
g74
g75
ssg63
g115
sg56
(lp122
g28
asbag49
(g70
g51
NtRp123
(dp124
g54
(dp125
g81
g82
ssg63
g115
sg56
(lp126
S':'
asbag49
(g70
g51
NtRp127
(dp128
g54
(dp129
sg63
g115
sg56
(lp130
g49
(g50
g51
NtRp131
(dp132
g54
(dp133
g62
I5
ssg63
g127
sg56
(lp134
g49
(g58
g51
NtRp135
(dp136
g54
(dp137
g62
I4
ssg63
Nsg56
(lp138
sbasbasbasbag49
(g65
g51
NtRp139
(dp140
g54
(dp141
sg63
g59
sg56
(lp142
g49
(g70
g51
NtRp143
(dp144
g54
(dp145
g74
g75
ssg63
g139
sg56
(lp146
S'body'
p147
asbag49
(g70
g51
NtRp148
(dp149
g54
(dp150
g81
g82
ssg63
g139
sg56
(lp151
S':'
asbag49
(g70
g51
NtRp152
(dp153
g54
(dp154
sg63
g139
sg56
(lp155
g49
(g50
g51
NtRp156
(dp157
g54
(dp158
g62
I5
ssg63
g152
sg56
(lp159
S'<cStringIO.StringO object at 0xa72a140>'
p160
asbasbasbag49
(g65
g51
NtRp161
(dp162
g54
(dp163
sg63
g59
sg56
(lp164
g49
(g70
g51
NtRp165
(dp166
g54
(dp167
g74
g75
ssg63
g161
sg56
(lp168
S'client'
p169
asbag49
(g70
g51
NtRp170
(dp171
g54
(dp172
g81
g82
ssg63
g161
sg56
(lp173
S':'
asbag49
(g70
g51
NtRp174
(dp175
g54
(dp176
sg63
g161
sg56
(lp177
g49
(g50
g51
NtRp178
(dp179
g54
(dp180
g62
I5
ssg63
g174
sg56
(lp181
S'127.0.0.1'
p182
asbasbasbag49
(g65
g51
NtRp183
(dp184
g54
(dp185
sg63
g59
sg56
(lp186
g49
(g70
g51
NtRp187
(dp188
g54
(dp189
g74
g75
ssg63
g183
sg56
(lp190
S'controller'
p191
asbag49
(g70
g51
NtRp192
(dp193
g54
(dp194
g81
g82
ssg63
g183
sg56
(lp195
S':'
asbag49
(g70
g51
NtRp196
(dp197
g54
(dp198
sg63
g183
sg56
(lp199
g49
(g50
g51
NtRp200
(dp201
g54
(dp202
g62
I5
ssg63
g196
sg56
(lp203
S'default'
p204
asbasbasbag49
(g65
g51
NtRp205
(dp206
g54
(dp207
sg63
g59
sg56
(lp208
g49
(g70
g51
NtRp209
(dp210
g54
(dp211
g74
g75
ssg63
g205
sg56
(lp212
S'cookies'
p213
asbag49
(g70
g51
NtRp214
(dp215
g54
(dp216
g81
g82
ssg63
g205
sg56
(lp217
S':'
asbag49
(g70
g51
NtRp218
(dp219
g54
(dp220
sg63
g205
sg56
(lp221
g49
(g50
g51
NtRp222
(dp223
g54
(dp224
g62
I5
ssg63
g218
sg56
(lp225
g49
(g58
g51
NtRp226
(dp227
g54
(dp228
g62
I4
ssg63
Nsg56
(lp229
g49
(g65
g51
NtRp230
(dp231
g54
(dp232
sg63
g226
sg56
(lp233
g49
(g70
g51
NtRp234
(dp235
g54
(dp236
g74
g75
ssg63
g230
sg56
(lp237
S'session_id_admin'
p238
asbag49
(g70
g51
NtRp239
(dp240
g54
(dp241
g81
g82
ssg63
g230
sg56
(lp242
S':'
asbag49
(g70
g51
NtRp243
(dp244
g54
(dp245
sg63
g230
sg56
(lp246
g49
(g50
g51
NtRp247
(dp248
g54
(dp249
g62
I4
ssg63
g243
sg56
(lp250
g49
(g58
g51
NtRp251
(dp252
g54
(dp253
g62
I3
ssg63
Nsg56
(lp254
g49
(g65
g51
NtRp255
(dp256
g54
(dp257
sg63
g251
sg56
(lp258
g49
(g70
g51
NtRp259
(dp260
g54
(dp261
g74
g75
ssg63
g255
sg56
(lp262
S'comment'
p263
asbag49
(g70
g51
NtRp264
(dp265
g54
(dp266
g81
g82
ssg63
g255
sg56
(lp267
S':'
asbag49
(g70
g51
NtRp268
(dp269
g54
(dp270
sg63
g255
sg56
(lp271
g49
(g50
g51
NtRp272
(dp273
g54
(dp274
g62
I3
ssg63
g268
sg56
(lp275
S''
asbasbasbag49
(g65
g51
NtRp276
(dp277
g54
(dp278
sg63
g251
sg56
(lp279
g49
(g70
g51
NtRp280
(dp281
g54
(dp282
g74
g75
ssg63
g276
sg56
(lp283
S'domain'
p284
asbag49
(g70
g51
NtRp285
(dp286
g54
(dp287
g81
g82
ssg63
g276
sg56
(lp288
S':'
asbag49
(g70
g51
NtRp289
(dp290
g54
(dp291
sg63
g276
sg56
(lp292
g49
(g50
g51
NtRp293
(dp294
g54
(dp295
g62
I3
ssg63
g289
sg56
(lp296
S''
asbasbasbag49
(g65
g51
NtRp297
(dp298
g54
(dp299
sg63
g251
sg56
(lp300
g49
(g70
g51
NtRp301
(dp302
g54
(dp303
g74
g75
ssg63
g297
sg56
(lp304
S'expires'
p305
asbag49
(g70
g51
NtRp306
(dp307
g54
(dp308
g81
g82
ssg63
g297
sg56
(lp309
S':'
asbag49
(g70
g51
NtRp310
(dp311
g54
(dp312
sg63
g297
sg56
(lp313
g49
(g50
g51
NtRp314
(dp315
g54
(dp316
g62
I3
ssg63
g310
sg56
(lp317
S''
asbasbasbag49
(g65
g51
NtRp318
(dp319
g54
(dp320
sg63
g251
sg56
(lp321
g49
(g70
g51
NtRp322
(dp323
g54
(dp324
g74
g75
ssg63
g318
sg56
(lp325
S'max-age'
p326
asbag49
(g70
g51
NtRp327
(dp328
g54
(dp329
g81
g82
ssg63
g318
sg56
(lp330
S':'
asbag49
(g70
g51
NtRp331
(dp332
g54
(dp333
sg63
g318
sg56
(lp334
g49
(g50
g51
NtRp335
(dp336
g54
(dp337
g62
I3
ssg63
g331
sg56
(lp338
S''
asbasbasbag49
(g65
g51
NtRp339
(dp340
g54
(dp341
sg63
g251
sg56
(lp342
g49
(g70
g51
NtRp343
(dp344
g54
(dp345
g74
g75
ssg63
g339
sg56
(lp346
S'path'
p347
asbag49
(g70
g51
NtRp348
(dp349
g54
(dp350
g81
g82
ssg63
g339
sg56
(lp351
S':'
asbag49
(g70
g51
NtRp352
(dp353
g54
(dp354
sg63
g339
sg56
(lp355
g49
(g50
g51
NtRp356
(dp357
g54
(dp358
g62
I3
ssg63
g352
sg56
(lp359
S''
asbasbasbag49
(g65
g51
NtRp360
(dp361
g54
(dp362
sg63
g251
sg56
(lp363
g49
(g70
g51
NtRp364
(dp365
g54
(dp366
g74
g75
ssg63
g360
sg56
(lp367
S'secure'
p368
asbag49
(g70
g51
NtRp369
(dp370
g54
(dp371
g81
g82
ssg63
g360
sg56
(lp372
S':'
asbag49
(g70
g51
NtRp373
(dp374
g54
(dp375
sg63
g360
sg56
(lp376
g49
(g50
g51
NtRp377
(dp378
g54
(dp379
g62
I3
ssg63
g373
sg56
(lp380
S''
asbasbasbag49
(g65
g51
NtRp381
(dp382
g54
(dp383
sg63
g251
sg56
(lp384
g49
(g70
g51
NtRp385
(dp386
g54
(dp387
g74
g75
ssg63
g381
sg56
(lp388
S'version'
p389
asbag49
(g70
g51
NtRp390
(dp391
g54
(dp392
g81
g82
ssg63
g381
sg56
(lp393
S':'
asbag49
(g70
g51
NtRp394
(dp395
g54
(dp396
sg63
g381
sg56
(lp397
g49
(g50
g51
NtRp398
(dp399
g54
(dp400
g62
I3
ssg63
g394
sg56
(lp401
S''
asbasbasbasbasbasbasbag49
(g65
g51
NtRp402
(dp403
g54
(dp404
sg63
g226
sg56
(lp405
g49
(g70
g51
NtRp406
(dp407
g54
(dp408
g74
g75
ssg63
g402
sg56
(lp409
S'session_id_udi0312'
p410
asbag49
(g70
g51
NtRp411
(dp412
g54
(dp413
g81
g82
ssg63
g402
sg56
(lp414
S':'
asbag49
(g70
g51
NtRp415
(dp416
g54
(dp417
sg63
g402
sg56
(lp418
g49
(g50
g51
NtRp419
(dp420
g54
(dp421
g62
I4
ssg63
g415
sg56
(lp422
g49
(g58
g51
NtRp423
(dp424
g54
(dp425
g62
I3
ssg63
Nsg56
(lp426
g49
(g65
g51
NtRp427
(dp428
g54
(dp429
sg63
g423
sg56
(lp430
g49
(g70
g51
NtRp431
(dp432
g54
(dp433
g74
g75
ssg63
g427
sg56
(lp434
g263
asbag49
(g70
g51
NtRp435
(dp436
g54
(dp437
g81
g82
ssg63
g427
sg56
(lp438
S':'
asbag49
(g70
g51
NtRp439
(dp440
g54
(dp441
sg63
g427
sg56
(lp442
g49
(g50
g51
NtRp443
(dp444
g54
(dp445
g62
I3
ssg63
g439
sg56
(lp446
S''
asbasbasbag49
(g65
g51
NtRp447
(dp448
g54
(dp449
sg63
g423
sg56
(lp450
g49
(g70
g51
NtRp451
(dp452
g54
(dp453
g74
g75
ssg63
g447
sg56
(lp454
g284
asbag49
(g70
g51
NtRp455
(dp456
g54
(dp457
g81
g82
ssg63
g447
sg56
(lp458
S':'
asbag49
(g70
g51
NtRp459
(dp460
g54
(dp461
sg63
g447
sg56
(lp462
g49
(g50
g51
NtRp463
(dp464
g54
(dp465
g62
I3
ssg63
g459
sg56
(lp466
S''
asbasbasbag49
(g65
g51
NtRp467
(dp468
g54
(dp469
sg63
g423
sg56
(lp470
g49
(g70
g51
NtRp471
(dp472
g54
(dp473
g74
g75
ssg63
g467
sg56
(lp474
g305
asbag49
(g70
g51
NtRp475
(dp476
g54
(dp477
g81
g82
ssg63
g467
sg56
(lp478
S':'
asbag49
(g70
g51
NtRp479
(dp480
g54
(dp481
sg63
g467
sg56
(lp482
g49
(g50
g51
NtRp483
(dp484
g54
(dp485
g62
I3
ssg63
g479
sg56
(lp486
S''
asbasbasbag49
(g65
g51
NtRp487
(dp488
g54
(dp489
sg63
g423
sg56
(lp490
g49
(g70
g51
NtRp491
(dp492
g54
(dp493
g74
g75
ssg63
g487
sg56
(lp494
g326
asbag49
(g70
g51
NtRp495
(dp496
g54
(dp497
g81
g82
ssg63
g487
sg56
(lp498
S':'
asbag49
(g70
g51
NtRp499
(dp500
g54
(dp501
sg63
g487
sg56
(lp502
g49
(g50
g51
NtRp503
(dp504
g54
(dp505
g62
I3
ssg63
g499
sg56
(lp506
S''
asbasbasbag49
(g65
g51
NtRp507
(dp508
g54
(dp509
sg63
g423
sg56
(lp510
g49
(g70
g51
NtRp511
(dp512
g54
(dp513
g74
g75
ssg63
g507
sg56
(lp514
g347
asbag49
(g70
g51
NtRp515
(dp516
g54
(dp517
g81
g82
ssg63
g507
sg56
(lp518
S':'
asbag49
(g70
g51
NtRp519
(dp520
g54
(dp521
sg63
g507
sg56
(lp522
g49
(g50
g51
NtRp523
(dp524
g54
(dp525
g62
I3
ssg63
g519
sg56
(lp526
S''
asbasbasbag49
(g65
g51
NtRp527
(dp528
g54
(dp529
sg63
g423
sg56
(lp530
g49
(g70
g51
NtRp531
(dp532
g54
(dp533
g74
g75
ssg63
g527
sg56
(lp534
g368
asbag49
(g70
g51
NtRp535
(dp536
g54
(dp537
g81
g82
ssg63
g527
sg56
(lp538
S':'
asbag49
(g70
g51
NtRp539
(dp540
g54
(dp541
sg63
g527
sg56
(lp542
g49
(g50
g51
NtRp543
(dp544
g54
(dp545
g62
I3
ssg63
g539
sg56
(lp546
S''
asbasbasbag49
(g65
g51
NtRp547
(dp548
g54
(dp549
sg63
g423
sg56
(lp550
g49
(g70
g51
NtRp551
(dp552
g54
(dp553
g74
g75
ssg63
g547
sg56
(lp554
g389
asbag49
(g70
g51
NtRp555
(dp556
g54
(dp557
g81
g82
ssg63
g547
sg56
(lp558
S':'
asbag49
(g70
g51
NtRp559
(dp560
g54
(dp561
sg63
g547
sg56
(lp562
g49
(g50
g51
NtRp563
(dp564
g54
(dp565
g62
I3
ssg63
g559
sg56
(lp566
S''
asbasbasbasbasbasbasbasbasbasbasbag49
(g65
g51
NtRp567
(dp568
g54
(dp569
sg63
g59
sg56
(lp570
g49
(g70
g51
NtRp571
(dp572
g54
(dp573
g74
g75
ssg63
g567
sg56
(lp574
S'env'
p575
asbag49
(g70
g51
NtRp576
(dp577
g54
(dp578
g81
g82
ssg63
g567
sg56
(lp579
S':'
asbag49
(g70
g51
NtRp580
(dp581
g54
(dp582
sg63
g567
sg56
(lp583
g49
(g50
g51
NtRp584
(dp585
g54
(dp586
g62
I5
ssg63
g580
sg56
(lp587
g49
(g58
g51
NtRp588
(dp589
g54
(dp590
g62
I4
ssg63
Nsg56
(lp591
g49
(g65
g51
NtRp592
(dp593
g54
(dp594
sg63
g588
sg56
(lp595
g49
(g70
g51
NtRp596
(dp597
g54
(dp598
g74
g75
ssg63
g592
sg56
(lp599
S'app_folders'
p600
asbag49
(g70
g51
NtRp601
(dp602
g54
(dp603
g81
g82
ssg63
g592
sg56
(lp604
S':'
asbag49
(g70
g51
NtRp605
(dp606
g54
(dp607
sg63
g592
sg56
(lp608
g49
(g50
g51
NtRp609
(dp610
g54
(dp611
g62
I4
ssg63
g605
sg56
(lp612
S"set(['/Users/udimilo/Documents/web2py/applications/udi0312/', '/Users/udimilo/Documents/web2py/applications/admin/'])"
p613
asbasbasbag49
(g65
g51
NtRp614
(dp615
g54
(dp616
sg63
g588
sg56
(lp617
g49
(g70
g51
NtRp618
(dp619
g54
(dp620
g74
g75
ssg63
g614
sg56
(lp621
S'applications_parent'
p622
asbag49
(g70
g51
NtRp623
(dp624
g54
(dp625
g81
g82
ssg63
g614
sg56
(lp626
S':'
asbag49
(g70
g51
NtRp627
(dp628
g54
(dp629
sg63
g614
sg56
(lp630
g49
(g50
g51
NtRp631
(dp632
g54
(dp633
g62
I4
ssg63
g627
sg56
(lp634
S'/Users/udimilo/Documents/web2py'
p635
asbasbasbag49
(g65
g51
NtRp636
(dp637
g54
(dp638
sg63
g588
sg56
(lp639
g49
(g70
g51
NtRp640
(dp641
g54
(dp642
g74
g75
ssg63
g636
sg56
(lp643
S'cmd_args'
p644
asbag49
(g70
g51
NtRp645
(dp646
g54
(dp647
g81
g82
ssg63
g636
sg56
(lp648
S':'
asbag49
(g70
g51
NtRp649
(dp650
g54
(dp651
sg63
g636
sg56
(lp652
g49
(g50
g51
NtRp653
(dp654
g54
(dp655
g62
I4
ssg63
g649
sg56
(lp656
g49
(g58
g51
NtRp657
(dp658
g54
(dp659
g62
I3
ssg63
Nsg56
(lp660
sbasbasbasbag49
(g65
g51
NtRp661
(dp662
g54
(dp663
sg63
g588
sg56
(lp664
g49
(g70
g51
NtRp665
(dp666
g54
(dp667
g74
g75
ssg63
g661
sg56
(lp668
S'cmd_options'
p669
asbag49
(g70
g51
NtRp670
(dp671
g54
(dp672
g81
g82
ssg63
g661
sg56
(lp673
S':'
asbag49
(g70
g51
NtRp674
(dp675
g54
(dp676
sg63
g661
sg56
(lp677
g49
(g50
g51
NtRp678
(dp679
g54
(dp680
g62
I4
ssg63
g674
sg56
(lp681
S"<Values at 0x22190a8: {'verbose': False, 'ip': '127.0.0.1', 'shutdown_timeout': 5, 'taskbar': False, 'nocron': False, 'pid_filename': 'httpserver.pid', 'maxthreads': None, 'softcron': False, 'server_name': 'Udi-Milos-MacBook-Pro.local', 'bpython': False, 'nogui': False, 'port': 8000, 'extcron': False, 'debuglevel': 30, 'test': None, 'folder': '/Users/udimilo/Documents/web2py', 'config': '', 'import_models': False, 'winservice': '', 'shell': None, 'run': '', 'log_filename': 'httpserver.log', 'args': [''], 'socket_timeout': 5, 'ssl_ca_certificate': None, 'scheduler': None, 'profiler_filename': None, 'ssl_private_key': '', 'password': '<ask>', 'request_queue_size': 5, 'ssl_certificate': '', 'cronjob': False, 'numthreads': None, 'quiet': False, 'interfaces': None, 'minthreads': None, 'timeout': 10, 'plain': False, 'nobanner': False}>"
p682
asbasbasbag49
(g65
g51
NtRp683
(dp684
g54
(dp685
sg63
g588
sg56
(lp686
g49
(g70
g51
NtRp687
(dp688
g54
(dp689
g74
g75
ssg63
g683
sg56
(lp690
S'db_sessions'
p691
asbag49
(g70
g51
NtRp692
(dp693
g54
(dp694
g81
g82
ssg63
g683
sg56
(lp695
S':'
asbag49
(g70
g51
NtRp696
(dp697
g54
(dp698
sg63
g683
sg56
(lp699
g49
(g50
g51
NtRp700
(dp701
g54
(dp702
g62
I4
ssg63
g696
sg56
(lp703
S'set([])'
p704
asbasbasbag49
(g65
g51
NtRp705
(dp706
g54
(dp707
sg63
g588
sg56
(lp708
g49
(g70
g51
NtRp709
(dp710
g54
(dp711
g74
g75
ssg63
g705
sg56
(lp712
S'debugging'
p713
asbag49
(g70
g51
NtRp714
(dp715
g54
(dp716
g81
g82
ssg63
g705
sg56
(lp717
S':'
asbag49
(g70
g51
NtRp718
(dp719
g54
(dp720
sg63
g705
sg56
(lp721
g49
(g50
g51
NtRp722
(dp723
g54
(dp724
g62
I4
ssg63
g718
sg56
(lp725
g92
asbasbasbag49
(g65
g51
NtRp726
(dp727
g54
(dp728
sg63
g588
sg56
(lp729
g49
(g70
g51
NtRp730
(dp731
g54
(dp732
g74
g75
ssg63
g726
sg56
(lp733
S'gluon_parent'
p734
asbag49
(g70
g51
NtRp735
(dp736
g54
(dp737
g81
g82
ssg63
g726
sg56
(lp738
S':'
asbag49
(g70
g51
NtRp739
(dp740
g54
(dp741
sg63
g726
sg56
(lp742
g49
(g50
g51
NtRp743
(dp744
g54
(dp745
g62
I4
ssg63
g739
sg56
(lp746
S'/Users/udimilo/Documents/web2py'
p747
asbasbasbag49
(g65
g51
NtRp748
(dp749
g54
(dp750
sg63
g588
sg56
(lp751
g49
(g70
g51
NtRp752
(dp753
g54
(dp754
g74
g75
ssg63
g748
sg56
(lp755
S'http_accept'
p756
asbag49
(g70
g51
NtRp757
(dp758
g54
(dp759
g81
g82
ssg63
g748
sg56
(lp760
S':'
asbag49
(g70
g51
NtRp761
(dp762
g54
(dp763
sg63
g748
sg56
(lp764
g49
(g50
g51
NtRp765
(dp766
g54
(dp767
g62
I4
ssg63
g761
sg56
(lp768
S'text/html,application/xhtml+xml,application/xml;q=0.9,*/*;q=0.8'
p769
asbasbasbag49
(g65
g51
NtRp770
(dp771
g54
(dp772
sg63
g588
sg56
(lp773
g49
(g70
g51
NtRp774
(dp775
g54
(dp776
g74
g75
ssg63
g770
sg56
(lp777
S'http_accept_charset'
p778
asbag49
(g70
g51
NtRp779
(dp780
g54
(dp781
g81
g82
ssg63
g770
sg56
(lp782
S':'
asbag49
(g70
g51
NtRp783
(dp784
g54
(dp785
sg63
g770
sg56
(lp786
g49
(g50
g51
NtRp787
(dp788
g54
(dp789
g62
I4
ssg63
g783
sg56
(lp790
S'ISO-8859-1,utf-8;q=0.7,*;q=0.3'
p791
asbasbasbag49
(g65
g51
NtRp792
(dp793
g54
(dp794
sg63
g588
sg56
(lp795
g49
(g70
g51
NtRp796
(dp797
g54
(dp798
g74
g75
ssg63
g792
sg56
(lp799
S'http_accept_encoding'
p800
asbag49
(g70
g51
NtRp801
(dp802
g54
(dp803
g81
g82
ssg63
g792
sg56
(lp804
S':'
asbag49
(g70
g51
NtRp805
(dp806
g54
(dp807
sg63
g792
sg56
(lp808
g49
(g50
g51
NtRp809
(dp810
g54
(dp811
g62
I4
ssg63
g805
sg56
(lp812
S'gzip,deflate,sdch'
p813
asbasbasbag49
(g65
g51
NtRp814
(dp815
g54
(dp816
sg63
g588
sg56
(lp817
g49
(g70
g51
NtRp818
(dp819
g54
(dp820
g74
g75
ssg63
g814
sg56
(lp821
S'http_accept_language'
p822
asbag49
(g70
g51
NtRp823
(dp824
g54
(dp825
g81
g82
ssg63
g814
sg56
(lp826
S':'
asbag49
(g70
g51
NtRp827
(dp828
g54
(dp829
sg63
g814
sg56
(lp830
g49
(g50
g51
NtRp831
(dp832
g54
(dp833
g62
I4
ssg63
g827
sg56
(lp834
S'en-US,en;q=0.8'
p835
asbasbasbag49
(g65
g51
NtRp836
(dp837
g54
(dp838
sg63
g588
sg56
(lp839
g49
(g70
g51
NtRp840
(dp841
g54
(dp842
g74
g75
ssg63
g836
sg56
(lp843
S'http_cache_control'
p844
asbag49
(g70
g51
NtRp845
(dp846
g54
(dp847
g81
g82
ssg63
g836
sg56
(lp848
S':'
asbag49
(g70
g51
NtRp849
(dp850
g54
(dp851
sg63
g836
sg56
(lp852
g49
(g50
g51
NtRp853
(dp854
g54
(dp855
g62
I4
ssg63
g849
sg56
(lp856
S'max-age=0'
p857
asbasbasbag49
(g65
g51
NtRp858
(dp859
g54
(dp860
sg63
g588
sg56
(lp861
g49
(g70
g51
NtRp862
(dp863
g54
(dp864
g74
g75
ssg63
g858
sg56
(lp865
S'http_connection'
p866
asbag49
(g70
g51
NtRp867
(dp868
g54
(dp869
g81
g82
ssg63
g858
sg56
(lp870
S':'
asbag49
(g70
g51
NtRp871
(dp872
g54
(dp873
sg63
g858
sg56
(lp874
g49
(g50
g51
NtRp875
(dp876
g54
(dp877
g62
I4
ssg63
g871
sg56
(lp878
S'keep-alive'
p879
asbasbasbag49
(g65
g51
NtRp880
(dp881
g54
(dp882
sg63
g588
sg56
(lp883
g49
(g70
g51
NtRp884
(dp885
g54
(dp886
g74
g75
ssg63
g880
sg56
(lp887
S'http_cookie'
p888
asbag49
(g70
g51
NtRp889
(dp890
g54
(dp891
g81
g82
ssg63
g880
sg56
(lp892
S':'
asbag49
(g70
g51
NtRp893
(dp894
g54
(dp895
sg63
g880
sg56
(lp896
g49
(g50
g51
NtRp897
(dp898
g54
(dp899
g62
I4
ssg63
g893
sg56
(lp900
S'session_id_udi0312=127.0.0.1-8a3bdcbc-10a2-4be7-917a-ea873784c1ca; session_id_admin=127.0.0.1-6a2a4c2b-3862-44a7-a1d2-f6704837771d'
p901
asbasbasbag49
(g65
g51
NtRp902
(dp903
g54
(dp904
sg63
g588
sg56
(lp905
g49
(g70
g51
NtRp906
(dp907
g54
(dp908
g74
g75
ssg63
g902
sg56
(lp909
S'http_host'
p910
asbag49
(g70
g51
NtRp911
(dp912
g54
(dp913
g81
g82
ssg63
g902
sg56
(lp914
S':'
asbag49
(g70
g51
NtRp915
(dp916
g54
(dp917
sg63
g902
sg56
(lp918
g49
(g50
g51
NtRp919
(dp920
g54
(dp921
g62
I4
ssg63
g915
sg56
(lp922
S'127.0.0.1:8000'
p923
asbasbasbag49
(g65
g51
NtRp924
(dp925
g54
(dp926
sg63
g588
sg56
(lp927
g49
(g70
g51
NtRp928
(dp929
g54
(dp930
g74
g75
ssg63
g924
sg56
(lp931
S'http_referer'
p932
asbag49
(g70
g51
NtRp933
(dp934
g54
(dp935
g81
g82
ssg63
g924
sg56
(lp936
S':'
asbag49
(g70
g51
NtRp937
(dp938
g54
(dp939
sg63
g924
sg56
(lp940
g49
(g50
g51
NtRp941
(dp942
g54
(dp943
g62
I4
ssg63
g937
sg56
(lp944
S'http://127.0.0.1:8000/user/login?_next=/'
p945
asbasbasbag49
(g65
g51
NtRp946
(dp947
g54
(dp948
sg63
g588
sg56
(lp949
g49
(g70
g51
NtRp950
(dp951
g54
(dp952
g74
g75
ssg63
g946
sg56
(lp953
S'http_user_agent'
p954
asbag49
(g70
g51
NtRp955
(dp956
g54
(dp957
g81
g82
ssg63
g946
sg56
(lp958
S':'
asbag49
(g70
g51
NtRp959
(dp960
g54
(dp961
sg63
g946
sg56
(lp962
g49
(g50
g51
NtRp963
(dp964
g54
(dp965
g62
I4
ssg63
g959
sg56
(lp966
S'Mozilla/5.0 (Macintosh; Intel Mac OS X 10_7_3) AppleWebKit/535.11 (KHTML, like Gecko) Chrome/17.0.963.79 Safari/535.11'
p967
asbasbasbag49
(g65
g51
NtRp968
(dp969
g54
(dp970
sg63
g588
sg56
(lp971
g49
(g70
g51
NtRp972
(dp973
g54
(dp974
g74
g75
ssg63
g968
sg56
(lp975
S'is_jython'
p976
asbag49
(g70
g51
NtRp977
(dp978
g54
(dp979
g81
g82
ssg63
g968
sg56
(lp980
S':'
asbag49
(g70
g51
NtRp981
(dp982
g54
(dp983
sg63
g968
sg56
(lp984
g49
(g50
g51
NtRp985
(dp986
g54
(dp987
g62
I4
ssg63
g981
sg56
(lp988
g92
asbasbasbag49
(g65
g51
NtRp989
(dp990
g54
(dp991
sg63
g588
sg56
(lp992
g49
(g70
g51
NtRp993
(dp994
g54
(dp995
g74
g75
ssg63
g989
sg56
(lp996
S'is_pypy'
p997
asbag49
(g70
g51
NtRp998
(dp999
g54
(dp1000
g81
g82
ssg63
g989
sg56
(lp1001
S':'
asbag49
(g70
g51
NtRp1002
(dp1003
g54
(dp1004
sg63
g989
sg56
(lp1005
g49
(g50
g51
NtRp1006
(dp1007
g54
(dp1008
g62
I4
ssg63
g1002
sg56
(lp1009
g92
asbasbasbag49
(g65
g51
NtRp1010
(dp1011
g54
(dp1012
sg63
g588
sg56
(lp1013
g49
(g70
g51
NtRp1014
(dp1015
g54
(dp1016
g74
g75
ssg63
g1010
sg56
(lp1017
S'path_info'
p1018
asbag49
(g70
g51
NtRp1019
(dp1020
g54
(dp1021
g81
g82
ssg63
g1010
sg56
(lp1022
S':'
asbag49
(g70
g51
NtRp1023
(dp1024
g54
(dp1025
sg63
g1010
sg56
(lp1026
g49
(g50
g51
NtRp1027
(dp1028
g54
(dp1029
g62
I4
ssg63
g1023
sg56
(lp1030
S'/'
asbasbasbag49
(g65
g51
NtRp1031
(dp1032
g54
(dp1033
sg63
g588
sg56
(lp1034
g49
(g70
g51
NtRp1035
(dp1036
g54
(dp1037
g74
g75
ssg63
g1031
sg56
(lp1038
S'query_string'
p1039
asbag49
(g70
g51
NtRp1040
(dp1041
g54
(dp1042
g81
g82
ssg63
g1031
sg56
(lp1043
S':'
asbag49
(g70
g51
NtRp1044
(dp1045
g54
(dp1046
sg63
g1031
sg56
(lp1047
g49
(g50
g51
NtRp1048
(dp1049
g54
(dp1050
g62
I4
ssg63
g1044
sg56
(lp1051
S''
asbasbasbag49
(g65
g51
NtRp1052
(dp1053
g54
(dp1054
sg63
g588
sg56
(lp1055
g49
(g70
g51
NtRp1056
(dp1057
g54
(dp1058
g74
g75
ssg63
g1052
sg56
(lp1059
S'remote_addr'
p1060
asbag49
(g70
g51
NtRp1061
(dp1062
g54
(dp1063
g81
g82
ssg63
g1052
sg56
(lp1064
S':'
asbag49
(g70
g51
NtRp1065
(dp1066
g54
(dp1067
sg63
g1052
sg56
(lp1068
g49
(g50
g51
NtRp1069
(dp1070
g54
(dp1071
g62
I4
ssg63
g1065
sg56
(lp1072
g182
asbasbasbag49
(g65
g51
NtRp1073
(dp1074
g54
(dp1075
sg63
g588
sg56
(lp1076
g49
(g70
g51
NtRp1077
(dp1078
g54
(dp1079
g74
g75
ssg63
g1073
sg56
(lp1080
S'remote_port'
p1081
asbag49
(g70
g51
NtRp1082
(dp1083
g54
(dp1084
g81
g82
ssg63
g1073
sg56
(lp1085
S':'
asbag49
(g70
g51
NtRp1086
(dp1087
g54
(dp1088
sg63
g1073
sg56
(lp1089
g49
(g50
g51
NtRp1090
(dp1091
g54
(dp1092
g62
I4
ssg63
g1086
sg56
(lp1093
S'50164'
p1094
asbasbasbag49
(g65
g51
NtRp1095
(dp1096
g54
(dp1097
sg63
g588
sg56
(lp1098
g49
(g70
g51
NtRp1099
(dp1100
g54
(dp1101
g74
g75
ssg63
g1095
sg56
(lp1102
S'request_method'
p1103
asbag49
(g70
g51
NtRp1104
(dp1105
g54
(dp1106
g81
g82
ssg63
g1095
sg56
(lp1107
S':'
asbag49
(g70
g51
NtRp1108
(dp1109
g54
(dp1110
sg63
g1095
sg56
(lp1111
g49
(g50
g51
NtRp1112
(dp1113
g54
(dp1114
g62
I4
ssg63
g1108
sg56
(lp1115
S'GET'
p1116
asbasbasbag49
(g65
g51
NtRp1117
(dp1118
g54
(dp1119
sg63
g588
sg56
(lp1120
g49
(g70
g51
NtRp1121
(dp1122
g54
(dp1123
g74
g75
ssg63
g1117
sg56
(lp1124
S'request_uri'
p1125
asbag49
(g70
g51
NtRp1126
(dp1127
g54
(dp1128
g81
g82
ssg63
g1117
sg56
(lp1129
S':'
asbag49
(g70
g51
NtRp1130
(dp1131
g54
(dp1132
sg63
g1117
sg56
(lp1133
g49
(g50
g51
NtRp1134
(dp1135
g54
(dp1136
g62
I4
ssg63
g1130
sg56
(lp1137
S'/udi0312/default/index'
p1138
asbasbasbag49
(g65
g51
NtRp1139
(dp1140
g54
(dp1141
sg63
g588
sg56
(lp1142
g49
(g70
g51
NtRp1143
(dp1144
g54
(dp1145
g74
g75
ssg63
g1139
sg56
(lp1146
S'script_name'
p1147
asbag49
(g70
g51
NtRp1148
(dp1149
g54
(dp1150
g81
g82
ssg63
g1139
sg56
(lp1151
S':'
asbag49
(g70
g51
NtRp1152
(dp1153
g54
(dp1154
sg63
g1139
sg56
(lp1155
g49
(g50
g51
NtRp1156
(dp1157
g54
(dp1158
g62
I4
ssg63
g1152
sg56
(lp1159
S''
asbasbasbag49
(g65
g51
NtRp1160
(dp1161
g54
(dp1162
sg63
g588
sg56
(lp1163
g49
(g70
g51
NtRp1164
(dp1165
g54
(dp1166
g74
g75
ssg63
g1160
sg56
(lp1167
S'server_name'
p1168
asbag49
(g70
g51
NtRp1169
(dp1170
g54
(dp1171
g81
g82
ssg63
g1160
sg56
(lp1172
S':'
asbag49
(g70
g51
NtRp1173
(dp1174
g54
(dp1175
sg63
g1160
sg56
(lp1176
g49
(g50
g51
NtRp1177
(dp1178
g54
(dp1179
g62
I4
ssg63
g1173
sg56
(lp1180
S'Udi-Milos-MacBook-Pro.local'
p1181
asbasbasbag49
(g65
g51
NtRp1182
(dp1183
g54
(dp1184
sg63
g588
sg56
(lp1185
g49
(g70
g51
NtRp1186
(dp1187
g54
(dp1188
g74
g75
ssg63
g1182
sg56
(lp1189
S'server_port'
p1190
asbag49
(g70
g51
NtRp1191
(dp1192
g54
(dp1193
g81
g82
ssg63
g1182
sg56
(lp1194
S':'
asbag49
(g70
g51
NtRp1195
(dp1196
g54
(dp1197
sg63
g1182
sg56
(lp1198
g49
(g50
g51
NtRp1199
(dp1200
g54
(dp1201
g62
I4
ssg63
g1195
sg56
(lp1202
S'8000'
p1203
asbasbasbag49
(g65
g51
NtRp1204
(dp1205
g54
(dp1206
sg63
g588
sg56
(lp1207
g49
(g70
g51
NtRp1208
(dp1209
g54
(dp1210
g74
g75
ssg63
g1204
sg56
(lp1211
S'server_protocol'
p1212
asbag49
(g70
g51
NtRp1213
(dp1214
g54
(dp1215
g81
g82
ssg63
g1204
sg56
(lp1216
S':'
asbag49
(g70
g51
NtRp1217
(dp1218
g54
(dp1219
sg63
g1204
sg56
(lp1220
g49
(g50
g51
NtRp1221
(dp1222
g54
(dp1223
g62
I4
ssg63
g1217
sg56
(lp1224
S'HTTP/1.1'
p1225
asbasbasbag49
(g65
g51
NtRp1226
(dp1227
g54
(dp1228
sg63
g588
sg56
(lp1229
g49
(g70
g51
NtRp1230
(dp1231
g54
(dp1232
g74
g75
ssg63
g1226
sg56
(lp1233
S'server_software'
p1234
asbag49
(g70
g51
NtRp1235
(dp1236
g54
(dp1237
g81
g82
ssg63
g1226
sg56
(lp1238
S':'
asbag49
(g70
g51
NtRp1239
(dp1240
g54
(dp1241
sg63
g1226
sg56
(lp1242
g49
(g50
g51
NtRp1243
(dp1244
g54
(dp1245
g62
I4
ssg63
g1239
sg56
(lp1246
S'Rocket 1.2.4'
p1247
asbasbasbag49
(g65
g51
NtRp1248
(dp1249
g54
(dp1250
sg63
g588
sg56
(lp1251
g49
(g70
g51
NtRp1252
(dp1253
g54
(dp1254
g74
g75
ssg63
g1248
sg56
(lp1255
S'web2py_crontype'
p1256
asbag49
(g70
g51
NtRp1257
(dp1258
g54
(dp1259
g81
g82
ssg63
g1248
sg56
(lp1260
S':'
asbag49
(g70
g51
NtRp1261
(dp1262
g54
(dp1263
sg63
g1248
sg56
(lp1264
g49
(g50
g51
NtRp1265
(dp1266
g54
(dp1267
g62
I4
ssg63
g1261
sg56
(lp1268
S'hard'
p1269
asbasbasbag49
(g65
g51
NtRp1270
(dp1271
g54
(dp1272
sg63
g588
sg56
(lp1273
g49
(g70
g51
NtRp1274
(dp1275
g54
(dp1276
g74
g75
ssg63
g1270
sg56
(lp1277
S'web2py_original_uri'
p1278
asbag49
(g70
g51
NtRp1279
(dp1280
g54
(dp1281
g81
g82
ssg63
g1270
sg56
(lp1282
S':'
asbag49
(g70
g51
NtRp1283
(dp1284
g54
(dp1285
sg63
g1270
sg56
(lp1286
g49
(g50
g51
NtRp1287
(dp1288
g54
(dp1289
g62
I4
ssg63
g1283
sg56
(lp1290
S'/'
asbasbasbag49
(g65
g51
NtRp1291
(dp1292
g54
(dp1293
sg63
g588
sg56
(lp1294
g49
(g70
g51
NtRp1295
(dp1296
g54
(dp1297
g74
g75
ssg63
g1291
sg56
(lp1298
S'web2py_path'
p1299
asbag49
(g70
g51
NtRp1300
(dp1301
g54
(dp1302
g81
g82
ssg63
g1291
sg56
(lp1303
S':'
asbag49
(g70
g51
NtRp1304
(dp1305
g54
(dp1306
sg63
g1291
sg56
(lp1307
g49
(g50
g51
NtRp1308
(dp1309
g54
(dp1310
g62
I4
ssg63
g1304
sg56
(lp1311
g635
asbasbasbag49
(g65
g51
NtRp1312
(dp1313
g54
(dp1314
sg63
g588
sg56
(lp1315
g49
(g70
g51
NtRp1316
(dp1317
g54
(dp1318
g74
g75
ssg63
g1312
sg56
(lp1319
S'web2py_version'
p1320
asbag49
(g70
g51
NtRp1321
(dp1322
g54
(dp1323
g81
g82
ssg63
g1312
sg56
(lp1324
S':'
asbag49
(g70
g51
NtRp1325
(dp1326
g54
(dp1327
sg63
g1312
sg56
(lp1328
g49
(g50
g51
NtRp1329
(dp1330
g54
(dp1331
g62
I4
ssg63
g1325
sg56
(lp1332
g49
(g58
g51
NtRp1333
(dp1334
g54
(dp1335
g62
I3
ssg63
Nsg56
(lp1336
g49
(g65
g51
NtRp1337
(dp1338
g54
(dp1339
sg63
g1333
sg56
(lp1340
g49
(g70
g51
NtRp1341
(dp1342
g54
(dp1343
sg63
g1337
sg56
(lp1344
g49
(g50
g51
NtRp1345
(dp1346
g54
(dp1347
g62
I3
ssg63
g1341
sg56
(lp1348
S'1'
asbasbasbag49
(g65
g51
NtRp1349
(dp1350
g54
(dp1351
sg63
g1333
sg56
(lp1352
g49
(g70
g51
NtRp1353
(dp1354
g54
(dp1355
sg63
g1349
sg56
(lp1356
g49
(g50
g51
NtRp1357
(dp1358
g54
(dp1359
g62
I3
ssg63
g1353
sg56
(lp1360
S'99'
p1361
asbasbasbag49
(g65
g51
NtRp1362
(dp1363
g54
(dp1364
sg63
g1333
sg56
(lp1365
g49
(g70
g51
NtRp1366
(dp1367
g54
(dp1368
sg63
g1362
sg56
(lp1369
g49
(g50
g51
NtRp1370
(dp1371
g54
(dp1372
g62
I3
ssg63
g1366
sg56
(lp1373
S'7'
asbasbasbag49
(g65
g51
NtRp1374
(dp1375
g54
(dp1376
sg63
g1333
sg56
(lp1377
g49
(g70
g51
NtRp1378
(dp1379
g54
(dp1380
sg63
g1374
sg56
(lp1381
g49
(g50
g51
NtRp1382
(dp1383
g54
(dp1384
g62
I3
ssg63
g1378
sg56
(lp1385
S'datetime.datetime(2012, 3, 4, 22, 12, 8)'
p1386
asbasbasbag49
(g65
g51
NtRp1387
(dp1388
g54
(dp1389
sg63
g1333
sg56
(lp1390
g49
(g70
g51
NtRp1391
(dp1392
g54
(dp1393
sg63
g1387
sg56
(lp1394
g49
(g50
g51
NtRp1395
(dp1396
g54
(dp1397
g62
I3
ssg63
g1391
sg56
(lp1398
S'stable'
p1399
asbasbasbasbasbasbasbag49
(g65
g51
NtRp1400
(dp1401
g54
(dp1402
sg63
g588
sg56
(lp1403
g49
(g70
g51
NtRp1404
(dp1405
g54
(dp1406
g74
g75
ssg63
g1400
sg56
(lp1407
S'wsgi_errors'
p1408
asbag49
(g70
g51
NtRp1409
(dp1410
g54
(dp1411
g81
g82
ssg63
g1400
sg56
(lp1412
S':'
asbag49
(g70
g51
NtRp1413
(dp1414
g54
(dp1415
sg63
g1400
sg56
(lp1416
g49
(g50
g51
NtRp1417
(dp1418
g54
(dp1419
g62
I4
ssg63
g1413
sg56
(lp1420
S"<open file '<stderr>', mode 'w' at 0x4220b0>"
p1421
asbasbasbag49
(g65
g51
NtRp1422
(dp1423
g54
(dp1424
sg63
g588
sg56
(lp1425
g49
(g70
g51
NtRp1426
(dp1427
g54
(dp1428
g74
g75
ssg63
g1422
sg56
(lp1429
S'wsgi_file_wrapper'
p1430
asbag49
(g70
g51
NtRp1431
(dp1432
g54
(dp1433
g81
g82
ssg63
g1422
sg56
(lp1434
S':'
asbag49
(g70
g51
NtRp1435
(dp1436
g54
(dp1437
sg63
g1422
sg56
(lp1438
g49
(g50
g51
NtRp1439
(dp1440
g54
(dp1441
g62
I4
ssg63
g1435
sg56
(lp1442
S'<class wsgiref.util.FileWrapper at 0x215e6c0>'
p1443
asbasbasbag49
(g65
g51
NtRp1444
(dp1445
g54
(dp1446
sg63
g588
sg56
(lp1447
g49
(g70
g51
NtRp1448
(dp1449
g54
(dp1450
g74
g75
ssg63
g1444
sg56
(lp1451
S'wsgi_input'
p1452
asbag49
(g70
g51
NtRp1453
(dp1454
g54
(dp1455
g81
g82
ssg63
g1444
sg56
(lp1456
S':'
asbag49
(g70
g51
NtRp1457
(dp1458
g54
(dp1459
sg63
g1444
sg56
(lp1460
g49
(g50
g51
NtRp1461
(dp1462
g54
(dp1463
g62
I4
ssg63
g1457
sg56
(lp1464
S'<socket._fileobject object at 0xa9b8970>'
p1465
asbasbasbag49
(g65
g51
NtRp1466
(dp1467
g54
(dp1468
sg63
g588
sg56
(lp1469
g49
(g70
g51
NtRp1470
(dp1471
g54
(dp1472
g74
g75
ssg63
g1466
sg56
(lp1473
S'wsgi_multiprocess'
p1474
asbag49
(g70
g51
NtRp1475
(dp1476
g54
(dp1477
g81
g82
ssg63
g1466
sg56
(lp1478
S':'
asbag49
(g70
g51
NtRp1479
(dp1480
g54
(dp1481
sg63
g1466
sg56
(lp1482
g49
(g50
g51
NtRp1483
(dp1484
g54
(dp1485
g62
I4
ssg63
g1479
sg56
(lp1486
g92
asbasbasbag49
(g65
g51
NtRp1487
(dp1488
g54
(dp1489
sg63
g588
sg56
(lp1490
g49
(g70
g51
NtRp1491
(dp1492
g54
(dp1493
g74
g75
ssg63
g1487
sg56
(lp1494
S'wsgi_multithread'
p1495
asbag49
(g70
g51
NtRp1496
(dp1497
g54
(dp1498
g81
g82
ssg63
g1487
sg56
(lp1499
S':'
asbag49
(g70
g51
NtRp1500
(dp1501
g54
(dp1502
sg63
g1487
sg56
(lp1503
g49
(g50
g51
NtRp1504
(dp1505
g54
(dp1506
g62
I4
ssg63
g1500
sg56
(lp1507
S'True'
p1508
asbasbasbag49
(g65
g51
NtRp1509
(dp1510
g54
(dp1511
sg63
g588
sg56
(lp1512
g49
(g70
g51
NtRp1513
(dp1514
g54
(dp1515
g74
g75
ssg63
g1509
sg56
(lp1516
S'wsgi_run_once'
p1517
asbag49
(g70
g51
NtRp1518
(dp1519
g54
(dp1520
g81
g82
ssg63
g1509
sg56
(lp1521
S':'
asbag49
(g70
g51
NtRp1522
(dp1523
g54
(dp1524
sg63
g1509
sg56
(lp1525
g49
(g50
g51
NtRp1526
(dp1527
g54
(dp1528
g62
I4
ssg63
g1522
sg56
(lp1529
g92
asbasbasbag49
(g65
g51
NtRp1530
(dp1531
g54
(dp1532
sg63
g588
sg56
(lp1533
g49
(g70
g51
NtRp1534
(dp1535
g54
(dp1536
g74
g75
ssg63
g1530
sg56
(lp1537
S'wsgi_url_scheme'
p1538
asbag49
(g70
g51
NtRp1539
(dp1540
g54
(dp1541
g81
g82
ssg63
g1530
sg56
(lp1542
S':'
asbag49
(g70
g51
NtRp1543
(dp1544
g54
(dp1545
sg63
g1530
sg56
(lp1546
g49
(g50
g51
NtRp1547
(dp1548
g54
(dp1549
g62
I4
ssg63
g1543
sg56
(lp1550
S'http'
p1551
asbasbasbag49
(g65
g51
NtRp1552
(dp1553
g54
(dp1554
sg63
g588
sg56
(lp1555
g49
(g70
g51
NtRp1556
(dp1557
g54
(dp1558
g74
g75
ssg63
g1552
sg56
(lp1559
S'wsgi_version'
p1560
asbag49
(g70
g51
NtRp1561
(dp1562
g54
(dp1563
g81
g82
ssg63
g1552
sg56
(lp1564
S':'
asbag49
(g70
g51
NtRp1565
(dp1566
g54
(dp1567
sg63
g1552
sg56
(lp1568
g49
(g50
g51
NtRp1569
(dp1570
g54
(dp1571
g62
I4
ssg63
g1565
sg56
(lp1572
g49
(g58
g51
NtRp1573
(dp1574
g54
(dp1575
g62
I3
ssg63
Nsg56
(lp1576
g49
(g65
g51
NtRp1577
(dp1578
g54
(dp1579
sg63
g1573
sg56
(lp1580
g49
(g70
g51
NtRp1581
(dp1582
g54
(dp1583
sg63
g1577
sg56
(lp1584
g49
(g50
g51
NtRp1585
(dp1586
g54
(dp1587
g62
I3
ssg63
g1581
sg56
(lp1588
S'1'
asbasbasbag49
(g65
g51
NtRp1589
(dp1590
g54
(dp1591
sg63
g1573
sg56
(lp1592
g49
(g70
g51
NtRp1593
(dp1594
g54
(dp1595
sg63
g1589
sg56
(lp1596
g49
(g50
g51
NtRp1597
(dp1598
g54
(dp1599
g62
I3
ssg63
g1593
sg56
(lp1600
S'0'
asbasbasbasbasbasbasbasbasbasbasbag49
(g65
g51
NtRp1601
(dp1602
g54
(dp1603
sg63
g59
sg56
(lp1604
g49
(g70
g51
NtRp1605
(dp1606
g54
(dp1607
g74
g75
ssg63
g1601
sg56
(lp1608
S'extension'
p1609
asbag49
(g70
g51
NtRp1610
(dp1611
g54
(dp1612
g81
g82
ssg63
g1601
sg56
(lp1613
S':'
asbag49
(g70
g51
NtRp1614
(dp1615
g54
(dp1616
sg63
g1601
sg56
(lp1617
g49
(g50
g51
NtRp1618
(dp1619
g54
(dp1620
g62
I5
ssg63
g1614
sg56
(lp1621
S'html'
p1622
asbasbasbag49
(g65
g51
NtRp1623
(dp1624
g54
(dp1625
sg63
g59
sg56
(lp1626
g49
(g70
g51
NtRp1627
(dp1628
g54
(dp1629
g74
g75
ssg63
g1623
sg56
(lp1630
S'folder'
p1631
asbag49
(g70
g51
NtRp1632
(dp1633
g54
(dp1634
g81
g82
ssg63
g1623
sg56
(lp1635
S':'
asbag49
(g70
g51
NtRp1636
(dp1637
g54
(dp1638
sg63
g1623
sg56
(lp1639
g49
(g50
g51
NtRp1640
(dp1641
g54
(dp1642
g62
I5
ssg63
g1636
sg56
(lp1643
S'/Users/udimilo/Documents/web2py/applications/udi0312/'
p1644
asbasbasbag49
(g65
g51
NtRp1645
(dp1646
g54
(dp1647
sg63
g59
sg56
(lp1648
g49
(g70
g51
NtRp1649
(dp1650
g54
(dp1651
g74
g75
ssg63
g1645
sg56
(lp1652
S'function'
p1653
asbag49
(g70
g51
NtRp1654
(dp1655
g54
(dp1656
g81
g82
ssg63
g1645
sg56
(lp1657
S':'
asbag49
(g70
g51
NtRp1658
(dp1659
g54
(dp1660
sg63
g1645
sg56
(lp1661
g49
(g50
g51
NtRp1662
(dp1663
g54
(dp1664
g62
I5
ssg63
g1658
sg56
(lp1665
S'index'
p1666
asbasbasbag49
(g65
g51
NtRp1667
(dp1668
g54
(dp1669
sg63
g59
sg56
(lp1670
g49
(g70
g51
NtRp1671
(dp1672
g54
(dp1673
g74
g75
ssg63
g1667
sg56
(lp1674
S'get_vars'
p1675
asbag49
(g70
g51
NtRp1676
(dp1677
g54
(dp1678
g81
g82
ssg63
g1667
sg56
(lp1679
S':'
asbag49
(g70
g51
NtRp1680
(dp1681
g54
(dp1682
sg63
g1667
sg56
(lp1683
g49
(g50
g51
NtRp1684
(dp1685
g54
(dp1686
g62
I5
ssg63
g1680
sg56
(lp1687
g49
(g58
g51
NtRp1688
(dp1689
g54
(dp1690
g62
I4
ssg63
Nsg56
(lp1691
sbasbasbasbag49
(g65
g51
NtRp1692
(dp1693
g54
(dp1694
sg63
g59
sg56
(lp1695
g49
(g70
g51
NtRp1696
(dp1697
g54
(dp1698
g74
g75
ssg63
g1692
sg56
(lp1699
S'global_settings'
p1700
asbag49
(g70
g51
NtRp1701
(dp1702
g54
(dp1703
g81
g82
ssg63
g1692
sg56
(lp1704
S':'
asbag49
(g70
g51
NtRp1705
(dp1706
g54
(dp1707
sg63
g1692
sg56
(lp1708
g49
(g50
g51
NtRp1709
(dp1710
g54
(dp1711
g62
I5
ssg63
g1705
sg56
(lp1712
g49
(g58
g51
NtRp1713
(dp1714
g54
(dp1715
g62
I4
ssg63
Nsg56
(lp1716
g49
(g65
g51
NtRp1717
(dp1718
g54
(dp1719
sg63
g1713
sg56
(lp1720
g49
(g70
g51
NtRp1721
(dp1722
g54
(dp1723
g74
g75
ssg63
g1717
sg56
(lp1724
g600
asbag49
(g70
g51
NtRp1725
(dp1726
g54
(dp1727
g81
g82
ssg63
g1717
sg56
(lp1728
S':'
asbag49
(g70
g51
NtRp1729
(dp1730
g54
(dp1731
sg63
g1717
sg56
(lp1732
g49
(g50
g51
NtRp1733
(dp1734
g54
(dp1735
g62
I4
ssg63
g1729
sg56
(lp1736
S"set(['/Users/udimilo/Documents/web2py/applications/udi0312/', '/Users/udimilo/Documents/web2py/applications/admin/'])"
p1737
asbasbasbag49
(g65
g51
NtRp1738
(dp1739
g54
(dp1740
sg63
g1713
sg56
(lp1741
g49
(g70
g51
NtRp1742
(dp1743
g54
(dp1744
g74
g75
ssg63
g1738
sg56
(lp1745
g622
asbag49
(g70
g51
NtRp1746
(dp1747
g54
(dp1748
g81
g82
ssg63
g1738
sg56
(lp1749
S':'
asbag49
(g70
g51
NtRp1750
(dp1751
g54
(dp1752
sg63
g1738
sg56
(lp1753
g49
(g50
g51
NtRp1754
(dp1755
g54
(dp1756
g62
I4
ssg63
g1750
sg56
(lp1757
g635
asbasbasbag49
(g65
g51
NtRp1758
(dp1759
g54
(dp1760
sg63
g1713
sg56
(lp1761
g49
(g70
g51
NtRp1762
(dp1763
g54
(dp1764
g74
g75
ssg63
g1758
sg56
(lp1765
g644
asbag49
(g70
g51
NtRp1766
(dp1767
g54
(dp1768
g81
g82
ssg63
g1758
sg56
(lp1769
S':'
asbag49
(g70
g51
NtRp1770
(dp1771
g54
(dp1772
sg63
g1758
sg56
(lp1773
g49
(g50
g51
NtRp1774
(dp1775
g54
(dp1776
g62
I4
ssg63
g1770
sg56
(lp1777
g49
(g58
g51
NtRp1778
(dp1779
g54
(dp1780
g62
I3
ssg63
Nsg56
(lp1781
sbasbasbasbag49
(g65
g51
NtRp1782
(dp1783
g54
(dp1784
sg63
g1713
sg56
(lp1785
g49
(g70
g51
NtRp1786
(dp1787
g54
(dp1788
g74
g75
ssg63
g1782
sg56
(lp1789
g669
asbag49
(g70
g51
NtRp1790
(dp1791
g54
(dp1792
g81
g82
ssg63
g1782
sg56
(lp1793
S':'
asbag49
(g70
g51
NtRp1794
(dp1795
g54
(dp1796
sg63
g1782
sg56
(lp1797
g49
(g50
g51
NtRp1798
(dp1799
g54
(dp1800
g62
I4
ssg63
g1794
sg56
(lp1801
S"<Values at 0x22190a8: {'verbose': False, 'ip': '127.0.0.1', 'shutdown_timeout': 5, 'taskbar': False, 'nocron': False, 'pid_filename': 'httpserver.pid', 'maxthreads': None, 'softcron': False, 'server_name': 'Udi-Milos-MacBook-Pro.local', 'bpython': False, 'nogui': False, 'port': 8000, 'extcron': False, 'debuglevel': 30, 'test': None, 'folder': '/Users/udimilo/Documents/web2py', 'config': '', 'import_models': False, 'winservice': '', 'shell': None, 'run': '', 'log_filename': 'httpserver.log', 'args': [''], 'socket_timeout': 5, 'ssl_ca_certificate': None, 'scheduler': None, 'profiler_filename': None, 'ssl_private_key': '', 'password': '<ask>', 'request_queue_size': 5, 'ssl_certificate': '', 'cronjob': False, 'numthreads': None, 'quiet': False, 'interfaces': None, 'minthreads': None, 'timeout': 10, 'plain': False, 'nobanner': False}>"
p1802
asbasbasbag49
(g65
g51
NtRp1803
(dp1804
g54
(dp1805
sg63
g1713
sg56
(lp1806
g49
(g70
g51
NtRp1807
(dp1808
g54
(dp1809
g74
g75
ssg63
g1803
sg56
(lp1810
g691
asbag49
(g70
g51
NtRp1811
(dp1812
g54
(dp1813
g81
g82
ssg63
g1803
sg56
(lp1814
S':'
asbag49
(g70
g51
NtRp1815
(dp1816
g54
(dp1817
sg63
g1803
sg56
(lp1818
g49
(g50
g51
NtRp1819
(dp1820
g54
(dp1821
g62
I4
ssg63
g1815
sg56
(lp1822
S'set([])'
p1823
asbasbasbag49
(g65
g51
NtRp1824
(dp1825
g54
(dp1826
sg63
g1713
sg56
(lp1827
g49
(g70
g51
NtRp1828
(dp1829
g54
(dp1830
g74
g75
ssg63
g1824
sg56
(lp1831
g713
asbag49
(g70
g51
NtRp1832
(dp1833
g54
(dp1834
g81
g82
ssg63
g1824
sg56
(lp1835
S':'
asbag49
(g70
g51
NtRp1836
(dp1837
g54
(dp1838
sg63
g1824
sg56
(lp1839
g49
(g50
g51
NtRp1840
(dp1841
g54
(dp1842
g62
I4
ssg63
g1836
sg56
(lp1843
g92
asbasbasbag49
(g65
g51
NtRp1844
(dp1845
g54
(dp1846
sg63
g1713
sg56
(lp1847
g49
(g70
g51
NtRp1848
(dp1849
g54
(dp1850
g74
g75
ssg63
g1844
sg56
(lp1851
g734
asbag49
(g70
g51
NtRp1852
(dp1853
g54
(dp1854
g81
g82
ssg63
g1844
sg56
(lp1855
S':'
asbag49
(g70
g51
NtRp1856
(dp1857
g54
(dp1858
sg63
g1844
sg56
(lp1859
g49
(g50
g51
NtRp1860
(dp1861
g54
(dp1862
g62
I4
ssg63
g1856
sg56
(lp1863
g747
asbasbasbag49
(g65
g51
NtRp1864
(dp1865
g54
(dp1866
sg63
g1713
sg56
(lp1867
g49
(g70
g51
NtRp1868
(dp1869
g54
(dp1870
g74
g75
ssg63
g1864
sg56
(lp1871
g976
asbag49
(g70
g51
NtRp1872
(dp1873
g54
(dp1874
g81
g82
ssg63
g1864
sg56
(lp1875
S':'
asbag49
(g70
g51
NtRp1876
(dp1877
g54
(dp1878
sg63
g1864
sg56
(lp1879
g49
(g50
g51
NtRp1880
(dp1881
g54
(dp1882
g62
I4
ssg63
g1876
sg56
(lp1883
g92
asbasbasbag49
(g65
g51
NtRp1884
(dp1885
g54
(dp1886
sg63
g1713
sg56
(lp1887
g49
(g70
g51
NtRp1888
(dp1889
g54
(dp1890
g74
g75
ssg63
g1884
sg56
(lp1891
g997
asbag49
(g70
g51
NtRp1892
(dp1893
g54
(dp1894
g81
g82
ssg63
g1884
sg56
(lp1895
S':'
asbag49
(g70
g51
NtRp1896
(dp1897
g54
(dp1898
sg63
g1884
sg56
(lp1899
g49
(g50
g51
NtRp1900
(dp1901
g54
(dp1902
g62
I4
ssg63
g1896
sg56
(lp1903
g92
asbasbasbag49
(g65
g51
NtRp1904
(dp1905
g54
(dp1906
sg63
g1713
sg56
(lp1907
g49
(g70
g51
NtRp1908
(dp1909
g54
(dp1910
g74
g75
ssg63
g1904
sg56
(lp1911
g1256
asbag49
(g70
g51
NtRp1912
(dp1913
g54
(dp1914
g81
g82
ssg63
g1904
sg56
(lp1915
S':'
asbag49
(g70
g51
NtRp1916
(dp1917
g54
(dp1918
sg63
g1904
sg56
(lp1919
g49
(g50
g51
NtRp1920
(dp1921
g54
(dp1922
g62
I4
ssg63
g1916
sg56
(lp1923
g1269
asbasbasbag49
(g65
g51
NtRp1924
(dp1925
g54
(dp1926
sg63
g1713
sg56
(lp1927
g49
(g70
g51
NtRp1928
(dp1929
g54
(dp1930
g74
g75
ssg63
g1924
sg56
(lp1931
g1320
asbag49
(g70
g51
NtRp1932
(dp1933
g54
(dp1934
g81
g82
ssg63
g1924
sg56
(lp1935
S':'
asbag49
(g70
g51
NtRp1936
(dp1937
g54
(dp1938
sg63
g1924
sg56
(lp1939
g49
(g50
g51
NtRp1940
(dp1941
g54
(dp1942
g62
I4
ssg63
g1936
sg56
(lp1943
g49
(g58
g51
NtRp1944
(dp1945
g54
(dp1946
g62
I3
ssg63
Nsg56
(lp1947
g49
(g65
g51
NtRp1948
(dp1949
g54
(dp1950
sg63
g1944
sg56
(lp1951
g49
(g70
g51
NtRp1952
(dp1953
g54
(dp1954
sg63
g1948
sg56
(lp1955
g49
(g50
g51
NtRp1956
(dp1957
g54
(dp1958
g62
I3
ssg63
g1952
sg56
(lp1959
S'1'
asbasbasbag49
(g65
g51
NtRp1960
(dp1961
g54
(dp1962
sg63
g1944
sg56
(lp1963
g49
(g70
g51
NtRp1964
(dp1965
g54
(dp1966
sg63
g1960
sg56
(lp1967
g49
(g50
g51
NtRp1968
(dp1969
g54
(dp1970
g62
I3
ssg63
g1964
sg56
(lp1971
S'99'
p1972
asbasbasbag49
(g65
g51
NtRp1973
(dp1974
g54
(dp1975
sg63
g1944
sg56
(lp1976
g49
(g70
g51
NtRp1977
(dp1978
g54
(dp1979
sg63
g1973
sg56
(lp1980
g49
(g50
g51
NtRp1981
(dp1982
g54
(dp1983
g62
I3
ssg63
g1977
sg56
(lp1984
S'7'
asbasbasbag49
(g65
g51
NtRp1985
(dp1986
g54
(dp1987
sg63
g1944
sg56
(lp1988
g49
(g70
g51
NtRp1989
(dp1990
g54
(dp1991
sg63
g1985
sg56
(lp1992
g49
(g50
g51
NtRp1993
(dp1994
g54
(dp1995
g62
I3
ssg63
g1989
sg56
(lp1996
S'datetime.datetime(2012, 3, 4, 22, 12, 8)'
p1997
asbasbasbag49
(g65
g51
NtRp1998
(dp1999
g54
(dp2000
sg63
g1944
sg56
(lp2001
g49
(g70
g51
NtRp2002
(dp2003
g54
(dp2004
sg63
g1998
sg56
(lp2005
g49
(g50
g51
NtRp2006
(dp2007
g54
(dp2008
g62
I3
ssg63
g2002
sg56
(lp2009
g1399
asbasbasbasbasbasbasbasbasbasbasbag49
(g65
g51
NtRp2010
(dp2011
g54
(dp2012
sg63
g59
sg56
(lp2013
g49
(g70
g51
NtRp2014
(dp2015
g54
(dp2016
g74
g75
ssg63
g2010
sg56
(lp2017
S'is_https'
p2018
asbag49
(g70
g51
NtRp2019
(dp2020
g54
(dp2021
g81
g82
ssg63
g2010
sg56
(lp2022
S':'
asbag49
(g70
g51
NtRp2023
(dp2024
g54
(dp2025
sg63
g2010
sg56
(lp2026
g49
(g50
g51
NtRp2027
(dp2028
g54
(dp2029
g62
I5
ssg63
g2023
sg56
(lp2030
g92
asbasbasbag49
(g65
g51
NtRp2031
(dp2032
g54
(dp2033
sg63
g59
sg56
(lp2034
g49
(g70
g51
NtRp2035
(dp2036
g54
(dp2037
g74
g75
ssg63
g2031
sg56
(lp2038
S'is_local'
p2039
asbag49
(g70
g51
NtRp2040
(dp2041
g54
(dp2042
g81
g82
ssg63
g2031
sg56
(lp2043
S':'
asbag49
(g70
g51
NtRp2044
(dp2045
g54
(dp2046
sg63
g2031
sg56
(lp2047
g49
(g50
g51
NtRp2048
(dp2049
g54
(dp2050
g62
I5
ssg63
g2044
sg56
(lp2051
g1508
asbasbasbag49
(g65
g51
NtRp2052
(dp2053
g54
(dp2054
sg63
g59
sg56
(lp2055
g49
(g70
g51
NtRp2056
(dp2057
g54
(dp2058
g74
g75
ssg63
g2052
sg56
(lp2059
S'is_restful'
p2060
asbag49
(g70
g51
NtRp2061
(dp2062
g54
(dp2063
g81
g82
ssg63
g2052
sg56
(lp2064
S':'
asbag49
(g70
g51
NtRp2065
(dp2066
g54
(dp2067
sg63
g2052
sg56
(lp2068
g49
(g50
g51
NtRp2069
(dp2070
g54
(dp2071
g62
I5
ssg63
g2065
sg56
(lp2072
g92
asbasbasbag49
(g65
g51
NtRp2073
(dp2074
g54
(dp2075
sg63
g59
sg56
(lp2076
g49
(g70
g51
NtRp2077
(dp2078
g54
(dp2079
g74
g75
ssg63
g2073
sg56
(lp2080
S'now'
p2081
asbag49
(g70
g51
NtRp2082
(dp2083
g54
(dp2084
g81
g82
ssg63
g2073
sg56
(lp2085
S':'
asbag49
(g70
g51
NtRp2086
(dp2087
g54
(dp2088
sg63
g2073
sg56
(lp2089
g49
(g50
g51
NtRp2090
(dp2091
g54
(dp2092
g62
I5
ssg63
g2086
sg56
(lp2093
S'datetime.datetime(2012, 3, 22, 1, 43, 6, 494356)'
p2094
asbasbasbag49
(g65
g51
NtRp2095
(dp2096
g54
(dp2097
sg63
g59
sg56
(lp2098
g49
(g70
g51
NtRp2099
(dp2100
g54
(dp2101
g74
g75
ssg63
g2095
sg56
(lp2102
S'post_vars'
p2103
asbag49
(g70
g51
NtRp2104
(dp2105
g54
(dp2106
g81
g82
ssg63
g2095
sg56
(lp2107
S':'
asbag49
(g70
g51
NtRp2108
(dp2109
g54
(dp2110
sg63
g2095
sg56
(lp2111
g49
(g50
g51
NtRp2112
(dp2113
g54
(dp2114
g62
I5
ssg63
g2108
sg56
(lp2115
g49
(g58
g51
NtRp2116
(dp2117
g54
(dp2118
g62
I4
ssg63
Nsg56
(lp2119
sbasbasbasbag49
(g65
g51
NtRp2120
(dp2121
g54
(dp2122
sg63
g59
sg56
(lp2123
g49
(g70
g51
NtRp2124
(dp2125
g54
(dp2126
g74
g75
ssg63
g2120
sg56
(lp2127
S'url'
p2128
asbag49
(g70
g51
NtRp2129
(dp2130
g54
(dp2131
g81
g82
ssg63
g2120
sg56
(lp2132
S':'
asbag49
(g70
g51
NtRp2133
(dp2134
g54
(dp2135
sg63
g2120
sg56
(lp2136
g49
(g50
g51
NtRp2137
(dp2138
g54
(dp2139
g62
I5
ssg63
g2133
sg56
(lp2140
S'/'
asbasbasbag49
(g65
g51
NtRp2141
(dp2142
g54
(dp2143
sg63
g59
sg56
(lp2144
g49
(g70
g51
NtRp2145
(dp2146
g54
(dp2147
g74
g75
ssg63
g2141
sg56
(lp2148
S'utcnow'
p2149
asbag49
(g70
g51
NtRp2150
(dp2151
g54
(dp2152
g81
g82
ssg63
g2141
sg56
(lp2153
S':'
asbag49
(g70
g51
NtRp2154
(dp2155
g54
(dp2156
sg63
g2141
sg56
(lp2157
g49
(g50
g51
NtRp2158
(dp2159
g54
(dp2160
g62
I5
ssg63
g2154
sg56
(lp2161
S'datetime.datetime(2012, 3, 22, 5, 43, 6, 494384)'
p2162
asbasbasbag49
(g65
g51
NtRp2163
(dp2164
g54
(dp2165
sg63
g59
sg56
(lp2166
g49
(g70
g51
NtRp2167
(dp2168
g54
(dp2169
g74
g75
ssg63
g2163
sg56
(lp2170
S'uuid'
p2171
asbag49
(g70
g51
NtRp2172
(dp2173
g54
(dp2174
g81
g82
ssg63
g2163
sg56
(lp2175
S':'
asbag49
(g70
g51
NtRp2176
(dp2177
g54
(dp2178
sg63
g2163
sg56
(lp2179
g49
(g50
g51
NtRp2180
(dp2181
g54
(dp2182
g62
I5
ssg63
g2176
sg56
(lp2183
S'udi0312/127.0.0.1.2012-03-22.01-43-06.c180e085-8d4e-46ae-ae01-b2b62234a8a8'
p2184
asbasbasbag49
(g65
g51
NtRp2185
(dp2186
g54
(dp2187
sg63
g59
sg56
(lp2188
g49
(g70
g51
NtRp2189
(dp2190
g54
(dp2191
g74
g75
ssg63
g2185
sg56
(lp2192
S'vars'
p2193
asbag49
(g70
g51
NtRp2194
(dp2195
g54
(dp2196
g81
g82
ssg63
g2185
sg56
(lp2197
S':'
asbag49
(g70
g51
NtRp2198
(dp2199
g54
(dp2200
sg63
g2185
sg56
(lp2201
g49
(g50
g51
NtRp2202
(dp2203
g54
(dp2204
g62
I5
ssg63
g2198
sg56
(lp2205
g49
(g58
g51
NtRp2206
(dp2207
g54
(dp2208
g62
I4
ssg63
Nsg56
(lp2209
sbasbasbasbag49
(g65
g51
NtRp2210
(dp2211
g54
(dp2212
sg63
g59
sg56
(lp2213
g49
(g70
g51
NtRp2214
(dp2215
g54
(dp2216
g74
g75
ssg63
g2210
sg56
(lp2217
S'wsgi'
p2218
asbag49
(g70
g51
NtRp2219
(dp2220
g54
(dp2221
g81
g82
ssg63
g2210
sg56
(lp2222
S':'
asbag49
(g70
g51
NtRp2223
(dp2224
g54
(dp2225
sg63
g2210
sg56
(lp2226
g49
(g50
g51
NtRp2227
(dp2228
g54
(dp2229
g62
I5
ssg63
g2223
sg56
(lp2230
g49
(g58
g51
NtRp2231
(dp2232
g54
(dp2233
g62
I4
ssg63
Nsg56
(lp2234
g49
(g65
g51
NtRp2235
(dp2236
g54
(dp2237
sg63
g2231
sg56
(lp2238
g49
(g70
g51
NtRp2239
(dp2240
g54
(dp2241
g74
g75
ssg63
g2235
sg56
(lp2242
S'environ'
p2243
asbag49
(g70
g51
NtRp2244
(dp2245
g54
(dp2246
g81
g82
ssg63
g2235
sg56
(lp2247
S':'
asbag49
(g70
g51
NtRp2248
(dp2249
g54
(dp2250
sg63
g2235
sg56
(lp2251
g49
(g50
g51
NtRp2252
(dp2253
g54
(dp2254
g62
I4
ssg63
g2248
sg56
(lp2255
g49
(g58
g51
NtRp2256
(dp2257
g54
(dp2258
g62
I3
ssg63
Nsg56
(lp2259
g49
(g65
g51
NtRp2260
(dp2261
g54
(dp2262
sg63
g2256
sg56
(lp2263
g49
(g70
g51
NtRp2264
(dp2265
g54
(dp2266
g74
g75
ssg63
g2260
sg56
(lp2267
S'HTTP_ACCEPT'
p2268
asbag49
(g70
g51
NtRp2269
(dp2270
g54
(dp2271
g81
g82
ssg63
g2260
sg56
(lp2272
S':'
asbag49
(g70
g51
NtRp2273
(dp2274
g54
(dp2275
sg63
g2260
sg56
(lp2276
g49
(g50
g51
NtRp2277
(dp2278
g54
(dp2279
g62
I3
ssg63
g2273
sg56
(lp2280
g769
asbasbasbag49
(g65
g51
NtRp2281
(dp2282
g54
(dp2283
sg63
g2256
sg56
(lp2284
g49
(g70
g51
NtRp2285
(dp2286
g54
(dp2287
g74
g75
ssg63
g2281
sg56
(lp2288
S'HTTP_ACCEPT_CHARSET'
p2289
asbag49
(g70
g51
NtRp2290
(dp2291
g54
(dp2292
g81
g82
ssg63
g2281
sg56
(lp2293
S':'
asbag49
(g70
g51
NtRp2294
(dp2295
g54
(dp2296
sg63
g2281
sg56
(lp2297
g49
(g50
g51
NtRp2298
(dp2299
g54
(dp2300
g62
I3
ssg63
g2294
sg56
(lp2301
g791
asbasbasbag49
(g65
g51
NtRp2302
(dp2303
g54
(dp2304
sg63
g2256
sg56
(lp2305
g49
(g70
g51
NtRp2306
(dp2307
g54
(dp2308
g74
g75
ssg63
g2302
sg56
(lp2309
S'HTTP_ACCEPT_ENCODING'
p2310
asbag49
(g70
g51
NtRp2311
(dp2312
g54
(dp2313
g81
g82
ssg63
g2302
sg56
(lp2314
S':'
asbag49
(g70
g51
NtRp2315
(dp2316
g54
(dp2317
sg63
g2302
sg56
(lp2318
g49
(g50
g51
NtRp2319
(dp2320
g54
(dp2321
g62
I3
ssg63
g2315
sg56
(lp2322
g813
asbasbasbag49
(g65
g51
NtRp2323
(dp2324
g54
(dp2325
sg63
g2256
sg56
(lp2326
g49
(g70
g51
NtRp2327
(dp2328
g54
(dp2329
g74
g75
ssg63
g2323
sg56
(lp2330
S'HTTP_ACCEPT_LANGUAGE'
p2331
asbag49
(g70
g51
NtRp2332
(dp2333
g54
(dp2334
g81
g82
ssg63
g2323
sg56
(lp2335
S':'
asbag49
(g70
g51
NtRp2336
(dp2337
g54
(dp2338
sg63
g2323
sg56
(lp2339
g49
(g50
g51
NtRp2340
(dp2341
g54
(dp2342
g62
I3
ssg63
g2336
sg56
(lp2343
g835
asbasbasbag49
(g65
g51
NtRp2344
(dp2345
g54
(dp2346
sg63
g2256
sg56
(lp2347
g49
(g70
g51
NtRp2348
(dp2349
g54
(dp2350
g74
g75
ssg63
g2344
sg56
(lp2351
S'HTTP_CACHE_CONTROL'
p2352
asbag49
(g70
g51
NtRp2353
(dp2354
g54
(dp2355
g81
g82
ssg63
g2344
sg56
(lp2356
S':'
asbag49
(g70
g51
NtRp2357
(dp2358
g54
(dp2359
sg63
g2344
sg56
(lp2360
g49
(g50
g51
NtRp2361
(dp2362
g54
(dp2363
g62
I3
ssg63
g2357
sg56
(lp2364
g857
asbasbasbag49
(g65
g51
NtRp2365
(dp2366
g54
(dp2367
sg63
g2256
sg56
(lp2368
g49
(g70
g51
NtRp2369
(dp2370
g54
(dp2371
g74
g75
ssg63
g2365
sg56
(lp2372
S'HTTP_CONNECTION'
p2373
asbag49
(g70
g51
NtRp2374
(dp2375
g54
(dp2376
g81
g82
ssg63
g2365
sg56
(lp2377
S':'
asbag49
(g70
g51
NtRp2378
(dp2379
g54
(dp2380
sg63
g2365
sg56
(lp2381
g49
(g50
g51
NtRp2382
(dp2383
g54
(dp2384
g62
I3
ssg63
g2378
sg56
(lp2385
g879
asbasbasbag49
(g65
g51
NtRp2386
(dp2387
g54
(dp2388
sg63
g2256
sg56
(lp2389
g49
(g70
g51
NtRp2390
(dp2391
g54
(dp2392
g74
g75
ssg63
g2386
sg56
(lp2393
S'HTTP_COOKIE'
p2394
asbag49
(g70
g51
NtRp2395
(dp2396
g54
(dp2397
g81
g82
ssg63
g2386
sg56
(lp2398
S':'
asbag49
(g70
g51
NtRp2399
(dp2400
g54
(dp2401
sg63
g2386
sg56
(lp2402
g49
(g50
g51
NtRp2403
(dp2404
g54
(dp2405
g62
I3
ssg63
g2399
sg56
(lp2406
g901
asbasbasbag49
(g65
g51
NtRp2407
(dp2408
g54
(dp2409
sg63
g2256
sg56
(lp2410
g49
(g70
g51
NtRp2411
(dp2412
g54
(dp2413
g74
g75
ssg63
g2407
sg56
(lp2414
S'HTTP_HOST'
p2415
asbag49
(g70
g51
NtRp2416
(dp2417
g54
(dp2418
g81
g82
ssg63
g2407
sg56
(lp2419
S':'
asbag49
(g70
g51
NtRp2420
(dp2421
g54
(dp2422
sg63
g2407
sg56
(lp2423
g49
(g50
g51
NtRp2424
(dp2425
g54
(dp2426
g62
I3
ssg63
g2420
sg56
(lp2427
g923
asbasbasbag49
(g65
g51
NtRp2428
(dp2429
g54
(dp2430
sg63
g2256
sg56
(lp2431
g49
(g70
g51
NtRp2432
(dp2433
g54
(dp2434
g74
g75
ssg63
g2428
sg56
(lp2435
S'HTTP_REFERER'
p2436
asbag49
(g70
g51
NtRp2437
(dp2438
g54
(dp2439
g81
g82
ssg63
g2428
sg56
(lp2440
S':'
asbag49
(g70
g51
NtRp2441
(dp2442
g54
(dp2443
sg63
g2428
sg56
(lp2444
g49
(g50
g51
NtRp2445
(dp2446
g54
(dp2447
g62
I3
ssg63
g2441
sg56
(lp2448
g945
asbasbasbag49
(g65
g51
NtRp2449
(dp2450
g54
(dp2451
sg63
g2256
sg56
(lp2452
g49
(g70
g51
NtRp2453
(dp2454
g54
(dp2455
g74
g75
ssg63
g2449
sg56
(lp2456
S'HTTP_USER_AGENT'
p2457
asbag49
(g70
g51
NtRp2458
(dp2459
g54
(dp2460
g81
g82
ssg63
g2449
sg56
(lp2461
S':'
asbag49
(g70
g51
NtRp2462
(dp2463
g54
(dp2464
sg63
g2449
sg56
(lp2465
g49
(g50
g51
NtRp2466
(dp2467
g54
(dp2468
g62
I3
ssg63
g2462
sg56
(lp2469
g967
asbasbasbag49
(g65
g51
NtRp2470
(dp2471
g54
(dp2472
sg63
g2256
sg56
(lp2473
g49
(g70
g51
NtRp2474
(dp2475
g54
(dp2476
g74
g75
ssg63
g2470
sg56
(lp2477
S'PATH_INFO'
p2478
asbag49
(g70
g51
NtRp2479
(dp2480
g54
(dp2481
g81
g82
ssg63
g2470
sg56
(lp2482
S':'
asbag49
(g70
g51
NtRp2483
(dp2484
g54
(dp2485
sg63
g2470
sg56
(lp2486
g49
(g50
g51
NtRp2487
(dp2488
g54
(dp2489
g62
I3
ssg63
g2483
sg56
(lp2490
S'/'
asbasbasbag49
(g65
g51
NtRp2491
(dp2492
g54
(dp2493
sg63
g2256
sg56
(lp2494
g49
(g70
g51
NtRp2495
(dp2496
g54
(dp2497
g74
g75
ssg63
g2491
sg56
(lp2498
S'QUERY_STRING'
p2499
asbag49
(g70
g51
NtRp2500
(dp2501
g54
(dp2502
g81
g82
ssg63
g2491
sg56
(lp2503
S':'
asbag49
(g70
g51
NtRp2504
(dp2505
g54
(dp2506
sg63
g2491
sg56
(lp2507
g49
(g50
g51
NtRp2508
(dp2509
g54
(dp2510
g62
I3
ssg63
g2504
sg56
(lp2511
S''
asbasbasbag49
(g65
g51
NtRp2512
(dp2513
g54
(dp2514
sg63
g2256
sg56
(lp2515
g49
(g70
g51
NtRp2516
(dp2517
g54
(dp2518
g74
g75
ssg63
g2512
sg56
(lp2519
S'REMOTE_ADDR'
p2520
asbag49
(g70
g51
NtRp2521
(dp2522
g54
(dp2523
g81
g82
ssg63
g2512
sg56
(lp2524
S':'
asbag49
(g70
g51
NtRp2525
(dp2526
g54
(dp2527
sg63
g2512
sg56
(lp2528
g49
(g50
g51
NtRp2529
(dp2530
g54
(dp2531
g62
I3
ssg63
g2525
sg56
(lp2532
g182
asbasbasbag49
(g65
g51
NtRp2533
(dp2534
g54
(dp2535
sg63
g2256
sg56
(lp2536
g49
(g70
g51
NtRp2537
(dp2538
g54
(dp2539
g74
g75
ssg63
g2533
sg56
(lp2540
S'REMOTE_PORT'
p2541
asbag49
(g70
g51
NtRp2542
(dp2543
g54
(dp2544
g81
g82
ssg63
g2533
sg56
(lp2545
S':'
asbag49
(g70
g51
NtRp2546
(dp2547
g54
(dp2548
sg63
g2533
sg56
(lp2549
g49
(g50
g51
NtRp2550
(dp2551
g54
(dp2552
g62
I3
ssg63
g2546
sg56
(lp2553
g1094
asbasbasbag49
(g65
g51
NtRp2554
(dp2555
g54
(dp2556
sg63
g2256
sg56
(lp2557
g49
(g70
g51
NtRp2558
(dp2559
g54
(dp2560
g74
g75
ssg63
g2554
sg56
(lp2561
S'REQUEST_METHOD'
p2562
asbag49
(g70
g51
NtRp2563
(dp2564
g54
(dp2565
g81
g82
ssg63
g2554
sg56
(lp2566
S':'
asbag49
(g70
g51
NtRp2567
(dp2568
g54
(dp2569
sg63
g2554
sg56
(lp2570
g49
(g50
g51
NtRp2571
(dp2572
g54
(dp2573
g62
I3
ssg63
g2567
sg56
(lp2574
g1116
asbasbasbag49
(g65
g51
NtRp2575
(dp2576
g54
(dp2577
sg63
g2256
sg56
(lp2578
g49
(g70
g51
NtRp2579
(dp2580
g54
(dp2581
g74
g75
ssg63
g2575
sg56
(lp2582
S'REQUEST_URI'
p2583
asbag49
(g70
g51
NtRp2584
(dp2585
g54
(dp2586
g81
g82
ssg63
g2575
sg56
(lp2587
S':'
asbag49
(g70
g51
NtRp2588
(dp2589
g54
(dp2590
sg63
g2575
sg56
(lp2591
g49
(g50
g51
NtRp2592
(dp2593
g54
(dp2594
g62
I3
ssg63
g2588
sg56
(lp2595
g1138
asbasbasbag49
(g65
g51
NtRp2596
(dp2597
g54
(dp2598
sg63
g2256
sg56
(lp2599
g49
(g70
g51
NtRp2600
(dp2601
g54
(dp2602
g74
g75
ssg63
g2596
sg56
(lp2603
S'SCRIPT_NAME'
p2604
asbag49
(g70
g51
NtRp2605
(dp2606
g54
(dp2607
g81
g82
ssg63
g2596
sg56
(lp2608
S':'
asbag49
(g70
g51
NtRp2609
(dp2610
g54
(dp2611
sg63
g2596
sg56
(lp2612
g49
(g50
g51
NtRp2613
(dp2614
g54
(dp2615
g62
I3
ssg63
g2609
sg56
(lp2616
S''
asbasbasbag49
(g65
g51
NtRp2617
(dp2618
g54
(dp2619
sg63
g2256
sg56
(lp2620
g49
(g70
g51
NtRp2621
(dp2622
g54
(dp2623
g74
g75
ssg63
g2617
sg56
(lp2624
S'SERVER_NAME'
p2625
asbag49
(g70
g51
NtRp2626
(dp2627
g54
(dp2628
g81
g82
ssg63
g2617
sg56
(lp2629
S':'
asbag49
(g70
g51
NtRp2630
(dp2631
g54
(dp2632
sg63
g2617
sg56
(lp2633
g49
(g50
g51
NtRp2634
(dp2635
g54
(dp2636
g62
I3
ssg63
g2630
sg56
(lp2637
g1181
asbasbasbag49
(g65
g51
NtRp2638
(dp2639
g54
(dp2640
sg63
g2256
sg56
(lp2641
g49
(g70
g51
NtRp2642
(dp2643
g54
(dp2644
g74
g75
ssg63
g2638
sg56
(lp2645
S'SERVER_PORT'
p2646
asbag49
(g70
g51
NtRp2647
(dp2648
g54
(dp2649
g81
g82
ssg63
g2638
sg56
(lp2650
S':'
asbag49
(g70
g51
NtRp2651
(dp2652
g54
(dp2653
sg63
g2638
sg56
(lp2654
g49
(g50
g51
NtRp2655
(dp2656
g54
(dp2657
g62
I3
ssg63
g2651
sg56
(lp2658
g1203
asbasbasbag49
(g65
g51
NtRp2659
(dp2660
g54
(dp2661
sg63
g2256
sg56
(lp2662
g49
(g70
g51
NtRp2663
(dp2664
g54
(dp2665
g74
g75
ssg63
g2659
sg56
(lp2666
S'SERVER_PROTOCOL'
p2667
asbag49
(g70
g51
NtRp2668
(dp2669
g54
(dp2670
g81
g82
ssg63
g2659
sg56
(lp2671
S':'
asbag49
(g70
g51
NtRp2672
(dp2673
g54
(dp2674
sg63
g2659
sg56
(lp2675
g49
(g50
g51
NtRp2676
(dp2677
g54
(dp2678
g62
I3
ssg63
g2672
sg56
(lp2679
g1225
asbasbasbag49
(g65
g51
NtRp2680
(dp2681
g54
(dp2682
sg63
g2256
sg56
(lp2683
g49
(g70
g51
NtRp2684
(dp2685
g54
(dp2686
g74
g75
ssg63
g2680
sg56
(lp2687
S'SERVER_SOFTWARE'
p2688
asbag49
(g70
g51
NtRp2689
(dp2690
g54
(dp2691
g81
g82
ssg63
g2680
sg56
(lp2692
S':'
asbag49
(g70
g51
NtRp2693
(dp2694
g54
(dp2695
sg63
g2680
sg56
(lp2696
g49
(g50
g51
NtRp2697
(dp2698
g54
(dp2699
g62
I3
ssg63
g2693
sg56
(lp2700
g1247
asbasbasbag49
(g65
g51
NtRp2701
(dp2702
g54
(dp2703
sg63
g2256
sg56
(lp2704
g49
(g70
g51
NtRp2705
(dp2706
g54
(dp2707
g74
g75
ssg63
g2701
sg56
(lp2708
S'WEB2PY_ORIGINAL_URI'
p2709
asbag49
(g70
g51
NtRp2710
(dp2711
g54
(dp2712
g81
g82
ssg63
g2701
sg56
(lp2713
S':'
asbag49
(g70
g51
NtRp2714
(dp2715
g54
(dp2716
sg63
g2701
sg56
(lp2717
g49
(g50
g51
NtRp2718
(dp2719
g54
(dp2720
g62
I3
ssg63
g2714
sg56
(lp2721
S'/'
asbasbasbag49
(g65
g51
NtRp2722
(dp2723
g54
(dp2724
sg63
g2256
sg56
(lp2725
g49
(g70
g51
NtRp2726
(dp2727
g54
(dp2728
g74
g75
ssg63
g2722
sg56
(lp2729
S'wsgi.errors'
p2730
asbag49
(g70
g51
NtRp2731
(dp2732
g54
(dp2733
g81
g82
ssg63
g2722
sg56
(lp2734
S':'
asbag49
(g70
g51
NtRp2735
(dp2736
g54
(dp2737
sg63
g2722
sg56
(lp2738
g49
(g50
g51
NtRp2739
(dp2740
g54
(dp2741
g62
I3
ssg63
g2735
sg56
(lp2742
S"<open file '<stderr>', mode 'w' at 0x4220b0>"
p2743
asbasbasbag49
(g65
g51
NtRp2744
(dp2745
g54
(dp2746
sg63
g2256
sg56
(lp2747
g49
(g70
g51
NtRp2748
(dp2749
g54
(dp2750
g74
g75
ssg63
g2744
sg56
(lp2751
S'wsgi.file_wrapper'
p2752
asbag49
(g70
g51
NtRp2753
(dp2754
g54
(dp2755
g81
g82
ssg63
g2744
sg56
(lp2756
S':'
asbag49
(g70
g51
NtRp2757
(dp2758
g54
(dp2759
sg63
g2744
sg56
(lp2760
g49
(g50
g51
NtRp2761
(dp2762
g54
(dp2763
g62
I3
ssg63
g2757
sg56
(lp2764
S'<class wsgiref.util.FileWrapper at 0x215e6c0>'
p2765
asbasbasbag49
(g65
g51
NtRp2766
(dp2767
g54
(dp2768
sg63
g2256
sg56
(lp2769
g49
(g70
g51
NtRp2770
(dp2771
g54
(dp2772
g74
g75
ssg63
g2766
sg56
(lp2773
S'wsgi.input'
p2774
asbag49
(g70
g51
NtRp2775
(dp2776
g54
(dp2777
g81
g82
ssg63
g2766
sg56
(lp2778
S':'
asbag49
(g70
g51
NtRp2779
(dp2780
g54
(dp2781
sg63
g2766
sg56
(lp2782
g49
(g50
g51
NtRp2783
(dp2784
g54
(dp2785
g62
I3
ssg63
g2779
sg56
(lp2786
S'<cStringIO.StringO object at 0xa72a140>'
p2787
asbasbasbag49
(g65
g51
NtRp2788
(dp2789
g54
(dp2790
sg63
g2256
sg56
(lp2791
g49
(g70
g51
NtRp2792
(dp2793
g54
(dp2794
g74
g75
ssg63
g2788
sg56
(lp2795
S'wsgi.multiprocess'
p2796
asbag49
(g70
g51
NtRp2797
(dp2798
g54
(dp2799
g81
g82
ssg63
g2788
sg56
(lp2800
S':'
asbag49
(g70
g51
NtRp2801
(dp2802
g54
(dp2803
sg63
g2788
sg56
(lp2804
g49
(g50
g51
NtRp2805
(dp2806
g54
(dp2807
g62
I3
ssg63
g2801
sg56
(lp2808
g92
asbasbasbag49
(g65
g51
NtRp2809
(dp2810
g54
(dp2811
sg63
g2256
sg56
(lp2812
g49
(g70
g51
NtRp2813
(dp2814
g54
(dp2815
g74
g75
ssg63
g2809
sg56
(lp2816
S'wsgi.multithread'
p2817
asbag49
(g70
g51
NtRp2818
(dp2819
g54
(dp2820
g81
g82
ssg63
g2809
sg56
(lp2821
S':'
asbag49
(g70
g51
NtRp2822
(dp2823
g54
(dp2824
sg63
g2809
sg56
(lp2825
g49
(g50
g51
NtRp2826
(dp2827
g54
(dp2828
g62
I3
ssg63
g2822
sg56
(lp2829
g1508
asbasbasbag49
(g65
g51
NtRp2830
(dp2831
g54
(dp2832
sg63
g2256
sg56
(lp2833
g49
(g70
g51
NtRp2834
(dp2835
g54
(dp2836
g74
g75
ssg63
g2830
sg56
(lp2837
S'wsgi.run_once'
p2838
asbag49
(g70
g51
NtRp2839
(dp2840
g54
(dp2841
g81
g82
ssg63
g2830
sg56
(lp2842
S':'
asbag49
(g70
g51
NtRp2843
(dp2844
g54
(dp2845
sg63
g2830
sg56
(lp2846
g49
(g50
g51
NtRp2847
(dp2848
g54
(dp2849
g62
I3
ssg63
g2843
sg56
(lp2850
g92
asbasbasbag49
(g65
g51
NtRp2851
(dp2852
g54
(dp2853
sg63
g2256
sg56
(lp2854
g49
(g70
g51
NtRp2855
(dp2856
g54
(dp2857
g74
g75
ssg63
g2851
sg56
(lp2858
S'wsgi.url_scheme'
p2859
asbag49
(g70
g51
NtRp2860
(dp2861
g54
(dp2862
g81
g82
ssg63
g2851
sg56
(lp2863
S':'
asbag49
(g70
g51
NtRp2864
(dp2865
g54
(dp2866
sg63
g2851
sg56
(lp2867
g49
(g50
g51
NtRp2868
(dp2869
g54
(dp2870
g62
I3
ssg63
g2864
sg56
(lp2871
g1551
asbasbasbag49
(g65
g51
NtRp2872
(dp2873
g54
(dp2874
sg63
g2256
sg56
(lp2875
g49
(g70
g51
NtRp2876
(dp2877
g54
(dp2878
g74
g75
ssg63
g2872
sg56
(lp2879
S'wsgi.version'
p2880
asbag49
(g70
g51
NtRp2881
(dp2882
g54
(dp2883
g81
g82
ssg63
g2872
sg56
(lp2884
S':'
asbag49
(g70
g51
NtRp2885
(dp2886
g54
(dp2887
sg63
g2872
sg56
(lp2888
g49
(g50
g51
NtRp2889
(dp2890
g54
(dp2891
g62
I3
ssg63
g2885
sg56
(lp2892
S'1'
asbasbasbasbasbasbasbasbasbasbasbasbasbsS'frames'
p2893
(lp2894
(dp2895
S'file'
p2896
S'/users/udimilo/Documents/web2py/gluon/restricted.py'
p2897
sS'dump'
p2898
(dp2899
S'environment'
p2900
S"{'A': <class 'gluon.html.A'>, 'Auth': <class 'gluon.tools.Auth'>, 'B': <class 'gluon.html.B'>, 'BEAUTIFY': <class 'gluon.html.BEAUTIFY'>, 'BODY': <class 'gluon.html.BODY'>, 'BR': <class 'gluon.html.BR'>, 'BUTTON': <class 'gluon.html.BUTTON'>, 'CAT': <class 'gluon.html.CAT'>, 'CENTER': <class 'gluon.html.CENTER'>, 'CLEANUP': <class 'gluon.validators.CLEANUP'>, ...}"
p2901
sS'ccode'
p2902
S'<code object <module> at 0x6e26890, file "/Users...ations/udi0312/views/default/index.html", line 1>'
p2903
ssS'lnum'
p2904
I205
sS'lines'
p2905
(dp2906
I200
S'    try:'
p2907
sI201
S'        if type(code) == types.CodeType:'
p2908
sI202
S'            ccode = code'
p2909
sI203
S'        else:'
p2910
sI204
S'            ccode = compile2(code,layer)'
p2911
sI205
S'        exec ccode in environment'
p2912
sI206
S'    except HTTP:'
p2913
sI207
S'        raise'
p2914
sI208
S'    except RestrictedError:'
p2915
sI209
S'        # do not encapsulate (obfuscate) the original RestrictedError'
p2916
ssS'call'
p2917
S'(code=\'response.write(\\\'<html lan="en">\\\\n<head>\\\\n    <ti...js"></script>\\\\n</body>\\\\n</html>\\\\n\\\', escape=False)\', environment={\'A\': <class \'gluon.html.A\'>, \'Auth\': <class \'gluon.tools.Auth\'>, \'B\': <class \'gluon.html.B\'>, \'BEAUTIFY\': <class \'gluon.html.BEAUTIFY\'>, \'BODY\': <class \'gluon.html.BODY\'>, \'BR\': <class \'gluon.html.BR\'>, \'BUTTON\': <class \'gluon.html.BUTTON\'>, \'CAT\': <class \'gluon.html.CAT\'>, \'CENTER\': <class \'gluon.html.CENTER\'>, \'CLEANUP\': <class \'gluon.validators.CLEANUP\'>, ...}, layer=\'/Users/udimilo/Documents/web2py/applications/udi0312/views/default/index.html\')'
p2918
sS'func'
p2919
S'restricted'
p2920
sa(dp2921
g2896
S'/Users/udimilo/Documents/web2py/applications/udi0312/views/default/index.html'
p2922
sg2898
(dp2923
sg2904
I52
sg2905
(dp2924
I43
S'    response.write(\'">\', escape=False)'
p2925
sI44
S'    response.write(cat.name)'
p2926
sI45
S"    response.write('</option>\\n                    ', escape=False)"
p2927
sI46
S'    pass'
p2928
sI47
S'response.write(\'                \\n                    </select>        \\n                </li>\\n                <li><input type="submit" /></li>\\n            </ul>\\n        </form>\\n    </div>\\n    <div id="addBarMsg"></div>\\n</div>\\n<div id="categoriesBar" class="topMenu">\\n    <ul id="categoriesNav">\\n        <li><b>Info you follow</b></li>\\n        <li><a href="\', escape=False)'
p2929
sI48
S"response.write(URL('default','all'))"
p2930
sI49
S'response.write(\'">Everything</a></li>\\n        <li><a>Popular</a></li>\\n        <li><a>Recommended</a></li>\\n        <li><a href="#" id="addButton">Add +</a></li>\\n    </ul>\\n</div>\\n\', escape=False)'
p2931
sI50
S"response.write('\\n', escape=False)"
p2932
sI51
S'response.write(\'\\n<div id="wrapper">\\n    <ul id="example">\\n        \', escape=False)'
p2933
sI52
S"for pin in sorted(result['pins'].values(), key=lambda p: p.created_on, reverse=True):"
p2934
sI53
S'    response.write(\'\\n            <li style="height:350px">\\n                <div class="itemWrapper">\\n                    <div class="actions">\\n                        <a href="#" class="whiteButton repinButton" id="\', escape=False)'
p2935
sI54
S'    response.write(pin.id)'
p2936
sI55
S'    response.write(\'" title="\', escape=False)'
p2937
sI56
S"    response.write(result['articles'][pin.article].title)"
p2938
sI57
S'    response.write(\'"><em></em><strong>Repin</strong></a>\\n                        <a href="#" class="whiteButton likeButton"><em></em><strong>Like</strong></a>\\n                        <a href="#" class="whiteButton commentButton"><em></em><strong>Comment</strong></a>\\n                    </div>\\n                    <div class="content">\\n                        \', escape=False)'
p2939
sI58
S'    if show_pinner:'
p2940
sI59
S'        response.write(\'\\n                        <div class="pinner">\\n                            <a href="\', escape=False)'
p2941
sI60
S"        response.write(URL('users', args=[result['boards'][pin.board].user]))"
p2942
sI61
S'        response.write(\'">\', escape=False)'
p2943
sI62
S"        response.write(result['users'][result['boards'][pin.board].user].first_name)"
p2944
ssg2917
S'()'
p2945
sg2919
S'<module>'
p2946
sasS'pyver'
p2947
S'Python 2.5.4: /Library/Frameworks/Python.framework/Versions/2.5/Resources/Python.app/Contents/MacOS/Python'
p2948
sS'session'
p2949
g49
(g50
g51
NtRp2950
(dp2951
g54
(dp2952
sg56
(lp2953
g49
(g58
g51
NtRp2954
(dp2955
g54
(dp2956
g62
I5
ssg63
Nsg56
(lp2957
g49
(g65
g51
NtRp2958
(dp2959
g54
(dp2960
sg63
g2954
sg56
(lp2961
g49
(g70
g51
NtRp2962
(dp2963
g54
(dp2964
g74
g75
ssg63
g2958
sg56
(lp2965
S'auth'
p2966
asbag49
(g70
g51
NtRp2967
(dp2968
g54
(dp2969
g81
g82
ssg63
g2958
sg56
(lp2970
S':'
asbag49
(g70
g51
NtRp2971
(dp2972
g54
(dp2973
sg63
g2958
sg56
(lp2974
g49
(g50
g51
NtRp2975
(dp2976
g54
(dp2977
g62
I5
ssg63
g2971
sg56
(lp2978
g49
(g58
g51
NtRp2979
(dp2980
g54
(dp2981
g62
I4
ssg63
Nsg56
(lp2982
g49
(g65
g51
NtRp2983
(dp2984
g54
(dp2985
sg63
g2979
sg56
(lp2986
g49
(g70
g51
NtRp2987
(dp2988
g54
(dp2989
g74
g75
ssg63
g2983
sg56
(lp2990
S'expiration'
p2991
asbag49
(g70
g51
NtRp2992
(dp2993
g54
(dp2994
g81
g82
ssg63
g2983
sg56
(lp2995
S':'
asbag49
(g70
g51
NtRp2996
(dp2997
g54
(dp2998
sg63
g2983
sg56
(lp2999
g49
(g50
g51
NtRp3000
(dp3001
g54
(dp3002
g62
I4
ssg63
g2996
sg56
(lp3003
S'2592000'
p3004
asbasbasbag49
(g65
g51
NtRp3005
(dp3006
g54
(dp3007
sg63
g2979
sg56
(lp3008
g49
(g70
g51
NtRp3009
(dp3010
g54
(dp3011
g74
g75
ssg63
g3005
sg56
(lp3012
S'hmac_key'
p3013
asbag49
(g70
g51
NtRp3014
(dp3015
g54
(dp3016
g81
g82
ssg63
g3005
sg56
(lp3017
S':'
asbag49
(g70
g51
NtRp3018
(dp3019
g54
(dp3020
sg63
g3005
sg56
(lp3021
g49
(g50
g51
NtRp3022
(dp3023
g54
(dp3024
g62
I4
ssg63
g3018
sg56
(lp3025
S'682a8990-92ab-4cfe-abdd-6f7995dce83e'
p3026
asbasbasbag49
(g65
g51
NtRp3027
(dp3028
g54
(dp3029
sg63
g2979
sg56
(lp3030
g49
(g70
g51
NtRp3031
(dp3032
g54
(dp3033
g74
g75
ssg63
g3027
sg56
(lp3034
S'last_visit'
p3035
asbag49
(g70
g51
NtRp3036
(dp3037
g54
(dp3038
g81
g82
ssg63
g3027
sg56
(lp3039
S':'
asbag49
(g70
g51
NtRp3040
(dp3041
g54
(dp3042
sg63
g3027
sg56
(lp3043
g49
(g50
g51
NtRp3044
(dp3045
g54
(dp3046
g62
I4
ssg63
g3040
sg56
(lp3047
S'datetime.datetime(2012, 3, 22, 1, 32, 37, 41757)'
p3048
asbasbasbag49
(g65
g51
NtRp3049
(dp3050
g54
(dp3051
sg63
g2979
sg56
(lp3052
g49
(g70
g51
NtRp3053
(dp3054
g54
(dp3055
g74
g75
ssg63
g3049
sg56
(lp3056
S'remember'
p3057
asbag49
(g70
g51
NtRp3058
(dp3059
g54
(dp3060
g81
g82
ssg63
g3049
sg56
(lp3061
S':'
asbag49
(g70
g51
NtRp3062
(dp3063
g54
(dp3064
sg63
g3049
sg56
(lp3065
g49
(g50
g51
NtRp3066
(dp3067
g54
(dp3068
g62
I4
ssg63
g3062
sg56
(lp3069
g1508
asbasbasbag49
(g65
g51
NtRp3070
(dp3071
g54
(dp3072
sg63
g2979
sg56
(lp3073
g49
(g70
g51
NtRp3074
(dp3075
g54
(dp3076
g74
g75
ssg63
g3070
sg56
(lp3077
S'user'
p3078
asbag49
(g70
g51
NtRp3079
(dp3080
g54
(dp3081
g81
g82
ssg63
g3070
sg56
(lp3082
S':'
asbag49
(g70
g51
NtRp3083
(dp3084
g54
(dp3085
sg63
g3070
sg56
(lp3086
g49
(g50
g51
NtRp3087
(dp3088
g54
(dp3089
g62
I4
ssg63
g3083
sg56
(lp3090
g49
(g58
g51
NtRp3091
(dp3092
g54
(dp3093
g62
I3
ssg63
Nsg56
(lp3094
g49
(g65
g51
NtRp3095
(dp3096
g54
(dp3097
sg63
g3091
sg56
(lp3098
g49
(g70
g51
NtRp3099
(dp3100
g54
(dp3101
g74
g75
ssg63
g3095
sg56
(lp3102
S'email'
p3103
asbag49
(g70
g51
NtRp3104
(dp3105
g54
(dp3106
g81
g82
ssg63
g3095
sg56
(lp3107
S':'
asbag49
(g70
g51
NtRp3108
(dp3109
g54
(dp3110
sg63
g3095
sg56
(lp3111
g49
(g50
g51
NtRp3112
(dp3113
g54
(dp3114
g62
I3
ssg63
g3108
sg56
(lp3115
S'udimilo@gmail.com'
p3116
asbasbasbag49
(g65
g51
NtRp3117
(dp3118
g54
(dp3119
sg63
g3091
sg56
(lp3120
g49
(g70
g51
NtRp3121
(dp3122
g54
(dp3123
g74
g75
ssg63
g3117
sg56
(lp3124
S'first_name'
p3125
asbag49
(g70
g51
NtRp3126
(dp3127
g54
(dp3128
g81
g82
ssg63
g3117
sg56
(lp3129
S':'
asbag49
(g70
g51
NtRp3130
(dp3131
g54
(dp3132
sg63
g3117
sg56
(lp3133
g49
(g50
g51
NtRp3134
(dp3135
g54
(dp3136
g62
I3
ssg63
g3130
sg56
(lp3137
S'Udi'
p3138
asbasbasbag49
(g65
g51
NtRp3139
(dp3140
g54
(dp3141
sg63
g3091
sg56
(lp3142
g49
(g70
g51
NtRp3143
(dp3144
g54
(dp3145
g74
g75
ssg63
g3139
sg56
(lp3146
S'id'
p3147
asbag49
(g70
g51
NtRp3148
(dp3149
g54
(dp3150
g81
g82
ssg63
g3139
sg56
(lp3151
S':'
asbag49
(g70
g51
NtRp3152
(dp3153
g54
(dp3154
sg63
g3139
sg56
(lp3155
g49
(g50
g51
NtRp3156
(dp3157
g54
(dp3158
g62
I3
ssg63
g3152
sg56
(lp3159
S'1'
asbasbasbag49
(g65
g51
NtRp3160
(dp3161
g54
(dp3162
sg63
g3091
sg56
(lp3163
g49
(g70
g51
NtRp3164
(dp3165
g54
(dp3166
g74
g75
ssg63
g3160
sg56
(lp3167
S'last_name'
p3168
asbag49
(g70
g51
NtRp3169
(dp3170
g54
(dp3171
g81
g82
ssg63
g3160
sg56
(lp3172
S':'
asbag49
(g70
g51
NtRp3173
(dp3174
g54
(dp3175
sg63
g3160
sg56
(lp3176
g49
(g50
g51
NtRp3177
(dp3178
g54
(dp3179
g62
I3
ssg63
g3173
sg56
(lp3180
S'Milo'
p3181
asbasbasbag49
(g65
g51
NtRp3182
(dp3183
g54
(dp3184
sg63
g3091
sg56
(lp3185
g49
(g70
g51
NtRp3186
(dp3187
g54
(dp3188
g74
g75
ssg63
g3182
sg56
(lp3189
S'password'
p3190
asbag49
(g70
g51
NtRp3191
(dp3192
g54
(dp3193
g81
g82
ssg63
g3182
sg56
(lp3194
S':'
asbag49
(g70
g51
NtRp3195
(dp3196
g54
(dp3197
sg63
g3182
sg56
(lp3198
g49
(g50
g51
NtRp3199
(dp3200
g54
(dp3201
g62
I3
ssg63
g3195
sg56
(lp3202
S'7a6e3c6a68ceed66634484a3f64a3468'
p3203
asbasbasbag49
(g65
g51
NtRp3204
(dp3205
g54
(dp3206
sg63
g3091
sg56
(lp3207
g49
(g70
g51
NtRp3208
(dp3209
g54
(dp3210
g74
g75
ssg63
g3204
sg56
(lp3211
S'registration_id'
p3212
asbag49
(g70
g51
NtRp3213
(dp3214
g54
(dp3215
g81
g82
ssg63
g3204
sg56
(lp3216
S':'
asbag49
(g70
g51
NtRp3217
(dp3218
g54
(dp3219
sg63
g3204
sg56
(lp3220
g49
(g50
g51
NtRp3221
(dp3222
g54
(dp3223
g62
I3
ssg63
g3217
sg56
(lp3224
S''
asbasbasbag49
(g65
g51
NtRp3225
(dp3226
g54
(dp3227
sg63
g3091
sg56
(lp3228
g49
(g70
g51
NtRp3229
(dp3230
g54
(dp3231
g74
g75
ssg63
g3225
sg56
(lp3232
S'registration_key'
p3233
asbag49
(g70
g51
NtRp3234
(dp3235
g54
(dp3236
g81
g82
ssg63
g3225
sg56
(lp3237
S':'
asbag49
(g70
g51
NtRp3238
(dp3239
g54
(dp3240
sg63
g3225
sg56
(lp3241
g49
(g50
g51
NtRp3242
(dp3243
g54
(dp3244
g62
I3
ssg63
g3238
sg56
(lp3245
S''
asbasbasbag49
(g65
g51
NtRp3246
(dp3247
g54
(dp3248
sg63
g3091
sg56
(lp3249
g49
(g70
g51
NtRp3250
(dp3251
g54
(dp3252
g74
g75
ssg63
g3246
sg56
(lp3253
S'reset_password_key'
p3254
asbag49
(g70
g51
NtRp3255
(dp3256
g54
(dp3257
g81
g82
ssg63
g3246
sg56
(lp3258
S':'
asbag49
(g70
g51
NtRp3259
(dp3260
g54
(dp3261
sg63
g3246
sg56
(lp3262
g49
(g50
g51
NtRp3263
(dp3264
g54
(dp3265
g62
I3
ssg63
g3259
sg56
(lp3266
S''
asbasbasbasbasbasbasbag49
(g65
g51
NtRp3267
(dp3268
g54
(dp3269
sg63
g2979
sg56
(lp3270
g49
(g70
g51
NtRp3271
(dp3272
g54
(dp3273
g74
g75
ssg63
g3267
sg56
(lp3274
S'user_groups'
p3275
asbag49
(g70
g51
NtRp3276
(dp3277
g54
(dp3278
g81
g82
ssg63
g3267
sg56
(lp3279
S':'
asbag49
(g70
g51
NtRp3280
(dp3281
g54
(dp3282
sg63
g3267
sg56
(lp3283
g49
(g50
g51
NtRp3284
(dp3285
g54
(dp3286
g62
I4
ssg63
g3280
sg56
(lp3287
g49
(g58
g51
NtRp3288
(dp3289
g54
(dp3290
g62
I3
ssg63
Nsg56
(lp3291
g49
(g65
g51
NtRp3292
(dp3293
g54
(dp3294
sg63
g3288
sg56
(lp3295
g49
(g70
g51
NtRp3296
(dp3297
g54
(dp3298
g74
g75
ssg63
g3292
sg56
(lp3299
S'1'
asbag49
(g70
g51
NtRp3300
(dp3301
g54
(dp3302
g81
g82
ssg63
g3292
sg56
(lp3303
S':'
asbag49
(g70
g51
NtRp3304
(dp3305
g54
(dp3306
sg63
g3292
sg56
(lp3307
g49
(g50
g51
NtRp3308
(dp3309
g54
(dp3310
g62
I3
ssg63
g3304
sg56
(lp3311
S'user_1'
p3312
asbasbasbasbasbasbasbasbasbasbasbasbasbsS'etype'
p3313
S"<type 'exceptions.TypeError'>"
p3314
sS'date'
p3315
S'Thu Mar 22 01:43:06 2012'
p3316
sS'response'
p3317
g49
(g50
g51
NtRp3318
(dp3319
g54
(dp3320
sg56
(lp3321
g49
(g58
g51
NtRp3322
(dp3323
g54
(dp3324
g62
I5
ssg63
Nsg56
(lp3325
g49
(g65
g51
NtRp3326
(dp3327
g54
(dp3328
sg63
g3322
sg56
(lp3329
g49
(g70
g51
NtRp3330
(dp3331
g54
(dp3332
g74
g75
ssg63
g3326
sg56
(lp3333
g147
asbag49
(g70
g51
NtRp3334
(dp3335
g54
(dp3336
g81
g82
ssg63
g3326
sg56
(lp3337
S':'
asbag49
(g70
g51
NtRp3338
(dp3339
g54
(dp3340
sg63
g3326
sg56
(lp3341
g49
(g50
g51
NtRp3342
(dp3343
g54
(dp3344
g62
I5
ssg63
g3338
sg56
(lp3345
S'<cStringIO.StringO object at 0xa593a40>'
p3346
asbasbasbag49
(g65
g51
NtRp3347
(dp3348
g54
(dp3349
sg63
g3322
sg56
(lp3350
g49
(g70
g51
NtRp3351
(dp3352
g54
(dp3353
g74
g75
ssg63
g3347
sg56
(lp3354
g213
asbag49
(g70
g51
NtRp3355
(dp3356
g54
(dp3357
g81
g82
ssg63
g3347
sg56
(lp3358
S':'
asbag49
(g70
g51
NtRp3359
(dp3360
g54
(dp3361
sg63
g3347
sg56
(lp3362
g49
(g50
g51
NtRp3363
(dp3364
g54
(dp3365
g62
I5
ssg63
g3359
sg56
(lp3366
g49
(g58
g51
NtRp3367
(dp3368
g54
(dp3369
g62
I4
ssg63
Nsg56
(lp3370
g49
(g65
g51
NtRp3371
(dp3372
g54
(dp3373
sg63
g3367
sg56
(lp3374
g49
(g70
g51
NtRp3375
(dp3376
g54
(dp3377
g74
g75
ssg63
g3371
sg56
(lp3378
S'session_id_udi0312'
p3379
asbag49
(g70
g51
NtRp3380
(dp3381
g54
(dp3382
g81
g82
ssg63
g3371
sg56
(lp3383
S':'
asbag49
(g70
g51
NtRp3384
(dp3385
g54
(dp3386
sg63
g3371
sg56
(lp3387
g49
(g50
g51
NtRp3388
(dp3389
g54
(dp3390
g62
I4
ssg63
g3384
sg56
(lp3391
g49
(g58
g51
NtRp3392
(dp3393
g54
(dp3394
g62
I3
ssg63
Nsg56
(lp3395
g49
(g65
g51
NtRp3396
(dp3397
g54
(dp3398
sg63
g3392
sg56
(lp3399
g49
(g70
g51
NtRp3400
(dp3401
g54
(dp3402
g74
g75
ssg63
g3396
sg56
(lp3403
g263
asbag49
(g70
g51
NtRp3404
(dp3405
g54
(dp3406
g81
g82
ssg63
g3396
sg56
(lp3407
S':'
asbag49
(g70
g51
NtRp3408
(dp3409
g54
(dp3410
sg63
g3396
sg56
(lp3411
g49
(g50
g51
NtRp3412
(dp3413
g54
(dp3414
g62
I3
ssg63
g3408
sg56
(lp3415
S''
asbasbasbag49
(g65
g51
NtRp3416
(dp3417
g54
(dp3418
sg63
g3392
sg56
(lp3419
g49
(g70
g51
NtRp3420
(dp3421
g54
(dp3422
g74
g75
ssg63
g3416
sg56
(lp3423
g284
asbag49
(g70
g51
NtRp3424
(dp3425
g54
(dp3426
g81
g82
ssg63
g3416
sg56
(lp3427
S':'
asbag49
(g70
g51
NtRp3428
(dp3429
g54
(dp3430
sg63
g3416
sg56
(lp3431
g49
(g50
g51
NtRp3432
(dp3433
g54
(dp3434
g62
I3
ssg63
g3428
sg56
(lp3435
S''
asbasbasbag49
(g65
g51
NtRp3436
(dp3437
g54
(dp3438
sg63
g3392
sg56
(lp3439
g49
(g70
g51
NtRp3440
(dp3441
g54
(dp3442
g74
g75
ssg63
g3436
sg56
(lp3443
g305
asbag49
(g70
g51
NtRp3444
(dp3445
g54
(dp3446
g81
g82
ssg63
g3436
sg56
(lp3447
S':'
asbag49
(g70
g51
NtRp3448
(dp3449
g54
(dp3450
sg63
g3436
sg56
(lp3451
g49
(g50
g51
NtRp3452
(dp3453
g54
(dp3454
g62
I3
ssg63
g3448
sg56
(lp3455
S'2592000'
p3456
asbasbasbag49
(g65
g51
NtRp3457
(dp3458
g54
(dp3459
sg63
g3392
sg56
(lp3460
g49
(g70
g51
NtRp3461
(dp3462
g54
(dp3463
g74
g75
ssg63
g3457
sg56
(lp3464
g326
asbag49
(g70
g51
NtRp3465
(dp3466
g54
(dp3467
g81
g82
ssg63
g3457
sg56
(lp3468
S':'
asbag49
(g70
g51
NtRp3469
(dp3470
g54
(dp3471
sg63
g3457
sg56
(lp3472
g49
(g50
g51
NtRp3473
(dp3474
g54
(dp3475
g62
I3
ssg63
g3469
sg56
(lp3476
S''
asbasbasbag49
(g65
g51
NtRp3477
(dp3478
g54
(dp3479
sg63
g3392
sg56
(lp3480
g49
(g70
g51
NtRp3481
(dp3482
g54
(dp3483
g74
g75
ssg63
g3477
sg56
(lp3484
g347
asbag49
(g70
g51
NtRp3485
(dp3486
g54
(dp3487
g81
g82
ssg63
g3477
sg56
(lp3488
S':'
asbag49
(g70
g51
NtRp3489
(dp3490
g54
(dp3491
sg63
g3477
sg56
(lp3492
g49
(g50
g51
NtRp3493
(dp3494
g54
(dp3495
g62
I3
ssg63
g3489
sg56
(lp3496
S'/'
asbasbasbag49
(g65
g51
NtRp3497
(dp3498
g54
(dp3499
sg63
g3392
sg56
(lp3500
g49
(g70
g51
NtRp3501
(dp3502
g54
(dp3503
g74
g75
ssg63
g3497
sg56
(lp3504
g368
asbag49
(g70
g51
NtRp3505
(dp3506
g54
(dp3507
g81
g82
ssg63
g3497
sg56
(lp3508
S':'
asbag49
(g70
g51
NtRp3509
(dp3510
g54
(dp3511
sg63
g3497
sg56
(lp3512
g49
(g50
g51
NtRp3513
(dp3514
g54
(dp3515
g62
I3
ssg63
g3509
sg56
(lp3516
S''
asbasbasbag49
(g65
g51
NtRp3517
(dp3518
g54
(dp3519
sg63
g3392
sg56
(lp3520
g49
(g70
g51
NtRp3521
(dp3522
g54
(dp3523
g74
g75
ssg63
g3517
sg56
(lp3524
g389
asbag49
(g70
g51
NtRp3525
(dp3526
g54
(dp3527
g81
g82
ssg63
g3517
sg56
(lp3528
S':'
asbag49
(g70
g51
NtRp3529
(dp3530
g54
(dp3531
sg63
g3517
sg56
(lp3532
g49
(g50
g51
NtRp3533
(dp3534
g54
(dp3535
g62
I3
ssg63
g3529
sg56
(lp3536
S''
asbasbasbasbasbasbasbasbasbasbasbag49
(g65
g51
NtRp3537
(dp3538
g54
(dp3539
sg63
g3322
sg56
(lp3540
g49
(g70
g51
NtRp3541
(dp3542
g54
(dp3543
g74
g75
ssg63
g3537
sg56
(lp3544
S'delimiters'
p3545
asbag49
(g70
g51
NtRp3546
(dp3547
g54
(dp3548
g81
g82
ssg63
g3537
sg56
(lp3549
S':'
asbag49
(g70
g51
NtRp3550
(dp3551
g54
(dp3552
sg63
g3537
sg56
(lp3553
g49
(g50
g51
NtRp3554
(dp3555
g54
(dp3556
g62
I5
ssg63
g3550
sg56
(lp3557
g49
(g58
g51
NtRp3558
(dp3559
g54
(dp3560
g62
I4
ssg63
Nsg56
(lp3561
g49
(g65
g51
NtRp3562
(dp3563
g54
(dp3564
sg63
g3558
sg56
(lp3565
g49
(g70
g51
NtRp3566
(dp3567
g54
(dp3568
sg63
g3562
sg56
(lp3569
g49
(g50
g51
NtRp3570
(dp3571
g54
(dp3572
g62
I4
ssg63
g3566
sg56
(lp3573
S'{{'
p3574
asbasbasbag49
(g65
g51
NtRp3575
(dp3576
g54
(dp3577
sg63
g3558
sg56
(lp3578
g49
(g70
g51
NtRp3579
(dp3580
g54
(dp3581
sg63
g3575
sg56
(lp3582
g49
(g50
g51
NtRp3583
(dp3584
g54
(dp3585
g62
I4
ssg63
g3579
sg56
(lp3586
S'}}'
p3587
asbasbasbasbasbasbasbag49
(g65
g51
NtRp3588
(dp3589
g54
(dp3590
sg63
g3322
sg56
(lp3591
g49
(g70
g51
NtRp3592
(dp3593
g54
(dp3594
g74
g75
ssg63
g3588
sg56
(lp3595
S'files'
p3596
asbag49
(g70
g51
NtRp3597
(dp3598
g54
(dp3599
g81
g82
ssg63
g3588
sg56
(lp3600
S':'
asbag49
(g70
g51
NtRp3601
(dp3602
g54
(dp3603
sg63
g3588
sg56
(lp3604
g49
(g50
g51
NtRp3605
(dp3606
g54
(dp3607
g62
I5
ssg63
g3601
sg56
(lp3608
g49
(g58
g51
NtRp3609
(dp3610
g54
(dp3611
g62
I4
ssg63
Nsg56
(lp3612
sbasbasbasbag49
(g65
g51
NtRp3613
(dp3614
g54
(dp3615
sg63
g3322
sg56
(lp3616
g49
(g70
g51
NtRp3617
(dp3618
g54
(dp3619
g74
g75
ssg63
g3613
sg56
(lp3620
S'flash'
p3621
asbag49
(g70
g51
NtRp3622
(dp3623
g54
(dp3624
g81
g82
ssg63
g3613
sg56
(lp3625
S':'
asbag49
(g70
g51
NtRp3626
(dp3627
g54
(dp3628
sg63
g3613
sg56
(lp3629
g49
(g50
g51
NtRp3630
(dp3631
g54
(dp3632
g62
I5
ssg63
g3626
sg56
(lp3633
S''
asbasbasbag49
(g65
g51
NtRp3634
(dp3635
g54
(dp3636
sg63
g3322
sg56
(lp3637
g49
(g70
g51
NtRp3638
(dp3639
g54
(dp3640
g74
g75
ssg63
g3634
sg56
(lp3641
S'generic_patterns'
p3642
asbag49
(g70
g51
NtRp3643
(dp3644
g54
(dp3645
g81
g82
ssg63
g3634
sg56
(lp3646
S':'
asbag49
(g70
g51
NtRp3647
(dp3648
g54
(dp3649
sg63
g3634
sg56
(lp3650
g49
(g50
g51
NtRp3651
(dp3652
g54
(dp3653
g62
I5
ssg63
g3647
sg56
(lp3654
g49
(g58
g51
NtRp3655
(dp3656
g54
(dp3657
g62
I4
ssg63
Nsg56
(lp3658
g49
(g65
g51
NtRp3659
(dp3660
g54
(dp3661
sg63
g3655
sg56
(lp3662
g49
(g70
g51
NtRp3663
(dp3664
g54
(dp3665
sg63
g3659
sg56
(lp3666
g49
(g50
g51
NtRp3667
(dp3668
g54
(dp3669
g62
I4
ssg63
g3663
sg56
(lp3670
S'*'
asbasbasbasbasbasbasbag49
(g65
g51
NtRp3671
(dp3672
g54
(dp3673
sg63
g3322
sg56
(lp3674
g49
(g70
g51
NtRp3675
(dp3676
g54
(dp3677
g74
g75
ssg63
g3671
sg56
(lp3678
S'headers'
p3679
asbag49
(g70
g51
NtRp3680
(dp3681
g54
(dp3682
g81
g82
ssg63
g3671
sg56
(lp3683
S':'
asbag49
(g70
g51
NtRp3684
(dp3685
g54
(dp3686
sg63
g3671
sg56
(lp3687
g49
(g50
g51
NtRp3688
(dp3689
g54
(dp3690
g62
I5
ssg63
g3684
sg56
(lp3691
g49
(g58
g51
NtRp3692
(dp3693
g54
(dp3694
g62
I4
ssg63
Nsg56
(lp3695
g49
(g65
g51
NtRp3696
(dp3697
g54
(dp3698
sg63
g3692
sg56
(lp3699
g49
(g70
g51
NtRp3700
(dp3701
g54
(dp3702
g74
g75
ssg63
g3696
sg56
(lp3703
S'Cache-Control'
p3704
asbag49
(g70
g51
NtRp3705
(dp3706
g54
(dp3707
g81
g82
ssg63
g3696
sg56
(lp3708
S':'
asbag49
(g70
g51
NtRp3709
(dp3710
g54
(dp3711
sg63
g3696
sg56
(lp3712
g49
(g50
g51
NtRp3713
(dp3714
g54
(dp3715
g62
I4
ssg63
g3709
sg56
(lp3716
S'no-store, no-cache, must-revalidate, post-check=0, pre-check=0'
p3717
asbasbasbag49
(g65
g51
NtRp3718
(dp3719
g54
(dp3720
sg63
g3692
sg56
(lp3721
g49
(g70
g51
NtRp3722
(dp3723
g54
(dp3724
g74
g75
ssg63
g3718
sg56
(lp3725
S'Content-Type'
p3726
asbag49
(g70
g51
NtRp3727
(dp3728
g54
(dp3729
g81
g82
ssg63
g3718
sg56
(lp3730
S':'
asbag49
(g70
g51
NtRp3731
(dp3732
g54
(dp3733
sg63
g3718
sg56
(lp3734
g49
(g50
g51
NtRp3735
(dp3736
g54
(dp3737
g62
I4
ssg63
g3731
sg56
(lp3738
S'text/html; charset=utf-8'
p3739
asbasbasbag49
(g65
g51
NtRp3740
(dp3741
g54
(dp3742
sg63
g3692
sg56
(lp3743
g49
(g70
g51
NtRp3744
(dp3745
g54
(dp3746
g74
g75
ssg63
g3740
sg56
(lp3747
S'Expires'
p3748
asbag49
(g70
g51
NtRp3749
(dp3750
g54
(dp3751
g81
g82
ssg63
g3740
sg56
(lp3752
S':'
asbag49
(g70
g51
NtRp3753
(dp3754
g54
(dp3755
sg63
g3740
sg56
(lp3756
g49
(g50
g51
NtRp3757
(dp3758
g54
(dp3759
g62
I4
ssg63
g3753
sg56
(lp3760
S'Thu, 22 Mar 2012 05:43:06 GMT'
p3761
asbasbasbag49
(g65
g51
NtRp3762
(dp3763
g54
(dp3764
sg63
g3692
sg56
(lp3765
g49
(g70
g51
NtRp3766
(dp3767
g54
(dp3768
g74
g75
ssg63
g3762
sg56
(lp3769
S'Pragma'
p3770
asbag49
(g70
g51
NtRp3771
(dp3772
g54
(dp3773
g81
g82
ssg63
g3762
sg56
(lp3774
S':'
asbag49
(g70
g51
NtRp3775
(dp3776
g54
(dp3777
sg63
g3762
sg56
(lp3778
g49
(g50
g51
NtRp3779
(dp3780
g54
(dp3781
g62
I4
ssg63
g3775
sg56
(lp3782
S'no-cache'
p3783
asbasbasbag49
(g65
g51
NtRp3784
(dp3785
g54
(dp3786
sg63
g3692
sg56
(lp3787
g49
(g70
g51
NtRp3788
(dp3789
g54
(dp3790
g74
g75
ssg63
g3784
sg56
(lp3791
S'X-Powered-By'
p3792
asbag49
(g70
g51
NtRp3793
(dp3794
g54
(dp3795
g81
g82
ssg63
g3784
sg56
(lp3796
S':'
asbag49
(g70
g51
NtRp3797
(dp3798
g54
(dp3799
sg63
g3784
sg56
(lp3800
g49
(g50
g51
NtRp3801
(dp3802
g54
(dp3803
g62
I4
ssg63
g3797
sg56
(lp3804
S'web2py'
p3805
asbasbasbasbasbasbasbag49
(g65
g51
NtRp3806
(dp3807
g54
(dp3808
sg63
g3322
sg56
(lp3809
g49
(g70
g51
NtRp3810
(dp3811
g54
(dp3812
g74
g75
ssg63
g3806
sg56
(lp3813
S'menu'
p3814
asbag49
(g70
g51
NtRp3815
(dp3816
g54
(dp3817
g81
g82
ssg63
g3806
sg56
(lp3818
S':'
asbag49
(g70
g51
NtRp3819
(dp3820
g54
(dp3821
sg63
g3806
sg56
(lp3822
g49
(g50
g51
NtRp3823
(dp3824
g54
(dp3825
g62
I5
ssg63
g3819
sg56
(lp3826
g49
(g58
g51
NtRp3827
(dp3828
g54
(dp3829
g62
I4
ssg63
Nsg56
(lp3830
g49
(g65
g51
NtRp3831
(dp3832
g54
(dp3833
sg63
g3827
sg56
(lp3834
g49
(g70
g51
NtRp3835
(dp3836
g54
(dp3837
sg63
g3831
sg56
(lp3838
g49
(g50
g51
NtRp3839
(dp3840
g54
(dp3841
g62
I4
ssg63
g3835
sg56
(lp3842
g49
(g58
g51
NtRp3843
(dp3844
g54
(dp3845
g62
I3
ssg63
Nsg56
(lp3846
g49
(g65
g51
NtRp3847
(dp3848
g54
(dp3849
sg63
g3843
sg56
(lp3850
g49
(g70
g51
NtRp3851
(dp3852
g54
(dp3853
sg63
g3847
sg56
(lp3854
g49
(g50
g51
NtRp3855
(dp3856
g54
(dp3857
g62
I3
ssg63
g3851
sg56
(lp3858
cgluon.languages
lazyT_unpickle
p3859
(S's\x04\x00\x00\x00Home'
tRp3860
asbasbasbag49
(g65
g51
NtRp3861
(dp3862
g54
(dp3863
sg63
g3843
sg56
(lp3864
g49
(g70
g51
NtRp3865
(dp3866
g54
(dp3867
sg63
g3861
sg56
(lp3868
g49
(g50
g51
NtRp3869
(dp3870
g54
(dp3871
g62
I3
ssg63
g3865
sg56
(lp3872
g92
asbasbasbag49
(g65
g51
NtRp3873
(dp3874
g54
(dp3875
sg63
g3843
sg56
(lp3876
g49
(g70
g51
NtRp3877
(dp3878
g54
(dp3879
sg63
g3873
sg56
(lp3880
g49
(g50
g51
NtRp3881
(dp3882
g54
(dp3883
g62
I3
ssg63
g3877
sg56
(lp3884
S'/'
asbasbasbag49
(g65
g51
NtRp3885
(dp3886
g54
(dp3887
sg63
g3843
sg56
(lp3888
g49
(g70
g51
NtRp3889
(dp3890
g54
(dp3891
sg63
g3885
sg56
(lp3892
g49
(g50
g51
NtRp3893
(dp3894
g54
(dp3895
g62
I3
ssg63
g3889
sg56
(lp3896
g49
(g58
g51
NtRp3897
(dp3898
g54
(dp3899
g62
I2
ssg63
Nsg56
(lp3900
sbasbasbasbasbasbasbasbag49
(g65
g51
NtRp3901
(dp3902
g54
(dp3903
sg63
g3827
sg56
(lp3904
g49
(g70
g51
NtRp3905
(dp3906
g54
(dp3907
sg63
g3901
sg56
(lp3908
g49
(g50
g51
NtRp3909
(dp3910
g54
(dp3911
g62
I4
ssg63
g3905
sg56
(lp3912
g49
(g58
g51
NtRp3913
(dp3914
g54
(dp3915
g62
I3
ssg63
Nsg56
(lp3916
g49
(g65
g51
NtRp3917
(dp3918
g54
(dp3919
sg63
g3913
sg56
(lp3920
g49
(g70
g51
NtRp3921
(dp3922
g54
(dp3923
sg63
g3917
sg56
(lp3924
g49
(g50
g51
NtRp3925
(dp3926
g54
(dp3927
g62
I3
ssg63
g3921
sg56
(lp3928
g49
(cgluon.html
SPAN
p3929
g51
NtRp3930
(dp3931
g54
(dp3932
g74
S'color:yellow'
p3933
ssg63
Nsg56
(lp3934
g3805
asbasbasbasbag49
(g65
g51
NtRp3935
(dp3936
g54
(dp3937
sg63
g3913
sg56
(lp3938
g49
(g70
g51
NtRp3939
(dp3940
g54
(dp3941
sg63
g3935
sg56
(lp3942
g49
(g50
g51
NtRp3943
(dp3944
g54
(dp3945
g62
I3
ssg63
g3939
sg56
(lp3946
g92
asbasbasbag49
(g65
g51
NtRp3947
(dp3948
g54
(dp3949
sg63
g3913
sg56
(lp3950
g49
(g70
g51
NtRp3951
(dp3952
g54
(dp3953
sg63
g3947
sg56
(lp3954
g49
(g50
g51
NtRp3955
(dp3956
g54
(dp3957
g62
I3
ssg63
g3951
sg56
(lp3958
S'None'
p3959
asbasbasbag49
(g65
g51
NtRp3960
(dp3961
g54
(dp3962
sg63
g3913
sg56
(lp3963
g49
(g70
g51
NtRp3964
(dp3965
g54
(dp3966
sg63
g3960
sg56
(lp3967
g49
(g50
g51
NtRp3968
(dp3969
g54
(dp3970
g62
I3
ssg63
g3964
sg56
(lp3971
g49
(g58
g51
NtRp3972
(dp3973
g54
(dp3974
g62
I2
ssg63
Nsg56
(lp3975
g49
(g65
g51
NtRp3976
(dp3977
g54
(dp3978
sg63
g3972
sg56
(lp3979
g49
(g70
g51
NtRp3980
(dp3981
g54
(dp3982
sg63
g3976
sg56
(lp3983
g49
(g50
g51
NtRp3984
(dp3985
g54
(dp3986
g62
I2
ssg63
g3980
sg56
(lp3987
g49
(g58
g51
NtRp3988
(dp3989
g54
(dp3990
g62
I1
ssg63
Nsg56
(lp3991
g49
(g65
g51
NtRp3992
(dp3993
g54
(dp3994
sg63
g3988
sg56
(lp3995
g49
(g70
g51
NtRp3996
(dp3997
g54
(dp3998
sg63
g3992
sg56
(lp3999
g49
(g50
g51
NtRp4000
(dp4001
g54
(dp4002
g62
I1
ssg63
g3996
sg56
(lp4003
g3859
(S's\x08\x00\x00\x00My Sites'
tRp4004
asbasbasbag49
(g65
g51
NtRp4005
(dp4006
g54
(dp4007
sg63
g3988
sg56
(lp4008
g49
(g70
g51
NtRp4009
(dp4010
g54
(dp4011
sg63
g4005
sg56
(lp4012
g49
(g50
g51
NtRp4013
(dp4014
g54
(dp4015
g62
I1
ssg63
g4009
sg56
(lp4016
I00
asbasbasbag49
(g65
g51
NtRp4017
(dp4018
g54
(dp4019
sg63
g3988
sg56
(lp4020
g49
(g70
g51
NtRp4021
(dp4022
g54
(dp4023
sg63
g4017
sg56
(lp4024
g49
(g50
g51
NtRp4025
(dp4026
g54
(dp4027
g62
I1
ssg63
g4021
sg56
(lp4028
S'/admin/site'
p4029
asbasbasbasbasbasbasbag49
(g65
g51
NtRp4030
(dp4031
g54
(dp4032
sg63
g3972
sg56
(lp4033
g49
(g70
g51
NtRp4034
(dp4035
g54
(dp4036
sg63
g4030
sg56
(lp4037
g49
(g50
g51
NtRp4038
(dp4039
g54
(dp4040
g62
I2
ssg63
g4034
sg56
(lp4041
g49
(g58
g51
NtRp4042
(dp4043
g54
(dp4044
g62
I1
ssg63
Nsg56
(lp4045
g49
(g65
g51
NtRp4046
(dp4047
g54
(dp4048
sg63
g4042
sg56
(lp4049
g49
(g70
g51
NtRp4050
(dp4051
g54
(dp4052
sg63
g4046
sg56
(lp4053
g49
(g50
g51
NtRp4054
(dp4055
g54
(dp4056
g62
I1
ssg63
g4050
sg56
(lp4057
g3859
(S's\x08\x00\x00\x00This App'
tRp4058
asbasbasbag49
(g65
g51
NtRp4059
(dp4060
g54
(dp4061
sg63
g4042
sg56
(lp4062
g49
(g70
g51
NtRp4063
(dp4064
g54
(dp4065
sg63
g4059
sg56
(lp4066
g49
(g50
g51
NtRp4067
(dp4068
g54
(dp4069
g62
I1
ssg63
g4063
sg56
(lp4070
I00
asbasbasbag49
(g65
g51
NtRp4071
(dp4072
g54
(dp4073
sg63
g4042
sg56
(lp4074
g49
(g70
g51
NtRp4075
(dp4076
g54
(dp4077
sg63
g4071
sg56
(lp4078
g49
(g50
g51
NtRp4079
(dp4080
g54
(dp4081
g62
I1
ssg63
g4075
sg56
(lp4082
S'/admin/design/udi0312'
p4083
asbasbasbag49
(g65
g51
NtRp4084
(dp4085
g54
(dp4086
sg63
g4042
sg56
(lp4087
g49
(g70
g51
NtRp4088
(dp4089
g54
(dp4090
sg63
g4084
sg56
(lp4091
g49
(g50
g51
NtRp4092
(dp4093
g54
(dp4094
g62
I1
ssg63
g4088
sg56
(lp4095
(lp4096
(g3859
(S's\n\x00\x00\x00Controller'
tRp4097
I00
S'/admin/edit/udi0312/controllers/default.py'
tp4098
a(g3859
(S's\x04\x00\x00\x00View'
tRp4099
I00
S'/admin/edit/udi0312/views/default/index.html'
tp4100
a(g3859
(S's\x06\x00\x00\x00Layout'
tRp4101
I00
S'/admin/edit/udi0312/views/layout.html'
tp4102
a(g3859
(S's\n\x00\x00\x00Stylesheet'
tRp4103
I00
S'/admin/edit/udi0312/static/css/web2py.css'
tp4104
a(g3859
(S's\x08\x00\x00\x00DB Model'
tRp4105
I00
S'/admin/edit/udi0312/models/db.py'
tp4106
a(g3859
(S's\n\x00\x00\x00Menu Model'
tRp4107
I00
S'/admin/edit/udi0312/models/menu.py'
tp4108
a(g3859
(S's\x08\x00\x00\x00Database'
tRp4109
I00
S'/appadmin'
tp4110
a(g3859
(S's\x06\x00\x00\x00Errors'
tRp4111
I00
S'/admin/errors/udi0312'
tp4112
a(g3859
(S's\x05\x00\x00\x00About'
tRp4113
I00
S'/admin/about/udi0312'
tp4114
aasbasbasbasbasbasbasbag49
(g65
g51
NtRp4115
(dp4116
g54
(dp4117
sg63
g3972
sg56
(lp4118
g49
(g70
g51
NtRp4119
(dp4120
g54
(dp4121
sg63
g4115
sg56
(lp4122
g49
(g50
g51
NtRp4123
(dp4124
g54
(dp4125
g62
I2
ssg63
g4119
sg56
(lp4126
g49
(g58
g51
NtRp4127
(dp4128
g54
(dp4129
g62
I1
ssg63
Nsg56
(lp4130
g49
(g65
g51
NtRp4131
(dp4132
g54
(dp4133
sg63
g4127
sg56
(lp4134
g49
(g70
g51
NtRp4135
(dp4136
g54
(dp4137
sg63
g4131
sg56
(lp4138
g49
(g50
g51
NtRp4139
(dp4140
g54
(dp4141
g62
I1
ssg63
g4135
sg56
(lp4142
S'web2py.com'
p4143
asbasbasbag49
(g65
g51
NtRp4144
(dp4145
g54
(dp4146
sg63
g4127
sg56
(lp4147
g49
(g70
g51
NtRp4148
(dp4149
g54
(dp4150
sg63
g4144
sg56
(lp4151
g49
(g50
g51
NtRp4152
(dp4153
g54
(dp4154
g62
I1
ssg63
g4148
sg56
(lp4155
I00
asbasbasbag49
(g65
g51
NtRp4156
(dp4157
g54
(dp4158
sg63
g4127
sg56
(lp4159
g49
(g70
g51
NtRp4160
(dp4161
g54
(dp4162
sg63
g4156
sg56
(lp4163
g49
(g50
g51
NtRp4164
(dp4165
g54
(dp4166
g62
I1
ssg63
g4160
sg56
(lp4167
S'http://www.web2py.com'
p4168
asbasbasbag49
(g65
g51
NtRp4169
(dp4170
g54
(dp4171
sg63
g4127
sg56
(lp4172
g49
(g70
g51
NtRp4173
(dp4174
g54
(dp4175
sg63
g4169
sg56
(lp4176
g49
(g50
g51
NtRp4177
(dp4178
g54
(dp4179
g62
I1
ssg63
g4173
sg56
(lp4180
(lp4181
(g3859
(S's\x08\x00\x00\x00Download'
tRp4182
I00
S'http://www.web2py.com/examples/default/download'
p4183
tp4184
a(g3859
(S's\x07\x00\x00\x00Support'
tRp4185
I00
S'http://www.web2py.com/examples/default/support'
p4186
tp4187
a(g3859
(S's\x04\x00\x00\x00Demo'
tRp4188
I00
S'http://web2py.com/demo_admin'
p4189
tp4190
a(g3859
(S's\x0e\x00\x00\x00Quick Examples'
tRp4191
I00
S'http://web2py.com/examples/default/examples'
p4192
tp4193
a(g3859
(S's\x03\x00\x00\x00FAQ'
tRp4194
I00
S'http://web2py.com/AlterEgo'
p4195
tp4196
a(g3859
(S's\x06\x00\x00\x00Videos'
tRp4197
I00
S'http://www.web2py.com/examples/default/videos/'
p4198
tp4199
a(g3859
(S's\x11\x00\x00\x00Free Applications'
tRp4200
I00
S'http://web2py.com/appliances'
p4201
tp4202
a(g3859
(S's\x07\x00\x00\x00Plugins'
tRp4203
I00
S'http://web2py.com/plugins'
p4204
tp4205
a(g3859
(S's\x07\x00\x00\x00Layouts'
tRp4206
I00
S'http://web2py.com/layouts'
p4207
tp4208
a(g3859
(S's\x07\x00\x00\x00Recipes'
tRp4209
I00
S'http://web2pyslices.com/'
p4210
tp4211
a(g3859
(S's\x08\x00\x00\x00Semantic'
tRp4212
I00
S'http://web2py.com/semantic'
p4213
tp4214
aasbasbasbasbasbasbasbag49
(g65
g51
NtRp4215
(dp4216
g54
(dp4217
sg63
g3972
sg56
(lp4218
g49
(g70
g51
NtRp4219
(dp4220
g54
(dp4221
sg63
g4215
sg56
(lp4222
g49
(g50
g51
NtRp4223
(dp4224
g54
(dp4225
g62
I2
ssg63
g4219
sg56
(lp4226
g49
(g58
g51
NtRp4227
(dp4228
g54
(dp4229
g62
I1
ssg63
Nsg56
(lp4230
g49
(g65
g51
NtRp4231
(dp4232
g54
(dp4233
sg63
g4227
sg56
(lp4234
g49
(g70
g51
NtRp4235
(dp4236
g54
(dp4237
sg63
g4231
sg56
(lp4238
g49
(g50
g51
NtRp4239
(dp4240
g54
(dp4241
g62
I1
ssg63
g4235
sg56
(lp4242
g3859
(S's\r\x00\x00\x00Documentation'
tRp4243
asbasbasbag49
(g65
g51
NtRp4244
(dp4245
g54
(dp4246
sg63
g4227
sg56
(lp4247
g49
(g70
g51
NtRp4248
(dp4249
g54
(dp4250
sg63
g4244
sg56
(lp4251
g49
(g50
g51
NtRp4252
(dp4253
g54
(dp4254
g62
I1
ssg63
g4248
sg56
(lp4255
I00
asbasbasbag49
(g65
g51
NtRp4256
(dp4257
g54
(dp4258
sg63
g4227
sg56
(lp4259
g49
(g70
g51
NtRp4260
(dp4261
g54
(dp4262
sg63
g4256
sg56
(lp4263
g49
(g50
g51
NtRp4264
(dp4265
g54
(dp4266
g62
I1
ssg63
g4260
sg56
(lp4267
S'http://www.web2py.com/book'
p4268
asbasbasbag49
(g65
g51
NtRp4269
(dp4270
g54
(dp4271
sg63
g4227
sg56
(lp4272
g49
(g70
g51
NtRp4273
(dp4274
g54
(dp4275
sg63
g4269
sg56
(lp4276
g49
(g50
g51
NtRp4277
(dp4278
g54
(dp4279
g62
I1
ssg63
g4273
sg56
(lp4280
(lp4281
(g3859
(S's\x07\x00\x00\x00Preface'
tRp4282
I00
S'http://www.web2py.com/book/default/chapter/00'
p4283
tp4284
a(g3859
(S's\x0c\x00\x00\x00Introduction'
tRp4285
I00
S'http://www.web2py.com/book/default/chapter/01'
p4286
tp4287
a(g3859
(S's\x06\x00\x00\x00Python'
tRp4288
I00
S'http://www.web2py.com/book/default/chapter/02'
p4289
tp4290
a(g3859
(S's\x08\x00\x00\x00Overview'
tRp4291
I00
S'http://www.web2py.com/book/default/chapter/03'
p4292
tp4293
a(g3859
(S's\x08\x00\x00\x00The Core'
tRp4294
I00
S'http://www.web2py.com/book/default/chapter/04'
p4295
tp4296
a(g3859
(S's\t\x00\x00\x00The Views'
tRp4297
I00
S'http://www.web2py.com/book/default/chapter/05'
p4298
tp4299
a(g3859
(S's\x08\x00\x00\x00Database'
tRp4300
I00
S'http://www.web2py.com/book/default/chapter/06'
p4301
tp4302
a(g3859
(S's\x14\x00\x00\x00Forms and Validators'
tRp4303
I00
S'http://www.web2py.com/book/default/chapter/07'
p4304
tp4305
a(g3859
(S's\r\x00\x00\x00Email and SMS'
tRp4306
I00
S'http://www.web2py.com/book/default/chapter/08'
p4307
tp4308
a(g3859
(S's\x0e\x00\x00\x00Access Control'
tRp4309
I00
S'http://www.web2py.com/book/default/chapter/09'
p4310
tp4311
a(g3859
(S's\x08\x00\x00\x00Services'
tRp4312
I00
S'http://www.web2py.com/book/default/chapter/10'
p4313
tp4314
a(g3859
(S's\x0c\x00\x00\x00Ajax Recipes'
tRp4315
I00
S'http://www.web2py.com/book/default/chapter/11'
p4316
tp4317
a(g3859
(S's\x16\x00\x00\x00Components and Plugins'
tRp4318
I00
S'http://www.web2py.com/book/default/chapter/12'
p4319
tp4320
a(g3859
(S's\x12\x00\x00\x00Deployment Recipes'
tRp4321
I00
S'http://www.web2py.com/book/default/chapter/13'
p4322
tp4323
a(g3859
(S's\r\x00\x00\x00Other Recipes'
tRp4324
I00
S'http://www.web2py.com/book/default/chapter/14'
p4325
tp4326
a(g3859
(S's\r\x00\x00\x00Buy this book'
tRp4327
I00
S'http://stores.lulu.com/web2py'
p4328
tp4329
aasbasbasbasbasbasbasbag49
(g65
g51
NtRp4330
(dp4331
g54
(dp4332
sg63
g3972
sg56
(lp4333
g49
(g70
g51
NtRp4334
(dp4335
g54
(dp4336
sg63
g4330
sg56
(lp4337
g49
(g50
g51
NtRp4338
(dp4339
g54
(dp4340
g62
I2
ssg63
g4334
sg56
(lp4341
g49
(g58
g51
NtRp4342
(dp4343
g54
(dp4344
g62
I1
ssg63
Nsg56
(lp4345
g49
(g65
g51
NtRp4346
(dp4347
g54
(dp4348
sg63
g4342
sg56
(lp4349
g49
(g70
g51
NtRp4350
(dp4351
g54
(dp4352
sg63
g4346
sg56
(lp4353
g49
(g50
g51
NtRp4354
(dp4355
g54
(dp4356
g62
I1
ssg63
g4350
sg56
(lp4357
g3859
(S's\t\x00\x00\x00Community'
tRp4358
asbasbasbag49
(g65
g51
NtRp4359
(dp4360
g54
(dp4361
sg63
g4342
sg56
(lp4362
g49
(g70
g51
NtRp4363
(dp4364
g54
(dp4365
sg63
g4359
sg56
(lp4366
g49
(g50
g51
NtRp4367
(dp4368
g54
(dp4369
g62
I1
ssg63
g4363
sg56
(lp4370
I00
asbasbasbag49
(g65
g51
NtRp4371
(dp4372
g54
(dp4373
sg63
g4342
sg56
(lp4374
g49
(g70
g51
NtRp4375
(dp4376
g54
(dp4377
sg63
g4371
sg56
(lp4378
g49
(g50
g51
NtRp4379
(dp4380
g54
(dp4381
g62
I1
ssg63
g4375
sg56
(lp4382
Nasbasbasbag49
(g65
g51
NtRp4383
(dp4384
g54
(dp4385
sg63
g4342
sg56
(lp4386
g49
(g70
g51
NtRp4387
(dp4388
g54
(dp4389
sg63
g4383
sg56
(lp4390
g49
(g50
g51
NtRp4391
(dp4392
g54
(dp4393
g62
I1
ssg63
g4387
sg56
(lp4394
(lp4395
(g3859
(S's\x06\x00\x00\x00Groups'
tRp4396
I00
S'http://www.web2py.com/examples/default/usergroups'
p4397
tp4398
a(g3859
(S's\x07\x00\x00\x00Twitter'
tRp4399
I00
S'http://twitter.com/web2py'
p4400
tp4401
a(g3859
(S's\t\x00\x00\x00Live Chat'
tRp4402
I00
S'http://webchat.freenode.net/?channels=web2py'
p4403
tp4404
aasbasbasbasbasbasbasbag49
(g65
g51
NtRp4405
(dp4406
g54
(dp4407
sg63
g3972
sg56
(lp4408
g49
(g70
g51
NtRp4409
(dp4410
g54
(dp4411
sg63
g4405
sg56
(lp4412
g49
(g50
g51
NtRp4413
(dp4414
g54
(dp4415
g62
I2
ssg63
g4409
sg56
(lp4416
g49
(g58
g51
NtRp4417
(dp4418
g54
(dp4419
g62
I1
ssg63
Nsg56
(lp4420
g49
(g65
g51
NtRp4421
(dp4422
g54
(dp4423
sg63
g4417
sg56
(lp4424
g49
(g70
g51
NtRp4425
(dp4426
g54
(dp4427
sg63
g4421
sg56
(lp4428
g49
(g50
g51
NtRp4429
(dp4430
g54
(dp4431
g62
I1
ssg63
g4425
sg56
(lp4432
g3859
(S's\x07\x00\x00\x00Plugins'
tRp4433
asbasbasbag49
(g65
g51
NtRp4434
(dp4435
g54
(dp4436
sg63
g4417
sg56
(lp4437
g49
(g70
g51
NtRp4438
(dp4439
g54
(dp4440
sg63
g4434
sg56
(lp4441
g49
(g50
g51
NtRp4442
(dp4443
g54
(dp4444
g62
I1
ssg63
g4438
sg56
(lp4445
I00
asbasbasbag49
(g65
g51
NtRp4446
(dp4447
g54
(dp4448
sg63
g4417
sg56
(lp4449
g49
(g70
g51
NtRp4450
(dp4451
g54
(dp4452
sg63
g4446
sg56
(lp4453
g49
(g50
g51
NtRp4454
(dp4455
g54
(dp4456
g62
I1
ssg63
g4450
sg56
(lp4457
Nasbasbasbag49
(g65
g51
NtRp4458
(dp4459
g54
(dp4460
sg63
g4417
sg56
(lp4461
g49
(g70
g51
NtRp4462
(dp4463
g54
(dp4464
sg63
g4458
sg56
(lp4465
g49
(g50
g51
NtRp4466
(dp4467
g54
(dp4468
g62
I1
ssg63
g4462
sg56
(lp4469
(lp4470
(S'plugin_wiki'
p4471
I00
S'http://web2py.com/examples/default/download'
p4472
tp4473
a(g3859
(S's\r\x00\x00\x00Other Plugins'
tRp4474
I00
g4204
tp4475
a(g3859
(S's\x0e\x00\x00\x00Layout Plugins'
tRp4476
I00
g4207
tp4477
aasbasbasbasbasbasbasbasbasbasbasbasbasbasbasbasbasbasbasbag49
(g65
g51
NtRp4478
(dp4479
g54
(dp4480
sg63
g3322
sg56
(lp4481
g49
(g70
g51
NtRp4482
(dp4483
g54
(dp4484
g74
g75
ssg63
g4478
sg56
(lp4485
S'meta'
p4486
asbag49
(g70
g51
NtRp4487
(dp4488
g54
(dp4489
g81
g82
ssg63
g4478
sg56
(lp4490
S':'
asbag49
(g70
g51
NtRp4491
(dp4492
g54
(dp4493
sg63
g4478
sg56
(lp4494
g49
(g50
g51
NtRp4495
(dp4496
g54
(dp4497
g62
I5
ssg63
g4491
sg56
(lp4498
g49
(g58
g51
NtRp4499
(dp4500
g54
(dp4501
g62
I4
ssg63
Nsg56
(lp4502
g49
(g65
g51
NtRp4503
(dp4504
g54
(dp4505
sg63
g4499
sg56
(lp4506
g49
(g70
g51
NtRp4507
(dp4508
g54
(dp4509
g74
g75
ssg63
g4503
sg56
(lp4510
S'author'
p4511
asbag49
(g70
g51
NtRp4512
(dp4513
g54
(dp4514
g81
g82
ssg63
g4503
sg56
(lp4515
S':'
asbag49
(g70
g51
NtRp4516
(dp4517
g54
(dp4518
sg63
g4503
sg56
(lp4519
g49
(g50
g51
NtRp4520
(dp4521
g54
(dp4522
g62
I4
ssg63
g4516
sg56
(lp4523
S'Udi Milo'
p4524
asbasbasbag49
(g65
g51
NtRp4525
(dp4526
g54
(dp4527
sg63
g4499
sg56
(lp4528
g49
(g70
g51
NtRp4529
(dp4530
g54
(dp4531
g74
g75
ssg63
g4525
sg56
(lp4532
S'description'
p4533
asbag49
(g70
g51
NtRp4534
(dp4535
g54
(dp4536
g81
g82
ssg63
g4525
sg56
(lp4537
S':'
asbag49
(g70
g51
NtRp4538
(dp4539
g54
(dp4540
sg63
g4525
sg56
(lp4541
g49
(g50
g51
NtRp4542
(dp4543
g54
(dp4544
g62
I4
ssg63
g4538
sg56
(lp4545
S'Curate, organize and share your web resources'
p4546
asbasbasbasbasbasbasbag49
(g65
g51
NtRp4547
(dp4548
g54
(dp4549
sg63
g3322
sg56
(lp4550
g49
(g70
g51
NtRp4551
(dp4552
g54
(dp4553
g74
g75
ssg63
g4547
sg56
(lp4554
S'postprocessing'
p4555
asbag49
(g70
g51
NtRp4556
(dp4557
g54
(dp4558
g81
g82
ssg63
g4547
sg56
(lp4559
S':'
asbag49
(g70
g51
NtRp4560
(dp4561
g54
(dp4562
sg63
g4547
sg56
(lp4563
g49
(g50
g51
NtRp4564
(dp4565
g54
(dp4566
g62
I5
ssg63
g4560
sg56
(lp4567
g49
(g58
g51
NtRp4568
(dp4569
g54
(dp4570
g62
I4
ssg63
Nsg56
(lp4571
sbasbasbasbag49
(g65
g51
NtRp4572
(dp4573
g54
(dp4574
sg63
g3322
sg56
(lp4575
g49
(g70
g51
NtRp4576
(dp4577
g54
(dp4578
g74
g75
ssg63
g4572
sg56
(lp4579
S'session_file'
p4580
asbag49
(g70
g51
NtRp4581
(dp4582
g54
(dp4583
g81
g82
ssg63
g4572
sg56
(lp4584
S':'
asbag49
(g70
g51
NtRp4585
(dp4586
g54
(dp4587
sg63
g4572
sg56
(lp4588
g49
(g50
g51
NtRp4589
(dp4590
g54
(dp4591
g62
I5
ssg63
g4585
sg56
(lp4592
S"<open file '/Users/udimilo/Documents/web2py/applications/udi0312/sessions/127.0.0.1-8a3bdcbc-10a2-4be7-917a-ea873784c1ca', mode 'rb+' at 0xa4e09b0>"
p4593
asbasbasbag49
(g65
g51
NtRp4594
(dp4595
g54
(dp4596
sg63
g3322
sg56
(lp4597
g49
(g70
g51
NtRp4598
(dp4599
g54
(dp4600
g74
g75
ssg63
g4594
sg56
(lp4601
S'session_filename'
p4602
asbag49
(g70
g51
NtRp4603
(dp4604
g54
(dp4605
g81
g82
ssg63
g4594
sg56
(lp4606
S':'
asbag49
(g70
g51
NtRp4607
(dp4608
g54
(dp4609
sg63
g4594
sg56
(lp4610
g49
(g50
g51
NtRp4611
(dp4612
g54
(dp4613
g62
I5
ssg63
g4607
sg56
(lp4614
S'/Users/udimilo/Documents/web2py/applications/udi0312/sessions/127.0.0.1-8a3bdcbc-10a2-4be7-917a-ea873784c1ca'
p4615
asbasbasbag49
(g65
g51
NtRp4616
(dp4617
g54
(dp4618
sg63
g3322
sg56
(lp4619
g49
(g70
g51
NtRp4620
(dp4621
g54
(dp4622
g74
g75
ssg63
g4616
sg56
(lp4623
S'session_id'
p4624
asbag49
(g70
g51
NtRp4625
(dp4626
g54
(dp4627
g81
g82
ssg63
g4616
sg56
(lp4628
S':'
asbag49
(g70
g51
NtRp4629
(dp4630
g54
(dp4631
sg63
g4616
sg56
(lp4632
g49
(g50
g51
NtRp4633
(dp4634
g54
(dp4635
g62
I5
ssg63
g4629
sg56
(lp4636
S'127.0.0.1-8a3bdcbc-10a2-4be7-917a-ea873784c1ca'
p4637
asbasbasbag49
(g65
g51
NtRp4638
(dp4639
g54
(dp4640
sg63
g3322
sg56
(lp4641
g49
(g70
g51
NtRp4642
(dp4643
g54
(dp4644
g74
g75
ssg63
g4638
sg56
(lp4645
S'session_id_name'
p4646
asbag49
(g70
g51
NtRp4647
(dp4648
g54
(dp4649
g81
g82
ssg63
g4638
sg56
(lp4650
S':'
asbag49
(g70
g51
NtRp4651
(dp4652
g54
(dp4653
sg63
g4638
sg56
(lp4654
g49
(g50
g51
NtRp4655
(dp4656
g54
(dp4657
g62
I5
ssg63
g4651
sg56
(lp4658
g3379
asbasbasbag49
(g65
g51
NtRp4659
(dp4660
g54
(dp4661
sg63
g3322
sg56
(lp4662
g49
(g70
g51
NtRp4663
(dp4664
g54
(dp4665
g74
g75
ssg63
g4659
sg56
(lp4666
S'session_locked'
p4667
asbag49
(g70
g51
NtRp4668
(dp4669
g54
(dp4670
g81
g82
ssg63
g4659
sg56
(lp4671
S':'
asbag49
(g70
g51
NtRp4672
(dp4673
g54
(dp4674
sg63
g4659
sg56
(lp4675
g49
(g50
g51
NtRp4676
(dp4677
g54
(dp4678
g62
I5
ssg63
g4672
sg56
(lp4679
g1508
asbasbasbag49
(g65
g51
NtRp4680
(dp4681
g54
(dp4682
sg63
g3322
sg56
(lp4683
g49
(g70
g51
NtRp4684
(dp4685
g54
(dp4686
g74
g75
ssg63
g4680
sg56
(lp4687
S'session_new'
p4688
asbag49
(g70
g51
NtRp4689
(dp4690
g54
(dp4691
g81
g82
ssg63
g4680
sg56
(lp4692
S':'
asbag49
(g70
g51
NtRp4693
(dp4694
g54
(dp4695
sg63
g4680
sg56
(lp4696
g49
(g50
g51
NtRp4697
(dp4698
g54
(dp4699
g62
I5
ssg63
g4693
sg56
(lp4700
g92
asbasbasbag49
(g65
g51
NtRp4701
(dp4702
g54
(dp4703
sg63
g3322
sg56
(lp4704
g49
(g70
g51
NtRp4705
(dp4706
g54
(dp4707
g74
g75
ssg63
g4701
sg56
(lp4708
S'status'
p4709
asbag49
(g70
g51
NtRp4710
(dp4711
g54
(dp4712
g81
g82
ssg63
g4701
sg56
(lp4713
S':'
asbag49
(g70
g51
NtRp4714
(dp4715
g54
(dp4716
sg63
g4701
sg56
(lp4717
g49
(g50
g51
NtRp4718
(dp4719
g54
(dp4720
g62
I5
ssg63
g4714
sg56
(lp4721
S'200'
p4722
asbasbasbag49
(g65
g51
NtRp4723
(dp4724
g54
(dp4725
sg63
g3322
sg56
(lp4726
g49
(g70
g51
NtRp4727
(dp4728
g54
(dp4729
g74
g75
ssg63
g4723
sg56
(lp4730
S'title'
p4731
asbag49
(g70
g51
NtRp4732
(dp4733
g54
(dp4734
g81
g82
ssg63
g4723
sg56
(lp4735
S':'
asbag49
(g70
g51
NtRp4736
(dp4737
g54
(dp4738
sg63
g4723
sg56
(lp4739
g49
(g50
g51
NtRp4740
(dp4741
g54
(dp4742
g62
I5
ssg63
g4736
sg56
(lp4743
S'inFormation - Curate The Web'
p4744
asbasbasbag49
(g65
g51
NtRp4745
(dp4746
g54
(dp4747
sg63
g3322
sg56
(lp4748
g49
(g70
g51
NtRp4749
(dp4750
g54
(dp4751
g74
g75
ssg63
g4745
sg56
(lp4752
g2171
asbag49
(g70
g51
NtRp4753
(dp4754
g54
(dp4755
g81
g82
ssg63
g4745
sg56
(lp4756
S':'
asbag49
(g70
g51
NtRp4757
(dp4758
g54
(dp4759
sg63
g4745
sg56
(lp4760
g49
(g50
g51
NtRp4761
(dp4762
g54
(dp4763
g62
I5
ssg63
g4757
sg56
(lp4764
g2184
asbasbasbag49
(g65
g51
NtRp4765
(dp4766
g54
(dp4767
sg63
g3322
sg56
(lp4768
g49
(g70
g51
NtRp4769
(dp4770
g54
(dp4771
g74
g75
ssg63
g4765
sg56
(lp4772
S'view'
p4773
asbag49
(g70
g51
NtRp4774
(dp4775
g54
(dp4776
g81
g82
ssg63
g4765
sg56
(lp4777
S':'
asbag49
(g70
g51
NtRp4778
(dp4779
g54
(dp4780
sg63
g4765
sg56
(lp4781
g49
(g50
g51
NtRp4782
(dp4783
g54
(dp4784
g62
I5
ssg63
g4778
sg56
(lp4785
S'default/index.html'
p4786
asbasbasbasbasbsS'locals'
p4787
(dp4788
S'Service'
p4789
S"<class 'gluon.tools.Service'>"
p4790
sS'OBJECT'
p4791
S"<class 'gluon.html.OBJECT'>"
p4792
sS'SQLDB'
p4793
S"<class 'gluon.dal.DAL'>"
p4794
sg2949
S'<Storage {\'_Session__hash\': \'\\xaf:k\\\\"8\\xde\\x89\\...: {\'version\': \'17.0.963.79\', \'name\': \'Chrome\'}}}>'
p4795
sS'LINK'
p4796
S"<class 'gluon.html.LINK'>"
p4797
sS'BR'
p4798
S"<class 'gluon.html.BR'>"
p4799
sS'local_import'
p4800
S'<function <lambda> at 0xa13ab70>'
p4801
sS'OPTGROUP'
p4802
S"<class 'gluon.html.OPTGROUP'>"
p4803
sS'show_pinner'
p4804
g1508
sS'PRE'
p4805
S"<class 'gluon.html.PRE'>"
p4806
sS'IS_INT_IN_RANGE'
p4807
S"<class 'gluon.validators.IS_INT_IN_RANGE'>"
p4808
sS'IS_LOWER'
p4809
S"<class 'gluon.validators.IS_LOWER'>"
p4810
sS'IS_STRONG'
p4811
S"<class 'gluon.validators.IS_STRONG'>"
p4812
sS'cache'
p4813
S'<gluon.cache.Cache object at 0xa71bc70>'
p4814
sS'IS_IN_DB'
p4815
S"<class 'gluon.validators.IS_IN_DB'>"
p4816
sS'TAG'
p4817
S'<gluon.html.__TAG__ object at 0x12308b0>'
p4818
sS'board'
p4819
S"<Row {'category': 6, 'name': 'ccccc', 'pin': <gl... <gluon.dal.Set object at 0xa21c730>, 'user': 1}>"
p4820
sS'SQLField'
p4821
S"<class 'gluon.dal.Field'>"
p4822
sS'mail'
p4823
S'<gluon.tools.Mail object at 0xa72a390>'
p4824
sS'BODY'
p4825
S"<class 'gluon.html.BODY'>"
p4826
sS'IS_DATE_IN_RANGE'
p4827
S"<class 'gluon.validators.IS_DATE_IN_RANGE'>"
p4828
sS'TH'
p4829
S"<class 'gluon.html.TH'>"
p4830
sS'URL'
p4831
S'<function URL at 0x1241bf0>'
p4832
sS'__file__'
p4833
S"'/Users/udimilo/Documents/web2py/applications/udi0312/views/default/index.html'"
p4834
sS'db'
p4835
S"<DAL {'auth_event': <Table {'origin': <gluon.dal...n_key': <gluon.dal.Field object at 0xa2586d0>}>}>"
p4836
sS'auth'
p4837
S'<gluon.tools.Auth object at 0xa72a6f0>'
p4838
sS'P'
S"<class 'gluon.html.P'>"
p4839
sS'TFOOT'
p4840
S"<class 'gluon.html.TFOOT'>"
p4841
sS'XHTML'
p4842
S"<class 'gluon.html.XHTML'>"
p4843
sS'categories'
p4844
S'<gluon.dal.Rows object at 0xa71b7d0>'
p4845
sS'ON'
p4846
g1508
sS'OL'
p4847
S"<class 'gluon.html.OL'>"
p4848
sS'TEXTAREA'
p4849
S"<class 'gluon.html.TEXTAREA'>"
p4850
sS'MENU'
p4851
S"<class 'gluon.html.MENU'>"
p4852
sS'LOAD'
p4853
S'<function LOAD at 0x20ebfb0>'
p4854
sS'CODE'
p4855
S"<class 'gluon.html.CODE'>"
p4856
sS'HTTP'
p4857
S"<class 'gluon.http.HTTP'>"
p4858
sS'HR'
p4859
S"<class 'gluon.html.HR'>"
p4860
sS'IS_DATETIME'
p4861
S"<class 'gluon.validators.IS_DATETIME'>"
p4862
sS'HEAD'
p4863
S"<class 'gluon.html.HEAD'>"
p4864
sS'LABEL'
p4865
S"<class 'gluon.html.LABEL'>"
p4866
sS'CLEANUP'
p4867
S"<class 'gluon.validators.CLEANUP'>"
p4868
sS'result'
p4869
S'set([None, 26, 38])'
p4870
sS'plugins'
p4871
S'<gluon.tools.PluginManager object at 0xa283cd0>'
p4872
sS'SELECT'
p4873
S"<class 'gluon.html.SELECT'>"
p4874
sS'CENTER'
p4875
S"<class 'gluon.html.CENTER'>"
p4876
sS'prettydate'
p4877
S'<function prettydate at 0x9d60730>'
p4878
sS'Crud'
p4879
S"<class 'gluon.tools.Crud'>"
p4880
sS'Auth'
p4881
S"<class 'gluon.tools.Auth'>"
p4882
sS'__builtins__'
p4883
S"{'ArithmeticError': <type 'exceptions.ArithmeticError'>, 'AssertionError': <type 'exceptions.AssertionError'>, 'AttributeError': <type 'exceptions.AttributeError'>, 'BaseException': <type 'exceptions.BaseException'>, 'DeprecationWarning': <type 'exceptions.DeprecationWarning'>, 'EOFError': <type 'exceptions.EOFError'>, 'Ellipsis': Ellipsis, 'EnvironmentError': <type 'exceptions.EnvironmentError'>, 'Exception': <type 'exceptions.Exception'>, 'False': False, ...}"
p4884
sS'HTML'
p4885
S"<class 'gluon.html.HTML'>"
p4886
sS'SQLFORM'
p4887
S"<class 'gluon.sqlhtml.SQLFORM'>"
p4888
sS'EM'
p4889
S"<class 'gluon.html.EM'>"
p4890
sS'redirect'
p4891
S'<function redirect at 0x654330>'
p4892
sS'FIELDSET'
p4893
S"<class 'gluon.html.FIELDSET'>"
p4894
sS'IS_EQUAL_TO'
p4895
S"<class 'gluon.validators.IS_EQUAL_TO'>"
p4896
sS'embed64'
p4897
S'<function embed64 at 0x1244730>'
p4898
sS'IS_LIST_OF'
p4899
S"<class 'gluon.validators.IS_LIST_OF'>"
p4900
sS'__name__'
p4901
S"'__restricted__'"
p4902
sS'EMBED'
p4903
S"<class 'gluon.html.EMBED'>"
p4904
sS'_'
S'<function _ at 0xa13acf0>'
p4905
sS'FORM'
p4906
S"<class 'gluon.html.FORM'>"
p4907
sS'boards'
p4908
S'<gluon.dal.Rows object at 0x9ff28d0>'
p4909
sS'H2'
p4910
S"<class 'gluon.html.H2'>"
p4911
sS'H3'
p4912
S"<class 'gluon.html.H3'>"
p4913
sS'BUTTON'
p4914
S"<class 'gluon.html.BUTTON'>"
p4915
sS'H1'
p4916
S"<class 'gluon.html.H1'>"
p4917
sS'H6'
p4918
S"<class 'gluon.html.H6'>"
p4919
sS'H4'
p4920
S"<class 'gluon.html.H4'>"
p4921
sS'H5'
p4922
S"<class 'gluon.html.H5'>"
p4923
sS'UL'
p4924
S"<class 'gluon.html.UL'>"
p4925
sS'IS_UPPER'
p4926
S"<class 'gluon.validators.IS_UPPER'>"
p4927
sS'xmlescape'
p4928
S'<function xmlescape at 0x1241b70>'
p4929
sS'IS_TIME'
p4930
S"<class 'gluon.validators.IS_TIME'>"
p4931
sS'OPTION'
p4932
S"<class 'gluon.html.OPTION'>"
p4933
sS'TITLE'
p4934
S"<class 'gluon.html.TITLE'>"
p4935
sS'CRYPT'
p4936
S"<class 'gluon.validators.CRYPT'>"
p4937
sS'IS_EMPTY_OR'
p4938
S"<class 'gluon.validators.IS_EMPTY_OR'>"
p4939
sS'MARKMIN'
p4940
S"<class 'gluon.html.MARKMIN'>"
p4941
sS'INPUT'
p4942
S"<class 'gluon.html.INPUT'>"
p4943
sS'COL'
p4944
S"<class 'gluon.html.COL'>"
p4945
sS'service'
p4946
S'<gluon.tools.Service object at 0xa2589f0>'
p4947
sS'SCRIPT'
p4948
S"<class 'gluon.html.SCRIPT'>"
p4949
sS'TABLE'
p4950
S"<class 'gluon.html.TABLE'>"
p4951
sS'IS_IPV4'
p4952
S"<class 'gluon.validators.IS_IPV4'>"
p4953
sS'IS_LENGTH'
p4954
S"<class 'gluon.validators.IS_LENGTH'>"
p4955
sS'XML'
p4956
S"<class 'gluon.html.XML'>"
p4957
sS'B'
S"<class 'gluon.html.B'>"
p4958
sS'IMG'
p4959
S"<class 'gluon.html.IMG'>"
p4960
sS'SQLTABLE'
p4961
S"<class 'gluon.sqlhtml.SQLTABLE'>"
p4962
sS'IS_MATCH'
p4963
S"<class 'gluon.validators.IS_MATCH'>"
p4964
sS'IS_ALPHANUMERIC'
p4965
S"<class 'gluon.validators.IS_ALPHANUMERIC'>"
p4966
sS'SPAN'
p4967
S"<class 'gluon.html.SPAN'>"
p4968
sS'IS_SLUG'
p4969
S"<class 'gluon.validators.IS_SLUG'>"
p4970
sS'cat'
p4971
S"<Row {'name': 'web design', 'update_record': <fu...elete_record': <function <lambda> at 0xa9900b0>}>"
p4972
sS'BEAUTIFY'
p4973
S"<class 'gluon.html.BEAUTIFY'>"
p4974
sS'META'
p4975
S"<class 'gluon.html.META'>"
p4976
sS'IS_DATE'
p4977
S"<class 'gluon.validators.IS_DATE'>"
p4978
sS'IS_EMAIL'
p4979
S"<class 'gluon.validators.IS_EMAIL'>"
p4980
sS'IS_NOT_EMPTY'
p4981
S"<class 'gluon.validators.IS_NOT_EMPTY'>"
p4982
sg48
S"<Storage {'body': <cStringIO.StringO object at 0..._vars': <Storage {}>, 'post_vars': <Storage {}>}>"
p4983
sS'TBODY'
p4984
S"<class 'gluon.html.TBODY'>"
p4985
sS'CAT'
p4986
S"<class 'gluon.html.CAT'>"
p4987
sS'Field'
p4988
S"<class 'gluon.dal.Field'>"
p4989
sS'DIV'
p4990
S"<class 'gluon.html.DIV'>"
p4991
sS'LEGEND'
p4992
S"<class 'gluon.html.LEGEND'>"
p4993
sS'COLGROUP'
p4994
S"<class 'gluon.html.COLGROUP'>"
p4995
sS'DAL'
p4996
S"<class 'gluon.dal.DAL'>"
p4997
sS'TT'
p4998
S"<class 'gluon.html.TT'>"
p4999
sS'TR'
p5000
S"<class 'gluon.html.TR'>"
p5001
sS'LI'
p5002
S"<class 'gluon.html.LI'>"
p5003
sS'IFRAME'
p5004
S"<class 'gluon.html.IFRAME'>"
p5005
sS'TD'
p5006
S"<class 'gluon.html.TD'>"
p5007
sS'PluginManager'
p5008
S"<class 'gluon.tools.PluginManager'>"
p5009
sS'IS_URL'
p5010
S"<class 'gluon.validators.IS_URL'>"
p5011
sS'A'
S"<class 'gluon.html.A'>"
p5012
sS'STYLE'
p5013
S"<class 'gluon.html.STYLE'>"
p5014
sS'IS_DATETIME_IN_RANGE'
p5015
S"<class 'gluon.validators.IS_DATETIME_IN_RANGE'>"
p5016
sS'IS_IMAGE'
p5017
S"<class 'gluon.validators.IS_IMAGE'>"
p5018
sS'I'
S"<class 'gluon.html.I'>"
p5019
sS'crud'
p5020
S'<gluon.tools.Crud object at 0xa258d70>'
p5021
sS'IS_NOT_IN_DB'
p5022
S"<class 'gluon.validators.IS_NOT_IN_DB'>"
p5023
sg3317
S"<Storage {'body': <cStringIO.StringO object at 0...da> at 0xa9b8f30>, 'view': 'default/index.html'}>"
p5024
sS'THEAD'
p5025
S"<class 'gluon.html.THEAD'>"
p5026
sS'IS_NULL_OR'
p5027
S"<class 'gluon.validators.IS_EMPTY_OR'>"
p5028
sS'IS_FLOAT_IN_RANGE'
p5029
S"<class 'gluon.validators.IS_FLOAT_IN_RANGE'>"
p5030
sS'IS_EXPR'
p5031
S"<class 'gluon.validators.IS_EXPR'>"
p5032
sS'T'
S'<gluon.languages.translator object at 0xa71b290>'
p5033
sS'IS_IN_SET'
p5034
S"<class 'gluon.validators.IS_IN_SET'>"
p5035
sS'IS_UPLOAD_FILENAME'
p5036
S"<class 'gluon.validators.IS_UPLOAD_FILENAME'>"
p5037
sS'IS_DECIMAL_IN_RANGE'
p5038
S"<class 'gluon.validators.IS_DECIMAL_IN_RANGE'>"
p5039
sssS'traceback'
p5040
S'Traceback (most recent call last):\n  File "/users/udimilo/Documents/web2py/gluon/restricted.py", line 205, in restricted\n    exec ccode in environment\n  File "/Users/udimilo/Documents/web2py/applications/udi0312/views/default/index.html", line 52, in <module>\nTypeError: \'set\' object is unsubscriptable\n'
p5041
s.