(dp1
S'output'
p2
S"<type 'exceptions.AttributeError'> object has no attribute 'published'"
p3
sS'layer'
p4
S'/Users/udimilo/Documents/web2py/applications/udi0312/controllers/default.py'
p5
sS'code'
p6
S'# -*- coding: utf-8 -*-\n# this file is released under public domain and you can use without limitations\n\n#########################################################################\n## This is a samples controller\n## - index is the default action of any application\n## - user is required for authentication and authorization\n## - download is for downloading files uploaded in the db (does streaming)\n## - call exposes all registered services (none by default)\n#########################################################################\nfrom readability import Readability\nimport feedparser\n\ndef index():\n    articles = db().select(db.article.ALL)\n    categories = db().select(db.category.ALL, orderby=db.category.name)\n    boards = db(db.board.user_id==auth.user.id).select() if auth.user else []\n    return dict(items=articles, categories=categories, boards=boards)\n\ndef add_board():\n    category = db(db.category.name==request.vars.category).select().first()\n    board = db.board.insert(user_id=auth.user.id, category_id=category.id, name=request.vars.boardName)\n    return board.id\n    \ndef add_article():\n    url = request.vars.url\n    article = db(db.article.url == url).select().first()\n    if article is None:\n        r = Readability()\n        json = r.content(url)\n        article = db.article.insert(\n            height=300,\n            url=json[\'url\'],\n            readability_url=json[\'short_url\'],\n            title=json[\'title\'],\n            content=json[\'content\'],\n            domain=json[\'domain\'],\n            author=json[\'author\'],\n            excerpt=json[\'excerpt\'],\n            word_count=json[\'word_count\'],\n            total_pages=json[\'total_pages\'],\n            date_published=json[\'date_published\'],\n            next_page_id=json[\'next_page_id\'],\n            rendered_pages=json[\'rendered_pages\'],            \n            )\n    \n    board = db(db.board.name==request.vars.board).select().first()\n    \n    pin = db((db.pin.board_id == board.id) & (db.pin.article_id == article.id)).select().first()\n    if pin is None:\n        pin = db.pin.insert(board_id=board.id, article_id=article.id)\n    \n    return pin.id\n    \ndef follow_user():\n    follower = auth.user\n    followee = db.auth_user(request.vars.followee)\n    if followee is None:\n        return \'no followee\'\n        \n    rel = db((db.user_user.follower_id == follower.id) & (db.user_user.followee_id == followee.id)).select().first()\n\n    if rel is None:\n        rel = db.user_user.insert(follower_id = follower.id, followee_id = followee.id)\n        return \'added\' #http code\n        \n    return rel #http code\n\ndef unfollow_user():\n    follower = auth.user\n    followee = db.auth_user(request.vars.followee)\n    if followee is None:\n        return \'no followee\'\n        \n    rel = db((db.user_user.follower_id == follower.id) & (db.user_user.followee_id == followee.id)).select().first()\n    if rel is None:\n        return \'no rel\'\n    \n    db.user_user.remove(id == rel.id)\n    return \'deleted\'\n\ndef test():\n    url = request.vars.url\n    feed = feedparser.parse(url)\n    c = 0\n    for item in feed[\'entries\']:\n        article = db.article.insert(\n            height=300,\n            author=item.author,\n            content=item.content[0].value.strip(),\n            url=item.link,\n            date_published=item.published,\n            excerpt=item.summary,\n            title=item.title,\n            )\n    return feed\n                \ndef user():\n    """\n    exposes:\n    http://..../[app]/default/user/login\n    http://..../[app]/default/user/logout\n    http://..../[app]/default/user/register\n    http://..../[app]/default/user/profile\n    http://..../[app]/default/user/retrieve_password\n    http://..../[app]/default/user/change_password\n    use @auth.requires_login()\n        @auth.requires_membership(\'group name\')\n        @auth.requires_permission(\'read\',\'table name\',record_id)\n    to decorate functions that need access control\n    """\n    return dict(form=auth())\n\n\ndef download():\n    """\n    allows downloading of uploaded files\n    http://..../[app]/default/download/[filename]\n    """\n    return response.download(request,db)\n\n\ndef call():\n    """\n    exposes services. for example:\n    http://..../[app]/default/call/jsonrpc\n    decorate with @services.jsonrpc the functions to expose\n    supports xml, json, xmlrpc, jsonrpc, amfrpc, rss, csv\n    """\n    return service()\n\n\n@auth.requires_signature()\ndef data():\n    """\n    http://..../[app]/default/data/tables\n    http://..../[app]/default/data/create/[table]\n    http://..../[app]/default/data/read/[table]/[id]\n    http://..../[app]/default/data/update/[table]/[id]\n    http://..../[app]/default/data/delete/[table]/[id]\n    http://..../[app]/default/data/select/[table]\n    http://..../[app]/default/data/search/[table]\n    but URLs must be signed, i.e. linked with\n      A(\'table\',_href=URL(\'data/tables\',user_signature=True))\n    or with the signed load operator\n      LOAD(\'default\',\'data.load\',args=\'tables\',ajax=True,user_signature=True)\n    """\n    return dict(form=crud())\n\nresponse._vars=response._caller(test)\n'
p7
sS'snapshot'
p8
(dp9
S'exception'
p10
(dp11
S'__hash__'
p12
S"<method-wrapper '__hash__' of exceptions.AttributeError object at 0xa676c60>"
p13
sS'__setattr__'
p14
S"<method-wrapper '__setattr__' of exceptions.AttributeError object at 0xa676c60>"
p15
sS'__reduce_ex__'
p16
S'<built-in method __reduce_ex__ of exceptions.AttributeError object at 0xa676c60>'
p17
sS'__getslice__'
p18
S"<method-wrapper '__getslice__' of exceptions.AttributeError object at 0xa676c60>"
p19
sS'__getitem__'
p20
S"<method-wrapper '__getitem__' of exceptions.AttributeError object at 0xa676c60>"
p21
sS'__setstate__'
p22
S'<built-in method __setstate__ of exceptions.AttributeError object at 0xa676c60>'
p23
sS'__reduce__'
p24
S'<built-in method __reduce__ of exceptions.AttributeError object at 0xa676c60>'
p25
sS'__str__'
p26
S"<method-wrapper '__str__' of exceptions.AttributeError object at 0xa676c60>"
p27
sS'args'
p28
S'("object has no attribute \'published\'",)'
p29
sS'__getattribute__'
p30
S"<method-wrapper '__getattribute__' of exceptions.AttributeError object at 0xa676c60>"
p31
sS'__class__'
p32
S"<type 'exceptions.AttributeError'>"
p33
sS'__delattr__'
p34
S"<method-wrapper '__delattr__' of exceptions.AttributeError object at 0xa676c60>"
p35
sS'__repr__'
p36
S"<method-wrapper '__repr__' of exceptions.AttributeError object at 0xa676c60>"
p37
sS'__dict__'
p38
S'{}'
p39
sS'__doc__'
p40
S"'Attribute not found.'"
p41
sS'__init__'
p42
S"<method-wrapper '__init__' of exceptions.AttributeError object at 0xa676c60>"
p43
sS'__new__'
p44
S'<built-in method __new__ of type object at 0x1004a0>'
p45
ssS'evalue'
p46
S"object has no attribute 'published'"
p47
sS'request'
p48
ccopy_reg
_reconstructor
p49
(cgluon.html
BEAUTIFY
p50
c__builtin__
object
p51
NtRp52
(dp53
S'attributes'
p54
(dp55
sS'components'
p56
(lp57
g49
(cgluon.html
TABLE
p58
g51
NtRp59
(dp60
g54
(dp61
S'level'
p62
I5
ssS'parent'
p63
Nsg56
(lp64
g49
(cgluon.html
TR
p65
g51
NtRp66
(dp67
g54
(dp68
sg63
g59
sg56
(lp69
g49
(cgluon.html
TD
p70
g51
NtRp71
(dp72
g54
(dp73
S'_style'
p74
S'font-weight:bold;vertical-align:top'
p75
ssg63
g66
sg56
(lp76
S'ajax'
p77
asbag49
(g70
g51
NtRp78
(dp79
g54
(dp80
S'_valign'
p81
S'top'
p82
ssg63
g66
sg56
(lp83
S':'
asbag49
(g70
g51
NtRp84
(dp85
g54
(dp86
sg63
g66
sg56
(lp87
g49
(g50
g51
NtRp88
(dp89
g54
(dp90
g62
I5
ssg63
g84
sg56
(lp91
S'False'
p92
asbasbasbag49
(g65
g51
NtRp93
(dp94
g54
(dp95
sg63
g59
sg56
(lp96
g49
(g70
g51
NtRp97
(dp98
g54
(dp99
g74
g75
ssg63
g93
sg56
(lp100
S'application'
p101
asbag49
(g70
g51
NtRp102
(dp103
g54
(dp104
g81
g82
ssg63
g93
sg56
(lp105
S':'
asbag49
(g70
g51
NtRp106
(dp107
g54
(dp108
sg63
g93
sg56
(lp109
g49
(g50
g51
NtRp110
(dp111
g54
(dp112
g62
I5
ssg63
g106
sg56
(lp113
S'udi0312'
p114
asbasbasbag49
(g65
g51
NtRp115
(dp116
g54
(dp117
sg63
g59
sg56
(lp118
g49
(g70
g51
NtRp119
(dp120
g54
(dp121
g74
g75
ssg63
g115
sg56
(lp122
g28
asbag49
(g70
g51
NtRp123
(dp124
g54
(dp125
g81
g82
ssg63
g115
sg56
(lp126
S':'
asbag49
(g70
g51
NtRp127
(dp128
g54
(dp129
sg63
g115
sg56
(lp130
g49
(g50
g51
NtRp131
(dp132
g54
(dp133
g62
I5
ssg63
g127
sg56
(lp134
g49
(g58
g51
NtRp135
(dp136
g54
(dp137
g62
I4
ssg63
Nsg56
(lp138
sbasbasbasbag49
(g65
g51
NtRp139
(dp140
g54
(dp141
sg63
g59
sg56
(lp142
g49
(g70
g51
NtRp143
(dp144
g54
(dp145
g74
g75
ssg63
g139
sg56
(lp146
S'body'
p147
asbag49
(g70
g51
NtRp148
(dp149
g54
(dp150
g81
g82
ssg63
g139
sg56
(lp151
S':'
asbag49
(g70
g51
NtRp152
(dp153
g54
(dp154
sg63
g139
sg56
(lp155
g49
(g50
g51
NtRp156
(dp157
g54
(dp158
g62
I5
ssg63
g152
sg56
(lp159
S'<cStringIO.StringO object at 0xacca6a0>'
p160
asbasbasbag49
(g65
g51
NtRp161
(dp162
g54
(dp163
sg63
g59
sg56
(lp164
g49
(g70
g51
NtRp165
(dp166
g54
(dp167
g74
g75
ssg63
g161
sg56
(lp168
S'client'
p169
asbag49
(g70
g51
NtRp170
(dp171
g54
(dp172
g81
g82
ssg63
g161
sg56
(lp173
S':'
asbag49
(g70
g51
NtRp174
(dp175
g54
(dp176
sg63
g161
sg56
(lp177
g49
(g50
g51
NtRp178
(dp179
g54
(dp180
g62
I5
ssg63
g174
sg56
(lp181
S'127.0.0.1'
p182
asbasbasbag49
(g65
g51
NtRp183
(dp184
g54
(dp185
sg63
g59
sg56
(lp186
g49
(g70
g51
NtRp187
(dp188
g54
(dp189
g74
g75
ssg63
g183
sg56
(lp190
S'controller'
p191
asbag49
(g70
g51
NtRp192
(dp193
g54
(dp194
g81
g82
ssg63
g183
sg56
(lp195
S':'
asbag49
(g70
g51
NtRp196
(dp197
g54
(dp198
sg63
g183
sg56
(lp199
g49
(g50
g51
NtRp200
(dp201
g54
(dp202
g62
I5
ssg63
g196
sg56
(lp203
S'default'
p204
asbasbasbag49
(g65
g51
NtRp205
(dp206
g54
(dp207
sg63
g59
sg56
(lp208
g49
(g70
g51
NtRp209
(dp210
g54
(dp211
g74
g75
ssg63
g205
sg56
(lp212
S'cookies'
p213
asbag49
(g70
g51
NtRp214
(dp215
g54
(dp216
g81
g82
ssg63
g205
sg56
(lp217
S':'
asbag49
(g70
g51
NtRp218
(dp219
g54
(dp220
sg63
g205
sg56
(lp221
g49
(g50
g51
NtRp222
(dp223
g54
(dp224
g62
I5
ssg63
g218
sg56
(lp225
g49
(g58
g51
NtRp226
(dp227
g54
(dp228
g62
I4
ssg63
Nsg56
(lp229
g49
(g65
g51
NtRp230
(dp231
g54
(dp232
sg63
g226
sg56
(lp233
g49
(g70
g51
NtRp234
(dp235
g54
(dp236
g74
g75
ssg63
g230
sg56
(lp237
S'session_id_admin'
p238
asbag49
(g70
g51
NtRp239
(dp240
g54
(dp241
g81
g82
ssg63
g230
sg56
(lp242
S':'
asbag49
(g70
g51
NtRp243
(dp244
g54
(dp245
sg63
g230
sg56
(lp246
g49
(g50
g51
NtRp247
(dp248
g54
(dp249
g62
I4
ssg63
g243
sg56
(lp250
g49
(g58
g51
NtRp251
(dp252
g54
(dp253
g62
I3
ssg63
Nsg56
(lp254
g49
(g65
g51
NtRp255
(dp256
g54
(dp257
sg63
g251
sg56
(lp258
g49
(g70
g51
NtRp259
(dp260
g54
(dp261
g74
g75
ssg63
g255
sg56
(lp262
S'comment'
p263
asbag49
(g70
g51
NtRp264
(dp265
g54
(dp266
g81
g82
ssg63
g255
sg56
(lp267
S':'
asbag49
(g70
g51
NtRp268
(dp269
g54
(dp270
sg63
g255
sg56
(lp271
g49
(g50
g51
NtRp272
(dp273
g54
(dp274
g62
I3
ssg63
g268
sg56
(lp275
S''
asbasbasbag49
(g65
g51
NtRp276
(dp277
g54
(dp278
sg63
g251
sg56
(lp279
g49
(g70
g51
NtRp280
(dp281
g54
(dp282
g74
g75
ssg63
g276
sg56
(lp283
S'domain'
p284
asbag49
(g70
g51
NtRp285
(dp286
g54
(dp287
g81
g82
ssg63
g276
sg56
(lp288
S':'
asbag49
(g70
g51
NtRp289
(dp290
g54
(dp291
sg63
g276
sg56
(lp292
g49
(g50
g51
NtRp293
(dp294
g54
(dp295
g62
I3
ssg63
g289
sg56
(lp296
S''
asbasbasbag49
(g65
g51
NtRp297
(dp298
g54
(dp299
sg63
g251
sg56
(lp300
g49
(g70
g51
NtRp301
(dp302
g54
(dp303
g74
g75
ssg63
g297
sg56
(lp304
S'expires'
p305
asbag49
(g70
g51
NtRp306
(dp307
g54
(dp308
g81
g82
ssg63
g297
sg56
(lp309
S':'
asbag49
(g70
g51
NtRp310
(dp311
g54
(dp312
sg63
g297
sg56
(lp313
g49
(g50
g51
NtRp314
(dp315
g54
(dp316
g62
I3
ssg63
g310
sg56
(lp317
S''
asbasbasbag49
(g65
g51
NtRp318
(dp319
g54
(dp320
sg63
g251
sg56
(lp321
g49
(g70
g51
NtRp322
(dp323
g54
(dp324
g74
g75
ssg63
g318
sg56
(lp325
S'max-age'
p326
asbag49
(g70
g51
NtRp327
(dp328
g54
(dp329
g81
g82
ssg63
g318
sg56
(lp330
S':'
asbag49
(g70
g51
NtRp331
(dp332
g54
(dp333
sg63
g318
sg56
(lp334
g49
(g50
g51
NtRp335
(dp336
g54
(dp337
g62
I3
ssg63
g331
sg56
(lp338
S''
asbasbasbag49
(g65
g51
NtRp339
(dp340
g54
(dp341
sg63
g251
sg56
(lp342
g49
(g70
g51
NtRp343
(dp344
g54
(dp345
g74
g75
ssg63
g339
sg56
(lp346
S'path'
p347
asbag49
(g70
g51
NtRp348
(dp349
g54
(dp350
g81
g82
ssg63
g339
sg56
(lp351
S':'
asbag49
(g70
g51
NtRp352
(dp353
g54
(dp354
sg63
g339
sg56
(lp355
g49
(g50
g51
NtRp356
(dp357
g54
(dp358
g62
I3
ssg63
g352
sg56
(lp359
S''
asbasbasbag49
(g65
g51
NtRp360
(dp361
g54
(dp362
sg63
g251
sg56
(lp363
g49
(g70
g51
NtRp364
(dp365
g54
(dp366
g74
g75
ssg63
g360
sg56
(lp367
S'secure'
p368
asbag49
(g70
g51
NtRp369
(dp370
g54
(dp371
g81
g82
ssg63
g360
sg56
(lp372
S':'
asbag49
(g70
g51
NtRp373
(dp374
g54
(dp375
sg63
g360
sg56
(lp376
g49
(g50
g51
NtRp377
(dp378
g54
(dp379
g62
I3
ssg63
g373
sg56
(lp380
S''
asbasbasbag49
(g65
g51
NtRp381
(dp382
g54
(dp383
sg63
g251
sg56
(lp384
g49
(g70
g51
NtRp385
(dp386
g54
(dp387
g74
g75
ssg63
g381
sg56
(lp388
S'version'
p389
asbag49
(g70
g51
NtRp390
(dp391
g54
(dp392
g81
g82
ssg63
g381
sg56
(lp393
S':'
asbag49
(g70
g51
NtRp394
(dp395
g54
(dp396
sg63
g381
sg56
(lp397
g49
(g50
g51
NtRp398
(dp399
g54
(dp400
g62
I3
ssg63
g394
sg56
(lp401
S''
asbasbasbasbasbasbasbag49
(g65
g51
NtRp402
(dp403
g54
(dp404
sg63
g226
sg56
(lp405
g49
(g70
g51
NtRp406
(dp407
g54
(dp408
g74
g75
ssg63
g402
sg56
(lp409
S'session_id_udi0312'
p410
asbag49
(g70
g51
NtRp411
(dp412
g54
(dp413
g81
g82
ssg63
g402
sg56
(lp414
S':'
asbag49
(g70
g51
NtRp415
(dp416
g54
(dp417
sg63
g402
sg56
(lp418
g49
(g50
g51
NtRp419
(dp420
g54
(dp421
g62
I4
ssg63
g415
sg56
(lp422
g49
(g58
g51
NtRp423
(dp424
g54
(dp425
g62
I3
ssg63
Nsg56
(lp426
g49
(g65
g51
NtRp427
(dp428
g54
(dp429
sg63
g423
sg56
(lp430
g49
(g70
g51
NtRp431
(dp432
g54
(dp433
g74
g75
ssg63
g427
sg56
(lp434
g263
asbag49
(g70
g51
NtRp435
(dp436
g54
(dp437
g81
g82
ssg63
g427
sg56
(lp438
S':'
asbag49
(g70
g51
NtRp439
(dp440
g54
(dp441
sg63
g427
sg56
(lp442
g49
(g50
g51
NtRp443
(dp444
g54
(dp445
g62
I3
ssg63
g439
sg56
(lp446
S''
asbasbasbag49
(g65
g51
NtRp447
(dp448
g54
(dp449
sg63
g423
sg56
(lp450
g49
(g70
g51
NtRp451
(dp452
g54
(dp453
g74
g75
ssg63
g447
sg56
(lp454
g284
asbag49
(g70
g51
NtRp455
(dp456
g54
(dp457
g81
g82
ssg63
g447
sg56
(lp458
S':'
asbag49
(g70
g51
NtRp459
(dp460
g54
(dp461
sg63
g447
sg56
(lp462
g49
(g50
g51
NtRp463
(dp464
g54
(dp465
g62
I3
ssg63
g459
sg56
(lp466
S''
asbasbasbag49
(g65
g51
NtRp467
(dp468
g54
(dp469
sg63
g423
sg56
(lp470
g49
(g70
g51
NtRp471
(dp472
g54
(dp473
g74
g75
ssg63
g467
sg56
(lp474
g305
asbag49
(g70
g51
NtRp475
(dp476
g54
(dp477
g81
g82
ssg63
g467
sg56
(lp478
S':'
asbag49
(g70
g51
NtRp479
(dp480
g54
(dp481
sg63
g467
sg56
(lp482
g49
(g50
g51
NtRp483
(dp484
g54
(dp485
g62
I3
ssg63
g479
sg56
(lp486
S''
asbasbasbag49
(g65
g51
NtRp487
(dp488
g54
(dp489
sg63
g423
sg56
(lp490
g49
(g70
g51
NtRp491
(dp492
g54
(dp493
g74
g75
ssg63
g487
sg56
(lp494
g326
asbag49
(g70
g51
NtRp495
(dp496
g54
(dp497
g81
g82
ssg63
g487
sg56
(lp498
S':'
asbag49
(g70
g51
NtRp499
(dp500
g54
(dp501
sg63
g487
sg56
(lp502
g49
(g50
g51
NtRp503
(dp504
g54
(dp505
g62
I3
ssg63
g499
sg56
(lp506
S''
asbasbasbag49
(g65
g51
NtRp507
(dp508
g54
(dp509
sg63
g423
sg56
(lp510
g49
(g70
g51
NtRp511
(dp512
g54
(dp513
g74
g75
ssg63
g507
sg56
(lp514
g347
asbag49
(g70
g51
NtRp515
(dp516
g54
(dp517
g81
g82
ssg63
g507
sg56
(lp518
S':'
asbag49
(g70
g51
NtRp519
(dp520
g54
(dp521
sg63
g507
sg56
(lp522
g49
(g50
g51
NtRp523
(dp524
g54
(dp525
g62
I3
ssg63
g519
sg56
(lp526
S''
asbasbasbag49
(g65
g51
NtRp527
(dp528
g54
(dp529
sg63
g423
sg56
(lp530
g49
(g70
g51
NtRp531
(dp532
g54
(dp533
g74
g75
ssg63
g527
sg56
(lp534
g368
asbag49
(g70
g51
NtRp535
(dp536
g54
(dp537
g81
g82
ssg63
g527
sg56
(lp538
S':'
asbag49
(g70
g51
NtRp539
(dp540
g54
(dp541
sg63
g527
sg56
(lp542
g49
(g50
g51
NtRp543
(dp544
g54
(dp545
g62
I3
ssg63
g539
sg56
(lp546
S''
asbasbasbag49
(g65
g51
NtRp547
(dp548
g54
(dp549
sg63
g423
sg56
(lp550
g49
(g70
g51
NtRp551
(dp552
g54
(dp553
g74
g75
ssg63
g547
sg56
(lp554
g389
asbag49
(g70
g51
NtRp555
(dp556
g54
(dp557
g81
g82
ssg63
g547
sg56
(lp558
S':'
asbag49
(g70
g51
NtRp559
(dp560
g54
(dp561
sg63
g547
sg56
(lp562
g49
(g50
g51
NtRp563
(dp564
g54
(dp565
g62
I3
ssg63
g559
sg56
(lp566
S''
asbasbasbasbasbasbasbasbasbasbasbag49
(g65
g51
NtRp567
(dp568
g54
(dp569
sg63
g59
sg56
(lp570
g49
(g70
g51
NtRp571
(dp572
g54
(dp573
g74
g75
ssg63
g567
sg56
(lp574
S'env'
p575
asbag49
(g70
g51
NtRp576
(dp577
g54
(dp578
g81
g82
ssg63
g567
sg56
(lp579
S':'
asbag49
(g70
g51
NtRp580
(dp581
g54
(dp582
sg63
g567
sg56
(lp583
g49
(g50
g51
NtRp584
(dp585
g54
(dp586
g62
I5
ssg63
g580
sg56
(lp587
g49
(g58
g51
NtRp588
(dp589
g54
(dp590
g62
I4
ssg63
Nsg56
(lp591
g49
(g65
g51
NtRp592
(dp593
g54
(dp594
sg63
g588
sg56
(lp595
g49
(g70
g51
NtRp596
(dp597
g54
(dp598
g74
g75
ssg63
g592
sg56
(lp599
S'app_folders'
p600
asbag49
(g70
g51
NtRp601
(dp602
g54
(dp603
g81
g82
ssg63
g592
sg56
(lp604
S':'
asbag49
(g70
g51
NtRp605
(dp606
g54
(dp607
sg63
g592
sg56
(lp608
g49
(g50
g51
NtRp609
(dp610
g54
(dp611
g62
I4
ssg63
g605
sg56
(lp612
S"set(['/Users/udimilo/Documents/web2py/applications/udi0312/', '/Users/udimilo/Documents/web2py/applications/admin/'])"
p613
asbasbasbag49
(g65
g51
NtRp614
(dp615
g54
(dp616
sg63
g588
sg56
(lp617
g49
(g70
g51
NtRp618
(dp619
g54
(dp620
g74
g75
ssg63
g614
sg56
(lp621
S'applications_parent'
p622
asbag49
(g70
g51
NtRp623
(dp624
g54
(dp625
g81
g82
ssg63
g614
sg56
(lp626
S':'
asbag49
(g70
g51
NtRp627
(dp628
g54
(dp629
sg63
g614
sg56
(lp630
g49
(g50
g51
NtRp631
(dp632
g54
(dp633
g62
I4
ssg63
g627
sg56
(lp634
S'/Users/udimilo/Documents/web2py'
p635
asbasbasbag49
(g65
g51
NtRp636
(dp637
g54
(dp638
sg63
g588
sg56
(lp639
g49
(g70
g51
NtRp640
(dp641
g54
(dp642
g74
g75
ssg63
g636
sg56
(lp643
S'cmd_args'
p644
asbag49
(g70
g51
NtRp645
(dp646
g54
(dp647
g81
g82
ssg63
g636
sg56
(lp648
S':'
asbag49
(g70
g51
NtRp649
(dp650
g54
(dp651
sg63
g636
sg56
(lp652
g49
(g50
g51
NtRp653
(dp654
g54
(dp655
g62
I4
ssg63
g649
sg56
(lp656
g49
(g58
g51
NtRp657
(dp658
g54
(dp659
g62
I3
ssg63
Nsg56
(lp660
sbasbasbasbag49
(g65
g51
NtRp661
(dp662
g54
(dp663
sg63
g588
sg56
(lp664
g49
(g70
g51
NtRp665
(dp666
g54
(dp667
g74
g75
ssg63
g661
sg56
(lp668
S'cmd_options'
p669
asbag49
(g70
g51
NtRp670
(dp671
g54
(dp672
g81
g82
ssg63
g661
sg56
(lp673
S':'
asbag49
(g70
g51
NtRp674
(dp675
g54
(dp676
sg63
g661
sg56
(lp677
g49
(g50
g51
NtRp678
(dp679
g54
(dp680
g62
I4
ssg63
g674
sg56
(lp681
S"<Values at 0x23301c0: {'verbose': False, 'ip': '127.0.0.1', 'shutdown_timeout': 5, 'taskbar': False, 'nocron': False, 'pid_filename': 'httpserver.pid', 'maxthreads': None, 'softcron': False, 'server_name': 'udi-milos-macbook-pro.fritz.box', 'bpython': False, 'nogui': False, 'port': 8000, 'extcron': False, 'debuglevel': 30, 'test': None, 'folder': '/Users/udimilo/Documents/web2py', 'config': '', 'import_models': False, 'winservice': '', 'shell': None, 'run': '', 'log_filename': 'httpserver.log', 'args': [''], 'socket_timeout': 5, 'ssl_ca_certificate': None, 'scheduler': None, 'profiler_filename': None, 'ssl_private_key': '', 'password': '<ask>', 'request_queue_size': 5, 'ssl_certificate': '', 'cronjob': False, 'numthreads': None, 'quiet': False, 'interfaces': None, 'minthreads': None, 'timeout': 10, 'plain': False, 'nobanner': False}>"
p682
asbasbasbag49
(g65
g51
NtRp683
(dp684
g54
(dp685
sg63
g588
sg56
(lp686
g49
(g70
g51
NtRp687
(dp688
g54
(dp689
g74
g75
ssg63
g683
sg56
(lp690
S'db_sessions'
p691
asbag49
(g70
g51
NtRp692
(dp693
g54
(dp694
g81
g82
ssg63
g683
sg56
(lp695
S':'
asbag49
(g70
g51
NtRp696
(dp697
g54
(dp698
sg63
g683
sg56
(lp699
g49
(g50
g51
NtRp700
(dp701
g54
(dp702
g62
I4
ssg63
g696
sg56
(lp703
S'set([])'
p704
asbasbasbag49
(g65
g51
NtRp705
(dp706
g54
(dp707
sg63
g588
sg56
(lp708
g49
(g70
g51
NtRp709
(dp710
g54
(dp711
g74
g75
ssg63
g705
sg56
(lp712
S'debugging'
p713
asbag49
(g70
g51
NtRp714
(dp715
g54
(dp716
g81
g82
ssg63
g705
sg56
(lp717
S':'
asbag49
(g70
g51
NtRp718
(dp719
g54
(dp720
sg63
g705
sg56
(lp721
g49
(g50
g51
NtRp722
(dp723
g54
(dp724
g62
I4
ssg63
g718
sg56
(lp725
g92
asbasbasbag49
(g65
g51
NtRp726
(dp727
g54
(dp728
sg63
g588
sg56
(lp729
g49
(g70
g51
NtRp730
(dp731
g54
(dp732
g74
g75
ssg63
g726
sg56
(lp733
S'gluon_parent'
p734
asbag49
(g70
g51
NtRp735
(dp736
g54
(dp737
g81
g82
ssg63
g726
sg56
(lp738
S':'
asbag49
(g70
g51
NtRp739
(dp740
g54
(dp741
sg63
g726
sg56
(lp742
g49
(g50
g51
NtRp743
(dp744
g54
(dp745
g62
I4
ssg63
g739
sg56
(lp746
S'/Users/udimilo/Documents/web2py'
p747
asbasbasbag49
(g65
g51
NtRp748
(dp749
g54
(dp750
sg63
g588
sg56
(lp751
g49
(g70
g51
NtRp752
(dp753
g54
(dp754
g74
g75
ssg63
g748
sg56
(lp755
S'http_accept'
p756
asbag49
(g70
g51
NtRp757
(dp758
g54
(dp759
g81
g82
ssg63
g748
sg56
(lp760
S':'
asbag49
(g70
g51
NtRp761
(dp762
g54
(dp763
sg63
g748
sg56
(lp764
g49
(g50
g51
NtRp765
(dp766
g54
(dp767
g62
I4
ssg63
g761
sg56
(lp768
S'text/html,application/xhtml+xml,application/xml;q=0.9,*/*;q=0.8'
p769
asbasbasbag49
(g65
g51
NtRp770
(dp771
g54
(dp772
sg63
g588
sg56
(lp773
g49
(g70
g51
NtRp774
(dp775
g54
(dp776
g74
g75
ssg63
g770
sg56
(lp777
S'http_accept_charset'
p778
asbag49
(g70
g51
NtRp779
(dp780
g54
(dp781
g81
g82
ssg63
g770
sg56
(lp782
S':'
asbag49
(g70
g51
NtRp783
(dp784
g54
(dp785
sg63
g770
sg56
(lp786
g49
(g50
g51
NtRp787
(dp788
g54
(dp789
g62
I4
ssg63
g783
sg56
(lp790
S'ISO-8859-1,utf-8;q=0.7,*;q=0.3'
p791
asbasbasbag49
(g65
g51
NtRp792
(dp793
g54
(dp794
sg63
g588
sg56
(lp795
g49
(g70
g51
NtRp796
(dp797
g54
(dp798
g74
g75
ssg63
g792
sg56
(lp799
S'http_accept_encoding'
p800
asbag49
(g70
g51
NtRp801
(dp802
g54
(dp803
g81
g82
ssg63
g792
sg56
(lp804
S':'
asbag49
(g70
g51
NtRp805
(dp806
g54
(dp807
sg63
g792
sg56
(lp808
g49
(g50
g51
NtRp809
(dp810
g54
(dp811
g62
I4
ssg63
g805
sg56
(lp812
S'gzip,deflate,sdch'
p813
asbasbasbag49
(g65
g51
NtRp814
(dp815
g54
(dp816
sg63
g588
sg56
(lp817
g49
(g70
g51
NtRp818
(dp819
g54
(dp820
g74
g75
ssg63
g814
sg56
(lp821
S'http_accept_language'
p822
asbag49
(g70
g51
NtRp823
(dp824
g54
(dp825
g81
g82
ssg63
g814
sg56
(lp826
S':'
asbag49
(g70
g51
NtRp827
(dp828
g54
(dp829
sg63
g814
sg56
(lp830
g49
(g50
g51
NtRp831
(dp832
g54
(dp833
g62
I4
ssg63
g827
sg56
(lp834
S'en-US,en;q=0.8'
p835
asbasbasbag49
(g65
g51
NtRp836
(dp837
g54
(dp838
sg63
g588
sg56
(lp839
g49
(g70
g51
NtRp840
(dp841
g54
(dp842
g74
g75
ssg63
g836
sg56
(lp843
S'http_connection'
p844
asbag49
(g70
g51
NtRp845
(dp846
g54
(dp847
g81
g82
ssg63
g836
sg56
(lp848
S':'
asbag49
(g70
g51
NtRp849
(dp850
g54
(dp851
sg63
g836
sg56
(lp852
g49
(g50
g51
NtRp853
(dp854
g54
(dp855
g62
I4
ssg63
g849
sg56
(lp856
S'keep-alive'
p857
asbasbasbag49
(g65
g51
NtRp858
(dp859
g54
(dp860
sg63
g588
sg56
(lp861
g49
(g70
g51
NtRp862
(dp863
g54
(dp864
g74
g75
ssg63
g858
sg56
(lp865
S'http_cookie'
p866
asbag49
(g70
g51
NtRp867
(dp868
g54
(dp869
g81
g82
ssg63
g858
sg56
(lp870
S':'
asbag49
(g70
g51
NtRp871
(dp872
g54
(dp873
sg63
g858
sg56
(lp874
g49
(g50
g51
NtRp875
(dp876
g54
(dp877
g62
I4
ssg63
g871
sg56
(lp878
S'session_id_admin=127.0.0.1-231d6959-7525-4217-bbb3-faad14511426; session_id_udi0312=127.0.0.1-fcd6a577-d448-4882-b7bc-f353da84ba3b'
p879
asbasbasbag49
(g65
g51
NtRp880
(dp881
g54
(dp882
sg63
g588
sg56
(lp883
g49
(g70
g51
NtRp884
(dp885
g54
(dp886
g74
g75
ssg63
g880
sg56
(lp887
S'http_host'
p888
asbag49
(g70
g51
NtRp889
(dp890
g54
(dp891
g81
g82
ssg63
g880
sg56
(lp892
S':'
asbag49
(g70
g51
NtRp893
(dp894
g54
(dp895
sg63
g880
sg56
(lp896
g49
(g50
g51
NtRp897
(dp898
g54
(dp899
g62
I4
ssg63
g893
sg56
(lp900
S'127.0.0.1:8000'
p901
asbasbasbag49
(g65
g51
NtRp902
(dp903
g54
(dp904
sg63
g588
sg56
(lp905
g49
(g70
g51
NtRp906
(dp907
g54
(dp908
g74
g75
ssg63
g902
sg56
(lp909
S'http_user_agent'
p910
asbag49
(g70
g51
NtRp911
(dp912
g54
(dp913
g81
g82
ssg63
g902
sg56
(lp914
S':'
asbag49
(g70
g51
NtRp915
(dp916
g54
(dp917
sg63
g902
sg56
(lp918
g49
(g50
g51
NtRp919
(dp920
g54
(dp921
g62
I4
ssg63
g915
sg56
(lp922
S'Mozilla/5.0 (Macintosh; Intel Mac OS X 10_7_3) AppleWebKit/535.11 (KHTML, like Gecko) Chrome/17.0.963.79 Safari/535.11'
p923
asbasbasbag49
(g65
g51
NtRp924
(dp925
g54
(dp926
sg63
g588
sg56
(lp927
g49
(g70
g51
NtRp928
(dp929
g54
(dp930
g74
g75
ssg63
g924
sg56
(lp931
S'is_jython'
p932
asbag49
(g70
g51
NtRp933
(dp934
g54
(dp935
g81
g82
ssg63
g924
sg56
(lp936
S':'
asbag49
(g70
g51
NtRp937
(dp938
g54
(dp939
sg63
g924
sg56
(lp940
g49
(g50
g51
NtRp941
(dp942
g54
(dp943
g62
I4
ssg63
g937
sg56
(lp944
g92
asbasbasbag49
(g65
g51
NtRp945
(dp946
g54
(dp947
sg63
g588
sg56
(lp948
g49
(g70
g51
NtRp949
(dp950
g54
(dp951
g74
g75
ssg63
g945
sg56
(lp952
S'is_pypy'
p953
asbag49
(g70
g51
NtRp954
(dp955
g54
(dp956
g81
g82
ssg63
g945
sg56
(lp957
S':'
asbag49
(g70
g51
NtRp958
(dp959
g54
(dp960
sg63
g945
sg56
(lp961
g49
(g50
g51
NtRp962
(dp963
g54
(dp964
g62
I4
ssg63
g958
sg56
(lp965
g92
asbasbasbag49
(g65
g51
NtRp966
(dp967
g54
(dp968
sg63
g588
sg56
(lp969
g49
(g70
g51
NtRp970
(dp971
g54
(dp972
g74
g75
ssg63
g966
sg56
(lp973
S'path_info'
p974
asbag49
(g70
g51
NtRp975
(dp976
g54
(dp977
g81
g82
ssg63
g966
sg56
(lp978
S':'
asbag49
(g70
g51
NtRp979
(dp980
g54
(dp981
sg63
g966
sg56
(lp982
g49
(g50
g51
NtRp983
(dp984
g54
(dp985
g62
I4
ssg63
g979
sg56
(lp986
S'/test'
p987
asbasbasbag49
(g65
g51
NtRp988
(dp989
g54
(dp990
sg63
g588
sg56
(lp991
g49
(g70
g51
NtRp992
(dp993
g54
(dp994
g74
g75
ssg63
g988
sg56
(lp995
S'query_string'
p996
asbag49
(g70
g51
NtRp997
(dp998
g54
(dp999
g81
g82
ssg63
g988
sg56
(lp1000
S':'
asbag49
(g70
g51
NtRp1001
(dp1002
g54
(dp1003
sg63
g988
sg56
(lp1004
g49
(g50
g51
NtRp1005
(dp1006
g54
(dp1007
g62
I4
ssg63
g1001
sg56
(lp1008
S'url=http://feeds.feedburner.com/TechCrunch/startups'
p1009
asbasbasbag49
(g65
g51
NtRp1010
(dp1011
g54
(dp1012
sg63
g588
sg56
(lp1013
g49
(g70
g51
NtRp1014
(dp1015
g54
(dp1016
g74
g75
ssg63
g1010
sg56
(lp1017
S'remote_addr'
p1018
asbag49
(g70
g51
NtRp1019
(dp1020
g54
(dp1021
g81
g82
ssg63
g1010
sg56
(lp1022
S':'
asbag49
(g70
g51
NtRp1023
(dp1024
g54
(dp1025
sg63
g1010
sg56
(lp1026
g49
(g50
g51
NtRp1027
(dp1028
g54
(dp1029
g62
I4
ssg63
g1023
sg56
(lp1030
g182
asbasbasbag49
(g65
g51
NtRp1031
(dp1032
g54
(dp1033
sg63
g588
sg56
(lp1034
g49
(g70
g51
NtRp1035
(dp1036
g54
(dp1037
g74
g75
ssg63
g1031
sg56
(lp1038
S'remote_port'
p1039
asbag49
(g70
g51
NtRp1040
(dp1041
g54
(dp1042
g81
g82
ssg63
g1031
sg56
(lp1043
S':'
asbag49
(g70
g51
NtRp1044
(dp1045
g54
(dp1046
sg63
g1031
sg56
(lp1047
g49
(g50
g51
NtRp1048
(dp1049
g54
(dp1050
g62
I4
ssg63
g1044
sg56
(lp1051
S'64070'
p1052
asbasbasbag49
(g65
g51
NtRp1053
(dp1054
g54
(dp1055
sg63
g588
sg56
(lp1056
g49
(g70
g51
NtRp1057
(dp1058
g54
(dp1059
g74
g75
ssg63
g1053
sg56
(lp1060
S'request_method'
p1061
asbag49
(g70
g51
NtRp1062
(dp1063
g54
(dp1064
g81
g82
ssg63
g1053
sg56
(lp1065
S':'
asbag49
(g70
g51
NtRp1066
(dp1067
g54
(dp1068
sg63
g1053
sg56
(lp1069
g49
(g50
g51
NtRp1070
(dp1071
g54
(dp1072
g62
I4
ssg63
g1066
sg56
(lp1073
S'GET'
p1074
asbasbasbag49
(g65
g51
NtRp1075
(dp1076
g54
(dp1077
sg63
g588
sg56
(lp1078
g49
(g70
g51
NtRp1079
(dp1080
g54
(dp1081
g74
g75
ssg63
g1075
sg56
(lp1082
S'request_uri'
p1083
asbag49
(g70
g51
NtRp1084
(dp1085
g54
(dp1086
g81
g82
ssg63
g1075
sg56
(lp1087
S':'
asbag49
(g70
g51
NtRp1088
(dp1089
g54
(dp1090
sg63
g1075
sg56
(lp1091
g49
(g50
g51
NtRp1092
(dp1093
g54
(dp1094
g62
I4
ssg63
g1088
sg56
(lp1095
S'/udi0312/default/test?url=http://feeds.feedburner.com/TechCrunch/startups'
p1096
asbasbasbag49
(g65
g51
NtRp1097
(dp1098
g54
(dp1099
sg63
g588
sg56
(lp1100
g49
(g70
g51
NtRp1101
(dp1102
g54
(dp1103
g74
g75
ssg63
g1097
sg56
(lp1104
S'script_name'
p1105
asbag49
(g70
g51
NtRp1106
(dp1107
g54
(dp1108
g81
g82
ssg63
g1097
sg56
(lp1109
S':'
asbag49
(g70
g51
NtRp1110
(dp1111
g54
(dp1112
sg63
g1097
sg56
(lp1113
g49
(g50
g51
NtRp1114
(dp1115
g54
(dp1116
g62
I4
ssg63
g1110
sg56
(lp1117
S''
asbasbasbag49
(g65
g51
NtRp1118
(dp1119
g54
(dp1120
sg63
g588
sg56
(lp1121
g49
(g70
g51
NtRp1122
(dp1123
g54
(dp1124
g74
g75
ssg63
g1118
sg56
(lp1125
S'server_name'
p1126
asbag49
(g70
g51
NtRp1127
(dp1128
g54
(dp1129
g81
g82
ssg63
g1118
sg56
(lp1130
S':'
asbag49
(g70
g51
NtRp1131
(dp1132
g54
(dp1133
sg63
g1118
sg56
(lp1134
g49
(g50
g51
NtRp1135
(dp1136
g54
(dp1137
g62
I4
ssg63
g1131
sg56
(lp1138
S'udi-milos-macbook-pro.fritz.box'
p1139
asbasbasbag49
(g65
g51
NtRp1140
(dp1141
g54
(dp1142
sg63
g588
sg56
(lp1143
g49
(g70
g51
NtRp1144
(dp1145
g54
(dp1146
g74
g75
ssg63
g1140
sg56
(lp1147
S'server_port'
p1148
asbag49
(g70
g51
NtRp1149
(dp1150
g54
(dp1151
g81
g82
ssg63
g1140
sg56
(lp1152
S':'
asbag49
(g70
g51
NtRp1153
(dp1154
g54
(dp1155
sg63
g1140
sg56
(lp1156
g49
(g50
g51
NtRp1157
(dp1158
g54
(dp1159
g62
I4
ssg63
g1153
sg56
(lp1160
S'8000'
p1161
asbasbasbag49
(g65
g51
NtRp1162
(dp1163
g54
(dp1164
sg63
g588
sg56
(lp1165
g49
(g70
g51
NtRp1166
(dp1167
g54
(dp1168
g74
g75
ssg63
g1162
sg56
(lp1169
S'server_protocol'
p1170
asbag49
(g70
g51
NtRp1171
(dp1172
g54
(dp1173
g81
g82
ssg63
g1162
sg56
(lp1174
S':'
asbag49
(g70
g51
NtRp1175
(dp1176
g54
(dp1177
sg63
g1162
sg56
(lp1178
g49
(g50
g51
NtRp1179
(dp1180
g54
(dp1181
g62
I4
ssg63
g1175
sg56
(lp1182
S'HTTP/1.1'
p1183
asbasbasbag49
(g65
g51
NtRp1184
(dp1185
g54
(dp1186
sg63
g588
sg56
(lp1187
g49
(g70
g51
NtRp1188
(dp1189
g54
(dp1190
g74
g75
ssg63
g1184
sg56
(lp1191
S'server_software'
p1192
asbag49
(g70
g51
NtRp1193
(dp1194
g54
(dp1195
g81
g82
ssg63
g1184
sg56
(lp1196
S':'
asbag49
(g70
g51
NtRp1197
(dp1198
g54
(dp1199
sg63
g1184
sg56
(lp1200
g49
(g50
g51
NtRp1201
(dp1202
g54
(dp1203
g62
I4
ssg63
g1197
sg56
(lp1204
S'Rocket 1.2.4'
p1205
asbasbasbag49
(g65
g51
NtRp1206
(dp1207
g54
(dp1208
sg63
g588
sg56
(lp1209
g49
(g70
g51
NtRp1210
(dp1211
g54
(dp1212
g74
g75
ssg63
g1206
sg56
(lp1213
S'web2py_crontype'
p1214
asbag49
(g70
g51
NtRp1215
(dp1216
g54
(dp1217
g81
g82
ssg63
g1206
sg56
(lp1218
S':'
asbag49
(g70
g51
NtRp1219
(dp1220
g54
(dp1221
sg63
g1206
sg56
(lp1222
g49
(g50
g51
NtRp1223
(dp1224
g54
(dp1225
g62
I4
ssg63
g1219
sg56
(lp1226
S'hard'
p1227
asbasbasbag49
(g65
g51
NtRp1228
(dp1229
g54
(dp1230
sg63
g588
sg56
(lp1231
g49
(g70
g51
NtRp1232
(dp1233
g54
(dp1234
g74
g75
ssg63
g1228
sg56
(lp1235
S'web2py_original_uri'
p1236
asbag49
(g70
g51
NtRp1237
(dp1238
g54
(dp1239
g81
g82
ssg63
g1228
sg56
(lp1240
S':'
asbag49
(g70
g51
NtRp1241
(dp1242
g54
(dp1243
sg63
g1228
sg56
(lp1244
g49
(g50
g51
NtRp1245
(dp1246
g54
(dp1247
g62
I4
ssg63
g1241
sg56
(lp1248
S'/test?url=http://feeds.feedburner.com/TechCrunch/startups'
p1249
asbasbasbag49
(g65
g51
NtRp1250
(dp1251
g54
(dp1252
sg63
g588
sg56
(lp1253
g49
(g70
g51
NtRp1254
(dp1255
g54
(dp1256
g74
g75
ssg63
g1250
sg56
(lp1257
S'web2py_path'
p1258
asbag49
(g70
g51
NtRp1259
(dp1260
g54
(dp1261
g81
g82
ssg63
g1250
sg56
(lp1262
S':'
asbag49
(g70
g51
NtRp1263
(dp1264
g54
(dp1265
sg63
g1250
sg56
(lp1266
g49
(g50
g51
NtRp1267
(dp1268
g54
(dp1269
g62
I4
ssg63
g1263
sg56
(lp1270
g635
asbasbasbag49
(g65
g51
NtRp1271
(dp1272
g54
(dp1273
sg63
g588
sg56
(lp1274
g49
(g70
g51
NtRp1275
(dp1276
g54
(dp1277
g74
g75
ssg63
g1271
sg56
(lp1278
S'web2py_version'
p1279
asbag49
(g70
g51
NtRp1280
(dp1281
g54
(dp1282
g81
g82
ssg63
g1271
sg56
(lp1283
S':'
asbag49
(g70
g51
NtRp1284
(dp1285
g54
(dp1286
sg63
g1271
sg56
(lp1287
g49
(g50
g51
NtRp1288
(dp1289
g54
(dp1290
g62
I4
ssg63
g1284
sg56
(lp1291
g49
(g58
g51
NtRp1292
(dp1293
g54
(dp1294
g62
I3
ssg63
Nsg56
(lp1295
g49
(g65
g51
NtRp1296
(dp1297
g54
(dp1298
sg63
g1292
sg56
(lp1299
g49
(g70
g51
NtRp1300
(dp1301
g54
(dp1302
sg63
g1296
sg56
(lp1303
g49
(g50
g51
NtRp1304
(dp1305
g54
(dp1306
g62
I3
ssg63
g1300
sg56
(lp1307
S'1'
asbasbasbag49
(g65
g51
NtRp1308
(dp1309
g54
(dp1310
sg63
g1292
sg56
(lp1311
g49
(g70
g51
NtRp1312
(dp1313
g54
(dp1314
sg63
g1308
sg56
(lp1315
g49
(g50
g51
NtRp1316
(dp1317
g54
(dp1318
g62
I3
ssg63
g1312
sg56
(lp1319
S'99'
p1320
asbasbasbag49
(g65
g51
NtRp1321
(dp1322
g54
(dp1323
sg63
g1292
sg56
(lp1324
g49
(g70
g51
NtRp1325
(dp1326
g54
(dp1327
sg63
g1321
sg56
(lp1328
g49
(g50
g51
NtRp1329
(dp1330
g54
(dp1331
g62
I3
ssg63
g1325
sg56
(lp1332
S'7'
asbasbasbag49
(g65
g51
NtRp1333
(dp1334
g54
(dp1335
sg63
g1292
sg56
(lp1336
g49
(g70
g51
NtRp1337
(dp1338
g54
(dp1339
sg63
g1333
sg56
(lp1340
g49
(g50
g51
NtRp1341
(dp1342
g54
(dp1343
g62
I3
ssg63
g1337
sg56
(lp1344
S'datetime.datetime(2012, 3, 4, 22, 12, 8)'
p1345
asbasbasbag49
(g65
g51
NtRp1346
(dp1347
g54
(dp1348
sg63
g1292
sg56
(lp1349
g49
(g70
g51
NtRp1350
(dp1351
g54
(dp1352
sg63
g1346
sg56
(lp1353
g49
(g50
g51
NtRp1354
(dp1355
g54
(dp1356
g62
I3
ssg63
g1350
sg56
(lp1357
S'stable'
p1358
asbasbasbasbasbasbasbag49
(g65
g51
NtRp1359
(dp1360
g54
(dp1361
sg63
g588
sg56
(lp1362
g49
(g70
g51
NtRp1363
(dp1364
g54
(dp1365
g74
g75
ssg63
g1359
sg56
(lp1366
S'wsgi_errors'
p1367
asbag49
(g70
g51
NtRp1368
(dp1369
g54
(dp1370
g81
g82
ssg63
g1359
sg56
(lp1371
S':'
asbag49
(g70
g51
NtRp1372
(dp1373
g54
(dp1374
sg63
g1359
sg56
(lp1375
g49
(g50
g51
NtRp1376
(dp1377
g54
(dp1378
g62
I4
ssg63
g1372
sg56
(lp1379
S"<open file '<stderr>', mode 'w' at 0x4220b0>"
p1380
asbasbasbag49
(g65
g51
NtRp1381
(dp1382
g54
(dp1383
sg63
g588
sg56
(lp1384
g49
(g70
g51
NtRp1385
(dp1386
g54
(dp1387
g74
g75
ssg63
g1381
sg56
(lp1388
S'wsgi_file_wrapper'
p1389
asbag49
(g70
g51
NtRp1390
(dp1391
g54
(dp1392
g81
g82
ssg63
g1381
sg56
(lp1393
S':'
asbag49
(g70
g51
NtRp1394
(dp1395
g54
(dp1396
sg63
g1381
sg56
(lp1397
g49
(g50
g51
NtRp1398
(dp1399
g54
(dp1400
g62
I4
ssg63
g1394
sg56
(lp1401
S'<class wsgiref.util.FileWrapper at 0x22746c0>'
p1402
asbasbasbag49
(g65
g51
NtRp1403
(dp1404
g54
(dp1405
sg63
g588
sg56
(lp1406
g49
(g70
g51
NtRp1407
(dp1408
g54
(dp1409
g74
g75
ssg63
g1403
sg56
(lp1410
S'wsgi_input'
p1411
asbag49
(g70
g51
NtRp1412
(dp1413
g54
(dp1414
g81
g82
ssg63
g1403
sg56
(lp1415
S':'
asbag49
(g70
g51
NtRp1416
(dp1417
g54
(dp1418
sg63
g1403
sg56
(lp1419
g49
(g50
g51
NtRp1420
(dp1421
g54
(dp1422
g62
I4
ssg63
g1416
sg56
(lp1423
S'<socket._fileobject object at 0xa6485b0>'
p1424
asbasbasbag49
(g65
g51
NtRp1425
(dp1426
g54
(dp1427
sg63
g588
sg56
(lp1428
g49
(g70
g51
NtRp1429
(dp1430
g54
(dp1431
g74
g75
ssg63
g1425
sg56
(lp1432
S'wsgi_multiprocess'
p1433
asbag49
(g70
g51
NtRp1434
(dp1435
g54
(dp1436
g81
g82
ssg63
g1425
sg56
(lp1437
S':'
asbag49
(g70
g51
NtRp1438
(dp1439
g54
(dp1440
sg63
g1425
sg56
(lp1441
g49
(g50
g51
NtRp1442
(dp1443
g54
(dp1444
g62
I4
ssg63
g1438
sg56
(lp1445
g92
asbasbasbag49
(g65
g51
NtRp1446
(dp1447
g54
(dp1448
sg63
g588
sg56
(lp1449
g49
(g70
g51
NtRp1450
(dp1451
g54
(dp1452
g74
g75
ssg63
g1446
sg56
(lp1453
S'wsgi_multithread'
p1454
asbag49
(g70
g51
NtRp1455
(dp1456
g54
(dp1457
g81
g82
ssg63
g1446
sg56
(lp1458
S':'
asbag49
(g70
g51
NtRp1459
(dp1460
g54
(dp1461
sg63
g1446
sg56
(lp1462
g49
(g50
g51
NtRp1463
(dp1464
g54
(dp1465
g62
I4
ssg63
g1459
sg56
(lp1466
S'True'
p1467
asbasbasbag49
(g65
g51
NtRp1468
(dp1469
g54
(dp1470
sg63
g588
sg56
(lp1471
g49
(g70
g51
NtRp1472
(dp1473
g54
(dp1474
g74
g75
ssg63
g1468
sg56
(lp1475
S'wsgi_run_once'
p1476
asbag49
(g70
g51
NtRp1477
(dp1478
g54
(dp1479
g81
g82
ssg63
g1468
sg56
(lp1480
S':'
asbag49
(g70
g51
NtRp1481
(dp1482
g54
(dp1483
sg63
g1468
sg56
(lp1484
g49
(g50
g51
NtRp1485
(dp1486
g54
(dp1487
g62
I4
ssg63
g1481
sg56
(lp1488
g92
asbasbasbag49
(g65
g51
NtRp1489
(dp1490
g54
(dp1491
sg63
g588
sg56
(lp1492
g49
(g70
g51
NtRp1493
(dp1494
g54
(dp1495
g74
g75
ssg63
g1489
sg56
(lp1496
S'wsgi_url_scheme'
p1497
asbag49
(g70
g51
NtRp1498
(dp1499
g54
(dp1500
g81
g82
ssg63
g1489
sg56
(lp1501
S':'
asbag49
(g70
g51
NtRp1502
(dp1503
g54
(dp1504
sg63
g1489
sg56
(lp1505
g49
(g50
g51
NtRp1506
(dp1507
g54
(dp1508
g62
I4
ssg63
g1502
sg56
(lp1509
S'http'
p1510
asbasbasbag49
(g65
g51
NtRp1511
(dp1512
g54
(dp1513
sg63
g588
sg56
(lp1514
g49
(g70
g51
NtRp1515
(dp1516
g54
(dp1517
g74
g75
ssg63
g1511
sg56
(lp1518
S'wsgi_version'
p1519
asbag49
(g70
g51
NtRp1520
(dp1521
g54
(dp1522
g81
g82
ssg63
g1511
sg56
(lp1523
S':'
asbag49
(g70
g51
NtRp1524
(dp1525
g54
(dp1526
sg63
g1511
sg56
(lp1527
g49
(g50
g51
NtRp1528
(dp1529
g54
(dp1530
g62
I4
ssg63
g1524
sg56
(lp1531
g49
(g58
g51
NtRp1532
(dp1533
g54
(dp1534
g62
I3
ssg63
Nsg56
(lp1535
g49
(g65
g51
NtRp1536
(dp1537
g54
(dp1538
sg63
g1532
sg56
(lp1539
g49
(g70
g51
NtRp1540
(dp1541
g54
(dp1542
sg63
g1536
sg56
(lp1543
g49
(g50
g51
NtRp1544
(dp1545
g54
(dp1546
g62
I3
ssg63
g1540
sg56
(lp1547
S'1'
asbasbasbag49
(g65
g51
NtRp1548
(dp1549
g54
(dp1550
sg63
g1532
sg56
(lp1551
g49
(g70
g51
NtRp1552
(dp1553
g54
(dp1554
sg63
g1548
sg56
(lp1555
g49
(g50
g51
NtRp1556
(dp1557
g54
(dp1558
g62
I3
ssg63
g1552
sg56
(lp1559
S'0'
asbasbasbasbasbasbasbasbasbasbasbag49
(g65
g51
NtRp1560
(dp1561
g54
(dp1562
sg63
g59
sg56
(lp1563
g49
(g70
g51
NtRp1564
(dp1565
g54
(dp1566
g74
g75
ssg63
g1560
sg56
(lp1567
S'extension'
p1568
asbag49
(g70
g51
NtRp1569
(dp1570
g54
(dp1571
g81
g82
ssg63
g1560
sg56
(lp1572
S':'
asbag49
(g70
g51
NtRp1573
(dp1574
g54
(dp1575
sg63
g1560
sg56
(lp1576
g49
(g50
g51
NtRp1577
(dp1578
g54
(dp1579
g62
I5
ssg63
g1573
sg56
(lp1580
S'html'
p1581
asbasbasbag49
(g65
g51
NtRp1582
(dp1583
g54
(dp1584
sg63
g59
sg56
(lp1585
g49
(g70
g51
NtRp1586
(dp1587
g54
(dp1588
g74
g75
ssg63
g1582
sg56
(lp1589
S'folder'
p1590
asbag49
(g70
g51
NtRp1591
(dp1592
g54
(dp1593
g81
g82
ssg63
g1582
sg56
(lp1594
S':'
asbag49
(g70
g51
NtRp1595
(dp1596
g54
(dp1597
sg63
g1582
sg56
(lp1598
g49
(g50
g51
NtRp1599
(dp1600
g54
(dp1601
g62
I5
ssg63
g1595
sg56
(lp1602
S'/Users/udimilo/Documents/web2py/applications/udi0312/'
p1603
asbasbasbag49
(g65
g51
NtRp1604
(dp1605
g54
(dp1606
sg63
g59
sg56
(lp1607
g49
(g70
g51
NtRp1608
(dp1609
g54
(dp1610
g74
g75
ssg63
g1604
sg56
(lp1611
S'function'
p1612
asbag49
(g70
g51
NtRp1613
(dp1614
g54
(dp1615
g81
g82
ssg63
g1604
sg56
(lp1616
S':'
asbag49
(g70
g51
NtRp1617
(dp1618
g54
(dp1619
sg63
g1604
sg56
(lp1620
g49
(g50
g51
NtRp1621
(dp1622
g54
(dp1623
g62
I5
ssg63
g1617
sg56
(lp1624
S'test'
p1625
asbasbasbag49
(g65
g51
NtRp1626
(dp1627
g54
(dp1628
sg63
g59
sg56
(lp1629
g49
(g70
g51
NtRp1630
(dp1631
g54
(dp1632
g74
g75
ssg63
g1626
sg56
(lp1633
S'get_vars'
p1634
asbag49
(g70
g51
NtRp1635
(dp1636
g54
(dp1637
g81
g82
ssg63
g1626
sg56
(lp1638
S':'
asbag49
(g70
g51
NtRp1639
(dp1640
g54
(dp1641
sg63
g1626
sg56
(lp1642
g49
(g50
g51
NtRp1643
(dp1644
g54
(dp1645
g62
I5
ssg63
g1639
sg56
(lp1646
g49
(g58
g51
NtRp1647
(dp1648
g54
(dp1649
g62
I4
ssg63
Nsg56
(lp1650
g49
(g65
g51
NtRp1651
(dp1652
g54
(dp1653
sg63
g1647
sg56
(lp1654
g49
(g70
g51
NtRp1655
(dp1656
g54
(dp1657
g74
g75
ssg63
g1651
sg56
(lp1658
S'url'
p1659
asbag49
(g70
g51
NtRp1660
(dp1661
g54
(dp1662
g81
g82
ssg63
g1651
sg56
(lp1663
S':'
asbag49
(g70
g51
NtRp1664
(dp1665
g54
(dp1666
sg63
g1651
sg56
(lp1667
g49
(g50
g51
NtRp1668
(dp1669
g54
(dp1670
g62
I4
ssg63
g1664
sg56
(lp1671
S'http://feeds.feedburner.com/TechCrunch/startups'
p1672
asbasbasbasbasbasbasbag49
(g65
g51
NtRp1673
(dp1674
g54
(dp1675
sg63
g59
sg56
(lp1676
g49
(g70
g51
NtRp1677
(dp1678
g54
(dp1679
g74
g75
ssg63
g1673
sg56
(lp1680
S'global_settings'
p1681
asbag49
(g70
g51
NtRp1682
(dp1683
g54
(dp1684
g81
g82
ssg63
g1673
sg56
(lp1685
S':'
asbag49
(g70
g51
NtRp1686
(dp1687
g54
(dp1688
sg63
g1673
sg56
(lp1689
g49
(g50
g51
NtRp1690
(dp1691
g54
(dp1692
g62
I5
ssg63
g1686
sg56
(lp1693
g49
(g58
g51
NtRp1694
(dp1695
g54
(dp1696
g62
I4
ssg63
Nsg56
(lp1697
g49
(g65
g51
NtRp1698
(dp1699
g54
(dp1700
sg63
g1694
sg56
(lp1701
g49
(g70
g51
NtRp1702
(dp1703
g54
(dp1704
g74
g75
ssg63
g1698
sg56
(lp1705
g600
asbag49
(g70
g51
NtRp1706
(dp1707
g54
(dp1708
g81
g82
ssg63
g1698
sg56
(lp1709
S':'
asbag49
(g70
g51
NtRp1710
(dp1711
g54
(dp1712
sg63
g1698
sg56
(lp1713
g49
(g50
g51
NtRp1714
(dp1715
g54
(dp1716
g62
I4
ssg63
g1710
sg56
(lp1717
S"set(['/Users/udimilo/Documents/web2py/applications/udi0312/', '/Users/udimilo/Documents/web2py/applications/admin/'])"
p1718
asbasbasbag49
(g65
g51
NtRp1719
(dp1720
g54
(dp1721
sg63
g1694
sg56
(lp1722
g49
(g70
g51
NtRp1723
(dp1724
g54
(dp1725
g74
g75
ssg63
g1719
sg56
(lp1726
g622
asbag49
(g70
g51
NtRp1727
(dp1728
g54
(dp1729
g81
g82
ssg63
g1719
sg56
(lp1730
S':'
asbag49
(g70
g51
NtRp1731
(dp1732
g54
(dp1733
sg63
g1719
sg56
(lp1734
g49
(g50
g51
NtRp1735
(dp1736
g54
(dp1737
g62
I4
ssg63
g1731
sg56
(lp1738
g635
asbasbasbag49
(g65
g51
NtRp1739
(dp1740
g54
(dp1741
sg63
g1694
sg56
(lp1742
g49
(g70
g51
NtRp1743
(dp1744
g54
(dp1745
g74
g75
ssg63
g1739
sg56
(lp1746
g644
asbag49
(g70
g51
NtRp1747
(dp1748
g54
(dp1749
g81
g82
ssg63
g1739
sg56
(lp1750
S':'
asbag49
(g70
g51
NtRp1751
(dp1752
g54
(dp1753
sg63
g1739
sg56
(lp1754
g49
(g50
g51
NtRp1755
(dp1756
g54
(dp1757
g62
I4
ssg63
g1751
sg56
(lp1758
g49
(g58
g51
NtRp1759
(dp1760
g54
(dp1761
g62
I3
ssg63
Nsg56
(lp1762
sbasbasbasbag49
(g65
g51
NtRp1763
(dp1764
g54
(dp1765
sg63
g1694
sg56
(lp1766
g49
(g70
g51
NtRp1767
(dp1768
g54
(dp1769
g74
g75
ssg63
g1763
sg56
(lp1770
g669
asbag49
(g70
g51
NtRp1771
(dp1772
g54
(dp1773
g81
g82
ssg63
g1763
sg56
(lp1774
S':'
asbag49
(g70
g51
NtRp1775
(dp1776
g54
(dp1777
sg63
g1763
sg56
(lp1778
g49
(g50
g51
NtRp1779
(dp1780
g54
(dp1781
g62
I4
ssg63
g1775
sg56
(lp1782
S"<Values at 0x23301c0: {'verbose': False, 'ip': '127.0.0.1', 'shutdown_timeout': 5, 'taskbar': False, 'nocron': False, 'pid_filename': 'httpserver.pid', 'maxthreads': None, 'softcron': False, 'server_name': 'udi-milos-macbook-pro.fritz.box', 'bpython': False, 'nogui': False, 'port': 8000, 'extcron': False, 'debuglevel': 30, 'test': None, 'folder': '/Users/udimilo/Documents/web2py', 'config': '', 'import_models': False, 'winservice': '', 'shell': None, 'run': '', 'log_filename': 'httpserver.log', 'args': [''], 'socket_timeout': 5, 'ssl_ca_certificate': None, 'scheduler': None, 'profiler_filename': None, 'ssl_private_key': '', 'password': '<ask>', 'request_queue_size': 5, 'ssl_certificate': '', 'cronjob': False, 'numthreads': None, 'quiet': False, 'interfaces': None, 'minthreads': None, 'timeout': 10, 'plain': False, 'nobanner': False}>"
p1783
asbasbasbag49
(g65
g51
NtRp1784
(dp1785
g54
(dp1786
sg63
g1694
sg56
(lp1787
g49
(g70
g51
NtRp1788
(dp1789
g54
(dp1790
g74
g75
ssg63
g1784
sg56
(lp1791
g691
asbag49
(g70
g51
NtRp1792
(dp1793
g54
(dp1794
g81
g82
ssg63
g1784
sg56
(lp1795
S':'
asbag49
(g70
g51
NtRp1796
(dp1797
g54
(dp1798
sg63
g1784
sg56
(lp1799
g49
(g50
g51
NtRp1800
(dp1801
g54
(dp1802
g62
I4
ssg63
g1796
sg56
(lp1803
S'set([])'
p1804
asbasbasbag49
(g65
g51
NtRp1805
(dp1806
g54
(dp1807
sg63
g1694
sg56
(lp1808
g49
(g70
g51
NtRp1809
(dp1810
g54
(dp1811
g74
g75
ssg63
g1805
sg56
(lp1812
g713
asbag49
(g70
g51
NtRp1813
(dp1814
g54
(dp1815
g81
g82
ssg63
g1805
sg56
(lp1816
S':'
asbag49
(g70
g51
NtRp1817
(dp1818
g54
(dp1819
sg63
g1805
sg56
(lp1820
g49
(g50
g51
NtRp1821
(dp1822
g54
(dp1823
g62
I4
ssg63
g1817
sg56
(lp1824
g92
asbasbasbag49
(g65
g51
NtRp1825
(dp1826
g54
(dp1827
sg63
g1694
sg56
(lp1828
g49
(g70
g51
NtRp1829
(dp1830
g54
(dp1831
g74
g75
ssg63
g1825
sg56
(lp1832
g734
asbag49
(g70
g51
NtRp1833
(dp1834
g54
(dp1835
g81
g82
ssg63
g1825
sg56
(lp1836
S':'
asbag49
(g70
g51
NtRp1837
(dp1838
g54
(dp1839
sg63
g1825
sg56
(lp1840
g49
(g50
g51
NtRp1841
(dp1842
g54
(dp1843
g62
I4
ssg63
g1837
sg56
(lp1844
g747
asbasbasbag49
(g65
g51
NtRp1845
(dp1846
g54
(dp1847
sg63
g1694
sg56
(lp1848
g49
(g70
g51
NtRp1849
(dp1850
g54
(dp1851
g74
g75
ssg63
g1845
sg56
(lp1852
g932
asbag49
(g70
g51
NtRp1853
(dp1854
g54
(dp1855
g81
g82
ssg63
g1845
sg56
(lp1856
S':'
asbag49
(g70
g51
NtRp1857
(dp1858
g54
(dp1859
sg63
g1845
sg56
(lp1860
g49
(g50
g51
NtRp1861
(dp1862
g54
(dp1863
g62
I4
ssg63
g1857
sg56
(lp1864
g92
asbasbasbag49
(g65
g51
NtRp1865
(dp1866
g54
(dp1867
sg63
g1694
sg56
(lp1868
g49
(g70
g51
NtRp1869
(dp1870
g54
(dp1871
g74
g75
ssg63
g1865
sg56
(lp1872
g953
asbag49
(g70
g51
NtRp1873
(dp1874
g54
(dp1875
g81
g82
ssg63
g1865
sg56
(lp1876
S':'
asbag49
(g70
g51
NtRp1877
(dp1878
g54
(dp1879
sg63
g1865
sg56
(lp1880
g49
(g50
g51
NtRp1881
(dp1882
g54
(dp1883
g62
I4
ssg63
g1877
sg56
(lp1884
g92
asbasbasbag49
(g65
g51
NtRp1885
(dp1886
g54
(dp1887
sg63
g1694
sg56
(lp1888
g49
(g70
g51
NtRp1889
(dp1890
g54
(dp1891
g74
g75
ssg63
g1885
sg56
(lp1892
g1214
asbag49
(g70
g51
NtRp1893
(dp1894
g54
(dp1895
g81
g82
ssg63
g1885
sg56
(lp1896
S':'
asbag49
(g70
g51
NtRp1897
(dp1898
g54
(dp1899
sg63
g1885
sg56
(lp1900
g49
(g50
g51
NtRp1901
(dp1902
g54
(dp1903
g62
I4
ssg63
g1897
sg56
(lp1904
g1227
asbasbasbag49
(g65
g51
NtRp1905
(dp1906
g54
(dp1907
sg63
g1694
sg56
(lp1908
g49
(g70
g51
NtRp1909
(dp1910
g54
(dp1911
g74
g75
ssg63
g1905
sg56
(lp1912
g1279
asbag49
(g70
g51
NtRp1913
(dp1914
g54
(dp1915
g81
g82
ssg63
g1905
sg56
(lp1916
S':'
asbag49
(g70
g51
NtRp1917
(dp1918
g54
(dp1919
sg63
g1905
sg56
(lp1920
g49
(g50
g51
NtRp1921
(dp1922
g54
(dp1923
g62
I4
ssg63
g1917
sg56
(lp1924
g49
(g58
g51
NtRp1925
(dp1926
g54
(dp1927
g62
I3
ssg63
Nsg56
(lp1928
g49
(g65
g51
NtRp1929
(dp1930
g54
(dp1931
sg63
g1925
sg56
(lp1932
g49
(g70
g51
NtRp1933
(dp1934
g54
(dp1935
sg63
g1929
sg56
(lp1936
g49
(g50
g51
NtRp1937
(dp1938
g54
(dp1939
g62
I3
ssg63
g1933
sg56
(lp1940
S'1'
asbasbasbag49
(g65
g51
NtRp1941
(dp1942
g54
(dp1943
sg63
g1925
sg56
(lp1944
g49
(g70
g51
NtRp1945
(dp1946
g54
(dp1947
sg63
g1941
sg56
(lp1948
g49
(g50
g51
NtRp1949
(dp1950
g54
(dp1951
g62
I3
ssg63
g1945
sg56
(lp1952
S'99'
p1953
asbasbasbag49
(g65
g51
NtRp1954
(dp1955
g54
(dp1956
sg63
g1925
sg56
(lp1957
g49
(g70
g51
NtRp1958
(dp1959
g54
(dp1960
sg63
g1954
sg56
(lp1961
g49
(g50
g51
NtRp1962
(dp1963
g54
(dp1964
g62
I3
ssg63
g1958
sg56
(lp1965
S'7'
asbasbasbag49
(g65
g51
NtRp1966
(dp1967
g54
(dp1968
sg63
g1925
sg56
(lp1969
g49
(g70
g51
NtRp1970
(dp1971
g54
(dp1972
sg63
g1966
sg56
(lp1973
g49
(g50
g51
NtRp1974
(dp1975
g54
(dp1976
g62
I3
ssg63
g1970
sg56
(lp1977
S'datetime.datetime(2012, 3, 4, 22, 12, 8)'
p1978
asbasbasbag49
(g65
g51
NtRp1979
(dp1980
g54
(dp1981
sg63
g1925
sg56
(lp1982
g49
(g70
g51
NtRp1983
(dp1984
g54
(dp1985
sg63
g1979
sg56
(lp1986
g49
(g50
g51
NtRp1987
(dp1988
g54
(dp1989
g62
I3
ssg63
g1983
sg56
(lp1990
g1358
asbasbasbasbasbasbasbasbasbasbasbag49
(g65
g51
NtRp1991
(dp1992
g54
(dp1993
sg63
g59
sg56
(lp1994
g49
(g70
g51
NtRp1995
(dp1996
g54
(dp1997
g74
g75
ssg63
g1991
sg56
(lp1998
S'is_https'
p1999
asbag49
(g70
g51
NtRp2000
(dp2001
g54
(dp2002
g81
g82
ssg63
g1991
sg56
(lp2003
S':'
asbag49
(g70
g51
NtRp2004
(dp2005
g54
(dp2006
sg63
g1991
sg56
(lp2007
g49
(g50
g51
NtRp2008
(dp2009
g54
(dp2010
g62
I5
ssg63
g2004
sg56
(lp2011
g92
asbasbasbag49
(g65
g51
NtRp2012
(dp2013
g54
(dp2014
sg63
g59
sg56
(lp2015
g49
(g70
g51
NtRp2016
(dp2017
g54
(dp2018
g74
g75
ssg63
g2012
sg56
(lp2019
S'is_local'
p2020
asbag49
(g70
g51
NtRp2021
(dp2022
g54
(dp2023
g81
g82
ssg63
g2012
sg56
(lp2024
S':'
asbag49
(g70
g51
NtRp2025
(dp2026
g54
(dp2027
sg63
g2012
sg56
(lp2028
g49
(g50
g51
NtRp2029
(dp2030
g54
(dp2031
g62
I5
ssg63
g2025
sg56
(lp2032
g1467
asbasbasbag49
(g65
g51
NtRp2033
(dp2034
g54
(dp2035
sg63
g59
sg56
(lp2036
g49
(g70
g51
NtRp2037
(dp2038
g54
(dp2039
g74
g75
ssg63
g2033
sg56
(lp2040
S'is_restful'
p2041
asbag49
(g70
g51
NtRp2042
(dp2043
g54
(dp2044
g81
g82
ssg63
g2033
sg56
(lp2045
S':'
asbag49
(g70
g51
NtRp2046
(dp2047
g54
(dp2048
sg63
g2033
sg56
(lp2049
g49
(g50
g51
NtRp2050
(dp2051
g54
(dp2052
g62
I5
ssg63
g2046
sg56
(lp2053
g92
asbasbasbag49
(g65
g51
NtRp2054
(dp2055
g54
(dp2056
sg63
g59
sg56
(lp2057
g49
(g70
g51
NtRp2058
(dp2059
g54
(dp2060
g74
g75
ssg63
g2054
sg56
(lp2061
S'now'
p2062
asbag49
(g70
g51
NtRp2063
(dp2064
g54
(dp2065
g81
g82
ssg63
g2054
sg56
(lp2066
S':'
asbag49
(g70
g51
NtRp2067
(dp2068
g54
(dp2069
sg63
g2054
sg56
(lp2070
g49
(g50
g51
NtRp2071
(dp2072
g54
(dp2073
g62
I5
ssg63
g2067
sg56
(lp2074
S'datetime.datetime(2012, 3, 15, 17, 36, 51, 579823)'
p2075
asbasbasbag49
(g65
g51
NtRp2076
(dp2077
g54
(dp2078
sg63
g59
sg56
(lp2079
g49
(g70
g51
NtRp2080
(dp2081
g54
(dp2082
g74
g75
ssg63
g2076
sg56
(lp2083
S'post_vars'
p2084
asbag49
(g70
g51
NtRp2085
(dp2086
g54
(dp2087
g81
g82
ssg63
g2076
sg56
(lp2088
S':'
asbag49
(g70
g51
NtRp2089
(dp2090
g54
(dp2091
sg63
g2076
sg56
(lp2092
g49
(g50
g51
NtRp2093
(dp2094
g54
(dp2095
g62
I5
ssg63
g2089
sg56
(lp2096
g49
(g58
g51
NtRp2097
(dp2098
g54
(dp2099
g62
I4
ssg63
Nsg56
(lp2100
sbasbasbasbag49
(g65
g51
NtRp2101
(dp2102
g54
(dp2103
sg63
g59
sg56
(lp2104
g49
(g70
g51
NtRp2105
(dp2106
g54
(dp2107
g74
g75
ssg63
g2101
sg56
(lp2108
S'url'
p2109
asbag49
(g70
g51
NtRp2110
(dp2111
g54
(dp2112
g81
g82
ssg63
g2101
sg56
(lp2113
S':'
asbag49
(g70
g51
NtRp2114
(dp2115
g54
(dp2116
sg63
g2101
sg56
(lp2117
g49
(g50
g51
NtRp2118
(dp2119
g54
(dp2120
g62
I5
ssg63
g2114
sg56
(lp2121
S'/test'
p2122
asbasbasbag49
(g65
g51
NtRp2123
(dp2124
g54
(dp2125
sg63
g59
sg56
(lp2126
g49
(g70
g51
NtRp2127
(dp2128
g54
(dp2129
g74
g75
ssg63
g2123
sg56
(lp2130
S'utcnow'
p2131
asbag49
(g70
g51
NtRp2132
(dp2133
g54
(dp2134
g81
g82
ssg63
g2123
sg56
(lp2135
S':'
asbag49
(g70
g51
NtRp2136
(dp2137
g54
(dp2138
sg63
g2123
sg56
(lp2139
g49
(g50
g51
NtRp2140
(dp2141
g54
(dp2142
g62
I5
ssg63
g2136
sg56
(lp2143
S'datetime.datetime(2012, 3, 15, 21, 36, 51, 579843)'
p2144
asbasbasbag49
(g65
g51
NtRp2145
(dp2146
g54
(dp2147
sg63
g59
sg56
(lp2148
g49
(g70
g51
NtRp2149
(dp2150
g54
(dp2151
g74
g75
ssg63
g2145
sg56
(lp2152
S'uuid'
p2153
asbag49
(g70
g51
NtRp2154
(dp2155
g54
(dp2156
g81
g82
ssg63
g2145
sg56
(lp2157
S':'
asbag49
(g70
g51
NtRp2158
(dp2159
g54
(dp2160
sg63
g2145
sg56
(lp2161
g49
(g50
g51
NtRp2162
(dp2163
g54
(dp2164
g62
I5
ssg63
g2158
sg56
(lp2165
S'udi0312/127.0.0.1.2012-03-15.17-36-51.d35f9a98-b344-493d-a76b-1b1f0cb51bf4'
p2166
asbasbasbag49
(g65
g51
NtRp2167
(dp2168
g54
(dp2169
sg63
g59
sg56
(lp2170
g49
(g70
g51
NtRp2171
(dp2172
g54
(dp2173
g74
g75
ssg63
g2167
sg56
(lp2174
S'vars'
p2175
asbag49
(g70
g51
NtRp2176
(dp2177
g54
(dp2178
g81
g82
ssg63
g2167
sg56
(lp2179
S':'
asbag49
(g70
g51
NtRp2180
(dp2181
g54
(dp2182
sg63
g2167
sg56
(lp2183
g49
(g50
g51
NtRp2184
(dp2185
g54
(dp2186
g62
I5
ssg63
g2180
sg56
(lp2187
g49
(g58
g51
NtRp2188
(dp2189
g54
(dp2190
g62
I4
ssg63
Nsg56
(lp2191
g49
(g65
g51
NtRp2192
(dp2193
g54
(dp2194
sg63
g2188
sg56
(lp2195
g49
(g70
g51
NtRp2196
(dp2197
g54
(dp2198
g74
g75
ssg63
g2192
sg56
(lp2199
g1659
asbag49
(g70
g51
NtRp2200
(dp2201
g54
(dp2202
g81
g82
ssg63
g2192
sg56
(lp2203
S':'
asbag49
(g70
g51
NtRp2204
(dp2205
g54
(dp2206
sg63
g2192
sg56
(lp2207
g49
(g50
g51
NtRp2208
(dp2209
g54
(dp2210
g62
I4
ssg63
g2204
sg56
(lp2211
g1672
asbasbasbasbasbasbasbag49
(g65
g51
NtRp2212
(dp2213
g54
(dp2214
sg63
g59
sg56
(lp2215
g49
(g70
g51
NtRp2216
(dp2217
g54
(dp2218
g74
g75
ssg63
g2212
sg56
(lp2219
S'wsgi'
p2220
asbag49
(g70
g51
NtRp2221
(dp2222
g54
(dp2223
g81
g82
ssg63
g2212
sg56
(lp2224
S':'
asbag49
(g70
g51
NtRp2225
(dp2226
g54
(dp2227
sg63
g2212
sg56
(lp2228
g49
(g50
g51
NtRp2229
(dp2230
g54
(dp2231
g62
I5
ssg63
g2225
sg56
(lp2232
g49
(g58
g51
NtRp2233
(dp2234
g54
(dp2235
g62
I4
ssg63
Nsg56
(lp2236
g49
(g65
g51
NtRp2237
(dp2238
g54
(dp2239
sg63
g2233
sg56
(lp2240
g49
(g70
g51
NtRp2241
(dp2242
g54
(dp2243
g74
g75
ssg63
g2237
sg56
(lp2244
S'environ'
p2245
asbag49
(g70
g51
NtRp2246
(dp2247
g54
(dp2248
g81
g82
ssg63
g2237
sg56
(lp2249
S':'
asbag49
(g70
g51
NtRp2250
(dp2251
g54
(dp2252
sg63
g2237
sg56
(lp2253
g49
(g50
g51
NtRp2254
(dp2255
g54
(dp2256
g62
I4
ssg63
g2250
sg56
(lp2257
g49
(g58
g51
NtRp2258
(dp2259
g54
(dp2260
g62
I3
ssg63
Nsg56
(lp2261
g49
(g65
g51
NtRp2262
(dp2263
g54
(dp2264
sg63
g2258
sg56
(lp2265
g49
(g70
g51
NtRp2266
(dp2267
g54
(dp2268
g74
g75
ssg63
g2262
sg56
(lp2269
S'HTTP_ACCEPT'
p2270
asbag49
(g70
g51
NtRp2271
(dp2272
g54
(dp2273
g81
g82
ssg63
g2262
sg56
(lp2274
S':'
asbag49
(g70
g51
NtRp2275
(dp2276
g54
(dp2277
sg63
g2262
sg56
(lp2278
g49
(g50
g51
NtRp2279
(dp2280
g54
(dp2281
g62
I3
ssg63
g2275
sg56
(lp2282
g769
asbasbasbag49
(g65
g51
NtRp2283
(dp2284
g54
(dp2285
sg63
g2258
sg56
(lp2286
g49
(g70
g51
NtRp2287
(dp2288
g54
(dp2289
g74
g75
ssg63
g2283
sg56
(lp2290
S'HTTP_ACCEPT_CHARSET'
p2291
asbag49
(g70
g51
NtRp2292
(dp2293
g54
(dp2294
g81
g82
ssg63
g2283
sg56
(lp2295
S':'
asbag49
(g70
g51
NtRp2296
(dp2297
g54
(dp2298
sg63
g2283
sg56
(lp2299
g49
(g50
g51
NtRp2300
(dp2301
g54
(dp2302
g62
I3
ssg63
g2296
sg56
(lp2303
g791
asbasbasbag49
(g65
g51
NtRp2304
(dp2305
g54
(dp2306
sg63
g2258
sg56
(lp2307
g49
(g70
g51
NtRp2308
(dp2309
g54
(dp2310
g74
g75
ssg63
g2304
sg56
(lp2311
S'HTTP_ACCEPT_ENCODING'
p2312
asbag49
(g70
g51
NtRp2313
(dp2314
g54
(dp2315
g81
g82
ssg63
g2304
sg56
(lp2316
S':'
asbag49
(g70
g51
NtRp2317
(dp2318
g54
(dp2319
sg63
g2304
sg56
(lp2320
g49
(g50
g51
NtRp2321
(dp2322
g54
(dp2323
g62
I3
ssg63
g2317
sg56
(lp2324
g813
asbasbasbag49
(g65
g51
NtRp2325
(dp2326
g54
(dp2327
sg63
g2258
sg56
(lp2328
g49
(g70
g51
NtRp2329
(dp2330
g54
(dp2331
g74
g75
ssg63
g2325
sg56
(lp2332
S'HTTP_ACCEPT_LANGUAGE'
p2333
asbag49
(g70
g51
NtRp2334
(dp2335
g54
(dp2336
g81
g82
ssg63
g2325
sg56
(lp2337
S':'
asbag49
(g70
g51
NtRp2338
(dp2339
g54
(dp2340
sg63
g2325
sg56
(lp2341
g49
(g50
g51
NtRp2342
(dp2343
g54
(dp2344
g62
I3
ssg63
g2338
sg56
(lp2345
g835
asbasbasbag49
(g65
g51
NtRp2346
(dp2347
g54
(dp2348
sg63
g2258
sg56
(lp2349
g49
(g70
g51
NtRp2350
(dp2351
g54
(dp2352
g74
g75
ssg63
g2346
sg56
(lp2353
S'HTTP_CONNECTION'
p2354
asbag49
(g70
g51
NtRp2355
(dp2356
g54
(dp2357
g81
g82
ssg63
g2346
sg56
(lp2358
S':'
asbag49
(g70
g51
NtRp2359
(dp2360
g54
(dp2361
sg63
g2346
sg56
(lp2362
g49
(g50
g51
NtRp2363
(dp2364
g54
(dp2365
g62
I3
ssg63
g2359
sg56
(lp2366
g857
asbasbasbag49
(g65
g51
NtRp2367
(dp2368
g54
(dp2369
sg63
g2258
sg56
(lp2370
g49
(g70
g51
NtRp2371
(dp2372
g54
(dp2373
g74
g75
ssg63
g2367
sg56
(lp2374
S'HTTP_COOKIE'
p2375
asbag49
(g70
g51
NtRp2376
(dp2377
g54
(dp2378
g81
g82
ssg63
g2367
sg56
(lp2379
S':'
asbag49
(g70
g51
NtRp2380
(dp2381
g54
(dp2382
sg63
g2367
sg56
(lp2383
g49
(g50
g51
NtRp2384
(dp2385
g54
(dp2386
g62
I3
ssg63
g2380
sg56
(lp2387
g879
asbasbasbag49
(g65
g51
NtRp2388
(dp2389
g54
(dp2390
sg63
g2258
sg56
(lp2391
g49
(g70
g51
NtRp2392
(dp2393
g54
(dp2394
g74
g75
ssg63
g2388
sg56
(lp2395
S'HTTP_HOST'
p2396
asbag49
(g70
g51
NtRp2397
(dp2398
g54
(dp2399
g81
g82
ssg63
g2388
sg56
(lp2400
S':'
asbag49
(g70
g51
NtRp2401
(dp2402
g54
(dp2403
sg63
g2388
sg56
(lp2404
g49
(g50
g51
NtRp2405
(dp2406
g54
(dp2407
g62
I3
ssg63
g2401
sg56
(lp2408
g901
asbasbasbag49
(g65
g51
NtRp2409
(dp2410
g54
(dp2411
sg63
g2258
sg56
(lp2412
g49
(g70
g51
NtRp2413
(dp2414
g54
(dp2415
g74
g75
ssg63
g2409
sg56
(lp2416
S'HTTP_USER_AGENT'
p2417
asbag49
(g70
g51
NtRp2418
(dp2419
g54
(dp2420
g81
g82
ssg63
g2409
sg56
(lp2421
S':'
asbag49
(g70
g51
NtRp2422
(dp2423
g54
(dp2424
sg63
g2409
sg56
(lp2425
g49
(g50
g51
NtRp2426
(dp2427
g54
(dp2428
g62
I3
ssg63
g2422
sg56
(lp2429
g923
asbasbasbag49
(g65
g51
NtRp2430
(dp2431
g54
(dp2432
sg63
g2258
sg56
(lp2433
g49
(g70
g51
NtRp2434
(dp2435
g54
(dp2436
g74
g75
ssg63
g2430
sg56
(lp2437
S'PATH_INFO'
p2438
asbag49
(g70
g51
NtRp2439
(dp2440
g54
(dp2441
g81
g82
ssg63
g2430
sg56
(lp2442
S':'
asbag49
(g70
g51
NtRp2443
(dp2444
g54
(dp2445
sg63
g2430
sg56
(lp2446
g49
(g50
g51
NtRp2447
(dp2448
g54
(dp2449
g62
I3
ssg63
g2443
sg56
(lp2450
g987
asbasbasbag49
(g65
g51
NtRp2451
(dp2452
g54
(dp2453
sg63
g2258
sg56
(lp2454
g49
(g70
g51
NtRp2455
(dp2456
g54
(dp2457
g74
g75
ssg63
g2451
sg56
(lp2458
S'QUERY_STRING'
p2459
asbag49
(g70
g51
NtRp2460
(dp2461
g54
(dp2462
g81
g82
ssg63
g2451
sg56
(lp2463
S':'
asbag49
(g70
g51
NtRp2464
(dp2465
g54
(dp2466
sg63
g2451
sg56
(lp2467
g49
(g50
g51
NtRp2468
(dp2469
g54
(dp2470
g62
I3
ssg63
g2464
sg56
(lp2471
g1009
asbasbasbag49
(g65
g51
NtRp2472
(dp2473
g54
(dp2474
sg63
g2258
sg56
(lp2475
g49
(g70
g51
NtRp2476
(dp2477
g54
(dp2478
g74
g75
ssg63
g2472
sg56
(lp2479
S'REMOTE_ADDR'
p2480
asbag49
(g70
g51
NtRp2481
(dp2482
g54
(dp2483
g81
g82
ssg63
g2472
sg56
(lp2484
S':'
asbag49
(g70
g51
NtRp2485
(dp2486
g54
(dp2487
sg63
g2472
sg56
(lp2488
g49
(g50
g51
NtRp2489
(dp2490
g54
(dp2491
g62
I3
ssg63
g2485
sg56
(lp2492
g182
asbasbasbag49
(g65
g51
NtRp2493
(dp2494
g54
(dp2495
sg63
g2258
sg56
(lp2496
g49
(g70
g51
NtRp2497
(dp2498
g54
(dp2499
g74
g75
ssg63
g2493
sg56
(lp2500
S'REMOTE_PORT'
p2501
asbag49
(g70
g51
NtRp2502
(dp2503
g54
(dp2504
g81
g82
ssg63
g2493
sg56
(lp2505
S':'
asbag49
(g70
g51
NtRp2506
(dp2507
g54
(dp2508
sg63
g2493
sg56
(lp2509
g49
(g50
g51
NtRp2510
(dp2511
g54
(dp2512
g62
I3
ssg63
g2506
sg56
(lp2513
g1052
asbasbasbag49
(g65
g51
NtRp2514
(dp2515
g54
(dp2516
sg63
g2258
sg56
(lp2517
g49
(g70
g51
NtRp2518
(dp2519
g54
(dp2520
g74
g75
ssg63
g2514
sg56
(lp2521
S'REQUEST_METHOD'
p2522
asbag49
(g70
g51
NtRp2523
(dp2524
g54
(dp2525
g81
g82
ssg63
g2514
sg56
(lp2526
S':'
asbag49
(g70
g51
NtRp2527
(dp2528
g54
(dp2529
sg63
g2514
sg56
(lp2530
g49
(g50
g51
NtRp2531
(dp2532
g54
(dp2533
g62
I3
ssg63
g2527
sg56
(lp2534
g1074
asbasbasbag49
(g65
g51
NtRp2535
(dp2536
g54
(dp2537
sg63
g2258
sg56
(lp2538
g49
(g70
g51
NtRp2539
(dp2540
g54
(dp2541
g74
g75
ssg63
g2535
sg56
(lp2542
S'REQUEST_URI'
p2543
asbag49
(g70
g51
NtRp2544
(dp2545
g54
(dp2546
g81
g82
ssg63
g2535
sg56
(lp2547
S':'
asbag49
(g70
g51
NtRp2548
(dp2549
g54
(dp2550
sg63
g2535
sg56
(lp2551
g49
(g50
g51
NtRp2552
(dp2553
g54
(dp2554
g62
I3
ssg63
g2548
sg56
(lp2555
g1096
asbasbasbag49
(g65
g51
NtRp2556
(dp2557
g54
(dp2558
sg63
g2258
sg56
(lp2559
g49
(g70
g51
NtRp2560
(dp2561
g54
(dp2562
g74
g75
ssg63
g2556
sg56
(lp2563
S'SCRIPT_NAME'
p2564
asbag49
(g70
g51
NtRp2565
(dp2566
g54
(dp2567
g81
g82
ssg63
g2556
sg56
(lp2568
S':'
asbag49
(g70
g51
NtRp2569
(dp2570
g54
(dp2571
sg63
g2556
sg56
(lp2572
g49
(g50
g51
NtRp2573
(dp2574
g54
(dp2575
g62
I3
ssg63
g2569
sg56
(lp2576
S''
asbasbasbag49
(g65
g51
NtRp2577
(dp2578
g54
(dp2579
sg63
g2258
sg56
(lp2580
g49
(g70
g51
NtRp2581
(dp2582
g54
(dp2583
g74
g75
ssg63
g2577
sg56
(lp2584
S'SERVER_NAME'
p2585
asbag49
(g70
g51
NtRp2586
(dp2587
g54
(dp2588
g81
g82
ssg63
g2577
sg56
(lp2589
S':'
asbag49
(g70
g51
NtRp2590
(dp2591
g54
(dp2592
sg63
g2577
sg56
(lp2593
g49
(g50
g51
NtRp2594
(dp2595
g54
(dp2596
g62
I3
ssg63
g2590
sg56
(lp2597
g1139
asbasbasbag49
(g65
g51
NtRp2598
(dp2599
g54
(dp2600
sg63
g2258
sg56
(lp2601
g49
(g70
g51
NtRp2602
(dp2603
g54
(dp2604
g74
g75
ssg63
g2598
sg56
(lp2605
S'SERVER_PORT'
p2606
asbag49
(g70
g51
NtRp2607
(dp2608
g54
(dp2609
g81
g82
ssg63
g2598
sg56
(lp2610
S':'
asbag49
(g70
g51
NtRp2611
(dp2612
g54
(dp2613
sg63
g2598
sg56
(lp2614
g49
(g50
g51
NtRp2615
(dp2616
g54
(dp2617
g62
I3
ssg63
g2611
sg56
(lp2618
g1161
asbasbasbag49
(g65
g51
NtRp2619
(dp2620
g54
(dp2621
sg63
g2258
sg56
(lp2622
g49
(g70
g51
NtRp2623
(dp2624
g54
(dp2625
g74
g75
ssg63
g2619
sg56
(lp2626
S'SERVER_PROTOCOL'
p2627
asbag49
(g70
g51
NtRp2628
(dp2629
g54
(dp2630
g81
g82
ssg63
g2619
sg56
(lp2631
S':'
asbag49
(g70
g51
NtRp2632
(dp2633
g54
(dp2634
sg63
g2619
sg56
(lp2635
g49
(g50
g51
NtRp2636
(dp2637
g54
(dp2638
g62
I3
ssg63
g2632
sg56
(lp2639
g1183
asbasbasbag49
(g65
g51
NtRp2640
(dp2641
g54
(dp2642
sg63
g2258
sg56
(lp2643
g49
(g70
g51
NtRp2644
(dp2645
g54
(dp2646
g74
g75
ssg63
g2640
sg56
(lp2647
S'SERVER_SOFTWARE'
p2648
asbag49
(g70
g51
NtRp2649
(dp2650
g54
(dp2651
g81
g82
ssg63
g2640
sg56
(lp2652
S':'
asbag49
(g70
g51
NtRp2653
(dp2654
g54
(dp2655
sg63
g2640
sg56
(lp2656
g49
(g50
g51
NtRp2657
(dp2658
g54
(dp2659
g62
I3
ssg63
g2653
sg56
(lp2660
g1205
asbasbasbag49
(g65
g51
NtRp2661
(dp2662
g54
(dp2663
sg63
g2258
sg56
(lp2664
g49
(g70
g51
NtRp2665
(dp2666
g54
(dp2667
g74
g75
ssg63
g2661
sg56
(lp2668
S'WEB2PY_ORIGINAL_URI'
p2669
asbag49
(g70
g51
NtRp2670
(dp2671
g54
(dp2672
g81
g82
ssg63
g2661
sg56
(lp2673
S':'
asbag49
(g70
g51
NtRp2674
(dp2675
g54
(dp2676
sg63
g2661
sg56
(lp2677
g49
(g50
g51
NtRp2678
(dp2679
g54
(dp2680
g62
I3
ssg63
g2674
sg56
(lp2681
g1249
asbasbasbag49
(g65
g51
NtRp2682
(dp2683
g54
(dp2684
sg63
g2258
sg56
(lp2685
g49
(g70
g51
NtRp2686
(dp2687
g54
(dp2688
g74
g75
ssg63
g2682
sg56
(lp2689
S'wsgi.errors'
p2690
asbag49
(g70
g51
NtRp2691
(dp2692
g54
(dp2693
g81
g82
ssg63
g2682
sg56
(lp2694
S':'
asbag49
(g70
g51
NtRp2695
(dp2696
g54
(dp2697
sg63
g2682
sg56
(lp2698
g49
(g50
g51
NtRp2699
(dp2700
g54
(dp2701
g62
I3
ssg63
g2695
sg56
(lp2702
S"<open file '<stderr>', mode 'w' at 0x4220b0>"
p2703
asbasbasbag49
(g65
g51
NtRp2704
(dp2705
g54
(dp2706
sg63
g2258
sg56
(lp2707
g49
(g70
g51
NtRp2708
(dp2709
g54
(dp2710
g74
g75
ssg63
g2704
sg56
(lp2711
S'wsgi.file_wrapper'
p2712
asbag49
(g70
g51
NtRp2713
(dp2714
g54
(dp2715
g81
g82
ssg63
g2704
sg56
(lp2716
S':'
asbag49
(g70
g51
NtRp2717
(dp2718
g54
(dp2719
sg63
g2704
sg56
(lp2720
g49
(g50
g51
NtRp2721
(dp2722
g54
(dp2723
g62
I3
ssg63
g2717
sg56
(lp2724
S'<class wsgiref.util.FileWrapper at 0x22746c0>'
p2725
asbasbasbag49
(g65
g51
NtRp2726
(dp2727
g54
(dp2728
sg63
g2258
sg56
(lp2729
g49
(g70
g51
NtRp2730
(dp2731
g54
(dp2732
g74
g75
ssg63
g2726
sg56
(lp2733
S'wsgi.input'
p2734
asbag49
(g70
g51
NtRp2735
(dp2736
g54
(dp2737
g81
g82
ssg63
g2726
sg56
(lp2738
S':'
asbag49
(g70
g51
NtRp2739
(dp2740
g54
(dp2741
sg63
g2726
sg56
(lp2742
g49
(g50
g51
NtRp2743
(dp2744
g54
(dp2745
g62
I3
ssg63
g2739
sg56
(lp2746
S'<cStringIO.StringO object at 0xacca6a0>'
p2747
asbasbasbag49
(g65
g51
NtRp2748
(dp2749
g54
(dp2750
sg63
g2258
sg56
(lp2751
g49
(g70
g51
NtRp2752
(dp2753
g54
(dp2754
g74
g75
ssg63
g2748
sg56
(lp2755
S'wsgi.multiprocess'
p2756
asbag49
(g70
g51
NtRp2757
(dp2758
g54
(dp2759
g81
g82
ssg63
g2748
sg56
(lp2760
S':'
asbag49
(g70
g51
NtRp2761
(dp2762
g54
(dp2763
sg63
g2748
sg56
(lp2764
g49
(g50
g51
NtRp2765
(dp2766
g54
(dp2767
g62
I3
ssg63
g2761
sg56
(lp2768
g92
asbasbasbag49
(g65
g51
NtRp2769
(dp2770
g54
(dp2771
sg63
g2258
sg56
(lp2772
g49
(g70
g51
NtRp2773
(dp2774
g54
(dp2775
g74
g75
ssg63
g2769
sg56
(lp2776
S'wsgi.multithread'
p2777
asbag49
(g70
g51
NtRp2778
(dp2779
g54
(dp2780
g81
g82
ssg63
g2769
sg56
(lp2781
S':'
asbag49
(g70
g51
NtRp2782
(dp2783
g54
(dp2784
sg63
g2769
sg56
(lp2785
g49
(g50
g51
NtRp2786
(dp2787
g54
(dp2788
g62
I3
ssg63
g2782
sg56
(lp2789
g1467
asbasbasbag49
(g65
g51
NtRp2790
(dp2791
g54
(dp2792
sg63
g2258
sg56
(lp2793
g49
(g70
g51
NtRp2794
(dp2795
g54
(dp2796
g74
g75
ssg63
g2790
sg56
(lp2797
S'wsgi.run_once'
p2798
asbag49
(g70
g51
NtRp2799
(dp2800
g54
(dp2801
g81
g82
ssg63
g2790
sg56
(lp2802
S':'
asbag49
(g70
g51
NtRp2803
(dp2804
g54
(dp2805
sg63
g2790
sg56
(lp2806
g49
(g50
g51
NtRp2807
(dp2808
g54
(dp2809
g62
I3
ssg63
g2803
sg56
(lp2810
g92
asbasbasbag49
(g65
g51
NtRp2811
(dp2812
g54
(dp2813
sg63
g2258
sg56
(lp2814
g49
(g70
g51
NtRp2815
(dp2816
g54
(dp2817
g74
g75
ssg63
g2811
sg56
(lp2818
S'wsgi.url_scheme'
p2819
asbag49
(g70
g51
NtRp2820
(dp2821
g54
(dp2822
g81
g82
ssg63
g2811
sg56
(lp2823
S':'
asbag49
(g70
g51
NtRp2824
(dp2825
g54
(dp2826
sg63
g2811
sg56
(lp2827
g49
(g50
g51
NtRp2828
(dp2829
g54
(dp2830
g62
I3
ssg63
g2824
sg56
(lp2831
g1510
asbasbasbag49
(g65
g51
NtRp2832
(dp2833
g54
(dp2834
sg63
g2258
sg56
(lp2835
g49
(g70
g51
NtRp2836
(dp2837
g54
(dp2838
g74
g75
ssg63
g2832
sg56
(lp2839
S'wsgi.version'
p2840
asbag49
(g70
g51
NtRp2841
(dp2842
g54
(dp2843
g81
g82
ssg63
g2832
sg56
(lp2844
S':'
asbag49
(g70
g51
NtRp2845
(dp2846
g54
(dp2847
sg63
g2832
sg56
(lp2848
g49
(g50
g51
NtRp2849
(dp2850
g54
(dp2851
g62
I3
ssg63
g2845
sg56
(lp2852
S'1'
asbasbasbasbasbasbasbasbasbasbasbasbasbsS'frames'
p2853
(lp2854
(dp2855
S'file'
p2856
S'/users/udimilo/Documents/web2py/gluon/restricted.py'
p2857
sS'dump'
p2858
(dp2859
S'environment'
p2860
S"{'A': <class 'gluon.html.A'>, 'Auth': <class 'gluon.tools.Auth'>, 'B': <class 'gluon.html.B'>, 'BEAUTIFY': <class 'gluon.html.BEAUTIFY'>, 'BODY': <class 'gluon.html.BODY'>, 'BR': <class 'gluon.html.BR'>, 'BUTTON': <class 'gluon.html.BUTTON'>, 'CAT': <class 'gluon.html.CAT'>, 'CENTER': <class 'gluon.html.CENTER'>, 'CLEANUP': <class 'gluon.validators.CLEANUP'>, ...}"
p2861
sS'ccode'
p2862
S'<code object <module> at 0x8cf5f08, file "/Users...cations/udi0312/controllers/default.py", line 11>'
p2863
ssS'lnum'
p2864
I205
sS'lines'
p2865
(dp2866
I200
S'    try:'
p2867
sI201
S'        if type(code) == types.CodeType:'
p2868
sI202
S'            ccode = code'
p2869
sI203
S'        else:'
p2870
sI204
S'            ccode = compile2(code,layer)'
p2871
sI205
S'        exec ccode in environment'
p2872
sI206
S'    except HTTP:'
p2873
sI207
S'        raise'
p2874
sI208
S'    except RestrictedError:'
p2875
sI209
S'        # do not encapsulate (obfuscate) the original RestrictedError'
p2876
ssS'call'
p2877
S"(code='# -*- coding: utf-8 -*-\\n# this file is released ...m=crud())\\n\\nresponse._vars=response._caller(test)\\n', environment={'A': <class 'gluon.html.A'>, 'Auth': <class 'gluon.tools.Auth'>, 'B': <class 'gluon.html.B'>, 'BEAUTIFY': <class 'gluon.html.BEAUTIFY'>, 'BODY': <class 'gluon.html.BODY'>, 'BR': <class 'gluon.html.BR'>, 'BUTTON': <class 'gluon.html.BUTTON'>, 'CAT': <class 'gluon.html.CAT'>, 'CENTER': <class 'gluon.html.CENTER'>, 'CLEANUP': <class 'gluon.validators.CLEANUP'>, ...}, layer='/Users/udimilo/Documents/web2py/applications/udi0312/controllers/default.py')"
p2878
sS'func'
p2879
S'restricted'
p2880
sa(dp2881
g2856
S'/Users/udimilo/Documents/web2py/applications/udi0312/controllers/default.py'
p2882
sg2858
(dp2883
sg2864
I150
sg2865
(dp2884
I139
S'    http://..../[app]/default/data/update/[table]/[id]'
p2885
sI140
S'    http://..../[app]/default/data/delete/[table]/[id]'
p2886
sI141
S'    http://..../[app]/default/data/select/[table]'
p2887
sI142
S'    http://..../[app]/default/data/search/[table]'
p2888
sI143
S'    but URLs must be signed, i.e. linked with'
p2889
sI144
S"      A('table',_href=URL('data/tables',user_signature=True))"
p2890
sI145
S'    or with the signed load operator'
p2891
sI146
S"      LOAD('default','data.load',args='tables',ajax=True,user_signature=True)"
p2892
sI147
S'    """'
p2893
sI148
S'    return dict(form=crud())'
p2894
ssg2877
S'()'
p2895
sg2879
S'<module>'
p2896
sa(dp2897
g2856
S'/users/udimilo/Documents/web2py/gluon/globals.py'
p2898
sg2858
(dp2899
S'self'
p2900
S'undefined'
p2901
sS'f'
S'<function test at 0x8df5870>'
p2902
ssg2864
I173
sg2865
(dp2903
I168
S'        self.menu = []             # used by the default view layout'
p2904
sI169
S'        self.files = []            # used by web2py_ajax.html'
p2905
sI170
S'        self.generic_patterns = [] # patterns to allow generic views'
p2906
sI171
S"        self.delimiters = ('{{','}}')"
p2907
sI172
S'        self._vars = None'
p2908
sI173
S'        self._caller = lambda f: f()'
p2909
sI174
S'        self._view_environment = None'
p2910
sI175
S'        self._custom_commit = None'
p2911
sI176
S'        self._custom_rollback = None'
p2912
sI177
S''
ssg2877
S'(f=<function test at 0x8df5870>)'
p2913
sg2879
S'<lambda>'
p2914
sa(dp2915
g2856
S'/Users/udimilo/Documents/web2py/applications/udi0312/controllers/default.py'
p2916
sg2858
(dp2917
S'date_published'
p2918
g2901
sS'item.published'
p2919
g2901
sS'item'
p2920
S"{'updated_parsed': (2012, 3, 16, 0, 58, 2, 4, 76... frictionless as possible.', 'guidislink': False}"
p2921
ssg2864
I92
sg2865
(dp2922
I96
S'    return feed'
p2923
sI87
S'        article = db.article.insert('
p2924
sI88
S'            height=300,'
p2925
sI89
S'            author=item.author,'
p2926
sI90
S'            content=item.content[0].value.strip(),'
p2927
sI91
S'            url=item.link,'
p2928
sI92
S'            date_published=item.published,'
p2929
sI93
S'            excerpt=item.summary,'
p2930
sI94
S'            title=item.title,'
p2931
sI95
S'            )'
p2932
ssg2877
S'()'
p2933
sg2879
S'test'
p2934
sa(dp2935
g2856
S'/Users/udimilo/Documents/web2py/applications/udi0312/modules/feedparser.py'
p2936
sg2858
(dp2937
S'key'
p2938
S"'published'"
p2939
sS'builtinAttributeError'
p2940
S"<type 'exceptions.AttributeError'>"
p2941
ssg2864
I382
sg2865
(dp2942
I384
S'    def __hash__(self):'
p2943
sI385
S'        return id(self)'
p2944
sI386
S''
sI377
S'        # __getattribute__() is called first; this will be called'
p2945
sI378
S'        # only if an attribute was not already found'
p2946
sI379
S'        try:'
p2947
sI380
S'            return self.__getitem__(key)'
p2948
sI381
S'        except KeyError:'
p2949
sI382
S'            raise AttributeError, "object has no attribute \'%s\'" % key'
p2950
sI383
S''
ssg2877
S"(self={'updated_parsed': (2012, 3, 16, 0, 58, 2, 4, 76... frictionless as possible.', 'guidislink': False}, key='published')"
p2951
sg2879
S'__getattr__'
p2952
sasS'pyver'
p2953
S'Python 2.5.4: /Library/Frameworks/Python.framework/Versions/2.5/Resources/Python.app/Contents/MacOS/Python'
p2954
sS'session'
p2955
g49
(g50
g51
NtRp2956
(dp2957
g54
(dp2958
sg56
(lp2959
g49
(g58
g51
NtRp2960
(dp2961
g54
(dp2962
g62
I5
ssg63
Nsg56
(lp2963
g49
(g65
g51
NtRp2964
(dp2965
g54
(dp2966
sg63
g2960
sg56
(lp2967
g49
(g70
g51
NtRp2968
(dp2969
g54
(dp2970
g74
g75
ssg63
g2964
sg56
(lp2971
S'auth'
p2972
asbag49
(g70
g51
NtRp2973
(dp2974
g54
(dp2975
g81
g82
ssg63
g2964
sg56
(lp2976
S':'
asbag49
(g70
g51
NtRp2977
(dp2978
g54
(dp2979
sg63
g2964
sg56
(lp2980
g49
(g50
g51
NtRp2981
(dp2982
g54
(dp2983
g62
I5
ssg63
g2977
sg56
(lp2984
g49
(g58
g51
NtRp2985
(dp2986
g54
(dp2987
g62
I4
ssg63
Nsg56
(lp2988
g49
(g65
g51
NtRp2989
(dp2990
g54
(dp2991
sg63
g2985
sg56
(lp2992
g49
(g70
g51
NtRp2993
(dp2994
g54
(dp2995
g74
g75
ssg63
g2989
sg56
(lp2996
S'expiration'
p2997
asbag49
(g70
g51
NtRp2998
(dp2999
g54
(dp3000
g81
g82
ssg63
g2989
sg56
(lp3001
S':'
asbag49
(g70
g51
NtRp3002
(dp3003
g54
(dp3004
sg63
g2989
sg56
(lp3005
g49
(g50
g51
NtRp3006
(dp3007
g54
(dp3008
g62
I4
ssg63
g3002
sg56
(lp3009
S'2592000'
p3010
asbasbasbag49
(g65
g51
NtRp3011
(dp3012
g54
(dp3013
sg63
g2985
sg56
(lp3014
g49
(g70
g51
NtRp3015
(dp3016
g54
(dp3017
g74
g75
ssg63
g3011
sg56
(lp3018
S'hmac_key'
p3019
asbag49
(g70
g51
NtRp3020
(dp3021
g54
(dp3022
g81
g82
ssg63
g3011
sg56
(lp3023
S':'
asbag49
(g70
g51
NtRp3024
(dp3025
g54
(dp3026
sg63
g3011
sg56
(lp3027
g49
(g50
g51
NtRp3028
(dp3029
g54
(dp3030
g62
I4
ssg63
g3024
sg56
(lp3031
S'e95fb5e0-f68d-430e-a660-5148e97bc5df'
p3032
asbasbasbag49
(g65
g51
NtRp3033
(dp3034
g54
(dp3035
sg63
g2985
sg56
(lp3036
g49
(g70
g51
NtRp3037
(dp3038
g54
(dp3039
g74
g75
ssg63
g3033
sg56
(lp3040
S'last_visit'
p3041
asbag49
(g70
g51
NtRp3042
(dp3043
g54
(dp3044
g81
g82
ssg63
g3033
sg56
(lp3045
S':'
asbag49
(g70
g51
NtRp3046
(dp3047
g54
(dp3048
sg63
g3033
sg56
(lp3049
g49
(g50
g51
NtRp3050
(dp3051
g54
(dp3052
g62
I4
ssg63
g3046
sg56
(lp3053
S'datetime.datetime(2012, 3, 8, 21, 10, 48, 287338)'
p3054
asbasbasbag49
(g65
g51
NtRp3055
(dp3056
g54
(dp3057
sg63
g2985
sg56
(lp3058
g49
(g70
g51
NtRp3059
(dp3060
g54
(dp3061
g74
g75
ssg63
g3055
sg56
(lp3062
S'remember'
p3063
asbag49
(g70
g51
NtRp3064
(dp3065
g54
(dp3066
g81
g82
ssg63
g3055
sg56
(lp3067
S':'
asbag49
(g70
g51
NtRp3068
(dp3069
g54
(dp3070
sg63
g3055
sg56
(lp3071
g49
(g50
g51
NtRp3072
(dp3073
g54
(dp3074
g62
I4
ssg63
g3068
sg56
(lp3075
g1467
asbasbasbag49
(g65
g51
NtRp3076
(dp3077
g54
(dp3078
sg63
g2985
sg56
(lp3079
g49
(g70
g51
NtRp3080
(dp3081
g54
(dp3082
g74
g75
ssg63
g3076
sg56
(lp3083
S'user'
p3084
asbag49
(g70
g51
NtRp3085
(dp3086
g54
(dp3087
g81
g82
ssg63
g3076
sg56
(lp3088
S':'
asbag49
(g70
g51
NtRp3089
(dp3090
g54
(dp3091
sg63
g3076
sg56
(lp3092
g49
(g50
g51
NtRp3093
(dp3094
g54
(dp3095
g62
I4
ssg63
g3089
sg56
(lp3096
g49
(g58
g51
NtRp3097
(dp3098
g54
(dp3099
g62
I3
ssg63
Nsg56
(lp3100
g49
(g65
g51
NtRp3101
(dp3102
g54
(dp3103
sg63
g3097
sg56
(lp3104
g49
(g70
g51
NtRp3105
(dp3106
g54
(dp3107
g74
g75
ssg63
g3101
sg56
(lp3108
S'email'
p3109
asbag49
(g70
g51
NtRp3110
(dp3111
g54
(dp3112
g81
g82
ssg63
g3101
sg56
(lp3113
S':'
asbag49
(g70
g51
NtRp3114
(dp3115
g54
(dp3116
sg63
g3101
sg56
(lp3117
g49
(g50
g51
NtRp3118
(dp3119
g54
(dp3120
g62
I3
ssg63
g3114
sg56
(lp3121
S'udimilo@gmail.com'
p3122
asbasbasbag49
(g65
g51
NtRp3123
(dp3124
g54
(dp3125
sg63
g3097
sg56
(lp3126
g49
(g70
g51
NtRp3127
(dp3128
g54
(dp3129
g74
g75
ssg63
g3123
sg56
(lp3130
S'first_name'
p3131
asbag49
(g70
g51
NtRp3132
(dp3133
g54
(dp3134
g81
g82
ssg63
g3123
sg56
(lp3135
S':'
asbag49
(g70
g51
NtRp3136
(dp3137
g54
(dp3138
sg63
g3123
sg56
(lp3139
g49
(g50
g51
NtRp3140
(dp3141
g54
(dp3142
g62
I3
ssg63
g3136
sg56
(lp3143
S'Udi'
p3144
asbasbasbag49
(g65
g51
NtRp3145
(dp3146
g54
(dp3147
sg63
g3097
sg56
(lp3148
g49
(g70
g51
NtRp3149
(dp3150
g54
(dp3151
g74
g75
ssg63
g3145
sg56
(lp3152
S'id'
p3153
asbag49
(g70
g51
NtRp3154
(dp3155
g54
(dp3156
g81
g82
ssg63
g3145
sg56
(lp3157
S':'
asbag49
(g70
g51
NtRp3158
(dp3159
g54
(dp3160
sg63
g3145
sg56
(lp3161
g49
(g50
g51
NtRp3162
(dp3163
g54
(dp3164
g62
I3
ssg63
g3158
sg56
(lp3165
S'1'
asbasbasbag49
(g65
g51
NtRp3166
(dp3167
g54
(dp3168
sg63
g3097
sg56
(lp3169
g49
(g70
g51
NtRp3170
(dp3171
g54
(dp3172
g74
g75
ssg63
g3166
sg56
(lp3173
S'last_name'
p3174
asbag49
(g70
g51
NtRp3175
(dp3176
g54
(dp3177
g81
g82
ssg63
g3166
sg56
(lp3178
S':'
asbag49
(g70
g51
NtRp3179
(dp3180
g54
(dp3181
sg63
g3166
sg56
(lp3182
g49
(g50
g51
NtRp3183
(dp3184
g54
(dp3185
g62
I3
ssg63
g3179
sg56
(lp3186
S'Milo'
p3187
asbasbasbag49
(g65
g51
NtRp3188
(dp3189
g54
(dp3190
sg63
g3097
sg56
(lp3191
g49
(g70
g51
NtRp3192
(dp3193
g54
(dp3194
g74
g75
ssg63
g3188
sg56
(lp3195
S'password'
p3196
asbag49
(g70
g51
NtRp3197
(dp3198
g54
(dp3199
g81
g82
ssg63
g3188
sg56
(lp3200
S':'
asbag49
(g70
g51
NtRp3201
(dp3202
g54
(dp3203
sg63
g3188
sg56
(lp3204
g49
(g50
g51
NtRp3205
(dp3206
g54
(dp3207
g62
I3
ssg63
g3201
sg56
(lp3208
S'7a6e3c6a68ceed66634484a3f64a3468'
p3209
asbasbasbag49
(g65
g51
NtRp3210
(dp3211
g54
(dp3212
sg63
g3097
sg56
(lp3213
g49
(g70
g51
NtRp3214
(dp3215
g54
(dp3216
g74
g75
ssg63
g3210
sg56
(lp3217
S'registration_id'
p3218
asbag49
(g70
g51
NtRp3219
(dp3220
g54
(dp3221
g81
g82
ssg63
g3210
sg56
(lp3222
S':'
asbag49
(g70
g51
NtRp3223
(dp3224
g54
(dp3225
sg63
g3210
sg56
(lp3226
g49
(g50
g51
NtRp3227
(dp3228
g54
(dp3229
g62
I3
ssg63
g3223
sg56
(lp3230
S''
asbasbasbag49
(g65
g51
NtRp3231
(dp3232
g54
(dp3233
sg63
g3097
sg56
(lp3234
g49
(g70
g51
NtRp3235
(dp3236
g54
(dp3237
g74
g75
ssg63
g3231
sg56
(lp3238
S'registration_key'
p3239
asbag49
(g70
g51
NtRp3240
(dp3241
g54
(dp3242
g81
g82
ssg63
g3231
sg56
(lp3243
S':'
asbag49
(g70
g51
NtRp3244
(dp3245
g54
(dp3246
sg63
g3231
sg56
(lp3247
g49
(g50
g51
NtRp3248
(dp3249
g54
(dp3250
g62
I3
ssg63
g3244
sg56
(lp3251
S''
asbasbasbag49
(g65
g51
NtRp3252
(dp3253
g54
(dp3254
sg63
g3097
sg56
(lp3255
g49
(g70
g51
NtRp3256
(dp3257
g54
(dp3258
g74
g75
ssg63
g3252
sg56
(lp3259
S'reset_password_key'
p3260
asbag49
(g70
g51
NtRp3261
(dp3262
g54
(dp3263
g81
g82
ssg63
g3252
sg56
(lp3264
S':'
asbag49
(g70
g51
NtRp3265
(dp3266
g54
(dp3267
sg63
g3252
sg56
(lp3268
g49
(g50
g51
NtRp3269
(dp3270
g54
(dp3271
g62
I3
ssg63
g3265
sg56
(lp3272
S''
asbasbasbasbasbasbasbag49
(g65
g51
NtRp3273
(dp3274
g54
(dp3275
sg63
g2985
sg56
(lp3276
g49
(g70
g51
NtRp3277
(dp3278
g54
(dp3279
g74
g75
ssg63
g3273
sg56
(lp3280
S'user_groups'
p3281
asbag49
(g70
g51
NtRp3282
(dp3283
g54
(dp3284
g81
g82
ssg63
g3273
sg56
(lp3285
S':'
asbag49
(g70
g51
NtRp3286
(dp3287
g54
(dp3288
sg63
g3273
sg56
(lp3289
g49
(g50
g51
NtRp3290
(dp3291
g54
(dp3292
g62
I4
ssg63
g3286
sg56
(lp3293
g49
(g58
g51
NtRp3294
(dp3295
g54
(dp3296
g62
I3
ssg63
Nsg56
(lp3297
g49
(g65
g51
NtRp3298
(dp3299
g54
(dp3300
sg63
g3294
sg56
(lp3301
g49
(g70
g51
NtRp3302
(dp3303
g54
(dp3304
g74
g75
ssg63
g3298
sg56
(lp3305
S'1'
asbag49
(g70
g51
NtRp3306
(dp3307
g54
(dp3308
g81
g82
ssg63
g3298
sg56
(lp3309
S':'
asbag49
(g70
g51
NtRp3310
(dp3311
g54
(dp3312
sg63
g3298
sg56
(lp3313
g49
(g50
g51
NtRp3314
(dp3315
g54
(dp3316
g62
I3
ssg63
g3310
sg56
(lp3317
S'user_1'
p3318
asbasbasbasbasbasbasbasbasbasbasbag49
(g65
g51
NtRp3319
(dp3320
g54
(dp3321
sg63
g2960
sg56
(lp3322
g49
(g70
g51
NtRp3323
(dp3324
g54
(dp3325
g74
g75
ssg63
g3319
sg56
(lp3326
S'last_query'
p3327
asbag49
(g70
g51
NtRp3328
(dp3329
g54
(dp3330
g81
g82
ssg63
g3319
sg56
(lp3331
S':'
asbag49
(g70
g51
NtRp3332
(dp3333
g54
(dp3334
sg63
g3319
sg56
(lp3335
g49
(g50
g51
NtRp3336
(dp3337
g54
(dp3338
g62
I5
ssg63
g3332
sg56
(lp3339
S'db.article.id>0'
p3340
asbasbasbasbasbsS'etype'
p3341
S"<type 'exceptions.AttributeError'>"
p3342
sS'date'
p3343
S'Thu Mar 15 17:36:52 2012'
p3344
sS'response'
p3345
g49
(g50
g51
NtRp3346
(dp3347
g54
(dp3348
sg56
(lp3349
g49
(g58
g51
NtRp3350
(dp3351
g54
(dp3352
g62
I5
ssg63
Nsg56
(lp3353
g49
(g65
g51
NtRp3354
(dp3355
g54
(dp3356
sg63
g3350
sg56
(lp3357
g49
(g70
g51
NtRp3358
(dp3359
g54
(dp3360
g74
g75
ssg63
g3354
sg56
(lp3361
g147
asbag49
(g70
g51
NtRp3362
(dp3363
g54
(dp3364
g81
g82
ssg63
g3354
sg56
(lp3365
S':'
asbag49
(g70
g51
NtRp3366
(dp3367
g54
(dp3368
sg63
g3354
sg56
(lp3369
g49
(g50
g51
NtRp3370
(dp3371
g54
(dp3372
g62
I5
ssg63
g3366
sg56
(lp3373
S'<cStringIO.StringO object at 0xa24a920>'
p3374
asbasbasbag49
(g65
g51
NtRp3375
(dp3376
g54
(dp3377
sg63
g3350
sg56
(lp3378
g49
(g70
g51
NtRp3379
(dp3380
g54
(dp3381
g74
g75
ssg63
g3375
sg56
(lp3382
g213
asbag49
(g70
g51
NtRp3383
(dp3384
g54
(dp3385
g81
g82
ssg63
g3375
sg56
(lp3386
S':'
asbag49
(g70
g51
NtRp3387
(dp3388
g54
(dp3389
sg63
g3375
sg56
(lp3390
g49
(g50
g51
NtRp3391
(dp3392
g54
(dp3393
g62
I5
ssg63
g3387
sg56
(lp3394
g49
(g58
g51
NtRp3395
(dp3396
g54
(dp3397
g62
I4
ssg63
Nsg56
(lp3398
g49
(g65
g51
NtRp3399
(dp3400
g54
(dp3401
sg63
g3395
sg56
(lp3402
g49
(g70
g51
NtRp3403
(dp3404
g54
(dp3405
g74
g75
ssg63
g3399
sg56
(lp3406
S'session_id_udi0312'
p3407
asbag49
(g70
g51
NtRp3408
(dp3409
g54
(dp3410
g81
g82
ssg63
g3399
sg56
(lp3411
S':'
asbag49
(g70
g51
NtRp3412
(dp3413
g54
(dp3414
sg63
g3399
sg56
(lp3415
g49
(g50
g51
NtRp3416
(dp3417
g54
(dp3418
g62
I4
ssg63
g3412
sg56
(lp3419
g49
(g58
g51
NtRp3420
(dp3421
g54
(dp3422
g62
I3
ssg63
Nsg56
(lp3423
g49
(g65
g51
NtRp3424
(dp3425
g54
(dp3426
sg63
g3420
sg56
(lp3427
g49
(g70
g51
NtRp3428
(dp3429
g54
(dp3430
g74
g75
ssg63
g3424
sg56
(lp3431
g263
asbag49
(g70
g51
NtRp3432
(dp3433
g54
(dp3434
g81
g82
ssg63
g3424
sg56
(lp3435
S':'
asbag49
(g70
g51
NtRp3436
(dp3437
g54
(dp3438
sg63
g3424
sg56
(lp3439
g49
(g50
g51
NtRp3440
(dp3441
g54
(dp3442
g62
I3
ssg63
g3436
sg56
(lp3443
S''
asbasbasbag49
(g65
g51
NtRp3444
(dp3445
g54
(dp3446
sg63
g3420
sg56
(lp3447
g49
(g70
g51
NtRp3448
(dp3449
g54
(dp3450
g74
g75
ssg63
g3444
sg56
(lp3451
g284
asbag49
(g70
g51
NtRp3452
(dp3453
g54
(dp3454
g81
g82
ssg63
g3444
sg56
(lp3455
S':'
asbag49
(g70
g51
NtRp3456
(dp3457
g54
(dp3458
sg63
g3444
sg56
(lp3459
g49
(g50
g51
NtRp3460
(dp3461
g54
(dp3462
g62
I3
ssg63
g3456
sg56
(lp3463
S''
asbasbasbag49
(g65
g51
NtRp3464
(dp3465
g54
(dp3466
sg63
g3420
sg56
(lp3467
g49
(g70
g51
NtRp3468
(dp3469
g54
(dp3470
g74
g75
ssg63
g3464
sg56
(lp3471
g305
asbag49
(g70
g51
NtRp3472
(dp3473
g54
(dp3474
g81
g82
ssg63
g3464
sg56
(lp3475
S':'
asbag49
(g70
g51
NtRp3476
(dp3477
g54
(dp3478
sg63
g3464
sg56
(lp3479
g49
(g50
g51
NtRp3480
(dp3481
g54
(dp3482
g62
I3
ssg63
g3476
sg56
(lp3483
S'2592000'
p3484
asbasbasbag49
(g65
g51
NtRp3485
(dp3486
g54
(dp3487
sg63
g3420
sg56
(lp3488
g49
(g70
g51
NtRp3489
(dp3490
g54
(dp3491
g74
g75
ssg63
g3485
sg56
(lp3492
g326
asbag49
(g70
g51
NtRp3493
(dp3494
g54
(dp3495
g81
g82
ssg63
g3485
sg56
(lp3496
S':'
asbag49
(g70
g51
NtRp3497
(dp3498
g54
(dp3499
sg63
g3485
sg56
(lp3500
g49
(g50
g51
NtRp3501
(dp3502
g54
(dp3503
g62
I3
ssg63
g3497
sg56
(lp3504
S''
asbasbasbag49
(g65
g51
NtRp3505
(dp3506
g54
(dp3507
sg63
g3420
sg56
(lp3508
g49
(g70
g51
NtRp3509
(dp3510
g54
(dp3511
g74
g75
ssg63
g3505
sg56
(lp3512
g347
asbag49
(g70
g51
NtRp3513
(dp3514
g54
(dp3515
g81
g82
ssg63
g3505
sg56
(lp3516
S':'
asbag49
(g70
g51
NtRp3517
(dp3518
g54
(dp3519
sg63
g3505
sg56
(lp3520
g49
(g50
g51
NtRp3521
(dp3522
g54
(dp3523
g62
I3
ssg63
g3517
sg56
(lp3524
S'/'
asbasbasbag49
(g65
g51
NtRp3525
(dp3526
g54
(dp3527
sg63
g3420
sg56
(lp3528
g49
(g70
g51
NtRp3529
(dp3530
g54
(dp3531
g74
g75
ssg63
g3525
sg56
(lp3532
g368
asbag49
(g70
g51
NtRp3533
(dp3534
g54
(dp3535
g81
g82
ssg63
g3525
sg56
(lp3536
S':'
asbag49
(g70
g51
NtRp3537
(dp3538
g54
(dp3539
sg63
g3525
sg56
(lp3540
g49
(g50
g51
NtRp3541
(dp3542
g54
(dp3543
g62
I3
ssg63
g3537
sg56
(lp3544
S''
asbasbasbag49
(g65
g51
NtRp3545
(dp3546
g54
(dp3547
sg63
g3420
sg56
(lp3548
g49
(g70
g51
NtRp3549
(dp3550
g54
(dp3551
g74
g75
ssg63
g3545
sg56
(lp3552
g389
asbag49
(g70
g51
NtRp3553
(dp3554
g54
(dp3555
g81
g82
ssg63
g3545
sg56
(lp3556
S':'
asbag49
(g70
g51
NtRp3557
(dp3558
g54
(dp3559
sg63
g3545
sg56
(lp3560
g49
(g50
g51
NtRp3561
(dp3562
g54
(dp3563
g62
I3
ssg63
g3557
sg56
(lp3564
S''
asbasbasbasbasbasbasbasbasbasbasbag49
(g65
g51
NtRp3565
(dp3566
g54
(dp3567
sg63
g3350
sg56
(lp3568
g49
(g70
g51
NtRp3569
(dp3570
g54
(dp3571
g74
g75
ssg63
g3565
sg56
(lp3572
S'delimiters'
p3573
asbag49
(g70
g51
NtRp3574
(dp3575
g54
(dp3576
g81
g82
ssg63
g3565
sg56
(lp3577
S':'
asbag49
(g70
g51
NtRp3578
(dp3579
g54
(dp3580
sg63
g3565
sg56
(lp3581
g49
(g50
g51
NtRp3582
(dp3583
g54
(dp3584
g62
I5
ssg63
g3578
sg56
(lp3585
g49
(g58
g51
NtRp3586
(dp3587
g54
(dp3588
g62
I4
ssg63
Nsg56
(lp3589
g49
(g65
g51
NtRp3590
(dp3591
g54
(dp3592
sg63
g3586
sg56
(lp3593
g49
(g70
g51
NtRp3594
(dp3595
g54
(dp3596
sg63
g3590
sg56
(lp3597
g49
(g50
g51
NtRp3598
(dp3599
g54
(dp3600
g62
I4
ssg63
g3594
sg56
(lp3601
S'{{'
p3602
asbasbasbag49
(g65
g51
NtRp3603
(dp3604
g54
(dp3605
sg63
g3586
sg56
(lp3606
g49
(g70
g51
NtRp3607
(dp3608
g54
(dp3609
sg63
g3603
sg56
(lp3610
g49
(g50
g51
NtRp3611
(dp3612
g54
(dp3613
g62
I4
ssg63
g3607
sg56
(lp3614
S'}}'
p3615
asbasbasbasbasbasbasbag49
(g65
g51
NtRp3616
(dp3617
g54
(dp3618
sg63
g3350
sg56
(lp3619
g49
(g70
g51
NtRp3620
(dp3621
g54
(dp3622
g74
g75
ssg63
g3616
sg56
(lp3623
S'files'
p3624
asbag49
(g70
g51
NtRp3625
(dp3626
g54
(dp3627
g81
g82
ssg63
g3616
sg56
(lp3628
S':'
asbag49
(g70
g51
NtRp3629
(dp3630
g54
(dp3631
sg63
g3616
sg56
(lp3632
g49
(g50
g51
NtRp3633
(dp3634
g54
(dp3635
g62
I5
ssg63
g3629
sg56
(lp3636
g49
(g58
g51
NtRp3637
(dp3638
g54
(dp3639
g62
I4
ssg63
Nsg56
(lp3640
sbasbasbasbag49
(g65
g51
NtRp3641
(dp3642
g54
(dp3643
sg63
g3350
sg56
(lp3644
g49
(g70
g51
NtRp3645
(dp3646
g54
(dp3647
g74
g75
ssg63
g3641
sg56
(lp3648
S'flash'
p3649
asbag49
(g70
g51
NtRp3650
(dp3651
g54
(dp3652
g81
g82
ssg63
g3641
sg56
(lp3653
S':'
asbag49
(g70
g51
NtRp3654
(dp3655
g54
(dp3656
sg63
g3641
sg56
(lp3657
g49
(g50
g51
NtRp3658
(dp3659
g54
(dp3660
g62
I5
ssg63
g3654
sg56
(lp3661
S''
asbasbasbag49
(g65
g51
NtRp3662
(dp3663
g54
(dp3664
sg63
g3350
sg56
(lp3665
g49
(g70
g51
NtRp3666
(dp3667
g54
(dp3668
g74
g75
ssg63
g3662
sg56
(lp3669
S'generic_patterns'
p3670
asbag49
(g70
g51
NtRp3671
(dp3672
g54
(dp3673
g81
g82
ssg63
g3662
sg56
(lp3674
S':'
asbag49
(g70
g51
NtRp3675
(dp3676
g54
(dp3677
sg63
g3662
sg56
(lp3678
g49
(g50
g51
NtRp3679
(dp3680
g54
(dp3681
g62
I5
ssg63
g3675
sg56
(lp3682
g49
(g58
g51
NtRp3683
(dp3684
g54
(dp3685
g62
I4
ssg63
Nsg56
(lp3686
g49
(g65
g51
NtRp3687
(dp3688
g54
(dp3689
sg63
g3683
sg56
(lp3690
g49
(g70
g51
NtRp3691
(dp3692
g54
(dp3693
sg63
g3687
sg56
(lp3694
g49
(g50
g51
NtRp3695
(dp3696
g54
(dp3697
g62
I4
ssg63
g3691
sg56
(lp3698
S'*'
asbasbasbasbasbasbasbag49
(g65
g51
NtRp3699
(dp3700
g54
(dp3701
sg63
g3350
sg56
(lp3702
g49
(g70
g51
NtRp3703
(dp3704
g54
(dp3705
g74
g75
ssg63
g3699
sg56
(lp3706
S'headers'
p3707
asbag49
(g70
g51
NtRp3708
(dp3709
g54
(dp3710
g81
g82
ssg63
g3699
sg56
(lp3711
S':'
asbag49
(g70
g51
NtRp3712
(dp3713
g54
(dp3714
sg63
g3699
sg56
(lp3715
g49
(g50
g51
NtRp3716
(dp3717
g54
(dp3718
g62
I5
ssg63
g3712
sg56
(lp3719
g49
(g58
g51
NtRp3720
(dp3721
g54
(dp3722
g62
I4
ssg63
Nsg56
(lp3723
g49
(g65
g51
NtRp3724
(dp3725
g54
(dp3726
sg63
g3720
sg56
(lp3727
g49
(g70
g51
NtRp3728
(dp3729
g54
(dp3730
g74
g75
ssg63
g3724
sg56
(lp3731
S'Cache-Control'
p3732
asbag49
(g70
g51
NtRp3733
(dp3734
g54
(dp3735
g81
g82
ssg63
g3724
sg56
(lp3736
S':'
asbag49
(g70
g51
NtRp3737
(dp3738
g54
(dp3739
sg63
g3724
sg56
(lp3740
g49
(g50
g51
NtRp3741
(dp3742
g54
(dp3743
g62
I4
ssg63
g3737
sg56
(lp3744
S'no-store, no-cache, must-revalidate, post-check=0, pre-check=0'
p3745
asbasbasbag49
(g65
g51
NtRp3746
(dp3747
g54
(dp3748
sg63
g3720
sg56
(lp3749
g49
(g70
g51
NtRp3750
(dp3751
g54
(dp3752
g74
g75
ssg63
g3746
sg56
(lp3753
S'Content-Type'
p3754
asbag49
(g70
g51
NtRp3755
(dp3756
g54
(dp3757
g81
g82
ssg63
g3746
sg56
(lp3758
S':'
asbag49
(g70
g51
NtRp3759
(dp3760
g54
(dp3761
sg63
g3746
sg56
(lp3762
g49
(g50
g51
NtRp3763
(dp3764
g54
(dp3765
g62
I4
ssg63
g3759
sg56
(lp3766
S'text/html; charset=utf-8'
p3767
asbasbasbag49
(g65
g51
NtRp3768
(dp3769
g54
(dp3770
sg63
g3720
sg56
(lp3771
g49
(g70
g51
NtRp3772
(dp3773
g54
(dp3774
g74
g75
ssg63
g3768
sg56
(lp3775
S'Expires'
p3776
asbag49
(g70
g51
NtRp3777
(dp3778
g54
(dp3779
g81
g82
ssg63
g3768
sg56
(lp3780
S':'
asbag49
(g70
g51
NtRp3781
(dp3782
g54
(dp3783
sg63
g3768
sg56
(lp3784
g49
(g50
g51
NtRp3785
(dp3786
g54
(dp3787
g62
I4
ssg63
g3781
sg56
(lp3788
S'Thu, 15 Mar 2012 21:36:51 GMT'
p3789
asbasbasbag49
(g65
g51
NtRp3790
(dp3791
g54
(dp3792
sg63
g3720
sg56
(lp3793
g49
(g70
g51
NtRp3794
(dp3795
g54
(dp3796
g74
g75
ssg63
g3790
sg56
(lp3797
S'Pragma'
p3798
asbag49
(g70
g51
NtRp3799
(dp3800
g54
(dp3801
g81
g82
ssg63
g3790
sg56
(lp3802
S':'
asbag49
(g70
g51
NtRp3803
(dp3804
g54
(dp3805
sg63
g3790
sg56
(lp3806
g49
(g50
g51
NtRp3807
(dp3808
g54
(dp3809
g62
I4
ssg63
g3803
sg56
(lp3810
S'no-cache'
p3811
asbasbasbag49
(g65
g51
NtRp3812
(dp3813
g54
(dp3814
sg63
g3720
sg56
(lp3815
g49
(g70
g51
NtRp3816
(dp3817
g54
(dp3818
g74
g75
ssg63
g3812
sg56
(lp3819
S'X-Powered-By'
p3820
asbag49
(g70
g51
NtRp3821
(dp3822
g54
(dp3823
g81
g82
ssg63
g3812
sg56
(lp3824
S':'
asbag49
(g70
g51
NtRp3825
(dp3826
g54
(dp3827
sg63
g3812
sg56
(lp3828
g49
(g50
g51
NtRp3829
(dp3830
g54
(dp3831
g62
I4
ssg63
g3825
sg56
(lp3832
S'web2py'
p3833
asbasbasbasbasbasbasbag49
(g65
g51
NtRp3834
(dp3835
g54
(dp3836
sg63
g3350
sg56
(lp3837
g49
(g70
g51
NtRp3838
(dp3839
g54
(dp3840
g74
g75
ssg63
g3834
sg56
(lp3841
S'menu'
p3842
asbag49
(g70
g51
NtRp3843
(dp3844
g54
(dp3845
g81
g82
ssg63
g3834
sg56
(lp3846
S':'
asbag49
(g70
g51
NtRp3847
(dp3848
g54
(dp3849
sg63
g3834
sg56
(lp3850
g49
(g50
g51
NtRp3851
(dp3852
g54
(dp3853
g62
I5
ssg63
g3847
sg56
(lp3854
g49
(g58
g51
NtRp3855
(dp3856
g54
(dp3857
g62
I4
ssg63
Nsg56
(lp3858
g49
(g65
g51
NtRp3859
(dp3860
g54
(dp3861
sg63
g3855
sg56
(lp3862
g49
(g70
g51
NtRp3863
(dp3864
g54
(dp3865
sg63
g3859
sg56
(lp3866
g49
(g50
g51
NtRp3867
(dp3868
g54
(dp3869
g62
I4
ssg63
g3863
sg56
(lp3870
g49
(g58
g51
NtRp3871
(dp3872
g54
(dp3873
g62
I3
ssg63
Nsg56
(lp3874
g49
(g65
g51
NtRp3875
(dp3876
g54
(dp3877
sg63
g3871
sg56
(lp3878
g49
(g70
g51
NtRp3879
(dp3880
g54
(dp3881
sg63
g3875
sg56
(lp3882
g49
(g50
g51
NtRp3883
(dp3884
g54
(dp3885
g62
I3
ssg63
g3879
sg56
(lp3886
cgluon.languages
lazyT_unpickle
p3887
(S's\x04\x00\x00\x00Home'
tRp3888
asbasbasbag49
(g65
g51
NtRp3889
(dp3890
g54
(dp3891
sg63
g3871
sg56
(lp3892
g49
(g70
g51
NtRp3893
(dp3894
g54
(dp3895
sg63
g3889
sg56
(lp3896
g49
(g50
g51
NtRp3897
(dp3898
g54
(dp3899
g62
I3
ssg63
g3893
sg56
(lp3900
g92
asbasbasbag49
(g65
g51
NtRp3901
(dp3902
g54
(dp3903
sg63
g3871
sg56
(lp3904
g49
(g70
g51
NtRp3905
(dp3906
g54
(dp3907
sg63
g3901
sg56
(lp3908
g49
(g50
g51
NtRp3909
(dp3910
g54
(dp3911
g62
I3
ssg63
g3905
sg56
(lp3912
S'/'
asbasbasbag49
(g65
g51
NtRp3913
(dp3914
g54
(dp3915
sg63
g3871
sg56
(lp3916
g49
(g70
g51
NtRp3917
(dp3918
g54
(dp3919
sg63
g3913
sg56
(lp3920
g49
(g50
g51
NtRp3921
(dp3922
g54
(dp3923
g62
I3
ssg63
g3917
sg56
(lp3924
g49
(g58
g51
NtRp3925
(dp3926
g54
(dp3927
g62
I2
ssg63
Nsg56
(lp3928
sbasbasbasbasbasbasbasbag49
(g65
g51
NtRp3929
(dp3930
g54
(dp3931
sg63
g3855
sg56
(lp3932
g49
(g70
g51
NtRp3933
(dp3934
g54
(dp3935
sg63
g3929
sg56
(lp3936
g49
(g50
g51
NtRp3937
(dp3938
g54
(dp3939
g62
I4
ssg63
g3933
sg56
(lp3940
g49
(g58
g51
NtRp3941
(dp3942
g54
(dp3943
g62
I3
ssg63
Nsg56
(lp3944
g49
(g65
g51
NtRp3945
(dp3946
g54
(dp3947
sg63
g3941
sg56
(lp3948
g49
(g70
g51
NtRp3949
(dp3950
g54
(dp3951
sg63
g3945
sg56
(lp3952
g49
(g50
g51
NtRp3953
(dp3954
g54
(dp3955
g62
I3
ssg63
g3949
sg56
(lp3956
g49
(cgluon.html
SPAN
p3957
g51
NtRp3958
(dp3959
g54
(dp3960
g74
S'color:yellow'
p3961
ssg63
Nsg56
(lp3962
g3833
asbasbasbasbag49
(g65
g51
NtRp3963
(dp3964
g54
(dp3965
sg63
g3941
sg56
(lp3966
g49
(g70
g51
NtRp3967
(dp3968
g54
(dp3969
sg63
g3963
sg56
(lp3970
g49
(g50
g51
NtRp3971
(dp3972
g54
(dp3973
g62
I3
ssg63
g3967
sg56
(lp3974
g92
asbasbasbag49
(g65
g51
NtRp3975
(dp3976
g54
(dp3977
sg63
g3941
sg56
(lp3978
g49
(g70
g51
NtRp3979
(dp3980
g54
(dp3981
sg63
g3975
sg56
(lp3982
g49
(g50
g51
NtRp3983
(dp3984
g54
(dp3985
g62
I3
ssg63
g3979
sg56
(lp3986
S'None'
p3987
asbasbasbag49
(g65
g51
NtRp3988
(dp3989
g54
(dp3990
sg63
g3941
sg56
(lp3991
g49
(g70
g51
NtRp3992
(dp3993
g54
(dp3994
sg63
g3988
sg56
(lp3995
g49
(g50
g51
NtRp3996
(dp3997
g54
(dp3998
g62
I3
ssg63
g3992
sg56
(lp3999
g49
(g58
g51
NtRp4000
(dp4001
g54
(dp4002
g62
I2
ssg63
Nsg56
(lp4003
g49
(g65
g51
NtRp4004
(dp4005
g54
(dp4006
sg63
g4000
sg56
(lp4007
g49
(g70
g51
NtRp4008
(dp4009
g54
(dp4010
sg63
g4004
sg56
(lp4011
g49
(g50
g51
NtRp4012
(dp4013
g54
(dp4014
g62
I2
ssg63
g4008
sg56
(lp4015
g49
(g58
g51
NtRp4016
(dp4017
g54
(dp4018
g62
I1
ssg63
Nsg56
(lp4019
g49
(g65
g51
NtRp4020
(dp4021
g54
(dp4022
sg63
g4016
sg56
(lp4023
g49
(g70
g51
NtRp4024
(dp4025
g54
(dp4026
sg63
g4020
sg56
(lp4027
g49
(g50
g51
NtRp4028
(dp4029
g54
(dp4030
g62
I1
ssg63
g4024
sg56
(lp4031
g3887
(S's\x08\x00\x00\x00My Sites'
tRp4032
asbasbasbag49
(g65
g51
NtRp4033
(dp4034
g54
(dp4035
sg63
g4016
sg56
(lp4036
g49
(g70
g51
NtRp4037
(dp4038
g54
(dp4039
sg63
g4033
sg56
(lp4040
g49
(g50
g51
NtRp4041
(dp4042
g54
(dp4043
g62
I1
ssg63
g4037
sg56
(lp4044
I00
asbasbasbag49
(g65
g51
NtRp4045
(dp4046
g54
(dp4047
sg63
g4016
sg56
(lp4048
g49
(g70
g51
NtRp4049
(dp4050
g54
(dp4051
sg63
g4045
sg56
(lp4052
g49
(g50
g51
NtRp4053
(dp4054
g54
(dp4055
g62
I1
ssg63
g4049
sg56
(lp4056
S'/admin/site'
p4057
asbasbasbasbasbasbasbag49
(g65
g51
NtRp4058
(dp4059
g54
(dp4060
sg63
g4000
sg56
(lp4061
g49
(g70
g51
NtRp4062
(dp4063
g54
(dp4064
sg63
g4058
sg56
(lp4065
g49
(g50
g51
NtRp4066
(dp4067
g54
(dp4068
g62
I2
ssg63
g4062
sg56
(lp4069
g49
(g58
g51
NtRp4070
(dp4071
g54
(dp4072
g62
I1
ssg63
Nsg56
(lp4073
g49
(g65
g51
NtRp4074
(dp4075
g54
(dp4076
sg63
g4070
sg56
(lp4077
g49
(g70
g51
NtRp4078
(dp4079
g54
(dp4080
sg63
g4074
sg56
(lp4081
g49
(g50
g51
NtRp4082
(dp4083
g54
(dp4084
g62
I1
ssg63
g4078
sg56
(lp4085
g3887
(S's\x08\x00\x00\x00This App'
tRp4086
asbasbasbag49
(g65
g51
NtRp4087
(dp4088
g54
(dp4089
sg63
g4070
sg56
(lp4090
g49
(g70
g51
NtRp4091
(dp4092
g54
(dp4093
sg63
g4087
sg56
(lp4094
g49
(g50
g51
NtRp4095
(dp4096
g54
(dp4097
g62
I1
ssg63
g4091
sg56
(lp4098
I00
asbasbasbag49
(g65
g51
NtRp4099
(dp4100
g54
(dp4101
sg63
g4070
sg56
(lp4102
g49
(g70
g51
NtRp4103
(dp4104
g54
(dp4105
sg63
g4099
sg56
(lp4106
g49
(g50
g51
NtRp4107
(dp4108
g54
(dp4109
g62
I1
ssg63
g4103
sg56
(lp4110
S'/admin/design/udi0312'
p4111
asbasbasbag49
(g65
g51
NtRp4112
(dp4113
g54
(dp4114
sg63
g4070
sg56
(lp4115
g49
(g70
g51
NtRp4116
(dp4117
g54
(dp4118
sg63
g4112
sg56
(lp4119
g49
(g50
g51
NtRp4120
(dp4121
g54
(dp4122
g62
I1
ssg63
g4116
sg56
(lp4123
(lp4124
(g3887
(S's\n\x00\x00\x00Controller'
tRp4125
I00
S'/admin/edit/udi0312/controllers/default.py'
tp4126
a(g3887
(S's\x04\x00\x00\x00View'
tRp4127
I00
S'/admin/edit/udi0312/views/default/test.html'
tp4128
a(g3887
(S's\x06\x00\x00\x00Layout'
tRp4129
I00
S'/admin/edit/udi0312/views/layout.html'
tp4130
a(g3887
(S's\n\x00\x00\x00Stylesheet'
tRp4131
I00
S'/admin/edit/udi0312/static/css/web2py.css'
tp4132
a(g3887
(S's\x08\x00\x00\x00DB Model'
tRp4133
I00
S'/admin/edit/udi0312/models/db.py'
tp4134
a(g3887
(S's\n\x00\x00\x00Menu Model'
tRp4135
I00
S'/admin/edit/udi0312/models/menu.py'
tp4136
a(g3887
(S's\x08\x00\x00\x00Database'
tRp4137
I00
S'/appadmin'
tp4138
a(g3887
(S's\x06\x00\x00\x00Errors'
tRp4139
I00
S'/admin/errors/udi0312'
tp4140
a(g3887
(S's\x05\x00\x00\x00About'
tRp4141
I00
S'/admin/about/udi0312'
tp4142
aasbasbasbasbasbasbasbag49
(g65
g51
NtRp4143
(dp4144
g54
(dp4145
sg63
g4000
sg56
(lp4146
g49
(g70
g51
NtRp4147
(dp4148
g54
(dp4149
sg63
g4143
sg56
(lp4150
g49
(g50
g51
NtRp4151
(dp4152
g54
(dp4153
g62
I2
ssg63
g4147
sg56
(lp4154
g49
(g58
g51
NtRp4155
(dp4156
g54
(dp4157
g62
I1
ssg63
Nsg56
(lp4158
g49
(g65
g51
NtRp4159
(dp4160
g54
(dp4161
sg63
g4155
sg56
(lp4162
g49
(g70
g51
NtRp4163
(dp4164
g54
(dp4165
sg63
g4159
sg56
(lp4166
g49
(g50
g51
NtRp4167
(dp4168
g54
(dp4169
g62
I1
ssg63
g4163
sg56
(lp4170
S'web2py.com'
p4171
asbasbasbag49
(g65
g51
NtRp4172
(dp4173
g54
(dp4174
sg63
g4155
sg56
(lp4175
g49
(g70
g51
NtRp4176
(dp4177
g54
(dp4178
sg63
g4172
sg56
(lp4179
g49
(g50
g51
NtRp4180
(dp4181
g54
(dp4182
g62
I1
ssg63
g4176
sg56
(lp4183
I00
asbasbasbag49
(g65
g51
NtRp4184
(dp4185
g54
(dp4186
sg63
g4155
sg56
(lp4187
g49
(g70
g51
NtRp4188
(dp4189
g54
(dp4190
sg63
g4184
sg56
(lp4191
g49
(g50
g51
NtRp4192
(dp4193
g54
(dp4194
g62
I1
ssg63
g4188
sg56
(lp4195
S'http://www.web2py.com'
p4196
asbasbasbag49
(g65
g51
NtRp4197
(dp4198
g54
(dp4199
sg63
g4155
sg56
(lp4200
g49
(g70
g51
NtRp4201
(dp4202
g54
(dp4203
sg63
g4197
sg56
(lp4204
g49
(g50
g51
NtRp4205
(dp4206
g54
(dp4207
g62
I1
ssg63
g4201
sg56
(lp4208
(lp4209
(g3887
(S's\x08\x00\x00\x00Download'
tRp4210
I00
S'http://www.web2py.com/examples/default/download'
p4211
tp4212
a(g3887
(S's\x07\x00\x00\x00Support'
tRp4213
I00
S'http://www.web2py.com/examples/default/support'
p4214
tp4215
a(g3887
(S's\x04\x00\x00\x00Demo'
tRp4216
I00
S'http://web2py.com/demo_admin'
p4217
tp4218
a(g3887
(S's\x0e\x00\x00\x00Quick Examples'
tRp4219
I00
S'http://web2py.com/examples/default/examples'
p4220
tp4221
a(g3887
(S's\x03\x00\x00\x00FAQ'
tRp4222
I00
S'http://web2py.com/AlterEgo'
p4223
tp4224
a(g3887
(S's\x06\x00\x00\x00Videos'
tRp4225
I00
S'http://www.web2py.com/examples/default/videos/'
p4226
tp4227
a(g3887
(S's\x11\x00\x00\x00Free Applications'
tRp4228
I00
S'http://web2py.com/appliances'
p4229
tp4230
a(g3887
(S's\x07\x00\x00\x00Plugins'
tRp4231
I00
S'http://web2py.com/plugins'
p4232
tp4233
a(g3887
(S's\x07\x00\x00\x00Layouts'
tRp4234
I00
S'http://web2py.com/layouts'
p4235
tp4236
a(g3887
(S's\x07\x00\x00\x00Recipes'
tRp4237
I00
S'http://web2pyslices.com/'
p4238
tp4239
a(g3887
(S's\x08\x00\x00\x00Semantic'
tRp4240
I00
S'http://web2py.com/semantic'
p4241
tp4242
aasbasbasbasbasbasbasbag49
(g65
g51
NtRp4243
(dp4244
g54
(dp4245
sg63
g4000
sg56
(lp4246
g49
(g70
g51
NtRp4247
(dp4248
g54
(dp4249
sg63
g4243
sg56
(lp4250
g49
(g50
g51
NtRp4251
(dp4252
g54
(dp4253
g62
I2
ssg63
g4247
sg56
(lp4254
g49
(g58
g51
NtRp4255
(dp4256
g54
(dp4257
g62
I1
ssg63
Nsg56
(lp4258
g49
(g65
g51
NtRp4259
(dp4260
g54
(dp4261
sg63
g4255
sg56
(lp4262
g49
(g70
g51
NtRp4263
(dp4264
g54
(dp4265
sg63
g4259
sg56
(lp4266
g49
(g50
g51
NtRp4267
(dp4268
g54
(dp4269
g62
I1
ssg63
g4263
sg56
(lp4270
g3887
(S's\r\x00\x00\x00Documentation'
tRp4271
asbasbasbag49
(g65
g51
NtRp4272
(dp4273
g54
(dp4274
sg63
g4255
sg56
(lp4275
g49
(g70
g51
NtRp4276
(dp4277
g54
(dp4278
sg63
g4272
sg56
(lp4279
g49
(g50
g51
NtRp4280
(dp4281
g54
(dp4282
g62
I1
ssg63
g4276
sg56
(lp4283
I00
asbasbasbag49
(g65
g51
NtRp4284
(dp4285
g54
(dp4286
sg63
g4255
sg56
(lp4287
g49
(g70
g51
NtRp4288
(dp4289
g54
(dp4290
sg63
g4284
sg56
(lp4291
g49
(g50
g51
NtRp4292
(dp4293
g54
(dp4294
g62
I1
ssg63
g4288
sg56
(lp4295
S'http://www.web2py.com/book'
p4296
asbasbasbag49
(g65
g51
NtRp4297
(dp4298
g54
(dp4299
sg63
g4255
sg56
(lp4300
g49
(g70
g51
NtRp4301
(dp4302
g54
(dp4303
sg63
g4297
sg56
(lp4304
g49
(g50
g51
NtRp4305
(dp4306
g54
(dp4307
g62
I1
ssg63
g4301
sg56
(lp4308
(lp4309
(g3887
(S's\x07\x00\x00\x00Preface'
tRp4310
I00
S'http://www.web2py.com/book/default/chapter/00'
p4311
tp4312
a(g3887
(S's\x0c\x00\x00\x00Introduction'
tRp4313
I00
S'http://www.web2py.com/book/default/chapter/01'
p4314
tp4315
a(g3887
(S's\x06\x00\x00\x00Python'
tRp4316
I00
S'http://www.web2py.com/book/default/chapter/02'
p4317
tp4318
a(g3887
(S's\x08\x00\x00\x00Overview'
tRp4319
I00
S'http://www.web2py.com/book/default/chapter/03'
p4320
tp4321
a(g3887
(S's\x08\x00\x00\x00The Core'
tRp4322
I00
S'http://www.web2py.com/book/default/chapter/04'
p4323
tp4324
a(g3887
(S's\t\x00\x00\x00The Views'
tRp4325
I00
S'http://www.web2py.com/book/default/chapter/05'
p4326
tp4327
a(g3887
(S's\x08\x00\x00\x00Database'
tRp4328
I00
S'http://www.web2py.com/book/default/chapter/06'
p4329
tp4330
a(g3887
(S's\x14\x00\x00\x00Forms and Validators'
tRp4331
I00
S'http://www.web2py.com/book/default/chapter/07'
p4332
tp4333
a(g3887
(S's\r\x00\x00\x00Email and SMS'
tRp4334
I00
S'http://www.web2py.com/book/default/chapter/08'
p4335
tp4336
a(g3887
(S's\x0e\x00\x00\x00Access Control'
tRp4337
I00
S'http://www.web2py.com/book/default/chapter/09'
p4338
tp4339
a(g3887
(S's\x08\x00\x00\x00Services'
tRp4340
I00
S'http://www.web2py.com/book/default/chapter/10'
p4341
tp4342
a(g3887
(S's\x0c\x00\x00\x00Ajax Recipes'
tRp4343
I00
S'http://www.web2py.com/book/default/chapter/11'
p4344
tp4345
a(g3887
(S's\x16\x00\x00\x00Components and Plugins'
tRp4346
I00
S'http://www.web2py.com/book/default/chapter/12'
p4347
tp4348
a(g3887
(S's\x12\x00\x00\x00Deployment Recipes'
tRp4349
I00
S'http://www.web2py.com/book/default/chapter/13'
p4350
tp4351
a(g3887
(S's\r\x00\x00\x00Other Recipes'
tRp4352
I00
S'http://www.web2py.com/book/default/chapter/14'
p4353
tp4354
a(g3887
(S's\r\x00\x00\x00Buy this book'
tRp4355
I00
S'http://stores.lulu.com/web2py'
p4356
tp4357
aasbasbasbasbasbasbasbag49
(g65
g51
NtRp4358
(dp4359
g54
(dp4360
sg63
g4000
sg56
(lp4361
g49
(g70
g51
NtRp4362
(dp4363
g54
(dp4364
sg63
g4358
sg56
(lp4365
g49
(g50
g51
NtRp4366
(dp4367
g54
(dp4368
g62
I2
ssg63
g4362
sg56
(lp4369
g49
(g58
g51
NtRp4370
(dp4371
g54
(dp4372
g62
I1
ssg63
Nsg56
(lp4373
g49
(g65
g51
NtRp4374
(dp4375
g54
(dp4376
sg63
g4370
sg56
(lp4377
g49
(g70
g51
NtRp4378
(dp4379
g54
(dp4380
sg63
g4374
sg56
(lp4381
g49
(g50
g51
NtRp4382
(dp4383
g54
(dp4384
g62
I1
ssg63
g4378
sg56
(lp4385
g3887
(S's\t\x00\x00\x00Community'
tRp4386
asbasbasbag49
(g65
g51
NtRp4387
(dp4388
g54
(dp4389
sg63
g4370
sg56
(lp4390
g49
(g70
g51
NtRp4391
(dp4392
g54
(dp4393
sg63
g4387
sg56
(lp4394
g49
(g50
g51
NtRp4395
(dp4396
g54
(dp4397
g62
I1
ssg63
g4391
sg56
(lp4398
I00
asbasbasbag49
(g65
g51
NtRp4399
(dp4400
g54
(dp4401
sg63
g4370
sg56
(lp4402
g49
(g70
g51
NtRp4403
(dp4404
g54
(dp4405
sg63
g4399
sg56
(lp4406
g49
(g50
g51
NtRp4407
(dp4408
g54
(dp4409
g62
I1
ssg63
g4403
sg56
(lp4410
Nasbasbasbag49
(g65
g51
NtRp4411
(dp4412
g54
(dp4413
sg63
g4370
sg56
(lp4414
g49
(g70
g51
NtRp4415
(dp4416
g54
(dp4417
sg63
g4411
sg56
(lp4418
g49
(g50
g51
NtRp4419
(dp4420
g54
(dp4421
g62
I1
ssg63
g4415
sg56
(lp4422
(lp4423
(g3887
(S's\x06\x00\x00\x00Groups'
tRp4424
I00
S'http://www.web2py.com/examples/default/usergroups'
p4425
tp4426
a(g3887
(S's\x07\x00\x00\x00Twitter'
tRp4427
I00
S'http://twitter.com/web2py'
p4428
tp4429
a(g3887
(S's\t\x00\x00\x00Live Chat'
tRp4430
I00
S'http://webchat.freenode.net/?channels=web2py'
p4431
tp4432
aasbasbasbasbasbasbasbag49
(g65
g51
NtRp4433
(dp4434
g54
(dp4435
sg63
g4000
sg56
(lp4436
g49
(g70
g51
NtRp4437
(dp4438
g54
(dp4439
sg63
g4433
sg56
(lp4440
g49
(g50
g51
NtRp4441
(dp4442
g54
(dp4443
g62
I2
ssg63
g4437
sg56
(lp4444
g49
(g58
g51
NtRp4445
(dp4446
g54
(dp4447
g62
I1
ssg63
Nsg56
(lp4448
g49
(g65
g51
NtRp4449
(dp4450
g54
(dp4451
sg63
g4445
sg56
(lp4452
g49
(g70
g51
NtRp4453
(dp4454
g54
(dp4455
sg63
g4449
sg56
(lp4456
g49
(g50
g51
NtRp4457
(dp4458
g54
(dp4459
g62
I1
ssg63
g4453
sg56
(lp4460
g3887
(S's\x07\x00\x00\x00Plugins'
tRp4461
asbasbasbag49
(g65
g51
NtRp4462
(dp4463
g54
(dp4464
sg63
g4445
sg56
(lp4465
g49
(g70
g51
NtRp4466
(dp4467
g54
(dp4468
sg63
g4462
sg56
(lp4469
g49
(g50
g51
NtRp4470
(dp4471
g54
(dp4472
g62
I1
ssg63
g4466
sg56
(lp4473
I00
asbasbasbag49
(g65
g51
NtRp4474
(dp4475
g54
(dp4476
sg63
g4445
sg56
(lp4477
g49
(g70
g51
NtRp4478
(dp4479
g54
(dp4480
sg63
g4474
sg56
(lp4481
g49
(g50
g51
NtRp4482
(dp4483
g54
(dp4484
g62
I1
ssg63
g4478
sg56
(lp4485
Nasbasbasbag49
(g65
g51
NtRp4486
(dp4487
g54
(dp4488
sg63
g4445
sg56
(lp4489
g49
(g70
g51
NtRp4490
(dp4491
g54
(dp4492
sg63
g4486
sg56
(lp4493
g49
(g50
g51
NtRp4494
(dp4495
g54
(dp4496
g62
I1
ssg63
g4490
sg56
(lp4497
(lp4498
(S'plugin_wiki'
p4499
I00
S'http://web2py.com/examples/default/download'
p4500
tp4501
a(g3887
(S's\r\x00\x00\x00Other Plugins'
tRp4502
I00
g4232
tp4503
a(g3887
(S's\x0e\x00\x00\x00Layout Plugins'
tRp4504
I00
g4235
tp4505
aasbasbasbasbasbasbasbasbasbasbasbasbasbasbasbasbasbasbasbag49
(g65
g51
NtRp4506
(dp4507
g54
(dp4508
sg63
g3350
sg56
(lp4509
g49
(g70
g51
NtRp4510
(dp4511
g54
(dp4512
g74
g75
ssg63
g4506
sg56
(lp4513
S'meta'
p4514
asbag49
(g70
g51
NtRp4515
(dp4516
g54
(dp4517
g81
g82
ssg63
g4506
sg56
(lp4518
S':'
asbag49
(g70
g51
NtRp4519
(dp4520
g54
(dp4521
sg63
g4506
sg56
(lp4522
g49
(g50
g51
NtRp4523
(dp4524
g54
(dp4525
g62
I5
ssg63
g4519
sg56
(lp4526
g49
(g58
g51
NtRp4527
(dp4528
g54
(dp4529
g62
I4
ssg63
Nsg56
(lp4530
g49
(g65
g51
NtRp4531
(dp4532
g54
(dp4533
sg63
g4527
sg56
(lp4534
g49
(g70
g51
NtRp4535
(dp4536
g54
(dp4537
g74
g75
ssg63
g4531
sg56
(lp4538
S'author'
p4539
asbag49
(g70
g51
NtRp4540
(dp4541
g54
(dp4542
g81
g82
ssg63
g4531
sg56
(lp4543
S':'
asbag49
(g70
g51
NtRp4544
(dp4545
g54
(dp4546
sg63
g4531
sg56
(lp4547
g49
(g50
g51
NtRp4548
(dp4549
g54
(dp4550
g62
I4
ssg63
g4544
sg56
(lp4551
S'Your Name <you@example.com>'
p4552
asbasbasbag49
(g65
g51
NtRp4553
(dp4554
g54
(dp4555
sg63
g4527
sg56
(lp4556
g49
(g70
g51
NtRp4557
(dp4558
g54
(dp4559
g74
g75
ssg63
g4553
sg56
(lp4560
S'copyright'
p4561
asbag49
(g70
g51
NtRp4562
(dp4563
g54
(dp4564
g81
g82
ssg63
g4553
sg56
(lp4565
S':'
asbag49
(g70
g51
NtRp4566
(dp4567
g54
(dp4568
sg63
g4553
sg56
(lp4569
g49
(g50
g51
NtRp4570
(dp4571
g54
(dp4572
g62
I4
ssg63
g4566
sg56
(lp4573
S'Copyright 2011'
p4574
asbasbasbag49
(g65
g51
NtRp4575
(dp4576
g54
(dp4577
sg63
g4527
sg56
(lp4578
g49
(g70
g51
NtRp4579
(dp4580
g54
(dp4581
g74
g75
ssg63
g4575
sg56
(lp4582
S'description'
p4583
asbag49
(g70
g51
NtRp4584
(dp4585
g54
(dp4586
g81
g82
ssg63
g4575
sg56
(lp4587
S':'
asbag49
(g70
g51
NtRp4588
(dp4589
g54
(dp4590
sg63
g4575
sg56
(lp4591
g49
(g50
g51
NtRp4592
(dp4593
g54
(dp4594
g62
I4
ssg63
g4588
sg56
(lp4595
S'a cool new app'
p4596
asbasbasbag49
(g65
g51
NtRp4597
(dp4598
g54
(dp4599
sg63
g4527
sg56
(lp4600
g49
(g70
g51
NtRp4601
(dp4602
g54
(dp4603
g74
g75
ssg63
g4597
sg56
(lp4604
S'generator'
p4605
asbag49
(g70
g51
NtRp4606
(dp4607
g54
(dp4608
g81
g82
ssg63
g4597
sg56
(lp4609
S':'
asbag49
(g70
g51
NtRp4610
(dp4611
g54
(dp4612
sg63
g4597
sg56
(lp4613
g49
(g50
g51
NtRp4614
(dp4615
g54
(dp4616
g62
I4
ssg63
g4610
sg56
(lp4617
S'Web2py Web Framework'
p4618
asbasbasbag49
(g65
g51
NtRp4619
(dp4620
g54
(dp4621
sg63
g4527
sg56
(lp4622
g49
(g70
g51
NtRp4623
(dp4624
g54
(dp4625
g74
g75
ssg63
g4619
sg56
(lp4626
S'keywords'
p4627
asbag49
(g70
g51
NtRp4628
(dp4629
g54
(dp4630
g81
g82
ssg63
g4619
sg56
(lp4631
S':'
asbag49
(g70
g51
NtRp4632
(dp4633
g54
(dp4634
sg63
g4619
sg56
(lp4635
g49
(g50
g51
NtRp4636
(dp4637
g54
(dp4638
g62
I4
ssg63
g4632
sg56
(lp4639
S'web2py, python, framework'
p4640
asbasbasbasbasbasbasbag49
(g65
g51
NtRp4641
(dp4642
g54
(dp4643
sg63
g3350
sg56
(lp4644
g49
(g70
g51
NtRp4645
(dp4646
g54
(dp4647
g74
g75
ssg63
g4641
sg56
(lp4648
S'postprocessing'
p4649
asbag49
(g70
g51
NtRp4650
(dp4651
g54
(dp4652
g81
g82
ssg63
g4641
sg56
(lp4653
S':'
asbag49
(g70
g51
NtRp4654
(dp4655
g54
(dp4656
sg63
g4641
sg56
(lp4657
g49
(g50
g51
NtRp4658
(dp4659
g54
(dp4660
g62
I5
ssg63
g4654
sg56
(lp4661
g49
(g58
g51
NtRp4662
(dp4663
g54
(dp4664
g62
I4
ssg63
Nsg56
(lp4665
sbasbasbasbag49
(g65
g51
NtRp4666
(dp4667
g54
(dp4668
sg63
g3350
sg56
(lp4669
g49
(g70
g51
NtRp4670
(dp4671
g54
(dp4672
g74
g75
ssg63
g4666
sg56
(lp4673
S'session_file'
p4674
asbag49
(g70
g51
NtRp4675
(dp4676
g54
(dp4677
g81
g82
ssg63
g4666
sg56
(lp4678
S':'
asbag49
(g70
g51
NtRp4679
(dp4680
g54
(dp4681
sg63
g4666
sg56
(lp4682
g49
(g50
g51
NtRp4683
(dp4684
g54
(dp4685
g62
I5
ssg63
g4679
sg56
(lp4686
S"<open file '/Users/udimilo/Documents/web2py/applications/udi0312/sessions/127.0.0.1-fcd6a577-d448-4882-b7bc-f353da84ba3b', mode 'rb+' at 0x9f00b60>"
p4687
asbasbasbag49
(g65
g51
NtRp4688
(dp4689
g54
(dp4690
sg63
g3350
sg56
(lp4691
g49
(g70
g51
NtRp4692
(dp4693
g54
(dp4694
g74
g75
ssg63
g4688
sg56
(lp4695
S'session_filename'
p4696
asbag49
(g70
g51
NtRp4697
(dp4698
g54
(dp4699
g81
g82
ssg63
g4688
sg56
(lp4700
S':'
asbag49
(g70
g51
NtRp4701
(dp4702
g54
(dp4703
sg63
g4688
sg56
(lp4704
g49
(g50
g51
NtRp4705
(dp4706
g54
(dp4707
g62
I5
ssg63
g4701
sg56
(lp4708
S'/Users/udimilo/Documents/web2py/applications/udi0312/sessions/127.0.0.1-fcd6a577-d448-4882-b7bc-f353da84ba3b'
p4709
asbasbasbag49
(g65
g51
NtRp4710
(dp4711
g54
(dp4712
sg63
g3350
sg56
(lp4713
g49
(g70
g51
NtRp4714
(dp4715
g54
(dp4716
g74
g75
ssg63
g4710
sg56
(lp4717
S'session_id'
p4718
asbag49
(g70
g51
NtRp4719
(dp4720
g54
(dp4721
g81
g82
ssg63
g4710
sg56
(lp4722
S':'
asbag49
(g70
g51
NtRp4723
(dp4724
g54
(dp4725
sg63
g4710
sg56
(lp4726
g49
(g50
g51
NtRp4727
(dp4728
g54
(dp4729
g62
I5
ssg63
g4723
sg56
(lp4730
S'127.0.0.1-fcd6a577-d448-4882-b7bc-f353da84ba3b'
p4731
asbasbasbag49
(g65
g51
NtRp4732
(dp4733
g54
(dp4734
sg63
g3350
sg56
(lp4735
g49
(g70
g51
NtRp4736
(dp4737
g54
(dp4738
g74
g75
ssg63
g4732
sg56
(lp4739
S'session_id_name'
p4740
asbag49
(g70
g51
NtRp4741
(dp4742
g54
(dp4743
g81
g82
ssg63
g4732
sg56
(lp4744
S':'
asbag49
(g70
g51
NtRp4745
(dp4746
g54
(dp4747
sg63
g4732
sg56
(lp4748
g49
(g50
g51
NtRp4749
(dp4750
g54
(dp4751
g62
I5
ssg63
g4745
sg56
(lp4752
g3407
asbasbasbag49
(g65
g51
NtRp4753
(dp4754
g54
(dp4755
sg63
g3350
sg56
(lp4756
g49
(g70
g51
NtRp4757
(dp4758
g54
(dp4759
g74
g75
ssg63
g4753
sg56
(lp4760
S'session_locked'
p4761
asbag49
(g70
g51
NtRp4762
(dp4763
g54
(dp4764
g81
g82
ssg63
g4753
sg56
(lp4765
S':'
asbag49
(g70
g51
NtRp4766
(dp4767
g54
(dp4768
sg63
g4753
sg56
(lp4769
g49
(g50
g51
NtRp4770
(dp4771
g54
(dp4772
g62
I5
ssg63
g4766
sg56
(lp4773
g1467
asbasbasbag49
(g65
g51
NtRp4774
(dp4775
g54
(dp4776
sg63
g3350
sg56
(lp4777
g49
(g70
g51
NtRp4778
(dp4779
g54
(dp4780
g74
g75
ssg63
g4774
sg56
(lp4781
S'session_new'
p4782
asbag49
(g70
g51
NtRp4783
(dp4784
g54
(dp4785
g81
g82
ssg63
g4774
sg56
(lp4786
S':'
asbag49
(g70
g51
NtRp4787
(dp4788
g54
(dp4789
sg63
g4774
sg56
(lp4790
g49
(g50
g51
NtRp4791
(dp4792
g54
(dp4793
g62
I5
ssg63
g4787
sg56
(lp4794
g92
asbasbasbag49
(g65
g51
NtRp4795
(dp4796
g54
(dp4797
sg63
g3350
sg56
(lp4798
g49
(g70
g51
NtRp4799
(dp4800
g54
(dp4801
g74
g75
ssg63
g4795
sg56
(lp4802
S'status'
p4803
asbag49
(g70
g51
NtRp4804
(dp4805
g54
(dp4806
g81
g82
ssg63
g4795
sg56
(lp4807
S':'
asbag49
(g70
g51
NtRp4808
(dp4809
g54
(dp4810
sg63
g4795
sg56
(lp4811
g49
(g50
g51
NtRp4812
(dp4813
g54
(dp4814
g62
I5
ssg63
g4808
sg56
(lp4815
S'200'
p4816
asbasbasbag49
(g65
g51
NtRp4817
(dp4818
g54
(dp4819
sg63
g3350
sg56
(lp4820
g49
(g70
g51
NtRp4821
(dp4822
g54
(dp4823
g74
g75
ssg63
g4817
sg56
(lp4824
S'subtitle'
p4825
asbag49
(g70
g51
NtRp4826
(dp4827
g54
(dp4828
g81
g82
ssg63
g4817
sg56
(lp4829
S':'
asbag49
(g70
g51
NtRp4830
(dp4831
g54
(dp4832
sg63
g4817
sg56
(lp4833
g49
(g50
g51
NtRp4834
(dp4835
g54
(dp4836
g62
I5
ssg63
g4830
sg56
(lp4837
g3887
(S's\r\x00\x00\x00customize me!'
tRp4838
asbasbasbag49
(g65
g51
NtRp4839
(dp4840
g54
(dp4841
sg63
g3350
sg56
(lp4842
g49
(g70
g51
NtRp4843
(dp4844
g54
(dp4845
g74
g75
ssg63
g4839
sg56
(lp4846
S'title'
p4847
asbag49
(g70
g51
NtRp4848
(dp4849
g54
(dp4850
g81
g82
ssg63
g4839
sg56
(lp4851
S':'
asbag49
(g70
g51
NtRp4852
(dp4853
g54
(dp4854
sg63
g4839
sg56
(lp4855
g49
(g50
g51
NtRp4856
(dp4857
g54
(dp4858
g62
I5
ssg63
g4852
sg56
(lp4859
S'Udi0312'
p4860
asbasbasbag49
(g65
g51
NtRp4861
(dp4862
g54
(dp4863
sg63
g3350
sg56
(lp4864
g49
(g70
g51
NtRp4865
(dp4866
g54
(dp4867
g74
g75
ssg63
g4861
sg56
(lp4868
g2153
asbag49
(g70
g51
NtRp4869
(dp4870
g54
(dp4871
g81
g82
ssg63
g4861
sg56
(lp4872
S':'
asbag49
(g70
g51
NtRp4873
(dp4874
g54
(dp4875
sg63
g4861
sg56
(lp4876
g49
(g50
g51
NtRp4877
(dp4878
g54
(dp4879
g62
I5
ssg63
g4873
sg56
(lp4880
g2166
asbasbasbag49
(g65
g51
NtRp4881
(dp4882
g54
(dp4883
sg63
g3350
sg56
(lp4884
g49
(g70
g51
NtRp4885
(dp4886
g54
(dp4887
g74
g75
ssg63
g4881
sg56
(lp4888
S'view'
p4889
asbag49
(g70
g51
NtRp4890
(dp4891
g54
(dp4892
g81
g82
ssg63
g4881
sg56
(lp4893
S':'
asbag49
(g70
g51
NtRp4894
(dp4895
g54
(dp4896
sg63
g4881
sg56
(lp4897
g49
(g50
g51
NtRp4898
(dp4899
g54
(dp4900
g62
I5
ssg63
g4894
sg56
(lp4901
S'default/test.html'
p4902
asbasbasbasbasbsS'locals'
p4903
(dp4904
S'self'
p4905
S"{'updated_parsed': (2012, 3, 16, 0, 58, 2, 4, 76... frictionless as possible.', 'guidislink': False}"
p4906
sS'key'
p4907
S"'published'"
p4908
sssS'traceback'
p4909
S'Traceback (most recent call last):\n  File "/users/udimilo/Documents/web2py/gluon/restricted.py", line 205, in restricted\n    exec ccode in environment\n  File "/Users/udimilo/Documents/web2py/applications/udi0312/controllers/default.py", line 150, in <module>\n  File "/users/udimilo/Documents/web2py/gluon/globals.py", line 173, in <lambda>\n    self._caller = lambda f: f()\n  File "/Users/udimilo/Documents/web2py/applications/udi0312/controllers/default.py", line 92, in test\n    date_published=item.published,\n  File "applications/udi0312/modules/feedparser.py", line 382, in __getattr__\n    raise AttributeError, "object has no attribute \'%s\'" % key\nAttributeError: object has no attribute \'published\'\n'
p4910
s.