(dp1
S'output'
p2
S"<type 'exceptions.SyntaxError'> invalid syntax (articles.html, line 1)"
p3
sS'layer'
p4
S'/Users/udimilo/Documents/web2py/applications/udi0312/views/default/articles.html'
p5
sS'code'
p6
S'if request.args.ajax == True\nresponse.write(\'\\n\', escape=False)\nresponse.write(\'<html lan="en">\\n<head>\\n    <title>\', escape=False)\nresponse.write(response.title or request.application)\nresponse.write(\'</title>\\n    <meta name="viewport" content="width=device-width, initial-scale=1.0, user-scalable=yes">\\n    <meta name="description" content="\', escape=False)\nresponse.write(response.meta.description)\nresponse.write(\'" />\\n    <meta name="author" content="\', escape=False)\nresponse.write(response.meta.author)\nresponse.write(\'" />        \\n\\n    <script type="text/javascript" src="http://ajax.googleapis.com/ajax/libs/jquery/1.7.1/jquery.min.js"></script>\\n    <script type="text/javascript" src="/udi0312/static/js/jquery.wookmark.js"></script>\\n    <script type="text/javascript" src="http://easydate.parshap.com/files/jquery.easydate-0.2.4.min.js"></script>\\n    <script type="text/javascript" src="/udi0312/static/js/web2py.js"></script>\\n    <script type="text/javascript" src="http://jacklmoore.com/colorbox/colorbox/jquery.colorbox.js"></script>   \\n    <link href=\\\'http://fonts.googleapis.com/css?family=PT+Sans\\\' rel=\\\'stylesheet\\\' type=\\\'text/css\\\'>\\n    <link href=\\\'/udi0312/static/css/site.css\\\' rel=\\\'stylesheet\\\' type=\\\'text/css\\\'>\\n</head>\\n<body>\\n    <div id="header">\\n        <div id="search">\\n            <input type="text" id="query" size="27" value="Search">\\n            <a id="query_button" href="#" class="lg"><img src="http://passets-cdn.pinterest.com/images/search.gif" alt=""></a>\\n        </div>\\n        <img id="ajax_loader" src="/udi0312/static/images/ajax_loader.gif" />\\n        <a id="logo" href="/">\\n            <img src="http://press.linkedin.com/sites/all/themes/presslinkedin/images/LinkedIn_IN_Icon_25px.png"/>\\n            <span>formation</span>\\n        </a>\\n        <ul id="navigation">\\n            <li>\', escape=False)\nresponse.write(\'auth\' in globals() and auth.navbar(separators=(\' \',\' | \',\'\')))\nresponse.write(\'</li>\\n        </ul>\\n    </div>\\n    <div id="msg">\\n        <span></span>\\n    </div>\\n    <!-- hidden colorbox elements -->\\n    <div style="display:none;">\\n        <div id="showItem">\\n            <div id="showItemContent" class="clearfix"></div>\\n        </div>\\n        \', escape=False)\nif auth.user:\n    response.write(\'\\n        <div id="repin">\\n            <form onsubmit="ajax_with_msg(\\\'\', escape=False)\n    response.write(URL(\'api\', \'add_repin\'))\n    response.write(\'\\\', [\\\'id\\\',\\\'repin_board\\\']);return false;">\\n                <h1>Repin</h1>\\n                <div class="pin">\\n                    <h2 class="title"></h2> \\n                    <select name="repin_board">\\n                    \', escape=False)\n    for board in boards:\n        response.write(\'\\n                        <option value="\', escape=False)\n        response.write(board.id)\n        response.write(\'">\', escape=False)\n        response.write(board.name)\n        response.write(\'</option>\\n                    \', escape=False)\n        pass\n    response.write(\'\\n                    </select>\\n                    <input type="hidden" name="id"/>\\n                    <input type="submit" />\\n                </div>\\n            </form>\\n        </div>\\n        \', escape=False)\n    pass\nresponse.write(\'\\n    </div>\\n\', escape=False)\nresponse.write(\'\\n\', escape=False)\nresponse.write(\'\\n\', escape=False)\nresponse.write(\'\\n\', escape=False)\nresponse.write(\'\\n\', escape=False)\nresponse.write(\'\\n\', escape=False)\npass\nresponse.write(\'\\n\\n\', escape=False)\nresponse.write(article)\nresponse.write(\'\\n\', escape=False)\nresponse.write(\'\\n\', escape=False)\nresponse.write(\'\\n    <script type="text/javascript" src="/udi0312/static/js/site.js"></script>\\n</body>\\n</html>\\n\', escape=False)'
p7
sS'snapshot'
p8
(dp9
S'exception'
p10
(dp11
S'__getslice__'
p12
S"<method-wrapper '__getslice__' of exceptions.SyntaxError object at 0xa9b66f0>"
p13
sS'text'
p14
S"'if request.args.ajax == True\\n'"
p15
sS'__str__'
p16
S"<method-wrapper '__str__' of exceptions.SyntaxError object at 0xa9b66f0>"
p17
sS'__reduce__'
p18
S'<built-in method __reduce__ of exceptions.SyntaxError object at 0xa9b66f0>'
p19
sS'__dict__'
p20
S'{}'
p21
sS'__init__'
p22
S"<method-wrapper '__init__' of exceptions.SyntaxError object at 0xa9b66f0>"
p23
sS'__setattr__'
p24
S"<method-wrapper '__setattr__' of exceptions.SyntaxError object at 0xa9b66f0>"
p25
sS'__reduce_ex__'
p26
S'<built-in method __reduce_ex__ of exceptions.SyntaxError object at 0xa9b66f0>'
p27
sS'__new__'
p28
S'<built-in method __new__ of type object at 0x100320>'
p29
sS'__class__'
p30
S"<type 'exceptions.SyntaxError'>"
p31
sS'filename'
p32
S"'/Users/udimilo/Documents/web2py/applications/udi0312/views/default/articles.html'"
p33
sS'lineno'
p34
S'1'
sS'msg'
p35
S"'invalid syntax'"
p36
sS'__doc__'
p37
S"'Invalid syntax.'"
p38
sS'__getitem__'
p39
S"<method-wrapper '__getitem__' of exceptions.SyntaxError object at 0xa9b66f0>"
p40
sS'__setstate__'
p41
S'<built-in method __setstate__ of exceptions.SyntaxError object at 0xa9b66f0>'
p42
sS'__getattribute__'
p43
S"<method-wrapper '__getattribute__' of exceptions.SyntaxError object at 0xa9b66f0>"
p44
sS'print_file_and_line'
p45
S'None'
p46
sS'args'
p47
S"('invalid syntax', ('/Users/udimilo/Documents/web2py/applications/udi0312/views/default/articles.html', 1, 29, 'if request.args.ajax == True\\n'))"
p48
sS'offset'
p49
S'29'
p50
sS'__delattr__'
p51
S"<method-wrapper '__delattr__' of exceptions.SyntaxError object at 0xa9b66f0>"
p52
sS'__repr__'
p53
S"<method-wrapper '__repr__' of exceptions.SyntaxError object at 0xa9b66f0>"
p54
sS'__hash__'
p55
S"<method-wrapper '__hash__' of exceptions.SyntaxError object at 0xa9b66f0>"
p56
ssS'evalue'
p57
S'invalid syntax (articles.html, line 1)'
p58
sS'request'
p59
ccopy_reg
_reconstructor
p60
(cgluon.html
BEAUTIFY
p61
c__builtin__
object
p62
NtRp63
(dp64
S'attributes'
p65
(dp66
sS'components'
p67
(lp68
g60
(cgluon.html
TABLE
p69
g62
NtRp70
(dp71
g65
(dp72
S'level'
p73
I5
ssS'parent'
p74
Nsg67
(lp75
g60
(cgluon.html
TR
p76
g62
NtRp77
(dp78
g65
(dp79
sg74
g70
sg67
(lp80
g60
(cgluon.html
TD
p81
g62
NtRp82
(dp83
g65
(dp84
S'_style'
p85
S'font-weight:bold;vertical-align:top'
p86
ssg74
g77
sg67
(lp87
S'ajax'
p88
asbag60
(g81
g62
NtRp89
(dp90
g65
(dp91
S'_valign'
p92
S'top'
p93
ssg74
g77
sg67
(lp94
S':'
asbag60
(g81
g62
NtRp95
(dp96
g65
(dp97
sg74
g77
sg67
(lp98
g60
(g61
g62
NtRp99
(dp100
g65
(dp101
g73
I5
ssg74
g95
sg67
(lp102
S'False'
p103
asbasbasbag60
(g76
g62
NtRp104
(dp105
g65
(dp106
sg74
g70
sg67
(lp107
g60
(g81
g62
NtRp108
(dp109
g65
(dp110
g85
g86
ssg74
g104
sg67
(lp111
S'application'
p112
asbag60
(g81
g62
NtRp113
(dp114
g65
(dp115
g92
g93
ssg74
g104
sg67
(lp116
S':'
asbag60
(g81
g62
NtRp117
(dp118
g65
(dp119
sg74
g104
sg67
(lp120
g60
(g61
g62
NtRp121
(dp122
g65
(dp123
g73
I5
ssg74
g117
sg67
(lp124
S'udi0312'
p125
asbasbasbag60
(g76
g62
NtRp126
(dp127
g65
(dp128
sg74
g70
sg67
(lp129
g60
(g81
g62
NtRp130
(dp131
g65
(dp132
g85
g86
ssg74
g126
sg67
(lp133
g47
asbag60
(g81
g62
NtRp134
(dp135
g65
(dp136
g92
g93
ssg74
g126
sg67
(lp137
S':'
asbag60
(g81
g62
NtRp138
(dp139
g65
(dp140
sg74
g126
sg67
(lp141
g60
(g61
g62
NtRp142
(dp143
g65
(dp144
g73
I5
ssg74
g138
sg67
(lp145
g60
(g69
g62
NtRp146
(dp147
g65
(dp148
g73
I4
ssg74
Nsg67
(lp149
g60
(g76
g62
NtRp150
(dp151
g65
(dp152
sg74
g146
sg67
(lp153
g60
(g81
g62
NtRp154
(dp155
g65
(dp156
sg74
g150
sg67
(lp157
g60
(g61
g62
NtRp158
(dp159
g65
(dp160
g73
I4
ssg74
g154
sg67
(lp161
S'150'
p162
asbasbasbasbasbasbasbag60
(g76
g62
NtRp163
(dp164
g65
(dp165
sg74
g70
sg67
(lp166
g60
(g81
g62
NtRp167
(dp168
g65
(dp169
g85
g86
ssg74
g163
sg67
(lp170
S'body'
p171
asbag60
(g81
g62
NtRp172
(dp173
g65
(dp174
g92
g93
ssg74
g163
sg67
(lp175
S':'
asbag60
(g81
g62
NtRp176
(dp177
g65
(dp178
sg74
g163
sg67
(lp179
g60
(g61
g62
NtRp180
(dp181
g65
(dp182
g73
I5
ssg74
g176
sg67
(lp183
S'<cStringIO.StringO object at 0x9f0fa40>'
p184
asbasbasbag60
(g76
g62
NtRp185
(dp186
g65
(dp187
sg74
g70
sg67
(lp188
g60
(g81
g62
NtRp189
(dp190
g65
(dp191
g85
g86
ssg74
g185
sg67
(lp192
S'client'
p193
asbag60
(g81
g62
NtRp194
(dp195
g65
(dp196
g92
g93
ssg74
g185
sg67
(lp197
S':'
asbag60
(g81
g62
NtRp198
(dp199
g65
(dp200
sg74
g185
sg67
(lp201
g60
(g61
g62
NtRp202
(dp203
g65
(dp204
g73
I5
ssg74
g198
sg67
(lp205
S'127.0.0.1'
p206
asbasbasbag60
(g76
g62
NtRp207
(dp208
g65
(dp209
sg74
g70
sg67
(lp210
g60
(g81
g62
NtRp211
(dp212
g65
(dp213
g85
g86
ssg74
g207
sg67
(lp214
S'controller'
p215
asbag60
(g81
g62
NtRp216
(dp217
g65
(dp218
g92
g93
ssg74
g207
sg67
(lp219
S':'
asbag60
(g81
g62
NtRp220
(dp221
g65
(dp222
sg74
g207
sg67
(lp223
g60
(g61
g62
NtRp224
(dp225
g65
(dp226
g73
I5
ssg74
g220
sg67
(lp227
S'default'
p228
asbasbasbag60
(g76
g62
NtRp229
(dp230
g65
(dp231
sg74
g70
sg67
(lp232
g60
(g81
g62
NtRp233
(dp234
g65
(dp235
g85
g86
ssg74
g229
sg67
(lp236
S'cookies'
p237
asbag60
(g81
g62
NtRp238
(dp239
g65
(dp240
g92
g93
ssg74
g229
sg67
(lp241
S':'
asbag60
(g81
g62
NtRp242
(dp243
g65
(dp244
sg74
g229
sg67
(lp245
g60
(g61
g62
NtRp246
(dp247
g65
(dp248
g73
I5
ssg74
g242
sg67
(lp249
g60
(g69
g62
NtRp250
(dp251
g65
(dp252
g73
I4
ssg74
Nsg67
(lp253
g60
(g76
g62
NtRp254
(dp255
g65
(dp256
sg74
g250
sg67
(lp257
g60
(g81
g62
NtRp258
(dp259
g65
(dp260
g85
g86
ssg74
g254
sg67
(lp261
S'session_id_admin'
p262
asbag60
(g81
g62
NtRp263
(dp264
g65
(dp265
g92
g93
ssg74
g254
sg67
(lp266
S':'
asbag60
(g81
g62
NtRp267
(dp268
g65
(dp269
sg74
g254
sg67
(lp270
g60
(g61
g62
NtRp271
(dp272
g65
(dp273
g73
I4
ssg74
g267
sg67
(lp274
g60
(g69
g62
NtRp275
(dp276
g65
(dp277
g73
I3
ssg74
Nsg67
(lp278
g60
(g76
g62
NtRp279
(dp280
g65
(dp281
sg74
g275
sg67
(lp282
g60
(g81
g62
NtRp283
(dp284
g65
(dp285
g85
g86
ssg74
g279
sg67
(lp286
S'comment'
p287
asbag60
(g81
g62
NtRp288
(dp289
g65
(dp290
g92
g93
ssg74
g279
sg67
(lp291
S':'
asbag60
(g81
g62
NtRp292
(dp293
g65
(dp294
sg74
g279
sg67
(lp295
g60
(g61
g62
NtRp296
(dp297
g65
(dp298
g73
I3
ssg74
g292
sg67
(lp299
S''
asbasbasbag60
(g76
g62
NtRp300
(dp301
g65
(dp302
sg74
g275
sg67
(lp303
g60
(g81
g62
NtRp304
(dp305
g65
(dp306
g85
g86
ssg74
g300
sg67
(lp307
S'domain'
p308
asbag60
(g81
g62
NtRp309
(dp310
g65
(dp311
g92
g93
ssg74
g300
sg67
(lp312
S':'
asbag60
(g81
g62
NtRp313
(dp314
g65
(dp315
sg74
g300
sg67
(lp316
g60
(g61
g62
NtRp317
(dp318
g65
(dp319
g73
I3
ssg74
g313
sg67
(lp320
S''
asbasbasbag60
(g76
g62
NtRp321
(dp322
g65
(dp323
sg74
g275
sg67
(lp324
g60
(g81
g62
NtRp325
(dp326
g65
(dp327
g85
g86
ssg74
g321
sg67
(lp328
S'expires'
p329
asbag60
(g81
g62
NtRp330
(dp331
g65
(dp332
g92
g93
ssg74
g321
sg67
(lp333
S':'
asbag60
(g81
g62
NtRp334
(dp335
g65
(dp336
sg74
g321
sg67
(lp337
g60
(g61
g62
NtRp338
(dp339
g65
(dp340
g73
I3
ssg74
g334
sg67
(lp341
S''
asbasbasbag60
(g76
g62
NtRp342
(dp343
g65
(dp344
sg74
g275
sg67
(lp345
g60
(g81
g62
NtRp346
(dp347
g65
(dp348
g85
g86
ssg74
g342
sg67
(lp349
S'max-age'
p350
asbag60
(g81
g62
NtRp351
(dp352
g65
(dp353
g92
g93
ssg74
g342
sg67
(lp354
S':'
asbag60
(g81
g62
NtRp355
(dp356
g65
(dp357
sg74
g342
sg67
(lp358
g60
(g61
g62
NtRp359
(dp360
g65
(dp361
g73
I3
ssg74
g355
sg67
(lp362
S''
asbasbasbag60
(g76
g62
NtRp363
(dp364
g65
(dp365
sg74
g275
sg67
(lp366
g60
(g81
g62
NtRp367
(dp368
g65
(dp369
g85
g86
ssg74
g363
sg67
(lp370
S'path'
p371
asbag60
(g81
g62
NtRp372
(dp373
g65
(dp374
g92
g93
ssg74
g363
sg67
(lp375
S':'
asbag60
(g81
g62
NtRp376
(dp377
g65
(dp378
sg74
g363
sg67
(lp379
g60
(g61
g62
NtRp380
(dp381
g65
(dp382
g73
I3
ssg74
g376
sg67
(lp383
S''
asbasbasbag60
(g76
g62
NtRp384
(dp385
g65
(dp386
sg74
g275
sg67
(lp387
g60
(g81
g62
NtRp388
(dp389
g65
(dp390
g85
g86
ssg74
g384
sg67
(lp391
S'secure'
p392
asbag60
(g81
g62
NtRp393
(dp394
g65
(dp395
g92
g93
ssg74
g384
sg67
(lp396
S':'
asbag60
(g81
g62
NtRp397
(dp398
g65
(dp399
sg74
g384
sg67
(lp400
g60
(g61
g62
NtRp401
(dp402
g65
(dp403
g73
I3
ssg74
g397
sg67
(lp404
S''
asbasbasbag60
(g76
g62
NtRp405
(dp406
g65
(dp407
sg74
g275
sg67
(lp408
g60
(g81
g62
NtRp409
(dp410
g65
(dp411
g85
g86
ssg74
g405
sg67
(lp412
S'version'
p413
asbag60
(g81
g62
NtRp414
(dp415
g65
(dp416
g92
g93
ssg74
g405
sg67
(lp417
S':'
asbag60
(g81
g62
NtRp418
(dp419
g65
(dp420
sg74
g405
sg67
(lp421
g60
(g61
g62
NtRp422
(dp423
g65
(dp424
g73
I3
ssg74
g418
sg67
(lp425
S''
asbasbasbasbasbasbasbag60
(g76
g62
NtRp426
(dp427
g65
(dp428
sg74
g250
sg67
(lp429
g60
(g81
g62
NtRp430
(dp431
g65
(dp432
g85
g86
ssg74
g426
sg67
(lp433
S'session_id_udi0312'
p434
asbag60
(g81
g62
NtRp435
(dp436
g65
(dp437
g92
g93
ssg74
g426
sg67
(lp438
S':'
asbag60
(g81
g62
NtRp439
(dp440
g65
(dp441
sg74
g426
sg67
(lp442
g60
(g61
g62
NtRp443
(dp444
g65
(dp445
g73
I4
ssg74
g439
sg67
(lp446
g60
(g69
g62
NtRp447
(dp448
g65
(dp449
g73
I3
ssg74
Nsg67
(lp450
g60
(g76
g62
NtRp451
(dp452
g65
(dp453
sg74
g447
sg67
(lp454
g60
(g81
g62
NtRp455
(dp456
g65
(dp457
g85
g86
ssg74
g451
sg67
(lp458
g287
asbag60
(g81
g62
NtRp459
(dp460
g65
(dp461
g92
g93
ssg74
g451
sg67
(lp462
S':'
asbag60
(g81
g62
NtRp463
(dp464
g65
(dp465
sg74
g451
sg67
(lp466
g60
(g61
g62
NtRp467
(dp468
g65
(dp469
g73
I3
ssg74
g463
sg67
(lp470
S''
asbasbasbag60
(g76
g62
NtRp471
(dp472
g65
(dp473
sg74
g447
sg67
(lp474
g60
(g81
g62
NtRp475
(dp476
g65
(dp477
g85
g86
ssg74
g471
sg67
(lp478
g308
asbag60
(g81
g62
NtRp479
(dp480
g65
(dp481
g92
g93
ssg74
g471
sg67
(lp482
S':'
asbag60
(g81
g62
NtRp483
(dp484
g65
(dp485
sg74
g471
sg67
(lp486
g60
(g61
g62
NtRp487
(dp488
g65
(dp489
g73
I3
ssg74
g483
sg67
(lp490
S''
asbasbasbag60
(g76
g62
NtRp491
(dp492
g65
(dp493
sg74
g447
sg67
(lp494
g60
(g81
g62
NtRp495
(dp496
g65
(dp497
g85
g86
ssg74
g491
sg67
(lp498
g329
asbag60
(g81
g62
NtRp499
(dp500
g65
(dp501
g92
g93
ssg74
g491
sg67
(lp502
S':'
asbag60
(g81
g62
NtRp503
(dp504
g65
(dp505
sg74
g491
sg67
(lp506
g60
(g61
g62
NtRp507
(dp508
g65
(dp509
g73
I3
ssg74
g503
sg67
(lp510
S''
asbasbasbag60
(g76
g62
NtRp511
(dp512
g65
(dp513
sg74
g447
sg67
(lp514
g60
(g81
g62
NtRp515
(dp516
g65
(dp517
g85
g86
ssg74
g511
sg67
(lp518
g350
asbag60
(g81
g62
NtRp519
(dp520
g65
(dp521
g92
g93
ssg74
g511
sg67
(lp522
S':'
asbag60
(g81
g62
NtRp523
(dp524
g65
(dp525
sg74
g511
sg67
(lp526
g60
(g61
g62
NtRp527
(dp528
g65
(dp529
g73
I3
ssg74
g523
sg67
(lp530
S''
asbasbasbag60
(g76
g62
NtRp531
(dp532
g65
(dp533
sg74
g447
sg67
(lp534
g60
(g81
g62
NtRp535
(dp536
g65
(dp537
g85
g86
ssg74
g531
sg67
(lp538
g371
asbag60
(g81
g62
NtRp539
(dp540
g65
(dp541
g92
g93
ssg74
g531
sg67
(lp542
S':'
asbag60
(g81
g62
NtRp543
(dp544
g65
(dp545
sg74
g531
sg67
(lp546
g60
(g61
g62
NtRp547
(dp548
g65
(dp549
g73
I3
ssg74
g543
sg67
(lp550
S''
asbasbasbag60
(g76
g62
NtRp551
(dp552
g65
(dp553
sg74
g447
sg67
(lp554
g60
(g81
g62
NtRp555
(dp556
g65
(dp557
g85
g86
ssg74
g551
sg67
(lp558
g392
asbag60
(g81
g62
NtRp559
(dp560
g65
(dp561
g92
g93
ssg74
g551
sg67
(lp562
S':'
asbag60
(g81
g62
NtRp563
(dp564
g65
(dp565
sg74
g551
sg67
(lp566
g60
(g61
g62
NtRp567
(dp568
g65
(dp569
g73
I3
ssg74
g563
sg67
(lp570
S''
asbasbasbag60
(g76
g62
NtRp571
(dp572
g65
(dp573
sg74
g447
sg67
(lp574
g60
(g81
g62
NtRp575
(dp576
g65
(dp577
g85
g86
ssg74
g571
sg67
(lp578
g413
asbag60
(g81
g62
NtRp579
(dp580
g65
(dp581
g92
g93
ssg74
g571
sg67
(lp582
S':'
asbag60
(g81
g62
NtRp583
(dp584
g65
(dp585
sg74
g571
sg67
(lp586
g60
(g61
g62
NtRp587
(dp588
g65
(dp589
g73
I3
ssg74
g583
sg67
(lp590
S''
asbasbasbasbasbasbasbasbasbasbasbag60
(g76
g62
NtRp591
(dp592
g65
(dp593
sg74
g70
sg67
(lp594
g60
(g81
g62
NtRp595
(dp596
g65
(dp597
g85
g86
ssg74
g591
sg67
(lp598
S'env'
p599
asbag60
(g81
g62
NtRp600
(dp601
g65
(dp602
g92
g93
ssg74
g591
sg67
(lp603
S':'
asbag60
(g81
g62
NtRp604
(dp605
g65
(dp606
sg74
g591
sg67
(lp607
g60
(g61
g62
NtRp608
(dp609
g65
(dp610
g73
I5
ssg74
g604
sg67
(lp611
g60
(g69
g62
NtRp612
(dp613
g65
(dp614
g73
I4
ssg74
Nsg67
(lp615
g60
(g76
g62
NtRp616
(dp617
g65
(dp618
sg74
g612
sg67
(lp619
g60
(g81
g62
NtRp620
(dp621
g65
(dp622
g85
g86
ssg74
g616
sg67
(lp623
S'app_folders'
p624
asbag60
(g81
g62
NtRp625
(dp626
g65
(dp627
g92
g93
ssg74
g616
sg67
(lp628
S':'
asbag60
(g81
g62
NtRp629
(dp630
g65
(dp631
sg74
g616
sg67
(lp632
g60
(g61
g62
NtRp633
(dp634
g65
(dp635
g73
I4
ssg74
g629
sg67
(lp636
S"set(['/Users/udimilo/Documents/web2py/applications/udi0312/', '/Users/udimilo/Documents/web2py/applications/admin/'])"
p637
asbasbasbag60
(g76
g62
NtRp638
(dp639
g65
(dp640
sg74
g612
sg67
(lp641
g60
(g81
g62
NtRp642
(dp643
g65
(dp644
g85
g86
ssg74
g638
sg67
(lp645
S'applications_parent'
p646
asbag60
(g81
g62
NtRp647
(dp648
g65
(dp649
g92
g93
ssg74
g638
sg67
(lp650
S':'
asbag60
(g81
g62
NtRp651
(dp652
g65
(dp653
sg74
g638
sg67
(lp654
g60
(g61
g62
NtRp655
(dp656
g65
(dp657
g73
I4
ssg74
g651
sg67
(lp658
S'/Users/udimilo/Documents/web2py'
p659
asbasbasbag60
(g76
g62
NtRp660
(dp661
g65
(dp662
sg74
g612
sg67
(lp663
g60
(g81
g62
NtRp664
(dp665
g65
(dp666
g85
g86
ssg74
g660
sg67
(lp667
S'cmd_args'
p668
asbag60
(g81
g62
NtRp669
(dp670
g65
(dp671
g92
g93
ssg74
g660
sg67
(lp672
S':'
asbag60
(g81
g62
NtRp673
(dp674
g65
(dp675
sg74
g660
sg67
(lp676
g60
(g61
g62
NtRp677
(dp678
g65
(dp679
g73
I4
ssg74
g673
sg67
(lp680
g60
(g69
g62
NtRp681
(dp682
g65
(dp683
g73
I3
ssg74
Nsg67
(lp684
sbasbasbasbag60
(g76
g62
NtRp685
(dp686
g65
(dp687
sg74
g612
sg67
(lp688
g60
(g81
g62
NtRp689
(dp690
g65
(dp691
g85
g86
ssg74
g685
sg67
(lp692
S'cmd_options'
p693
asbag60
(g81
g62
NtRp694
(dp695
g65
(dp696
g92
g93
ssg74
g685
sg67
(lp697
S':'
asbag60
(g81
g62
NtRp698
(dp699
g65
(dp700
sg74
g685
sg67
(lp701
g60
(g61
g62
NtRp702
(dp703
g65
(dp704
g73
I4
ssg74
g698
sg67
(lp705
S"<Values at 0x22190a8: {'verbose': False, 'ip': '127.0.0.1', 'shutdown_timeout': 5, 'taskbar': False, 'nocron': False, 'pid_filename': 'httpserver.pid', 'maxthreads': None, 'softcron': False, 'server_name': 'Udi-Milos-MacBook-Pro.local', 'bpython': False, 'nogui': False, 'port': 8000, 'extcron': False, 'debuglevel': 30, 'test': None, 'folder': '/Users/udimilo/Documents/web2py', 'config': '', 'import_models': False, 'winservice': '', 'shell': None, 'run': '', 'log_filename': 'httpserver.log', 'args': [''], 'socket_timeout': 5, 'ssl_ca_certificate': None, 'scheduler': None, 'profiler_filename': None, 'ssl_private_key': '', 'password': '<ask>', 'request_queue_size': 5, 'ssl_certificate': '', 'cronjob': False, 'numthreads': None, 'quiet': False, 'interfaces': None, 'minthreads': None, 'timeout': 10, 'plain': False, 'nobanner': False}>"
p706
asbasbasbag60
(g76
g62
NtRp707
(dp708
g65
(dp709
sg74
g612
sg67
(lp710
g60
(g81
g62
NtRp711
(dp712
g65
(dp713
g85
g86
ssg74
g707
sg67
(lp714
S'db_sessions'
p715
asbag60
(g81
g62
NtRp716
(dp717
g65
(dp718
g92
g93
ssg74
g707
sg67
(lp719
S':'
asbag60
(g81
g62
NtRp720
(dp721
g65
(dp722
sg74
g707
sg67
(lp723
g60
(g61
g62
NtRp724
(dp725
g65
(dp726
g73
I4
ssg74
g720
sg67
(lp727
S'set([])'
p728
asbasbasbag60
(g76
g62
NtRp729
(dp730
g65
(dp731
sg74
g612
sg67
(lp732
g60
(g81
g62
NtRp733
(dp734
g65
(dp735
g85
g86
ssg74
g729
sg67
(lp736
S'debugging'
p737
asbag60
(g81
g62
NtRp738
(dp739
g65
(dp740
g92
g93
ssg74
g729
sg67
(lp741
S':'
asbag60
(g81
g62
NtRp742
(dp743
g65
(dp744
sg74
g729
sg67
(lp745
g60
(g61
g62
NtRp746
(dp747
g65
(dp748
g73
I4
ssg74
g742
sg67
(lp749
g103
asbasbasbag60
(g76
g62
NtRp750
(dp751
g65
(dp752
sg74
g612
sg67
(lp753
g60
(g81
g62
NtRp754
(dp755
g65
(dp756
g85
g86
ssg74
g750
sg67
(lp757
S'gluon_parent'
p758
asbag60
(g81
g62
NtRp759
(dp760
g65
(dp761
g92
g93
ssg74
g750
sg67
(lp762
S':'
asbag60
(g81
g62
NtRp763
(dp764
g65
(dp765
sg74
g750
sg67
(lp766
g60
(g61
g62
NtRp767
(dp768
g65
(dp769
g73
I4
ssg74
g763
sg67
(lp770
S'/Users/udimilo/Documents/web2py'
p771
asbasbasbag60
(g76
g62
NtRp772
(dp773
g65
(dp774
sg74
g612
sg67
(lp775
g60
(g81
g62
NtRp776
(dp777
g65
(dp778
g85
g86
ssg74
g772
sg67
(lp779
S'http_accept'
p780
asbag60
(g81
g62
NtRp781
(dp782
g65
(dp783
g92
g93
ssg74
g772
sg67
(lp784
S':'
asbag60
(g81
g62
NtRp785
(dp786
g65
(dp787
sg74
g772
sg67
(lp788
g60
(g61
g62
NtRp789
(dp790
g65
(dp791
g73
I4
ssg74
g785
sg67
(lp792
S'text/html,application/xhtml+xml,application/xml;q=0.9,*/*;q=0.8'
p793
asbasbasbag60
(g76
g62
NtRp794
(dp795
g65
(dp796
sg74
g612
sg67
(lp797
g60
(g81
g62
NtRp798
(dp799
g65
(dp800
g85
g86
ssg74
g794
sg67
(lp801
S'http_accept_charset'
p802
asbag60
(g81
g62
NtRp803
(dp804
g65
(dp805
g92
g93
ssg74
g794
sg67
(lp806
S':'
asbag60
(g81
g62
NtRp807
(dp808
g65
(dp809
sg74
g794
sg67
(lp810
g60
(g61
g62
NtRp811
(dp812
g65
(dp813
g73
I4
ssg74
g807
sg67
(lp814
S'ISO-8859-1,utf-8;q=0.7,*;q=0.3'
p815
asbasbasbag60
(g76
g62
NtRp816
(dp817
g65
(dp818
sg74
g612
sg67
(lp819
g60
(g81
g62
NtRp820
(dp821
g65
(dp822
g85
g86
ssg74
g816
sg67
(lp823
S'http_accept_encoding'
p824
asbag60
(g81
g62
NtRp825
(dp826
g65
(dp827
g92
g93
ssg74
g816
sg67
(lp828
S':'
asbag60
(g81
g62
NtRp829
(dp830
g65
(dp831
sg74
g816
sg67
(lp832
g60
(g61
g62
NtRp833
(dp834
g65
(dp835
g73
I4
ssg74
g829
sg67
(lp836
S'gzip,deflate,sdch'
p837
asbasbasbag60
(g76
g62
NtRp838
(dp839
g65
(dp840
sg74
g612
sg67
(lp841
g60
(g81
g62
NtRp842
(dp843
g65
(dp844
g85
g86
ssg74
g838
sg67
(lp845
S'http_accept_language'
p846
asbag60
(g81
g62
NtRp847
(dp848
g65
(dp849
g92
g93
ssg74
g838
sg67
(lp850
S':'
asbag60
(g81
g62
NtRp851
(dp852
g65
(dp853
sg74
g838
sg67
(lp854
g60
(g61
g62
NtRp855
(dp856
g65
(dp857
g73
I4
ssg74
g851
sg67
(lp858
S'en-US,en;q=0.8'
p859
asbasbasbag60
(g76
g62
NtRp860
(dp861
g65
(dp862
sg74
g612
sg67
(lp863
g60
(g81
g62
NtRp864
(dp865
g65
(dp866
g85
g86
ssg74
g860
sg67
(lp867
S'http_connection'
p868
asbag60
(g81
g62
NtRp869
(dp870
g65
(dp871
g92
g93
ssg74
g860
sg67
(lp872
S':'
asbag60
(g81
g62
NtRp873
(dp874
g65
(dp875
sg74
g860
sg67
(lp876
g60
(g61
g62
NtRp877
(dp878
g65
(dp879
g73
I4
ssg74
g873
sg67
(lp880
S'keep-alive'
p881
asbasbasbag60
(g76
g62
NtRp882
(dp883
g65
(dp884
sg74
g612
sg67
(lp885
g60
(g81
g62
NtRp886
(dp887
g65
(dp888
g85
g86
ssg74
g882
sg67
(lp889
S'http_cookie'
p890
asbag60
(g81
g62
NtRp891
(dp892
g65
(dp893
g92
g93
ssg74
g882
sg67
(lp894
S':'
asbag60
(g81
g62
NtRp895
(dp896
g65
(dp897
sg74
g882
sg67
(lp898
g60
(g61
g62
NtRp899
(dp900
g65
(dp901
g73
I4
ssg74
g895
sg67
(lp902
S'session_id_udi0312=127.0.0.1-0c931b0e-a0cb-46a7-8daa-2609a27949d9; session_id_admin=127.0.0.1-389cdb5e-fd26-4b8a-8e4e-2c911b601814'
p903
asbasbasbag60
(g76
g62
NtRp904
(dp905
g65
(dp906
sg74
g612
sg67
(lp907
g60
(g81
g62
NtRp908
(dp909
g65
(dp910
g85
g86
ssg74
g904
sg67
(lp911
S'http_host'
p912
asbag60
(g81
g62
NtRp913
(dp914
g65
(dp915
g92
g93
ssg74
g904
sg67
(lp916
S':'
asbag60
(g81
g62
NtRp917
(dp918
g65
(dp919
sg74
g904
sg67
(lp920
g60
(g61
g62
NtRp921
(dp922
g65
(dp923
g73
I4
ssg74
g917
sg67
(lp924
S'127.0.0.1:8000'
p925
asbasbasbag60
(g76
g62
NtRp926
(dp927
g65
(dp928
sg74
g612
sg67
(lp929
g60
(g81
g62
NtRp930
(dp931
g65
(dp932
g85
g86
ssg74
g926
sg67
(lp933
S'http_user_agent'
p934
asbag60
(g81
g62
NtRp935
(dp936
g65
(dp937
g92
g93
ssg74
g926
sg67
(lp938
S':'
asbag60
(g81
g62
NtRp939
(dp940
g65
(dp941
sg74
g926
sg67
(lp942
g60
(g61
g62
NtRp943
(dp944
g65
(dp945
g73
I4
ssg74
g939
sg67
(lp946
S'Mozilla/5.0 (Macintosh; Intel Mac OS X 10_7_3) AppleWebKit/535.11 (KHTML, like Gecko) Chrome/17.0.963.83 Safari/535.11'
p947
asbasbasbag60
(g76
g62
NtRp948
(dp949
g65
(dp950
sg74
g612
sg67
(lp951
g60
(g81
g62
NtRp952
(dp953
g65
(dp954
g85
g86
ssg74
g948
sg67
(lp955
S'is_jython'
p956
asbag60
(g81
g62
NtRp957
(dp958
g65
(dp959
g92
g93
ssg74
g948
sg67
(lp960
S':'
asbag60
(g81
g62
NtRp961
(dp962
g65
(dp963
sg74
g948
sg67
(lp964
g60
(g61
g62
NtRp965
(dp966
g65
(dp967
g73
I4
ssg74
g961
sg67
(lp968
g103
asbasbasbag60
(g76
g62
NtRp969
(dp970
g65
(dp971
sg74
g612
sg67
(lp972
g60
(g81
g62
NtRp973
(dp974
g65
(dp975
g85
g86
ssg74
g969
sg67
(lp976
S'is_pypy'
p977
asbag60
(g81
g62
NtRp978
(dp979
g65
(dp980
g92
g93
ssg74
g969
sg67
(lp981
S':'
asbag60
(g81
g62
NtRp982
(dp983
g65
(dp984
sg74
g969
sg67
(lp985
g60
(g61
g62
NtRp986
(dp987
g65
(dp988
g73
I4
ssg74
g982
sg67
(lp989
g103
asbasbasbag60
(g76
g62
NtRp990
(dp991
g65
(dp992
sg74
g612
sg67
(lp993
g60
(g81
g62
NtRp994
(dp995
g65
(dp996
g85
g86
ssg74
g990
sg67
(lp997
S'path_info'
p998
asbag60
(g81
g62
NtRp999
(dp1000
g65
(dp1001
g92
g93
ssg74
g990
sg67
(lp1002
S':'
asbag60
(g81
g62
NtRp1003
(dp1004
g65
(dp1005
sg74
g990
sg67
(lp1006
g60
(g61
g62
NtRp1007
(dp1008
g65
(dp1009
g73
I4
ssg74
g1003
sg67
(lp1010
S'/articles/150'
p1011
asbasbasbag60
(g76
g62
NtRp1012
(dp1013
g65
(dp1014
sg74
g612
sg67
(lp1015
g60
(g81
g62
NtRp1016
(dp1017
g65
(dp1018
g85
g86
ssg74
g1012
sg67
(lp1019
S'query_string'
p1020
asbag60
(g81
g62
NtRp1021
(dp1022
g65
(dp1023
g92
g93
ssg74
g1012
sg67
(lp1024
S':'
asbag60
(g81
g62
NtRp1025
(dp1026
g65
(dp1027
sg74
g1012
sg67
(lp1028
g60
(g61
g62
NtRp1029
(dp1030
g65
(dp1031
g73
I4
ssg74
g1025
sg67
(lp1032
S'ajax=true'
p1033
asbasbasbag60
(g76
g62
NtRp1034
(dp1035
g65
(dp1036
sg74
g612
sg67
(lp1037
g60
(g81
g62
NtRp1038
(dp1039
g65
(dp1040
g85
g86
ssg74
g1034
sg67
(lp1041
S'remote_addr'
p1042
asbag60
(g81
g62
NtRp1043
(dp1044
g65
(dp1045
g92
g93
ssg74
g1034
sg67
(lp1046
S':'
asbag60
(g81
g62
NtRp1047
(dp1048
g65
(dp1049
sg74
g1034
sg67
(lp1050
g60
(g61
g62
NtRp1051
(dp1052
g65
(dp1053
g73
I4
ssg74
g1047
sg67
(lp1054
g206
asbasbasbag60
(g76
g62
NtRp1055
(dp1056
g65
(dp1057
sg74
g612
sg67
(lp1058
g60
(g81
g62
NtRp1059
(dp1060
g65
(dp1061
g85
g86
ssg74
g1055
sg67
(lp1062
S'remote_port'
p1063
asbag60
(g81
g62
NtRp1064
(dp1065
g65
(dp1066
g92
g93
ssg74
g1055
sg67
(lp1067
S':'
asbag60
(g81
g62
NtRp1068
(dp1069
g65
(dp1070
sg74
g1055
sg67
(lp1071
g60
(g61
g62
NtRp1072
(dp1073
g65
(dp1074
g73
I4
ssg74
g1068
sg67
(lp1075
S'63352'
p1076
asbasbasbag60
(g76
g62
NtRp1077
(dp1078
g65
(dp1079
sg74
g612
sg67
(lp1080
g60
(g81
g62
NtRp1081
(dp1082
g65
(dp1083
g85
g86
ssg74
g1077
sg67
(lp1084
S'request_method'
p1085
asbag60
(g81
g62
NtRp1086
(dp1087
g65
(dp1088
g92
g93
ssg74
g1077
sg67
(lp1089
S':'
asbag60
(g81
g62
NtRp1090
(dp1091
g65
(dp1092
sg74
g1077
sg67
(lp1093
g60
(g61
g62
NtRp1094
(dp1095
g65
(dp1096
g73
I4
ssg74
g1090
sg67
(lp1097
S'GET'
p1098
asbasbasbag60
(g76
g62
NtRp1099
(dp1100
g65
(dp1101
sg74
g612
sg67
(lp1102
g60
(g81
g62
NtRp1103
(dp1104
g65
(dp1105
g85
g86
ssg74
g1099
sg67
(lp1106
S'request_uri'
p1107
asbag60
(g81
g62
NtRp1108
(dp1109
g65
(dp1110
g92
g93
ssg74
g1099
sg67
(lp1111
S':'
asbag60
(g81
g62
NtRp1112
(dp1113
g65
(dp1114
sg74
g1099
sg67
(lp1115
g60
(g61
g62
NtRp1116
(dp1117
g65
(dp1118
g73
I4
ssg74
g1112
sg67
(lp1119
S'/udi0312/default/articles/150?ajax=true'
p1120
asbasbasbag60
(g76
g62
NtRp1121
(dp1122
g65
(dp1123
sg74
g612
sg67
(lp1124
g60
(g81
g62
NtRp1125
(dp1126
g65
(dp1127
g85
g86
ssg74
g1121
sg67
(lp1128
S'script_name'
p1129
asbag60
(g81
g62
NtRp1130
(dp1131
g65
(dp1132
g92
g93
ssg74
g1121
sg67
(lp1133
S':'
asbag60
(g81
g62
NtRp1134
(dp1135
g65
(dp1136
sg74
g1121
sg67
(lp1137
g60
(g61
g62
NtRp1138
(dp1139
g65
(dp1140
g73
I4
ssg74
g1134
sg67
(lp1141
S''
asbasbasbag60
(g76
g62
NtRp1142
(dp1143
g65
(dp1144
sg74
g612
sg67
(lp1145
g60
(g81
g62
NtRp1146
(dp1147
g65
(dp1148
g85
g86
ssg74
g1142
sg67
(lp1149
S'server_name'
p1150
asbag60
(g81
g62
NtRp1151
(dp1152
g65
(dp1153
g92
g93
ssg74
g1142
sg67
(lp1154
S':'
asbag60
(g81
g62
NtRp1155
(dp1156
g65
(dp1157
sg74
g1142
sg67
(lp1158
g60
(g61
g62
NtRp1159
(dp1160
g65
(dp1161
g73
I4
ssg74
g1155
sg67
(lp1162
S'Udi-Milos-MacBook-Pro.local'
p1163
asbasbasbag60
(g76
g62
NtRp1164
(dp1165
g65
(dp1166
sg74
g612
sg67
(lp1167
g60
(g81
g62
NtRp1168
(dp1169
g65
(dp1170
g85
g86
ssg74
g1164
sg67
(lp1171
S'server_port'
p1172
asbag60
(g81
g62
NtRp1173
(dp1174
g65
(dp1175
g92
g93
ssg74
g1164
sg67
(lp1176
S':'
asbag60
(g81
g62
NtRp1177
(dp1178
g65
(dp1179
sg74
g1164
sg67
(lp1180
g60
(g61
g62
NtRp1181
(dp1182
g65
(dp1183
g73
I4
ssg74
g1177
sg67
(lp1184
S'8000'
p1185
asbasbasbag60
(g76
g62
NtRp1186
(dp1187
g65
(dp1188
sg74
g612
sg67
(lp1189
g60
(g81
g62
NtRp1190
(dp1191
g65
(dp1192
g85
g86
ssg74
g1186
sg67
(lp1193
S'server_protocol'
p1194
asbag60
(g81
g62
NtRp1195
(dp1196
g65
(dp1197
g92
g93
ssg74
g1186
sg67
(lp1198
S':'
asbag60
(g81
g62
NtRp1199
(dp1200
g65
(dp1201
sg74
g1186
sg67
(lp1202
g60
(g61
g62
NtRp1203
(dp1204
g65
(dp1205
g73
I4
ssg74
g1199
sg67
(lp1206
S'HTTP/1.1'
p1207
asbasbasbag60
(g76
g62
NtRp1208
(dp1209
g65
(dp1210
sg74
g612
sg67
(lp1211
g60
(g81
g62
NtRp1212
(dp1213
g65
(dp1214
g85
g86
ssg74
g1208
sg67
(lp1215
S'server_software'
p1216
asbag60
(g81
g62
NtRp1217
(dp1218
g65
(dp1219
g92
g93
ssg74
g1208
sg67
(lp1220
S':'
asbag60
(g81
g62
NtRp1221
(dp1222
g65
(dp1223
sg74
g1208
sg67
(lp1224
g60
(g61
g62
NtRp1225
(dp1226
g65
(dp1227
g73
I4
ssg74
g1221
sg67
(lp1228
S'Rocket 1.2.4'
p1229
asbasbasbag60
(g76
g62
NtRp1230
(dp1231
g65
(dp1232
sg74
g612
sg67
(lp1233
g60
(g81
g62
NtRp1234
(dp1235
g65
(dp1236
g85
g86
ssg74
g1230
sg67
(lp1237
S'web2py_crontype'
p1238
asbag60
(g81
g62
NtRp1239
(dp1240
g65
(dp1241
g92
g93
ssg74
g1230
sg67
(lp1242
S':'
asbag60
(g81
g62
NtRp1243
(dp1244
g65
(dp1245
sg74
g1230
sg67
(lp1246
g60
(g61
g62
NtRp1247
(dp1248
g65
(dp1249
g73
I4
ssg74
g1243
sg67
(lp1250
S'hard'
p1251
asbasbasbag60
(g76
g62
NtRp1252
(dp1253
g65
(dp1254
sg74
g612
sg67
(lp1255
g60
(g81
g62
NtRp1256
(dp1257
g65
(dp1258
g85
g86
ssg74
g1252
sg67
(lp1259
S'web2py_original_uri'
p1260
asbag60
(g81
g62
NtRp1261
(dp1262
g65
(dp1263
g92
g93
ssg74
g1252
sg67
(lp1264
S':'
asbag60
(g81
g62
NtRp1265
(dp1266
g65
(dp1267
sg74
g1252
sg67
(lp1268
g60
(g61
g62
NtRp1269
(dp1270
g65
(dp1271
g73
I4
ssg74
g1265
sg67
(lp1272
S'/articles/150?ajax=true'
p1273
asbasbasbag60
(g76
g62
NtRp1274
(dp1275
g65
(dp1276
sg74
g612
sg67
(lp1277
g60
(g81
g62
NtRp1278
(dp1279
g65
(dp1280
g85
g86
ssg74
g1274
sg67
(lp1281
S'web2py_path'
p1282
asbag60
(g81
g62
NtRp1283
(dp1284
g65
(dp1285
g92
g93
ssg74
g1274
sg67
(lp1286
S':'
asbag60
(g81
g62
NtRp1287
(dp1288
g65
(dp1289
sg74
g1274
sg67
(lp1290
g60
(g61
g62
NtRp1291
(dp1292
g65
(dp1293
g73
I4
ssg74
g1287
sg67
(lp1294
g659
asbasbasbag60
(g76
g62
NtRp1295
(dp1296
g65
(dp1297
sg74
g612
sg67
(lp1298
g60
(g81
g62
NtRp1299
(dp1300
g65
(dp1301
g85
g86
ssg74
g1295
sg67
(lp1302
S'web2py_version'
p1303
asbag60
(g81
g62
NtRp1304
(dp1305
g65
(dp1306
g92
g93
ssg74
g1295
sg67
(lp1307
S':'
asbag60
(g81
g62
NtRp1308
(dp1309
g65
(dp1310
sg74
g1295
sg67
(lp1311
g60
(g61
g62
NtRp1312
(dp1313
g65
(dp1314
g73
I4
ssg74
g1308
sg67
(lp1315
g60
(g69
g62
NtRp1316
(dp1317
g65
(dp1318
g73
I3
ssg74
Nsg67
(lp1319
g60
(g76
g62
NtRp1320
(dp1321
g65
(dp1322
sg74
g1316
sg67
(lp1323
g60
(g81
g62
NtRp1324
(dp1325
g65
(dp1326
sg74
g1320
sg67
(lp1327
g60
(g61
g62
NtRp1328
(dp1329
g65
(dp1330
g73
I3
ssg74
g1324
sg67
(lp1331
S'1'
asbasbasbag60
(g76
g62
NtRp1332
(dp1333
g65
(dp1334
sg74
g1316
sg67
(lp1335
g60
(g81
g62
NtRp1336
(dp1337
g65
(dp1338
sg74
g1332
sg67
(lp1339
g60
(g61
g62
NtRp1340
(dp1341
g65
(dp1342
g73
I3
ssg74
g1336
sg67
(lp1343
S'99'
p1344
asbasbasbag60
(g76
g62
NtRp1345
(dp1346
g65
(dp1347
sg74
g1316
sg67
(lp1348
g60
(g81
g62
NtRp1349
(dp1350
g65
(dp1351
sg74
g1345
sg67
(lp1352
g60
(g61
g62
NtRp1353
(dp1354
g65
(dp1355
g73
I3
ssg74
g1349
sg67
(lp1356
S'7'
asbasbasbag60
(g76
g62
NtRp1357
(dp1358
g65
(dp1359
sg74
g1316
sg67
(lp1360
g60
(g81
g62
NtRp1361
(dp1362
g65
(dp1363
sg74
g1357
sg67
(lp1364
g60
(g61
g62
NtRp1365
(dp1366
g65
(dp1367
g73
I3
ssg74
g1361
sg67
(lp1368
S'datetime.datetime(2012, 3, 4, 22, 12, 8)'
p1369
asbasbasbag60
(g76
g62
NtRp1370
(dp1371
g65
(dp1372
sg74
g1316
sg67
(lp1373
g60
(g81
g62
NtRp1374
(dp1375
g65
(dp1376
sg74
g1370
sg67
(lp1377
g60
(g61
g62
NtRp1378
(dp1379
g65
(dp1380
g73
I3
ssg74
g1374
sg67
(lp1381
S'stable'
p1382
asbasbasbasbasbasbasbag60
(g76
g62
NtRp1383
(dp1384
g65
(dp1385
sg74
g612
sg67
(lp1386
g60
(g81
g62
NtRp1387
(dp1388
g65
(dp1389
g85
g86
ssg74
g1383
sg67
(lp1390
S'wsgi_errors'
p1391
asbag60
(g81
g62
NtRp1392
(dp1393
g65
(dp1394
g92
g93
ssg74
g1383
sg67
(lp1395
S':'
asbag60
(g81
g62
NtRp1396
(dp1397
g65
(dp1398
sg74
g1383
sg67
(lp1399
g60
(g61
g62
NtRp1400
(dp1401
g65
(dp1402
g73
I4
ssg74
g1396
sg67
(lp1403
S"<open file '<stderr>', mode 'w' at 0x4220b0>"
p1404
asbasbasbag60
(g76
g62
NtRp1405
(dp1406
g65
(dp1407
sg74
g612
sg67
(lp1408
g60
(g81
g62
NtRp1409
(dp1410
g65
(dp1411
g85
g86
ssg74
g1405
sg67
(lp1412
S'wsgi_file_wrapper'
p1413
asbag60
(g81
g62
NtRp1414
(dp1415
g65
(dp1416
g92
g93
ssg74
g1405
sg67
(lp1417
S':'
asbag60
(g81
g62
NtRp1418
(dp1419
g65
(dp1420
sg74
g1405
sg67
(lp1421
g60
(g61
g62
NtRp1422
(dp1423
g65
(dp1424
g73
I4
ssg74
g1418
sg67
(lp1425
S'<class wsgiref.util.FileWrapper at 0x215e6c0>'
p1426
asbasbasbag60
(g76
g62
NtRp1427
(dp1428
g65
(dp1429
sg74
g612
sg67
(lp1430
g60
(g81
g62
NtRp1431
(dp1432
g65
(dp1433
g85
g86
ssg74
g1427
sg67
(lp1434
S'wsgi_input'
p1435
asbag60
(g81
g62
NtRp1436
(dp1437
g65
(dp1438
g92
g93
ssg74
g1427
sg67
(lp1439
S':'
asbag60
(g81
g62
NtRp1440
(dp1441
g65
(dp1442
sg74
g1427
sg67
(lp1443
g60
(g61
g62
NtRp1444
(dp1445
g65
(dp1446
g73
I4
ssg74
g1440
sg67
(lp1447
S'<socket._fileobject object at 0xaa59ef0>'
p1448
asbasbasbag60
(g76
g62
NtRp1449
(dp1450
g65
(dp1451
sg74
g612
sg67
(lp1452
g60
(g81
g62
NtRp1453
(dp1454
g65
(dp1455
g85
g86
ssg74
g1449
sg67
(lp1456
S'wsgi_multiprocess'
p1457
asbag60
(g81
g62
NtRp1458
(dp1459
g65
(dp1460
g92
g93
ssg74
g1449
sg67
(lp1461
S':'
asbag60
(g81
g62
NtRp1462
(dp1463
g65
(dp1464
sg74
g1449
sg67
(lp1465
g60
(g61
g62
NtRp1466
(dp1467
g65
(dp1468
g73
I4
ssg74
g1462
sg67
(lp1469
g103
asbasbasbag60
(g76
g62
NtRp1470
(dp1471
g65
(dp1472
sg74
g612
sg67
(lp1473
g60
(g81
g62
NtRp1474
(dp1475
g65
(dp1476
g85
g86
ssg74
g1470
sg67
(lp1477
S'wsgi_multithread'
p1478
asbag60
(g81
g62
NtRp1479
(dp1480
g65
(dp1481
g92
g93
ssg74
g1470
sg67
(lp1482
S':'
asbag60
(g81
g62
NtRp1483
(dp1484
g65
(dp1485
sg74
g1470
sg67
(lp1486
g60
(g61
g62
NtRp1487
(dp1488
g65
(dp1489
g73
I4
ssg74
g1483
sg67
(lp1490
S'True'
p1491
asbasbasbag60
(g76
g62
NtRp1492
(dp1493
g65
(dp1494
sg74
g612
sg67
(lp1495
g60
(g81
g62
NtRp1496
(dp1497
g65
(dp1498
g85
g86
ssg74
g1492
sg67
(lp1499
S'wsgi_run_once'
p1500
asbag60
(g81
g62
NtRp1501
(dp1502
g65
(dp1503
g92
g93
ssg74
g1492
sg67
(lp1504
S':'
asbag60
(g81
g62
NtRp1505
(dp1506
g65
(dp1507
sg74
g1492
sg67
(lp1508
g60
(g61
g62
NtRp1509
(dp1510
g65
(dp1511
g73
I4
ssg74
g1505
sg67
(lp1512
g103
asbasbasbag60
(g76
g62
NtRp1513
(dp1514
g65
(dp1515
sg74
g612
sg67
(lp1516
g60
(g81
g62
NtRp1517
(dp1518
g65
(dp1519
g85
g86
ssg74
g1513
sg67
(lp1520
S'wsgi_url_scheme'
p1521
asbag60
(g81
g62
NtRp1522
(dp1523
g65
(dp1524
g92
g93
ssg74
g1513
sg67
(lp1525
S':'
asbag60
(g81
g62
NtRp1526
(dp1527
g65
(dp1528
sg74
g1513
sg67
(lp1529
g60
(g61
g62
NtRp1530
(dp1531
g65
(dp1532
g73
I4
ssg74
g1526
sg67
(lp1533
S'http'
p1534
asbasbasbag60
(g76
g62
NtRp1535
(dp1536
g65
(dp1537
sg74
g612
sg67
(lp1538
g60
(g81
g62
NtRp1539
(dp1540
g65
(dp1541
g85
g86
ssg74
g1535
sg67
(lp1542
S'wsgi_version'
p1543
asbag60
(g81
g62
NtRp1544
(dp1545
g65
(dp1546
g92
g93
ssg74
g1535
sg67
(lp1547
S':'
asbag60
(g81
g62
NtRp1548
(dp1549
g65
(dp1550
sg74
g1535
sg67
(lp1551
g60
(g61
g62
NtRp1552
(dp1553
g65
(dp1554
g73
I4
ssg74
g1548
sg67
(lp1555
g60
(g69
g62
NtRp1556
(dp1557
g65
(dp1558
g73
I3
ssg74
Nsg67
(lp1559
g60
(g76
g62
NtRp1560
(dp1561
g65
(dp1562
sg74
g1556
sg67
(lp1563
g60
(g81
g62
NtRp1564
(dp1565
g65
(dp1566
sg74
g1560
sg67
(lp1567
g60
(g61
g62
NtRp1568
(dp1569
g65
(dp1570
g73
I3
ssg74
g1564
sg67
(lp1571
S'1'
asbasbasbag60
(g76
g62
NtRp1572
(dp1573
g65
(dp1574
sg74
g1556
sg67
(lp1575
g60
(g81
g62
NtRp1576
(dp1577
g65
(dp1578
sg74
g1572
sg67
(lp1579
g60
(g61
g62
NtRp1580
(dp1581
g65
(dp1582
g73
I3
ssg74
g1576
sg67
(lp1583
S'0'
asbasbasbasbasbasbasbasbasbasbasbag60
(g76
g62
NtRp1584
(dp1585
g65
(dp1586
sg74
g70
sg67
(lp1587
g60
(g81
g62
NtRp1588
(dp1589
g65
(dp1590
g85
g86
ssg74
g1584
sg67
(lp1591
S'extension'
p1592
asbag60
(g81
g62
NtRp1593
(dp1594
g65
(dp1595
g92
g93
ssg74
g1584
sg67
(lp1596
S':'
asbag60
(g81
g62
NtRp1597
(dp1598
g65
(dp1599
sg74
g1584
sg67
(lp1600
g60
(g61
g62
NtRp1601
(dp1602
g65
(dp1603
g73
I5
ssg74
g1597
sg67
(lp1604
S'html'
p1605
asbasbasbag60
(g76
g62
NtRp1606
(dp1607
g65
(dp1608
sg74
g70
sg67
(lp1609
g60
(g81
g62
NtRp1610
(dp1611
g65
(dp1612
g85
g86
ssg74
g1606
sg67
(lp1613
S'folder'
p1614
asbag60
(g81
g62
NtRp1615
(dp1616
g65
(dp1617
g92
g93
ssg74
g1606
sg67
(lp1618
S':'
asbag60
(g81
g62
NtRp1619
(dp1620
g65
(dp1621
sg74
g1606
sg67
(lp1622
g60
(g61
g62
NtRp1623
(dp1624
g65
(dp1625
g73
I5
ssg74
g1619
sg67
(lp1626
S'/Users/udimilo/Documents/web2py/applications/udi0312/'
p1627
asbasbasbag60
(g76
g62
NtRp1628
(dp1629
g65
(dp1630
sg74
g70
sg67
(lp1631
g60
(g81
g62
NtRp1632
(dp1633
g65
(dp1634
g85
g86
ssg74
g1628
sg67
(lp1635
S'function'
p1636
asbag60
(g81
g62
NtRp1637
(dp1638
g65
(dp1639
g92
g93
ssg74
g1628
sg67
(lp1640
S':'
asbag60
(g81
g62
NtRp1641
(dp1642
g65
(dp1643
sg74
g1628
sg67
(lp1644
g60
(g61
g62
NtRp1645
(dp1646
g65
(dp1647
g73
I5
ssg74
g1641
sg67
(lp1648
S'articles'
p1649
asbasbasbag60
(g76
g62
NtRp1650
(dp1651
g65
(dp1652
sg74
g70
sg67
(lp1653
g60
(g81
g62
NtRp1654
(dp1655
g65
(dp1656
g85
g86
ssg74
g1650
sg67
(lp1657
S'get_vars'
p1658
asbag60
(g81
g62
NtRp1659
(dp1660
g65
(dp1661
g92
g93
ssg74
g1650
sg67
(lp1662
S':'
asbag60
(g81
g62
NtRp1663
(dp1664
g65
(dp1665
sg74
g1650
sg67
(lp1666
g60
(g61
g62
NtRp1667
(dp1668
g65
(dp1669
g73
I5
ssg74
g1663
sg67
(lp1670
g60
(g69
g62
NtRp1671
(dp1672
g65
(dp1673
g73
I4
ssg74
Nsg67
(lp1674
g60
(g76
g62
NtRp1675
(dp1676
g65
(dp1677
sg74
g1671
sg67
(lp1678
g60
(g81
g62
NtRp1679
(dp1680
g65
(dp1681
g85
g86
ssg74
g1675
sg67
(lp1682
S'ajax'
p1683
asbag60
(g81
g62
NtRp1684
(dp1685
g65
(dp1686
g92
g93
ssg74
g1675
sg67
(lp1687
S':'
asbag60
(g81
g62
NtRp1688
(dp1689
g65
(dp1690
sg74
g1675
sg67
(lp1691
g60
(g61
g62
NtRp1692
(dp1693
g65
(dp1694
g73
I4
ssg74
g1688
sg67
(lp1695
S'true'
p1696
asbasbasbasbasbasbasbag60
(g76
g62
NtRp1697
(dp1698
g65
(dp1699
sg74
g70
sg67
(lp1700
g60
(g81
g62
NtRp1701
(dp1702
g65
(dp1703
g85
g86
ssg74
g1697
sg67
(lp1704
S'global_settings'
p1705
asbag60
(g81
g62
NtRp1706
(dp1707
g65
(dp1708
g92
g93
ssg74
g1697
sg67
(lp1709
S':'
asbag60
(g81
g62
NtRp1710
(dp1711
g65
(dp1712
sg74
g1697
sg67
(lp1713
g60
(g61
g62
NtRp1714
(dp1715
g65
(dp1716
g73
I5
ssg74
g1710
sg67
(lp1717
g60
(g69
g62
NtRp1718
(dp1719
g65
(dp1720
g73
I4
ssg74
Nsg67
(lp1721
g60
(g76
g62
NtRp1722
(dp1723
g65
(dp1724
sg74
g1718
sg67
(lp1725
g60
(g81
g62
NtRp1726
(dp1727
g65
(dp1728
g85
g86
ssg74
g1722
sg67
(lp1729
g624
asbag60
(g81
g62
NtRp1730
(dp1731
g65
(dp1732
g92
g93
ssg74
g1722
sg67
(lp1733
S':'
asbag60
(g81
g62
NtRp1734
(dp1735
g65
(dp1736
sg74
g1722
sg67
(lp1737
g60
(g61
g62
NtRp1738
(dp1739
g65
(dp1740
g73
I4
ssg74
g1734
sg67
(lp1741
S"set(['/Users/udimilo/Documents/web2py/applications/udi0312/', '/Users/udimilo/Documents/web2py/applications/admin/'])"
p1742
asbasbasbag60
(g76
g62
NtRp1743
(dp1744
g65
(dp1745
sg74
g1718
sg67
(lp1746
g60
(g81
g62
NtRp1747
(dp1748
g65
(dp1749
g85
g86
ssg74
g1743
sg67
(lp1750
g646
asbag60
(g81
g62
NtRp1751
(dp1752
g65
(dp1753
g92
g93
ssg74
g1743
sg67
(lp1754
S':'
asbag60
(g81
g62
NtRp1755
(dp1756
g65
(dp1757
sg74
g1743
sg67
(lp1758
g60
(g61
g62
NtRp1759
(dp1760
g65
(dp1761
g73
I4
ssg74
g1755
sg67
(lp1762
g659
asbasbasbag60
(g76
g62
NtRp1763
(dp1764
g65
(dp1765
sg74
g1718
sg67
(lp1766
g60
(g81
g62
NtRp1767
(dp1768
g65
(dp1769
g85
g86
ssg74
g1763
sg67
(lp1770
g668
asbag60
(g81
g62
NtRp1771
(dp1772
g65
(dp1773
g92
g93
ssg74
g1763
sg67
(lp1774
S':'
asbag60
(g81
g62
NtRp1775
(dp1776
g65
(dp1777
sg74
g1763
sg67
(lp1778
g60
(g61
g62
NtRp1779
(dp1780
g65
(dp1781
g73
I4
ssg74
g1775
sg67
(lp1782
g60
(g69
g62
NtRp1783
(dp1784
g65
(dp1785
g73
I3
ssg74
Nsg67
(lp1786
sbasbasbasbag60
(g76
g62
NtRp1787
(dp1788
g65
(dp1789
sg74
g1718
sg67
(lp1790
g60
(g81
g62
NtRp1791
(dp1792
g65
(dp1793
g85
g86
ssg74
g1787
sg67
(lp1794
g693
asbag60
(g81
g62
NtRp1795
(dp1796
g65
(dp1797
g92
g93
ssg74
g1787
sg67
(lp1798
S':'
asbag60
(g81
g62
NtRp1799
(dp1800
g65
(dp1801
sg74
g1787
sg67
(lp1802
g60
(g61
g62
NtRp1803
(dp1804
g65
(dp1805
g73
I4
ssg74
g1799
sg67
(lp1806
S"<Values at 0x22190a8: {'verbose': False, 'ip': '127.0.0.1', 'shutdown_timeout': 5, 'taskbar': False, 'nocron': False, 'pid_filename': 'httpserver.pid', 'maxthreads': None, 'softcron': False, 'server_name': 'Udi-Milos-MacBook-Pro.local', 'bpython': False, 'nogui': False, 'port': 8000, 'extcron': False, 'debuglevel': 30, 'test': None, 'folder': '/Users/udimilo/Documents/web2py', 'config': '', 'import_models': False, 'winservice': '', 'shell': None, 'run': '', 'log_filename': 'httpserver.log', 'args': [''], 'socket_timeout': 5, 'ssl_ca_certificate': None, 'scheduler': None, 'profiler_filename': None, 'ssl_private_key': '', 'password': '<ask>', 'request_queue_size': 5, 'ssl_certificate': '', 'cronjob': False, 'numthreads': None, 'quiet': False, 'interfaces': None, 'minthreads': None, 'timeout': 10, 'plain': False, 'nobanner': False}>"
p1807
asbasbasbag60
(g76
g62
NtRp1808
(dp1809
g65
(dp1810
sg74
g1718
sg67
(lp1811
g60
(g81
g62
NtRp1812
(dp1813
g65
(dp1814
g85
g86
ssg74
g1808
sg67
(lp1815
g715
asbag60
(g81
g62
NtRp1816
(dp1817
g65
(dp1818
g92
g93
ssg74
g1808
sg67
(lp1819
S':'
asbag60
(g81
g62
NtRp1820
(dp1821
g65
(dp1822
sg74
g1808
sg67
(lp1823
g60
(g61
g62
NtRp1824
(dp1825
g65
(dp1826
g73
I4
ssg74
g1820
sg67
(lp1827
S'set([])'
p1828
asbasbasbag60
(g76
g62
NtRp1829
(dp1830
g65
(dp1831
sg74
g1718
sg67
(lp1832
g60
(g81
g62
NtRp1833
(dp1834
g65
(dp1835
g85
g86
ssg74
g1829
sg67
(lp1836
g737
asbag60
(g81
g62
NtRp1837
(dp1838
g65
(dp1839
g92
g93
ssg74
g1829
sg67
(lp1840
S':'
asbag60
(g81
g62
NtRp1841
(dp1842
g65
(dp1843
sg74
g1829
sg67
(lp1844
g60
(g61
g62
NtRp1845
(dp1846
g65
(dp1847
g73
I4
ssg74
g1841
sg67
(lp1848
g103
asbasbasbag60
(g76
g62
NtRp1849
(dp1850
g65
(dp1851
sg74
g1718
sg67
(lp1852
g60
(g81
g62
NtRp1853
(dp1854
g65
(dp1855
g85
g86
ssg74
g1849
sg67
(lp1856
g758
asbag60
(g81
g62
NtRp1857
(dp1858
g65
(dp1859
g92
g93
ssg74
g1849
sg67
(lp1860
S':'
asbag60
(g81
g62
NtRp1861
(dp1862
g65
(dp1863
sg74
g1849
sg67
(lp1864
g60
(g61
g62
NtRp1865
(dp1866
g65
(dp1867
g73
I4
ssg74
g1861
sg67
(lp1868
g771
asbasbasbag60
(g76
g62
NtRp1869
(dp1870
g65
(dp1871
sg74
g1718
sg67
(lp1872
g60
(g81
g62
NtRp1873
(dp1874
g65
(dp1875
g85
g86
ssg74
g1869
sg67
(lp1876
g956
asbag60
(g81
g62
NtRp1877
(dp1878
g65
(dp1879
g92
g93
ssg74
g1869
sg67
(lp1880
S':'
asbag60
(g81
g62
NtRp1881
(dp1882
g65
(dp1883
sg74
g1869
sg67
(lp1884
g60
(g61
g62
NtRp1885
(dp1886
g65
(dp1887
g73
I4
ssg74
g1881
sg67
(lp1888
g103
asbasbasbag60
(g76
g62
NtRp1889
(dp1890
g65
(dp1891
sg74
g1718
sg67
(lp1892
g60
(g81
g62
NtRp1893
(dp1894
g65
(dp1895
g85
g86
ssg74
g1889
sg67
(lp1896
g977
asbag60
(g81
g62
NtRp1897
(dp1898
g65
(dp1899
g92
g93
ssg74
g1889
sg67
(lp1900
S':'
asbag60
(g81
g62
NtRp1901
(dp1902
g65
(dp1903
sg74
g1889
sg67
(lp1904
g60
(g61
g62
NtRp1905
(dp1906
g65
(dp1907
g73
I4
ssg74
g1901
sg67
(lp1908
g103
asbasbasbag60
(g76
g62
NtRp1909
(dp1910
g65
(dp1911
sg74
g1718
sg67
(lp1912
g60
(g81
g62
NtRp1913
(dp1914
g65
(dp1915
g85
g86
ssg74
g1909
sg67
(lp1916
g1238
asbag60
(g81
g62
NtRp1917
(dp1918
g65
(dp1919
g92
g93
ssg74
g1909
sg67
(lp1920
S':'
asbag60
(g81
g62
NtRp1921
(dp1922
g65
(dp1923
sg74
g1909
sg67
(lp1924
g60
(g61
g62
NtRp1925
(dp1926
g65
(dp1927
g73
I4
ssg74
g1921
sg67
(lp1928
g1251
asbasbasbag60
(g76
g62
NtRp1929
(dp1930
g65
(dp1931
sg74
g1718
sg67
(lp1932
g60
(g81
g62
NtRp1933
(dp1934
g65
(dp1935
g85
g86
ssg74
g1929
sg67
(lp1936
g1303
asbag60
(g81
g62
NtRp1937
(dp1938
g65
(dp1939
g92
g93
ssg74
g1929
sg67
(lp1940
S':'
asbag60
(g81
g62
NtRp1941
(dp1942
g65
(dp1943
sg74
g1929
sg67
(lp1944
g60
(g61
g62
NtRp1945
(dp1946
g65
(dp1947
g73
I4
ssg74
g1941
sg67
(lp1948
g60
(g69
g62
NtRp1949
(dp1950
g65
(dp1951
g73
I3
ssg74
Nsg67
(lp1952
g60
(g76
g62
NtRp1953
(dp1954
g65
(dp1955
sg74
g1949
sg67
(lp1956
g60
(g81
g62
NtRp1957
(dp1958
g65
(dp1959
sg74
g1953
sg67
(lp1960
g60
(g61
g62
NtRp1961
(dp1962
g65
(dp1963
g73
I3
ssg74
g1957
sg67
(lp1964
S'1'
asbasbasbag60
(g76
g62
NtRp1965
(dp1966
g65
(dp1967
sg74
g1949
sg67
(lp1968
g60
(g81
g62
NtRp1969
(dp1970
g65
(dp1971
sg74
g1965
sg67
(lp1972
g60
(g61
g62
NtRp1973
(dp1974
g65
(dp1975
g73
I3
ssg74
g1969
sg67
(lp1976
S'99'
p1977
asbasbasbag60
(g76
g62
NtRp1978
(dp1979
g65
(dp1980
sg74
g1949
sg67
(lp1981
g60
(g81
g62
NtRp1982
(dp1983
g65
(dp1984
sg74
g1978
sg67
(lp1985
g60
(g61
g62
NtRp1986
(dp1987
g65
(dp1988
g73
I3
ssg74
g1982
sg67
(lp1989
S'7'
asbasbasbag60
(g76
g62
NtRp1990
(dp1991
g65
(dp1992
sg74
g1949
sg67
(lp1993
g60
(g81
g62
NtRp1994
(dp1995
g65
(dp1996
sg74
g1990
sg67
(lp1997
g60
(g61
g62
NtRp1998
(dp1999
g65
(dp2000
g73
I3
ssg74
g1994
sg67
(lp2001
S'datetime.datetime(2012, 3, 4, 22, 12, 8)'
p2002
asbasbasbag60
(g76
g62
NtRp2003
(dp2004
g65
(dp2005
sg74
g1949
sg67
(lp2006
g60
(g81
g62
NtRp2007
(dp2008
g65
(dp2009
sg74
g2003
sg67
(lp2010
g60
(g61
g62
NtRp2011
(dp2012
g65
(dp2013
g73
I3
ssg74
g2007
sg67
(lp2014
g1382
asbasbasbasbasbasbasbasbasbasbasbag60
(g76
g62
NtRp2015
(dp2016
g65
(dp2017
sg74
g70
sg67
(lp2018
g60
(g81
g62
NtRp2019
(dp2020
g65
(dp2021
g85
g86
ssg74
g2015
sg67
(lp2022
S'is_https'
p2023
asbag60
(g81
g62
NtRp2024
(dp2025
g65
(dp2026
g92
g93
ssg74
g2015
sg67
(lp2027
S':'
asbag60
(g81
g62
NtRp2028
(dp2029
g65
(dp2030
sg74
g2015
sg67
(lp2031
g60
(g61
g62
NtRp2032
(dp2033
g65
(dp2034
g73
I5
ssg74
g2028
sg67
(lp2035
g103
asbasbasbag60
(g76
g62
NtRp2036
(dp2037
g65
(dp2038
sg74
g70
sg67
(lp2039
g60
(g81
g62
NtRp2040
(dp2041
g65
(dp2042
g85
g86
ssg74
g2036
sg67
(lp2043
S'is_local'
p2044
asbag60
(g81
g62
NtRp2045
(dp2046
g65
(dp2047
g92
g93
ssg74
g2036
sg67
(lp2048
S':'
asbag60
(g81
g62
NtRp2049
(dp2050
g65
(dp2051
sg74
g2036
sg67
(lp2052
g60
(g61
g62
NtRp2053
(dp2054
g65
(dp2055
g73
I5
ssg74
g2049
sg67
(lp2056
g1491
asbasbasbag60
(g76
g62
NtRp2057
(dp2058
g65
(dp2059
sg74
g70
sg67
(lp2060
g60
(g81
g62
NtRp2061
(dp2062
g65
(dp2063
g85
g86
ssg74
g2057
sg67
(lp2064
S'is_restful'
p2065
asbag60
(g81
g62
NtRp2066
(dp2067
g65
(dp2068
g92
g93
ssg74
g2057
sg67
(lp2069
S':'
asbag60
(g81
g62
NtRp2070
(dp2071
g65
(dp2072
sg74
g2057
sg67
(lp2073
g60
(g61
g62
NtRp2074
(dp2075
g65
(dp2076
g73
I5
ssg74
g2070
sg67
(lp2077
g103
asbasbasbag60
(g76
g62
NtRp2078
(dp2079
g65
(dp2080
sg74
g70
sg67
(lp2081
g60
(g81
g62
NtRp2082
(dp2083
g65
(dp2084
g85
g86
ssg74
g2078
sg67
(lp2085
S'now'
p2086
asbag60
(g81
g62
NtRp2087
(dp2088
g65
(dp2089
g92
g93
ssg74
g2078
sg67
(lp2090
S':'
asbag60
(g81
g62
NtRp2091
(dp2092
g65
(dp2093
sg74
g2078
sg67
(lp2094
g60
(g61
g62
NtRp2095
(dp2096
g65
(dp2097
g73
I5
ssg74
g2091
sg67
(lp2098
S'datetime.datetime(2012, 3, 26, 12, 39, 18, 499317)'
p2099
asbasbasbag60
(g76
g62
NtRp2100
(dp2101
g65
(dp2102
sg74
g70
sg67
(lp2103
g60
(g81
g62
NtRp2104
(dp2105
g65
(dp2106
g85
g86
ssg74
g2100
sg67
(lp2107
S'post_vars'
p2108
asbag60
(g81
g62
NtRp2109
(dp2110
g65
(dp2111
g92
g93
ssg74
g2100
sg67
(lp2112
S':'
asbag60
(g81
g62
NtRp2113
(dp2114
g65
(dp2115
sg74
g2100
sg67
(lp2116
g60
(g61
g62
NtRp2117
(dp2118
g65
(dp2119
g73
I5
ssg74
g2113
sg67
(lp2120
g60
(g69
g62
NtRp2121
(dp2122
g65
(dp2123
g73
I4
ssg74
Nsg67
(lp2124
sbasbasbasbag60
(g76
g62
NtRp2125
(dp2126
g65
(dp2127
sg74
g70
sg67
(lp2128
g60
(g81
g62
NtRp2129
(dp2130
g65
(dp2131
g85
g86
ssg74
g2125
sg67
(lp2132
S'url'
p2133
asbag60
(g81
g62
NtRp2134
(dp2135
g65
(dp2136
g92
g93
ssg74
g2125
sg67
(lp2137
S':'
asbag60
(g81
g62
NtRp2138
(dp2139
g65
(dp2140
sg74
g2125
sg67
(lp2141
g60
(g61
g62
NtRp2142
(dp2143
g65
(dp2144
g73
I5
ssg74
g2138
sg67
(lp2145
S'/articles/150'
p2146
asbasbasbag60
(g76
g62
NtRp2147
(dp2148
g65
(dp2149
sg74
g70
sg67
(lp2150
g60
(g81
g62
NtRp2151
(dp2152
g65
(dp2153
g85
g86
ssg74
g2147
sg67
(lp2154
S'utcnow'
p2155
asbag60
(g81
g62
NtRp2156
(dp2157
g65
(dp2158
g92
g93
ssg74
g2147
sg67
(lp2159
S':'
asbag60
(g81
g62
NtRp2160
(dp2161
g65
(dp2162
sg74
g2147
sg67
(lp2163
g60
(g61
g62
NtRp2164
(dp2165
g65
(dp2166
g73
I5
ssg74
g2160
sg67
(lp2167
S'datetime.datetime(2012, 3, 26, 16, 39, 18, 499334)'
p2168
asbasbasbag60
(g76
g62
NtRp2169
(dp2170
g65
(dp2171
sg74
g70
sg67
(lp2172
g60
(g81
g62
NtRp2173
(dp2174
g65
(dp2175
g85
g86
ssg74
g2169
sg67
(lp2176
S'uuid'
p2177
asbag60
(g81
g62
NtRp2178
(dp2179
g65
(dp2180
g92
g93
ssg74
g2169
sg67
(lp2181
S':'
asbag60
(g81
g62
NtRp2182
(dp2183
g65
(dp2184
sg74
g2169
sg67
(lp2185
g60
(g61
g62
NtRp2186
(dp2187
g65
(dp2188
g73
I5
ssg74
g2182
sg67
(lp2189
S'udi0312/127.0.0.1.2012-03-26.12-39-18.ddbbe27e-14d8-416a-877f-ff71f83157aa'
p2190
asbasbasbag60
(g76
g62
NtRp2191
(dp2192
g65
(dp2193
sg74
g70
sg67
(lp2194
g60
(g81
g62
NtRp2195
(dp2196
g65
(dp2197
g85
g86
ssg74
g2191
sg67
(lp2198
S'vars'
p2199
asbag60
(g81
g62
NtRp2200
(dp2201
g65
(dp2202
g92
g93
ssg74
g2191
sg67
(lp2203
S':'
asbag60
(g81
g62
NtRp2204
(dp2205
g65
(dp2206
sg74
g2191
sg67
(lp2207
g60
(g61
g62
NtRp2208
(dp2209
g65
(dp2210
g73
I5
ssg74
g2204
sg67
(lp2211
g60
(g69
g62
NtRp2212
(dp2213
g65
(dp2214
g73
I4
ssg74
Nsg67
(lp2215
g60
(g76
g62
NtRp2216
(dp2217
g65
(dp2218
sg74
g2212
sg67
(lp2219
g60
(g81
g62
NtRp2220
(dp2221
g65
(dp2222
g85
g86
ssg74
g2216
sg67
(lp2223
g1683
asbag60
(g81
g62
NtRp2224
(dp2225
g65
(dp2226
g92
g93
ssg74
g2216
sg67
(lp2227
S':'
asbag60
(g81
g62
NtRp2228
(dp2229
g65
(dp2230
sg74
g2216
sg67
(lp2231
g60
(g61
g62
NtRp2232
(dp2233
g65
(dp2234
g73
I4
ssg74
g2228
sg67
(lp2235
g1696
asbasbasbasbasbasbasbag60
(g76
g62
NtRp2236
(dp2237
g65
(dp2238
sg74
g70
sg67
(lp2239
g60
(g81
g62
NtRp2240
(dp2241
g65
(dp2242
g85
g86
ssg74
g2236
sg67
(lp2243
S'wsgi'
p2244
asbag60
(g81
g62
NtRp2245
(dp2246
g65
(dp2247
g92
g93
ssg74
g2236
sg67
(lp2248
S':'
asbag60
(g81
g62
NtRp2249
(dp2250
g65
(dp2251
sg74
g2236
sg67
(lp2252
g60
(g61
g62
NtRp2253
(dp2254
g65
(dp2255
g73
I5
ssg74
g2249
sg67
(lp2256
g60
(g69
g62
NtRp2257
(dp2258
g65
(dp2259
g73
I4
ssg74
Nsg67
(lp2260
g60
(g76
g62
NtRp2261
(dp2262
g65
(dp2263
sg74
g2257
sg67
(lp2264
g60
(g81
g62
NtRp2265
(dp2266
g65
(dp2267
g85
g86
ssg74
g2261
sg67
(lp2268
S'environ'
p2269
asbag60
(g81
g62
NtRp2270
(dp2271
g65
(dp2272
g92
g93
ssg74
g2261
sg67
(lp2273
S':'
asbag60
(g81
g62
NtRp2274
(dp2275
g65
(dp2276
sg74
g2261
sg67
(lp2277
g60
(g61
g62
NtRp2278
(dp2279
g65
(dp2280
g73
I4
ssg74
g2274
sg67
(lp2281
g60
(g69
g62
NtRp2282
(dp2283
g65
(dp2284
g73
I3
ssg74
Nsg67
(lp2285
g60
(g76
g62
NtRp2286
(dp2287
g65
(dp2288
sg74
g2282
sg67
(lp2289
g60
(g81
g62
NtRp2290
(dp2291
g65
(dp2292
g85
g86
ssg74
g2286
sg67
(lp2293
S'HTTP_ACCEPT'
p2294
asbag60
(g81
g62
NtRp2295
(dp2296
g65
(dp2297
g92
g93
ssg74
g2286
sg67
(lp2298
S':'
asbag60
(g81
g62
NtRp2299
(dp2300
g65
(dp2301
sg74
g2286
sg67
(lp2302
g60
(g61
g62
NtRp2303
(dp2304
g65
(dp2305
g73
I3
ssg74
g2299
sg67
(lp2306
g793
asbasbasbag60
(g76
g62
NtRp2307
(dp2308
g65
(dp2309
sg74
g2282
sg67
(lp2310
g60
(g81
g62
NtRp2311
(dp2312
g65
(dp2313
g85
g86
ssg74
g2307
sg67
(lp2314
S'HTTP_ACCEPT_CHARSET'
p2315
asbag60
(g81
g62
NtRp2316
(dp2317
g65
(dp2318
g92
g93
ssg74
g2307
sg67
(lp2319
S':'
asbag60
(g81
g62
NtRp2320
(dp2321
g65
(dp2322
sg74
g2307
sg67
(lp2323
g60
(g61
g62
NtRp2324
(dp2325
g65
(dp2326
g73
I3
ssg74
g2320
sg67
(lp2327
g815
asbasbasbag60
(g76
g62
NtRp2328
(dp2329
g65
(dp2330
sg74
g2282
sg67
(lp2331
g60
(g81
g62
NtRp2332
(dp2333
g65
(dp2334
g85
g86
ssg74
g2328
sg67
(lp2335
S'HTTP_ACCEPT_ENCODING'
p2336
asbag60
(g81
g62
NtRp2337
(dp2338
g65
(dp2339
g92
g93
ssg74
g2328
sg67
(lp2340
S':'
asbag60
(g81
g62
NtRp2341
(dp2342
g65
(dp2343
sg74
g2328
sg67
(lp2344
g60
(g61
g62
NtRp2345
(dp2346
g65
(dp2347
g73
I3
ssg74
g2341
sg67
(lp2348
g837
asbasbasbag60
(g76
g62
NtRp2349
(dp2350
g65
(dp2351
sg74
g2282
sg67
(lp2352
g60
(g81
g62
NtRp2353
(dp2354
g65
(dp2355
g85
g86
ssg74
g2349
sg67
(lp2356
S'HTTP_ACCEPT_LANGUAGE'
p2357
asbag60
(g81
g62
NtRp2358
(dp2359
g65
(dp2360
g92
g93
ssg74
g2349
sg67
(lp2361
S':'
asbag60
(g81
g62
NtRp2362
(dp2363
g65
(dp2364
sg74
g2349
sg67
(lp2365
g60
(g61
g62
NtRp2366
(dp2367
g65
(dp2368
g73
I3
ssg74
g2362
sg67
(lp2369
g859
asbasbasbag60
(g76
g62
NtRp2370
(dp2371
g65
(dp2372
sg74
g2282
sg67
(lp2373
g60
(g81
g62
NtRp2374
(dp2375
g65
(dp2376
g85
g86
ssg74
g2370
sg67
(lp2377
S'HTTP_CONNECTION'
p2378
asbag60
(g81
g62
NtRp2379
(dp2380
g65
(dp2381
g92
g93
ssg74
g2370
sg67
(lp2382
S':'
asbag60
(g81
g62
NtRp2383
(dp2384
g65
(dp2385
sg74
g2370
sg67
(lp2386
g60
(g61
g62
NtRp2387
(dp2388
g65
(dp2389
g73
I3
ssg74
g2383
sg67
(lp2390
g881
asbasbasbag60
(g76
g62
NtRp2391
(dp2392
g65
(dp2393
sg74
g2282
sg67
(lp2394
g60
(g81
g62
NtRp2395
(dp2396
g65
(dp2397
g85
g86
ssg74
g2391
sg67
(lp2398
S'HTTP_COOKIE'
p2399
asbag60
(g81
g62
NtRp2400
(dp2401
g65
(dp2402
g92
g93
ssg74
g2391
sg67
(lp2403
S':'
asbag60
(g81
g62
NtRp2404
(dp2405
g65
(dp2406
sg74
g2391
sg67
(lp2407
g60
(g61
g62
NtRp2408
(dp2409
g65
(dp2410
g73
I3
ssg74
g2404
sg67
(lp2411
g903
asbasbasbag60
(g76
g62
NtRp2412
(dp2413
g65
(dp2414
sg74
g2282
sg67
(lp2415
g60
(g81
g62
NtRp2416
(dp2417
g65
(dp2418
g85
g86
ssg74
g2412
sg67
(lp2419
S'HTTP_HOST'
p2420
asbag60
(g81
g62
NtRp2421
(dp2422
g65
(dp2423
g92
g93
ssg74
g2412
sg67
(lp2424
S':'
asbag60
(g81
g62
NtRp2425
(dp2426
g65
(dp2427
sg74
g2412
sg67
(lp2428
g60
(g61
g62
NtRp2429
(dp2430
g65
(dp2431
g73
I3
ssg74
g2425
sg67
(lp2432
g925
asbasbasbag60
(g76
g62
NtRp2433
(dp2434
g65
(dp2435
sg74
g2282
sg67
(lp2436
g60
(g81
g62
NtRp2437
(dp2438
g65
(dp2439
g85
g86
ssg74
g2433
sg67
(lp2440
S'HTTP_USER_AGENT'
p2441
asbag60
(g81
g62
NtRp2442
(dp2443
g65
(dp2444
g92
g93
ssg74
g2433
sg67
(lp2445
S':'
asbag60
(g81
g62
NtRp2446
(dp2447
g65
(dp2448
sg74
g2433
sg67
(lp2449
g60
(g61
g62
NtRp2450
(dp2451
g65
(dp2452
g73
I3
ssg74
g2446
sg67
(lp2453
g947
asbasbasbag60
(g76
g62
NtRp2454
(dp2455
g65
(dp2456
sg74
g2282
sg67
(lp2457
g60
(g81
g62
NtRp2458
(dp2459
g65
(dp2460
g85
g86
ssg74
g2454
sg67
(lp2461
S'PATH_INFO'
p2462
asbag60
(g81
g62
NtRp2463
(dp2464
g65
(dp2465
g92
g93
ssg74
g2454
sg67
(lp2466
S':'
asbag60
(g81
g62
NtRp2467
(dp2468
g65
(dp2469
sg74
g2454
sg67
(lp2470
g60
(g61
g62
NtRp2471
(dp2472
g65
(dp2473
g73
I3
ssg74
g2467
sg67
(lp2474
g1011
asbasbasbag60
(g76
g62
NtRp2475
(dp2476
g65
(dp2477
sg74
g2282
sg67
(lp2478
g60
(g81
g62
NtRp2479
(dp2480
g65
(dp2481
g85
g86
ssg74
g2475
sg67
(lp2482
S'QUERY_STRING'
p2483
asbag60
(g81
g62
NtRp2484
(dp2485
g65
(dp2486
g92
g93
ssg74
g2475
sg67
(lp2487
S':'
asbag60
(g81
g62
NtRp2488
(dp2489
g65
(dp2490
sg74
g2475
sg67
(lp2491
g60
(g61
g62
NtRp2492
(dp2493
g65
(dp2494
g73
I3
ssg74
g2488
sg67
(lp2495
g1033
asbasbasbag60
(g76
g62
NtRp2496
(dp2497
g65
(dp2498
sg74
g2282
sg67
(lp2499
g60
(g81
g62
NtRp2500
(dp2501
g65
(dp2502
g85
g86
ssg74
g2496
sg67
(lp2503
S'REMOTE_ADDR'
p2504
asbag60
(g81
g62
NtRp2505
(dp2506
g65
(dp2507
g92
g93
ssg74
g2496
sg67
(lp2508
S':'
asbag60
(g81
g62
NtRp2509
(dp2510
g65
(dp2511
sg74
g2496
sg67
(lp2512
g60
(g61
g62
NtRp2513
(dp2514
g65
(dp2515
g73
I3
ssg74
g2509
sg67
(lp2516
g206
asbasbasbag60
(g76
g62
NtRp2517
(dp2518
g65
(dp2519
sg74
g2282
sg67
(lp2520
g60
(g81
g62
NtRp2521
(dp2522
g65
(dp2523
g85
g86
ssg74
g2517
sg67
(lp2524
S'REMOTE_PORT'
p2525
asbag60
(g81
g62
NtRp2526
(dp2527
g65
(dp2528
g92
g93
ssg74
g2517
sg67
(lp2529
S':'
asbag60
(g81
g62
NtRp2530
(dp2531
g65
(dp2532
sg74
g2517
sg67
(lp2533
g60
(g61
g62
NtRp2534
(dp2535
g65
(dp2536
g73
I3
ssg74
g2530
sg67
(lp2537
g1076
asbasbasbag60
(g76
g62
NtRp2538
(dp2539
g65
(dp2540
sg74
g2282
sg67
(lp2541
g60
(g81
g62
NtRp2542
(dp2543
g65
(dp2544
g85
g86
ssg74
g2538
sg67
(lp2545
S'REQUEST_METHOD'
p2546
asbag60
(g81
g62
NtRp2547
(dp2548
g65
(dp2549
g92
g93
ssg74
g2538
sg67
(lp2550
S':'
asbag60
(g81
g62
NtRp2551
(dp2552
g65
(dp2553
sg74
g2538
sg67
(lp2554
g60
(g61
g62
NtRp2555
(dp2556
g65
(dp2557
g73
I3
ssg74
g2551
sg67
(lp2558
g1098
asbasbasbag60
(g76
g62
NtRp2559
(dp2560
g65
(dp2561
sg74
g2282
sg67
(lp2562
g60
(g81
g62
NtRp2563
(dp2564
g65
(dp2565
g85
g86
ssg74
g2559
sg67
(lp2566
S'REQUEST_URI'
p2567
asbag60
(g81
g62
NtRp2568
(dp2569
g65
(dp2570
g92
g93
ssg74
g2559
sg67
(lp2571
S':'
asbag60
(g81
g62
NtRp2572
(dp2573
g65
(dp2574
sg74
g2559
sg67
(lp2575
g60
(g61
g62
NtRp2576
(dp2577
g65
(dp2578
g73
I3
ssg74
g2572
sg67
(lp2579
g1120
asbasbasbag60
(g76
g62
NtRp2580
(dp2581
g65
(dp2582
sg74
g2282
sg67
(lp2583
g60
(g81
g62
NtRp2584
(dp2585
g65
(dp2586
g85
g86
ssg74
g2580
sg67
(lp2587
S'SCRIPT_NAME'
p2588
asbag60
(g81
g62
NtRp2589
(dp2590
g65
(dp2591
g92
g93
ssg74
g2580
sg67
(lp2592
S':'
asbag60
(g81
g62
NtRp2593
(dp2594
g65
(dp2595
sg74
g2580
sg67
(lp2596
g60
(g61
g62
NtRp2597
(dp2598
g65
(dp2599
g73
I3
ssg74
g2593
sg67
(lp2600
S''
asbasbasbag60
(g76
g62
NtRp2601
(dp2602
g65
(dp2603
sg74
g2282
sg67
(lp2604
g60
(g81
g62
NtRp2605
(dp2606
g65
(dp2607
g85
g86
ssg74
g2601
sg67
(lp2608
S'SERVER_NAME'
p2609
asbag60
(g81
g62
NtRp2610
(dp2611
g65
(dp2612
g92
g93
ssg74
g2601
sg67
(lp2613
S':'
asbag60
(g81
g62
NtRp2614
(dp2615
g65
(dp2616
sg74
g2601
sg67
(lp2617
g60
(g61
g62
NtRp2618
(dp2619
g65
(dp2620
g73
I3
ssg74
g2614
sg67
(lp2621
g1163
asbasbasbag60
(g76
g62
NtRp2622
(dp2623
g65
(dp2624
sg74
g2282
sg67
(lp2625
g60
(g81
g62
NtRp2626
(dp2627
g65
(dp2628
g85
g86
ssg74
g2622
sg67
(lp2629
S'SERVER_PORT'
p2630
asbag60
(g81
g62
NtRp2631
(dp2632
g65
(dp2633
g92
g93
ssg74
g2622
sg67
(lp2634
S':'
asbag60
(g81
g62
NtRp2635
(dp2636
g65
(dp2637
sg74
g2622
sg67
(lp2638
g60
(g61
g62
NtRp2639
(dp2640
g65
(dp2641
g73
I3
ssg74
g2635
sg67
(lp2642
g1185
asbasbasbag60
(g76
g62
NtRp2643
(dp2644
g65
(dp2645
sg74
g2282
sg67
(lp2646
g60
(g81
g62
NtRp2647
(dp2648
g65
(dp2649
g85
g86
ssg74
g2643
sg67
(lp2650
S'SERVER_PROTOCOL'
p2651
asbag60
(g81
g62
NtRp2652
(dp2653
g65
(dp2654
g92
g93
ssg74
g2643
sg67
(lp2655
S':'
asbag60
(g81
g62
NtRp2656
(dp2657
g65
(dp2658
sg74
g2643
sg67
(lp2659
g60
(g61
g62
NtRp2660
(dp2661
g65
(dp2662
g73
I3
ssg74
g2656
sg67
(lp2663
g1207
asbasbasbag60
(g76
g62
NtRp2664
(dp2665
g65
(dp2666
sg74
g2282
sg67
(lp2667
g60
(g81
g62
NtRp2668
(dp2669
g65
(dp2670
g85
g86
ssg74
g2664
sg67
(lp2671
S'SERVER_SOFTWARE'
p2672
asbag60
(g81
g62
NtRp2673
(dp2674
g65
(dp2675
g92
g93
ssg74
g2664
sg67
(lp2676
S':'
asbag60
(g81
g62
NtRp2677
(dp2678
g65
(dp2679
sg74
g2664
sg67
(lp2680
g60
(g61
g62
NtRp2681
(dp2682
g65
(dp2683
g73
I3
ssg74
g2677
sg67
(lp2684
g1229
asbasbasbag60
(g76
g62
NtRp2685
(dp2686
g65
(dp2687
sg74
g2282
sg67
(lp2688
g60
(g81
g62
NtRp2689
(dp2690
g65
(dp2691
g85
g86
ssg74
g2685
sg67
(lp2692
S'WEB2PY_ORIGINAL_URI'
p2693
asbag60
(g81
g62
NtRp2694
(dp2695
g65
(dp2696
g92
g93
ssg74
g2685
sg67
(lp2697
S':'
asbag60
(g81
g62
NtRp2698
(dp2699
g65
(dp2700
sg74
g2685
sg67
(lp2701
g60
(g61
g62
NtRp2702
(dp2703
g65
(dp2704
g73
I3
ssg74
g2698
sg67
(lp2705
g1273
asbasbasbag60
(g76
g62
NtRp2706
(dp2707
g65
(dp2708
sg74
g2282
sg67
(lp2709
g60
(g81
g62
NtRp2710
(dp2711
g65
(dp2712
g85
g86
ssg74
g2706
sg67
(lp2713
S'wsgi.errors'
p2714
asbag60
(g81
g62
NtRp2715
(dp2716
g65
(dp2717
g92
g93
ssg74
g2706
sg67
(lp2718
S':'
asbag60
(g81
g62
NtRp2719
(dp2720
g65
(dp2721
sg74
g2706
sg67
(lp2722
g60
(g61
g62
NtRp2723
(dp2724
g65
(dp2725
g73
I3
ssg74
g2719
sg67
(lp2726
S"<open file '<stderr>', mode 'w' at 0x4220b0>"
p2727
asbasbasbag60
(g76
g62
NtRp2728
(dp2729
g65
(dp2730
sg74
g2282
sg67
(lp2731
g60
(g81
g62
NtRp2732
(dp2733
g65
(dp2734
g85
g86
ssg74
g2728
sg67
(lp2735
S'wsgi.file_wrapper'
p2736
asbag60
(g81
g62
NtRp2737
(dp2738
g65
(dp2739
g92
g93
ssg74
g2728
sg67
(lp2740
S':'
asbag60
(g81
g62
NtRp2741
(dp2742
g65
(dp2743
sg74
g2728
sg67
(lp2744
g60
(g61
g62
NtRp2745
(dp2746
g65
(dp2747
g73
I3
ssg74
g2741
sg67
(lp2748
S'<class wsgiref.util.FileWrapper at 0x215e6c0>'
p2749
asbasbasbag60
(g76
g62
NtRp2750
(dp2751
g65
(dp2752
sg74
g2282
sg67
(lp2753
g60
(g81
g62
NtRp2754
(dp2755
g65
(dp2756
g85
g86
ssg74
g2750
sg67
(lp2757
S'wsgi.input'
p2758
asbag60
(g81
g62
NtRp2759
(dp2760
g65
(dp2761
g92
g93
ssg74
g2750
sg67
(lp2762
S':'
asbag60
(g81
g62
NtRp2763
(dp2764
g65
(dp2765
sg74
g2750
sg67
(lp2766
g60
(g61
g62
NtRp2767
(dp2768
g65
(dp2769
g73
I3
ssg74
g2763
sg67
(lp2770
S'<cStringIO.StringO object at 0x9f0fa40>'
p2771
asbasbasbag60
(g76
g62
NtRp2772
(dp2773
g65
(dp2774
sg74
g2282
sg67
(lp2775
g60
(g81
g62
NtRp2776
(dp2777
g65
(dp2778
g85
g86
ssg74
g2772
sg67
(lp2779
S'wsgi.multiprocess'
p2780
asbag60
(g81
g62
NtRp2781
(dp2782
g65
(dp2783
g92
g93
ssg74
g2772
sg67
(lp2784
S':'
asbag60
(g81
g62
NtRp2785
(dp2786
g65
(dp2787
sg74
g2772
sg67
(lp2788
g60
(g61
g62
NtRp2789
(dp2790
g65
(dp2791
g73
I3
ssg74
g2785
sg67
(lp2792
g103
asbasbasbag60
(g76
g62
NtRp2793
(dp2794
g65
(dp2795
sg74
g2282
sg67
(lp2796
g60
(g81
g62
NtRp2797
(dp2798
g65
(dp2799
g85
g86
ssg74
g2793
sg67
(lp2800
S'wsgi.multithread'
p2801
asbag60
(g81
g62
NtRp2802
(dp2803
g65
(dp2804
g92
g93
ssg74
g2793
sg67
(lp2805
S':'
asbag60
(g81
g62
NtRp2806
(dp2807
g65
(dp2808
sg74
g2793
sg67
(lp2809
g60
(g61
g62
NtRp2810
(dp2811
g65
(dp2812
g73
I3
ssg74
g2806
sg67
(lp2813
g1491
asbasbasbag60
(g76
g62
NtRp2814
(dp2815
g65
(dp2816
sg74
g2282
sg67
(lp2817
g60
(g81
g62
NtRp2818
(dp2819
g65
(dp2820
g85
g86
ssg74
g2814
sg67
(lp2821
S'wsgi.run_once'
p2822
asbag60
(g81
g62
NtRp2823
(dp2824
g65
(dp2825
g92
g93
ssg74
g2814
sg67
(lp2826
S':'
asbag60
(g81
g62
NtRp2827
(dp2828
g65
(dp2829
sg74
g2814
sg67
(lp2830
g60
(g61
g62
NtRp2831
(dp2832
g65
(dp2833
g73
I3
ssg74
g2827
sg67
(lp2834
g103
asbasbasbag60
(g76
g62
NtRp2835
(dp2836
g65
(dp2837
sg74
g2282
sg67
(lp2838
g60
(g81
g62
NtRp2839
(dp2840
g65
(dp2841
g85
g86
ssg74
g2835
sg67
(lp2842
S'wsgi.url_scheme'
p2843
asbag60
(g81
g62
NtRp2844
(dp2845
g65
(dp2846
g92
g93
ssg74
g2835
sg67
(lp2847
S':'
asbag60
(g81
g62
NtRp2848
(dp2849
g65
(dp2850
sg74
g2835
sg67
(lp2851
g60
(g61
g62
NtRp2852
(dp2853
g65
(dp2854
g73
I3
ssg74
g2848
sg67
(lp2855
g1534
asbasbasbag60
(g76
g62
NtRp2856
(dp2857
g65
(dp2858
sg74
g2282
sg67
(lp2859
g60
(g81
g62
NtRp2860
(dp2861
g65
(dp2862
g85
g86
ssg74
g2856
sg67
(lp2863
S'wsgi.version'
p2864
asbag60
(g81
g62
NtRp2865
(dp2866
g65
(dp2867
g92
g93
ssg74
g2856
sg67
(lp2868
S':'
asbag60
(g81
g62
NtRp2869
(dp2870
g65
(dp2871
sg74
g2856
sg67
(lp2872
g60
(g61
g62
NtRp2873
(dp2874
g65
(dp2875
g73
I3
ssg74
g2869
sg67
(lp2876
S'1'
asbasbasbasbasbasbasbasbasbasbasbasbasbsS'frames'
p2877
(lp2878
(dp2879
S'file'
p2880
S'/users/udimilo/Documents/web2py/gluon/restricted.py'
p2881
sS'dump'
p2882
(dp2883
S'code'
p2884
S'\'if request.args.ajax == True\\nresponse.write(\\\'\\\\n\\\'...js"></script>\\\\n</body>\\\\n</html>\\\\n\\\', escape=False)\''
p2885
sS'layer'
p2886
S"'/Users/udimilo/Documents/web2py/applications/udi0312/views/default/articles.html'"
p2887
sS'global compile2'
p2888
S'<function compile2 at 0x20e1cf0>'
p2889
sS'ccode'
p2890
S'undefined'
p2891
ssS'lnum'
p2892
I204
sS'lines'
p2893
(dp2894
I199
S"    environment['__name__'] = '__restricted__'"
p2895
sI200
S'    try:'
p2896
sI201
S'        if type(code) == types.CodeType:'
p2897
sI202
S'            ccode = code'
p2898
sI203
S'        else:'
p2899
sI204
S'            ccode = compile2(code,layer)'
p2900
sI205
S'        exec ccode in environment'
p2901
sI206
S'    except HTTP:'
p2902
sI207
S'        raise'
p2903
sI208
S'    except RestrictedError:'
p2904
ssS'call'
p2905
S'(code=\'if request.args.ajax == True\\nresponse.write(\\\'\\\\n\\\'...js"></script>\\\\n</body>\\\\n</html>\\\\n\\\', escape=False)\', environment={\'A\': <class \'gluon.html.A\'>, \'Auth\': <class \'gluon.tools.Auth\'>, \'B\': <class \'gluon.html.B\'>, \'BEAUTIFY\': <class \'gluon.html.BEAUTIFY\'>, \'BODY\': <class \'gluon.html.BODY\'>, \'BR\': <class \'gluon.html.BR\'>, \'BUTTON\': <class \'gluon.html.BUTTON\'>, \'CAT\': <class \'gluon.html.CAT\'>, \'CENTER\': <class \'gluon.html.CENTER\'>, \'CLEANUP\': <class \'gluon.validators.CLEANUP\'>, ...}, layer=\'/Users/udimilo/Documents/web2py/applications/udi0312/views/default/articles.html\')'
p2906
sS'func'
p2907
S'restricted'
p2908
sa(dp2909
g2880
S'/users/udimilo/Documents/web2py/gluon/restricted.py'
p2910
sg2882
(dp2911
S'builtincompile'
p2912
S'<built-in function compile>'
p2913
sS'code'
p2914
S'\'if request.args.ajax == True\\nresponse.write(\\\'\\\\n\\\'...js"></script>\\\\n</body>\\\\n</html>\\\\n\\\', escape=False)\''
p2915
sS'code.rstrip'
p2916
S'<built-in method rstrip of str object at 0xd49000>'
p2917
sS').replace'
p2918
g2891
sS'layer'
p2919
S"'/Users/udimilo/Documents/web2py/applications/udi0312/views/default/articles.html'"
p2920
ssg2892
I189
sg2893
(dp2921
I192
S'    """'
p2922
sI193
S'    runs code in environment and returns the output. if an exception occurs'
p2923
sI184
S''
sI185
S'def compile2(code,layer):'
p2924
sI186
S'    """'
p2925
sI187
S"    The +'\\n' is necessary else compile fails when code ends in a comment."
p2926
sI188
S'    """'
p2927
sI189
S"    return compile(code.rstrip().replace('\\r\\n','\\n')+'\\n', layer, 'exec')"
p2928
sI190
S''
sI191
S"def restricted(code, environment=None, layer='Unknown'):"
p2929
ssg2905
S'(code=\'if request.args.ajax == True\\nresponse.write(\\\'\\\\n\\\'...js"></script>\\\\n</body>\\\\n</html>\\\\n\\\', escape=False)\', layer=\'/Users/udimilo/Documents/web2py/applications/udi0312/views/default/articles.html\')'
p2930
sg2907
S'compile2'
p2931
sasS'pyver'
p2932
S'Python 2.5.4: /Library/Frameworks/Python.framework/Versions/2.5/Resources/Python.app/Contents/MacOS/Python'
p2933
sS'session'
p2934
g60
(g61
g62
NtRp2935
(dp2936
g65
(dp2937
sg67
(lp2938
g60
(g69
g62
NtRp2939
(dp2940
g65
(dp2941
g73
I5
ssg74
Nsg67
(lp2942
g60
(g76
g62
NtRp2943
(dp2944
g65
(dp2945
sg74
g2939
sg67
(lp2946
g60
(g81
g62
NtRp2947
(dp2948
g65
(dp2949
g85
g86
ssg74
g2943
sg67
(lp2950
S'auth'
p2951
asbag60
(g81
g62
NtRp2952
(dp2953
g65
(dp2954
g92
g93
ssg74
g2943
sg67
(lp2955
S':'
asbag60
(g81
g62
NtRp2956
(dp2957
g65
(dp2958
sg74
g2943
sg67
(lp2959
g60
(g61
g62
NtRp2960
(dp2961
g65
(dp2962
g73
I5
ssg74
g2956
sg67
(lp2963
g60
(g69
g62
NtRp2964
(dp2965
g65
(dp2966
g73
I4
ssg74
Nsg67
(lp2967
g60
(g76
g62
NtRp2968
(dp2969
g65
(dp2970
sg74
g2964
sg67
(lp2971
g60
(g81
g62
NtRp2972
(dp2973
g65
(dp2974
g85
g86
ssg74
g2968
sg67
(lp2975
S'expiration'
p2976
asbag60
(g81
g62
NtRp2977
(dp2978
g65
(dp2979
g92
g93
ssg74
g2968
sg67
(lp2980
S':'
asbag60
(g81
g62
NtRp2981
(dp2982
g65
(dp2983
sg74
g2968
sg67
(lp2984
g60
(g61
g62
NtRp2985
(dp2986
g65
(dp2987
g73
I4
ssg74
g2981
sg67
(lp2988
S'3600'
p2989
asbasbasbag60
(g76
g62
NtRp2990
(dp2991
g65
(dp2992
sg74
g2964
sg67
(lp2993
g60
(g81
g62
NtRp2994
(dp2995
g65
(dp2996
g85
g86
ssg74
g2990
sg67
(lp2997
S'hmac_key'
p2998
asbag60
(g81
g62
NtRp2999
(dp3000
g65
(dp3001
g92
g93
ssg74
g2990
sg67
(lp3002
S':'
asbag60
(g81
g62
NtRp3003
(dp3004
g65
(dp3005
sg74
g2990
sg67
(lp3006
g60
(g61
g62
NtRp3007
(dp3008
g65
(dp3009
g73
I4
ssg74
g3003
sg67
(lp3010
S'7f7fbb55-8028-4e96-b246-d367ecfcc0d5'
p3011
asbasbasbag60
(g76
g62
NtRp3012
(dp3013
g65
(dp3014
sg74
g2964
sg67
(lp3015
g60
(g81
g62
NtRp3016
(dp3017
g65
(dp3018
g85
g86
ssg74
g3012
sg67
(lp3019
S'last_visit'
p3020
asbag60
(g81
g62
NtRp3021
(dp3022
g65
(dp3023
g92
g93
ssg74
g3012
sg67
(lp3024
S':'
asbag60
(g81
g62
NtRp3025
(dp3026
g65
(dp3027
sg74
g3012
sg67
(lp3028
g60
(g61
g62
NtRp3029
(dp3030
g65
(dp3031
g73
I4
ssg74
g3025
sg67
(lp3032
S'datetime.datetime(2012, 3, 26, 12, 37, 5, 988775)'
p3033
asbasbasbag60
(g76
g62
NtRp3034
(dp3035
g65
(dp3036
sg74
g2964
sg67
(lp3037
g60
(g81
g62
NtRp3038
(dp3039
g65
(dp3040
g85
g86
ssg74
g3034
sg67
(lp3041
S'remember'
p3042
asbag60
(g81
g62
NtRp3043
(dp3044
g65
(dp3045
g92
g93
ssg74
g3034
sg67
(lp3046
S':'
asbag60
(g81
g62
NtRp3047
(dp3048
g65
(dp3049
sg74
g3034
sg67
(lp3050
g60
(g61
g62
NtRp3051
(dp3052
g65
(dp3053
g73
I4
ssg74
g3047
sg67
(lp3054
g103
asbasbasbag60
(g76
g62
NtRp3055
(dp3056
g65
(dp3057
sg74
g2964
sg67
(lp3058
g60
(g81
g62
NtRp3059
(dp3060
g65
(dp3061
g85
g86
ssg74
g3055
sg67
(lp3062
S'user'
p3063
asbag60
(g81
g62
NtRp3064
(dp3065
g65
(dp3066
g92
g93
ssg74
g3055
sg67
(lp3067
S':'
asbag60
(g81
g62
NtRp3068
(dp3069
g65
(dp3070
sg74
g3055
sg67
(lp3071
g60
(g61
g62
NtRp3072
(dp3073
g65
(dp3074
g73
I4
ssg74
g3068
sg67
(lp3075
g60
(g69
g62
NtRp3076
(dp3077
g65
(dp3078
g73
I3
ssg74
Nsg67
(lp3079
g60
(g76
g62
NtRp3080
(dp3081
g65
(dp3082
sg74
g3076
sg67
(lp3083
g60
(g81
g62
NtRp3084
(dp3085
g65
(dp3086
g85
g86
ssg74
g3080
sg67
(lp3087
S'email'
p3088
asbag60
(g81
g62
NtRp3089
(dp3090
g65
(dp3091
g92
g93
ssg74
g3080
sg67
(lp3092
S':'
asbag60
(g81
g62
NtRp3093
(dp3094
g65
(dp3095
sg74
g3080
sg67
(lp3096
g60
(g61
g62
NtRp3097
(dp3098
g65
(dp3099
g73
I3
ssg74
g3093
sg67
(lp3100
S'udimilo@gmail.com'
p3101
asbasbasbag60
(g76
g62
NtRp3102
(dp3103
g65
(dp3104
sg74
g3076
sg67
(lp3105
g60
(g81
g62
NtRp3106
(dp3107
g65
(dp3108
g85
g86
ssg74
g3102
sg67
(lp3109
S'first_name'
p3110
asbag60
(g81
g62
NtRp3111
(dp3112
g65
(dp3113
g92
g93
ssg74
g3102
sg67
(lp3114
S':'
asbag60
(g81
g62
NtRp3115
(dp3116
g65
(dp3117
sg74
g3102
sg67
(lp3118
g60
(g61
g62
NtRp3119
(dp3120
g65
(dp3121
g73
I3
ssg74
g3115
sg67
(lp3122
S'Udi'
p3123
asbasbasbag60
(g76
g62
NtRp3124
(dp3125
g65
(dp3126
sg74
g3076
sg67
(lp3127
g60
(g81
g62
NtRp3128
(dp3129
g65
(dp3130
g85
g86
ssg74
g3124
sg67
(lp3131
S'id'
p3132
asbag60
(g81
g62
NtRp3133
(dp3134
g65
(dp3135
g92
g93
ssg74
g3124
sg67
(lp3136
S':'
asbag60
(g81
g62
NtRp3137
(dp3138
g65
(dp3139
sg74
g3124
sg67
(lp3140
g60
(g61
g62
NtRp3141
(dp3142
g65
(dp3143
g73
I3
ssg74
g3137
sg67
(lp3144
S'1'
asbasbasbag60
(g76
g62
NtRp3145
(dp3146
g65
(dp3147
sg74
g3076
sg67
(lp3148
g60
(g81
g62
NtRp3149
(dp3150
g65
(dp3151
g85
g86
ssg74
g3145
sg67
(lp3152
S'last_name'
p3153
asbag60
(g81
g62
NtRp3154
(dp3155
g65
(dp3156
g92
g93
ssg74
g3145
sg67
(lp3157
S':'
asbag60
(g81
g62
NtRp3158
(dp3159
g65
(dp3160
sg74
g3145
sg67
(lp3161
g60
(g61
g62
NtRp3162
(dp3163
g65
(dp3164
g73
I3
ssg74
g3158
sg67
(lp3165
S'Milo'
p3166
asbasbasbag60
(g76
g62
NtRp3167
(dp3168
g65
(dp3169
sg74
g3076
sg67
(lp3170
g60
(g81
g62
NtRp3171
(dp3172
g65
(dp3173
g85
g86
ssg74
g3167
sg67
(lp3174
S'password'
p3175
asbag60
(g81
g62
NtRp3176
(dp3177
g65
(dp3178
g92
g93
ssg74
g3167
sg67
(lp3179
S':'
asbag60
(g81
g62
NtRp3180
(dp3181
g65
(dp3182
sg74
g3167
sg67
(lp3183
g60
(g61
g62
NtRp3184
(dp3185
g65
(dp3186
g73
I3
ssg74
g3180
sg67
(lp3187
S'7a6e3c6a68ceed66634484a3f64a3468'
p3188
asbasbasbag60
(g76
g62
NtRp3189
(dp3190
g65
(dp3191
sg74
g3076
sg67
(lp3192
g60
(g81
g62
NtRp3193
(dp3194
g65
(dp3195
g85
g86
ssg74
g3189
sg67
(lp3196
S'registration_id'
p3197
asbag60
(g81
g62
NtRp3198
(dp3199
g65
(dp3200
g92
g93
ssg74
g3189
sg67
(lp3201
S':'
asbag60
(g81
g62
NtRp3202
(dp3203
g65
(dp3204
sg74
g3189
sg67
(lp3205
g60
(g61
g62
NtRp3206
(dp3207
g65
(dp3208
g73
I3
ssg74
g3202
sg67
(lp3209
S''
asbasbasbag60
(g76
g62
NtRp3210
(dp3211
g65
(dp3212
sg74
g3076
sg67
(lp3213
g60
(g81
g62
NtRp3214
(dp3215
g65
(dp3216
g85
g86
ssg74
g3210
sg67
(lp3217
S'registration_key'
p3218
asbag60
(g81
g62
NtRp3219
(dp3220
g65
(dp3221
g92
g93
ssg74
g3210
sg67
(lp3222
S':'
asbag60
(g81
g62
NtRp3223
(dp3224
g65
(dp3225
sg74
g3210
sg67
(lp3226
g60
(g61
g62
NtRp3227
(dp3228
g65
(dp3229
g73
I3
ssg74
g3223
sg67
(lp3230
S''
asbasbasbag60
(g76
g62
NtRp3231
(dp3232
g65
(dp3233
sg74
g3076
sg67
(lp3234
g60
(g81
g62
NtRp3235
(dp3236
g65
(dp3237
g85
g86
ssg74
g3231
sg67
(lp3238
S'reset_password_key'
p3239
asbag60
(g81
g62
NtRp3240
(dp3241
g65
(dp3242
g92
g93
ssg74
g3231
sg67
(lp3243
S':'
asbag60
(g81
g62
NtRp3244
(dp3245
g65
(dp3246
sg74
g3231
sg67
(lp3247
g60
(g61
g62
NtRp3248
(dp3249
g65
(dp3250
g73
I3
ssg74
g3244
sg67
(lp3251
S''
asbasbasbasbasbasbasbag60
(g76
g62
NtRp3252
(dp3253
g65
(dp3254
sg74
g2964
sg67
(lp3255
g60
(g81
g62
NtRp3256
(dp3257
g65
(dp3258
g85
g86
ssg74
g3252
sg67
(lp3259
S'user_groups'
p3260
asbag60
(g81
g62
NtRp3261
(dp3262
g65
(dp3263
g92
g93
ssg74
g3252
sg67
(lp3264
S':'
asbag60
(g81
g62
NtRp3265
(dp3266
g65
(dp3267
sg74
g3252
sg67
(lp3268
g60
(g61
g62
NtRp3269
(dp3270
g65
(dp3271
g73
I4
ssg74
g3265
sg67
(lp3272
g60
(g69
g62
NtRp3273
(dp3274
g65
(dp3275
g73
I3
ssg74
Nsg67
(lp3276
g60
(g76
g62
NtRp3277
(dp3278
g65
(dp3279
sg74
g3273
sg67
(lp3280
g60
(g81
g62
NtRp3281
(dp3282
g65
(dp3283
g85
g86
ssg74
g3277
sg67
(lp3284
S'1'
asbag60
(g81
g62
NtRp3285
(dp3286
g65
(dp3287
g92
g93
ssg74
g3277
sg67
(lp3288
S':'
asbag60
(g81
g62
NtRp3289
(dp3290
g65
(dp3291
sg74
g3277
sg67
(lp3292
g60
(g61
g62
NtRp3293
(dp3294
g65
(dp3295
g73
I3
ssg74
g3289
sg67
(lp3296
S'user_1'
p3297
asbasbasbasbasbasbasbasbasbasbasbag60
(g76
g62
NtRp3298
(dp3299
g65
(dp3300
sg74
g2939
sg67
(lp3301
g60
(g81
g62
NtRp3302
(dp3303
g65
(dp3304
g85
g86
ssg74
g3298
sg67
(lp3305
S'last_query'
p3306
asbag60
(g81
g62
NtRp3307
(dp3308
g65
(dp3309
g92
g93
ssg74
g3298
sg67
(lp3310
S':'
asbag60
(g81
g62
NtRp3311
(dp3312
g65
(dp3313
sg74
g3298
sg67
(lp3314
g60
(g61
g62
NtRp3315
(dp3316
g65
(dp3317
g73
I5
ssg74
g3311
sg67
(lp3318
S'db.article.id>0'
p3319
asbasbasbasbasbsS'etype'
p3320
S"<type 'exceptions.SyntaxError'>"
p3321
sS'date'
p3322
S'Mon Mar 26 12:39:18 2012'
p3323
sS'response'
p3324
g60
(g61
g62
NtRp3325
(dp3326
g65
(dp3327
sg67
(lp3328
g60
(g69
g62
NtRp3329
(dp3330
g65
(dp3331
g73
I5
ssg74
Nsg67
(lp3332
g60
(g76
g62
NtRp3333
(dp3334
g65
(dp3335
sg74
g3329
sg67
(lp3336
g60
(g81
g62
NtRp3337
(dp3338
g65
(dp3339
g85
g86
ssg74
g3333
sg67
(lp3340
g171
asbag60
(g81
g62
NtRp3341
(dp3342
g65
(dp3343
g92
g93
ssg74
g3333
sg67
(lp3344
S':'
asbag60
(g81
g62
NtRp3345
(dp3346
g65
(dp3347
sg74
g3333
sg67
(lp3348
g60
(g61
g62
NtRp3349
(dp3350
g65
(dp3351
g73
I5
ssg74
g3345
sg67
(lp3352
S'<cStringIO.StringO object at 0x9f0f240>'
p3353
asbasbasbag60
(g76
g62
NtRp3354
(dp3355
g65
(dp3356
sg74
g3329
sg67
(lp3357
g60
(g81
g62
NtRp3358
(dp3359
g65
(dp3360
g85
g86
ssg74
g3354
sg67
(lp3361
g237
asbag60
(g81
g62
NtRp3362
(dp3363
g65
(dp3364
g92
g93
ssg74
g3354
sg67
(lp3365
S':'
asbag60
(g81
g62
NtRp3366
(dp3367
g65
(dp3368
sg74
g3354
sg67
(lp3369
g60
(g61
g62
NtRp3370
(dp3371
g65
(dp3372
g73
I5
ssg74
g3366
sg67
(lp3373
g60
(g69
g62
NtRp3374
(dp3375
g65
(dp3376
g73
I4
ssg74
Nsg67
(lp3377
g60
(g76
g62
NtRp3378
(dp3379
g65
(dp3380
sg74
g3374
sg67
(lp3381
g60
(g81
g62
NtRp3382
(dp3383
g65
(dp3384
g85
g86
ssg74
g3378
sg67
(lp3385
S'session_id_udi0312'
p3386
asbag60
(g81
g62
NtRp3387
(dp3388
g65
(dp3389
g92
g93
ssg74
g3378
sg67
(lp3390
S':'
asbag60
(g81
g62
NtRp3391
(dp3392
g65
(dp3393
sg74
g3378
sg67
(lp3394
g60
(g61
g62
NtRp3395
(dp3396
g65
(dp3397
g73
I4
ssg74
g3391
sg67
(lp3398
g60
(g69
g62
NtRp3399
(dp3400
g65
(dp3401
g73
I3
ssg74
Nsg67
(lp3402
g60
(g76
g62
NtRp3403
(dp3404
g65
(dp3405
sg74
g3399
sg67
(lp3406
g60
(g81
g62
NtRp3407
(dp3408
g65
(dp3409
g85
g86
ssg74
g3403
sg67
(lp3410
g287
asbag60
(g81
g62
NtRp3411
(dp3412
g65
(dp3413
g92
g93
ssg74
g3403
sg67
(lp3414
S':'
asbag60
(g81
g62
NtRp3415
(dp3416
g65
(dp3417
sg74
g3403
sg67
(lp3418
g60
(g61
g62
NtRp3419
(dp3420
g65
(dp3421
g73
I3
ssg74
g3415
sg67
(lp3422
S''
asbasbasbag60
(g76
g62
NtRp3423
(dp3424
g65
(dp3425
sg74
g3399
sg67
(lp3426
g60
(g81
g62
NtRp3427
(dp3428
g65
(dp3429
g85
g86
ssg74
g3423
sg67
(lp3430
g308
asbag60
(g81
g62
NtRp3431
(dp3432
g65
(dp3433
g92
g93
ssg74
g3423
sg67
(lp3434
S':'
asbag60
(g81
g62
NtRp3435
(dp3436
g65
(dp3437
sg74
g3423
sg67
(lp3438
g60
(g61
g62
NtRp3439
(dp3440
g65
(dp3441
g73
I3
ssg74
g3435
sg67
(lp3442
S''
asbasbasbag60
(g76
g62
NtRp3443
(dp3444
g65
(dp3445
sg74
g3399
sg67
(lp3446
g60
(g81
g62
NtRp3447
(dp3448
g65
(dp3449
g85
g86
ssg74
g3443
sg67
(lp3450
g329
asbag60
(g81
g62
NtRp3451
(dp3452
g65
(dp3453
g92
g93
ssg74
g3443
sg67
(lp3454
S':'
asbag60
(g81
g62
NtRp3455
(dp3456
g65
(dp3457
sg74
g3443
sg67
(lp3458
g60
(g61
g62
NtRp3459
(dp3460
g65
(dp3461
g73
I3
ssg74
g3455
sg67
(lp3462
S''
asbasbasbag60
(g76
g62
NtRp3463
(dp3464
g65
(dp3465
sg74
g3399
sg67
(lp3466
g60
(g81
g62
NtRp3467
(dp3468
g65
(dp3469
g85
g86
ssg74
g3463
sg67
(lp3470
g350
asbag60
(g81
g62
NtRp3471
(dp3472
g65
(dp3473
g92
g93
ssg74
g3463
sg67
(lp3474
S':'
asbag60
(g81
g62
NtRp3475
(dp3476
g65
(dp3477
sg74
g3463
sg67
(lp3478
g60
(g61
g62
NtRp3479
(dp3480
g65
(dp3481
g73
I3
ssg74
g3475
sg67
(lp3482
S''
asbasbasbag60
(g76
g62
NtRp3483
(dp3484
g65
(dp3485
sg74
g3399
sg67
(lp3486
g60
(g81
g62
NtRp3487
(dp3488
g65
(dp3489
g85
g86
ssg74
g3483
sg67
(lp3490
g371
asbag60
(g81
g62
NtRp3491
(dp3492
g65
(dp3493
g92
g93
ssg74
g3483
sg67
(lp3494
S':'
asbag60
(g81
g62
NtRp3495
(dp3496
g65
(dp3497
sg74
g3483
sg67
(lp3498
g60
(g61
g62
NtRp3499
(dp3500
g65
(dp3501
g73
I3
ssg74
g3495
sg67
(lp3502
S'/'
asbasbasbag60
(g76
g62
NtRp3503
(dp3504
g65
(dp3505
sg74
g3399
sg67
(lp3506
g60
(g81
g62
NtRp3507
(dp3508
g65
(dp3509
g85
g86
ssg74
g3503
sg67
(lp3510
g392
asbag60
(g81
g62
NtRp3511
(dp3512
g65
(dp3513
g92
g93
ssg74
g3503
sg67
(lp3514
S':'
asbag60
(g81
g62
NtRp3515
(dp3516
g65
(dp3517
sg74
g3503
sg67
(lp3518
g60
(g61
g62
NtRp3519
(dp3520
g65
(dp3521
g73
I3
ssg74
g3515
sg67
(lp3522
S''
asbasbasbag60
(g76
g62
NtRp3523
(dp3524
g65
(dp3525
sg74
g3399
sg67
(lp3526
g60
(g81
g62
NtRp3527
(dp3528
g65
(dp3529
g85
g86
ssg74
g3523
sg67
(lp3530
g413
asbag60
(g81
g62
NtRp3531
(dp3532
g65
(dp3533
g92
g93
ssg74
g3523
sg67
(lp3534
S':'
asbag60
(g81
g62
NtRp3535
(dp3536
g65
(dp3537
sg74
g3523
sg67
(lp3538
g60
(g61
g62
NtRp3539
(dp3540
g65
(dp3541
g73
I3
ssg74
g3535
sg67
(lp3542
S''
asbasbasbasbasbasbasbasbasbasbasbag60
(g76
g62
NtRp3543
(dp3544
g65
(dp3545
sg74
g3329
sg67
(lp3546
g60
(g81
g62
NtRp3547
(dp3548
g65
(dp3549
g85
g86
ssg74
g3543
sg67
(lp3550
S'delimiters'
p3551
asbag60
(g81
g62
NtRp3552
(dp3553
g65
(dp3554
g92
g93
ssg74
g3543
sg67
(lp3555
S':'
asbag60
(g81
g62
NtRp3556
(dp3557
g65
(dp3558
sg74
g3543
sg67
(lp3559
g60
(g61
g62
NtRp3560
(dp3561
g65
(dp3562
g73
I5
ssg74
g3556
sg67
(lp3563
g60
(g69
g62
NtRp3564
(dp3565
g65
(dp3566
g73
I4
ssg74
Nsg67
(lp3567
g60
(g76
g62
NtRp3568
(dp3569
g65
(dp3570
sg74
g3564
sg67
(lp3571
g60
(g81
g62
NtRp3572
(dp3573
g65
(dp3574
sg74
g3568
sg67
(lp3575
g60
(g61
g62
NtRp3576
(dp3577
g65
(dp3578
g73
I4
ssg74
g3572
sg67
(lp3579
S'{{'
p3580
asbasbasbag60
(g76
g62
NtRp3581
(dp3582
g65
(dp3583
sg74
g3564
sg67
(lp3584
g60
(g81
g62
NtRp3585
(dp3586
g65
(dp3587
sg74
g3581
sg67
(lp3588
g60
(g61
g62
NtRp3589
(dp3590
g65
(dp3591
g73
I4
ssg74
g3585
sg67
(lp3592
S'}}'
p3593
asbasbasbasbasbasbasbag60
(g76
g62
NtRp3594
(dp3595
g65
(dp3596
sg74
g3329
sg67
(lp3597
g60
(g81
g62
NtRp3598
(dp3599
g65
(dp3600
g85
g86
ssg74
g3594
sg67
(lp3601
S'files'
p3602
asbag60
(g81
g62
NtRp3603
(dp3604
g65
(dp3605
g92
g93
ssg74
g3594
sg67
(lp3606
S':'
asbag60
(g81
g62
NtRp3607
(dp3608
g65
(dp3609
sg74
g3594
sg67
(lp3610
g60
(g61
g62
NtRp3611
(dp3612
g65
(dp3613
g73
I5
ssg74
g3607
sg67
(lp3614
g60
(g69
g62
NtRp3615
(dp3616
g65
(dp3617
g73
I4
ssg74
Nsg67
(lp3618
sbasbasbasbag60
(g76
g62
NtRp3619
(dp3620
g65
(dp3621
sg74
g3329
sg67
(lp3622
g60
(g81
g62
NtRp3623
(dp3624
g65
(dp3625
g85
g86
ssg74
g3619
sg67
(lp3626
S'flash'
p3627
asbag60
(g81
g62
NtRp3628
(dp3629
g65
(dp3630
g92
g93
ssg74
g3619
sg67
(lp3631
S':'
asbag60
(g81
g62
NtRp3632
(dp3633
g65
(dp3634
sg74
g3619
sg67
(lp3635
g60
(g61
g62
NtRp3636
(dp3637
g65
(dp3638
g73
I5
ssg74
g3632
sg67
(lp3639
S''
asbasbasbag60
(g76
g62
NtRp3640
(dp3641
g65
(dp3642
sg74
g3329
sg67
(lp3643
g60
(g81
g62
NtRp3644
(dp3645
g65
(dp3646
g85
g86
ssg74
g3640
sg67
(lp3647
S'generic_patterns'
p3648
asbag60
(g81
g62
NtRp3649
(dp3650
g65
(dp3651
g92
g93
ssg74
g3640
sg67
(lp3652
S':'
asbag60
(g81
g62
NtRp3653
(dp3654
g65
(dp3655
sg74
g3640
sg67
(lp3656
g60
(g61
g62
NtRp3657
(dp3658
g65
(dp3659
g73
I5
ssg74
g3653
sg67
(lp3660
g60
(g69
g62
NtRp3661
(dp3662
g65
(dp3663
g73
I4
ssg74
Nsg67
(lp3664
g60
(g76
g62
NtRp3665
(dp3666
g65
(dp3667
sg74
g3661
sg67
(lp3668
g60
(g81
g62
NtRp3669
(dp3670
g65
(dp3671
sg74
g3665
sg67
(lp3672
g60
(g61
g62
NtRp3673
(dp3674
g65
(dp3675
g73
I4
ssg74
g3669
sg67
(lp3676
S'*'
asbasbasbasbasbasbasbag60
(g76
g62
NtRp3677
(dp3678
g65
(dp3679
sg74
g3329
sg67
(lp3680
g60
(g81
g62
NtRp3681
(dp3682
g65
(dp3683
g85
g86
ssg74
g3677
sg67
(lp3684
S'headers'
p3685
asbag60
(g81
g62
NtRp3686
(dp3687
g65
(dp3688
g92
g93
ssg74
g3677
sg67
(lp3689
S':'
asbag60
(g81
g62
NtRp3690
(dp3691
g65
(dp3692
sg74
g3677
sg67
(lp3693
g60
(g61
g62
NtRp3694
(dp3695
g65
(dp3696
g73
I5
ssg74
g3690
sg67
(lp3697
g60
(g69
g62
NtRp3698
(dp3699
g65
(dp3700
g73
I4
ssg74
Nsg67
(lp3701
g60
(g76
g62
NtRp3702
(dp3703
g65
(dp3704
sg74
g3698
sg67
(lp3705
g60
(g81
g62
NtRp3706
(dp3707
g65
(dp3708
g85
g86
ssg74
g3702
sg67
(lp3709
S'Cache-Control'
p3710
asbag60
(g81
g62
NtRp3711
(dp3712
g65
(dp3713
g92
g93
ssg74
g3702
sg67
(lp3714
S':'
asbag60
(g81
g62
NtRp3715
(dp3716
g65
(dp3717
sg74
g3702
sg67
(lp3718
g60
(g61
g62
NtRp3719
(dp3720
g65
(dp3721
g73
I4
ssg74
g3715
sg67
(lp3722
S'no-store, no-cache, must-revalidate, post-check=0, pre-check=0'
p3723
asbasbasbag60
(g76
g62
NtRp3724
(dp3725
g65
(dp3726
sg74
g3698
sg67
(lp3727
g60
(g81
g62
NtRp3728
(dp3729
g65
(dp3730
g85
g86
ssg74
g3724
sg67
(lp3731
S'Content-Type'
p3732
asbag60
(g81
g62
NtRp3733
(dp3734
g65
(dp3735
g92
g93
ssg74
g3724
sg67
(lp3736
S':'
asbag60
(g81
g62
NtRp3737
(dp3738
g65
(dp3739
sg74
g3724
sg67
(lp3740
g60
(g61
g62
NtRp3741
(dp3742
g65
(dp3743
g73
I4
ssg74
g3737
sg67
(lp3744
S'text/html; charset=utf-8'
p3745
asbasbasbag60
(g76
g62
NtRp3746
(dp3747
g65
(dp3748
sg74
g3698
sg67
(lp3749
g60
(g81
g62
NtRp3750
(dp3751
g65
(dp3752
g85
g86
ssg74
g3746
sg67
(lp3753
S'Expires'
p3754
asbag60
(g81
g62
NtRp3755
(dp3756
g65
(dp3757
g92
g93
ssg74
g3746
sg67
(lp3758
S':'
asbag60
(g81
g62
NtRp3759
(dp3760
g65
(dp3761
sg74
g3746
sg67
(lp3762
g60
(g61
g62
NtRp3763
(dp3764
g65
(dp3765
g73
I4
ssg74
g3759
sg67
(lp3766
S'Mon, 26 Mar 2012 16:39:18 GMT'
p3767
asbasbasbag60
(g76
g62
NtRp3768
(dp3769
g65
(dp3770
sg74
g3698
sg67
(lp3771
g60
(g81
g62
NtRp3772
(dp3773
g65
(dp3774
g85
g86
ssg74
g3768
sg67
(lp3775
S'Pragma'
p3776
asbag60
(g81
g62
NtRp3777
(dp3778
g65
(dp3779
g92
g93
ssg74
g3768
sg67
(lp3780
S':'
asbag60
(g81
g62
NtRp3781
(dp3782
g65
(dp3783
sg74
g3768
sg67
(lp3784
g60
(g61
g62
NtRp3785
(dp3786
g65
(dp3787
g73
I4
ssg74
g3781
sg67
(lp3788
S'no-cache'
p3789
asbasbasbag60
(g76
g62
NtRp3790
(dp3791
g65
(dp3792
sg74
g3698
sg67
(lp3793
g60
(g81
g62
NtRp3794
(dp3795
g65
(dp3796
g85
g86
ssg74
g3790
sg67
(lp3797
S'X-Powered-By'
p3798
asbag60
(g81
g62
NtRp3799
(dp3800
g65
(dp3801
g92
g93
ssg74
g3790
sg67
(lp3802
S':'
asbag60
(g81
g62
NtRp3803
(dp3804
g65
(dp3805
sg74
g3790
sg67
(lp3806
g60
(g61
g62
NtRp3807
(dp3808
g65
(dp3809
g73
I4
ssg74
g3803
sg67
(lp3810
S'web2py'
p3811
asbasbasbasbasbasbasbag60
(g76
g62
NtRp3812
(dp3813
g65
(dp3814
sg74
g3329
sg67
(lp3815
g60
(g81
g62
NtRp3816
(dp3817
g65
(dp3818
g85
g86
ssg74
g3812
sg67
(lp3819
S'menu'
p3820
asbag60
(g81
g62
NtRp3821
(dp3822
g65
(dp3823
g92
g93
ssg74
g3812
sg67
(lp3824
S':'
asbag60
(g81
g62
NtRp3825
(dp3826
g65
(dp3827
sg74
g3812
sg67
(lp3828
g60
(g61
g62
NtRp3829
(dp3830
g65
(dp3831
g73
I5
ssg74
g3825
sg67
(lp3832
g60
(g69
g62
NtRp3833
(dp3834
g65
(dp3835
g73
I4
ssg74
Nsg67
(lp3836
g60
(g76
g62
NtRp3837
(dp3838
g65
(dp3839
sg74
g3833
sg67
(lp3840
g60
(g81
g62
NtRp3841
(dp3842
g65
(dp3843
sg74
g3837
sg67
(lp3844
g60
(g61
g62
NtRp3845
(dp3846
g65
(dp3847
g73
I4
ssg74
g3841
sg67
(lp3848
g60
(g69
g62
NtRp3849
(dp3850
g65
(dp3851
g73
I3
ssg74
Nsg67
(lp3852
g60
(g76
g62
NtRp3853
(dp3854
g65
(dp3855
sg74
g3849
sg67
(lp3856
g60
(g81
g62
NtRp3857
(dp3858
g65
(dp3859
sg74
g3853
sg67
(lp3860
g60
(g61
g62
NtRp3861
(dp3862
g65
(dp3863
g73
I3
ssg74
g3857
sg67
(lp3864
cgluon.languages
lazyT_unpickle
p3865
(S's\x04\x00\x00\x00Home'
tRp3866
asbasbasbag60
(g76
g62
NtRp3867
(dp3868
g65
(dp3869
sg74
g3849
sg67
(lp3870
g60
(g81
g62
NtRp3871
(dp3872
g65
(dp3873
sg74
g3867
sg67
(lp3874
g60
(g61
g62
NtRp3875
(dp3876
g65
(dp3877
g73
I3
ssg74
g3871
sg67
(lp3878
g103
asbasbasbag60
(g76
g62
NtRp3879
(dp3880
g65
(dp3881
sg74
g3849
sg67
(lp3882
g60
(g81
g62
NtRp3883
(dp3884
g65
(dp3885
sg74
g3879
sg67
(lp3886
g60
(g61
g62
NtRp3887
(dp3888
g65
(dp3889
g73
I3
ssg74
g3883
sg67
(lp3890
S'/'
asbasbasbag60
(g76
g62
NtRp3891
(dp3892
g65
(dp3893
sg74
g3849
sg67
(lp3894
g60
(g81
g62
NtRp3895
(dp3896
g65
(dp3897
sg74
g3891
sg67
(lp3898
g60
(g61
g62
NtRp3899
(dp3900
g65
(dp3901
g73
I3
ssg74
g3895
sg67
(lp3902
g60
(g69
g62
NtRp3903
(dp3904
g65
(dp3905
g73
I2
ssg74
Nsg67
(lp3906
sbasbasbasbasbasbasbasbag60
(g76
g62
NtRp3907
(dp3908
g65
(dp3909
sg74
g3833
sg67
(lp3910
g60
(g81
g62
NtRp3911
(dp3912
g65
(dp3913
sg74
g3907
sg67
(lp3914
g60
(g61
g62
NtRp3915
(dp3916
g65
(dp3917
g73
I4
ssg74
g3911
sg67
(lp3918
g60
(g69
g62
NtRp3919
(dp3920
g65
(dp3921
g73
I3
ssg74
Nsg67
(lp3922
g60
(g76
g62
NtRp3923
(dp3924
g65
(dp3925
sg74
g3919
sg67
(lp3926
g60
(g81
g62
NtRp3927
(dp3928
g65
(dp3929
sg74
g3923
sg67
(lp3930
g60
(g61
g62
NtRp3931
(dp3932
g65
(dp3933
g73
I3
ssg74
g3927
sg67
(lp3934
g60
(cgluon.html
SPAN
p3935
g62
NtRp3936
(dp3937
g65
(dp3938
g85
S'color:yellow'
p3939
ssg74
Nsg67
(lp3940
g3811
asbasbasbasbag60
(g76
g62
NtRp3941
(dp3942
g65
(dp3943
sg74
g3919
sg67
(lp3944
g60
(g81
g62
NtRp3945
(dp3946
g65
(dp3947
sg74
g3941
sg67
(lp3948
g60
(g61
g62
NtRp3949
(dp3950
g65
(dp3951
g73
I3
ssg74
g3945
sg67
(lp3952
g103
asbasbasbag60
(g76
g62
NtRp3953
(dp3954
g65
(dp3955
sg74
g3919
sg67
(lp3956
g60
(g81
g62
NtRp3957
(dp3958
g65
(dp3959
sg74
g3953
sg67
(lp3960
g60
(g61
g62
NtRp3961
(dp3962
g65
(dp3963
g73
I3
ssg74
g3957
sg67
(lp3964
S'None'
p3965
asbasbasbag60
(g76
g62
NtRp3966
(dp3967
g65
(dp3968
sg74
g3919
sg67
(lp3969
g60
(g81
g62
NtRp3970
(dp3971
g65
(dp3972
sg74
g3966
sg67
(lp3973
g60
(g61
g62
NtRp3974
(dp3975
g65
(dp3976
g73
I3
ssg74
g3970
sg67
(lp3977
g60
(g69
g62
NtRp3978
(dp3979
g65
(dp3980
g73
I2
ssg74
Nsg67
(lp3981
g60
(g76
g62
NtRp3982
(dp3983
g65
(dp3984
sg74
g3978
sg67
(lp3985
g60
(g81
g62
NtRp3986
(dp3987
g65
(dp3988
sg74
g3982
sg67
(lp3989
g60
(g61
g62
NtRp3990
(dp3991
g65
(dp3992
g73
I2
ssg74
g3986
sg67
(lp3993
g60
(g69
g62
NtRp3994
(dp3995
g65
(dp3996
g73
I1
ssg74
Nsg67
(lp3997
g60
(g76
g62
NtRp3998
(dp3999
g65
(dp4000
sg74
g3994
sg67
(lp4001
g60
(g81
g62
NtRp4002
(dp4003
g65
(dp4004
sg74
g3998
sg67
(lp4005
g60
(g61
g62
NtRp4006
(dp4007
g65
(dp4008
g73
I1
ssg74
g4002
sg67
(lp4009
g3865
(S's\x08\x00\x00\x00My Sites'
tRp4010
asbasbasbag60
(g76
g62
NtRp4011
(dp4012
g65
(dp4013
sg74
g3994
sg67
(lp4014
g60
(g81
g62
NtRp4015
(dp4016
g65
(dp4017
sg74
g4011
sg67
(lp4018
g60
(g61
g62
NtRp4019
(dp4020
g65
(dp4021
g73
I1
ssg74
g4015
sg67
(lp4022
I00
asbasbasbag60
(g76
g62
NtRp4023
(dp4024
g65
(dp4025
sg74
g3994
sg67
(lp4026
g60
(g81
g62
NtRp4027
(dp4028
g65
(dp4029
sg74
g4023
sg67
(lp4030
g60
(g61
g62
NtRp4031
(dp4032
g65
(dp4033
g73
I1
ssg74
g4027
sg67
(lp4034
S'/admin/site'
p4035
asbasbasbasbasbasbasbag60
(g76
g62
NtRp4036
(dp4037
g65
(dp4038
sg74
g3978
sg67
(lp4039
g60
(g81
g62
NtRp4040
(dp4041
g65
(dp4042
sg74
g4036
sg67
(lp4043
g60
(g61
g62
NtRp4044
(dp4045
g65
(dp4046
g73
I2
ssg74
g4040
sg67
(lp4047
g60
(g69
g62
NtRp4048
(dp4049
g65
(dp4050
g73
I1
ssg74
Nsg67
(lp4051
g60
(g76
g62
NtRp4052
(dp4053
g65
(dp4054
sg74
g4048
sg67
(lp4055
g60
(g81
g62
NtRp4056
(dp4057
g65
(dp4058
sg74
g4052
sg67
(lp4059
g60
(g61
g62
NtRp4060
(dp4061
g65
(dp4062
g73
I1
ssg74
g4056
sg67
(lp4063
g3865
(S's\x08\x00\x00\x00This App'
tRp4064
asbasbasbag60
(g76
g62
NtRp4065
(dp4066
g65
(dp4067
sg74
g4048
sg67
(lp4068
g60
(g81
g62
NtRp4069
(dp4070
g65
(dp4071
sg74
g4065
sg67
(lp4072
g60
(g61
g62
NtRp4073
(dp4074
g65
(dp4075
g73
I1
ssg74
g4069
sg67
(lp4076
I00
asbasbasbag60
(g76
g62
NtRp4077
(dp4078
g65
(dp4079
sg74
g4048
sg67
(lp4080
g60
(g81
g62
NtRp4081
(dp4082
g65
(dp4083
sg74
g4077
sg67
(lp4084
g60
(g61
g62
NtRp4085
(dp4086
g65
(dp4087
g73
I1
ssg74
g4081
sg67
(lp4088
S'/admin/design/udi0312'
p4089
asbasbasbag60
(g76
g62
NtRp4090
(dp4091
g65
(dp4092
sg74
g4048
sg67
(lp4093
g60
(g81
g62
NtRp4094
(dp4095
g65
(dp4096
sg74
g4090
sg67
(lp4097
g60
(g61
g62
NtRp4098
(dp4099
g65
(dp4100
g73
I1
ssg74
g4094
sg67
(lp4101
(lp4102
(g3865
(S's\n\x00\x00\x00Controller'
tRp4103
I00
S'/admin/edit/udi0312/controllers/default.py'
tp4104
a(g3865
(S's\x04\x00\x00\x00View'
tRp4105
I00
S'/admin/edit/udi0312/views/default/articles.html'
tp4106
a(g3865
(S's\x06\x00\x00\x00Layout'
tRp4107
I00
S'/admin/edit/udi0312/views/layout.html'
tp4108
a(g3865
(S's\n\x00\x00\x00Stylesheet'
tRp4109
I00
S'/admin/edit/udi0312/static/css/web2py.css'
tp4110
a(g3865
(S's\x08\x00\x00\x00DB Model'
tRp4111
I00
S'/admin/edit/udi0312/models/db.py'
tp4112
a(g3865
(S's\n\x00\x00\x00Menu Model'
tRp4113
I00
S'/admin/edit/udi0312/models/menu.py'
tp4114
a(g3865
(S's\x08\x00\x00\x00Database'
tRp4115
I00
S'/appadmin'
tp4116
a(g3865
(S's\x06\x00\x00\x00Errors'
tRp4117
I00
S'/admin/errors/udi0312'
tp4118
a(g3865
(S's\x05\x00\x00\x00About'
tRp4119
I00
S'/admin/about/udi0312'
tp4120
aasbasbasbasbasbasbasbag60
(g76
g62
NtRp4121
(dp4122
g65
(dp4123
sg74
g3978
sg67
(lp4124
g60
(g81
g62
NtRp4125
(dp4126
g65
(dp4127
sg74
g4121
sg67
(lp4128
g60
(g61
g62
NtRp4129
(dp4130
g65
(dp4131
g73
I2
ssg74
g4125
sg67
(lp4132
g60
(g69
g62
NtRp4133
(dp4134
g65
(dp4135
g73
I1
ssg74
Nsg67
(lp4136
g60
(g76
g62
NtRp4137
(dp4138
g65
(dp4139
sg74
g4133
sg67
(lp4140
g60
(g81
g62
NtRp4141
(dp4142
g65
(dp4143
sg74
g4137
sg67
(lp4144
g60
(g61
g62
NtRp4145
(dp4146
g65
(dp4147
g73
I1
ssg74
g4141
sg67
(lp4148
S'web2py.com'
p4149
asbasbasbag60
(g76
g62
NtRp4150
(dp4151
g65
(dp4152
sg74
g4133
sg67
(lp4153
g60
(g81
g62
NtRp4154
(dp4155
g65
(dp4156
sg74
g4150
sg67
(lp4157
g60
(g61
g62
NtRp4158
(dp4159
g65
(dp4160
g73
I1
ssg74
g4154
sg67
(lp4161
I00
asbasbasbag60
(g76
g62
NtRp4162
(dp4163
g65
(dp4164
sg74
g4133
sg67
(lp4165
g60
(g81
g62
NtRp4166
(dp4167
g65
(dp4168
sg74
g4162
sg67
(lp4169
g60
(g61
g62
NtRp4170
(dp4171
g65
(dp4172
g73
I1
ssg74
g4166
sg67
(lp4173
S'http://www.web2py.com'
p4174
asbasbasbag60
(g76
g62
NtRp4175
(dp4176
g65
(dp4177
sg74
g4133
sg67
(lp4178
g60
(g81
g62
NtRp4179
(dp4180
g65
(dp4181
sg74
g4175
sg67
(lp4182
g60
(g61
g62
NtRp4183
(dp4184
g65
(dp4185
g73
I1
ssg74
g4179
sg67
(lp4186
(lp4187
(g3865
(S's\x08\x00\x00\x00Download'
tRp4188
I00
S'http://www.web2py.com/examples/default/download'
p4189
tp4190
a(g3865
(S's\x07\x00\x00\x00Support'
tRp4191
I00
S'http://www.web2py.com/examples/default/support'
p4192
tp4193
a(g3865
(S's\x04\x00\x00\x00Demo'
tRp4194
I00
S'http://web2py.com/demo_admin'
p4195
tp4196
a(g3865
(S's\x0e\x00\x00\x00Quick Examples'
tRp4197
I00
S'http://web2py.com/examples/default/examples'
p4198
tp4199
a(g3865
(S's\x03\x00\x00\x00FAQ'
tRp4200
I00
S'http://web2py.com/AlterEgo'
p4201
tp4202
a(g3865
(S's\x06\x00\x00\x00Videos'
tRp4203
I00
S'http://www.web2py.com/examples/default/videos/'
p4204
tp4205
a(g3865
(S's\x11\x00\x00\x00Free Applications'
tRp4206
I00
S'http://web2py.com/appliances'
p4207
tp4208
a(g3865
(S's\x07\x00\x00\x00Plugins'
tRp4209
I00
S'http://web2py.com/plugins'
p4210
tp4211
a(g3865
(S's\x07\x00\x00\x00Layouts'
tRp4212
I00
S'http://web2py.com/layouts'
p4213
tp4214
a(g3865
(S's\x07\x00\x00\x00Recipes'
tRp4215
I00
S'http://web2pyslices.com/'
p4216
tp4217
a(g3865
(S's\x08\x00\x00\x00Semantic'
tRp4218
I00
S'http://web2py.com/semantic'
p4219
tp4220
aasbasbasbasbasbasbasbag60
(g76
g62
NtRp4221
(dp4222
g65
(dp4223
sg74
g3978
sg67
(lp4224
g60
(g81
g62
NtRp4225
(dp4226
g65
(dp4227
sg74
g4221
sg67
(lp4228
g60
(g61
g62
NtRp4229
(dp4230
g65
(dp4231
g73
I2
ssg74
g4225
sg67
(lp4232
g60
(g69
g62
NtRp4233
(dp4234
g65
(dp4235
g73
I1
ssg74
Nsg67
(lp4236
g60
(g76
g62
NtRp4237
(dp4238
g65
(dp4239
sg74
g4233
sg67
(lp4240
g60
(g81
g62
NtRp4241
(dp4242
g65
(dp4243
sg74
g4237
sg67
(lp4244
g60
(g61
g62
NtRp4245
(dp4246
g65
(dp4247
g73
I1
ssg74
g4241
sg67
(lp4248
g3865
(S's\r\x00\x00\x00Documentation'
tRp4249
asbasbasbag60
(g76
g62
NtRp4250
(dp4251
g65
(dp4252
sg74
g4233
sg67
(lp4253
g60
(g81
g62
NtRp4254
(dp4255
g65
(dp4256
sg74
g4250
sg67
(lp4257
g60
(g61
g62
NtRp4258
(dp4259
g65
(dp4260
g73
I1
ssg74
g4254
sg67
(lp4261
I00
asbasbasbag60
(g76
g62
NtRp4262
(dp4263
g65
(dp4264
sg74
g4233
sg67
(lp4265
g60
(g81
g62
NtRp4266
(dp4267
g65
(dp4268
sg74
g4262
sg67
(lp4269
g60
(g61
g62
NtRp4270
(dp4271
g65
(dp4272
g73
I1
ssg74
g4266
sg67
(lp4273
S'http://www.web2py.com/book'
p4274
asbasbasbag60
(g76
g62
NtRp4275
(dp4276
g65
(dp4277
sg74
g4233
sg67
(lp4278
g60
(g81
g62
NtRp4279
(dp4280
g65
(dp4281
sg74
g4275
sg67
(lp4282
g60
(g61
g62
NtRp4283
(dp4284
g65
(dp4285
g73
I1
ssg74
g4279
sg67
(lp4286
(lp4287
(g3865
(S's\x07\x00\x00\x00Preface'
tRp4288
I00
S'http://www.web2py.com/book/default/chapter/00'
p4289
tp4290
a(g3865
(S's\x0c\x00\x00\x00Introduction'
tRp4291
I00
S'http://www.web2py.com/book/default/chapter/01'
p4292
tp4293
a(g3865
(S's\x06\x00\x00\x00Python'
tRp4294
I00
S'http://www.web2py.com/book/default/chapter/02'
p4295
tp4296
a(g3865
(S's\x08\x00\x00\x00Overview'
tRp4297
I00
S'http://www.web2py.com/book/default/chapter/03'
p4298
tp4299
a(g3865
(S's\x08\x00\x00\x00The Core'
tRp4300
I00
S'http://www.web2py.com/book/default/chapter/04'
p4301
tp4302
a(g3865
(S's\t\x00\x00\x00The Views'
tRp4303
I00
S'http://www.web2py.com/book/default/chapter/05'
p4304
tp4305
a(g3865
(S's\x08\x00\x00\x00Database'
tRp4306
I00
S'http://www.web2py.com/book/default/chapter/06'
p4307
tp4308
a(g3865
(S's\x14\x00\x00\x00Forms and Validators'
tRp4309
I00
S'http://www.web2py.com/book/default/chapter/07'
p4310
tp4311
a(g3865
(S's\r\x00\x00\x00Email and SMS'
tRp4312
I00
S'http://www.web2py.com/book/default/chapter/08'
p4313
tp4314
a(g3865
(S's\x0e\x00\x00\x00Access Control'
tRp4315
I00
S'http://www.web2py.com/book/default/chapter/09'
p4316
tp4317
a(g3865
(S's\x08\x00\x00\x00Services'
tRp4318
I00
S'http://www.web2py.com/book/default/chapter/10'
p4319
tp4320
a(g3865
(S's\x0c\x00\x00\x00Ajax Recipes'
tRp4321
I00
S'http://www.web2py.com/book/default/chapter/11'
p4322
tp4323
a(g3865
(S's\x16\x00\x00\x00Components and Plugins'
tRp4324
I00
S'http://www.web2py.com/book/default/chapter/12'
p4325
tp4326
a(g3865
(S's\x12\x00\x00\x00Deployment Recipes'
tRp4327
I00
S'http://www.web2py.com/book/default/chapter/13'
p4328
tp4329
a(g3865
(S's\r\x00\x00\x00Other Recipes'
tRp4330
I00
S'http://www.web2py.com/book/default/chapter/14'
p4331
tp4332
a(g3865
(S's\r\x00\x00\x00Buy this book'
tRp4333
I00
S'http://stores.lulu.com/web2py'
p4334
tp4335
aasbasbasbasbasbasbasbag60
(g76
g62
NtRp4336
(dp4337
g65
(dp4338
sg74
g3978
sg67
(lp4339
g60
(g81
g62
NtRp4340
(dp4341
g65
(dp4342
sg74
g4336
sg67
(lp4343
g60
(g61
g62
NtRp4344
(dp4345
g65
(dp4346
g73
I2
ssg74
g4340
sg67
(lp4347
g60
(g69
g62
NtRp4348
(dp4349
g65
(dp4350
g73
I1
ssg74
Nsg67
(lp4351
g60
(g76
g62
NtRp4352
(dp4353
g65
(dp4354
sg74
g4348
sg67
(lp4355
g60
(g81
g62
NtRp4356
(dp4357
g65
(dp4358
sg74
g4352
sg67
(lp4359
g60
(g61
g62
NtRp4360
(dp4361
g65
(dp4362
g73
I1
ssg74
g4356
sg67
(lp4363
g3865
(S's\t\x00\x00\x00Community'
tRp4364
asbasbasbag60
(g76
g62
NtRp4365
(dp4366
g65
(dp4367
sg74
g4348
sg67
(lp4368
g60
(g81
g62
NtRp4369
(dp4370
g65
(dp4371
sg74
g4365
sg67
(lp4372
g60
(g61
g62
NtRp4373
(dp4374
g65
(dp4375
g73
I1
ssg74
g4369
sg67
(lp4376
I00
asbasbasbag60
(g76
g62
NtRp4377
(dp4378
g65
(dp4379
sg74
g4348
sg67
(lp4380
g60
(g81
g62
NtRp4381
(dp4382
g65
(dp4383
sg74
g4377
sg67
(lp4384
g60
(g61
g62
NtRp4385
(dp4386
g65
(dp4387
g73
I1
ssg74
g4381
sg67
(lp4388
Nasbasbasbag60
(g76
g62
NtRp4389
(dp4390
g65
(dp4391
sg74
g4348
sg67
(lp4392
g60
(g81
g62
NtRp4393
(dp4394
g65
(dp4395
sg74
g4389
sg67
(lp4396
g60
(g61
g62
NtRp4397
(dp4398
g65
(dp4399
g73
I1
ssg74
g4393
sg67
(lp4400
(lp4401
(g3865
(S's\x06\x00\x00\x00Groups'
tRp4402
I00
S'http://www.web2py.com/examples/default/usergroups'
p4403
tp4404
a(g3865
(S's\x07\x00\x00\x00Twitter'
tRp4405
I00
S'http://twitter.com/web2py'
p4406
tp4407
a(g3865
(S's\t\x00\x00\x00Live Chat'
tRp4408
I00
S'http://webchat.freenode.net/?channels=web2py'
p4409
tp4410
aasbasbasbasbasbasbasbag60
(g76
g62
NtRp4411
(dp4412
g65
(dp4413
sg74
g3978
sg67
(lp4414
g60
(g81
g62
NtRp4415
(dp4416
g65
(dp4417
sg74
g4411
sg67
(lp4418
g60
(g61
g62
NtRp4419
(dp4420
g65
(dp4421
g73
I2
ssg74
g4415
sg67
(lp4422
g60
(g69
g62
NtRp4423
(dp4424
g65
(dp4425
g73
I1
ssg74
Nsg67
(lp4426
g60
(g76
g62
NtRp4427
(dp4428
g65
(dp4429
sg74
g4423
sg67
(lp4430
g60
(g81
g62
NtRp4431
(dp4432
g65
(dp4433
sg74
g4427
sg67
(lp4434
g60
(g61
g62
NtRp4435
(dp4436
g65
(dp4437
g73
I1
ssg74
g4431
sg67
(lp4438
g3865
(S's\x07\x00\x00\x00Plugins'
tRp4439
asbasbasbag60
(g76
g62
NtRp4440
(dp4441
g65
(dp4442
sg74
g4423
sg67
(lp4443
g60
(g81
g62
NtRp4444
(dp4445
g65
(dp4446
sg74
g4440
sg67
(lp4447
g60
(g61
g62
NtRp4448
(dp4449
g65
(dp4450
g73
I1
ssg74
g4444
sg67
(lp4451
I00
asbasbasbag60
(g76
g62
NtRp4452
(dp4453
g65
(dp4454
sg74
g4423
sg67
(lp4455
g60
(g81
g62
NtRp4456
(dp4457
g65
(dp4458
sg74
g4452
sg67
(lp4459
g60
(g61
g62
NtRp4460
(dp4461
g65
(dp4462
g73
I1
ssg74
g4456
sg67
(lp4463
Nasbasbasbag60
(g76
g62
NtRp4464
(dp4465
g65
(dp4466
sg74
g4423
sg67
(lp4467
g60
(g81
g62
NtRp4468
(dp4469
g65
(dp4470
sg74
g4464
sg67
(lp4471
g60
(g61
g62
NtRp4472
(dp4473
g65
(dp4474
g73
I1
ssg74
g4468
sg67
(lp4475
(lp4476
(S'plugin_wiki'
p4477
I00
S'http://web2py.com/examples/default/download'
p4478
tp4479
a(g3865
(S's\r\x00\x00\x00Other Plugins'
tRp4480
I00
g4210
tp4481
a(g3865
(S's\x0e\x00\x00\x00Layout Plugins'
tRp4482
I00
g4213
tp4483
aasbasbasbasbasbasbasbasbasbasbasbasbasbasbasbasbasbasbasbag60
(g76
g62
NtRp4484
(dp4485
g65
(dp4486
sg74
g3329
sg67
(lp4487
g60
(g81
g62
NtRp4488
(dp4489
g65
(dp4490
g85
g86
ssg74
g4484
sg67
(lp4491
S'meta'
p4492
asbag60
(g81
g62
NtRp4493
(dp4494
g65
(dp4495
g92
g93
ssg74
g4484
sg67
(lp4496
S':'
asbag60
(g81
g62
NtRp4497
(dp4498
g65
(dp4499
sg74
g4484
sg67
(lp4500
g60
(g61
g62
NtRp4501
(dp4502
g65
(dp4503
g73
I5
ssg74
g4497
sg67
(lp4504
g60
(g69
g62
NtRp4505
(dp4506
g65
(dp4507
g73
I4
ssg74
Nsg67
(lp4508
g60
(g76
g62
NtRp4509
(dp4510
g65
(dp4511
sg74
g4505
sg67
(lp4512
g60
(g81
g62
NtRp4513
(dp4514
g65
(dp4515
g85
g86
ssg74
g4509
sg67
(lp4516
S'author'
p4517
asbag60
(g81
g62
NtRp4518
(dp4519
g65
(dp4520
g92
g93
ssg74
g4509
sg67
(lp4521
S':'
asbag60
(g81
g62
NtRp4522
(dp4523
g65
(dp4524
sg74
g4509
sg67
(lp4525
g60
(g61
g62
NtRp4526
(dp4527
g65
(dp4528
g73
I4
ssg74
g4522
sg67
(lp4529
S'Udi Milo'
p4530
asbasbasbag60
(g76
g62
NtRp4531
(dp4532
g65
(dp4533
sg74
g4505
sg67
(lp4534
g60
(g81
g62
NtRp4535
(dp4536
g65
(dp4537
g85
g86
ssg74
g4531
sg67
(lp4538
S'description'
p4539
asbag60
(g81
g62
NtRp4540
(dp4541
g65
(dp4542
g92
g93
ssg74
g4531
sg67
(lp4543
S':'
asbag60
(g81
g62
NtRp4544
(dp4545
g65
(dp4546
sg74
g4531
sg67
(lp4547
g60
(g61
g62
NtRp4548
(dp4549
g65
(dp4550
g73
I4
ssg74
g4544
sg67
(lp4551
S'Curate, organize and share your web resources'
p4552
asbasbasbasbasbasbasbag60
(g76
g62
NtRp4553
(dp4554
g65
(dp4555
sg74
g3329
sg67
(lp4556
g60
(g81
g62
NtRp4557
(dp4558
g65
(dp4559
g85
g86
ssg74
g4553
sg67
(lp4560
S'postprocessing'
p4561
asbag60
(g81
g62
NtRp4562
(dp4563
g65
(dp4564
g92
g93
ssg74
g4553
sg67
(lp4565
S':'
asbag60
(g81
g62
NtRp4566
(dp4567
g65
(dp4568
sg74
g4553
sg67
(lp4569
g60
(g61
g62
NtRp4570
(dp4571
g65
(dp4572
g73
I5
ssg74
g4566
sg67
(lp4573
g60
(g69
g62
NtRp4574
(dp4575
g65
(dp4576
g73
I4
ssg74
Nsg67
(lp4577
sbasbasbasbag60
(g76
g62
NtRp4578
(dp4579
g65
(dp4580
sg74
g3329
sg67
(lp4581
g60
(g81
g62
NtRp4582
(dp4583
g65
(dp4584
g85
g86
ssg74
g4578
sg67
(lp4585
S'session_file'
p4586
asbag60
(g81
g62
NtRp4587
(dp4588
g65
(dp4589
g92
g93
ssg74
g4578
sg67
(lp4590
S':'
asbag60
(g81
g62
NtRp4591
(dp4592
g65
(dp4593
sg74
g4578
sg67
(lp4594
g60
(g61
g62
NtRp4595
(dp4596
g65
(dp4597
g73
I5
ssg74
g4591
sg67
(lp4598
S"<open file '/Users/udimilo/Documents/web2py/applications/udi0312/sessions/127.0.0.1-0c931b0e-a0cb-46a7-8daa-2609a27949d9', mode 'rb+' at 0xa2b00f8>"
p4599
asbasbasbag60
(g76
g62
NtRp4600
(dp4601
g65
(dp4602
sg74
g3329
sg67
(lp4603
g60
(g81
g62
NtRp4604
(dp4605
g65
(dp4606
g85
g86
ssg74
g4600
sg67
(lp4607
S'session_filename'
p4608
asbag60
(g81
g62
NtRp4609
(dp4610
g65
(dp4611
g92
g93
ssg74
g4600
sg67
(lp4612
S':'
asbag60
(g81
g62
NtRp4613
(dp4614
g65
(dp4615
sg74
g4600
sg67
(lp4616
g60
(g61
g62
NtRp4617
(dp4618
g65
(dp4619
g73
I5
ssg74
g4613
sg67
(lp4620
S'/Users/udimilo/Documents/web2py/applications/udi0312/sessions/127.0.0.1-0c931b0e-a0cb-46a7-8daa-2609a27949d9'
p4621
asbasbasbag60
(g76
g62
NtRp4622
(dp4623
g65
(dp4624
sg74
g3329
sg67
(lp4625
g60
(g81
g62
NtRp4626
(dp4627
g65
(dp4628
g85
g86
ssg74
g4622
sg67
(lp4629
S'session_id'
p4630
asbag60
(g81
g62
NtRp4631
(dp4632
g65
(dp4633
g92
g93
ssg74
g4622
sg67
(lp4634
S':'
asbag60
(g81
g62
NtRp4635
(dp4636
g65
(dp4637
sg74
g4622
sg67
(lp4638
g60
(g61
g62
NtRp4639
(dp4640
g65
(dp4641
g73
I5
ssg74
g4635
sg67
(lp4642
S'127.0.0.1-0c931b0e-a0cb-46a7-8daa-2609a27949d9'
p4643
asbasbasbag60
(g76
g62
NtRp4644
(dp4645
g65
(dp4646
sg74
g3329
sg67
(lp4647
g60
(g81
g62
NtRp4648
(dp4649
g65
(dp4650
g85
g86
ssg74
g4644
sg67
(lp4651
S'session_id_name'
p4652
asbag60
(g81
g62
NtRp4653
(dp4654
g65
(dp4655
g92
g93
ssg74
g4644
sg67
(lp4656
S':'
asbag60
(g81
g62
NtRp4657
(dp4658
g65
(dp4659
sg74
g4644
sg67
(lp4660
g60
(g61
g62
NtRp4661
(dp4662
g65
(dp4663
g73
I5
ssg74
g4657
sg67
(lp4664
g3386
asbasbasbag60
(g76
g62
NtRp4665
(dp4666
g65
(dp4667
sg74
g3329
sg67
(lp4668
g60
(g81
g62
NtRp4669
(dp4670
g65
(dp4671
g85
g86
ssg74
g4665
sg67
(lp4672
S'session_locked'
p4673
asbag60
(g81
g62
NtRp4674
(dp4675
g65
(dp4676
g92
g93
ssg74
g4665
sg67
(lp4677
S':'
asbag60
(g81
g62
NtRp4678
(dp4679
g65
(dp4680
sg74
g4665
sg67
(lp4681
g60
(g61
g62
NtRp4682
(dp4683
g65
(dp4684
g73
I5
ssg74
g4678
sg67
(lp4685
g1491
asbasbasbag60
(g76
g62
NtRp4686
(dp4687
g65
(dp4688
sg74
g3329
sg67
(lp4689
g60
(g81
g62
NtRp4690
(dp4691
g65
(dp4692
g85
g86
ssg74
g4686
sg67
(lp4693
S'session_new'
p4694
asbag60
(g81
g62
NtRp4695
(dp4696
g65
(dp4697
g92
g93
ssg74
g4686
sg67
(lp4698
S':'
asbag60
(g81
g62
NtRp4699
(dp4700
g65
(dp4701
sg74
g4686
sg67
(lp4702
g60
(g61
g62
NtRp4703
(dp4704
g65
(dp4705
g73
I5
ssg74
g4699
sg67
(lp4706
g103
asbasbasbag60
(g76
g62
NtRp4707
(dp4708
g65
(dp4709
sg74
g3329
sg67
(lp4710
g60
(g81
g62
NtRp4711
(dp4712
g65
(dp4713
g85
g86
ssg74
g4707
sg67
(lp4714
S'status'
p4715
asbag60
(g81
g62
NtRp4716
(dp4717
g65
(dp4718
g92
g93
ssg74
g4707
sg67
(lp4719
S':'
asbag60
(g81
g62
NtRp4720
(dp4721
g65
(dp4722
sg74
g4707
sg67
(lp4723
g60
(g61
g62
NtRp4724
(dp4725
g65
(dp4726
g73
I5
ssg74
g4720
sg67
(lp4727
S'200'
p4728
asbasbasbag60
(g76
g62
NtRp4729
(dp4730
g65
(dp4731
sg74
g3329
sg67
(lp4732
g60
(g81
g62
NtRp4733
(dp4734
g65
(dp4735
g85
g86
ssg74
g4729
sg67
(lp4736
S'title'
p4737
asbag60
(g81
g62
NtRp4738
(dp4739
g65
(dp4740
g92
g93
ssg74
g4729
sg67
(lp4741
S':'
asbag60
(g81
g62
NtRp4742
(dp4743
g65
(dp4744
sg74
g4729
sg67
(lp4745
g60
(g61
g62
NtRp4746
(dp4747
g65
(dp4748
g73
I5
ssg74
g4742
sg67
(lp4749
S'inFormation - Curate The Web'
p4750
asbasbasbag60
(g76
g62
NtRp4751
(dp4752
g65
(dp4753
sg74
g3329
sg67
(lp4754
g60
(g81
g62
NtRp4755
(dp4756
g65
(dp4757
g85
g86
ssg74
g4751
sg67
(lp4758
g2177
asbag60
(g81
g62
NtRp4759
(dp4760
g65
(dp4761
g92
g93
ssg74
g4751
sg67
(lp4762
S':'
asbag60
(g81
g62
NtRp4763
(dp4764
g65
(dp4765
sg74
g4751
sg67
(lp4766
g60
(g61
g62
NtRp4767
(dp4768
g65
(dp4769
g73
I5
ssg74
g4763
sg67
(lp4770
g2190
asbasbasbag60
(g76
g62
NtRp4771
(dp4772
g65
(dp4773
sg74
g3329
sg67
(lp4774
g60
(g81
g62
NtRp4775
(dp4776
g65
(dp4777
g85
g86
ssg74
g4771
sg67
(lp4778
S'view'
p4779
asbag60
(g81
g62
NtRp4780
(dp4781
g65
(dp4782
g92
g93
ssg74
g4771
sg67
(lp4783
S':'
asbag60
(g81
g62
NtRp4784
(dp4785
g65
(dp4786
sg74
g4771
sg67
(lp4787
g60
(g61
g62
NtRp4788
(dp4789
g65
(dp4790
g73
I5
ssg74
g4784
sg67
(lp4791
S'default/articles.html'
p4792
asbasbasbasbasbsS'locals'
p4793
(dp4794
g4
S"'/Users/udimilo/Documents/web2py/applications/udi0312/views/default/articles.html'"
p4795
sg6
S'\'if request.args.ajax == True\\nresponse.write(\\\'\\\\n\\\'...js"></script>\\\\n</body>\\\\n</html>\\\\n\\\', escape=False)\''
p4796
sssS'traceback'
p4797
S'Traceback (most recent call last):\n  File "/users/udimilo/Documents/web2py/gluon/restricted.py", line 204, in restricted\n    ccode = compile2(code,layer)\n  File "/users/udimilo/Documents/web2py/gluon/restricted.py", line 189, in compile2\n    return compile(code.rstrip().replace(\'\\r\\n\',\'\\n\')+\'\\n\', layer, \'exec\')\n  File "/Users/udimilo/Documents/web2py/applications/udi0312/views/default/articles.html", line 1\n    if request.args.ajax == True\n                               \n^\nSyntaxError: invalid syntax\n'
p4798
s.