(dp1
S'output'
p2
S"<type 'exceptions.NameError'> global name 'requests' is not defined"
p3
sS'layer'
p4
S'/Users/udimilo/Documents/web2py/applications/udi0312/controllers/default.py'
p5
sS'code'
p6
S'# -*- coding: utf-8 -*-\n# this file is released under public domain and you can use without limitations\n\n#########################################################################\n## This is a samples controller\n## - index is the default action of any application\n## - user is required for authentication and authorization\n## - download is for downloading files uploaded in the db (does streaming)\n## - call exposes all registered services (none by default)\n#########################################################################\nfrom readability import Readability\n\ndef index():\n    pages = db().select(db.page.ALL)\n    categories = db().select(db.category.ALL, orderby=db.category.name)\n    boards = db(db.board.user_id==auth.user.id).select() if auth.user else []\n    return dict(items=pages, categories=categories, boards=boards)\n    \ndef addPage():\n    board = db(db.board.name==request.vars.board).select().first()\n    page = db.page.insert(user_id=auth.user.id, url=request.vars.url, height=300)\n    pin = db.pin.insert(board_id=board.id, page_id=page.id)\n    return pin.id\n    \ndef addBoard():\n    category = db(db.category.name==request.vars.category).select().first()\n    board = db.board.insert(user_id=auth.user.id, category_id=category.id, name=request.vars.boardName)\n    return board.id    \n    \ndef test():\n    read = Readability()\n    content = read.content(\'http://techcrunch.com/2012/03/08/savingstar-series-c/\')\n    return content\n    \ndef user():\n    """\n    exposes:\n    http://..../[app]/default/user/login\n    http://..../[app]/default/user/logout\n    http://..../[app]/default/user/register\n    http://..../[app]/default/user/profile\n    http://..../[app]/default/user/retrieve_password\n    http://..../[app]/default/user/change_password\n    use @auth.requires_login()\n        @auth.requires_membership(\'group name\')\n        @auth.requires_permission(\'read\',\'table name\',record_id)\n    to decorate functions that need access control\n    """\n    return dict(form=auth())\n\n\ndef download():\n    """\n    allows downloading of uploaded files\n    http://..../[app]/default/download/[filename]\n    """\n    return response.download(request,db)\n\n\ndef call():\n    """\n    exposes services. for example:\n    http://..../[app]/default/call/jsonrpc\n    decorate with @services.jsonrpc the functions to expose\n    supports xml, json, xmlrpc, jsonrpc, amfrpc, rss, csv\n    """\n    return service()\n\n\n@auth.requires_signature()\ndef data():\n    """\n    http://..../[app]/default/data/tables\n    http://..../[app]/default/data/create/[table]\n    http://..../[app]/default/data/read/[table]/[id]\n    http://..../[app]/default/data/update/[table]/[id]\n    http://..../[app]/default/data/delete/[table]/[id]\n    http://..../[app]/default/data/select/[table]\n    http://..../[app]/default/data/search/[table]\n    but URLs must be signed, i.e. linked with\n      A(\'table\',_href=URL(\'data/tables\',user_signature=True))\n    or with the signed load operator\n      LOAD(\'default\',\'data.load\',args=\'tables\',ajax=True,user_signature=True)\n    """\n    return dict(form=crud())\n\nresponse._vars=response._caller(test)\n'
p7
sS'snapshot'
p8
(dp9
S'exception'
p10
(dp11
S'__hash__'
p12
S"<method-wrapper '__hash__' of exceptions.NameError object at 0xa77a6e8>"
p13
sS'__setattr__'
p14
S"<method-wrapper '__setattr__' of exceptions.NameError object at 0xa77a6e8>"
p15
sS'__reduce_ex__'
p16
S'<built-in method __reduce_ex__ of exceptions.NameError object at 0xa77a6e8>'
p17
sS'__getslice__'
p18
S"<method-wrapper '__getslice__' of exceptions.NameError object at 0xa77a6e8>"
p19
sS'__getitem__'
p20
S"<method-wrapper '__getitem__' of exceptions.NameError object at 0xa77a6e8>"
p21
sS'__setstate__'
p22
S'<built-in method __setstate__ of exceptions.NameError object at 0xa77a6e8>'
p23
sS'__reduce__'
p24
S'<built-in method __reduce__ of exceptions.NameError object at 0xa77a6e8>'
p25
sS'__str__'
p26
S"<method-wrapper '__str__' of exceptions.NameError object at 0xa77a6e8>"
p27
sS'args'
p28
S'("global name \'requests\' is not defined",)'
p29
sS'__getattribute__'
p30
S"<method-wrapper '__getattribute__' of exceptions.NameError object at 0xa77a6e8>"
p31
sS'__class__'
p32
S"<type 'exceptions.NameError'>"
p33
sS'__delattr__'
p34
S"<method-wrapper '__delattr__' of exceptions.NameError object at 0xa77a6e8>"
p35
sS'__repr__'
p36
S"<method-wrapper '__repr__' of exceptions.NameError object at 0xa77a6e8>"
p37
sS'__dict__'
p38
S'{}'
p39
sS'__doc__'
p40
S"'Name not found globally.'"
p41
sS'__init__'
p42
S"<method-wrapper '__init__' of exceptions.NameError object at 0xa77a6e8>"
p43
sS'__new__'
p44
S'<built-in method __new__ of type object at 0x100640>'
p45
ssS'evalue'
p46
S"global name 'requests' is not defined"
p47
sS'request'
p48
ccopy_reg
_reconstructor
p49
(cgluon.html
BEAUTIFY
p50
c__builtin__
object
p51
NtRp52
(dp53
S'attributes'
p54
(dp55
sS'components'
p56
(lp57
g49
(cgluon.html
TABLE
p58
g51
NtRp59
(dp60
g54
(dp61
S'level'
p62
I5
ssS'parent'
p63
Nsg56
(lp64
g49
(cgluon.html
TR
p65
g51
NtRp66
(dp67
g54
(dp68
sg63
g59
sg56
(lp69
g49
(cgluon.html
TD
p70
g51
NtRp71
(dp72
g54
(dp73
S'_style'
p74
S'font-weight:bold;vertical-align:top'
p75
ssg63
g66
sg56
(lp76
S'ajax'
p77
asbag49
(g70
g51
NtRp78
(dp79
g54
(dp80
S'_valign'
p81
S'top'
p82
ssg63
g66
sg56
(lp83
S':'
asbag49
(g70
g51
NtRp84
(dp85
g54
(dp86
sg63
g66
sg56
(lp87
g49
(g50
g51
NtRp88
(dp89
g54
(dp90
g62
I5
ssg63
g84
sg56
(lp91
S'False'
p92
asbasbasbag49
(g65
g51
NtRp93
(dp94
g54
(dp95
sg63
g59
sg56
(lp96
g49
(g70
g51
NtRp97
(dp98
g54
(dp99
g74
g75
ssg63
g93
sg56
(lp100
S'application'
p101
asbag49
(g70
g51
NtRp102
(dp103
g54
(dp104
g81
g82
ssg63
g93
sg56
(lp105
S':'
asbag49
(g70
g51
NtRp106
(dp107
g54
(dp108
sg63
g93
sg56
(lp109
g49
(g50
g51
NtRp110
(dp111
g54
(dp112
g62
I5
ssg63
g106
sg56
(lp113
S'udi0312'
p114
asbasbasbag49
(g65
g51
NtRp115
(dp116
g54
(dp117
sg63
g59
sg56
(lp118
g49
(g70
g51
NtRp119
(dp120
g54
(dp121
g74
g75
ssg63
g115
sg56
(lp122
g28
asbag49
(g70
g51
NtRp123
(dp124
g54
(dp125
g81
g82
ssg63
g115
sg56
(lp126
S':'
asbag49
(g70
g51
NtRp127
(dp128
g54
(dp129
sg63
g115
sg56
(lp130
g49
(g50
g51
NtRp131
(dp132
g54
(dp133
g62
I5
ssg63
g127
sg56
(lp134
g49
(g58
g51
NtRp135
(dp136
g54
(dp137
g62
I4
ssg63
Nsg56
(lp138
sbasbasbasbag49
(g65
g51
NtRp139
(dp140
g54
(dp141
sg63
g59
sg56
(lp142
g49
(g70
g51
NtRp143
(dp144
g54
(dp145
g74
g75
ssg63
g139
sg56
(lp146
S'body'
p147
asbag49
(g70
g51
NtRp148
(dp149
g54
(dp150
g81
g82
ssg63
g139
sg56
(lp151
S':'
asbag49
(g70
g51
NtRp152
(dp153
g54
(dp154
sg63
g139
sg56
(lp155
g49
(g50
g51
NtRp156
(dp157
g54
(dp158
g62
I5
ssg63
g152
sg56
(lp159
S'<cStringIO.StringO object at 0xa3b2920>'
p160
asbasbasbag49
(g65
g51
NtRp161
(dp162
g54
(dp163
sg63
g59
sg56
(lp164
g49
(g70
g51
NtRp165
(dp166
g54
(dp167
g74
g75
ssg63
g161
sg56
(lp168
S'client'
p169
asbag49
(g70
g51
NtRp170
(dp171
g54
(dp172
g81
g82
ssg63
g161
sg56
(lp173
S':'
asbag49
(g70
g51
NtRp174
(dp175
g54
(dp176
sg63
g161
sg56
(lp177
g49
(g50
g51
NtRp178
(dp179
g54
(dp180
g62
I5
ssg63
g174
sg56
(lp181
S'127.0.0.1'
p182
asbasbasbag49
(g65
g51
NtRp183
(dp184
g54
(dp185
sg63
g59
sg56
(lp186
g49
(g70
g51
NtRp187
(dp188
g54
(dp189
g74
g75
ssg63
g183
sg56
(lp190
S'controller'
p191
asbag49
(g70
g51
NtRp192
(dp193
g54
(dp194
g81
g82
ssg63
g183
sg56
(lp195
S':'
asbag49
(g70
g51
NtRp196
(dp197
g54
(dp198
sg63
g183
sg56
(lp199
g49
(g50
g51
NtRp200
(dp201
g54
(dp202
g62
I5
ssg63
g196
sg56
(lp203
S'default'
p204
asbasbasbag49
(g65
g51
NtRp205
(dp206
g54
(dp207
sg63
g59
sg56
(lp208
g49
(g70
g51
NtRp209
(dp210
g54
(dp211
g74
g75
ssg63
g205
sg56
(lp212
S'cookies'
p213
asbag49
(g70
g51
NtRp214
(dp215
g54
(dp216
g81
g82
ssg63
g205
sg56
(lp217
S':'
asbag49
(g70
g51
NtRp218
(dp219
g54
(dp220
sg63
g205
sg56
(lp221
g49
(g50
g51
NtRp222
(dp223
g54
(dp224
g62
I5
ssg63
g218
sg56
(lp225
g49
(g58
g51
NtRp226
(dp227
g54
(dp228
g62
I4
ssg63
Nsg56
(lp229
g49
(g65
g51
NtRp230
(dp231
g54
(dp232
sg63
g226
sg56
(lp233
g49
(g70
g51
NtRp234
(dp235
g54
(dp236
g74
g75
ssg63
g230
sg56
(lp237
S'session_id_admin'
p238
asbag49
(g70
g51
NtRp239
(dp240
g54
(dp241
g81
g82
ssg63
g230
sg56
(lp242
S':'
asbag49
(g70
g51
NtRp243
(dp244
g54
(dp245
sg63
g230
sg56
(lp246
g49
(g50
g51
NtRp247
(dp248
g54
(dp249
g62
I4
ssg63
g243
sg56
(lp250
g49
(g58
g51
NtRp251
(dp252
g54
(dp253
g62
I3
ssg63
Nsg56
(lp254
g49
(g65
g51
NtRp255
(dp256
g54
(dp257
sg63
g251
sg56
(lp258
g49
(g70
g51
NtRp259
(dp260
g54
(dp261
g74
g75
ssg63
g255
sg56
(lp262
S'comment'
p263
asbag49
(g70
g51
NtRp264
(dp265
g54
(dp266
g81
g82
ssg63
g255
sg56
(lp267
S':'
asbag49
(g70
g51
NtRp268
(dp269
g54
(dp270
sg63
g255
sg56
(lp271
g49
(g50
g51
NtRp272
(dp273
g54
(dp274
g62
I3
ssg63
g268
sg56
(lp275
S''
asbasbasbag49
(g65
g51
NtRp276
(dp277
g54
(dp278
sg63
g251
sg56
(lp279
g49
(g70
g51
NtRp280
(dp281
g54
(dp282
g74
g75
ssg63
g276
sg56
(lp283
S'domain'
p284
asbag49
(g70
g51
NtRp285
(dp286
g54
(dp287
g81
g82
ssg63
g276
sg56
(lp288
S':'
asbag49
(g70
g51
NtRp289
(dp290
g54
(dp291
sg63
g276
sg56
(lp292
g49
(g50
g51
NtRp293
(dp294
g54
(dp295
g62
I3
ssg63
g289
sg56
(lp296
S''
asbasbasbag49
(g65
g51
NtRp297
(dp298
g54
(dp299
sg63
g251
sg56
(lp300
g49
(g70
g51
NtRp301
(dp302
g54
(dp303
g74
g75
ssg63
g297
sg56
(lp304
S'expires'
p305
asbag49
(g70
g51
NtRp306
(dp307
g54
(dp308
g81
g82
ssg63
g297
sg56
(lp309
S':'
asbag49
(g70
g51
NtRp310
(dp311
g54
(dp312
sg63
g297
sg56
(lp313
g49
(g50
g51
NtRp314
(dp315
g54
(dp316
g62
I3
ssg63
g310
sg56
(lp317
S''
asbasbasbag49
(g65
g51
NtRp318
(dp319
g54
(dp320
sg63
g251
sg56
(lp321
g49
(g70
g51
NtRp322
(dp323
g54
(dp324
g74
g75
ssg63
g318
sg56
(lp325
S'max-age'
p326
asbag49
(g70
g51
NtRp327
(dp328
g54
(dp329
g81
g82
ssg63
g318
sg56
(lp330
S':'
asbag49
(g70
g51
NtRp331
(dp332
g54
(dp333
sg63
g318
sg56
(lp334
g49
(g50
g51
NtRp335
(dp336
g54
(dp337
g62
I3
ssg63
g331
sg56
(lp338
S''
asbasbasbag49
(g65
g51
NtRp339
(dp340
g54
(dp341
sg63
g251
sg56
(lp342
g49
(g70
g51
NtRp343
(dp344
g54
(dp345
g74
g75
ssg63
g339
sg56
(lp346
S'path'
p347
asbag49
(g70
g51
NtRp348
(dp349
g54
(dp350
g81
g82
ssg63
g339
sg56
(lp351
S':'
asbag49
(g70
g51
NtRp352
(dp353
g54
(dp354
sg63
g339
sg56
(lp355
g49
(g50
g51
NtRp356
(dp357
g54
(dp358
g62
I3
ssg63
g352
sg56
(lp359
S''
asbasbasbag49
(g65
g51
NtRp360
(dp361
g54
(dp362
sg63
g251
sg56
(lp363
g49
(g70
g51
NtRp364
(dp365
g54
(dp366
g74
g75
ssg63
g360
sg56
(lp367
S'secure'
p368
asbag49
(g70
g51
NtRp369
(dp370
g54
(dp371
g81
g82
ssg63
g360
sg56
(lp372
S':'
asbag49
(g70
g51
NtRp373
(dp374
g54
(dp375
sg63
g360
sg56
(lp376
g49
(g50
g51
NtRp377
(dp378
g54
(dp379
g62
I3
ssg63
g373
sg56
(lp380
S''
asbasbasbag49
(g65
g51
NtRp381
(dp382
g54
(dp383
sg63
g251
sg56
(lp384
g49
(g70
g51
NtRp385
(dp386
g54
(dp387
g74
g75
ssg63
g381
sg56
(lp388
S'version'
p389
asbag49
(g70
g51
NtRp390
(dp391
g54
(dp392
g81
g82
ssg63
g381
sg56
(lp393
S':'
asbag49
(g70
g51
NtRp394
(dp395
g54
(dp396
sg63
g381
sg56
(lp397
g49
(g50
g51
NtRp398
(dp399
g54
(dp400
g62
I3
ssg63
g394
sg56
(lp401
S''
asbasbasbasbasbasbasbag49
(g65
g51
NtRp402
(dp403
g54
(dp404
sg63
g226
sg56
(lp405
g49
(g70
g51
NtRp406
(dp407
g54
(dp408
g74
g75
ssg63
g402
sg56
(lp409
S'session_id_udi0312'
p410
asbag49
(g70
g51
NtRp411
(dp412
g54
(dp413
g81
g82
ssg63
g402
sg56
(lp414
S':'
asbag49
(g70
g51
NtRp415
(dp416
g54
(dp417
sg63
g402
sg56
(lp418
g49
(g50
g51
NtRp419
(dp420
g54
(dp421
g62
I4
ssg63
g415
sg56
(lp422
g49
(g58
g51
NtRp423
(dp424
g54
(dp425
g62
I3
ssg63
Nsg56
(lp426
g49
(g65
g51
NtRp427
(dp428
g54
(dp429
sg63
g423
sg56
(lp430
g49
(g70
g51
NtRp431
(dp432
g54
(dp433
g74
g75
ssg63
g427
sg56
(lp434
g263
asbag49
(g70
g51
NtRp435
(dp436
g54
(dp437
g81
g82
ssg63
g427
sg56
(lp438
S':'
asbag49
(g70
g51
NtRp439
(dp440
g54
(dp441
sg63
g427
sg56
(lp442
g49
(g50
g51
NtRp443
(dp444
g54
(dp445
g62
I3
ssg63
g439
sg56
(lp446
S''
asbasbasbag49
(g65
g51
NtRp447
(dp448
g54
(dp449
sg63
g423
sg56
(lp450
g49
(g70
g51
NtRp451
(dp452
g54
(dp453
g74
g75
ssg63
g447
sg56
(lp454
g284
asbag49
(g70
g51
NtRp455
(dp456
g54
(dp457
g81
g82
ssg63
g447
sg56
(lp458
S':'
asbag49
(g70
g51
NtRp459
(dp460
g54
(dp461
sg63
g447
sg56
(lp462
g49
(g50
g51
NtRp463
(dp464
g54
(dp465
g62
I3
ssg63
g459
sg56
(lp466
S''
asbasbasbag49
(g65
g51
NtRp467
(dp468
g54
(dp469
sg63
g423
sg56
(lp470
g49
(g70
g51
NtRp471
(dp472
g54
(dp473
g74
g75
ssg63
g467
sg56
(lp474
g305
asbag49
(g70
g51
NtRp475
(dp476
g54
(dp477
g81
g82
ssg63
g467
sg56
(lp478
S':'
asbag49
(g70
g51
NtRp479
(dp480
g54
(dp481
sg63
g467
sg56
(lp482
g49
(g50
g51
NtRp483
(dp484
g54
(dp485
g62
I3
ssg63
g479
sg56
(lp486
S''
asbasbasbag49
(g65
g51
NtRp487
(dp488
g54
(dp489
sg63
g423
sg56
(lp490
g49
(g70
g51
NtRp491
(dp492
g54
(dp493
g74
g75
ssg63
g487
sg56
(lp494
g326
asbag49
(g70
g51
NtRp495
(dp496
g54
(dp497
g81
g82
ssg63
g487
sg56
(lp498
S':'
asbag49
(g70
g51
NtRp499
(dp500
g54
(dp501
sg63
g487
sg56
(lp502
g49
(g50
g51
NtRp503
(dp504
g54
(dp505
g62
I3
ssg63
g499
sg56
(lp506
S''
asbasbasbag49
(g65
g51
NtRp507
(dp508
g54
(dp509
sg63
g423
sg56
(lp510
g49
(g70
g51
NtRp511
(dp512
g54
(dp513
g74
g75
ssg63
g507
sg56
(lp514
g347
asbag49
(g70
g51
NtRp515
(dp516
g54
(dp517
g81
g82
ssg63
g507
sg56
(lp518
S':'
asbag49
(g70
g51
NtRp519
(dp520
g54
(dp521
sg63
g507
sg56
(lp522
g49
(g50
g51
NtRp523
(dp524
g54
(dp525
g62
I3
ssg63
g519
sg56
(lp526
S''
asbasbasbag49
(g65
g51
NtRp527
(dp528
g54
(dp529
sg63
g423
sg56
(lp530
g49
(g70
g51
NtRp531
(dp532
g54
(dp533
g74
g75
ssg63
g527
sg56
(lp534
g368
asbag49
(g70
g51
NtRp535
(dp536
g54
(dp537
g81
g82
ssg63
g527
sg56
(lp538
S':'
asbag49
(g70
g51
NtRp539
(dp540
g54
(dp541
sg63
g527
sg56
(lp542
g49
(g50
g51
NtRp543
(dp544
g54
(dp545
g62
I3
ssg63
g539
sg56
(lp546
S''
asbasbasbag49
(g65
g51
NtRp547
(dp548
g54
(dp549
sg63
g423
sg56
(lp550
g49
(g70
g51
NtRp551
(dp552
g54
(dp553
g74
g75
ssg63
g547
sg56
(lp554
g389
asbag49
(g70
g51
NtRp555
(dp556
g54
(dp557
g81
g82
ssg63
g547
sg56
(lp558
S':'
asbag49
(g70
g51
NtRp559
(dp560
g54
(dp561
sg63
g547
sg56
(lp562
g49
(g50
g51
NtRp563
(dp564
g54
(dp565
g62
I3
ssg63
g559
sg56
(lp566
S''
asbasbasbasbasbasbasbasbasbasbasbag49
(g65
g51
NtRp567
(dp568
g54
(dp569
sg63
g59
sg56
(lp570
g49
(g70
g51
NtRp571
(dp572
g54
(dp573
g74
g75
ssg63
g567
sg56
(lp574
S'env'
p575
asbag49
(g70
g51
NtRp576
(dp577
g54
(dp578
g81
g82
ssg63
g567
sg56
(lp579
S':'
asbag49
(g70
g51
NtRp580
(dp581
g54
(dp582
sg63
g567
sg56
(lp583
g49
(g50
g51
NtRp584
(dp585
g54
(dp586
g62
I5
ssg63
g580
sg56
(lp587
g49
(g58
g51
NtRp588
(dp589
g54
(dp590
g62
I4
ssg63
Nsg56
(lp591
g49
(g65
g51
NtRp592
(dp593
g54
(dp594
sg63
g588
sg56
(lp595
g49
(g70
g51
NtRp596
(dp597
g54
(dp598
g74
g75
ssg63
g592
sg56
(lp599
S'app_folders'
p600
asbag49
(g70
g51
NtRp601
(dp602
g54
(dp603
g81
g82
ssg63
g592
sg56
(lp604
S':'
asbag49
(g70
g51
NtRp605
(dp606
g54
(dp607
sg63
g592
sg56
(lp608
g49
(g50
g51
NtRp609
(dp610
g54
(dp611
g62
I4
ssg63
g605
sg56
(lp612
S"set(['/Users/udimilo/Documents/web2py/applications/udi0312/', '/Users/udimilo/Documents/web2py/applications/admin/'])"
p613
asbasbasbag49
(g65
g51
NtRp614
(dp615
g54
(dp616
sg63
g588
sg56
(lp617
g49
(g70
g51
NtRp618
(dp619
g54
(dp620
g74
g75
ssg63
g614
sg56
(lp621
S'applications_parent'
p622
asbag49
(g70
g51
NtRp623
(dp624
g54
(dp625
g81
g82
ssg63
g614
sg56
(lp626
S':'
asbag49
(g70
g51
NtRp627
(dp628
g54
(dp629
sg63
g614
sg56
(lp630
g49
(g50
g51
NtRp631
(dp632
g54
(dp633
g62
I4
ssg63
g627
sg56
(lp634
S'/Users/udimilo/Documents/web2py'
p635
asbasbasbag49
(g65
g51
NtRp636
(dp637
g54
(dp638
sg63
g588
sg56
(lp639
g49
(g70
g51
NtRp640
(dp641
g54
(dp642
g74
g75
ssg63
g636
sg56
(lp643
S'cmd_args'
p644
asbag49
(g70
g51
NtRp645
(dp646
g54
(dp647
g81
g82
ssg63
g636
sg56
(lp648
S':'
asbag49
(g70
g51
NtRp649
(dp650
g54
(dp651
sg63
g636
sg56
(lp652
g49
(g50
g51
NtRp653
(dp654
g54
(dp655
g62
I4
ssg63
g649
sg56
(lp656
g49
(g58
g51
NtRp657
(dp658
g54
(dp659
g62
I3
ssg63
Nsg56
(lp660
sbasbasbasbag49
(g65
g51
NtRp661
(dp662
g54
(dp663
sg63
g588
sg56
(lp664
g49
(g70
g51
NtRp665
(dp666
g54
(dp667
g74
g75
ssg63
g661
sg56
(lp668
S'cmd_options'
p669
asbag49
(g70
g51
NtRp670
(dp671
g54
(dp672
g81
g82
ssg63
g661
sg56
(lp673
S':'
asbag49
(g70
g51
NtRp674
(dp675
g54
(dp676
sg63
g661
sg56
(lp677
g49
(g50
g51
NtRp678
(dp679
g54
(dp680
g62
I4
ssg63
g674
sg56
(lp681
S"<Values at 0x2c16058: {'verbose': False, 'ip': '127.0.0.1', 'shutdown_timeout': 5, 'taskbar': False, 'nocron': False, 'pid_filename': 'httpserver.pid', 'maxthreads': None, 'softcron': False, 'server_name': 'Udi-Milos-MacBook-Pro.local', 'bpython': False, 'nogui': False, 'port': 8000, 'extcron': False, 'debuglevel': 30, 'test': None, 'folder': '/Users/udimilo/Documents/web2py', 'config': '', 'import_models': False, 'winservice': '', 'shell': None, 'run': '', 'log_filename': 'httpserver.log', 'args': [''], 'socket_timeout': 5, 'ssl_ca_certificate': None, 'scheduler': None, 'profiler_filename': None, 'ssl_private_key': '', 'password': '<ask>', 'request_queue_size': 5, 'ssl_certificate': '', 'cronjob': False, 'numthreads': None, 'quiet': False, 'interfaces': None, 'minthreads': None, 'timeout': 10, 'plain': False, 'nobanner': False}>"
p682
asbasbasbag49
(g65
g51
NtRp683
(dp684
g54
(dp685
sg63
g588
sg56
(lp686
g49
(g70
g51
NtRp687
(dp688
g54
(dp689
g74
g75
ssg63
g683
sg56
(lp690
S'db_sessions'
p691
asbag49
(g70
g51
NtRp692
(dp693
g54
(dp694
g81
g82
ssg63
g683
sg56
(lp695
S':'
asbag49
(g70
g51
NtRp696
(dp697
g54
(dp698
sg63
g683
sg56
(lp699
g49
(g50
g51
NtRp700
(dp701
g54
(dp702
g62
I4
ssg63
g696
sg56
(lp703
S'set([])'
p704
asbasbasbag49
(g65
g51
NtRp705
(dp706
g54
(dp707
sg63
g588
sg56
(lp708
g49
(g70
g51
NtRp709
(dp710
g54
(dp711
g74
g75
ssg63
g705
sg56
(lp712
S'debugging'
p713
asbag49
(g70
g51
NtRp714
(dp715
g54
(dp716
g81
g82
ssg63
g705
sg56
(lp717
S':'
asbag49
(g70
g51
NtRp718
(dp719
g54
(dp720
sg63
g705
sg56
(lp721
g49
(g50
g51
NtRp722
(dp723
g54
(dp724
g62
I4
ssg63
g718
sg56
(lp725
g92
asbasbasbag49
(g65
g51
NtRp726
(dp727
g54
(dp728
sg63
g588
sg56
(lp729
g49
(g70
g51
NtRp730
(dp731
g54
(dp732
g74
g75
ssg63
g726
sg56
(lp733
S'gluon_parent'
p734
asbag49
(g70
g51
NtRp735
(dp736
g54
(dp737
g81
g82
ssg63
g726
sg56
(lp738
S':'
asbag49
(g70
g51
NtRp739
(dp740
g54
(dp741
sg63
g726
sg56
(lp742
g49
(g50
g51
NtRp743
(dp744
g54
(dp745
g62
I4
ssg63
g739
sg56
(lp746
S'/Users/udimilo/Documents/web2py'
p747
asbasbasbag49
(g65
g51
NtRp748
(dp749
g54
(dp750
sg63
g588
sg56
(lp751
g49
(g70
g51
NtRp752
(dp753
g54
(dp754
g74
g75
ssg63
g748
sg56
(lp755
S'http_accept'
p756
asbag49
(g70
g51
NtRp757
(dp758
g54
(dp759
g81
g82
ssg63
g748
sg56
(lp760
S':'
asbag49
(g70
g51
NtRp761
(dp762
g54
(dp763
sg63
g748
sg56
(lp764
g49
(g50
g51
NtRp765
(dp766
g54
(dp767
g62
I4
ssg63
g761
sg56
(lp768
S'text/html,application/xhtml+xml,application/xml;q=0.9,*/*;q=0.8'
p769
asbasbasbag49
(g65
g51
NtRp770
(dp771
g54
(dp772
sg63
g588
sg56
(lp773
g49
(g70
g51
NtRp774
(dp775
g54
(dp776
g74
g75
ssg63
g770
sg56
(lp777
S'http_accept_charset'
p778
asbag49
(g70
g51
NtRp779
(dp780
g54
(dp781
g81
g82
ssg63
g770
sg56
(lp782
S':'
asbag49
(g70
g51
NtRp783
(dp784
g54
(dp785
sg63
g770
sg56
(lp786
g49
(g50
g51
NtRp787
(dp788
g54
(dp789
g62
I4
ssg63
g783
sg56
(lp790
S'ISO-8859-1,utf-8;q=0.7,*;q=0.3'
p791
asbasbasbag49
(g65
g51
NtRp792
(dp793
g54
(dp794
sg63
g588
sg56
(lp795
g49
(g70
g51
NtRp796
(dp797
g54
(dp798
g74
g75
ssg63
g792
sg56
(lp799
S'http_accept_encoding'
p800
asbag49
(g70
g51
NtRp801
(dp802
g54
(dp803
g81
g82
ssg63
g792
sg56
(lp804
S':'
asbag49
(g70
g51
NtRp805
(dp806
g54
(dp807
sg63
g792
sg56
(lp808
g49
(g50
g51
NtRp809
(dp810
g54
(dp811
g62
I4
ssg63
g805
sg56
(lp812
S'gzip,deflate,sdch'
p813
asbasbasbag49
(g65
g51
NtRp814
(dp815
g54
(dp816
sg63
g588
sg56
(lp817
g49
(g70
g51
NtRp818
(dp819
g54
(dp820
g74
g75
ssg63
g814
sg56
(lp821
S'http_accept_language'
p822
asbag49
(g70
g51
NtRp823
(dp824
g54
(dp825
g81
g82
ssg63
g814
sg56
(lp826
S':'
asbag49
(g70
g51
NtRp827
(dp828
g54
(dp829
sg63
g814
sg56
(lp830
g49
(g50
g51
NtRp831
(dp832
g54
(dp833
g62
I4
ssg63
g827
sg56
(lp834
S'en-US,en;q=0.8'
p835
asbasbasbag49
(g65
g51
NtRp836
(dp837
g54
(dp838
sg63
g588
sg56
(lp839
g49
(g70
g51
NtRp840
(dp841
g54
(dp842
g74
g75
ssg63
g836
sg56
(lp843
S'http_cache_control'
p844
asbag49
(g70
g51
NtRp845
(dp846
g54
(dp847
g81
g82
ssg63
g836
sg56
(lp848
S':'
asbag49
(g70
g51
NtRp849
(dp850
g54
(dp851
sg63
g836
sg56
(lp852
g49
(g50
g51
NtRp853
(dp854
g54
(dp855
g62
I4
ssg63
g849
sg56
(lp856
S'max-age=0'
p857
asbasbasbag49
(g65
g51
NtRp858
(dp859
g54
(dp860
sg63
g588
sg56
(lp861
g49
(g70
g51
NtRp862
(dp863
g54
(dp864
g74
g75
ssg63
g858
sg56
(lp865
S'http_connection'
p866
asbag49
(g70
g51
NtRp867
(dp868
g54
(dp869
g81
g82
ssg63
g858
sg56
(lp870
S':'
asbag49
(g70
g51
NtRp871
(dp872
g54
(dp873
sg63
g858
sg56
(lp874
g49
(g50
g51
NtRp875
(dp876
g54
(dp877
g62
I4
ssg63
g871
sg56
(lp878
S'keep-alive'
p879
asbasbasbag49
(g65
g51
NtRp880
(dp881
g54
(dp882
sg63
g588
sg56
(lp883
g49
(g70
g51
NtRp884
(dp885
g54
(dp886
g74
g75
ssg63
g880
sg56
(lp887
S'http_cookie'
p888
asbag49
(g70
g51
NtRp889
(dp890
g54
(dp891
g81
g82
ssg63
g880
sg56
(lp892
S':'
asbag49
(g70
g51
NtRp893
(dp894
g54
(dp895
sg63
g880
sg56
(lp896
g49
(g50
g51
NtRp897
(dp898
g54
(dp899
g62
I4
ssg63
g893
sg56
(lp900
S'session_id_udi0312=127.0.0.1-fcd6a577-d448-4882-b7bc-f353da84ba3b; session_id_admin=127.0.0.1-834251b3-1889-42d7-a9cb-71df6f083038'
p901
asbasbasbag49
(g65
g51
NtRp902
(dp903
g54
(dp904
sg63
g588
sg56
(lp905
g49
(g70
g51
NtRp906
(dp907
g54
(dp908
g74
g75
ssg63
g902
sg56
(lp909
S'http_host'
p910
asbag49
(g70
g51
NtRp911
(dp912
g54
(dp913
g81
g82
ssg63
g902
sg56
(lp914
S':'
asbag49
(g70
g51
NtRp915
(dp916
g54
(dp917
sg63
g902
sg56
(lp918
g49
(g50
g51
NtRp919
(dp920
g54
(dp921
g62
I4
ssg63
g915
sg56
(lp922
S'127.0.0.1:8000'
p923
asbasbasbag49
(g65
g51
NtRp924
(dp925
g54
(dp926
sg63
g588
sg56
(lp927
g49
(g70
g51
NtRp928
(dp929
g54
(dp930
g74
g75
ssg63
g924
sg56
(lp931
S'http_user_agent'
p932
asbag49
(g70
g51
NtRp933
(dp934
g54
(dp935
g81
g82
ssg63
g924
sg56
(lp936
S':'
asbag49
(g70
g51
NtRp937
(dp938
g54
(dp939
sg63
g924
sg56
(lp940
g49
(g50
g51
NtRp941
(dp942
g54
(dp943
g62
I4
ssg63
g937
sg56
(lp944
S'Mozilla/5.0 (Macintosh; Intel Mac OS X 10_7_3) AppleWebKit/535.11 (KHTML, like Gecko) Chrome/17.0.963.78 Safari/535.11'
p945
asbasbasbag49
(g65
g51
NtRp946
(dp947
g54
(dp948
sg63
g588
sg56
(lp949
g49
(g70
g51
NtRp950
(dp951
g54
(dp952
g74
g75
ssg63
g946
sg56
(lp953
S'is_jython'
p954
asbag49
(g70
g51
NtRp955
(dp956
g54
(dp957
g81
g82
ssg63
g946
sg56
(lp958
S':'
asbag49
(g70
g51
NtRp959
(dp960
g54
(dp961
sg63
g946
sg56
(lp962
g49
(g50
g51
NtRp963
(dp964
g54
(dp965
g62
I4
ssg63
g959
sg56
(lp966
g92
asbasbasbag49
(g65
g51
NtRp967
(dp968
g54
(dp969
sg63
g588
sg56
(lp970
g49
(g70
g51
NtRp971
(dp972
g54
(dp973
g74
g75
ssg63
g967
sg56
(lp974
S'is_pypy'
p975
asbag49
(g70
g51
NtRp976
(dp977
g54
(dp978
g81
g82
ssg63
g967
sg56
(lp979
S':'
asbag49
(g70
g51
NtRp980
(dp981
g54
(dp982
sg63
g967
sg56
(lp983
g49
(g50
g51
NtRp984
(dp985
g54
(dp986
g62
I4
ssg63
g980
sg56
(lp987
g92
asbasbasbag49
(g65
g51
NtRp988
(dp989
g54
(dp990
sg63
g588
sg56
(lp991
g49
(g70
g51
NtRp992
(dp993
g54
(dp994
g74
g75
ssg63
g988
sg56
(lp995
S'path_info'
p996
asbag49
(g70
g51
NtRp997
(dp998
g54
(dp999
g81
g82
ssg63
g988
sg56
(lp1000
S':'
asbag49
(g70
g51
NtRp1001
(dp1002
g54
(dp1003
sg63
g988
sg56
(lp1004
g49
(g50
g51
NtRp1005
(dp1006
g54
(dp1007
g62
I4
ssg63
g1001
sg56
(lp1008
S'/test'
p1009
asbasbasbag49
(g65
g51
NtRp1010
(dp1011
g54
(dp1012
sg63
g588
sg56
(lp1013
g49
(g70
g51
NtRp1014
(dp1015
g54
(dp1016
g74
g75
ssg63
g1010
sg56
(lp1017
S'query_string'
p1018
asbag49
(g70
g51
NtRp1019
(dp1020
g54
(dp1021
g81
g82
ssg63
g1010
sg56
(lp1022
S':'
asbag49
(g70
g51
NtRp1023
(dp1024
g54
(dp1025
sg63
g1010
sg56
(lp1026
g49
(g50
g51
NtRp1027
(dp1028
g54
(dp1029
g62
I4
ssg63
g1023
sg56
(lp1030
S''
asbasbasbag49
(g65
g51
NtRp1031
(dp1032
g54
(dp1033
sg63
g588
sg56
(lp1034
g49
(g70
g51
NtRp1035
(dp1036
g54
(dp1037
g74
g75
ssg63
g1031
sg56
(lp1038
S'remote_addr'
p1039
asbag49
(g70
g51
NtRp1040
(dp1041
g54
(dp1042
g81
g82
ssg63
g1031
sg56
(lp1043
S':'
asbag49
(g70
g51
NtRp1044
(dp1045
g54
(dp1046
sg63
g1031
sg56
(lp1047
g49
(g50
g51
NtRp1048
(dp1049
g54
(dp1050
g62
I4
ssg63
g1044
sg56
(lp1051
g182
asbasbasbag49
(g65
g51
NtRp1052
(dp1053
g54
(dp1054
sg63
g588
sg56
(lp1055
g49
(g70
g51
NtRp1056
(dp1057
g54
(dp1058
g74
g75
ssg63
g1052
sg56
(lp1059
S'remote_port'
p1060
asbag49
(g70
g51
NtRp1061
(dp1062
g54
(dp1063
g81
g82
ssg63
g1052
sg56
(lp1064
S':'
asbag49
(g70
g51
NtRp1065
(dp1066
g54
(dp1067
sg63
g1052
sg56
(lp1068
g49
(g50
g51
NtRp1069
(dp1070
g54
(dp1071
g62
I4
ssg63
g1065
sg56
(lp1072
S'61110'
p1073
asbasbasbag49
(g65
g51
NtRp1074
(dp1075
g54
(dp1076
sg63
g588
sg56
(lp1077
g49
(g70
g51
NtRp1078
(dp1079
g54
(dp1080
g74
g75
ssg63
g1074
sg56
(lp1081
S'request_method'
p1082
asbag49
(g70
g51
NtRp1083
(dp1084
g54
(dp1085
g81
g82
ssg63
g1074
sg56
(lp1086
S':'
asbag49
(g70
g51
NtRp1087
(dp1088
g54
(dp1089
sg63
g1074
sg56
(lp1090
g49
(g50
g51
NtRp1091
(dp1092
g54
(dp1093
g62
I4
ssg63
g1087
sg56
(lp1094
S'GET'
p1095
asbasbasbag49
(g65
g51
NtRp1096
(dp1097
g54
(dp1098
sg63
g588
sg56
(lp1099
g49
(g70
g51
NtRp1100
(dp1101
g54
(dp1102
g74
g75
ssg63
g1096
sg56
(lp1103
S'request_uri'
p1104
asbag49
(g70
g51
NtRp1105
(dp1106
g54
(dp1107
g81
g82
ssg63
g1096
sg56
(lp1108
S':'
asbag49
(g70
g51
NtRp1109
(dp1110
g54
(dp1111
sg63
g1096
sg56
(lp1112
g49
(g50
g51
NtRp1113
(dp1114
g54
(dp1115
g62
I4
ssg63
g1109
sg56
(lp1116
S'/udi0312/default/test'
p1117
asbasbasbag49
(g65
g51
NtRp1118
(dp1119
g54
(dp1120
sg63
g588
sg56
(lp1121
g49
(g70
g51
NtRp1122
(dp1123
g54
(dp1124
g74
g75
ssg63
g1118
sg56
(lp1125
S'script_name'
p1126
asbag49
(g70
g51
NtRp1127
(dp1128
g54
(dp1129
g81
g82
ssg63
g1118
sg56
(lp1130
S':'
asbag49
(g70
g51
NtRp1131
(dp1132
g54
(dp1133
sg63
g1118
sg56
(lp1134
g49
(g50
g51
NtRp1135
(dp1136
g54
(dp1137
g62
I4
ssg63
g1131
sg56
(lp1138
S''
asbasbasbag49
(g65
g51
NtRp1139
(dp1140
g54
(dp1141
sg63
g588
sg56
(lp1142
g49
(g70
g51
NtRp1143
(dp1144
g54
(dp1145
g74
g75
ssg63
g1139
sg56
(lp1146
S'server_name'
p1147
asbag49
(g70
g51
NtRp1148
(dp1149
g54
(dp1150
g81
g82
ssg63
g1139
sg56
(lp1151
S':'
asbag49
(g70
g51
NtRp1152
(dp1153
g54
(dp1154
sg63
g1139
sg56
(lp1155
g49
(g50
g51
NtRp1156
(dp1157
g54
(dp1158
g62
I4
ssg63
g1152
sg56
(lp1159
S'Udi-Milos-MacBook-Pro.local'
p1160
asbasbasbag49
(g65
g51
NtRp1161
(dp1162
g54
(dp1163
sg63
g588
sg56
(lp1164
g49
(g70
g51
NtRp1165
(dp1166
g54
(dp1167
g74
g75
ssg63
g1161
sg56
(lp1168
S'server_port'
p1169
asbag49
(g70
g51
NtRp1170
(dp1171
g54
(dp1172
g81
g82
ssg63
g1161
sg56
(lp1173
S':'
asbag49
(g70
g51
NtRp1174
(dp1175
g54
(dp1176
sg63
g1161
sg56
(lp1177
g49
(g50
g51
NtRp1178
(dp1179
g54
(dp1180
g62
I4
ssg63
g1174
sg56
(lp1181
S'8000'
p1182
asbasbasbag49
(g65
g51
NtRp1183
(dp1184
g54
(dp1185
sg63
g588
sg56
(lp1186
g49
(g70
g51
NtRp1187
(dp1188
g54
(dp1189
g74
g75
ssg63
g1183
sg56
(lp1190
S'server_protocol'
p1191
asbag49
(g70
g51
NtRp1192
(dp1193
g54
(dp1194
g81
g82
ssg63
g1183
sg56
(lp1195
S':'
asbag49
(g70
g51
NtRp1196
(dp1197
g54
(dp1198
sg63
g1183
sg56
(lp1199
g49
(g50
g51
NtRp1200
(dp1201
g54
(dp1202
g62
I4
ssg63
g1196
sg56
(lp1203
S'HTTP/1.1'
p1204
asbasbasbag49
(g65
g51
NtRp1205
(dp1206
g54
(dp1207
sg63
g588
sg56
(lp1208
g49
(g70
g51
NtRp1209
(dp1210
g54
(dp1211
g74
g75
ssg63
g1205
sg56
(lp1212
S'server_software'
p1213
asbag49
(g70
g51
NtRp1214
(dp1215
g54
(dp1216
g81
g82
ssg63
g1205
sg56
(lp1217
S':'
asbag49
(g70
g51
NtRp1218
(dp1219
g54
(dp1220
sg63
g1205
sg56
(lp1221
g49
(g50
g51
NtRp1222
(dp1223
g54
(dp1224
g62
I4
ssg63
g1218
sg56
(lp1225
S'Rocket 1.2.4'
p1226
asbasbasbag49
(g65
g51
NtRp1227
(dp1228
g54
(dp1229
sg63
g588
sg56
(lp1230
g49
(g70
g51
NtRp1231
(dp1232
g54
(dp1233
g74
g75
ssg63
g1227
sg56
(lp1234
S'web2py_crontype'
p1235
asbag49
(g70
g51
NtRp1236
(dp1237
g54
(dp1238
g81
g82
ssg63
g1227
sg56
(lp1239
S':'
asbag49
(g70
g51
NtRp1240
(dp1241
g54
(dp1242
sg63
g1227
sg56
(lp1243
g49
(g50
g51
NtRp1244
(dp1245
g54
(dp1246
g62
I4
ssg63
g1240
sg56
(lp1247
S'hard'
p1248
asbasbasbag49
(g65
g51
NtRp1249
(dp1250
g54
(dp1251
sg63
g588
sg56
(lp1252
g49
(g70
g51
NtRp1253
(dp1254
g54
(dp1255
g74
g75
ssg63
g1249
sg56
(lp1256
S'web2py_original_uri'
p1257
asbag49
(g70
g51
NtRp1258
(dp1259
g54
(dp1260
g81
g82
ssg63
g1249
sg56
(lp1261
S':'
asbag49
(g70
g51
NtRp1262
(dp1263
g54
(dp1264
sg63
g1249
sg56
(lp1265
g49
(g50
g51
NtRp1266
(dp1267
g54
(dp1268
g62
I4
ssg63
g1262
sg56
(lp1269
g1009
asbasbasbag49
(g65
g51
NtRp1270
(dp1271
g54
(dp1272
sg63
g588
sg56
(lp1273
g49
(g70
g51
NtRp1274
(dp1275
g54
(dp1276
g74
g75
ssg63
g1270
sg56
(lp1277
S'web2py_path'
p1278
asbag49
(g70
g51
NtRp1279
(dp1280
g54
(dp1281
g81
g82
ssg63
g1270
sg56
(lp1282
S':'
asbag49
(g70
g51
NtRp1283
(dp1284
g54
(dp1285
sg63
g1270
sg56
(lp1286
g49
(g50
g51
NtRp1287
(dp1288
g54
(dp1289
g62
I4
ssg63
g1283
sg56
(lp1290
g635
asbasbasbag49
(g65
g51
NtRp1291
(dp1292
g54
(dp1293
sg63
g588
sg56
(lp1294
g49
(g70
g51
NtRp1295
(dp1296
g54
(dp1297
g74
g75
ssg63
g1291
sg56
(lp1298
S'web2py_version'
p1299
asbag49
(g70
g51
NtRp1300
(dp1301
g54
(dp1302
g81
g82
ssg63
g1291
sg56
(lp1303
S':'
asbag49
(g70
g51
NtRp1304
(dp1305
g54
(dp1306
sg63
g1291
sg56
(lp1307
g49
(g50
g51
NtRp1308
(dp1309
g54
(dp1310
g62
I4
ssg63
g1304
sg56
(lp1311
g49
(g58
g51
NtRp1312
(dp1313
g54
(dp1314
g62
I3
ssg63
Nsg56
(lp1315
g49
(g65
g51
NtRp1316
(dp1317
g54
(dp1318
sg63
g1312
sg56
(lp1319
g49
(g70
g51
NtRp1320
(dp1321
g54
(dp1322
sg63
g1316
sg56
(lp1323
g49
(g50
g51
NtRp1324
(dp1325
g54
(dp1326
g62
I3
ssg63
g1320
sg56
(lp1327
S'1'
asbasbasbag49
(g65
g51
NtRp1328
(dp1329
g54
(dp1330
sg63
g1312
sg56
(lp1331
g49
(g70
g51
NtRp1332
(dp1333
g54
(dp1334
sg63
g1328
sg56
(lp1335
g49
(g50
g51
NtRp1336
(dp1337
g54
(dp1338
g62
I3
ssg63
g1332
sg56
(lp1339
S'99'
p1340
asbasbasbag49
(g65
g51
NtRp1341
(dp1342
g54
(dp1343
sg63
g1312
sg56
(lp1344
g49
(g70
g51
NtRp1345
(dp1346
g54
(dp1347
sg63
g1341
sg56
(lp1348
g49
(g50
g51
NtRp1349
(dp1350
g54
(dp1351
g62
I3
ssg63
g1345
sg56
(lp1352
S'7'
asbasbasbag49
(g65
g51
NtRp1353
(dp1354
g54
(dp1355
sg63
g1312
sg56
(lp1356
g49
(g70
g51
NtRp1357
(dp1358
g54
(dp1359
sg63
g1353
sg56
(lp1360
g49
(g50
g51
NtRp1361
(dp1362
g54
(dp1363
g62
I3
ssg63
g1357
sg56
(lp1364
S'datetime.datetime(2012, 3, 4, 22, 12, 8)'
p1365
asbasbasbag49
(g65
g51
NtRp1366
(dp1367
g54
(dp1368
sg63
g1312
sg56
(lp1369
g49
(g70
g51
NtRp1370
(dp1371
g54
(dp1372
sg63
g1366
sg56
(lp1373
g49
(g50
g51
NtRp1374
(dp1375
g54
(dp1376
g62
I3
ssg63
g1370
sg56
(lp1377
S'stable'
p1378
asbasbasbasbasbasbasbag49
(g65
g51
NtRp1379
(dp1380
g54
(dp1381
sg63
g588
sg56
(lp1382
g49
(g70
g51
NtRp1383
(dp1384
g54
(dp1385
g74
g75
ssg63
g1379
sg56
(lp1386
S'wsgi_errors'
p1387
asbag49
(g70
g51
NtRp1388
(dp1389
g54
(dp1390
g81
g82
ssg63
g1379
sg56
(lp1391
S':'
asbag49
(g70
g51
NtRp1392
(dp1393
g54
(dp1394
sg63
g1379
sg56
(lp1395
g49
(g50
g51
NtRp1396
(dp1397
g54
(dp1398
g62
I4
ssg63
g1392
sg56
(lp1399
S"<open file '<stderr>', mode 'w' at 0x4220b0>"
p1400
asbasbasbag49
(g65
g51
NtRp1401
(dp1402
g54
(dp1403
sg63
g588
sg56
(lp1404
g49
(g70
g51
NtRp1405
(dp1406
g54
(dp1407
g74
g75
ssg63
g1401
sg56
(lp1408
S'wsgi_file_wrapper'
p1409
asbag49
(g70
g51
NtRp1410
(dp1411
g54
(dp1412
g81
g82
ssg63
g1401
sg56
(lp1413
S':'
asbag49
(g70
g51
NtRp1414
(dp1415
g54
(dp1416
sg63
g1401
sg56
(lp1417
g49
(g50
g51
NtRp1418
(dp1419
g54
(dp1420
g62
I4
ssg63
g1414
sg56
(lp1421
S'<class wsgiref.util.FileWrapper at 0x2b60450>'
p1422
asbasbasbag49
(g65
g51
NtRp1423
(dp1424
g54
(dp1425
sg63
g588
sg56
(lp1426
g49
(g70
g51
NtRp1427
(dp1428
g54
(dp1429
g74
g75
ssg63
g1423
sg56
(lp1430
S'wsgi_input'
p1431
asbag49
(g70
g51
NtRp1432
(dp1433
g54
(dp1434
g81
g82
ssg63
g1423
sg56
(lp1435
S':'
asbag49
(g70
g51
NtRp1436
(dp1437
g54
(dp1438
sg63
g1423
sg56
(lp1439
g49
(g50
g51
NtRp1440
(dp1441
g54
(dp1442
g62
I4
ssg63
g1436
sg56
(lp1443
S'<socket._fileobject object at 0x8e88230>'
p1444
asbasbasbag49
(g65
g51
NtRp1445
(dp1446
g54
(dp1447
sg63
g588
sg56
(lp1448
g49
(g70
g51
NtRp1449
(dp1450
g54
(dp1451
g74
g75
ssg63
g1445
sg56
(lp1452
S'wsgi_multiprocess'
p1453
asbag49
(g70
g51
NtRp1454
(dp1455
g54
(dp1456
g81
g82
ssg63
g1445
sg56
(lp1457
S':'
asbag49
(g70
g51
NtRp1458
(dp1459
g54
(dp1460
sg63
g1445
sg56
(lp1461
g49
(g50
g51
NtRp1462
(dp1463
g54
(dp1464
g62
I4
ssg63
g1458
sg56
(lp1465
g92
asbasbasbag49
(g65
g51
NtRp1466
(dp1467
g54
(dp1468
sg63
g588
sg56
(lp1469
g49
(g70
g51
NtRp1470
(dp1471
g54
(dp1472
g74
g75
ssg63
g1466
sg56
(lp1473
S'wsgi_multithread'
p1474
asbag49
(g70
g51
NtRp1475
(dp1476
g54
(dp1477
g81
g82
ssg63
g1466
sg56
(lp1478
S':'
asbag49
(g70
g51
NtRp1479
(dp1480
g54
(dp1481
sg63
g1466
sg56
(lp1482
g49
(g50
g51
NtRp1483
(dp1484
g54
(dp1485
g62
I4
ssg63
g1479
sg56
(lp1486
S'True'
p1487
asbasbasbag49
(g65
g51
NtRp1488
(dp1489
g54
(dp1490
sg63
g588
sg56
(lp1491
g49
(g70
g51
NtRp1492
(dp1493
g54
(dp1494
g74
g75
ssg63
g1488
sg56
(lp1495
S'wsgi_run_once'
p1496
asbag49
(g70
g51
NtRp1497
(dp1498
g54
(dp1499
g81
g82
ssg63
g1488
sg56
(lp1500
S':'
asbag49
(g70
g51
NtRp1501
(dp1502
g54
(dp1503
sg63
g1488
sg56
(lp1504
g49
(g50
g51
NtRp1505
(dp1506
g54
(dp1507
g62
I4
ssg63
g1501
sg56
(lp1508
g92
asbasbasbag49
(g65
g51
NtRp1509
(dp1510
g54
(dp1511
sg63
g588
sg56
(lp1512
g49
(g70
g51
NtRp1513
(dp1514
g54
(dp1515
g74
g75
ssg63
g1509
sg56
(lp1516
S'wsgi_url_scheme'
p1517
asbag49
(g70
g51
NtRp1518
(dp1519
g54
(dp1520
g81
g82
ssg63
g1509
sg56
(lp1521
S':'
asbag49
(g70
g51
NtRp1522
(dp1523
g54
(dp1524
sg63
g1509
sg56
(lp1525
g49
(g50
g51
NtRp1526
(dp1527
g54
(dp1528
g62
I4
ssg63
g1522
sg56
(lp1529
S'http'
p1530
asbasbasbag49
(g65
g51
NtRp1531
(dp1532
g54
(dp1533
sg63
g588
sg56
(lp1534
g49
(g70
g51
NtRp1535
(dp1536
g54
(dp1537
g74
g75
ssg63
g1531
sg56
(lp1538
S'wsgi_version'
p1539
asbag49
(g70
g51
NtRp1540
(dp1541
g54
(dp1542
g81
g82
ssg63
g1531
sg56
(lp1543
S':'
asbag49
(g70
g51
NtRp1544
(dp1545
g54
(dp1546
sg63
g1531
sg56
(lp1547
g49
(g50
g51
NtRp1548
(dp1549
g54
(dp1550
g62
I4
ssg63
g1544
sg56
(lp1551
g49
(g58
g51
NtRp1552
(dp1553
g54
(dp1554
g62
I3
ssg63
Nsg56
(lp1555
g49
(g65
g51
NtRp1556
(dp1557
g54
(dp1558
sg63
g1552
sg56
(lp1559
g49
(g70
g51
NtRp1560
(dp1561
g54
(dp1562
sg63
g1556
sg56
(lp1563
g49
(g50
g51
NtRp1564
(dp1565
g54
(dp1566
g62
I3
ssg63
g1560
sg56
(lp1567
S'1'
asbasbasbag49
(g65
g51
NtRp1568
(dp1569
g54
(dp1570
sg63
g1552
sg56
(lp1571
g49
(g70
g51
NtRp1572
(dp1573
g54
(dp1574
sg63
g1568
sg56
(lp1575
g49
(g50
g51
NtRp1576
(dp1577
g54
(dp1578
g62
I3
ssg63
g1572
sg56
(lp1579
S'0'
asbasbasbasbasbasbasbasbasbasbasbag49
(g65
g51
NtRp1580
(dp1581
g54
(dp1582
sg63
g59
sg56
(lp1583
g49
(g70
g51
NtRp1584
(dp1585
g54
(dp1586
g74
g75
ssg63
g1580
sg56
(lp1587
S'extension'
p1588
asbag49
(g70
g51
NtRp1589
(dp1590
g54
(dp1591
g81
g82
ssg63
g1580
sg56
(lp1592
S':'
asbag49
(g70
g51
NtRp1593
(dp1594
g54
(dp1595
sg63
g1580
sg56
(lp1596
g49
(g50
g51
NtRp1597
(dp1598
g54
(dp1599
g62
I5
ssg63
g1593
sg56
(lp1600
S'html'
p1601
asbasbasbag49
(g65
g51
NtRp1602
(dp1603
g54
(dp1604
sg63
g59
sg56
(lp1605
g49
(g70
g51
NtRp1606
(dp1607
g54
(dp1608
g74
g75
ssg63
g1602
sg56
(lp1609
S'folder'
p1610
asbag49
(g70
g51
NtRp1611
(dp1612
g54
(dp1613
g81
g82
ssg63
g1602
sg56
(lp1614
S':'
asbag49
(g70
g51
NtRp1615
(dp1616
g54
(dp1617
sg63
g1602
sg56
(lp1618
g49
(g50
g51
NtRp1619
(dp1620
g54
(dp1621
g62
I5
ssg63
g1615
sg56
(lp1622
S'/Users/udimilo/Documents/web2py/applications/udi0312/'
p1623
asbasbasbag49
(g65
g51
NtRp1624
(dp1625
g54
(dp1626
sg63
g59
sg56
(lp1627
g49
(g70
g51
NtRp1628
(dp1629
g54
(dp1630
g74
g75
ssg63
g1624
sg56
(lp1631
S'function'
p1632
asbag49
(g70
g51
NtRp1633
(dp1634
g54
(dp1635
g81
g82
ssg63
g1624
sg56
(lp1636
S':'
asbag49
(g70
g51
NtRp1637
(dp1638
g54
(dp1639
sg63
g1624
sg56
(lp1640
g49
(g50
g51
NtRp1641
(dp1642
g54
(dp1643
g62
I5
ssg63
g1637
sg56
(lp1644
S'test'
p1645
asbasbasbag49
(g65
g51
NtRp1646
(dp1647
g54
(dp1648
sg63
g59
sg56
(lp1649
g49
(g70
g51
NtRp1650
(dp1651
g54
(dp1652
g74
g75
ssg63
g1646
sg56
(lp1653
S'get_vars'
p1654
asbag49
(g70
g51
NtRp1655
(dp1656
g54
(dp1657
g81
g82
ssg63
g1646
sg56
(lp1658
S':'
asbag49
(g70
g51
NtRp1659
(dp1660
g54
(dp1661
sg63
g1646
sg56
(lp1662
g49
(g50
g51
NtRp1663
(dp1664
g54
(dp1665
g62
I5
ssg63
g1659
sg56
(lp1666
g49
(g58
g51
NtRp1667
(dp1668
g54
(dp1669
g62
I4
ssg63
Nsg56
(lp1670
sbasbasbasbag49
(g65
g51
NtRp1671
(dp1672
g54
(dp1673
sg63
g59
sg56
(lp1674
g49
(g70
g51
NtRp1675
(dp1676
g54
(dp1677
g74
g75
ssg63
g1671
sg56
(lp1678
S'global_settings'
p1679
asbag49
(g70
g51
NtRp1680
(dp1681
g54
(dp1682
g81
g82
ssg63
g1671
sg56
(lp1683
S':'
asbag49
(g70
g51
NtRp1684
(dp1685
g54
(dp1686
sg63
g1671
sg56
(lp1687
g49
(g50
g51
NtRp1688
(dp1689
g54
(dp1690
g62
I5
ssg63
g1684
sg56
(lp1691
g49
(g58
g51
NtRp1692
(dp1693
g54
(dp1694
g62
I4
ssg63
Nsg56
(lp1695
g49
(g65
g51
NtRp1696
(dp1697
g54
(dp1698
sg63
g1692
sg56
(lp1699
g49
(g70
g51
NtRp1700
(dp1701
g54
(dp1702
g74
g75
ssg63
g1696
sg56
(lp1703
g600
asbag49
(g70
g51
NtRp1704
(dp1705
g54
(dp1706
g81
g82
ssg63
g1696
sg56
(lp1707
S':'
asbag49
(g70
g51
NtRp1708
(dp1709
g54
(dp1710
sg63
g1696
sg56
(lp1711
g49
(g50
g51
NtRp1712
(dp1713
g54
(dp1714
g62
I4
ssg63
g1708
sg56
(lp1715
S"set(['/Users/udimilo/Documents/web2py/applications/udi0312/', '/Users/udimilo/Documents/web2py/applications/admin/'])"
p1716
asbasbasbag49
(g65
g51
NtRp1717
(dp1718
g54
(dp1719
sg63
g1692
sg56
(lp1720
g49
(g70
g51
NtRp1721
(dp1722
g54
(dp1723
g74
g75
ssg63
g1717
sg56
(lp1724
g622
asbag49
(g70
g51
NtRp1725
(dp1726
g54
(dp1727
g81
g82
ssg63
g1717
sg56
(lp1728
S':'
asbag49
(g70
g51
NtRp1729
(dp1730
g54
(dp1731
sg63
g1717
sg56
(lp1732
g49
(g50
g51
NtRp1733
(dp1734
g54
(dp1735
g62
I4
ssg63
g1729
sg56
(lp1736
g635
asbasbasbag49
(g65
g51
NtRp1737
(dp1738
g54
(dp1739
sg63
g1692
sg56
(lp1740
g49
(g70
g51
NtRp1741
(dp1742
g54
(dp1743
g74
g75
ssg63
g1737
sg56
(lp1744
g644
asbag49
(g70
g51
NtRp1745
(dp1746
g54
(dp1747
g81
g82
ssg63
g1737
sg56
(lp1748
S':'
asbag49
(g70
g51
NtRp1749
(dp1750
g54
(dp1751
sg63
g1737
sg56
(lp1752
g49
(g50
g51
NtRp1753
(dp1754
g54
(dp1755
g62
I4
ssg63
g1749
sg56
(lp1756
g49
(g58
g51
NtRp1757
(dp1758
g54
(dp1759
g62
I3
ssg63
Nsg56
(lp1760
sbasbasbasbag49
(g65
g51
NtRp1761
(dp1762
g54
(dp1763
sg63
g1692
sg56
(lp1764
g49
(g70
g51
NtRp1765
(dp1766
g54
(dp1767
g74
g75
ssg63
g1761
sg56
(lp1768
g669
asbag49
(g70
g51
NtRp1769
(dp1770
g54
(dp1771
g81
g82
ssg63
g1761
sg56
(lp1772
S':'
asbag49
(g70
g51
NtRp1773
(dp1774
g54
(dp1775
sg63
g1761
sg56
(lp1776
g49
(g50
g51
NtRp1777
(dp1778
g54
(dp1779
g62
I4
ssg63
g1773
sg56
(lp1780
S"<Values at 0x2c16058: {'verbose': False, 'ip': '127.0.0.1', 'shutdown_timeout': 5, 'taskbar': False, 'nocron': False, 'pid_filename': 'httpserver.pid', 'maxthreads': None, 'softcron': False, 'server_name': 'Udi-Milos-MacBook-Pro.local', 'bpython': False, 'nogui': False, 'port': 8000, 'extcron': False, 'debuglevel': 30, 'test': None, 'folder': '/Users/udimilo/Documents/web2py', 'config': '', 'import_models': False, 'winservice': '', 'shell': None, 'run': '', 'log_filename': 'httpserver.log', 'args': [''], 'socket_timeout': 5, 'ssl_ca_certificate': None, 'scheduler': None, 'profiler_filename': None, 'ssl_private_key': '', 'password': '<ask>', 'request_queue_size': 5, 'ssl_certificate': '', 'cronjob': False, 'numthreads': None, 'quiet': False, 'interfaces': None, 'minthreads': None, 'timeout': 10, 'plain': False, 'nobanner': False}>"
p1781
asbasbasbag49
(g65
g51
NtRp1782
(dp1783
g54
(dp1784
sg63
g1692
sg56
(lp1785
g49
(g70
g51
NtRp1786
(dp1787
g54
(dp1788
g74
g75
ssg63
g1782
sg56
(lp1789
g691
asbag49
(g70
g51
NtRp1790
(dp1791
g54
(dp1792
g81
g82
ssg63
g1782
sg56
(lp1793
S':'
asbag49
(g70
g51
NtRp1794
(dp1795
g54
(dp1796
sg63
g1782
sg56
(lp1797
g49
(g50
g51
NtRp1798
(dp1799
g54
(dp1800
g62
I4
ssg63
g1794
sg56
(lp1801
S'set([])'
p1802
asbasbasbag49
(g65
g51
NtRp1803
(dp1804
g54
(dp1805
sg63
g1692
sg56
(lp1806
g49
(g70
g51
NtRp1807
(dp1808
g54
(dp1809
g74
g75
ssg63
g1803
sg56
(lp1810
g713
asbag49
(g70
g51
NtRp1811
(dp1812
g54
(dp1813
g81
g82
ssg63
g1803
sg56
(lp1814
S':'
asbag49
(g70
g51
NtRp1815
(dp1816
g54
(dp1817
sg63
g1803
sg56
(lp1818
g49
(g50
g51
NtRp1819
(dp1820
g54
(dp1821
g62
I4
ssg63
g1815
sg56
(lp1822
g92
asbasbasbag49
(g65
g51
NtRp1823
(dp1824
g54
(dp1825
sg63
g1692
sg56
(lp1826
g49
(g70
g51
NtRp1827
(dp1828
g54
(dp1829
g74
g75
ssg63
g1823
sg56
(lp1830
g734
asbag49
(g70
g51
NtRp1831
(dp1832
g54
(dp1833
g81
g82
ssg63
g1823
sg56
(lp1834
S':'
asbag49
(g70
g51
NtRp1835
(dp1836
g54
(dp1837
sg63
g1823
sg56
(lp1838
g49
(g50
g51
NtRp1839
(dp1840
g54
(dp1841
g62
I4
ssg63
g1835
sg56
(lp1842
g747
asbasbasbag49
(g65
g51
NtRp1843
(dp1844
g54
(dp1845
sg63
g1692
sg56
(lp1846
g49
(g70
g51
NtRp1847
(dp1848
g54
(dp1849
g74
g75
ssg63
g1843
sg56
(lp1850
g954
asbag49
(g70
g51
NtRp1851
(dp1852
g54
(dp1853
g81
g82
ssg63
g1843
sg56
(lp1854
S':'
asbag49
(g70
g51
NtRp1855
(dp1856
g54
(dp1857
sg63
g1843
sg56
(lp1858
g49
(g50
g51
NtRp1859
(dp1860
g54
(dp1861
g62
I4
ssg63
g1855
sg56
(lp1862
g92
asbasbasbag49
(g65
g51
NtRp1863
(dp1864
g54
(dp1865
sg63
g1692
sg56
(lp1866
g49
(g70
g51
NtRp1867
(dp1868
g54
(dp1869
g74
g75
ssg63
g1863
sg56
(lp1870
g975
asbag49
(g70
g51
NtRp1871
(dp1872
g54
(dp1873
g81
g82
ssg63
g1863
sg56
(lp1874
S':'
asbag49
(g70
g51
NtRp1875
(dp1876
g54
(dp1877
sg63
g1863
sg56
(lp1878
g49
(g50
g51
NtRp1879
(dp1880
g54
(dp1881
g62
I4
ssg63
g1875
sg56
(lp1882
g92
asbasbasbag49
(g65
g51
NtRp1883
(dp1884
g54
(dp1885
sg63
g1692
sg56
(lp1886
g49
(g70
g51
NtRp1887
(dp1888
g54
(dp1889
g74
g75
ssg63
g1883
sg56
(lp1890
g1235
asbag49
(g70
g51
NtRp1891
(dp1892
g54
(dp1893
g81
g82
ssg63
g1883
sg56
(lp1894
S':'
asbag49
(g70
g51
NtRp1895
(dp1896
g54
(dp1897
sg63
g1883
sg56
(lp1898
g49
(g50
g51
NtRp1899
(dp1900
g54
(dp1901
g62
I4
ssg63
g1895
sg56
(lp1902
g1248
asbasbasbag49
(g65
g51
NtRp1903
(dp1904
g54
(dp1905
sg63
g1692
sg56
(lp1906
g49
(g70
g51
NtRp1907
(dp1908
g54
(dp1909
g74
g75
ssg63
g1903
sg56
(lp1910
g1299
asbag49
(g70
g51
NtRp1911
(dp1912
g54
(dp1913
g81
g82
ssg63
g1903
sg56
(lp1914
S':'
asbag49
(g70
g51
NtRp1915
(dp1916
g54
(dp1917
sg63
g1903
sg56
(lp1918
g49
(g50
g51
NtRp1919
(dp1920
g54
(dp1921
g62
I4
ssg63
g1915
sg56
(lp1922
g49
(g58
g51
NtRp1923
(dp1924
g54
(dp1925
g62
I3
ssg63
Nsg56
(lp1926
g49
(g65
g51
NtRp1927
(dp1928
g54
(dp1929
sg63
g1923
sg56
(lp1930
g49
(g70
g51
NtRp1931
(dp1932
g54
(dp1933
sg63
g1927
sg56
(lp1934
g49
(g50
g51
NtRp1935
(dp1936
g54
(dp1937
g62
I3
ssg63
g1931
sg56
(lp1938
S'1'
asbasbasbag49
(g65
g51
NtRp1939
(dp1940
g54
(dp1941
sg63
g1923
sg56
(lp1942
g49
(g70
g51
NtRp1943
(dp1944
g54
(dp1945
sg63
g1939
sg56
(lp1946
g49
(g50
g51
NtRp1947
(dp1948
g54
(dp1949
g62
I3
ssg63
g1943
sg56
(lp1950
S'99'
p1951
asbasbasbag49
(g65
g51
NtRp1952
(dp1953
g54
(dp1954
sg63
g1923
sg56
(lp1955
g49
(g70
g51
NtRp1956
(dp1957
g54
(dp1958
sg63
g1952
sg56
(lp1959
g49
(g50
g51
NtRp1960
(dp1961
g54
(dp1962
g62
I3
ssg63
g1956
sg56
(lp1963
S'7'
asbasbasbag49
(g65
g51
NtRp1964
(dp1965
g54
(dp1966
sg63
g1923
sg56
(lp1967
g49
(g70
g51
NtRp1968
(dp1969
g54
(dp1970
sg63
g1964
sg56
(lp1971
g49
(g50
g51
NtRp1972
(dp1973
g54
(dp1974
g62
I3
ssg63
g1968
sg56
(lp1975
S'datetime.datetime(2012, 3, 4, 22, 12, 8)'
p1976
asbasbasbag49
(g65
g51
NtRp1977
(dp1978
g54
(dp1979
sg63
g1923
sg56
(lp1980
g49
(g70
g51
NtRp1981
(dp1982
g54
(dp1983
sg63
g1977
sg56
(lp1984
g49
(g50
g51
NtRp1985
(dp1986
g54
(dp1987
g62
I3
ssg63
g1981
sg56
(lp1988
g1378
asbasbasbasbasbasbasbasbasbasbasbag49
(g65
g51
NtRp1989
(dp1990
g54
(dp1991
sg63
g59
sg56
(lp1992
g49
(g70
g51
NtRp1993
(dp1994
g54
(dp1995
g74
g75
ssg63
g1989
sg56
(lp1996
S'is_https'
p1997
asbag49
(g70
g51
NtRp1998
(dp1999
g54
(dp2000
g81
g82
ssg63
g1989
sg56
(lp2001
S':'
asbag49
(g70
g51
NtRp2002
(dp2003
g54
(dp2004
sg63
g1989
sg56
(lp2005
g49
(g50
g51
NtRp2006
(dp2007
g54
(dp2008
g62
I5
ssg63
g2002
sg56
(lp2009
g92
asbasbasbag49
(g65
g51
NtRp2010
(dp2011
g54
(dp2012
sg63
g59
sg56
(lp2013
g49
(g70
g51
NtRp2014
(dp2015
g54
(dp2016
g74
g75
ssg63
g2010
sg56
(lp2017
S'is_local'
p2018
asbag49
(g70
g51
NtRp2019
(dp2020
g54
(dp2021
g81
g82
ssg63
g2010
sg56
(lp2022
S':'
asbag49
(g70
g51
NtRp2023
(dp2024
g54
(dp2025
sg63
g2010
sg56
(lp2026
g49
(g50
g51
NtRp2027
(dp2028
g54
(dp2029
g62
I5
ssg63
g2023
sg56
(lp2030
g1487
asbasbasbag49
(g65
g51
NtRp2031
(dp2032
g54
(dp2033
sg63
g59
sg56
(lp2034
g49
(g70
g51
NtRp2035
(dp2036
g54
(dp2037
g74
g75
ssg63
g2031
sg56
(lp2038
S'is_restful'
p2039
asbag49
(g70
g51
NtRp2040
(dp2041
g54
(dp2042
g81
g82
ssg63
g2031
sg56
(lp2043
S':'
asbag49
(g70
g51
NtRp2044
(dp2045
g54
(dp2046
sg63
g2031
sg56
(lp2047
g49
(g50
g51
NtRp2048
(dp2049
g54
(dp2050
g62
I5
ssg63
g2044
sg56
(lp2051
g92
asbasbasbag49
(g65
g51
NtRp2052
(dp2053
g54
(dp2054
sg63
g59
sg56
(lp2055
g49
(g70
g51
NtRp2056
(dp2057
g54
(dp2058
g74
g75
ssg63
g2052
sg56
(lp2059
S'now'
p2060
asbag49
(g70
g51
NtRp2061
(dp2062
g54
(dp2063
g81
g82
ssg63
g2052
sg56
(lp2064
S':'
asbag49
(g70
g51
NtRp2065
(dp2066
g54
(dp2067
sg63
g2052
sg56
(lp2068
g49
(g50
g51
NtRp2069
(dp2070
g54
(dp2071
g62
I5
ssg63
g2065
sg56
(lp2072
S'datetime.datetime(2012, 3, 9, 12, 4, 11, 546710)'
p2073
asbasbasbag49
(g65
g51
NtRp2074
(dp2075
g54
(dp2076
sg63
g59
sg56
(lp2077
g49
(g70
g51
NtRp2078
(dp2079
g54
(dp2080
g74
g75
ssg63
g2074
sg56
(lp2081
S'post_vars'
p2082
asbag49
(g70
g51
NtRp2083
(dp2084
g54
(dp2085
g81
g82
ssg63
g2074
sg56
(lp2086
S':'
asbag49
(g70
g51
NtRp2087
(dp2088
g54
(dp2089
sg63
g2074
sg56
(lp2090
g49
(g50
g51
NtRp2091
(dp2092
g54
(dp2093
g62
I5
ssg63
g2087
sg56
(lp2094
g49
(g58
g51
NtRp2095
(dp2096
g54
(dp2097
g62
I4
ssg63
Nsg56
(lp2098
sbasbasbasbag49
(g65
g51
NtRp2099
(dp2100
g54
(dp2101
sg63
g59
sg56
(lp2102
g49
(g70
g51
NtRp2103
(dp2104
g54
(dp2105
g74
g75
ssg63
g2099
sg56
(lp2106
S'url'
p2107
asbag49
(g70
g51
NtRp2108
(dp2109
g54
(dp2110
g81
g82
ssg63
g2099
sg56
(lp2111
S':'
asbag49
(g70
g51
NtRp2112
(dp2113
g54
(dp2114
sg63
g2099
sg56
(lp2115
g49
(g50
g51
NtRp2116
(dp2117
g54
(dp2118
g62
I5
ssg63
g2112
sg56
(lp2119
S'/test'
p2120
asbasbasbag49
(g65
g51
NtRp2121
(dp2122
g54
(dp2123
sg63
g59
sg56
(lp2124
g49
(g70
g51
NtRp2125
(dp2126
g54
(dp2127
g74
g75
ssg63
g2121
sg56
(lp2128
S'utcnow'
p2129
asbag49
(g70
g51
NtRp2130
(dp2131
g54
(dp2132
g81
g82
ssg63
g2121
sg56
(lp2133
S':'
asbag49
(g70
g51
NtRp2134
(dp2135
g54
(dp2136
sg63
g2121
sg56
(lp2137
g49
(g50
g51
NtRp2138
(dp2139
g54
(dp2140
g62
I5
ssg63
g2134
sg56
(lp2141
S'datetime.datetime(2012, 3, 9, 17, 4, 11, 546725)'
p2142
asbasbasbag49
(g65
g51
NtRp2143
(dp2144
g54
(dp2145
sg63
g59
sg56
(lp2146
g49
(g70
g51
NtRp2147
(dp2148
g54
(dp2149
g74
g75
ssg63
g2143
sg56
(lp2150
S'uuid'
p2151
asbag49
(g70
g51
NtRp2152
(dp2153
g54
(dp2154
g81
g82
ssg63
g2143
sg56
(lp2155
S':'
asbag49
(g70
g51
NtRp2156
(dp2157
g54
(dp2158
sg63
g2143
sg56
(lp2159
g49
(g50
g51
NtRp2160
(dp2161
g54
(dp2162
g62
I5
ssg63
g2156
sg56
(lp2163
S'udi0312/127.0.0.1.2012-03-09.12-04-11.d4eb611c-596c-44e9-a92b-2a0581a580ee'
p2164
asbasbasbag49
(g65
g51
NtRp2165
(dp2166
g54
(dp2167
sg63
g59
sg56
(lp2168
g49
(g70
g51
NtRp2169
(dp2170
g54
(dp2171
g74
g75
ssg63
g2165
sg56
(lp2172
S'vars'
p2173
asbag49
(g70
g51
NtRp2174
(dp2175
g54
(dp2176
g81
g82
ssg63
g2165
sg56
(lp2177
S':'
asbag49
(g70
g51
NtRp2178
(dp2179
g54
(dp2180
sg63
g2165
sg56
(lp2181
g49
(g50
g51
NtRp2182
(dp2183
g54
(dp2184
g62
I5
ssg63
g2178
sg56
(lp2185
g49
(g58
g51
NtRp2186
(dp2187
g54
(dp2188
g62
I4
ssg63
Nsg56
(lp2189
sbasbasbasbag49
(g65
g51
NtRp2190
(dp2191
g54
(dp2192
sg63
g59
sg56
(lp2193
g49
(g70
g51
NtRp2194
(dp2195
g54
(dp2196
g74
g75
ssg63
g2190
sg56
(lp2197
S'wsgi'
p2198
asbag49
(g70
g51
NtRp2199
(dp2200
g54
(dp2201
g81
g82
ssg63
g2190
sg56
(lp2202
S':'
asbag49
(g70
g51
NtRp2203
(dp2204
g54
(dp2205
sg63
g2190
sg56
(lp2206
g49
(g50
g51
NtRp2207
(dp2208
g54
(dp2209
g62
I5
ssg63
g2203
sg56
(lp2210
g49
(g58
g51
NtRp2211
(dp2212
g54
(dp2213
g62
I4
ssg63
Nsg56
(lp2214
g49
(g65
g51
NtRp2215
(dp2216
g54
(dp2217
sg63
g2211
sg56
(lp2218
g49
(g70
g51
NtRp2219
(dp2220
g54
(dp2221
g74
g75
ssg63
g2215
sg56
(lp2222
S'environ'
p2223
asbag49
(g70
g51
NtRp2224
(dp2225
g54
(dp2226
g81
g82
ssg63
g2215
sg56
(lp2227
S':'
asbag49
(g70
g51
NtRp2228
(dp2229
g54
(dp2230
sg63
g2215
sg56
(lp2231
g49
(g50
g51
NtRp2232
(dp2233
g54
(dp2234
g62
I4
ssg63
g2228
sg56
(lp2235
g49
(g58
g51
NtRp2236
(dp2237
g54
(dp2238
g62
I3
ssg63
Nsg56
(lp2239
g49
(g65
g51
NtRp2240
(dp2241
g54
(dp2242
sg63
g2236
sg56
(lp2243
g49
(g70
g51
NtRp2244
(dp2245
g54
(dp2246
g74
g75
ssg63
g2240
sg56
(lp2247
S'HTTP_ACCEPT'
p2248
asbag49
(g70
g51
NtRp2249
(dp2250
g54
(dp2251
g81
g82
ssg63
g2240
sg56
(lp2252
S':'
asbag49
(g70
g51
NtRp2253
(dp2254
g54
(dp2255
sg63
g2240
sg56
(lp2256
g49
(g50
g51
NtRp2257
(dp2258
g54
(dp2259
g62
I3
ssg63
g2253
sg56
(lp2260
g769
asbasbasbag49
(g65
g51
NtRp2261
(dp2262
g54
(dp2263
sg63
g2236
sg56
(lp2264
g49
(g70
g51
NtRp2265
(dp2266
g54
(dp2267
g74
g75
ssg63
g2261
sg56
(lp2268
S'HTTP_ACCEPT_CHARSET'
p2269
asbag49
(g70
g51
NtRp2270
(dp2271
g54
(dp2272
g81
g82
ssg63
g2261
sg56
(lp2273
S':'
asbag49
(g70
g51
NtRp2274
(dp2275
g54
(dp2276
sg63
g2261
sg56
(lp2277
g49
(g50
g51
NtRp2278
(dp2279
g54
(dp2280
g62
I3
ssg63
g2274
sg56
(lp2281
g791
asbasbasbag49
(g65
g51
NtRp2282
(dp2283
g54
(dp2284
sg63
g2236
sg56
(lp2285
g49
(g70
g51
NtRp2286
(dp2287
g54
(dp2288
g74
g75
ssg63
g2282
sg56
(lp2289
S'HTTP_ACCEPT_ENCODING'
p2290
asbag49
(g70
g51
NtRp2291
(dp2292
g54
(dp2293
g81
g82
ssg63
g2282
sg56
(lp2294
S':'
asbag49
(g70
g51
NtRp2295
(dp2296
g54
(dp2297
sg63
g2282
sg56
(lp2298
g49
(g50
g51
NtRp2299
(dp2300
g54
(dp2301
g62
I3
ssg63
g2295
sg56
(lp2302
g813
asbasbasbag49
(g65
g51
NtRp2303
(dp2304
g54
(dp2305
sg63
g2236
sg56
(lp2306
g49
(g70
g51
NtRp2307
(dp2308
g54
(dp2309
g74
g75
ssg63
g2303
sg56
(lp2310
S'HTTP_ACCEPT_LANGUAGE'
p2311
asbag49
(g70
g51
NtRp2312
(dp2313
g54
(dp2314
g81
g82
ssg63
g2303
sg56
(lp2315
S':'
asbag49
(g70
g51
NtRp2316
(dp2317
g54
(dp2318
sg63
g2303
sg56
(lp2319
g49
(g50
g51
NtRp2320
(dp2321
g54
(dp2322
g62
I3
ssg63
g2316
sg56
(lp2323
g835
asbasbasbag49
(g65
g51
NtRp2324
(dp2325
g54
(dp2326
sg63
g2236
sg56
(lp2327
g49
(g70
g51
NtRp2328
(dp2329
g54
(dp2330
g74
g75
ssg63
g2324
sg56
(lp2331
S'HTTP_CACHE_CONTROL'
p2332
asbag49
(g70
g51
NtRp2333
(dp2334
g54
(dp2335
g81
g82
ssg63
g2324
sg56
(lp2336
S':'
asbag49
(g70
g51
NtRp2337
(dp2338
g54
(dp2339
sg63
g2324
sg56
(lp2340
g49
(g50
g51
NtRp2341
(dp2342
g54
(dp2343
g62
I3
ssg63
g2337
sg56
(lp2344
g857
asbasbasbag49
(g65
g51
NtRp2345
(dp2346
g54
(dp2347
sg63
g2236
sg56
(lp2348
g49
(g70
g51
NtRp2349
(dp2350
g54
(dp2351
g74
g75
ssg63
g2345
sg56
(lp2352
S'HTTP_CONNECTION'
p2353
asbag49
(g70
g51
NtRp2354
(dp2355
g54
(dp2356
g81
g82
ssg63
g2345
sg56
(lp2357
S':'
asbag49
(g70
g51
NtRp2358
(dp2359
g54
(dp2360
sg63
g2345
sg56
(lp2361
g49
(g50
g51
NtRp2362
(dp2363
g54
(dp2364
g62
I3
ssg63
g2358
sg56
(lp2365
g879
asbasbasbag49
(g65
g51
NtRp2366
(dp2367
g54
(dp2368
sg63
g2236
sg56
(lp2369
g49
(g70
g51
NtRp2370
(dp2371
g54
(dp2372
g74
g75
ssg63
g2366
sg56
(lp2373
S'HTTP_COOKIE'
p2374
asbag49
(g70
g51
NtRp2375
(dp2376
g54
(dp2377
g81
g82
ssg63
g2366
sg56
(lp2378
S':'
asbag49
(g70
g51
NtRp2379
(dp2380
g54
(dp2381
sg63
g2366
sg56
(lp2382
g49
(g50
g51
NtRp2383
(dp2384
g54
(dp2385
g62
I3
ssg63
g2379
sg56
(lp2386
g901
asbasbasbag49
(g65
g51
NtRp2387
(dp2388
g54
(dp2389
sg63
g2236
sg56
(lp2390
g49
(g70
g51
NtRp2391
(dp2392
g54
(dp2393
g74
g75
ssg63
g2387
sg56
(lp2394
S'HTTP_HOST'
p2395
asbag49
(g70
g51
NtRp2396
(dp2397
g54
(dp2398
g81
g82
ssg63
g2387
sg56
(lp2399
S':'
asbag49
(g70
g51
NtRp2400
(dp2401
g54
(dp2402
sg63
g2387
sg56
(lp2403
g49
(g50
g51
NtRp2404
(dp2405
g54
(dp2406
g62
I3
ssg63
g2400
sg56
(lp2407
g923
asbasbasbag49
(g65
g51
NtRp2408
(dp2409
g54
(dp2410
sg63
g2236
sg56
(lp2411
g49
(g70
g51
NtRp2412
(dp2413
g54
(dp2414
g74
g75
ssg63
g2408
sg56
(lp2415
S'HTTP_USER_AGENT'
p2416
asbag49
(g70
g51
NtRp2417
(dp2418
g54
(dp2419
g81
g82
ssg63
g2408
sg56
(lp2420
S':'
asbag49
(g70
g51
NtRp2421
(dp2422
g54
(dp2423
sg63
g2408
sg56
(lp2424
g49
(g50
g51
NtRp2425
(dp2426
g54
(dp2427
g62
I3
ssg63
g2421
sg56
(lp2428
g945
asbasbasbag49
(g65
g51
NtRp2429
(dp2430
g54
(dp2431
sg63
g2236
sg56
(lp2432
g49
(g70
g51
NtRp2433
(dp2434
g54
(dp2435
g74
g75
ssg63
g2429
sg56
(lp2436
S'PATH_INFO'
p2437
asbag49
(g70
g51
NtRp2438
(dp2439
g54
(dp2440
g81
g82
ssg63
g2429
sg56
(lp2441
S':'
asbag49
(g70
g51
NtRp2442
(dp2443
g54
(dp2444
sg63
g2429
sg56
(lp2445
g49
(g50
g51
NtRp2446
(dp2447
g54
(dp2448
g62
I3
ssg63
g2442
sg56
(lp2449
g1009
asbasbasbag49
(g65
g51
NtRp2450
(dp2451
g54
(dp2452
sg63
g2236
sg56
(lp2453
g49
(g70
g51
NtRp2454
(dp2455
g54
(dp2456
g74
g75
ssg63
g2450
sg56
(lp2457
S'QUERY_STRING'
p2458
asbag49
(g70
g51
NtRp2459
(dp2460
g54
(dp2461
g81
g82
ssg63
g2450
sg56
(lp2462
S':'
asbag49
(g70
g51
NtRp2463
(dp2464
g54
(dp2465
sg63
g2450
sg56
(lp2466
g49
(g50
g51
NtRp2467
(dp2468
g54
(dp2469
g62
I3
ssg63
g2463
sg56
(lp2470
S''
asbasbasbag49
(g65
g51
NtRp2471
(dp2472
g54
(dp2473
sg63
g2236
sg56
(lp2474
g49
(g70
g51
NtRp2475
(dp2476
g54
(dp2477
g74
g75
ssg63
g2471
sg56
(lp2478
S'REMOTE_ADDR'
p2479
asbag49
(g70
g51
NtRp2480
(dp2481
g54
(dp2482
g81
g82
ssg63
g2471
sg56
(lp2483
S':'
asbag49
(g70
g51
NtRp2484
(dp2485
g54
(dp2486
sg63
g2471
sg56
(lp2487
g49
(g50
g51
NtRp2488
(dp2489
g54
(dp2490
g62
I3
ssg63
g2484
sg56
(lp2491
g182
asbasbasbag49
(g65
g51
NtRp2492
(dp2493
g54
(dp2494
sg63
g2236
sg56
(lp2495
g49
(g70
g51
NtRp2496
(dp2497
g54
(dp2498
g74
g75
ssg63
g2492
sg56
(lp2499
S'REMOTE_PORT'
p2500
asbag49
(g70
g51
NtRp2501
(dp2502
g54
(dp2503
g81
g82
ssg63
g2492
sg56
(lp2504
S':'
asbag49
(g70
g51
NtRp2505
(dp2506
g54
(dp2507
sg63
g2492
sg56
(lp2508
g49
(g50
g51
NtRp2509
(dp2510
g54
(dp2511
g62
I3
ssg63
g2505
sg56
(lp2512
g1073
asbasbasbag49
(g65
g51
NtRp2513
(dp2514
g54
(dp2515
sg63
g2236
sg56
(lp2516
g49
(g70
g51
NtRp2517
(dp2518
g54
(dp2519
g74
g75
ssg63
g2513
sg56
(lp2520
S'REQUEST_METHOD'
p2521
asbag49
(g70
g51
NtRp2522
(dp2523
g54
(dp2524
g81
g82
ssg63
g2513
sg56
(lp2525
S':'
asbag49
(g70
g51
NtRp2526
(dp2527
g54
(dp2528
sg63
g2513
sg56
(lp2529
g49
(g50
g51
NtRp2530
(dp2531
g54
(dp2532
g62
I3
ssg63
g2526
sg56
(lp2533
g1095
asbasbasbag49
(g65
g51
NtRp2534
(dp2535
g54
(dp2536
sg63
g2236
sg56
(lp2537
g49
(g70
g51
NtRp2538
(dp2539
g54
(dp2540
g74
g75
ssg63
g2534
sg56
(lp2541
S'REQUEST_URI'
p2542
asbag49
(g70
g51
NtRp2543
(dp2544
g54
(dp2545
g81
g82
ssg63
g2534
sg56
(lp2546
S':'
asbag49
(g70
g51
NtRp2547
(dp2548
g54
(dp2549
sg63
g2534
sg56
(lp2550
g49
(g50
g51
NtRp2551
(dp2552
g54
(dp2553
g62
I3
ssg63
g2547
sg56
(lp2554
g1117
asbasbasbag49
(g65
g51
NtRp2555
(dp2556
g54
(dp2557
sg63
g2236
sg56
(lp2558
g49
(g70
g51
NtRp2559
(dp2560
g54
(dp2561
g74
g75
ssg63
g2555
sg56
(lp2562
S'SCRIPT_NAME'
p2563
asbag49
(g70
g51
NtRp2564
(dp2565
g54
(dp2566
g81
g82
ssg63
g2555
sg56
(lp2567
S':'
asbag49
(g70
g51
NtRp2568
(dp2569
g54
(dp2570
sg63
g2555
sg56
(lp2571
g49
(g50
g51
NtRp2572
(dp2573
g54
(dp2574
g62
I3
ssg63
g2568
sg56
(lp2575
S''
asbasbasbag49
(g65
g51
NtRp2576
(dp2577
g54
(dp2578
sg63
g2236
sg56
(lp2579
g49
(g70
g51
NtRp2580
(dp2581
g54
(dp2582
g74
g75
ssg63
g2576
sg56
(lp2583
S'SERVER_NAME'
p2584
asbag49
(g70
g51
NtRp2585
(dp2586
g54
(dp2587
g81
g82
ssg63
g2576
sg56
(lp2588
S':'
asbag49
(g70
g51
NtRp2589
(dp2590
g54
(dp2591
sg63
g2576
sg56
(lp2592
g49
(g50
g51
NtRp2593
(dp2594
g54
(dp2595
g62
I3
ssg63
g2589
sg56
(lp2596
g1160
asbasbasbag49
(g65
g51
NtRp2597
(dp2598
g54
(dp2599
sg63
g2236
sg56
(lp2600
g49
(g70
g51
NtRp2601
(dp2602
g54
(dp2603
g74
g75
ssg63
g2597
sg56
(lp2604
S'SERVER_PORT'
p2605
asbag49
(g70
g51
NtRp2606
(dp2607
g54
(dp2608
g81
g82
ssg63
g2597
sg56
(lp2609
S':'
asbag49
(g70
g51
NtRp2610
(dp2611
g54
(dp2612
sg63
g2597
sg56
(lp2613
g49
(g50
g51
NtRp2614
(dp2615
g54
(dp2616
g62
I3
ssg63
g2610
sg56
(lp2617
g1182
asbasbasbag49
(g65
g51
NtRp2618
(dp2619
g54
(dp2620
sg63
g2236
sg56
(lp2621
g49
(g70
g51
NtRp2622
(dp2623
g54
(dp2624
g74
g75
ssg63
g2618
sg56
(lp2625
S'SERVER_PROTOCOL'
p2626
asbag49
(g70
g51
NtRp2627
(dp2628
g54
(dp2629
g81
g82
ssg63
g2618
sg56
(lp2630
S':'
asbag49
(g70
g51
NtRp2631
(dp2632
g54
(dp2633
sg63
g2618
sg56
(lp2634
g49
(g50
g51
NtRp2635
(dp2636
g54
(dp2637
g62
I3
ssg63
g2631
sg56
(lp2638
g1204
asbasbasbag49
(g65
g51
NtRp2639
(dp2640
g54
(dp2641
sg63
g2236
sg56
(lp2642
g49
(g70
g51
NtRp2643
(dp2644
g54
(dp2645
g74
g75
ssg63
g2639
sg56
(lp2646
S'SERVER_SOFTWARE'
p2647
asbag49
(g70
g51
NtRp2648
(dp2649
g54
(dp2650
g81
g82
ssg63
g2639
sg56
(lp2651
S':'
asbag49
(g70
g51
NtRp2652
(dp2653
g54
(dp2654
sg63
g2639
sg56
(lp2655
g49
(g50
g51
NtRp2656
(dp2657
g54
(dp2658
g62
I3
ssg63
g2652
sg56
(lp2659
g1226
asbasbasbag49
(g65
g51
NtRp2660
(dp2661
g54
(dp2662
sg63
g2236
sg56
(lp2663
g49
(g70
g51
NtRp2664
(dp2665
g54
(dp2666
g74
g75
ssg63
g2660
sg56
(lp2667
S'WEB2PY_ORIGINAL_URI'
p2668
asbag49
(g70
g51
NtRp2669
(dp2670
g54
(dp2671
g81
g82
ssg63
g2660
sg56
(lp2672
S':'
asbag49
(g70
g51
NtRp2673
(dp2674
g54
(dp2675
sg63
g2660
sg56
(lp2676
g49
(g50
g51
NtRp2677
(dp2678
g54
(dp2679
g62
I3
ssg63
g2673
sg56
(lp2680
g1009
asbasbasbag49
(g65
g51
NtRp2681
(dp2682
g54
(dp2683
sg63
g2236
sg56
(lp2684
g49
(g70
g51
NtRp2685
(dp2686
g54
(dp2687
g74
g75
ssg63
g2681
sg56
(lp2688
S'wsgi.errors'
p2689
asbag49
(g70
g51
NtRp2690
(dp2691
g54
(dp2692
g81
g82
ssg63
g2681
sg56
(lp2693
S':'
asbag49
(g70
g51
NtRp2694
(dp2695
g54
(dp2696
sg63
g2681
sg56
(lp2697
g49
(g50
g51
NtRp2698
(dp2699
g54
(dp2700
g62
I3
ssg63
g2694
sg56
(lp2701
S"<open file '<stderr>', mode 'w' at 0x4220b0>"
p2702
asbasbasbag49
(g65
g51
NtRp2703
(dp2704
g54
(dp2705
sg63
g2236
sg56
(lp2706
g49
(g70
g51
NtRp2707
(dp2708
g54
(dp2709
g74
g75
ssg63
g2703
sg56
(lp2710
S'wsgi.file_wrapper'
p2711
asbag49
(g70
g51
NtRp2712
(dp2713
g54
(dp2714
g81
g82
ssg63
g2703
sg56
(lp2715
S':'
asbag49
(g70
g51
NtRp2716
(dp2717
g54
(dp2718
sg63
g2703
sg56
(lp2719
g49
(g50
g51
NtRp2720
(dp2721
g54
(dp2722
g62
I3
ssg63
g2716
sg56
(lp2723
S'<class wsgiref.util.FileWrapper at 0x2b60450>'
p2724
asbasbasbag49
(g65
g51
NtRp2725
(dp2726
g54
(dp2727
sg63
g2236
sg56
(lp2728
g49
(g70
g51
NtRp2729
(dp2730
g54
(dp2731
g74
g75
ssg63
g2725
sg56
(lp2732
S'wsgi.input'
p2733
asbag49
(g70
g51
NtRp2734
(dp2735
g54
(dp2736
g81
g82
ssg63
g2725
sg56
(lp2737
S':'
asbag49
(g70
g51
NtRp2738
(dp2739
g54
(dp2740
sg63
g2725
sg56
(lp2741
g49
(g50
g51
NtRp2742
(dp2743
g54
(dp2744
g62
I3
ssg63
g2738
sg56
(lp2745
S'<cStringIO.StringO object at 0xa3b2920>'
p2746
asbasbasbag49
(g65
g51
NtRp2747
(dp2748
g54
(dp2749
sg63
g2236
sg56
(lp2750
g49
(g70
g51
NtRp2751
(dp2752
g54
(dp2753
g74
g75
ssg63
g2747
sg56
(lp2754
S'wsgi.multiprocess'
p2755
asbag49
(g70
g51
NtRp2756
(dp2757
g54
(dp2758
g81
g82
ssg63
g2747
sg56
(lp2759
S':'
asbag49
(g70
g51
NtRp2760
(dp2761
g54
(dp2762
sg63
g2747
sg56
(lp2763
g49
(g50
g51
NtRp2764
(dp2765
g54
(dp2766
g62
I3
ssg63
g2760
sg56
(lp2767
g92
asbasbasbag49
(g65
g51
NtRp2768
(dp2769
g54
(dp2770
sg63
g2236
sg56
(lp2771
g49
(g70
g51
NtRp2772
(dp2773
g54
(dp2774
g74
g75
ssg63
g2768
sg56
(lp2775
S'wsgi.multithread'
p2776
asbag49
(g70
g51
NtRp2777
(dp2778
g54
(dp2779
g81
g82
ssg63
g2768
sg56
(lp2780
S':'
asbag49
(g70
g51
NtRp2781
(dp2782
g54
(dp2783
sg63
g2768
sg56
(lp2784
g49
(g50
g51
NtRp2785
(dp2786
g54
(dp2787
g62
I3
ssg63
g2781
sg56
(lp2788
g1487
asbasbasbag49
(g65
g51
NtRp2789
(dp2790
g54
(dp2791
sg63
g2236
sg56
(lp2792
g49
(g70
g51
NtRp2793
(dp2794
g54
(dp2795
g74
g75
ssg63
g2789
sg56
(lp2796
S'wsgi.run_once'
p2797
asbag49
(g70
g51
NtRp2798
(dp2799
g54
(dp2800
g81
g82
ssg63
g2789
sg56
(lp2801
S':'
asbag49
(g70
g51
NtRp2802
(dp2803
g54
(dp2804
sg63
g2789
sg56
(lp2805
g49
(g50
g51
NtRp2806
(dp2807
g54
(dp2808
g62
I3
ssg63
g2802
sg56
(lp2809
g92
asbasbasbag49
(g65
g51
NtRp2810
(dp2811
g54
(dp2812
sg63
g2236
sg56
(lp2813
g49
(g70
g51
NtRp2814
(dp2815
g54
(dp2816
g74
g75
ssg63
g2810
sg56
(lp2817
S'wsgi.url_scheme'
p2818
asbag49
(g70
g51
NtRp2819
(dp2820
g54
(dp2821
g81
g82
ssg63
g2810
sg56
(lp2822
S':'
asbag49
(g70
g51
NtRp2823
(dp2824
g54
(dp2825
sg63
g2810
sg56
(lp2826
g49
(g50
g51
NtRp2827
(dp2828
g54
(dp2829
g62
I3
ssg63
g2823
sg56
(lp2830
g1530
asbasbasbag49
(g65
g51
NtRp2831
(dp2832
g54
(dp2833
sg63
g2236
sg56
(lp2834
g49
(g70
g51
NtRp2835
(dp2836
g54
(dp2837
g74
g75
ssg63
g2831
sg56
(lp2838
S'wsgi.version'
p2839
asbag49
(g70
g51
NtRp2840
(dp2841
g54
(dp2842
g81
g82
ssg63
g2831
sg56
(lp2843
S':'
asbag49
(g70
g51
NtRp2844
(dp2845
g54
(dp2846
sg63
g2831
sg56
(lp2847
g49
(g50
g51
NtRp2848
(dp2849
g54
(dp2850
g62
I3
ssg63
g2844
sg56
(lp2851
S'1'
asbasbasbasbasbasbasbasbasbasbasbasbasbsS'frames'
p2852
(lp2853
(dp2854
S'file'
p2855
S'/users/udimilo/Documents/web2py/gluon/restricted.py'
p2856
sS'dump'
p2857
(dp2858
S'environment'
p2859
S"{'A': <class 'gluon.html.A'>, 'Auth': <class 'gluon.tools.Auth'>, 'B': <class 'gluon.html.B'>, 'BEAUTIFY': <class 'gluon.html.BEAUTIFY'>, 'BODY': <class 'gluon.html.BODY'>, 'BR': <class 'gluon.html.BR'>, 'BUTTON': <class 'gluon.html.BUTTON'>, 'CAT': <class 'gluon.html.CAT'>, 'CENTER': <class 'gluon.html.CENTER'>, 'CLEANUP': <class 'gluon.validators.CLEANUP'>, ...}"
p2860
sS'ccode'
p2861
S'<code object <module> at 0xa0362f0, file "/Users...cations/udi0312/controllers/default.py", line 11>'
p2862
ssS'lnum'
p2863
I205
sS'lines'
p2864
(dp2865
I200
S'    try:'
p2866
sI201
S'        if type(code) == types.CodeType:'
p2867
sI202
S'            ccode = code'
p2868
sI203
S'        else:'
p2869
sI204
S'            ccode = compile2(code,layer)'
p2870
sI205
S'        exec ccode in environment'
p2871
sI206
S'    except HTTP:'
p2872
sI207
S'        raise'
p2873
sI208
S'    except RestrictedError:'
p2874
sI209
S'        # do not encapsulate (obfuscate) the original RestrictedError'
p2875
ssS'call'
p2876
S"(code='# -*- coding: utf-8 -*-\\n# this file is released ...m=crud())\\n\\nresponse._vars=response._caller(test)\\n', environment={'A': <class 'gluon.html.A'>, 'Auth': <class 'gluon.tools.Auth'>, 'B': <class 'gluon.html.B'>, 'BEAUTIFY': <class 'gluon.html.BEAUTIFY'>, 'BODY': <class 'gluon.html.BODY'>, 'BR': <class 'gluon.html.BR'>, 'BUTTON': <class 'gluon.html.BUTTON'>, 'CAT': <class 'gluon.html.CAT'>, 'CENTER': <class 'gluon.html.CENTER'>, 'CLEANUP': <class 'gluon.validators.CLEANUP'>, ...}, layer='/Users/udimilo/Documents/web2py/applications/udi0312/controllers/default.py')"
p2877
sS'func'
p2878
S'restricted'
p2879
sa(dp2880
g2855
S'/Users/udimilo/Documents/web2py/applications/udi0312/controllers/default.py'
p2881
sg2857
(dp2882
sg2863
I87
sg2864
(dp2883
I76
S'    http://..../[app]/default/data/update/[table]/[id]'
p2884
sI77
S'    http://..../[app]/default/data/delete/[table]/[id]'
p2885
sI78
S'    http://..../[app]/default/data/select/[table]'
p2886
sI79
S'    http://..../[app]/default/data/search/[table]'
p2887
sI80
S'    but URLs must be signed, i.e. linked with'
p2888
sI81
S"      A('table',_href=URL('data/tables',user_signature=True))"
p2889
sI82
S'    or with the signed load operator'
p2890
sI83
S"      LOAD('default','data.load',args='tables',ajax=True,user_signature=True)"
p2891
sI84
S'    """'
p2892
sI85
S'    return dict(form=crud())'
p2893
ssg2876
S'()'
p2894
sg2878
S'<module>'
p2895
sa(dp2896
g2855
S'/users/udimilo/Documents/web2py/gluon/globals.py'
p2897
sg2857
(dp2898
S'self'
p2899
S'undefined'
p2900
sS'f'
S'<function test at 0x8d572b0>'
p2901
ssg2863
I173
sg2864
(dp2902
I168
S'        self.menu = []             # used by the default view layout'
p2903
sI169
S'        self.files = []            # used by web2py_ajax.html'
p2904
sI170
S'        self.generic_patterns = [] # patterns to allow generic views'
p2905
sI171
S"        self.delimiters = ('{{','}}')"
p2906
sI172
S'        self._vars = None'
p2907
sI173
S'        self._caller = lambda f: f()'
p2908
sI174
S'        self._view_environment = None'
p2909
sI175
S'        self._custom_commit = None'
p2910
sI176
S'        self._custom_rollback = None'
p2911
sI177
S''
ssg2876
S'(f=<function test at 0x8d572b0>)'
p2912
sg2878
S'<lambda>'
p2913
sa(dp2914
g2855
S'/Users/udimilo/Documents/web2py/applications/udi0312/controllers/default.py'
p2915
sg2857
(dp2916
S'content'
p2917
g2900
sS'read'
p2918
S'<applications.udi0312.modules.readability.Readability object at 0xa675530>'
p2919
sS'read.content'
p2920
S'<bound method Readability.content of <applicatio...les.readability.Readability object at 0xa675530>>'
p2921
ssg2863
I32
sg2864
(dp2922
I32
S"    content = read.content('http://techcrunch.com/2012/03/08/savingstar-series-c/')"
p2923
sI33
S'    return content'
p2924
sI34
S''
sI35
S'def user():'
p2925
sI36
S'    """'
p2926
sI27
S'    board = db.board.insert(user_id=auth.user.id, category_id=category.id, name=request.vars.boardName)'
p2927
sI28
S'    return board.id'
p2928
sI29
S''
sI30
S'def test():'
p2929
sI31
S'    read = Readability()'
p2930
ssg2876
S'()'
p2931
sg2878
S'test'
p2932
sa(dp2933
g2855
S'/Users/udimilo/Documents/web2py/applications/udi0312/modules/readability.py'
p2934
sg2857
(dp2935
S'self'
p2936
S'<applications.udi0312.modules.readability.Readability object at 0xa675530>'
p2937
sS'url_id'
p2938
S"'http://techcrunch.com/2012/03/08/savingstar-series-c/'"
p2939
sS'self._request'
p2940
S'<bound method Readability._request of <applicati...les.readability.Readability object at 0xa675530>>'
p2941
ssg2863
I30
sg2864
(dp2942
I32
S''
sI33
S'    def content(self, url_id):'
p2943
sI34
S'        """Retrieve content."""'
p2944
sI25
S"            raise TypeError('No JSON in response')"
p2945
sI26
S''
sI27
S'        content = r.content.strip()'
p2946
sI28
S'        if content:'
p2947
sI29
S'            return json.loads(content)'
p2948
sI30
S'        else:'
p2949
sI31
S'            return None'
p2950
ssg2876
S"(self=<applications.udi0312.modules.readability.Readability object at 0xa675530>, url_id='http://techcrunch.com/2012/03/08/savingstar-series-c/')"
p2951
sg2878
S'content'
p2952
sa(dp2953
g2855
S'/Users/udimilo/Documents/web2py/applications/udi0312/modules/readability.py'
p2954
sg2857
(dp2955
S'url'
p2956
S"'http://www.readability.com/api/content/v1/parser...://techcrunch.com/2012/03/08/savingstar-series-c/'"
p2957
sS'config'
p2958
g39
sS'headers'
p2959
S'None'
p2960
sS'r'
g2900
sS'requests'
p2961
g2900
sS'data'
p2962
S'None'
p2963
sS'method'
p2964
S"'GET'"
p2965
ssg2863
I15
sg2864
(dp2966
I10
S'class Readability(object):'
p2967
sI11
S''
sI12
S'    def __init__(self, url=None):'
p2968
sI13
S"        self.url = url or 'http://www.readability.com/api/content/v1/parser?'"
p2969
sI14
S''
sI15
S'    def _request(self, method, path, data=None, headers=None):'
p2970
sI16
S'        url = self.url + path'
p2971
sI17
S''
sI18
S'        config = {}'
p2972
sI19
S''
ssg2876
S"(self=<applications.udi0312.modules.readability.Readability object at 0xa675530>, method='GET', path='url=http://techcrunch.com/2012/03/08/savingstar-series-c/', data=None, headers=None)"
p2973
sg2878
S'_request'
p2974
sasS'pyver'
p2975
S'Python 2.5.4: /Library/Frameworks/Python.framework/Versions/2.5/Resources/Python.app/Contents/MacOS/Python'
p2976
sS'session'
p2977
g49
(g50
g51
NtRp2978
(dp2979
g54
(dp2980
sg56
(lp2981
g49
(g58
g51
NtRp2982
(dp2983
g54
(dp2984
g62
I5
ssg63
Nsg56
(lp2985
g49
(g65
g51
NtRp2986
(dp2987
g54
(dp2988
sg63
g2982
sg56
(lp2989
g49
(g70
g51
NtRp2990
(dp2991
g54
(dp2992
g74
g75
ssg63
g2986
sg56
(lp2993
S'auth'
p2994
asbag49
(g70
g51
NtRp2995
(dp2996
g54
(dp2997
g81
g82
ssg63
g2986
sg56
(lp2998
S':'
asbag49
(g70
g51
NtRp2999
(dp3000
g54
(dp3001
sg63
g2986
sg56
(lp3002
g49
(g50
g51
NtRp3003
(dp3004
g54
(dp3005
g62
I5
ssg63
g2999
sg56
(lp3006
g49
(g58
g51
NtRp3007
(dp3008
g54
(dp3009
g62
I4
ssg63
Nsg56
(lp3010
g49
(g65
g51
NtRp3011
(dp3012
g54
(dp3013
sg63
g3007
sg56
(lp3014
g49
(g70
g51
NtRp3015
(dp3016
g54
(dp3017
g74
g75
ssg63
g3011
sg56
(lp3018
S'expiration'
p3019
asbag49
(g70
g51
NtRp3020
(dp3021
g54
(dp3022
g81
g82
ssg63
g3011
sg56
(lp3023
S':'
asbag49
(g70
g51
NtRp3024
(dp3025
g54
(dp3026
sg63
g3011
sg56
(lp3027
g49
(g50
g51
NtRp3028
(dp3029
g54
(dp3030
g62
I4
ssg63
g3024
sg56
(lp3031
S'2592000'
p3032
asbasbasbag49
(g65
g51
NtRp3033
(dp3034
g54
(dp3035
sg63
g3007
sg56
(lp3036
g49
(g70
g51
NtRp3037
(dp3038
g54
(dp3039
g74
g75
ssg63
g3033
sg56
(lp3040
S'hmac_key'
p3041
asbag49
(g70
g51
NtRp3042
(dp3043
g54
(dp3044
g81
g82
ssg63
g3033
sg56
(lp3045
S':'
asbag49
(g70
g51
NtRp3046
(dp3047
g54
(dp3048
sg63
g3033
sg56
(lp3049
g49
(g50
g51
NtRp3050
(dp3051
g54
(dp3052
g62
I4
ssg63
g3046
sg56
(lp3053
S'e95fb5e0-f68d-430e-a660-5148e97bc5df'
p3054
asbasbasbag49
(g65
g51
NtRp3055
(dp3056
g54
(dp3057
sg63
g3007
sg56
(lp3058
g49
(g70
g51
NtRp3059
(dp3060
g54
(dp3061
g74
g75
ssg63
g3055
sg56
(lp3062
S'last_visit'
p3063
asbag49
(g70
g51
NtRp3064
(dp3065
g54
(dp3066
g81
g82
ssg63
g3055
sg56
(lp3067
S':'
asbag49
(g70
g51
NtRp3068
(dp3069
g54
(dp3070
sg63
g3055
sg56
(lp3071
g49
(g50
g51
NtRp3072
(dp3073
g54
(dp3074
g62
I4
ssg63
g3068
sg56
(lp3075
S'datetime.datetime(2012, 3, 8, 21, 10, 48, 287338)'
p3076
asbasbasbag49
(g65
g51
NtRp3077
(dp3078
g54
(dp3079
sg63
g3007
sg56
(lp3080
g49
(g70
g51
NtRp3081
(dp3082
g54
(dp3083
g74
g75
ssg63
g3077
sg56
(lp3084
S'remember'
p3085
asbag49
(g70
g51
NtRp3086
(dp3087
g54
(dp3088
g81
g82
ssg63
g3077
sg56
(lp3089
S':'
asbag49
(g70
g51
NtRp3090
(dp3091
g54
(dp3092
sg63
g3077
sg56
(lp3093
g49
(g50
g51
NtRp3094
(dp3095
g54
(dp3096
g62
I4
ssg63
g3090
sg56
(lp3097
g1487
asbasbasbag49
(g65
g51
NtRp3098
(dp3099
g54
(dp3100
sg63
g3007
sg56
(lp3101
g49
(g70
g51
NtRp3102
(dp3103
g54
(dp3104
g74
g75
ssg63
g3098
sg56
(lp3105
S'user'
p3106
asbag49
(g70
g51
NtRp3107
(dp3108
g54
(dp3109
g81
g82
ssg63
g3098
sg56
(lp3110
S':'
asbag49
(g70
g51
NtRp3111
(dp3112
g54
(dp3113
sg63
g3098
sg56
(lp3114
g49
(g50
g51
NtRp3115
(dp3116
g54
(dp3117
g62
I4
ssg63
g3111
sg56
(lp3118
g49
(g58
g51
NtRp3119
(dp3120
g54
(dp3121
g62
I3
ssg63
Nsg56
(lp3122
g49
(g65
g51
NtRp3123
(dp3124
g54
(dp3125
sg63
g3119
sg56
(lp3126
g49
(g70
g51
NtRp3127
(dp3128
g54
(dp3129
g74
g75
ssg63
g3123
sg56
(lp3130
S'email'
p3131
asbag49
(g70
g51
NtRp3132
(dp3133
g54
(dp3134
g81
g82
ssg63
g3123
sg56
(lp3135
S':'
asbag49
(g70
g51
NtRp3136
(dp3137
g54
(dp3138
sg63
g3123
sg56
(lp3139
g49
(g50
g51
NtRp3140
(dp3141
g54
(dp3142
g62
I3
ssg63
g3136
sg56
(lp3143
S'udimilo@gmail.com'
p3144
asbasbasbag49
(g65
g51
NtRp3145
(dp3146
g54
(dp3147
sg63
g3119
sg56
(lp3148
g49
(g70
g51
NtRp3149
(dp3150
g54
(dp3151
g74
g75
ssg63
g3145
sg56
(lp3152
S'first_name'
p3153
asbag49
(g70
g51
NtRp3154
(dp3155
g54
(dp3156
g81
g82
ssg63
g3145
sg56
(lp3157
S':'
asbag49
(g70
g51
NtRp3158
(dp3159
g54
(dp3160
sg63
g3145
sg56
(lp3161
g49
(g50
g51
NtRp3162
(dp3163
g54
(dp3164
g62
I3
ssg63
g3158
sg56
(lp3165
S'Udi'
p3166
asbasbasbag49
(g65
g51
NtRp3167
(dp3168
g54
(dp3169
sg63
g3119
sg56
(lp3170
g49
(g70
g51
NtRp3171
(dp3172
g54
(dp3173
g74
g75
ssg63
g3167
sg56
(lp3174
S'id'
p3175
asbag49
(g70
g51
NtRp3176
(dp3177
g54
(dp3178
g81
g82
ssg63
g3167
sg56
(lp3179
S':'
asbag49
(g70
g51
NtRp3180
(dp3181
g54
(dp3182
sg63
g3167
sg56
(lp3183
g49
(g50
g51
NtRp3184
(dp3185
g54
(dp3186
g62
I3
ssg63
g3180
sg56
(lp3187
S'1'
asbasbasbag49
(g65
g51
NtRp3188
(dp3189
g54
(dp3190
sg63
g3119
sg56
(lp3191
g49
(g70
g51
NtRp3192
(dp3193
g54
(dp3194
g74
g75
ssg63
g3188
sg56
(lp3195
S'last_name'
p3196
asbag49
(g70
g51
NtRp3197
(dp3198
g54
(dp3199
g81
g82
ssg63
g3188
sg56
(lp3200
S':'
asbag49
(g70
g51
NtRp3201
(dp3202
g54
(dp3203
sg63
g3188
sg56
(lp3204
g49
(g50
g51
NtRp3205
(dp3206
g54
(dp3207
g62
I3
ssg63
g3201
sg56
(lp3208
S'Milo'
p3209
asbasbasbag49
(g65
g51
NtRp3210
(dp3211
g54
(dp3212
sg63
g3119
sg56
(lp3213
g49
(g70
g51
NtRp3214
(dp3215
g54
(dp3216
g74
g75
ssg63
g3210
sg56
(lp3217
S'password'
p3218
asbag49
(g70
g51
NtRp3219
(dp3220
g54
(dp3221
g81
g82
ssg63
g3210
sg56
(lp3222
S':'
asbag49
(g70
g51
NtRp3223
(dp3224
g54
(dp3225
sg63
g3210
sg56
(lp3226
g49
(g50
g51
NtRp3227
(dp3228
g54
(dp3229
g62
I3
ssg63
g3223
sg56
(lp3230
S'7a6e3c6a68ceed66634484a3f64a3468'
p3231
asbasbasbag49
(g65
g51
NtRp3232
(dp3233
g54
(dp3234
sg63
g3119
sg56
(lp3235
g49
(g70
g51
NtRp3236
(dp3237
g54
(dp3238
g74
g75
ssg63
g3232
sg56
(lp3239
S'registration_id'
p3240
asbag49
(g70
g51
NtRp3241
(dp3242
g54
(dp3243
g81
g82
ssg63
g3232
sg56
(lp3244
S':'
asbag49
(g70
g51
NtRp3245
(dp3246
g54
(dp3247
sg63
g3232
sg56
(lp3248
g49
(g50
g51
NtRp3249
(dp3250
g54
(dp3251
g62
I3
ssg63
g3245
sg56
(lp3252
S''
asbasbasbag49
(g65
g51
NtRp3253
(dp3254
g54
(dp3255
sg63
g3119
sg56
(lp3256
g49
(g70
g51
NtRp3257
(dp3258
g54
(dp3259
g74
g75
ssg63
g3253
sg56
(lp3260
S'registration_key'
p3261
asbag49
(g70
g51
NtRp3262
(dp3263
g54
(dp3264
g81
g82
ssg63
g3253
sg56
(lp3265
S':'
asbag49
(g70
g51
NtRp3266
(dp3267
g54
(dp3268
sg63
g3253
sg56
(lp3269
g49
(g50
g51
NtRp3270
(dp3271
g54
(dp3272
g62
I3
ssg63
g3266
sg56
(lp3273
S''
asbasbasbag49
(g65
g51
NtRp3274
(dp3275
g54
(dp3276
sg63
g3119
sg56
(lp3277
g49
(g70
g51
NtRp3278
(dp3279
g54
(dp3280
g74
g75
ssg63
g3274
sg56
(lp3281
S'reset_password_key'
p3282
asbag49
(g70
g51
NtRp3283
(dp3284
g54
(dp3285
g81
g82
ssg63
g3274
sg56
(lp3286
S':'
asbag49
(g70
g51
NtRp3287
(dp3288
g54
(dp3289
sg63
g3274
sg56
(lp3290
g49
(g50
g51
NtRp3291
(dp3292
g54
(dp3293
g62
I3
ssg63
g3287
sg56
(lp3294
S''
asbasbasbasbasbasbasbag49
(g65
g51
NtRp3295
(dp3296
g54
(dp3297
sg63
g3007
sg56
(lp3298
g49
(g70
g51
NtRp3299
(dp3300
g54
(dp3301
g74
g75
ssg63
g3295
sg56
(lp3302
S'user_groups'
p3303
asbag49
(g70
g51
NtRp3304
(dp3305
g54
(dp3306
g81
g82
ssg63
g3295
sg56
(lp3307
S':'
asbag49
(g70
g51
NtRp3308
(dp3309
g54
(dp3310
sg63
g3295
sg56
(lp3311
g49
(g50
g51
NtRp3312
(dp3313
g54
(dp3314
g62
I4
ssg63
g3308
sg56
(lp3315
g49
(g58
g51
NtRp3316
(dp3317
g54
(dp3318
g62
I3
ssg63
Nsg56
(lp3319
g49
(g65
g51
NtRp3320
(dp3321
g54
(dp3322
sg63
g3316
sg56
(lp3323
g49
(g70
g51
NtRp3324
(dp3325
g54
(dp3326
g74
g75
ssg63
g3320
sg56
(lp3327
S'1'
asbag49
(g70
g51
NtRp3328
(dp3329
g54
(dp3330
g81
g82
ssg63
g3320
sg56
(lp3331
S':'
asbag49
(g70
g51
NtRp3332
(dp3333
g54
(dp3334
sg63
g3320
sg56
(lp3335
g49
(g50
g51
NtRp3336
(dp3337
g54
(dp3338
g62
I3
ssg63
g3332
sg56
(lp3339
S'user_1'
p3340
asbasbasbasbasbasbasbasbasbasbasbag49
(g65
g51
NtRp3341
(dp3342
g54
(dp3343
sg63
g2982
sg56
(lp3344
g49
(g70
g51
NtRp3345
(dp3346
g54
(dp3347
g74
g75
ssg63
g3341
sg56
(lp3348
S'last_query'
p3349
asbag49
(g70
g51
NtRp3350
(dp3351
g54
(dp3352
g81
g82
ssg63
g3341
sg56
(lp3353
S':'
asbag49
(g70
g51
NtRp3354
(dp3355
g54
(dp3356
sg63
g3341
sg56
(lp3357
g49
(g50
g51
NtRp3358
(dp3359
g54
(dp3360
g62
I5
ssg63
g3354
sg56
(lp3361
S'db.board.id>0'
p3362
asbasbasbasbasbsS'etype'
p3363
S"<type 'exceptions.NameError'>"
p3364
sS'date'
p3365
S'Fri Mar  9 12:04:11 2012'
p3366
sS'response'
p3367
g49
(g50
g51
NtRp3368
(dp3369
g54
(dp3370
sg56
(lp3371
g49
(g58
g51
NtRp3372
(dp3373
g54
(dp3374
g62
I5
ssg63
Nsg56
(lp3375
g49
(g65
g51
NtRp3376
(dp3377
g54
(dp3378
sg63
g3372
sg56
(lp3379
g49
(g70
g51
NtRp3380
(dp3381
g54
(dp3382
g74
g75
ssg63
g3376
sg56
(lp3383
g147
asbag49
(g70
g51
NtRp3384
(dp3385
g54
(dp3386
g81
g82
ssg63
g3376
sg56
(lp3387
S':'
asbag49
(g70
g51
NtRp3388
(dp3389
g54
(dp3390
sg63
g3376
sg56
(lp3391
g49
(g50
g51
NtRp3392
(dp3393
g54
(dp3394
g62
I5
ssg63
g3388
sg56
(lp3395
S'<cStringIO.StringO object at 0xa3b2620>'
p3396
asbasbasbag49
(g65
g51
NtRp3397
(dp3398
g54
(dp3399
sg63
g3372
sg56
(lp3400
g49
(g70
g51
NtRp3401
(dp3402
g54
(dp3403
g74
g75
ssg63
g3397
sg56
(lp3404
g213
asbag49
(g70
g51
NtRp3405
(dp3406
g54
(dp3407
g81
g82
ssg63
g3397
sg56
(lp3408
S':'
asbag49
(g70
g51
NtRp3409
(dp3410
g54
(dp3411
sg63
g3397
sg56
(lp3412
g49
(g50
g51
NtRp3413
(dp3414
g54
(dp3415
g62
I5
ssg63
g3409
sg56
(lp3416
g49
(g58
g51
NtRp3417
(dp3418
g54
(dp3419
g62
I4
ssg63
Nsg56
(lp3420
g49
(g65
g51
NtRp3421
(dp3422
g54
(dp3423
sg63
g3417
sg56
(lp3424
g49
(g70
g51
NtRp3425
(dp3426
g54
(dp3427
g74
g75
ssg63
g3421
sg56
(lp3428
S'session_id_udi0312'
p3429
asbag49
(g70
g51
NtRp3430
(dp3431
g54
(dp3432
g81
g82
ssg63
g3421
sg56
(lp3433
S':'
asbag49
(g70
g51
NtRp3434
(dp3435
g54
(dp3436
sg63
g3421
sg56
(lp3437
g49
(g50
g51
NtRp3438
(dp3439
g54
(dp3440
g62
I4
ssg63
g3434
sg56
(lp3441
g49
(g58
g51
NtRp3442
(dp3443
g54
(dp3444
g62
I3
ssg63
Nsg56
(lp3445
g49
(g65
g51
NtRp3446
(dp3447
g54
(dp3448
sg63
g3442
sg56
(lp3449
g49
(g70
g51
NtRp3450
(dp3451
g54
(dp3452
g74
g75
ssg63
g3446
sg56
(lp3453
g263
asbag49
(g70
g51
NtRp3454
(dp3455
g54
(dp3456
g81
g82
ssg63
g3446
sg56
(lp3457
S':'
asbag49
(g70
g51
NtRp3458
(dp3459
g54
(dp3460
sg63
g3446
sg56
(lp3461
g49
(g50
g51
NtRp3462
(dp3463
g54
(dp3464
g62
I3
ssg63
g3458
sg56
(lp3465
S''
asbasbasbag49
(g65
g51
NtRp3466
(dp3467
g54
(dp3468
sg63
g3442
sg56
(lp3469
g49
(g70
g51
NtRp3470
(dp3471
g54
(dp3472
g74
g75
ssg63
g3466
sg56
(lp3473
g284
asbag49
(g70
g51
NtRp3474
(dp3475
g54
(dp3476
g81
g82
ssg63
g3466
sg56
(lp3477
S':'
asbag49
(g70
g51
NtRp3478
(dp3479
g54
(dp3480
sg63
g3466
sg56
(lp3481
g49
(g50
g51
NtRp3482
(dp3483
g54
(dp3484
g62
I3
ssg63
g3478
sg56
(lp3485
S''
asbasbasbag49
(g65
g51
NtRp3486
(dp3487
g54
(dp3488
sg63
g3442
sg56
(lp3489
g49
(g70
g51
NtRp3490
(dp3491
g54
(dp3492
g74
g75
ssg63
g3486
sg56
(lp3493
g305
asbag49
(g70
g51
NtRp3494
(dp3495
g54
(dp3496
g81
g82
ssg63
g3486
sg56
(lp3497
S':'
asbag49
(g70
g51
NtRp3498
(dp3499
g54
(dp3500
sg63
g3486
sg56
(lp3501
g49
(g50
g51
NtRp3502
(dp3503
g54
(dp3504
g62
I3
ssg63
g3498
sg56
(lp3505
S'2592000'
p3506
asbasbasbag49
(g65
g51
NtRp3507
(dp3508
g54
(dp3509
sg63
g3442
sg56
(lp3510
g49
(g70
g51
NtRp3511
(dp3512
g54
(dp3513
g74
g75
ssg63
g3507
sg56
(lp3514
g326
asbag49
(g70
g51
NtRp3515
(dp3516
g54
(dp3517
g81
g82
ssg63
g3507
sg56
(lp3518
S':'
asbag49
(g70
g51
NtRp3519
(dp3520
g54
(dp3521
sg63
g3507
sg56
(lp3522
g49
(g50
g51
NtRp3523
(dp3524
g54
(dp3525
g62
I3
ssg63
g3519
sg56
(lp3526
S''
asbasbasbag49
(g65
g51
NtRp3527
(dp3528
g54
(dp3529
sg63
g3442
sg56
(lp3530
g49
(g70
g51
NtRp3531
(dp3532
g54
(dp3533
g74
g75
ssg63
g3527
sg56
(lp3534
g347
asbag49
(g70
g51
NtRp3535
(dp3536
g54
(dp3537
g81
g82
ssg63
g3527
sg56
(lp3538
S':'
asbag49
(g70
g51
NtRp3539
(dp3540
g54
(dp3541
sg63
g3527
sg56
(lp3542
g49
(g50
g51
NtRp3543
(dp3544
g54
(dp3545
g62
I3
ssg63
g3539
sg56
(lp3546
S'/'
asbasbasbag49
(g65
g51
NtRp3547
(dp3548
g54
(dp3549
sg63
g3442
sg56
(lp3550
g49
(g70
g51
NtRp3551
(dp3552
g54
(dp3553
g74
g75
ssg63
g3547
sg56
(lp3554
g368
asbag49
(g70
g51
NtRp3555
(dp3556
g54
(dp3557
g81
g82
ssg63
g3547
sg56
(lp3558
S':'
asbag49
(g70
g51
NtRp3559
(dp3560
g54
(dp3561
sg63
g3547
sg56
(lp3562
g49
(g50
g51
NtRp3563
(dp3564
g54
(dp3565
g62
I3
ssg63
g3559
sg56
(lp3566
S''
asbasbasbag49
(g65
g51
NtRp3567
(dp3568
g54
(dp3569
sg63
g3442
sg56
(lp3570
g49
(g70
g51
NtRp3571
(dp3572
g54
(dp3573
g74
g75
ssg63
g3567
sg56
(lp3574
g389
asbag49
(g70
g51
NtRp3575
(dp3576
g54
(dp3577
g81
g82
ssg63
g3567
sg56
(lp3578
S':'
asbag49
(g70
g51
NtRp3579
(dp3580
g54
(dp3581
sg63
g3567
sg56
(lp3582
g49
(g50
g51
NtRp3583
(dp3584
g54
(dp3585
g62
I3
ssg63
g3579
sg56
(lp3586
S''
asbasbasbasbasbasbasbasbasbasbasbag49
(g65
g51
NtRp3587
(dp3588
g54
(dp3589
sg63
g3372
sg56
(lp3590
g49
(g70
g51
NtRp3591
(dp3592
g54
(dp3593
g74
g75
ssg63
g3587
sg56
(lp3594
S'delimiters'
p3595
asbag49
(g70
g51
NtRp3596
(dp3597
g54
(dp3598
g81
g82
ssg63
g3587
sg56
(lp3599
S':'
asbag49
(g70
g51
NtRp3600
(dp3601
g54
(dp3602
sg63
g3587
sg56
(lp3603
g49
(g50
g51
NtRp3604
(dp3605
g54
(dp3606
g62
I5
ssg63
g3600
sg56
(lp3607
g49
(g58
g51
NtRp3608
(dp3609
g54
(dp3610
g62
I4
ssg63
Nsg56
(lp3611
g49
(g65
g51
NtRp3612
(dp3613
g54
(dp3614
sg63
g3608
sg56
(lp3615
g49
(g70
g51
NtRp3616
(dp3617
g54
(dp3618
sg63
g3612
sg56
(lp3619
g49
(g50
g51
NtRp3620
(dp3621
g54
(dp3622
g62
I4
ssg63
g3616
sg56
(lp3623
S'{{'
p3624
asbasbasbag49
(g65
g51
NtRp3625
(dp3626
g54
(dp3627
sg63
g3608
sg56
(lp3628
g49
(g70
g51
NtRp3629
(dp3630
g54
(dp3631
sg63
g3625
sg56
(lp3632
g49
(g50
g51
NtRp3633
(dp3634
g54
(dp3635
g62
I4
ssg63
g3629
sg56
(lp3636
S'}}'
p3637
asbasbasbasbasbasbasbag49
(g65
g51
NtRp3638
(dp3639
g54
(dp3640
sg63
g3372
sg56
(lp3641
g49
(g70
g51
NtRp3642
(dp3643
g54
(dp3644
g74
g75
ssg63
g3638
sg56
(lp3645
S'files'
p3646
asbag49
(g70
g51
NtRp3647
(dp3648
g54
(dp3649
g81
g82
ssg63
g3638
sg56
(lp3650
S':'
asbag49
(g70
g51
NtRp3651
(dp3652
g54
(dp3653
sg63
g3638
sg56
(lp3654
g49
(g50
g51
NtRp3655
(dp3656
g54
(dp3657
g62
I5
ssg63
g3651
sg56
(lp3658
g49
(g58
g51
NtRp3659
(dp3660
g54
(dp3661
g62
I4
ssg63
Nsg56
(lp3662
sbasbasbasbag49
(g65
g51
NtRp3663
(dp3664
g54
(dp3665
sg63
g3372
sg56
(lp3666
g49
(g70
g51
NtRp3667
(dp3668
g54
(dp3669
g74
g75
ssg63
g3663
sg56
(lp3670
S'flash'
p3671
asbag49
(g70
g51
NtRp3672
(dp3673
g54
(dp3674
g81
g82
ssg63
g3663
sg56
(lp3675
S':'
asbag49
(g70
g51
NtRp3676
(dp3677
g54
(dp3678
sg63
g3663
sg56
(lp3679
g49
(g50
g51
NtRp3680
(dp3681
g54
(dp3682
g62
I5
ssg63
g3676
sg56
(lp3683
S''
asbasbasbag49
(g65
g51
NtRp3684
(dp3685
g54
(dp3686
sg63
g3372
sg56
(lp3687
g49
(g70
g51
NtRp3688
(dp3689
g54
(dp3690
g74
g75
ssg63
g3684
sg56
(lp3691
S'generic_patterns'
p3692
asbag49
(g70
g51
NtRp3693
(dp3694
g54
(dp3695
g81
g82
ssg63
g3684
sg56
(lp3696
S':'
asbag49
(g70
g51
NtRp3697
(dp3698
g54
(dp3699
sg63
g3684
sg56
(lp3700
g49
(g50
g51
NtRp3701
(dp3702
g54
(dp3703
g62
I5
ssg63
g3697
sg56
(lp3704
g49
(g58
g51
NtRp3705
(dp3706
g54
(dp3707
g62
I4
ssg63
Nsg56
(lp3708
g49
(g65
g51
NtRp3709
(dp3710
g54
(dp3711
sg63
g3705
sg56
(lp3712
g49
(g70
g51
NtRp3713
(dp3714
g54
(dp3715
sg63
g3709
sg56
(lp3716
g49
(g50
g51
NtRp3717
(dp3718
g54
(dp3719
g62
I4
ssg63
g3713
sg56
(lp3720
S'*'
asbasbasbasbasbasbasbag49
(g65
g51
NtRp3721
(dp3722
g54
(dp3723
sg63
g3372
sg56
(lp3724
g49
(g70
g51
NtRp3725
(dp3726
g54
(dp3727
g74
g75
ssg63
g3721
sg56
(lp3728
S'headers'
p3729
asbag49
(g70
g51
NtRp3730
(dp3731
g54
(dp3732
g81
g82
ssg63
g3721
sg56
(lp3733
S':'
asbag49
(g70
g51
NtRp3734
(dp3735
g54
(dp3736
sg63
g3721
sg56
(lp3737
g49
(g50
g51
NtRp3738
(dp3739
g54
(dp3740
g62
I5
ssg63
g3734
sg56
(lp3741
g49
(g58
g51
NtRp3742
(dp3743
g54
(dp3744
g62
I4
ssg63
Nsg56
(lp3745
g49
(g65
g51
NtRp3746
(dp3747
g54
(dp3748
sg63
g3742
sg56
(lp3749
g49
(g70
g51
NtRp3750
(dp3751
g54
(dp3752
g74
g75
ssg63
g3746
sg56
(lp3753
S'Cache-Control'
p3754
asbag49
(g70
g51
NtRp3755
(dp3756
g54
(dp3757
g81
g82
ssg63
g3746
sg56
(lp3758
S':'
asbag49
(g70
g51
NtRp3759
(dp3760
g54
(dp3761
sg63
g3746
sg56
(lp3762
g49
(g50
g51
NtRp3763
(dp3764
g54
(dp3765
g62
I4
ssg63
g3759
sg56
(lp3766
S'no-store, no-cache, must-revalidate, post-check=0, pre-check=0'
p3767
asbasbasbag49
(g65
g51
NtRp3768
(dp3769
g54
(dp3770
sg63
g3742
sg56
(lp3771
g49
(g70
g51
NtRp3772
(dp3773
g54
(dp3774
g74
g75
ssg63
g3768
sg56
(lp3775
S'Content-Type'
p3776
asbag49
(g70
g51
NtRp3777
(dp3778
g54
(dp3779
g81
g82
ssg63
g3768
sg56
(lp3780
S':'
asbag49
(g70
g51
NtRp3781
(dp3782
g54
(dp3783
sg63
g3768
sg56
(lp3784
g49
(g50
g51
NtRp3785
(dp3786
g54
(dp3787
g62
I4
ssg63
g3781
sg56
(lp3788
S'text/html; charset=utf-8'
p3789
asbasbasbag49
(g65
g51
NtRp3790
(dp3791
g54
(dp3792
sg63
g3742
sg56
(lp3793
g49
(g70
g51
NtRp3794
(dp3795
g54
(dp3796
g74
g75
ssg63
g3790
sg56
(lp3797
S'Expires'
p3798
asbag49
(g70
g51
NtRp3799
(dp3800
g54
(dp3801
g81
g82
ssg63
g3790
sg56
(lp3802
S':'
asbag49
(g70
g51
NtRp3803
(dp3804
g54
(dp3805
sg63
g3790
sg56
(lp3806
g49
(g50
g51
NtRp3807
(dp3808
g54
(dp3809
g62
I4
ssg63
g3803
sg56
(lp3810
S'Fri, 09 Mar 2012 17:04:11 GMT'
p3811
asbasbasbag49
(g65
g51
NtRp3812
(dp3813
g54
(dp3814
sg63
g3742
sg56
(lp3815
g49
(g70
g51
NtRp3816
(dp3817
g54
(dp3818
g74
g75
ssg63
g3812
sg56
(lp3819
S'Pragma'
p3820
asbag49
(g70
g51
NtRp3821
(dp3822
g54
(dp3823
g81
g82
ssg63
g3812
sg56
(lp3824
S':'
asbag49
(g70
g51
NtRp3825
(dp3826
g54
(dp3827
sg63
g3812
sg56
(lp3828
g49
(g50
g51
NtRp3829
(dp3830
g54
(dp3831
g62
I4
ssg63
g3825
sg56
(lp3832
S'no-cache'
p3833
asbasbasbag49
(g65
g51
NtRp3834
(dp3835
g54
(dp3836
sg63
g3742
sg56
(lp3837
g49
(g70
g51
NtRp3838
(dp3839
g54
(dp3840
g74
g75
ssg63
g3834
sg56
(lp3841
S'X-Powered-By'
p3842
asbag49
(g70
g51
NtRp3843
(dp3844
g54
(dp3845
g81
g82
ssg63
g3834
sg56
(lp3846
S':'
asbag49
(g70
g51
NtRp3847
(dp3848
g54
(dp3849
sg63
g3834
sg56
(lp3850
g49
(g50
g51
NtRp3851
(dp3852
g54
(dp3853
g62
I4
ssg63
g3847
sg56
(lp3854
S'web2py'
p3855
asbasbasbasbasbasbasbag49
(g65
g51
NtRp3856
(dp3857
g54
(dp3858
sg63
g3372
sg56
(lp3859
g49
(g70
g51
NtRp3860
(dp3861
g54
(dp3862
g74
g75
ssg63
g3856
sg56
(lp3863
S'menu'
p3864
asbag49
(g70
g51
NtRp3865
(dp3866
g54
(dp3867
g81
g82
ssg63
g3856
sg56
(lp3868
S':'
asbag49
(g70
g51
NtRp3869
(dp3870
g54
(dp3871
sg63
g3856
sg56
(lp3872
g49
(g50
g51
NtRp3873
(dp3874
g54
(dp3875
g62
I5
ssg63
g3869
sg56
(lp3876
g49
(g58
g51
NtRp3877
(dp3878
g54
(dp3879
g62
I4
ssg63
Nsg56
(lp3880
g49
(g65
g51
NtRp3881
(dp3882
g54
(dp3883
sg63
g3877
sg56
(lp3884
g49
(g70
g51
NtRp3885
(dp3886
g54
(dp3887
sg63
g3881
sg56
(lp3888
g49
(g50
g51
NtRp3889
(dp3890
g54
(dp3891
g62
I4
ssg63
g3885
sg56
(lp3892
g49
(g58
g51
NtRp3893
(dp3894
g54
(dp3895
g62
I3
ssg63
Nsg56
(lp3896
g49
(g65
g51
NtRp3897
(dp3898
g54
(dp3899
sg63
g3893
sg56
(lp3900
g49
(g70
g51
NtRp3901
(dp3902
g54
(dp3903
sg63
g3897
sg56
(lp3904
g49
(g50
g51
NtRp3905
(dp3906
g54
(dp3907
g62
I3
ssg63
g3901
sg56
(lp3908
cgluon.languages
lazyT_unpickle
p3909
(S's\x04\x00\x00\x00Home'
tRp3910
asbasbasbag49
(g65
g51
NtRp3911
(dp3912
g54
(dp3913
sg63
g3893
sg56
(lp3914
g49
(g70
g51
NtRp3915
(dp3916
g54
(dp3917
sg63
g3911
sg56
(lp3918
g49
(g50
g51
NtRp3919
(dp3920
g54
(dp3921
g62
I3
ssg63
g3915
sg56
(lp3922
g92
asbasbasbag49
(g65
g51
NtRp3923
(dp3924
g54
(dp3925
sg63
g3893
sg56
(lp3926
g49
(g70
g51
NtRp3927
(dp3928
g54
(dp3929
sg63
g3923
sg56
(lp3930
g49
(g50
g51
NtRp3931
(dp3932
g54
(dp3933
g62
I3
ssg63
g3927
sg56
(lp3934
S'/'
asbasbasbag49
(g65
g51
NtRp3935
(dp3936
g54
(dp3937
sg63
g3893
sg56
(lp3938
g49
(g70
g51
NtRp3939
(dp3940
g54
(dp3941
sg63
g3935
sg56
(lp3942
g49
(g50
g51
NtRp3943
(dp3944
g54
(dp3945
g62
I3
ssg63
g3939
sg56
(lp3946
g49
(g58
g51
NtRp3947
(dp3948
g54
(dp3949
g62
I2
ssg63
Nsg56
(lp3950
sbasbasbasbasbasbasbasbag49
(g65
g51
NtRp3951
(dp3952
g54
(dp3953
sg63
g3877
sg56
(lp3954
g49
(g70
g51
NtRp3955
(dp3956
g54
(dp3957
sg63
g3951
sg56
(lp3958
g49
(g50
g51
NtRp3959
(dp3960
g54
(dp3961
g62
I4
ssg63
g3955
sg56
(lp3962
g49
(g58
g51
NtRp3963
(dp3964
g54
(dp3965
g62
I3
ssg63
Nsg56
(lp3966
g49
(g65
g51
NtRp3967
(dp3968
g54
(dp3969
sg63
g3963
sg56
(lp3970
g49
(g70
g51
NtRp3971
(dp3972
g54
(dp3973
sg63
g3967
sg56
(lp3974
g49
(g50
g51
NtRp3975
(dp3976
g54
(dp3977
g62
I3
ssg63
g3971
sg56
(lp3978
g49
(cgluon.html
SPAN
p3979
g51
NtRp3980
(dp3981
g54
(dp3982
g74
S'color:yellow'
p3983
ssg63
Nsg56
(lp3984
g3855
asbasbasbasbag49
(g65
g51
NtRp3985
(dp3986
g54
(dp3987
sg63
g3963
sg56
(lp3988
g49
(g70
g51
NtRp3989
(dp3990
g54
(dp3991
sg63
g3985
sg56
(lp3992
g49
(g50
g51
NtRp3993
(dp3994
g54
(dp3995
g62
I3
ssg63
g3989
sg56
(lp3996
g92
asbasbasbag49
(g65
g51
NtRp3997
(dp3998
g54
(dp3999
sg63
g3963
sg56
(lp4000
g49
(g70
g51
NtRp4001
(dp4002
g54
(dp4003
sg63
g3997
sg56
(lp4004
g49
(g50
g51
NtRp4005
(dp4006
g54
(dp4007
g62
I3
ssg63
g4001
sg56
(lp4008
S'None'
p4009
asbasbasbag49
(g65
g51
NtRp4010
(dp4011
g54
(dp4012
sg63
g3963
sg56
(lp4013
g49
(g70
g51
NtRp4014
(dp4015
g54
(dp4016
sg63
g4010
sg56
(lp4017
g49
(g50
g51
NtRp4018
(dp4019
g54
(dp4020
g62
I3
ssg63
g4014
sg56
(lp4021
g49
(g58
g51
NtRp4022
(dp4023
g54
(dp4024
g62
I2
ssg63
Nsg56
(lp4025
g49
(g65
g51
NtRp4026
(dp4027
g54
(dp4028
sg63
g4022
sg56
(lp4029
g49
(g70
g51
NtRp4030
(dp4031
g54
(dp4032
sg63
g4026
sg56
(lp4033
g49
(g50
g51
NtRp4034
(dp4035
g54
(dp4036
g62
I2
ssg63
g4030
sg56
(lp4037
g49
(g58
g51
NtRp4038
(dp4039
g54
(dp4040
g62
I1
ssg63
Nsg56
(lp4041
g49
(g65
g51
NtRp4042
(dp4043
g54
(dp4044
sg63
g4038
sg56
(lp4045
g49
(g70
g51
NtRp4046
(dp4047
g54
(dp4048
sg63
g4042
sg56
(lp4049
g49
(g50
g51
NtRp4050
(dp4051
g54
(dp4052
g62
I1
ssg63
g4046
sg56
(lp4053
g3909
(S's\x08\x00\x00\x00My Sites'
tRp4054
asbasbasbag49
(g65
g51
NtRp4055
(dp4056
g54
(dp4057
sg63
g4038
sg56
(lp4058
g49
(g70
g51
NtRp4059
(dp4060
g54
(dp4061
sg63
g4055
sg56
(lp4062
g49
(g50
g51
NtRp4063
(dp4064
g54
(dp4065
g62
I1
ssg63
g4059
sg56
(lp4066
I00
asbasbasbag49
(g65
g51
NtRp4067
(dp4068
g54
(dp4069
sg63
g4038
sg56
(lp4070
g49
(g70
g51
NtRp4071
(dp4072
g54
(dp4073
sg63
g4067
sg56
(lp4074
g49
(g50
g51
NtRp4075
(dp4076
g54
(dp4077
g62
I1
ssg63
g4071
sg56
(lp4078
S'/admin/site'
p4079
asbasbasbasbasbasbasbag49
(g65
g51
NtRp4080
(dp4081
g54
(dp4082
sg63
g4022
sg56
(lp4083
g49
(g70
g51
NtRp4084
(dp4085
g54
(dp4086
sg63
g4080
sg56
(lp4087
g49
(g50
g51
NtRp4088
(dp4089
g54
(dp4090
g62
I2
ssg63
g4084
sg56
(lp4091
g49
(g58
g51
NtRp4092
(dp4093
g54
(dp4094
g62
I1
ssg63
Nsg56
(lp4095
g49
(g65
g51
NtRp4096
(dp4097
g54
(dp4098
sg63
g4092
sg56
(lp4099
g49
(g70
g51
NtRp4100
(dp4101
g54
(dp4102
sg63
g4096
sg56
(lp4103
g49
(g50
g51
NtRp4104
(dp4105
g54
(dp4106
g62
I1
ssg63
g4100
sg56
(lp4107
g3909
(S's\x08\x00\x00\x00This App'
tRp4108
asbasbasbag49
(g65
g51
NtRp4109
(dp4110
g54
(dp4111
sg63
g4092
sg56
(lp4112
g49
(g70
g51
NtRp4113
(dp4114
g54
(dp4115
sg63
g4109
sg56
(lp4116
g49
(g50
g51
NtRp4117
(dp4118
g54
(dp4119
g62
I1
ssg63
g4113
sg56
(lp4120
I00
asbasbasbag49
(g65
g51
NtRp4121
(dp4122
g54
(dp4123
sg63
g4092
sg56
(lp4124
g49
(g70
g51
NtRp4125
(dp4126
g54
(dp4127
sg63
g4121
sg56
(lp4128
g49
(g50
g51
NtRp4129
(dp4130
g54
(dp4131
g62
I1
ssg63
g4125
sg56
(lp4132
S'/admin/design/udi0312'
p4133
asbasbasbag49
(g65
g51
NtRp4134
(dp4135
g54
(dp4136
sg63
g4092
sg56
(lp4137
g49
(g70
g51
NtRp4138
(dp4139
g54
(dp4140
sg63
g4134
sg56
(lp4141
g49
(g50
g51
NtRp4142
(dp4143
g54
(dp4144
g62
I1
ssg63
g4138
sg56
(lp4145
(lp4146
(g3909
(S's\n\x00\x00\x00Controller'
tRp4147
I00
S'/admin/edit/udi0312/controllers/default.py'
tp4148
a(g3909
(S's\x04\x00\x00\x00View'
tRp4149
I00
S'/admin/edit/udi0312/views/default/test.html'
tp4150
a(g3909
(S's\x06\x00\x00\x00Layout'
tRp4151
I00
S'/admin/edit/udi0312/views/layout.html'
tp4152
a(g3909
(S's\n\x00\x00\x00Stylesheet'
tRp4153
I00
S'/admin/edit/udi0312/static/css/web2py.css'
tp4154
a(g3909
(S's\x08\x00\x00\x00DB Model'
tRp4155
I00
S'/admin/edit/udi0312/models/db.py'
tp4156
a(g3909
(S's\n\x00\x00\x00Menu Model'
tRp4157
I00
S'/admin/edit/udi0312/models/menu.py'
tp4158
a(g3909
(S's\x08\x00\x00\x00Database'
tRp4159
I00
S'/appadmin'
tp4160
a(g3909
(S's\x06\x00\x00\x00Errors'
tRp4161
I00
S'/admin/errors/udi0312'
tp4162
a(g3909
(S's\x05\x00\x00\x00About'
tRp4163
I00
S'/admin/about/udi0312'
tp4164
aasbasbasbasbasbasbasbag49
(g65
g51
NtRp4165
(dp4166
g54
(dp4167
sg63
g4022
sg56
(lp4168
g49
(g70
g51
NtRp4169
(dp4170
g54
(dp4171
sg63
g4165
sg56
(lp4172
g49
(g50
g51
NtRp4173
(dp4174
g54
(dp4175
g62
I2
ssg63
g4169
sg56
(lp4176
g49
(g58
g51
NtRp4177
(dp4178
g54
(dp4179
g62
I1
ssg63
Nsg56
(lp4180
g49
(g65
g51
NtRp4181
(dp4182
g54
(dp4183
sg63
g4177
sg56
(lp4184
g49
(g70
g51
NtRp4185
(dp4186
g54
(dp4187
sg63
g4181
sg56
(lp4188
g49
(g50
g51
NtRp4189
(dp4190
g54
(dp4191
g62
I1
ssg63
g4185
sg56
(lp4192
S'web2py.com'
p4193
asbasbasbag49
(g65
g51
NtRp4194
(dp4195
g54
(dp4196
sg63
g4177
sg56
(lp4197
g49
(g70
g51
NtRp4198
(dp4199
g54
(dp4200
sg63
g4194
sg56
(lp4201
g49
(g50
g51
NtRp4202
(dp4203
g54
(dp4204
g62
I1
ssg63
g4198
sg56
(lp4205
I00
asbasbasbag49
(g65
g51
NtRp4206
(dp4207
g54
(dp4208
sg63
g4177
sg56
(lp4209
g49
(g70
g51
NtRp4210
(dp4211
g54
(dp4212
sg63
g4206
sg56
(lp4213
g49
(g50
g51
NtRp4214
(dp4215
g54
(dp4216
g62
I1
ssg63
g4210
sg56
(lp4217
S'http://www.web2py.com'
p4218
asbasbasbag49
(g65
g51
NtRp4219
(dp4220
g54
(dp4221
sg63
g4177
sg56
(lp4222
g49
(g70
g51
NtRp4223
(dp4224
g54
(dp4225
sg63
g4219
sg56
(lp4226
g49
(g50
g51
NtRp4227
(dp4228
g54
(dp4229
g62
I1
ssg63
g4223
sg56
(lp4230
(lp4231
(g3909
(S's\x08\x00\x00\x00Download'
tRp4232
I00
S'http://www.web2py.com/examples/default/download'
p4233
tp4234
a(g3909
(S's\x07\x00\x00\x00Support'
tRp4235
I00
S'http://www.web2py.com/examples/default/support'
p4236
tp4237
a(g3909
(S's\x04\x00\x00\x00Demo'
tRp4238
I00
S'http://web2py.com/demo_admin'
p4239
tp4240
a(g3909
(S's\x0e\x00\x00\x00Quick Examples'
tRp4241
I00
S'http://web2py.com/examples/default/examples'
p4242
tp4243
a(g3909
(S's\x03\x00\x00\x00FAQ'
tRp4244
I00
S'http://web2py.com/AlterEgo'
p4245
tp4246
a(g3909
(S's\x06\x00\x00\x00Videos'
tRp4247
I00
S'http://www.web2py.com/examples/default/videos/'
p4248
tp4249
a(g3909
(S's\x11\x00\x00\x00Free Applications'
tRp4250
I00
S'http://web2py.com/appliances'
p4251
tp4252
a(g3909
(S's\x07\x00\x00\x00Plugins'
tRp4253
I00
S'http://web2py.com/plugins'
p4254
tp4255
a(g3909
(S's\x07\x00\x00\x00Layouts'
tRp4256
I00
S'http://web2py.com/layouts'
p4257
tp4258
a(g3909
(S's\x07\x00\x00\x00Recipes'
tRp4259
I00
S'http://web2pyslices.com/'
p4260
tp4261
a(g3909
(S's\x08\x00\x00\x00Semantic'
tRp4262
I00
S'http://web2py.com/semantic'
p4263
tp4264
aasbasbasbasbasbasbasbag49
(g65
g51
NtRp4265
(dp4266
g54
(dp4267
sg63
g4022
sg56
(lp4268
g49
(g70
g51
NtRp4269
(dp4270
g54
(dp4271
sg63
g4265
sg56
(lp4272
g49
(g50
g51
NtRp4273
(dp4274
g54
(dp4275
g62
I2
ssg63
g4269
sg56
(lp4276
g49
(g58
g51
NtRp4277
(dp4278
g54
(dp4279
g62
I1
ssg63
Nsg56
(lp4280
g49
(g65
g51
NtRp4281
(dp4282
g54
(dp4283
sg63
g4277
sg56
(lp4284
g49
(g70
g51
NtRp4285
(dp4286
g54
(dp4287
sg63
g4281
sg56
(lp4288
g49
(g50
g51
NtRp4289
(dp4290
g54
(dp4291
g62
I1
ssg63
g4285
sg56
(lp4292
g3909
(S's\r\x00\x00\x00Documentation'
tRp4293
asbasbasbag49
(g65
g51
NtRp4294
(dp4295
g54
(dp4296
sg63
g4277
sg56
(lp4297
g49
(g70
g51
NtRp4298
(dp4299
g54
(dp4300
sg63
g4294
sg56
(lp4301
g49
(g50
g51
NtRp4302
(dp4303
g54
(dp4304
g62
I1
ssg63
g4298
sg56
(lp4305
I00
asbasbasbag49
(g65
g51
NtRp4306
(dp4307
g54
(dp4308
sg63
g4277
sg56
(lp4309
g49
(g70
g51
NtRp4310
(dp4311
g54
(dp4312
sg63
g4306
sg56
(lp4313
g49
(g50
g51
NtRp4314
(dp4315
g54
(dp4316
g62
I1
ssg63
g4310
sg56
(lp4317
S'http://www.web2py.com/book'
p4318
asbasbasbag49
(g65
g51
NtRp4319
(dp4320
g54
(dp4321
sg63
g4277
sg56
(lp4322
g49
(g70
g51
NtRp4323
(dp4324
g54
(dp4325
sg63
g4319
sg56
(lp4326
g49
(g50
g51
NtRp4327
(dp4328
g54
(dp4329
g62
I1
ssg63
g4323
sg56
(lp4330
(lp4331
(g3909
(S's\x07\x00\x00\x00Preface'
tRp4332
I00
S'http://www.web2py.com/book/default/chapter/00'
p4333
tp4334
a(g3909
(S's\x0c\x00\x00\x00Introduction'
tRp4335
I00
S'http://www.web2py.com/book/default/chapter/01'
p4336
tp4337
a(g3909
(S's\x06\x00\x00\x00Python'
tRp4338
I00
S'http://www.web2py.com/book/default/chapter/02'
p4339
tp4340
a(g3909
(S's\x08\x00\x00\x00Overview'
tRp4341
I00
S'http://www.web2py.com/book/default/chapter/03'
p4342
tp4343
a(g3909
(S's\x08\x00\x00\x00The Core'
tRp4344
I00
S'http://www.web2py.com/book/default/chapter/04'
p4345
tp4346
a(g3909
(S's\t\x00\x00\x00The Views'
tRp4347
I00
S'http://www.web2py.com/book/default/chapter/05'
p4348
tp4349
a(g3909
(S's\x08\x00\x00\x00Database'
tRp4350
I00
S'http://www.web2py.com/book/default/chapter/06'
p4351
tp4352
a(g3909
(S's\x14\x00\x00\x00Forms and Validators'
tRp4353
I00
S'http://www.web2py.com/book/default/chapter/07'
p4354
tp4355
a(g3909
(S's\r\x00\x00\x00Email and SMS'
tRp4356
I00
S'http://www.web2py.com/book/default/chapter/08'
p4357
tp4358
a(g3909
(S's\x0e\x00\x00\x00Access Control'
tRp4359
I00
S'http://www.web2py.com/book/default/chapter/09'
p4360
tp4361
a(g3909
(S's\x08\x00\x00\x00Services'
tRp4362
I00
S'http://www.web2py.com/book/default/chapter/10'
p4363
tp4364
a(g3909
(S's\x0c\x00\x00\x00Ajax Recipes'
tRp4365
I00
S'http://www.web2py.com/book/default/chapter/11'
p4366
tp4367
a(g3909
(S's\x16\x00\x00\x00Components and Plugins'
tRp4368
I00
S'http://www.web2py.com/book/default/chapter/12'
p4369
tp4370
a(g3909
(S's\x12\x00\x00\x00Deployment Recipes'
tRp4371
I00
S'http://www.web2py.com/book/default/chapter/13'
p4372
tp4373
a(g3909
(S's\r\x00\x00\x00Other Recipes'
tRp4374
I00
S'http://www.web2py.com/book/default/chapter/14'
p4375
tp4376
a(g3909
(S's\r\x00\x00\x00Buy this book'
tRp4377
I00
S'http://stores.lulu.com/web2py'
p4378
tp4379
aasbasbasbasbasbasbasbag49
(g65
g51
NtRp4380
(dp4381
g54
(dp4382
sg63
g4022
sg56
(lp4383
g49
(g70
g51
NtRp4384
(dp4385
g54
(dp4386
sg63
g4380
sg56
(lp4387
g49
(g50
g51
NtRp4388
(dp4389
g54
(dp4390
g62
I2
ssg63
g4384
sg56
(lp4391
g49
(g58
g51
NtRp4392
(dp4393
g54
(dp4394
g62
I1
ssg63
Nsg56
(lp4395
g49
(g65
g51
NtRp4396
(dp4397
g54
(dp4398
sg63
g4392
sg56
(lp4399
g49
(g70
g51
NtRp4400
(dp4401
g54
(dp4402
sg63
g4396
sg56
(lp4403
g49
(g50
g51
NtRp4404
(dp4405
g54
(dp4406
g62
I1
ssg63
g4400
sg56
(lp4407
g3909
(S's\t\x00\x00\x00Community'
tRp4408
asbasbasbag49
(g65
g51
NtRp4409
(dp4410
g54
(dp4411
sg63
g4392
sg56
(lp4412
g49
(g70
g51
NtRp4413
(dp4414
g54
(dp4415
sg63
g4409
sg56
(lp4416
g49
(g50
g51
NtRp4417
(dp4418
g54
(dp4419
g62
I1
ssg63
g4413
sg56
(lp4420
I00
asbasbasbag49
(g65
g51
NtRp4421
(dp4422
g54
(dp4423
sg63
g4392
sg56
(lp4424
g49
(g70
g51
NtRp4425
(dp4426
g54
(dp4427
sg63
g4421
sg56
(lp4428
g49
(g50
g51
NtRp4429
(dp4430
g54
(dp4431
g62
I1
ssg63
g4425
sg56
(lp4432
Nasbasbasbag49
(g65
g51
NtRp4433
(dp4434
g54
(dp4435
sg63
g4392
sg56
(lp4436
g49
(g70
g51
NtRp4437
(dp4438
g54
(dp4439
sg63
g4433
sg56
(lp4440
g49
(g50
g51
NtRp4441
(dp4442
g54
(dp4443
g62
I1
ssg63
g4437
sg56
(lp4444
(lp4445
(g3909
(S's\x06\x00\x00\x00Groups'
tRp4446
I00
S'http://www.web2py.com/examples/default/usergroups'
p4447
tp4448
a(g3909
(S's\x07\x00\x00\x00Twitter'
tRp4449
I00
S'http://twitter.com/web2py'
p4450
tp4451
a(g3909
(S's\t\x00\x00\x00Live Chat'
tRp4452
I00
S'http://webchat.freenode.net/?channels=web2py'
p4453
tp4454
aasbasbasbasbasbasbasbag49
(g65
g51
NtRp4455
(dp4456
g54
(dp4457
sg63
g4022
sg56
(lp4458
g49
(g70
g51
NtRp4459
(dp4460
g54
(dp4461
sg63
g4455
sg56
(lp4462
g49
(g50
g51
NtRp4463
(dp4464
g54
(dp4465
g62
I2
ssg63
g4459
sg56
(lp4466
g49
(g58
g51
NtRp4467
(dp4468
g54
(dp4469
g62
I1
ssg63
Nsg56
(lp4470
g49
(g65
g51
NtRp4471
(dp4472
g54
(dp4473
sg63
g4467
sg56
(lp4474
g49
(g70
g51
NtRp4475
(dp4476
g54
(dp4477
sg63
g4471
sg56
(lp4478
g49
(g50
g51
NtRp4479
(dp4480
g54
(dp4481
g62
I1
ssg63
g4475
sg56
(lp4482
g3909
(S's\x07\x00\x00\x00Plugins'
tRp4483
asbasbasbag49
(g65
g51
NtRp4484
(dp4485
g54
(dp4486
sg63
g4467
sg56
(lp4487
g49
(g70
g51
NtRp4488
(dp4489
g54
(dp4490
sg63
g4484
sg56
(lp4491
g49
(g50
g51
NtRp4492
(dp4493
g54
(dp4494
g62
I1
ssg63
g4488
sg56
(lp4495
I00
asbasbasbag49
(g65
g51
NtRp4496
(dp4497
g54
(dp4498
sg63
g4467
sg56
(lp4499
g49
(g70
g51
NtRp4500
(dp4501
g54
(dp4502
sg63
g4496
sg56
(lp4503
g49
(g50
g51
NtRp4504
(dp4505
g54
(dp4506
g62
I1
ssg63
g4500
sg56
(lp4507
Nasbasbasbag49
(g65
g51
NtRp4508
(dp4509
g54
(dp4510
sg63
g4467
sg56
(lp4511
g49
(g70
g51
NtRp4512
(dp4513
g54
(dp4514
sg63
g4508
sg56
(lp4515
g49
(g50
g51
NtRp4516
(dp4517
g54
(dp4518
g62
I1
ssg63
g4512
sg56
(lp4519
(lp4520
(S'plugin_wiki'
p4521
I00
S'http://web2py.com/examples/default/download'
p4522
tp4523
a(g3909
(S's\r\x00\x00\x00Other Plugins'
tRp4524
I00
g4254
tp4525
a(g3909
(S's\x0e\x00\x00\x00Layout Plugins'
tRp4526
I00
g4257
tp4527
aasbasbasbasbasbasbasbasbasbasbasbasbasbasbasbasbasbasbasbag49
(g65
g51
NtRp4528
(dp4529
g54
(dp4530
sg63
g3372
sg56
(lp4531
g49
(g70
g51
NtRp4532
(dp4533
g54
(dp4534
g74
g75
ssg63
g4528
sg56
(lp4535
S'meta'
p4536
asbag49
(g70
g51
NtRp4537
(dp4538
g54
(dp4539
g81
g82
ssg63
g4528
sg56
(lp4540
S':'
asbag49
(g70
g51
NtRp4541
(dp4542
g54
(dp4543
sg63
g4528
sg56
(lp4544
g49
(g50
g51
NtRp4545
(dp4546
g54
(dp4547
g62
I5
ssg63
g4541
sg56
(lp4548
g49
(g58
g51
NtRp4549
(dp4550
g54
(dp4551
g62
I4
ssg63
Nsg56
(lp4552
g49
(g65
g51
NtRp4553
(dp4554
g54
(dp4555
sg63
g4549
sg56
(lp4556
g49
(g70
g51
NtRp4557
(dp4558
g54
(dp4559
g74
g75
ssg63
g4553
sg56
(lp4560
S'author'
p4561
asbag49
(g70
g51
NtRp4562
(dp4563
g54
(dp4564
g81
g82
ssg63
g4553
sg56
(lp4565
S':'
asbag49
(g70
g51
NtRp4566
(dp4567
g54
(dp4568
sg63
g4553
sg56
(lp4569
g49
(g50
g51
NtRp4570
(dp4571
g54
(dp4572
g62
I4
ssg63
g4566
sg56
(lp4573
S'Your Name <you@example.com>'
p4574
asbasbasbag49
(g65
g51
NtRp4575
(dp4576
g54
(dp4577
sg63
g4549
sg56
(lp4578
g49
(g70
g51
NtRp4579
(dp4580
g54
(dp4581
g74
g75
ssg63
g4575
sg56
(lp4582
S'copyright'
p4583
asbag49
(g70
g51
NtRp4584
(dp4585
g54
(dp4586
g81
g82
ssg63
g4575
sg56
(lp4587
S':'
asbag49
(g70
g51
NtRp4588
(dp4589
g54
(dp4590
sg63
g4575
sg56
(lp4591
g49
(g50
g51
NtRp4592
(dp4593
g54
(dp4594
g62
I4
ssg63
g4588
sg56
(lp4595
S'Copyright 2011'
p4596
asbasbasbag49
(g65
g51
NtRp4597
(dp4598
g54
(dp4599
sg63
g4549
sg56
(lp4600
g49
(g70
g51
NtRp4601
(dp4602
g54
(dp4603
g74
g75
ssg63
g4597
sg56
(lp4604
S'description'
p4605
asbag49
(g70
g51
NtRp4606
(dp4607
g54
(dp4608
g81
g82
ssg63
g4597
sg56
(lp4609
S':'
asbag49
(g70
g51
NtRp4610
(dp4611
g54
(dp4612
sg63
g4597
sg56
(lp4613
g49
(g50
g51
NtRp4614
(dp4615
g54
(dp4616
g62
I4
ssg63
g4610
sg56
(lp4617
S'a cool new app'
p4618
asbasbasbag49
(g65
g51
NtRp4619
(dp4620
g54
(dp4621
sg63
g4549
sg56
(lp4622
g49
(g70
g51
NtRp4623
(dp4624
g54
(dp4625
g74
g75
ssg63
g4619
sg56
(lp4626
S'generator'
p4627
asbag49
(g70
g51
NtRp4628
(dp4629
g54
(dp4630
g81
g82
ssg63
g4619
sg56
(lp4631
S':'
asbag49
(g70
g51
NtRp4632
(dp4633
g54
(dp4634
sg63
g4619
sg56
(lp4635
g49
(g50
g51
NtRp4636
(dp4637
g54
(dp4638
g62
I4
ssg63
g4632
sg56
(lp4639
S'Web2py Web Framework'
p4640
asbasbasbag49
(g65
g51
NtRp4641
(dp4642
g54
(dp4643
sg63
g4549
sg56
(lp4644
g49
(g70
g51
NtRp4645
(dp4646
g54
(dp4647
g74
g75
ssg63
g4641
sg56
(lp4648
S'keywords'
p4649
asbag49
(g70
g51
NtRp4650
(dp4651
g54
(dp4652
g81
g82
ssg63
g4641
sg56
(lp4653
S':'
asbag49
(g70
g51
NtRp4654
(dp4655
g54
(dp4656
sg63
g4641
sg56
(lp4657
g49
(g50
g51
NtRp4658
(dp4659
g54
(dp4660
g62
I4
ssg63
g4654
sg56
(lp4661
S'web2py, python, framework'
p4662
asbasbasbasbasbasbasbag49
(g65
g51
NtRp4663
(dp4664
g54
(dp4665
sg63
g3372
sg56
(lp4666
g49
(g70
g51
NtRp4667
(dp4668
g54
(dp4669
g74
g75
ssg63
g4663
sg56
(lp4670
S'postprocessing'
p4671
asbag49
(g70
g51
NtRp4672
(dp4673
g54
(dp4674
g81
g82
ssg63
g4663
sg56
(lp4675
S':'
asbag49
(g70
g51
NtRp4676
(dp4677
g54
(dp4678
sg63
g4663
sg56
(lp4679
g49
(g50
g51
NtRp4680
(dp4681
g54
(dp4682
g62
I5
ssg63
g4676
sg56
(lp4683
g49
(g58
g51
NtRp4684
(dp4685
g54
(dp4686
g62
I4
ssg63
Nsg56
(lp4687
sbasbasbasbag49
(g65
g51
NtRp4688
(dp4689
g54
(dp4690
sg63
g3372
sg56
(lp4691
g49
(g70
g51
NtRp4692
(dp4693
g54
(dp4694
g74
g75
ssg63
g4688
sg56
(lp4695
S'session_file'
p4696
asbag49
(g70
g51
NtRp4697
(dp4698
g54
(dp4699
g81
g82
ssg63
g4688
sg56
(lp4700
S':'
asbag49
(g70
g51
NtRp4701
(dp4702
g54
(dp4703
sg63
g4688
sg56
(lp4704
g49
(g50
g51
NtRp4705
(dp4706
g54
(dp4707
g62
I5
ssg63
g4701
sg56
(lp4708
S"<open file '/Users/udimilo/Documents/web2py/applications/udi0312/sessions/127.0.0.1-fcd6a577-d448-4882-b7bc-f353da84ba3b', mode 'rb+' at 0x9f69ec0>"
p4709
asbasbasbag49
(g65
g51
NtRp4710
(dp4711
g54
(dp4712
sg63
g3372
sg56
(lp4713
g49
(g70
g51
NtRp4714
(dp4715
g54
(dp4716
g74
g75
ssg63
g4710
sg56
(lp4717
S'session_filename'
p4718
asbag49
(g70
g51
NtRp4719
(dp4720
g54
(dp4721
g81
g82
ssg63
g4710
sg56
(lp4722
S':'
asbag49
(g70
g51
NtRp4723
(dp4724
g54
(dp4725
sg63
g4710
sg56
(lp4726
g49
(g50
g51
NtRp4727
(dp4728
g54
(dp4729
g62
I5
ssg63
g4723
sg56
(lp4730
S'/Users/udimilo/Documents/web2py/applications/udi0312/sessions/127.0.0.1-fcd6a577-d448-4882-b7bc-f353da84ba3b'
p4731
asbasbasbag49
(g65
g51
NtRp4732
(dp4733
g54
(dp4734
sg63
g3372
sg56
(lp4735
g49
(g70
g51
NtRp4736
(dp4737
g54
(dp4738
g74
g75
ssg63
g4732
sg56
(lp4739
S'session_id'
p4740
asbag49
(g70
g51
NtRp4741
(dp4742
g54
(dp4743
g81
g82
ssg63
g4732
sg56
(lp4744
S':'
asbag49
(g70
g51
NtRp4745
(dp4746
g54
(dp4747
sg63
g4732
sg56
(lp4748
g49
(g50
g51
NtRp4749
(dp4750
g54
(dp4751
g62
I5
ssg63
g4745
sg56
(lp4752
S'127.0.0.1-fcd6a577-d448-4882-b7bc-f353da84ba3b'
p4753
asbasbasbag49
(g65
g51
NtRp4754
(dp4755
g54
(dp4756
sg63
g3372
sg56
(lp4757
g49
(g70
g51
NtRp4758
(dp4759
g54
(dp4760
g74
g75
ssg63
g4754
sg56
(lp4761
S'session_id_name'
p4762
asbag49
(g70
g51
NtRp4763
(dp4764
g54
(dp4765
g81
g82
ssg63
g4754
sg56
(lp4766
S':'
asbag49
(g70
g51
NtRp4767
(dp4768
g54
(dp4769
sg63
g4754
sg56
(lp4770
g49
(g50
g51
NtRp4771
(dp4772
g54
(dp4773
g62
I5
ssg63
g4767
sg56
(lp4774
g3429
asbasbasbag49
(g65
g51
NtRp4775
(dp4776
g54
(dp4777
sg63
g3372
sg56
(lp4778
g49
(g70
g51
NtRp4779
(dp4780
g54
(dp4781
g74
g75
ssg63
g4775
sg56
(lp4782
S'session_locked'
p4783
asbag49
(g70
g51
NtRp4784
(dp4785
g54
(dp4786
g81
g82
ssg63
g4775
sg56
(lp4787
S':'
asbag49
(g70
g51
NtRp4788
(dp4789
g54
(dp4790
sg63
g4775
sg56
(lp4791
g49
(g50
g51
NtRp4792
(dp4793
g54
(dp4794
g62
I5
ssg63
g4788
sg56
(lp4795
g1487
asbasbasbag49
(g65
g51
NtRp4796
(dp4797
g54
(dp4798
sg63
g3372
sg56
(lp4799
g49
(g70
g51
NtRp4800
(dp4801
g54
(dp4802
g74
g75
ssg63
g4796
sg56
(lp4803
S'session_new'
p4804
asbag49
(g70
g51
NtRp4805
(dp4806
g54
(dp4807
g81
g82
ssg63
g4796
sg56
(lp4808
S':'
asbag49
(g70
g51
NtRp4809
(dp4810
g54
(dp4811
sg63
g4796
sg56
(lp4812
g49
(g50
g51
NtRp4813
(dp4814
g54
(dp4815
g62
I5
ssg63
g4809
sg56
(lp4816
g92
asbasbasbag49
(g65
g51
NtRp4817
(dp4818
g54
(dp4819
sg63
g3372
sg56
(lp4820
g49
(g70
g51
NtRp4821
(dp4822
g54
(dp4823
g74
g75
ssg63
g4817
sg56
(lp4824
S'status'
p4825
asbag49
(g70
g51
NtRp4826
(dp4827
g54
(dp4828
g81
g82
ssg63
g4817
sg56
(lp4829
S':'
asbag49
(g70
g51
NtRp4830
(dp4831
g54
(dp4832
sg63
g4817
sg56
(lp4833
g49
(g50
g51
NtRp4834
(dp4835
g54
(dp4836
g62
I5
ssg63
g4830
sg56
(lp4837
S'200'
p4838
asbasbasbag49
(g65
g51
NtRp4839
(dp4840
g54
(dp4841
sg63
g3372
sg56
(lp4842
g49
(g70
g51
NtRp4843
(dp4844
g54
(dp4845
g74
g75
ssg63
g4839
sg56
(lp4846
S'subtitle'
p4847
asbag49
(g70
g51
NtRp4848
(dp4849
g54
(dp4850
g81
g82
ssg63
g4839
sg56
(lp4851
S':'
asbag49
(g70
g51
NtRp4852
(dp4853
g54
(dp4854
sg63
g4839
sg56
(lp4855
g49
(g50
g51
NtRp4856
(dp4857
g54
(dp4858
g62
I5
ssg63
g4852
sg56
(lp4859
g3909
(S's\r\x00\x00\x00customize me!'
tRp4860
asbasbasbag49
(g65
g51
NtRp4861
(dp4862
g54
(dp4863
sg63
g3372
sg56
(lp4864
g49
(g70
g51
NtRp4865
(dp4866
g54
(dp4867
g74
g75
ssg63
g4861
sg56
(lp4868
S'title'
p4869
asbag49
(g70
g51
NtRp4870
(dp4871
g54
(dp4872
g81
g82
ssg63
g4861
sg56
(lp4873
S':'
asbag49
(g70
g51
NtRp4874
(dp4875
g54
(dp4876
sg63
g4861
sg56
(lp4877
g49
(g50
g51
NtRp4878
(dp4879
g54
(dp4880
g62
I5
ssg63
g4874
sg56
(lp4881
S'Udi0312'
p4882
asbasbasbag49
(g65
g51
NtRp4883
(dp4884
g54
(dp4885
sg63
g3372
sg56
(lp4886
g49
(g70
g51
NtRp4887
(dp4888
g54
(dp4889
g74
g75
ssg63
g4883
sg56
(lp4890
g2151
asbag49
(g70
g51
NtRp4891
(dp4892
g54
(dp4893
g81
g82
ssg63
g4883
sg56
(lp4894
S':'
asbag49
(g70
g51
NtRp4895
(dp4896
g54
(dp4897
sg63
g4883
sg56
(lp4898
g49
(g50
g51
NtRp4899
(dp4900
g54
(dp4901
g62
I5
ssg63
g4895
sg56
(lp4902
g2164
asbasbasbag49
(g65
g51
NtRp4903
(dp4904
g54
(dp4905
sg63
g3372
sg56
(lp4906
g49
(g70
g51
NtRp4907
(dp4908
g54
(dp4909
g74
g75
ssg63
g4903
sg56
(lp4910
S'view'
p4911
asbag49
(g70
g51
NtRp4912
(dp4913
g54
(dp4914
g81
g82
ssg63
g4903
sg56
(lp4915
S':'
asbag49
(g70
g51
NtRp4916
(dp4917
g54
(dp4918
sg63
g4903
sg56
(lp4919
g49
(g50
g51
NtRp4920
(dp4921
g54
(dp4922
g62
I5
ssg63
g4916
sg56
(lp4923
S'default/test.html'
p4924
asbasbasbasbasbsS'locals'
p4925
(dp4926
g2107
S"'http://www.readability.com/api/content/v1/parser...://techcrunch.com/2012/03/08/savingstar-series-c/'"
p4927
sS'data'
p4928
S'None'
p4929
sS'self'
p4930
S'<applications.udi0312.modules.readability.Readability object at 0xa675530>'
p4931
sg3729
S'None'
p4932
sg347
S"'url=http://techcrunch.com/2012/03/08/savingstar-series-c/'"
p4933
sS'config'
p4934
g39
sS'method'
p4935
S"'GET'"
p4936
sssS'traceback'
p4937
S'Traceback (most recent call last):\n  File "/users/udimilo/Documents/web2py/gluon/restricted.py", line 205, in restricted\n    exec ccode in environment\n  File "/Users/udimilo/Documents/web2py/applications/udi0312/controllers/default.py", line 87, in <module>\n  File "/users/udimilo/Documents/web2py/gluon/globals.py", line 173, in <lambda>\n    self._caller = lambda f: f()\n  File "/Users/udimilo/Documents/web2py/applications/udi0312/controllers/default.py", line 32, in test\n    content = read.content(\'http://techcrunch.com/2012/03/08/savingstar-series-c/\')\n  File "applications/udi0312/modules/readability.py", line 30, in content\n    else:\n  File "applications/udi0312/modules/readability.py", line 15, in _request\n    def _request(self, method, path, data=None, headers=None):\nNameError: global name \'requests\' is not defined\n'
p4938
s.