(dp1
S'output'
p2
S"<type 'exceptions.AttributeError'> 'dict' object has no attribute 'x'"
p3
sS'layer'
p4
S'/Users/udimilo/Documents/web2py/applications/udi0312/controllers/api.py'
p5
sS'code'
p6
S"# coding: utf8\nimport re\nimport time\nfrom readability import Readability\n\n@cache('a', 5)\ndef f():\n    return time.ctime()\n     \ndef test():\n    unique = {}\n    \n    pins = db().select(db.pin.ALL, orderby=~db.pin.created_on)\n    for p in pins:\n        unique[p.id] = p\n\n    original_ids = set(map(lambda p: p.original_pin, pins))\n    if len(original_ids) > 0:\n        original_pins = db(db.pin.id.belongs(original_ids)).select()    \n        for p in original_pins:\n            unique[p.id] = p    \n    pins = unique.values()    \n\n    board_ids = set(map(lambda p: p.board, pins))\n    boards = db(db.board.id.belongs(board_ids)).select()\n    \n    user_ids = set(map(lambda b: b.user, boards))\n    users = db(db.auth_user.id.belongs(user_ids)).select()\n        \n    article_ids = list(set(map(lambda p: p.article, pins)))\n    article = db(db.article.id.belongs(article_ids)).select()\n    \n    result = {}\n    result.x = 1\n    \n    return boards\n\ndef add_repin():\n    pin_id = request.vars.id\n    pin = db.pin(pin_id)\n\n    board_id = request.vars.repin_board\n    board = db.board(board_id)\n    \n    new_pin = db((db.pin.article==pin.article.id)&(db.pin.board==board.id)).select().first()\n    if new_pin is None:\n        new_pin = db.pin.insert(article=pin.article.id, board=board.id, original_pin=pin.id)\n    \n    return 'reload'\n    \ndef add_board():\n    name = request.vars.name\n    if re.match('(^[\\w\\s.-]+$)', name): #sanitize the name\n        category = db.category(request.vars.category)\n        board = db.board.insert(user=auth.user.id, category=category.id, name=name)\n        return board.id\n\n    return 'please use only alpha numeric characters'\n    \ndef add_article():\n    url = request.vars.url\n    board = db.board(request.vars.board)\n    article = db(db.article.url == url).select().first()\n    if article is None:\n        r = Readability()\n        json = r.content(url)\n        article = db.article.insert(\n            height=300,\n            url=json['url'],\n            readability_url=json['short_url'],\n            title=json['title'],\n            content=json['content'],\n            domain=json['domain'],\n            author=json['author'],\n            excerpt=json['excerpt'],\n            word_count=json['word_count'],\n            total_pages=json['total_pages'],\n            date_published=json['date_published'],\n            next_page_id=json['next_page_id'],\n            rendered_pages=json['rendered_pages'],            \n        )\n    \n    pin = db((db.pin.board == board.id) & (db.pin.article == article.id)).select().first()\n    if pin is None:\n        pin = db.pin.insert(board=board.id, article=article.id)\n    \n    return pin.id\n\nresponse._vars=response._caller(test)\n"
p7
sS'snapshot'
p8
(dp9
S'exception'
p10
(dp11
S'__hash__'
p12
S"<method-wrapper '__hash__' of exceptions.AttributeError object at 0xa0533a0>"
p13
sS'__setattr__'
p14
S"<method-wrapper '__setattr__' of exceptions.AttributeError object at 0xa0533a0>"
p15
sS'__reduce_ex__'
p16
S'<built-in method __reduce_ex__ of exceptions.AttributeError object at 0xa0533a0>'
p17
sS'__getslice__'
p18
S"<method-wrapper '__getslice__' of exceptions.AttributeError object at 0xa0533a0>"
p19
sS'__getitem__'
p20
S"<method-wrapper '__getitem__' of exceptions.AttributeError object at 0xa0533a0>"
p21
sS'__setstate__'
p22
S'<built-in method __setstate__ of exceptions.AttributeError object at 0xa0533a0>'
p23
sS'__reduce__'
p24
S'<built-in method __reduce__ of exceptions.AttributeError object at 0xa0533a0>'
p25
sS'__str__'
p26
S"<method-wrapper '__str__' of exceptions.AttributeError object at 0xa0533a0>"
p27
sS'args'
p28
S'("\'dict\' object has no attribute \'x\'",)'
p29
sS'__getattribute__'
p30
S"<method-wrapper '__getattribute__' of exceptions.AttributeError object at 0xa0533a0>"
p31
sS'__class__'
p32
S"<type 'exceptions.AttributeError'>"
p33
sS'__delattr__'
p34
S"<method-wrapper '__delattr__' of exceptions.AttributeError object at 0xa0533a0>"
p35
sS'__repr__'
p36
S"<method-wrapper '__repr__' of exceptions.AttributeError object at 0xa0533a0>"
p37
sS'__dict__'
p38
S'{}'
p39
sS'__doc__'
p40
S"'Attribute not found.'"
p41
sS'__init__'
p42
S"<method-wrapper '__init__' of exceptions.AttributeError object at 0xa0533a0>"
p43
sS'__new__'
p44
S'<built-in method __new__ of type object at 0x1004a0>'
p45
ssS'evalue'
p46
S"'dict' object has no attribute 'x'"
p47
sS'request'
p48
ccopy_reg
_reconstructor
p49
(cgluon.html
BEAUTIFY
p50
c__builtin__
object
p51
NtRp52
(dp53
S'attributes'
p54
(dp55
sS'components'
p56
(lp57
g49
(cgluon.html
TABLE
p58
g51
NtRp59
(dp60
g54
(dp61
S'level'
p62
I5
ssS'parent'
p63
Nsg56
(lp64
g49
(cgluon.html
TR
p65
g51
NtRp66
(dp67
g54
(dp68
sg63
g59
sg56
(lp69
g49
(cgluon.html
TD
p70
g51
NtRp71
(dp72
g54
(dp73
S'_style'
p74
S'font-weight:bold;vertical-align:top'
p75
ssg63
g66
sg56
(lp76
S'ajax'
p77
asbag49
(g70
g51
NtRp78
(dp79
g54
(dp80
S'_valign'
p81
S'top'
p82
ssg63
g66
sg56
(lp83
S':'
asbag49
(g70
g51
NtRp84
(dp85
g54
(dp86
sg63
g66
sg56
(lp87
g49
(g50
g51
NtRp88
(dp89
g54
(dp90
g62
I5
ssg63
g84
sg56
(lp91
S'False'
p92
asbasbasbag49
(g65
g51
NtRp93
(dp94
g54
(dp95
sg63
g59
sg56
(lp96
g49
(g70
g51
NtRp97
(dp98
g54
(dp99
g74
g75
ssg63
g93
sg56
(lp100
S'application'
p101
asbag49
(g70
g51
NtRp102
(dp103
g54
(dp104
g81
g82
ssg63
g93
sg56
(lp105
S':'
asbag49
(g70
g51
NtRp106
(dp107
g54
(dp108
sg63
g93
sg56
(lp109
g49
(g50
g51
NtRp110
(dp111
g54
(dp112
g62
I5
ssg63
g106
sg56
(lp113
S'udi0312'
p114
asbasbasbag49
(g65
g51
NtRp115
(dp116
g54
(dp117
sg63
g59
sg56
(lp118
g49
(g70
g51
NtRp119
(dp120
g54
(dp121
g74
g75
ssg63
g115
sg56
(lp122
g28
asbag49
(g70
g51
NtRp123
(dp124
g54
(dp125
g81
g82
ssg63
g115
sg56
(lp126
S':'
asbag49
(g70
g51
NtRp127
(dp128
g54
(dp129
sg63
g115
sg56
(lp130
g49
(g50
g51
NtRp131
(dp132
g54
(dp133
g62
I5
ssg63
g127
sg56
(lp134
g49
(g58
g51
NtRp135
(dp136
g54
(dp137
g62
I4
ssg63
Nsg56
(lp138
sbasbasbasbag49
(g65
g51
NtRp139
(dp140
g54
(dp141
sg63
g59
sg56
(lp142
g49
(g70
g51
NtRp143
(dp144
g54
(dp145
g74
g75
ssg63
g139
sg56
(lp146
S'body'
p147
asbag49
(g70
g51
NtRp148
(dp149
g54
(dp150
g81
g82
ssg63
g139
sg56
(lp151
S':'
asbag49
(g70
g51
NtRp152
(dp153
g54
(dp154
sg63
g139
sg56
(lp155
g49
(g50
g51
NtRp156
(dp157
g54
(dp158
g62
I5
ssg63
g152
sg56
(lp159
S'<cStringIO.StringO object at 0xa65f4e0>'
p160
asbasbasbag49
(g65
g51
NtRp161
(dp162
g54
(dp163
sg63
g59
sg56
(lp164
g49
(g70
g51
NtRp165
(dp166
g54
(dp167
g74
g75
ssg63
g161
sg56
(lp168
S'client'
p169
asbag49
(g70
g51
NtRp170
(dp171
g54
(dp172
g81
g82
ssg63
g161
sg56
(lp173
S':'
asbag49
(g70
g51
NtRp174
(dp175
g54
(dp176
sg63
g161
sg56
(lp177
g49
(g50
g51
NtRp178
(dp179
g54
(dp180
g62
I5
ssg63
g174
sg56
(lp181
S'127.0.0.1'
p182
asbasbasbag49
(g65
g51
NtRp183
(dp184
g54
(dp185
sg63
g59
sg56
(lp186
g49
(g70
g51
NtRp187
(dp188
g54
(dp189
g74
g75
ssg63
g183
sg56
(lp190
S'controller'
p191
asbag49
(g70
g51
NtRp192
(dp193
g54
(dp194
g81
g82
ssg63
g183
sg56
(lp195
S':'
asbag49
(g70
g51
NtRp196
(dp197
g54
(dp198
sg63
g183
sg56
(lp199
g49
(g50
g51
NtRp200
(dp201
g54
(dp202
g62
I5
ssg63
g196
sg56
(lp203
S'api'
p204
asbasbasbag49
(g65
g51
NtRp205
(dp206
g54
(dp207
sg63
g59
sg56
(lp208
g49
(g70
g51
NtRp209
(dp210
g54
(dp211
g74
g75
ssg63
g205
sg56
(lp212
S'cookies'
p213
asbag49
(g70
g51
NtRp214
(dp215
g54
(dp216
g81
g82
ssg63
g205
sg56
(lp217
S':'
asbag49
(g70
g51
NtRp218
(dp219
g54
(dp220
sg63
g205
sg56
(lp221
g49
(g50
g51
NtRp222
(dp223
g54
(dp224
g62
I5
ssg63
g218
sg56
(lp225
g49
(g58
g51
NtRp226
(dp227
g54
(dp228
g62
I4
ssg63
Nsg56
(lp229
g49
(g65
g51
NtRp230
(dp231
g54
(dp232
sg63
g226
sg56
(lp233
g49
(g70
g51
NtRp234
(dp235
g54
(dp236
g74
g75
ssg63
g230
sg56
(lp237
S'session_id_admin'
p238
asbag49
(g70
g51
NtRp239
(dp240
g54
(dp241
g81
g82
ssg63
g230
sg56
(lp242
S':'
asbag49
(g70
g51
NtRp243
(dp244
g54
(dp245
sg63
g230
sg56
(lp246
g49
(g50
g51
NtRp247
(dp248
g54
(dp249
g62
I4
ssg63
g243
sg56
(lp250
g49
(g58
g51
NtRp251
(dp252
g54
(dp253
g62
I3
ssg63
Nsg56
(lp254
g49
(g65
g51
NtRp255
(dp256
g54
(dp257
sg63
g251
sg56
(lp258
g49
(g70
g51
NtRp259
(dp260
g54
(dp261
g74
g75
ssg63
g255
sg56
(lp262
S'comment'
p263
asbag49
(g70
g51
NtRp264
(dp265
g54
(dp266
g81
g82
ssg63
g255
sg56
(lp267
S':'
asbag49
(g70
g51
NtRp268
(dp269
g54
(dp270
sg63
g255
sg56
(lp271
g49
(g50
g51
NtRp272
(dp273
g54
(dp274
g62
I3
ssg63
g268
sg56
(lp275
S''
asbasbasbag49
(g65
g51
NtRp276
(dp277
g54
(dp278
sg63
g251
sg56
(lp279
g49
(g70
g51
NtRp280
(dp281
g54
(dp282
g74
g75
ssg63
g276
sg56
(lp283
S'domain'
p284
asbag49
(g70
g51
NtRp285
(dp286
g54
(dp287
g81
g82
ssg63
g276
sg56
(lp288
S':'
asbag49
(g70
g51
NtRp289
(dp290
g54
(dp291
sg63
g276
sg56
(lp292
g49
(g50
g51
NtRp293
(dp294
g54
(dp295
g62
I3
ssg63
g289
sg56
(lp296
S''
asbasbasbag49
(g65
g51
NtRp297
(dp298
g54
(dp299
sg63
g251
sg56
(lp300
g49
(g70
g51
NtRp301
(dp302
g54
(dp303
g74
g75
ssg63
g297
sg56
(lp304
S'expires'
p305
asbag49
(g70
g51
NtRp306
(dp307
g54
(dp308
g81
g82
ssg63
g297
sg56
(lp309
S':'
asbag49
(g70
g51
NtRp310
(dp311
g54
(dp312
sg63
g297
sg56
(lp313
g49
(g50
g51
NtRp314
(dp315
g54
(dp316
g62
I3
ssg63
g310
sg56
(lp317
S''
asbasbasbag49
(g65
g51
NtRp318
(dp319
g54
(dp320
sg63
g251
sg56
(lp321
g49
(g70
g51
NtRp322
(dp323
g54
(dp324
g74
g75
ssg63
g318
sg56
(lp325
S'max-age'
p326
asbag49
(g70
g51
NtRp327
(dp328
g54
(dp329
g81
g82
ssg63
g318
sg56
(lp330
S':'
asbag49
(g70
g51
NtRp331
(dp332
g54
(dp333
sg63
g318
sg56
(lp334
g49
(g50
g51
NtRp335
(dp336
g54
(dp337
g62
I3
ssg63
g331
sg56
(lp338
S''
asbasbasbag49
(g65
g51
NtRp339
(dp340
g54
(dp341
sg63
g251
sg56
(lp342
g49
(g70
g51
NtRp343
(dp344
g54
(dp345
g74
g75
ssg63
g339
sg56
(lp346
S'path'
p347
asbag49
(g70
g51
NtRp348
(dp349
g54
(dp350
g81
g82
ssg63
g339
sg56
(lp351
S':'
asbag49
(g70
g51
NtRp352
(dp353
g54
(dp354
sg63
g339
sg56
(lp355
g49
(g50
g51
NtRp356
(dp357
g54
(dp358
g62
I3
ssg63
g352
sg56
(lp359
S''
asbasbasbag49
(g65
g51
NtRp360
(dp361
g54
(dp362
sg63
g251
sg56
(lp363
g49
(g70
g51
NtRp364
(dp365
g54
(dp366
g74
g75
ssg63
g360
sg56
(lp367
S'secure'
p368
asbag49
(g70
g51
NtRp369
(dp370
g54
(dp371
g81
g82
ssg63
g360
sg56
(lp372
S':'
asbag49
(g70
g51
NtRp373
(dp374
g54
(dp375
sg63
g360
sg56
(lp376
g49
(g50
g51
NtRp377
(dp378
g54
(dp379
g62
I3
ssg63
g373
sg56
(lp380
S''
asbasbasbag49
(g65
g51
NtRp381
(dp382
g54
(dp383
sg63
g251
sg56
(lp384
g49
(g70
g51
NtRp385
(dp386
g54
(dp387
g74
g75
ssg63
g381
sg56
(lp388
S'version'
p389
asbag49
(g70
g51
NtRp390
(dp391
g54
(dp392
g81
g82
ssg63
g381
sg56
(lp393
S':'
asbag49
(g70
g51
NtRp394
(dp395
g54
(dp396
sg63
g381
sg56
(lp397
g49
(g50
g51
NtRp398
(dp399
g54
(dp400
g62
I3
ssg63
g394
sg56
(lp401
S''
asbasbasbasbasbasbasbag49
(g65
g51
NtRp402
(dp403
g54
(dp404
sg63
g226
sg56
(lp405
g49
(g70
g51
NtRp406
(dp407
g54
(dp408
g74
g75
ssg63
g402
sg56
(lp409
S'session_id_udi0312'
p410
asbag49
(g70
g51
NtRp411
(dp412
g54
(dp413
g81
g82
ssg63
g402
sg56
(lp414
S':'
asbag49
(g70
g51
NtRp415
(dp416
g54
(dp417
sg63
g402
sg56
(lp418
g49
(g50
g51
NtRp419
(dp420
g54
(dp421
g62
I4
ssg63
g415
sg56
(lp422
g49
(g58
g51
NtRp423
(dp424
g54
(dp425
g62
I3
ssg63
Nsg56
(lp426
g49
(g65
g51
NtRp427
(dp428
g54
(dp429
sg63
g423
sg56
(lp430
g49
(g70
g51
NtRp431
(dp432
g54
(dp433
g74
g75
ssg63
g427
sg56
(lp434
g263
asbag49
(g70
g51
NtRp435
(dp436
g54
(dp437
g81
g82
ssg63
g427
sg56
(lp438
S':'
asbag49
(g70
g51
NtRp439
(dp440
g54
(dp441
sg63
g427
sg56
(lp442
g49
(g50
g51
NtRp443
(dp444
g54
(dp445
g62
I3
ssg63
g439
sg56
(lp446
S''
asbasbasbag49
(g65
g51
NtRp447
(dp448
g54
(dp449
sg63
g423
sg56
(lp450
g49
(g70
g51
NtRp451
(dp452
g54
(dp453
g74
g75
ssg63
g447
sg56
(lp454
g284
asbag49
(g70
g51
NtRp455
(dp456
g54
(dp457
g81
g82
ssg63
g447
sg56
(lp458
S':'
asbag49
(g70
g51
NtRp459
(dp460
g54
(dp461
sg63
g447
sg56
(lp462
g49
(g50
g51
NtRp463
(dp464
g54
(dp465
g62
I3
ssg63
g459
sg56
(lp466
S''
asbasbasbag49
(g65
g51
NtRp467
(dp468
g54
(dp469
sg63
g423
sg56
(lp470
g49
(g70
g51
NtRp471
(dp472
g54
(dp473
g74
g75
ssg63
g467
sg56
(lp474
g305
asbag49
(g70
g51
NtRp475
(dp476
g54
(dp477
g81
g82
ssg63
g467
sg56
(lp478
S':'
asbag49
(g70
g51
NtRp479
(dp480
g54
(dp481
sg63
g467
sg56
(lp482
g49
(g50
g51
NtRp483
(dp484
g54
(dp485
g62
I3
ssg63
g479
sg56
(lp486
S''
asbasbasbag49
(g65
g51
NtRp487
(dp488
g54
(dp489
sg63
g423
sg56
(lp490
g49
(g70
g51
NtRp491
(dp492
g54
(dp493
g74
g75
ssg63
g487
sg56
(lp494
g326
asbag49
(g70
g51
NtRp495
(dp496
g54
(dp497
g81
g82
ssg63
g487
sg56
(lp498
S':'
asbag49
(g70
g51
NtRp499
(dp500
g54
(dp501
sg63
g487
sg56
(lp502
g49
(g50
g51
NtRp503
(dp504
g54
(dp505
g62
I3
ssg63
g499
sg56
(lp506
S''
asbasbasbag49
(g65
g51
NtRp507
(dp508
g54
(dp509
sg63
g423
sg56
(lp510
g49
(g70
g51
NtRp511
(dp512
g54
(dp513
g74
g75
ssg63
g507
sg56
(lp514
g347
asbag49
(g70
g51
NtRp515
(dp516
g54
(dp517
g81
g82
ssg63
g507
sg56
(lp518
S':'
asbag49
(g70
g51
NtRp519
(dp520
g54
(dp521
sg63
g507
sg56
(lp522
g49
(g50
g51
NtRp523
(dp524
g54
(dp525
g62
I3
ssg63
g519
sg56
(lp526
S''
asbasbasbag49
(g65
g51
NtRp527
(dp528
g54
(dp529
sg63
g423
sg56
(lp530
g49
(g70
g51
NtRp531
(dp532
g54
(dp533
g74
g75
ssg63
g527
sg56
(lp534
g368
asbag49
(g70
g51
NtRp535
(dp536
g54
(dp537
g81
g82
ssg63
g527
sg56
(lp538
S':'
asbag49
(g70
g51
NtRp539
(dp540
g54
(dp541
sg63
g527
sg56
(lp542
g49
(g50
g51
NtRp543
(dp544
g54
(dp545
g62
I3
ssg63
g539
sg56
(lp546
S''
asbasbasbag49
(g65
g51
NtRp547
(dp548
g54
(dp549
sg63
g423
sg56
(lp550
g49
(g70
g51
NtRp551
(dp552
g54
(dp553
g74
g75
ssg63
g547
sg56
(lp554
g389
asbag49
(g70
g51
NtRp555
(dp556
g54
(dp557
g81
g82
ssg63
g547
sg56
(lp558
S':'
asbag49
(g70
g51
NtRp559
(dp560
g54
(dp561
sg63
g547
sg56
(lp562
g49
(g50
g51
NtRp563
(dp564
g54
(dp565
g62
I3
ssg63
g559
sg56
(lp566
S''
asbasbasbasbasbasbasbasbasbasbasbag49
(g65
g51
NtRp567
(dp568
g54
(dp569
sg63
g59
sg56
(lp570
g49
(g70
g51
NtRp571
(dp572
g54
(dp573
g74
g75
ssg63
g567
sg56
(lp574
S'env'
p575
asbag49
(g70
g51
NtRp576
(dp577
g54
(dp578
g81
g82
ssg63
g567
sg56
(lp579
S':'
asbag49
(g70
g51
NtRp580
(dp581
g54
(dp582
sg63
g567
sg56
(lp583
g49
(g50
g51
NtRp584
(dp585
g54
(dp586
g62
I5
ssg63
g580
sg56
(lp587
g49
(g58
g51
NtRp588
(dp589
g54
(dp590
g62
I4
ssg63
Nsg56
(lp591
g49
(g65
g51
NtRp592
(dp593
g54
(dp594
sg63
g588
sg56
(lp595
g49
(g70
g51
NtRp596
(dp597
g54
(dp598
g74
g75
ssg63
g592
sg56
(lp599
S'app_folders'
p600
asbag49
(g70
g51
NtRp601
(dp602
g54
(dp603
g81
g82
ssg63
g592
sg56
(lp604
S':'
asbag49
(g70
g51
NtRp605
(dp606
g54
(dp607
sg63
g592
sg56
(lp608
g49
(g50
g51
NtRp609
(dp610
g54
(dp611
g62
I4
ssg63
g605
sg56
(lp612
S"set(['/Users/udimilo/Documents/web2py/applications/udi0312/', '/Users/udimilo/Documents/web2py/applications/admin/'])"
p613
asbasbasbag49
(g65
g51
NtRp614
(dp615
g54
(dp616
sg63
g588
sg56
(lp617
g49
(g70
g51
NtRp618
(dp619
g54
(dp620
g74
g75
ssg63
g614
sg56
(lp621
S'applications_parent'
p622
asbag49
(g70
g51
NtRp623
(dp624
g54
(dp625
g81
g82
ssg63
g614
sg56
(lp626
S':'
asbag49
(g70
g51
NtRp627
(dp628
g54
(dp629
sg63
g614
sg56
(lp630
g49
(g50
g51
NtRp631
(dp632
g54
(dp633
g62
I4
ssg63
g627
sg56
(lp634
S'/Users/udimilo/Documents/web2py'
p635
asbasbasbag49
(g65
g51
NtRp636
(dp637
g54
(dp638
sg63
g588
sg56
(lp639
g49
(g70
g51
NtRp640
(dp641
g54
(dp642
g74
g75
ssg63
g636
sg56
(lp643
S'cmd_args'
p644
asbag49
(g70
g51
NtRp645
(dp646
g54
(dp647
g81
g82
ssg63
g636
sg56
(lp648
S':'
asbag49
(g70
g51
NtRp649
(dp650
g54
(dp651
sg63
g636
sg56
(lp652
g49
(g50
g51
NtRp653
(dp654
g54
(dp655
g62
I4
ssg63
g649
sg56
(lp656
g49
(g58
g51
NtRp657
(dp658
g54
(dp659
g62
I3
ssg63
Nsg56
(lp660
sbasbasbasbag49
(g65
g51
NtRp661
(dp662
g54
(dp663
sg63
g588
sg56
(lp664
g49
(g70
g51
NtRp665
(dp666
g54
(dp667
g74
g75
ssg63
g661
sg56
(lp668
S'cmd_options'
p669
asbag49
(g70
g51
NtRp670
(dp671
g54
(dp672
g81
g82
ssg63
g661
sg56
(lp673
S':'
asbag49
(g70
g51
NtRp674
(dp675
g54
(dp676
sg63
g661
sg56
(lp677
g49
(g50
g51
NtRp678
(dp679
g54
(dp680
g62
I4
ssg63
g674
sg56
(lp681
S"<Values at 0x22190a8: {'verbose': False, 'ip': '127.0.0.1', 'shutdown_timeout': 5, 'taskbar': False, 'nocron': False, 'pid_filename': 'httpserver.pid', 'maxthreads': None, 'softcron': False, 'server_name': 'Udi-Milos-MacBook-Pro.local', 'bpython': False, 'nogui': False, 'port': 8000, 'extcron': False, 'debuglevel': 30, 'test': None, 'folder': '/Users/udimilo/Documents/web2py', 'config': '', 'import_models': False, 'winservice': '', 'shell': None, 'run': '', 'log_filename': 'httpserver.log', 'args': [''], 'socket_timeout': 5, 'ssl_ca_certificate': None, 'scheduler': None, 'profiler_filename': None, 'ssl_private_key': '', 'password': '<ask>', 'request_queue_size': 5, 'ssl_certificate': '', 'cronjob': False, 'numthreads': None, 'quiet': False, 'interfaces': None, 'minthreads': None, 'timeout': 10, 'plain': False, 'nobanner': False}>"
p682
asbasbasbag49
(g65
g51
NtRp683
(dp684
g54
(dp685
sg63
g588
sg56
(lp686
g49
(g70
g51
NtRp687
(dp688
g54
(dp689
g74
g75
ssg63
g683
sg56
(lp690
S'db_sessions'
p691
asbag49
(g70
g51
NtRp692
(dp693
g54
(dp694
g81
g82
ssg63
g683
sg56
(lp695
S':'
asbag49
(g70
g51
NtRp696
(dp697
g54
(dp698
sg63
g683
sg56
(lp699
g49
(g50
g51
NtRp700
(dp701
g54
(dp702
g62
I4
ssg63
g696
sg56
(lp703
S'set([])'
p704
asbasbasbag49
(g65
g51
NtRp705
(dp706
g54
(dp707
sg63
g588
sg56
(lp708
g49
(g70
g51
NtRp709
(dp710
g54
(dp711
g74
g75
ssg63
g705
sg56
(lp712
S'debugging'
p713
asbag49
(g70
g51
NtRp714
(dp715
g54
(dp716
g81
g82
ssg63
g705
sg56
(lp717
S':'
asbag49
(g70
g51
NtRp718
(dp719
g54
(dp720
sg63
g705
sg56
(lp721
g49
(g50
g51
NtRp722
(dp723
g54
(dp724
g62
I4
ssg63
g718
sg56
(lp725
g92
asbasbasbag49
(g65
g51
NtRp726
(dp727
g54
(dp728
sg63
g588
sg56
(lp729
g49
(g70
g51
NtRp730
(dp731
g54
(dp732
g74
g75
ssg63
g726
sg56
(lp733
S'gluon_parent'
p734
asbag49
(g70
g51
NtRp735
(dp736
g54
(dp737
g81
g82
ssg63
g726
sg56
(lp738
S':'
asbag49
(g70
g51
NtRp739
(dp740
g54
(dp741
sg63
g726
sg56
(lp742
g49
(g50
g51
NtRp743
(dp744
g54
(dp745
g62
I4
ssg63
g739
sg56
(lp746
S'/Users/udimilo/Documents/web2py'
p747
asbasbasbag49
(g65
g51
NtRp748
(dp749
g54
(dp750
sg63
g588
sg56
(lp751
g49
(g70
g51
NtRp752
(dp753
g54
(dp754
g74
g75
ssg63
g748
sg56
(lp755
S'http_accept'
p756
asbag49
(g70
g51
NtRp757
(dp758
g54
(dp759
g81
g82
ssg63
g748
sg56
(lp760
S':'
asbag49
(g70
g51
NtRp761
(dp762
g54
(dp763
sg63
g748
sg56
(lp764
g49
(g50
g51
NtRp765
(dp766
g54
(dp767
g62
I4
ssg63
g761
sg56
(lp768
S'text/html,application/xhtml+xml,application/xml;q=0.9,*/*;q=0.8'
p769
asbasbasbag49
(g65
g51
NtRp770
(dp771
g54
(dp772
sg63
g588
sg56
(lp773
g49
(g70
g51
NtRp774
(dp775
g54
(dp776
g74
g75
ssg63
g770
sg56
(lp777
S'http_accept_charset'
p778
asbag49
(g70
g51
NtRp779
(dp780
g54
(dp781
g81
g82
ssg63
g770
sg56
(lp782
S':'
asbag49
(g70
g51
NtRp783
(dp784
g54
(dp785
sg63
g770
sg56
(lp786
g49
(g50
g51
NtRp787
(dp788
g54
(dp789
g62
I4
ssg63
g783
sg56
(lp790
S'ISO-8859-1,utf-8;q=0.7,*;q=0.3'
p791
asbasbasbag49
(g65
g51
NtRp792
(dp793
g54
(dp794
sg63
g588
sg56
(lp795
g49
(g70
g51
NtRp796
(dp797
g54
(dp798
g74
g75
ssg63
g792
sg56
(lp799
S'http_accept_encoding'
p800
asbag49
(g70
g51
NtRp801
(dp802
g54
(dp803
g81
g82
ssg63
g792
sg56
(lp804
S':'
asbag49
(g70
g51
NtRp805
(dp806
g54
(dp807
sg63
g792
sg56
(lp808
g49
(g50
g51
NtRp809
(dp810
g54
(dp811
g62
I4
ssg63
g805
sg56
(lp812
S'gzip,deflate,sdch'
p813
asbasbasbag49
(g65
g51
NtRp814
(dp815
g54
(dp816
sg63
g588
sg56
(lp817
g49
(g70
g51
NtRp818
(dp819
g54
(dp820
g74
g75
ssg63
g814
sg56
(lp821
S'http_accept_language'
p822
asbag49
(g70
g51
NtRp823
(dp824
g54
(dp825
g81
g82
ssg63
g814
sg56
(lp826
S':'
asbag49
(g70
g51
NtRp827
(dp828
g54
(dp829
sg63
g814
sg56
(lp830
g49
(g50
g51
NtRp831
(dp832
g54
(dp833
g62
I4
ssg63
g827
sg56
(lp834
S'en-US,en;q=0.8'
p835
asbasbasbag49
(g65
g51
NtRp836
(dp837
g54
(dp838
sg63
g588
sg56
(lp839
g49
(g70
g51
NtRp840
(dp841
g54
(dp842
g74
g75
ssg63
g836
sg56
(lp843
S'http_cache_control'
p844
asbag49
(g70
g51
NtRp845
(dp846
g54
(dp847
g81
g82
ssg63
g836
sg56
(lp848
S':'
asbag49
(g70
g51
NtRp849
(dp850
g54
(dp851
sg63
g836
sg56
(lp852
g49
(g50
g51
NtRp853
(dp854
g54
(dp855
g62
I4
ssg63
g849
sg56
(lp856
S'max-age=0'
p857
asbasbasbag49
(g65
g51
NtRp858
(dp859
g54
(dp860
sg63
g588
sg56
(lp861
g49
(g70
g51
NtRp862
(dp863
g54
(dp864
g74
g75
ssg63
g858
sg56
(lp865
S'http_connection'
p866
asbag49
(g70
g51
NtRp867
(dp868
g54
(dp869
g81
g82
ssg63
g858
sg56
(lp870
S':'
asbag49
(g70
g51
NtRp871
(dp872
g54
(dp873
sg63
g858
sg56
(lp874
g49
(g50
g51
NtRp875
(dp876
g54
(dp877
g62
I4
ssg63
g871
sg56
(lp878
S'keep-alive'
p879
asbasbasbag49
(g65
g51
NtRp880
(dp881
g54
(dp882
sg63
g588
sg56
(lp883
g49
(g70
g51
NtRp884
(dp885
g54
(dp886
g74
g75
ssg63
g880
sg56
(lp887
S'http_cookie'
p888
asbag49
(g70
g51
NtRp889
(dp890
g54
(dp891
g81
g82
ssg63
g880
sg56
(lp892
S':'
asbag49
(g70
g51
NtRp893
(dp894
g54
(dp895
sg63
g880
sg56
(lp896
g49
(g50
g51
NtRp897
(dp898
g54
(dp899
g62
I4
ssg63
g893
sg56
(lp900
S'session_id_udi0312=127.0.0.1-e7b8fe79-df18-4b4a-b89b-b9b565c0d55e; session_id_admin=127.0.0.1-6a2a4c2b-3862-44a7-a1d2-f6704837771d'
p901
asbasbasbag49
(g65
g51
NtRp902
(dp903
g54
(dp904
sg63
g588
sg56
(lp905
g49
(g70
g51
NtRp906
(dp907
g54
(dp908
g74
g75
ssg63
g902
sg56
(lp909
S'http_host'
p910
asbag49
(g70
g51
NtRp911
(dp912
g54
(dp913
g81
g82
ssg63
g902
sg56
(lp914
S':'
asbag49
(g70
g51
NtRp915
(dp916
g54
(dp917
sg63
g902
sg56
(lp918
g49
(g50
g51
NtRp919
(dp920
g54
(dp921
g62
I4
ssg63
g915
sg56
(lp922
S'127.0.0.1:8000'
p923
asbasbasbag49
(g65
g51
NtRp924
(dp925
g54
(dp926
sg63
g588
sg56
(lp927
g49
(g70
g51
NtRp928
(dp929
g54
(dp930
g74
g75
ssg63
g924
sg56
(lp931
S'http_user_agent'
p932
asbag49
(g70
g51
NtRp933
(dp934
g54
(dp935
g81
g82
ssg63
g924
sg56
(lp936
S':'
asbag49
(g70
g51
NtRp937
(dp938
g54
(dp939
sg63
g924
sg56
(lp940
g49
(g50
g51
NtRp941
(dp942
g54
(dp943
g62
I4
ssg63
g937
sg56
(lp944
S'Mozilla/5.0 (Macintosh; Intel Mac OS X 10_7_3) AppleWebKit/535.11 (KHTML, like Gecko) Chrome/17.0.963.79 Safari/535.11'
p945
asbasbasbag49
(g65
g51
NtRp946
(dp947
g54
(dp948
sg63
g588
sg56
(lp949
g49
(g70
g51
NtRp950
(dp951
g54
(dp952
g74
g75
ssg63
g946
sg56
(lp953
S'is_jython'
p954
asbag49
(g70
g51
NtRp955
(dp956
g54
(dp957
g81
g82
ssg63
g946
sg56
(lp958
S':'
asbag49
(g70
g51
NtRp959
(dp960
g54
(dp961
sg63
g946
sg56
(lp962
g49
(g50
g51
NtRp963
(dp964
g54
(dp965
g62
I4
ssg63
g959
sg56
(lp966
g92
asbasbasbag49
(g65
g51
NtRp967
(dp968
g54
(dp969
sg63
g588
sg56
(lp970
g49
(g70
g51
NtRp971
(dp972
g54
(dp973
g74
g75
ssg63
g967
sg56
(lp974
S'is_pypy'
p975
asbag49
(g70
g51
NtRp976
(dp977
g54
(dp978
g81
g82
ssg63
g967
sg56
(lp979
S':'
asbag49
(g70
g51
NtRp980
(dp981
g54
(dp982
sg63
g967
sg56
(lp983
g49
(g50
g51
NtRp984
(dp985
g54
(dp986
g62
I4
ssg63
g980
sg56
(lp987
g92
asbasbasbag49
(g65
g51
NtRp988
(dp989
g54
(dp990
sg63
g588
sg56
(lp991
g49
(g70
g51
NtRp992
(dp993
g54
(dp994
g74
g75
ssg63
g988
sg56
(lp995
S'path_info'
p996
asbag49
(g70
g51
NtRp997
(dp998
g54
(dp999
g81
g82
ssg63
g988
sg56
(lp1000
S':'
asbag49
(g70
g51
NtRp1001
(dp1002
g54
(dp1003
sg63
g988
sg56
(lp1004
g49
(g50
g51
NtRp1005
(dp1006
g54
(dp1007
g62
I4
ssg63
g1001
sg56
(lp1008
S'/api/test'
p1009
asbasbasbag49
(g65
g51
NtRp1010
(dp1011
g54
(dp1012
sg63
g588
sg56
(lp1013
g49
(g70
g51
NtRp1014
(dp1015
g54
(dp1016
g74
g75
ssg63
g1010
sg56
(lp1017
S'query_string'
p1018
asbag49
(g70
g51
NtRp1019
(dp1020
g54
(dp1021
g81
g82
ssg63
g1010
sg56
(lp1022
S':'
asbag49
(g70
g51
NtRp1023
(dp1024
g54
(dp1025
sg63
g1010
sg56
(lp1026
g49
(g50
g51
NtRp1027
(dp1028
g54
(dp1029
g62
I4
ssg63
g1023
sg56
(lp1030
S''
asbasbasbag49
(g65
g51
NtRp1031
(dp1032
g54
(dp1033
sg63
g588
sg56
(lp1034
g49
(g70
g51
NtRp1035
(dp1036
g54
(dp1037
g74
g75
ssg63
g1031
sg56
(lp1038
S'remote_addr'
p1039
asbag49
(g70
g51
NtRp1040
(dp1041
g54
(dp1042
g81
g82
ssg63
g1031
sg56
(lp1043
S':'
asbag49
(g70
g51
NtRp1044
(dp1045
g54
(dp1046
sg63
g1031
sg56
(lp1047
g49
(g50
g51
NtRp1048
(dp1049
g54
(dp1050
g62
I4
ssg63
g1044
sg56
(lp1051
g182
asbasbasbag49
(g65
g51
NtRp1052
(dp1053
g54
(dp1054
sg63
g588
sg56
(lp1055
g49
(g70
g51
NtRp1056
(dp1057
g54
(dp1058
g74
g75
ssg63
g1052
sg56
(lp1059
S'remote_port'
p1060
asbag49
(g70
g51
NtRp1061
(dp1062
g54
(dp1063
g81
g82
ssg63
g1052
sg56
(lp1064
S':'
asbag49
(g70
g51
NtRp1065
(dp1066
g54
(dp1067
sg63
g1052
sg56
(lp1068
g49
(g50
g51
NtRp1069
(dp1070
g54
(dp1071
g62
I4
ssg63
g1065
sg56
(lp1072
S'63937'
p1073
asbasbasbag49
(g65
g51
NtRp1074
(dp1075
g54
(dp1076
sg63
g588
sg56
(lp1077
g49
(g70
g51
NtRp1078
(dp1079
g54
(dp1080
g74
g75
ssg63
g1074
sg56
(lp1081
S'request_method'
p1082
asbag49
(g70
g51
NtRp1083
(dp1084
g54
(dp1085
g81
g82
ssg63
g1074
sg56
(lp1086
S':'
asbag49
(g70
g51
NtRp1087
(dp1088
g54
(dp1089
sg63
g1074
sg56
(lp1090
g49
(g50
g51
NtRp1091
(dp1092
g54
(dp1093
g62
I4
ssg63
g1087
sg56
(lp1094
S'GET'
p1095
asbasbasbag49
(g65
g51
NtRp1096
(dp1097
g54
(dp1098
sg63
g588
sg56
(lp1099
g49
(g70
g51
NtRp1100
(dp1101
g54
(dp1102
g74
g75
ssg63
g1096
sg56
(lp1103
S'request_uri'
p1104
asbag49
(g70
g51
NtRp1105
(dp1106
g54
(dp1107
g81
g82
ssg63
g1096
sg56
(lp1108
S':'
asbag49
(g70
g51
NtRp1109
(dp1110
g54
(dp1111
sg63
g1096
sg56
(lp1112
g49
(g50
g51
NtRp1113
(dp1114
g54
(dp1115
g62
I4
ssg63
g1109
sg56
(lp1116
S'/udi0312/api/test'
p1117
asbasbasbag49
(g65
g51
NtRp1118
(dp1119
g54
(dp1120
sg63
g588
sg56
(lp1121
g49
(g70
g51
NtRp1122
(dp1123
g54
(dp1124
g74
g75
ssg63
g1118
sg56
(lp1125
S'script_name'
p1126
asbag49
(g70
g51
NtRp1127
(dp1128
g54
(dp1129
g81
g82
ssg63
g1118
sg56
(lp1130
S':'
asbag49
(g70
g51
NtRp1131
(dp1132
g54
(dp1133
sg63
g1118
sg56
(lp1134
g49
(g50
g51
NtRp1135
(dp1136
g54
(dp1137
g62
I4
ssg63
g1131
sg56
(lp1138
S''
asbasbasbag49
(g65
g51
NtRp1139
(dp1140
g54
(dp1141
sg63
g588
sg56
(lp1142
g49
(g70
g51
NtRp1143
(dp1144
g54
(dp1145
g74
g75
ssg63
g1139
sg56
(lp1146
S'server_name'
p1147
asbag49
(g70
g51
NtRp1148
(dp1149
g54
(dp1150
g81
g82
ssg63
g1139
sg56
(lp1151
S':'
asbag49
(g70
g51
NtRp1152
(dp1153
g54
(dp1154
sg63
g1139
sg56
(lp1155
g49
(g50
g51
NtRp1156
(dp1157
g54
(dp1158
g62
I4
ssg63
g1152
sg56
(lp1159
S'Udi-Milos-MacBook-Pro.local'
p1160
asbasbasbag49
(g65
g51
NtRp1161
(dp1162
g54
(dp1163
sg63
g588
sg56
(lp1164
g49
(g70
g51
NtRp1165
(dp1166
g54
(dp1167
g74
g75
ssg63
g1161
sg56
(lp1168
S'server_port'
p1169
asbag49
(g70
g51
NtRp1170
(dp1171
g54
(dp1172
g81
g82
ssg63
g1161
sg56
(lp1173
S':'
asbag49
(g70
g51
NtRp1174
(dp1175
g54
(dp1176
sg63
g1161
sg56
(lp1177
g49
(g50
g51
NtRp1178
(dp1179
g54
(dp1180
g62
I4
ssg63
g1174
sg56
(lp1181
S'8000'
p1182
asbasbasbag49
(g65
g51
NtRp1183
(dp1184
g54
(dp1185
sg63
g588
sg56
(lp1186
g49
(g70
g51
NtRp1187
(dp1188
g54
(dp1189
g74
g75
ssg63
g1183
sg56
(lp1190
S'server_protocol'
p1191
asbag49
(g70
g51
NtRp1192
(dp1193
g54
(dp1194
g81
g82
ssg63
g1183
sg56
(lp1195
S':'
asbag49
(g70
g51
NtRp1196
(dp1197
g54
(dp1198
sg63
g1183
sg56
(lp1199
g49
(g50
g51
NtRp1200
(dp1201
g54
(dp1202
g62
I4
ssg63
g1196
sg56
(lp1203
S'HTTP/1.1'
p1204
asbasbasbag49
(g65
g51
NtRp1205
(dp1206
g54
(dp1207
sg63
g588
sg56
(lp1208
g49
(g70
g51
NtRp1209
(dp1210
g54
(dp1211
g74
g75
ssg63
g1205
sg56
(lp1212
S'server_software'
p1213
asbag49
(g70
g51
NtRp1214
(dp1215
g54
(dp1216
g81
g82
ssg63
g1205
sg56
(lp1217
S':'
asbag49
(g70
g51
NtRp1218
(dp1219
g54
(dp1220
sg63
g1205
sg56
(lp1221
g49
(g50
g51
NtRp1222
(dp1223
g54
(dp1224
g62
I4
ssg63
g1218
sg56
(lp1225
S'Rocket 1.2.4'
p1226
asbasbasbag49
(g65
g51
NtRp1227
(dp1228
g54
(dp1229
sg63
g588
sg56
(lp1230
g49
(g70
g51
NtRp1231
(dp1232
g54
(dp1233
g74
g75
ssg63
g1227
sg56
(lp1234
S'web2py_crontype'
p1235
asbag49
(g70
g51
NtRp1236
(dp1237
g54
(dp1238
g81
g82
ssg63
g1227
sg56
(lp1239
S':'
asbag49
(g70
g51
NtRp1240
(dp1241
g54
(dp1242
sg63
g1227
sg56
(lp1243
g49
(g50
g51
NtRp1244
(dp1245
g54
(dp1246
g62
I4
ssg63
g1240
sg56
(lp1247
S'hard'
p1248
asbasbasbag49
(g65
g51
NtRp1249
(dp1250
g54
(dp1251
sg63
g588
sg56
(lp1252
g49
(g70
g51
NtRp1253
(dp1254
g54
(dp1255
g74
g75
ssg63
g1249
sg56
(lp1256
S'web2py_original_uri'
p1257
asbag49
(g70
g51
NtRp1258
(dp1259
g54
(dp1260
g81
g82
ssg63
g1249
sg56
(lp1261
S':'
asbag49
(g70
g51
NtRp1262
(dp1263
g54
(dp1264
sg63
g1249
sg56
(lp1265
g49
(g50
g51
NtRp1266
(dp1267
g54
(dp1268
g62
I4
ssg63
g1262
sg56
(lp1269
g1009
asbasbasbag49
(g65
g51
NtRp1270
(dp1271
g54
(dp1272
sg63
g588
sg56
(lp1273
g49
(g70
g51
NtRp1274
(dp1275
g54
(dp1276
g74
g75
ssg63
g1270
sg56
(lp1277
S'web2py_path'
p1278
asbag49
(g70
g51
NtRp1279
(dp1280
g54
(dp1281
g81
g82
ssg63
g1270
sg56
(lp1282
S':'
asbag49
(g70
g51
NtRp1283
(dp1284
g54
(dp1285
sg63
g1270
sg56
(lp1286
g49
(g50
g51
NtRp1287
(dp1288
g54
(dp1289
g62
I4
ssg63
g1283
sg56
(lp1290
g635
asbasbasbag49
(g65
g51
NtRp1291
(dp1292
g54
(dp1293
sg63
g588
sg56
(lp1294
g49
(g70
g51
NtRp1295
(dp1296
g54
(dp1297
g74
g75
ssg63
g1291
sg56
(lp1298
S'web2py_version'
p1299
asbag49
(g70
g51
NtRp1300
(dp1301
g54
(dp1302
g81
g82
ssg63
g1291
sg56
(lp1303
S':'
asbag49
(g70
g51
NtRp1304
(dp1305
g54
(dp1306
sg63
g1291
sg56
(lp1307
g49
(g50
g51
NtRp1308
(dp1309
g54
(dp1310
g62
I4
ssg63
g1304
sg56
(lp1311
g49
(g58
g51
NtRp1312
(dp1313
g54
(dp1314
g62
I3
ssg63
Nsg56
(lp1315
g49
(g65
g51
NtRp1316
(dp1317
g54
(dp1318
sg63
g1312
sg56
(lp1319
g49
(g70
g51
NtRp1320
(dp1321
g54
(dp1322
sg63
g1316
sg56
(lp1323
g49
(g50
g51
NtRp1324
(dp1325
g54
(dp1326
g62
I3
ssg63
g1320
sg56
(lp1327
S'1'
asbasbasbag49
(g65
g51
NtRp1328
(dp1329
g54
(dp1330
sg63
g1312
sg56
(lp1331
g49
(g70
g51
NtRp1332
(dp1333
g54
(dp1334
sg63
g1328
sg56
(lp1335
g49
(g50
g51
NtRp1336
(dp1337
g54
(dp1338
g62
I3
ssg63
g1332
sg56
(lp1339
S'99'
p1340
asbasbasbag49
(g65
g51
NtRp1341
(dp1342
g54
(dp1343
sg63
g1312
sg56
(lp1344
g49
(g70
g51
NtRp1345
(dp1346
g54
(dp1347
sg63
g1341
sg56
(lp1348
g49
(g50
g51
NtRp1349
(dp1350
g54
(dp1351
g62
I3
ssg63
g1345
sg56
(lp1352
S'7'
asbasbasbag49
(g65
g51
NtRp1353
(dp1354
g54
(dp1355
sg63
g1312
sg56
(lp1356
g49
(g70
g51
NtRp1357
(dp1358
g54
(dp1359
sg63
g1353
sg56
(lp1360
g49
(g50
g51
NtRp1361
(dp1362
g54
(dp1363
g62
I3
ssg63
g1357
sg56
(lp1364
S'datetime.datetime(2012, 3, 4, 22, 12, 8)'
p1365
asbasbasbag49
(g65
g51
NtRp1366
(dp1367
g54
(dp1368
sg63
g1312
sg56
(lp1369
g49
(g70
g51
NtRp1370
(dp1371
g54
(dp1372
sg63
g1366
sg56
(lp1373
g49
(g50
g51
NtRp1374
(dp1375
g54
(dp1376
g62
I3
ssg63
g1370
sg56
(lp1377
S'stable'
p1378
asbasbasbasbasbasbasbag49
(g65
g51
NtRp1379
(dp1380
g54
(dp1381
sg63
g588
sg56
(lp1382
g49
(g70
g51
NtRp1383
(dp1384
g54
(dp1385
g74
g75
ssg63
g1379
sg56
(lp1386
S'wsgi_errors'
p1387
asbag49
(g70
g51
NtRp1388
(dp1389
g54
(dp1390
g81
g82
ssg63
g1379
sg56
(lp1391
S':'
asbag49
(g70
g51
NtRp1392
(dp1393
g54
(dp1394
sg63
g1379
sg56
(lp1395
g49
(g50
g51
NtRp1396
(dp1397
g54
(dp1398
g62
I4
ssg63
g1392
sg56
(lp1399
S"<open file '<stderr>', mode 'w' at 0x4220b0>"
p1400
asbasbasbag49
(g65
g51
NtRp1401
(dp1402
g54
(dp1403
sg63
g588
sg56
(lp1404
g49
(g70
g51
NtRp1405
(dp1406
g54
(dp1407
g74
g75
ssg63
g1401
sg56
(lp1408
S'wsgi_file_wrapper'
p1409
asbag49
(g70
g51
NtRp1410
(dp1411
g54
(dp1412
g81
g82
ssg63
g1401
sg56
(lp1413
S':'
asbag49
(g70
g51
NtRp1414
(dp1415
g54
(dp1416
sg63
g1401
sg56
(lp1417
g49
(g50
g51
NtRp1418
(dp1419
g54
(dp1420
g62
I4
ssg63
g1414
sg56
(lp1421
S'<class wsgiref.util.FileWrapper at 0x215e6c0>'
p1422
asbasbasbag49
(g65
g51
NtRp1423
(dp1424
g54
(dp1425
sg63
g588
sg56
(lp1426
g49
(g70
g51
NtRp1427
(dp1428
g54
(dp1429
g74
g75
ssg63
g1423
sg56
(lp1430
S'wsgi_input'
p1431
asbag49
(g70
g51
NtRp1432
(dp1433
g54
(dp1434
g81
g82
ssg63
g1423
sg56
(lp1435
S':'
asbag49
(g70
g51
NtRp1436
(dp1437
g54
(dp1438
sg63
g1423
sg56
(lp1439
g49
(g50
g51
NtRp1440
(dp1441
g54
(dp1442
g62
I4
ssg63
g1436
sg56
(lp1443
S'<socket._fileobject object at 0x9fd9a30>'
p1444
asbasbasbag49
(g65
g51
NtRp1445
(dp1446
g54
(dp1447
sg63
g588
sg56
(lp1448
g49
(g70
g51
NtRp1449
(dp1450
g54
(dp1451
g74
g75
ssg63
g1445
sg56
(lp1452
S'wsgi_multiprocess'
p1453
asbag49
(g70
g51
NtRp1454
(dp1455
g54
(dp1456
g81
g82
ssg63
g1445
sg56
(lp1457
S':'
asbag49
(g70
g51
NtRp1458
(dp1459
g54
(dp1460
sg63
g1445
sg56
(lp1461
g49
(g50
g51
NtRp1462
(dp1463
g54
(dp1464
g62
I4
ssg63
g1458
sg56
(lp1465
g92
asbasbasbag49
(g65
g51
NtRp1466
(dp1467
g54
(dp1468
sg63
g588
sg56
(lp1469
g49
(g70
g51
NtRp1470
(dp1471
g54
(dp1472
g74
g75
ssg63
g1466
sg56
(lp1473
S'wsgi_multithread'
p1474
asbag49
(g70
g51
NtRp1475
(dp1476
g54
(dp1477
g81
g82
ssg63
g1466
sg56
(lp1478
S':'
asbag49
(g70
g51
NtRp1479
(dp1480
g54
(dp1481
sg63
g1466
sg56
(lp1482
g49
(g50
g51
NtRp1483
(dp1484
g54
(dp1485
g62
I4
ssg63
g1479
sg56
(lp1486
S'True'
p1487
asbasbasbag49
(g65
g51
NtRp1488
(dp1489
g54
(dp1490
sg63
g588
sg56
(lp1491
g49
(g70
g51
NtRp1492
(dp1493
g54
(dp1494
g74
g75
ssg63
g1488
sg56
(lp1495
S'wsgi_run_once'
p1496
asbag49
(g70
g51
NtRp1497
(dp1498
g54
(dp1499
g81
g82
ssg63
g1488
sg56
(lp1500
S':'
asbag49
(g70
g51
NtRp1501
(dp1502
g54
(dp1503
sg63
g1488
sg56
(lp1504
g49
(g50
g51
NtRp1505
(dp1506
g54
(dp1507
g62
I4
ssg63
g1501
sg56
(lp1508
g92
asbasbasbag49
(g65
g51
NtRp1509
(dp1510
g54
(dp1511
sg63
g588
sg56
(lp1512
g49
(g70
g51
NtRp1513
(dp1514
g54
(dp1515
g74
g75
ssg63
g1509
sg56
(lp1516
S'wsgi_url_scheme'
p1517
asbag49
(g70
g51
NtRp1518
(dp1519
g54
(dp1520
g81
g82
ssg63
g1509
sg56
(lp1521
S':'
asbag49
(g70
g51
NtRp1522
(dp1523
g54
(dp1524
sg63
g1509
sg56
(lp1525
g49
(g50
g51
NtRp1526
(dp1527
g54
(dp1528
g62
I4
ssg63
g1522
sg56
(lp1529
S'http'
p1530
asbasbasbag49
(g65
g51
NtRp1531
(dp1532
g54
(dp1533
sg63
g588
sg56
(lp1534
g49
(g70
g51
NtRp1535
(dp1536
g54
(dp1537
g74
g75
ssg63
g1531
sg56
(lp1538
S'wsgi_version'
p1539
asbag49
(g70
g51
NtRp1540
(dp1541
g54
(dp1542
g81
g82
ssg63
g1531
sg56
(lp1543
S':'
asbag49
(g70
g51
NtRp1544
(dp1545
g54
(dp1546
sg63
g1531
sg56
(lp1547
g49
(g50
g51
NtRp1548
(dp1549
g54
(dp1550
g62
I4
ssg63
g1544
sg56
(lp1551
g49
(g58
g51
NtRp1552
(dp1553
g54
(dp1554
g62
I3
ssg63
Nsg56
(lp1555
g49
(g65
g51
NtRp1556
(dp1557
g54
(dp1558
sg63
g1552
sg56
(lp1559
g49
(g70
g51
NtRp1560
(dp1561
g54
(dp1562
sg63
g1556
sg56
(lp1563
g49
(g50
g51
NtRp1564
(dp1565
g54
(dp1566
g62
I3
ssg63
g1560
sg56
(lp1567
S'1'
asbasbasbag49
(g65
g51
NtRp1568
(dp1569
g54
(dp1570
sg63
g1552
sg56
(lp1571
g49
(g70
g51
NtRp1572
(dp1573
g54
(dp1574
sg63
g1568
sg56
(lp1575
g49
(g50
g51
NtRp1576
(dp1577
g54
(dp1578
g62
I3
ssg63
g1572
sg56
(lp1579
S'0'
asbasbasbasbasbasbasbasbasbasbasbag49
(g65
g51
NtRp1580
(dp1581
g54
(dp1582
sg63
g59
sg56
(lp1583
g49
(g70
g51
NtRp1584
(dp1585
g54
(dp1586
g74
g75
ssg63
g1580
sg56
(lp1587
S'extension'
p1588
asbag49
(g70
g51
NtRp1589
(dp1590
g54
(dp1591
g81
g82
ssg63
g1580
sg56
(lp1592
S':'
asbag49
(g70
g51
NtRp1593
(dp1594
g54
(dp1595
sg63
g1580
sg56
(lp1596
g49
(g50
g51
NtRp1597
(dp1598
g54
(dp1599
g62
I5
ssg63
g1593
sg56
(lp1600
S'html'
p1601
asbasbasbag49
(g65
g51
NtRp1602
(dp1603
g54
(dp1604
sg63
g59
sg56
(lp1605
g49
(g70
g51
NtRp1606
(dp1607
g54
(dp1608
g74
g75
ssg63
g1602
sg56
(lp1609
S'folder'
p1610
asbag49
(g70
g51
NtRp1611
(dp1612
g54
(dp1613
g81
g82
ssg63
g1602
sg56
(lp1614
S':'
asbag49
(g70
g51
NtRp1615
(dp1616
g54
(dp1617
sg63
g1602
sg56
(lp1618
g49
(g50
g51
NtRp1619
(dp1620
g54
(dp1621
g62
I5
ssg63
g1615
sg56
(lp1622
S'/Users/udimilo/Documents/web2py/applications/udi0312/'
p1623
asbasbasbag49
(g65
g51
NtRp1624
(dp1625
g54
(dp1626
sg63
g59
sg56
(lp1627
g49
(g70
g51
NtRp1628
(dp1629
g54
(dp1630
g74
g75
ssg63
g1624
sg56
(lp1631
S'function'
p1632
asbag49
(g70
g51
NtRp1633
(dp1634
g54
(dp1635
g81
g82
ssg63
g1624
sg56
(lp1636
S':'
asbag49
(g70
g51
NtRp1637
(dp1638
g54
(dp1639
sg63
g1624
sg56
(lp1640
g49
(g50
g51
NtRp1641
(dp1642
g54
(dp1643
g62
I5
ssg63
g1637
sg56
(lp1644
S'test'
p1645
asbasbasbag49
(g65
g51
NtRp1646
(dp1647
g54
(dp1648
sg63
g59
sg56
(lp1649
g49
(g70
g51
NtRp1650
(dp1651
g54
(dp1652
g74
g75
ssg63
g1646
sg56
(lp1653
S'get_vars'
p1654
asbag49
(g70
g51
NtRp1655
(dp1656
g54
(dp1657
g81
g82
ssg63
g1646
sg56
(lp1658
S':'
asbag49
(g70
g51
NtRp1659
(dp1660
g54
(dp1661
sg63
g1646
sg56
(lp1662
g49
(g50
g51
NtRp1663
(dp1664
g54
(dp1665
g62
I5
ssg63
g1659
sg56
(lp1666
g49
(g58
g51
NtRp1667
(dp1668
g54
(dp1669
g62
I4
ssg63
Nsg56
(lp1670
sbasbasbasbag49
(g65
g51
NtRp1671
(dp1672
g54
(dp1673
sg63
g59
sg56
(lp1674
g49
(g70
g51
NtRp1675
(dp1676
g54
(dp1677
g74
g75
ssg63
g1671
sg56
(lp1678
S'global_settings'
p1679
asbag49
(g70
g51
NtRp1680
(dp1681
g54
(dp1682
g81
g82
ssg63
g1671
sg56
(lp1683
S':'
asbag49
(g70
g51
NtRp1684
(dp1685
g54
(dp1686
sg63
g1671
sg56
(lp1687
g49
(g50
g51
NtRp1688
(dp1689
g54
(dp1690
g62
I5
ssg63
g1684
sg56
(lp1691
g49
(g58
g51
NtRp1692
(dp1693
g54
(dp1694
g62
I4
ssg63
Nsg56
(lp1695
g49
(g65
g51
NtRp1696
(dp1697
g54
(dp1698
sg63
g1692
sg56
(lp1699
g49
(g70
g51
NtRp1700
(dp1701
g54
(dp1702
g74
g75
ssg63
g1696
sg56
(lp1703
g600
asbag49
(g70
g51
NtRp1704
(dp1705
g54
(dp1706
g81
g82
ssg63
g1696
sg56
(lp1707
S':'
asbag49
(g70
g51
NtRp1708
(dp1709
g54
(dp1710
sg63
g1696
sg56
(lp1711
g49
(g50
g51
NtRp1712
(dp1713
g54
(dp1714
g62
I4
ssg63
g1708
sg56
(lp1715
S"set(['/Users/udimilo/Documents/web2py/applications/udi0312/', '/Users/udimilo/Documents/web2py/applications/admin/'])"
p1716
asbasbasbag49
(g65
g51
NtRp1717
(dp1718
g54
(dp1719
sg63
g1692
sg56
(lp1720
g49
(g70
g51
NtRp1721
(dp1722
g54
(dp1723
g74
g75
ssg63
g1717
sg56
(lp1724
g622
asbag49
(g70
g51
NtRp1725
(dp1726
g54
(dp1727
g81
g82
ssg63
g1717
sg56
(lp1728
S':'
asbag49
(g70
g51
NtRp1729
(dp1730
g54
(dp1731
sg63
g1717
sg56
(lp1732
g49
(g50
g51
NtRp1733
(dp1734
g54
(dp1735
g62
I4
ssg63
g1729
sg56
(lp1736
g635
asbasbasbag49
(g65
g51
NtRp1737
(dp1738
g54
(dp1739
sg63
g1692
sg56
(lp1740
g49
(g70
g51
NtRp1741
(dp1742
g54
(dp1743
g74
g75
ssg63
g1737
sg56
(lp1744
g644
asbag49
(g70
g51
NtRp1745
(dp1746
g54
(dp1747
g81
g82
ssg63
g1737
sg56
(lp1748
S':'
asbag49
(g70
g51
NtRp1749
(dp1750
g54
(dp1751
sg63
g1737
sg56
(lp1752
g49
(g50
g51
NtRp1753
(dp1754
g54
(dp1755
g62
I4
ssg63
g1749
sg56
(lp1756
g49
(g58
g51
NtRp1757
(dp1758
g54
(dp1759
g62
I3
ssg63
Nsg56
(lp1760
sbasbasbasbag49
(g65
g51
NtRp1761
(dp1762
g54
(dp1763
sg63
g1692
sg56
(lp1764
g49
(g70
g51
NtRp1765
(dp1766
g54
(dp1767
g74
g75
ssg63
g1761
sg56
(lp1768
g669
asbag49
(g70
g51
NtRp1769
(dp1770
g54
(dp1771
g81
g82
ssg63
g1761
sg56
(lp1772
S':'
asbag49
(g70
g51
NtRp1773
(dp1774
g54
(dp1775
sg63
g1761
sg56
(lp1776
g49
(g50
g51
NtRp1777
(dp1778
g54
(dp1779
g62
I4
ssg63
g1773
sg56
(lp1780
S"<Values at 0x22190a8: {'verbose': False, 'ip': '127.0.0.1', 'shutdown_timeout': 5, 'taskbar': False, 'nocron': False, 'pid_filename': 'httpserver.pid', 'maxthreads': None, 'softcron': False, 'server_name': 'Udi-Milos-MacBook-Pro.local', 'bpython': False, 'nogui': False, 'port': 8000, 'extcron': False, 'debuglevel': 30, 'test': None, 'folder': '/Users/udimilo/Documents/web2py', 'config': '', 'import_models': False, 'winservice': '', 'shell': None, 'run': '', 'log_filename': 'httpserver.log', 'args': [''], 'socket_timeout': 5, 'ssl_ca_certificate': None, 'scheduler': None, 'profiler_filename': None, 'ssl_private_key': '', 'password': '<ask>', 'request_queue_size': 5, 'ssl_certificate': '', 'cronjob': False, 'numthreads': None, 'quiet': False, 'interfaces': None, 'minthreads': None, 'timeout': 10, 'plain': False, 'nobanner': False}>"
p1781
asbasbasbag49
(g65
g51
NtRp1782
(dp1783
g54
(dp1784
sg63
g1692
sg56
(lp1785
g49
(g70
g51
NtRp1786
(dp1787
g54
(dp1788
g74
g75
ssg63
g1782
sg56
(lp1789
g691
asbag49
(g70
g51
NtRp1790
(dp1791
g54
(dp1792
g81
g82
ssg63
g1782
sg56
(lp1793
S':'
asbag49
(g70
g51
NtRp1794
(dp1795
g54
(dp1796
sg63
g1782
sg56
(lp1797
g49
(g50
g51
NtRp1798
(dp1799
g54
(dp1800
g62
I4
ssg63
g1794
sg56
(lp1801
S'set([])'
p1802
asbasbasbag49
(g65
g51
NtRp1803
(dp1804
g54
(dp1805
sg63
g1692
sg56
(lp1806
g49
(g70
g51
NtRp1807
(dp1808
g54
(dp1809
g74
g75
ssg63
g1803
sg56
(lp1810
g713
asbag49
(g70
g51
NtRp1811
(dp1812
g54
(dp1813
g81
g82
ssg63
g1803
sg56
(lp1814
S':'
asbag49
(g70
g51
NtRp1815
(dp1816
g54
(dp1817
sg63
g1803
sg56
(lp1818
g49
(g50
g51
NtRp1819
(dp1820
g54
(dp1821
g62
I4
ssg63
g1815
sg56
(lp1822
g92
asbasbasbag49
(g65
g51
NtRp1823
(dp1824
g54
(dp1825
sg63
g1692
sg56
(lp1826
g49
(g70
g51
NtRp1827
(dp1828
g54
(dp1829
g74
g75
ssg63
g1823
sg56
(lp1830
g734
asbag49
(g70
g51
NtRp1831
(dp1832
g54
(dp1833
g81
g82
ssg63
g1823
sg56
(lp1834
S':'
asbag49
(g70
g51
NtRp1835
(dp1836
g54
(dp1837
sg63
g1823
sg56
(lp1838
g49
(g50
g51
NtRp1839
(dp1840
g54
(dp1841
g62
I4
ssg63
g1835
sg56
(lp1842
g747
asbasbasbag49
(g65
g51
NtRp1843
(dp1844
g54
(dp1845
sg63
g1692
sg56
(lp1846
g49
(g70
g51
NtRp1847
(dp1848
g54
(dp1849
g74
g75
ssg63
g1843
sg56
(lp1850
g954
asbag49
(g70
g51
NtRp1851
(dp1852
g54
(dp1853
g81
g82
ssg63
g1843
sg56
(lp1854
S':'
asbag49
(g70
g51
NtRp1855
(dp1856
g54
(dp1857
sg63
g1843
sg56
(lp1858
g49
(g50
g51
NtRp1859
(dp1860
g54
(dp1861
g62
I4
ssg63
g1855
sg56
(lp1862
g92
asbasbasbag49
(g65
g51
NtRp1863
(dp1864
g54
(dp1865
sg63
g1692
sg56
(lp1866
g49
(g70
g51
NtRp1867
(dp1868
g54
(dp1869
g74
g75
ssg63
g1863
sg56
(lp1870
g975
asbag49
(g70
g51
NtRp1871
(dp1872
g54
(dp1873
g81
g82
ssg63
g1863
sg56
(lp1874
S':'
asbag49
(g70
g51
NtRp1875
(dp1876
g54
(dp1877
sg63
g1863
sg56
(lp1878
g49
(g50
g51
NtRp1879
(dp1880
g54
(dp1881
g62
I4
ssg63
g1875
sg56
(lp1882
g92
asbasbasbag49
(g65
g51
NtRp1883
(dp1884
g54
(dp1885
sg63
g1692
sg56
(lp1886
g49
(g70
g51
NtRp1887
(dp1888
g54
(dp1889
g74
g75
ssg63
g1883
sg56
(lp1890
g1235
asbag49
(g70
g51
NtRp1891
(dp1892
g54
(dp1893
g81
g82
ssg63
g1883
sg56
(lp1894
S':'
asbag49
(g70
g51
NtRp1895
(dp1896
g54
(dp1897
sg63
g1883
sg56
(lp1898
g49
(g50
g51
NtRp1899
(dp1900
g54
(dp1901
g62
I4
ssg63
g1895
sg56
(lp1902
g1248
asbasbasbag49
(g65
g51
NtRp1903
(dp1904
g54
(dp1905
sg63
g1692
sg56
(lp1906
g49
(g70
g51
NtRp1907
(dp1908
g54
(dp1909
g74
g75
ssg63
g1903
sg56
(lp1910
g1299
asbag49
(g70
g51
NtRp1911
(dp1912
g54
(dp1913
g81
g82
ssg63
g1903
sg56
(lp1914
S':'
asbag49
(g70
g51
NtRp1915
(dp1916
g54
(dp1917
sg63
g1903
sg56
(lp1918
g49
(g50
g51
NtRp1919
(dp1920
g54
(dp1921
g62
I4
ssg63
g1915
sg56
(lp1922
g49
(g58
g51
NtRp1923
(dp1924
g54
(dp1925
g62
I3
ssg63
Nsg56
(lp1926
g49
(g65
g51
NtRp1927
(dp1928
g54
(dp1929
sg63
g1923
sg56
(lp1930
g49
(g70
g51
NtRp1931
(dp1932
g54
(dp1933
sg63
g1927
sg56
(lp1934
g49
(g50
g51
NtRp1935
(dp1936
g54
(dp1937
g62
I3
ssg63
g1931
sg56
(lp1938
S'1'
asbasbasbag49
(g65
g51
NtRp1939
(dp1940
g54
(dp1941
sg63
g1923
sg56
(lp1942
g49
(g70
g51
NtRp1943
(dp1944
g54
(dp1945
sg63
g1939
sg56
(lp1946
g49
(g50
g51
NtRp1947
(dp1948
g54
(dp1949
g62
I3
ssg63
g1943
sg56
(lp1950
S'99'
p1951
asbasbasbag49
(g65
g51
NtRp1952
(dp1953
g54
(dp1954
sg63
g1923
sg56
(lp1955
g49
(g70
g51
NtRp1956
(dp1957
g54
(dp1958
sg63
g1952
sg56
(lp1959
g49
(g50
g51
NtRp1960
(dp1961
g54
(dp1962
g62
I3
ssg63
g1956
sg56
(lp1963
S'7'
asbasbasbag49
(g65
g51
NtRp1964
(dp1965
g54
(dp1966
sg63
g1923
sg56
(lp1967
g49
(g70
g51
NtRp1968
(dp1969
g54
(dp1970
sg63
g1964
sg56
(lp1971
g49
(g50
g51
NtRp1972
(dp1973
g54
(dp1974
g62
I3
ssg63
g1968
sg56
(lp1975
S'datetime.datetime(2012, 3, 4, 22, 12, 8)'
p1976
asbasbasbag49
(g65
g51
NtRp1977
(dp1978
g54
(dp1979
sg63
g1923
sg56
(lp1980
g49
(g70
g51
NtRp1981
(dp1982
g54
(dp1983
sg63
g1977
sg56
(lp1984
g49
(g50
g51
NtRp1985
(dp1986
g54
(dp1987
g62
I3
ssg63
g1981
sg56
(lp1988
g1378
asbasbasbasbasbasbasbasbasbasbasbag49
(g65
g51
NtRp1989
(dp1990
g54
(dp1991
sg63
g59
sg56
(lp1992
g49
(g70
g51
NtRp1993
(dp1994
g54
(dp1995
g74
g75
ssg63
g1989
sg56
(lp1996
S'is_https'
p1997
asbag49
(g70
g51
NtRp1998
(dp1999
g54
(dp2000
g81
g82
ssg63
g1989
sg56
(lp2001
S':'
asbag49
(g70
g51
NtRp2002
(dp2003
g54
(dp2004
sg63
g1989
sg56
(lp2005
g49
(g50
g51
NtRp2006
(dp2007
g54
(dp2008
g62
I5
ssg63
g2002
sg56
(lp2009
g92
asbasbasbag49
(g65
g51
NtRp2010
(dp2011
g54
(dp2012
sg63
g59
sg56
(lp2013
g49
(g70
g51
NtRp2014
(dp2015
g54
(dp2016
g74
g75
ssg63
g2010
sg56
(lp2017
S'is_local'
p2018
asbag49
(g70
g51
NtRp2019
(dp2020
g54
(dp2021
g81
g82
ssg63
g2010
sg56
(lp2022
S':'
asbag49
(g70
g51
NtRp2023
(dp2024
g54
(dp2025
sg63
g2010
sg56
(lp2026
g49
(g50
g51
NtRp2027
(dp2028
g54
(dp2029
g62
I5
ssg63
g2023
sg56
(lp2030
g1487
asbasbasbag49
(g65
g51
NtRp2031
(dp2032
g54
(dp2033
sg63
g59
sg56
(lp2034
g49
(g70
g51
NtRp2035
(dp2036
g54
(dp2037
g74
g75
ssg63
g2031
sg56
(lp2038
S'is_restful'
p2039
asbag49
(g70
g51
NtRp2040
(dp2041
g54
(dp2042
g81
g82
ssg63
g2031
sg56
(lp2043
S':'
asbag49
(g70
g51
NtRp2044
(dp2045
g54
(dp2046
sg63
g2031
sg56
(lp2047
g49
(g50
g51
NtRp2048
(dp2049
g54
(dp2050
g62
I5
ssg63
g2044
sg56
(lp2051
g92
asbasbasbag49
(g65
g51
NtRp2052
(dp2053
g54
(dp2054
sg63
g59
sg56
(lp2055
g49
(g70
g51
NtRp2056
(dp2057
g54
(dp2058
g74
g75
ssg63
g2052
sg56
(lp2059
S'now'
p2060
asbag49
(g70
g51
NtRp2061
(dp2062
g54
(dp2063
g81
g82
ssg63
g2052
sg56
(lp2064
S':'
asbag49
(g70
g51
NtRp2065
(dp2066
g54
(dp2067
sg63
g2052
sg56
(lp2068
g49
(g50
g51
NtRp2069
(dp2070
g54
(dp2071
g62
I5
ssg63
g2065
sg56
(lp2072
S'datetime.datetime(2012, 3, 21, 20, 0, 11, 175998)'
p2073
asbasbasbag49
(g65
g51
NtRp2074
(dp2075
g54
(dp2076
sg63
g59
sg56
(lp2077
g49
(g70
g51
NtRp2078
(dp2079
g54
(dp2080
g74
g75
ssg63
g2074
sg56
(lp2081
S'post_vars'
p2082
asbag49
(g70
g51
NtRp2083
(dp2084
g54
(dp2085
g81
g82
ssg63
g2074
sg56
(lp2086
S':'
asbag49
(g70
g51
NtRp2087
(dp2088
g54
(dp2089
sg63
g2074
sg56
(lp2090
g49
(g50
g51
NtRp2091
(dp2092
g54
(dp2093
g62
I5
ssg63
g2087
sg56
(lp2094
g49
(g58
g51
NtRp2095
(dp2096
g54
(dp2097
g62
I4
ssg63
Nsg56
(lp2098
sbasbasbasbag49
(g65
g51
NtRp2099
(dp2100
g54
(dp2101
sg63
g59
sg56
(lp2102
g49
(g70
g51
NtRp2103
(dp2104
g54
(dp2105
g74
g75
ssg63
g2099
sg56
(lp2106
S'url'
p2107
asbag49
(g70
g51
NtRp2108
(dp2109
g54
(dp2110
g81
g82
ssg63
g2099
sg56
(lp2111
S':'
asbag49
(g70
g51
NtRp2112
(dp2113
g54
(dp2114
sg63
g2099
sg56
(lp2115
g49
(g50
g51
NtRp2116
(dp2117
g54
(dp2118
g62
I5
ssg63
g2112
sg56
(lp2119
S'/api/test'
p2120
asbasbasbag49
(g65
g51
NtRp2121
(dp2122
g54
(dp2123
sg63
g59
sg56
(lp2124
g49
(g70
g51
NtRp2125
(dp2126
g54
(dp2127
g74
g75
ssg63
g2121
sg56
(lp2128
S'utcnow'
p2129
asbag49
(g70
g51
NtRp2130
(dp2131
g54
(dp2132
g81
g82
ssg63
g2121
sg56
(lp2133
S':'
asbag49
(g70
g51
NtRp2134
(dp2135
g54
(dp2136
sg63
g2121
sg56
(lp2137
g49
(g50
g51
NtRp2138
(dp2139
g54
(dp2140
g62
I5
ssg63
g2134
sg56
(lp2141
S'datetime.datetime(2012, 3, 22, 0, 0, 11, 176011)'
p2142
asbasbasbag49
(g65
g51
NtRp2143
(dp2144
g54
(dp2145
sg63
g59
sg56
(lp2146
g49
(g70
g51
NtRp2147
(dp2148
g54
(dp2149
g74
g75
ssg63
g2143
sg56
(lp2150
S'uuid'
p2151
asbag49
(g70
g51
NtRp2152
(dp2153
g54
(dp2154
g81
g82
ssg63
g2143
sg56
(lp2155
S':'
asbag49
(g70
g51
NtRp2156
(dp2157
g54
(dp2158
sg63
g2143
sg56
(lp2159
g49
(g50
g51
NtRp2160
(dp2161
g54
(dp2162
g62
I5
ssg63
g2156
sg56
(lp2163
S'udi0312/127.0.0.1.2012-03-21.20-00-11.9939e5c7-a577-44bd-92cd-a12bf6d5c849'
p2164
asbasbasbag49
(g65
g51
NtRp2165
(dp2166
g54
(dp2167
sg63
g59
sg56
(lp2168
g49
(g70
g51
NtRp2169
(dp2170
g54
(dp2171
g74
g75
ssg63
g2165
sg56
(lp2172
S'vars'
p2173
asbag49
(g70
g51
NtRp2174
(dp2175
g54
(dp2176
g81
g82
ssg63
g2165
sg56
(lp2177
S':'
asbag49
(g70
g51
NtRp2178
(dp2179
g54
(dp2180
sg63
g2165
sg56
(lp2181
g49
(g50
g51
NtRp2182
(dp2183
g54
(dp2184
g62
I5
ssg63
g2178
sg56
(lp2185
g49
(g58
g51
NtRp2186
(dp2187
g54
(dp2188
g62
I4
ssg63
Nsg56
(lp2189
sbasbasbasbag49
(g65
g51
NtRp2190
(dp2191
g54
(dp2192
sg63
g59
sg56
(lp2193
g49
(g70
g51
NtRp2194
(dp2195
g54
(dp2196
g74
g75
ssg63
g2190
sg56
(lp2197
S'wsgi'
p2198
asbag49
(g70
g51
NtRp2199
(dp2200
g54
(dp2201
g81
g82
ssg63
g2190
sg56
(lp2202
S':'
asbag49
(g70
g51
NtRp2203
(dp2204
g54
(dp2205
sg63
g2190
sg56
(lp2206
g49
(g50
g51
NtRp2207
(dp2208
g54
(dp2209
g62
I5
ssg63
g2203
sg56
(lp2210
g49
(g58
g51
NtRp2211
(dp2212
g54
(dp2213
g62
I4
ssg63
Nsg56
(lp2214
g49
(g65
g51
NtRp2215
(dp2216
g54
(dp2217
sg63
g2211
sg56
(lp2218
g49
(g70
g51
NtRp2219
(dp2220
g54
(dp2221
g74
g75
ssg63
g2215
sg56
(lp2222
S'environ'
p2223
asbag49
(g70
g51
NtRp2224
(dp2225
g54
(dp2226
g81
g82
ssg63
g2215
sg56
(lp2227
S':'
asbag49
(g70
g51
NtRp2228
(dp2229
g54
(dp2230
sg63
g2215
sg56
(lp2231
g49
(g50
g51
NtRp2232
(dp2233
g54
(dp2234
g62
I4
ssg63
g2228
sg56
(lp2235
g49
(g58
g51
NtRp2236
(dp2237
g54
(dp2238
g62
I3
ssg63
Nsg56
(lp2239
g49
(g65
g51
NtRp2240
(dp2241
g54
(dp2242
sg63
g2236
sg56
(lp2243
g49
(g70
g51
NtRp2244
(dp2245
g54
(dp2246
g74
g75
ssg63
g2240
sg56
(lp2247
S'HTTP_ACCEPT'
p2248
asbag49
(g70
g51
NtRp2249
(dp2250
g54
(dp2251
g81
g82
ssg63
g2240
sg56
(lp2252
S':'
asbag49
(g70
g51
NtRp2253
(dp2254
g54
(dp2255
sg63
g2240
sg56
(lp2256
g49
(g50
g51
NtRp2257
(dp2258
g54
(dp2259
g62
I3
ssg63
g2253
sg56
(lp2260
g769
asbasbasbag49
(g65
g51
NtRp2261
(dp2262
g54
(dp2263
sg63
g2236
sg56
(lp2264
g49
(g70
g51
NtRp2265
(dp2266
g54
(dp2267
g74
g75
ssg63
g2261
sg56
(lp2268
S'HTTP_ACCEPT_CHARSET'
p2269
asbag49
(g70
g51
NtRp2270
(dp2271
g54
(dp2272
g81
g82
ssg63
g2261
sg56
(lp2273
S':'
asbag49
(g70
g51
NtRp2274
(dp2275
g54
(dp2276
sg63
g2261
sg56
(lp2277
g49
(g50
g51
NtRp2278
(dp2279
g54
(dp2280
g62
I3
ssg63
g2274
sg56
(lp2281
g791
asbasbasbag49
(g65
g51
NtRp2282
(dp2283
g54
(dp2284
sg63
g2236
sg56
(lp2285
g49
(g70
g51
NtRp2286
(dp2287
g54
(dp2288
g74
g75
ssg63
g2282
sg56
(lp2289
S'HTTP_ACCEPT_ENCODING'
p2290
asbag49
(g70
g51
NtRp2291
(dp2292
g54
(dp2293
g81
g82
ssg63
g2282
sg56
(lp2294
S':'
asbag49
(g70
g51
NtRp2295
(dp2296
g54
(dp2297
sg63
g2282
sg56
(lp2298
g49
(g50
g51
NtRp2299
(dp2300
g54
(dp2301
g62
I3
ssg63
g2295
sg56
(lp2302
g813
asbasbasbag49
(g65
g51
NtRp2303
(dp2304
g54
(dp2305
sg63
g2236
sg56
(lp2306
g49
(g70
g51
NtRp2307
(dp2308
g54
(dp2309
g74
g75
ssg63
g2303
sg56
(lp2310
S'HTTP_ACCEPT_LANGUAGE'
p2311
asbag49
(g70
g51
NtRp2312
(dp2313
g54
(dp2314
g81
g82
ssg63
g2303
sg56
(lp2315
S':'
asbag49
(g70
g51
NtRp2316
(dp2317
g54
(dp2318
sg63
g2303
sg56
(lp2319
g49
(g50
g51
NtRp2320
(dp2321
g54
(dp2322
g62
I3
ssg63
g2316
sg56
(lp2323
g835
asbasbasbag49
(g65
g51
NtRp2324
(dp2325
g54
(dp2326
sg63
g2236
sg56
(lp2327
g49
(g70
g51
NtRp2328
(dp2329
g54
(dp2330
g74
g75
ssg63
g2324
sg56
(lp2331
S'HTTP_CACHE_CONTROL'
p2332
asbag49
(g70
g51
NtRp2333
(dp2334
g54
(dp2335
g81
g82
ssg63
g2324
sg56
(lp2336
S':'
asbag49
(g70
g51
NtRp2337
(dp2338
g54
(dp2339
sg63
g2324
sg56
(lp2340
g49
(g50
g51
NtRp2341
(dp2342
g54
(dp2343
g62
I3
ssg63
g2337
sg56
(lp2344
g857
asbasbasbag49
(g65
g51
NtRp2345
(dp2346
g54
(dp2347
sg63
g2236
sg56
(lp2348
g49
(g70
g51
NtRp2349
(dp2350
g54
(dp2351
g74
g75
ssg63
g2345
sg56
(lp2352
S'HTTP_CONNECTION'
p2353
asbag49
(g70
g51
NtRp2354
(dp2355
g54
(dp2356
g81
g82
ssg63
g2345
sg56
(lp2357
S':'
asbag49
(g70
g51
NtRp2358
(dp2359
g54
(dp2360
sg63
g2345
sg56
(lp2361
g49
(g50
g51
NtRp2362
(dp2363
g54
(dp2364
g62
I3
ssg63
g2358
sg56
(lp2365
g879
asbasbasbag49
(g65
g51
NtRp2366
(dp2367
g54
(dp2368
sg63
g2236
sg56
(lp2369
g49
(g70
g51
NtRp2370
(dp2371
g54
(dp2372
g74
g75
ssg63
g2366
sg56
(lp2373
S'HTTP_COOKIE'
p2374
asbag49
(g70
g51
NtRp2375
(dp2376
g54
(dp2377
g81
g82
ssg63
g2366
sg56
(lp2378
S':'
asbag49
(g70
g51
NtRp2379
(dp2380
g54
(dp2381
sg63
g2366
sg56
(lp2382
g49
(g50
g51
NtRp2383
(dp2384
g54
(dp2385
g62
I3
ssg63
g2379
sg56
(lp2386
g901
asbasbasbag49
(g65
g51
NtRp2387
(dp2388
g54
(dp2389
sg63
g2236
sg56
(lp2390
g49
(g70
g51
NtRp2391
(dp2392
g54
(dp2393
g74
g75
ssg63
g2387
sg56
(lp2394
S'HTTP_HOST'
p2395
asbag49
(g70
g51
NtRp2396
(dp2397
g54
(dp2398
g81
g82
ssg63
g2387
sg56
(lp2399
S':'
asbag49
(g70
g51
NtRp2400
(dp2401
g54
(dp2402
sg63
g2387
sg56
(lp2403
g49
(g50
g51
NtRp2404
(dp2405
g54
(dp2406
g62
I3
ssg63
g2400
sg56
(lp2407
g923
asbasbasbag49
(g65
g51
NtRp2408
(dp2409
g54
(dp2410
sg63
g2236
sg56
(lp2411
g49
(g70
g51
NtRp2412
(dp2413
g54
(dp2414
g74
g75
ssg63
g2408
sg56
(lp2415
S'HTTP_USER_AGENT'
p2416
asbag49
(g70
g51
NtRp2417
(dp2418
g54
(dp2419
g81
g82
ssg63
g2408
sg56
(lp2420
S':'
asbag49
(g70
g51
NtRp2421
(dp2422
g54
(dp2423
sg63
g2408
sg56
(lp2424
g49
(g50
g51
NtRp2425
(dp2426
g54
(dp2427
g62
I3
ssg63
g2421
sg56
(lp2428
g945
asbasbasbag49
(g65
g51
NtRp2429
(dp2430
g54
(dp2431
sg63
g2236
sg56
(lp2432
g49
(g70
g51
NtRp2433
(dp2434
g54
(dp2435
g74
g75
ssg63
g2429
sg56
(lp2436
S'PATH_INFO'
p2437
asbag49
(g70
g51
NtRp2438
(dp2439
g54
(dp2440
g81
g82
ssg63
g2429
sg56
(lp2441
S':'
asbag49
(g70
g51
NtRp2442
(dp2443
g54
(dp2444
sg63
g2429
sg56
(lp2445
g49
(g50
g51
NtRp2446
(dp2447
g54
(dp2448
g62
I3
ssg63
g2442
sg56
(lp2449
g1009
asbasbasbag49
(g65
g51
NtRp2450
(dp2451
g54
(dp2452
sg63
g2236
sg56
(lp2453
g49
(g70
g51
NtRp2454
(dp2455
g54
(dp2456
g74
g75
ssg63
g2450
sg56
(lp2457
S'QUERY_STRING'
p2458
asbag49
(g70
g51
NtRp2459
(dp2460
g54
(dp2461
g81
g82
ssg63
g2450
sg56
(lp2462
S':'
asbag49
(g70
g51
NtRp2463
(dp2464
g54
(dp2465
sg63
g2450
sg56
(lp2466
g49
(g50
g51
NtRp2467
(dp2468
g54
(dp2469
g62
I3
ssg63
g2463
sg56
(lp2470
S''
asbasbasbag49
(g65
g51
NtRp2471
(dp2472
g54
(dp2473
sg63
g2236
sg56
(lp2474
g49
(g70
g51
NtRp2475
(dp2476
g54
(dp2477
g74
g75
ssg63
g2471
sg56
(lp2478
S'REMOTE_ADDR'
p2479
asbag49
(g70
g51
NtRp2480
(dp2481
g54
(dp2482
g81
g82
ssg63
g2471
sg56
(lp2483
S':'
asbag49
(g70
g51
NtRp2484
(dp2485
g54
(dp2486
sg63
g2471
sg56
(lp2487
g49
(g50
g51
NtRp2488
(dp2489
g54
(dp2490
g62
I3
ssg63
g2484
sg56
(lp2491
g182
asbasbasbag49
(g65
g51
NtRp2492
(dp2493
g54
(dp2494
sg63
g2236
sg56
(lp2495
g49
(g70
g51
NtRp2496
(dp2497
g54
(dp2498
g74
g75
ssg63
g2492
sg56
(lp2499
S'REMOTE_PORT'
p2500
asbag49
(g70
g51
NtRp2501
(dp2502
g54
(dp2503
g81
g82
ssg63
g2492
sg56
(lp2504
S':'
asbag49
(g70
g51
NtRp2505
(dp2506
g54
(dp2507
sg63
g2492
sg56
(lp2508
g49
(g50
g51
NtRp2509
(dp2510
g54
(dp2511
g62
I3
ssg63
g2505
sg56
(lp2512
g1073
asbasbasbag49
(g65
g51
NtRp2513
(dp2514
g54
(dp2515
sg63
g2236
sg56
(lp2516
g49
(g70
g51
NtRp2517
(dp2518
g54
(dp2519
g74
g75
ssg63
g2513
sg56
(lp2520
S'REQUEST_METHOD'
p2521
asbag49
(g70
g51
NtRp2522
(dp2523
g54
(dp2524
g81
g82
ssg63
g2513
sg56
(lp2525
S':'
asbag49
(g70
g51
NtRp2526
(dp2527
g54
(dp2528
sg63
g2513
sg56
(lp2529
g49
(g50
g51
NtRp2530
(dp2531
g54
(dp2532
g62
I3
ssg63
g2526
sg56
(lp2533
g1095
asbasbasbag49
(g65
g51
NtRp2534
(dp2535
g54
(dp2536
sg63
g2236
sg56
(lp2537
g49
(g70
g51
NtRp2538
(dp2539
g54
(dp2540
g74
g75
ssg63
g2534
sg56
(lp2541
S'REQUEST_URI'
p2542
asbag49
(g70
g51
NtRp2543
(dp2544
g54
(dp2545
g81
g82
ssg63
g2534
sg56
(lp2546
S':'
asbag49
(g70
g51
NtRp2547
(dp2548
g54
(dp2549
sg63
g2534
sg56
(lp2550
g49
(g50
g51
NtRp2551
(dp2552
g54
(dp2553
g62
I3
ssg63
g2547
sg56
(lp2554
g1117
asbasbasbag49
(g65
g51
NtRp2555
(dp2556
g54
(dp2557
sg63
g2236
sg56
(lp2558
g49
(g70
g51
NtRp2559
(dp2560
g54
(dp2561
g74
g75
ssg63
g2555
sg56
(lp2562
S'SCRIPT_NAME'
p2563
asbag49
(g70
g51
NtRp2564
(dp2565
g54
(dp2566
g81
g82
ssg63
g2555
sg56
(lp2567
S':'
asbag49
(g70
g51
NtRp2568
(dp2569
g54
(dp2570
sg63
g2555
sg56
(lp2571
g49
(g50
g51
NtRp2572
(dp2573
g54
(dp2574
g62
I3
ssg63
g2568
sg56
(lp2575
S''
asbasbasbag49
(g65
g51
NtRp2576
(dp2577
g54
(dp2578
sg63
g2236
sg56
(lp2579
g49
(g70
g51
NtRp2580
(dp2581
g54
(dp2582
g74
g75
ssg63
g2576
sg56
(lp2583
S'SERVER_NAME'
p2584
asbag49
(g70
g51
NtRp2585
(dp2586
g54
(dp2587
g81
g82
ssg63
g2576
sg56
(lp2588
S':'
asbag49
(g70
g51
NtRp2589
(dp2590
g54
(dp2591
sg63
g2576
sg56
(lp2592
g49
(g50
g51
NtRp2593
(dp2594
g54
(dp2595
g62
I3
ssg63
g2589
sg56
(lp2596
g1160
asbasbasbag49
(g65
g51
NtRp2597
(dp2598
g54
(dp2599
sg63
g2236
sg56
(lp2600
g49
(g70
g51
NtRp2601
(dp2602
g54
(dp2603
g74
g75
ssg63
g2597
sg56
(lp2604
S'SERVER_PORT'
p2605
asbag49
(g70
g51
NtRp2606
(dp2607
g54
(dp2608
g81
g82
ssg63
g2597
sg56
(lp2609
S':'
asbag49
(g70
g51
NtRp2610
(dp2611
g54
(dp2612
sg63
g2597
sg56
(lp2613
g49
(g50
g51
NtRp2614
(dp2615
g54
(dp2616
g62
I3
ssg63
g2610
sg56
(lp2617
g1182
asbasbasbag49
(g65
g51
NtRp2618
(dp2619
g54
(dp2620
sg63
g2236
sg56
(lp2621
g49
(g70
g51
NtRp2622
(dp2623
g54
(dp2624
g74
g75
ssg63
g2618
sg56
(lp2625
S'SERVER_PROTOCOL'
p2626
asbag49
(g70
g51
NtRp2627
(dp2628
g54
(dp2629
g81
g82
ssg63
g2618
sg56
(lp2630
S':'
asbag49
(g70
g51
NtRp2631
(dp2632
g54
(dp2633
sg63
g2618
sg56
(lp2634
g49
(g50
g51
NtRp2635
(dp2636
g54
(dp2637
g62
I3
ssg63
g2631
sg56
(lp2638
g1204
asbasbasbag49
(g65
g51
NtRp2639
(dp2640
g54
(dp2641
sg63
g2236
sg56
(lp2642
g49
(g70
g51
NtRp2643
(dp2644
g54
(dp2645
g74
g75
ssg63
g2639
sg56
(lp2646
S'SERVER_SOFTWARE'
p2647
asbag49
(g70
g51
NtRp2648
(dp2649
g54
(dp2650
g81
g82
ssg63
g2639
sg56
(lp2651
S':'
asbag49
(g70
g51
NtRp2652
(dp2653
g54
(dp2654
sg63
g2639
sg56
(lp2655
g49
(g50
g51
NtRp2656
(dp2657
g54
(dp2658
g62
I3
ssg63
g2652
sg56
(lp2659
g1226
asbasbasbag49
(g65
g51
NtRp2660
(dp2661
g54
(dp2662
sg63
g2236
sg56
(lp2663
g49
(g70
g51
NtRp2664
(dp2665
g54
(dp2666
g74
g75
ssg63
g2660
sg56
(lp2667
S'WEB2PY_ORIGINAL_URI'
p2668
asbag49
(g70
g51
NtRp2669
(dp2670
g54
(dp2671
g81
g82
ssg63
g2660
sg56
(lp2672
S':'
asbag49
(g70
g51
NtRp2673
(dp2674
g54
(dp2675
sg63
g2660
sg56
(lp2676
g49
(g50
g51
NtRp2677
(dp2678
g54
(dp2679
g62
I3
ssg63
g2673
sg56
(lp2680
g1009
asbasbasbag49
(g65
g51
NtRp2681
(dp2682
g54
(dp2683
sg63
g2236
sg56
(lp2684
g49
(g70
g51
NtRp2685
(dp2686
g54
(dp2687
g74
g75
ssg63
g2681
sg56
(lp2688
S'wsgi.errors'
p2689
asbag49
(g70
g51
NtRp2690
(dp2691
g54
(dp2692
g81
g82
ssg63
g2681
sg56
(lp2693
S':'
asbag49
(g70
g51
NtRp2694
(dp2695
g54
(dp2696
sg63
g2681
sg56
(lp2697
g49
(g50
g51
NtRp2698
(dp2699
g54
(dp2700
g62
I3
ssg63
g2694
sg56
(lp2701
S"<open file '<stderr>', mode 'w' at 0x4220b0>"
p2702
asbasbasbag49
(g65
g51
NtRp2703
(dp2704
g54
(dp2705
sg63
g2236
sg56
(lp2706
g49
(g70
g51
NtRp2707
(dp2708
g54
(dp2709
g74
g75
ssg63
g2703
sg56
(lp2710
S'wsgi.file_wrapper'
p2711
asbag49
(g70
g51
NtRp2712
(dp2713
g54
(dp2714
g81
g82
ssg63
g2703
sg56
(lp2715
S':'
asbag49
(g70
g51
NtRp2716
(dp2717
g54
(dp2718
sg63
g2703
sg56
(lp2719
g49
(g50
g51
NtRp2720
(dp2721
g54
(dp2722
g62
I3
ssg63
g2716
sg56
(lp2723
S'<class wsgiref.util.FileWrapper at 0x215e6c0>'
p2724
asbasbasbag49
(g65
g51
NtRp2725
(dp2726
g54
(dp2727
sg63
g2236
sg56
(lp2728
g49
(g70
g51
NtRp2729
(dp2730
g54
(dp2731
g74
g75
ssg63
g2725
sg56
(lp2732
S'wsgi.input'
p2733
asbag49
(g70
g51
NtRp2734
(dp2735
g54
(dp2736
g81
g82
ssg63
g2725
sg56
(lp2737
S':'
asbag49
(g70
g51
NtRp2738
(dp2739
g54
(dp2740
sg63
g2725
sg56
(lp2741
g49
(g50
g51
NtRp2742
(dp2743
g54
(dp2744
g62
I3
ssg63
g2738
sg56
(lp2745
S'<cStringIO.StringO object at 0xa65f4e0>'
p2746
asbasbasbag49
(g65
g51
NtRp2747
(dp2748
g54
(dp2749
sg63
g2236
sg56
(lp2750
g49
(g70
g51
NtRp2751
(dp2752
g54
(dp2753
g74
g75
ssg63
g2747
sg56
(lp2754
S'wsgi.multiprocess'
p2755
asbag49
(g70
g51
NtRp2756
(dp2757
g54
(dp2758
g81
g82
ssg63
g2747
sg56
(lp2759
S':'
asbag49
(g70
g51
NtRp2760
(dp2761
g54
(dp2762
sg63
g2747
sg56
(lp2763
g49
(g50
g51
NtRp2764
(dp2765
g54
(dp2766
g62
I3
ssg63
g2760
sg56
(lp2767
g92
asbasbasbag49
(g65
g51
NtRp2768
(dp2769
g54
(dp2770
sg63
g2236
sg56
(lp2771
g49
(g70
g51
NtRp2772
(dp2773
g54
(dp2774
g74
g75
ssg63
g2768
sg56
(lp2775
S'wsgi.multithread'
p2776
asbag49
(g70
g51
NtRp2777
(dp2778
g54
(dp2779
g81
g82
ssg63
g2768
sg56
(lp2780
S':'
asbag49
(g70
g51
NtRp2781
(dp2782
g54
(dp2783
sg63
g2768
sg56
(lp2784
g49
(g50
g51
NtRp2785
(dp2786
g54
(dp2787
g62
I3
ssg63
g2781
sg56
(lp2788
g1487
asbasbasbag49
(g65
g51
NtRp2789
(dp2790
g54
(dp2791
sg63
g2236
sg56
(lp2792
g49
(g70
g51
NtRp2793
(dp2794
g54
(dp2795
g74
g75
ssg63
g2789
sg56
(lp2796
S'wsgi.run_once'
p2797
asbag49
(g70
g51
NtRp2798
(dp2799
g54
(dp2800
g81
g82
ssg63
g2789
sg56
(lp2801
S':'
asbag49
(g70
g51
NtRp2802
(dp2803
g54
(dp2804
sg63
g2789
sg56
(lp2805
g49
(g50
g51
NtRp2806
(dp2807
g54
(dp2808
g62
I3
ssg63
g2802
sg56
(lp2809
g92
asbasbasbag49
(g65
g51
NtRp2810
(dp2811
g54
(dp2812
sg63
g2236
sg56
(lp2813
g49
(g70
g51
NtRp2814
(dp2815
g54
(dp2816
g74
g75
ssg63
g2810
sg56
(lp2817
S'wsgi.url_scheme'
p2818
asbag49
(g70
g51
NtRp2819
(dp2820
g54
(dp2821
g81
g82
ssg63
g2810
sg56
(lp2822
S':'
asbag49
(g70
g51
NtRp2823
(dp2824
g54
(dp2825
sg63
g2810
sg56
(lp2826
g49
(g50
g51
NtRp2827
(dp2828
g54
(dp2829
g62
I3
ssg63
g2823
sg56
(lp2830
g1530
asbasbasbag49
(g65
g51
NtRp2831
(dp2832
g54
(dp2833
sg63
g2236
sg56
(lp2834
g49
(g70
g51
NtRp2835
(dp2836
g54
(dp2837
g74
g75
ssg63
g2831
sg56
(lp2838
S'wsgi.version'
p2839
asbag49
(g70
g51
NtRp2840
(dp2841
g54
(dp2842
g81
g82
ssg63
g2831
sg56
(lp2843
S':'
asbag49
(g70
g51
NtRp2844
(dp2845
g54
(dp2846
sg63
g2831
sg56
(lp2847
g49
(g50
g51
NtRp2848
(dp2849
g54
(dp2850
g62
I3
ssg63
g2844
sg56
(lp2851
S'1'
asbasbasbasbasbasbasbasbasbasbasbasbasbsS'frames'
p2852
(lp2853
(dp2854
S'file'
p2855
S'/users/udimilo/Documents/web2py/gluon/restricted.py'
p2856
sS'dump'
p2857
(dp2858
S'environment'
p2859
S"{'A': <class 'gluon.html.A'>, 'Auth': <class 'gluon.tools.Auth'>, 'B': <class 'gluon.html.B'>, 'BEAUTIFY': <class 'gluon.html.BEAUTIFY'>, 'BODY': <class 'gluon.html.BODY'>, 'BR': <class 'gluon.html.BR'>, 'BUTTON': <class 'gluon.html.BUTTON'>, 'CAT': <class 'gluon.html.CAT'>, 'CENTER': <class 'gluon.html.CENTER'>, 'CLEANUP': <class 'gluon.validators.CLEANUP'>, ...}"
p2860
sS'ccode'
p2861
S'<code object <module> at 0xa219188, file "/Users...applications/udi0312/controllers/api.py", line 2>'
p2862
ssS'lnum'
p2863
I205
sS'lines'
p2864
(dp2865
I200
S'    try:'
p2866
sI201
S'        if type(code) == types.CodeType:'
p2867
sI202
S'            ccode = code'
p2868
sI203
S'        else:'
p2869
sI204
S'            ccode = compile2(code,layer)'
p2870
sI205
S'        exec ccode in environment'
p2871
sI206
S'    except HTTP:'
p2872
sI207
S'        raise'
p2873
sI208
S'    except RestrictedError:'
p2874
sI209
S'        # do not encapsulate (obfuscate) the original RestrictedError'
p2875
ssS'call'
p2876
S"(code='# coding: utf8\\nimport re\\nimport time\\nfrom readab...rn pin.id\\n\\nresponse._vars=response._caller(test)\\n', environment={'A': <class 'gluon.html.A'>, 'Auth': <class 'gluon.tools.Auth'>, 'B': <class 'gluon.html.B'>, 'BEAUTIFY': <class 'gluon.html.BEAUTIFY'>, 'BODY': <class 'gluon.html.BODY'>, 'BR': <class 'gluon.html.BR'>, 'BUTTON': <class 'gluon.html.BUTTON'>, 'CAT': <class 'gluon.html.CAT'>, 'CENTER': <class 'gluon.html.CENTER'>, 'CLEANUP': <class 'gluon.validators.CLEANUP'>, ...}, layer='/Users/udimilo/Documents/web2py/applications/udi0312/controllers/api.py')"
p2877
sS'func'
p2878
S'restricted'
p2879
sa(dp2880
g2855
S'/Users/udimilo/Documents/web2py/applications/udi0312/controllers/api.py'
p2881
sg2857
(dp2882
sg2863
I89
sg2864
(dp2883
I78
S"            date_published=json['date_published'],"
p2884
sI79
S"            next_page_id=json['next_page_id'],"
p2885
sI80
S"            rendered_pages=json['rendered_pages'],"
p2886
sI81
S'        )'
p2887
sI82
S''
sI83
S'    pin = db((db.pin.board == board.id) & (db.pin.article == article.id)).select().first()'
p2888
sI84
S'    if pin is None:'
p2889
sI85
S'        pin = db.pin.insert(board=board.id, article=article.id)'
p2890
sI86
S''
sI87
S'    return pin.id'
p2891
ssg2876
S'()'
p2892
sg2878
S'<module>'
p2893
sa(dp2894
g2855
S'/users/udimilo/Documents/web2py/gluon/globals.py'
p2895
sg2857
(dp2896
S'self'
p2897
S'undefined'
p2898
sS'f'
S'<function test at 0xa0ea1f0>'
p2899
ssg2863
I173
sg2864
(dp2900
I168
S'        self.menu = []             # used by the default view layout'
p2901
sI169
S'        self.files = []            # used by web2py_ajax.html'
p2902
sI170
S'        self.generic_patterns = [] # patterns to allow generic views'
p2903
sI171
S"        self.delimiters = ('{{','}}')"
p2904
sI172
S'        self._vars = None'
p2905
sI173
S'        self._caller = lambda f: f()'
p2906
sI174
S'        self._view_environment = None'
p2907
sI175
S'        self._custom_commit = None'
p2908
sI176
S'        self._custom_rollback = None'
p2909
sI177
S''
ssg2876
S'(f=<function test at 0xa0ea1f0>)'
p2910
sg2878
S'<lambda>'
p2911
sa(dp2912
g2855
S'/Users/udimilo/Documents/web2py/applications/udi0312/controllers/api.py'
p2913
sg2857
(dp2914
S'result'
p2915
g39
sS'result.x'
p2916
g2898
ssg2863
I34
sg2864
(dp2917
I32
S''
sI33
S'    result = {}'
p2918
sI34
S'    result.x = 1'
p2919
sI35
S''
sI36
S'    return boards'
p2920
sI37
S''
sI38
S'def add_repin():'
p2921
sI29
S''
sI30
S'    article_ids = list(set(map(lambda p: p.article, pins)))'
p2922
sI31
S'    article = db(db.article.id.belongs(article_ids)).select()'
p2923
ssg2876
S'()'
p2924
sg2878
S'test'
p2925
sasS'pyver'
p2926
S'Python 2.5.4: /Library/Frameworks/Python.framework/Versions/2.5/Resources/Python.app/Contents/MacOS/Python'
p2927
sS'session'
p2928
g49
(g50
g51
NtRp2929
(dp2930
g54
(dp2931
sg56
(lp2932
g49
(g58
g51
NtRp2933
(dp2934
g54
(dp2935
g62
I5
ssg63
Nsg56
(lp2936
sbasbsS'etype'
p2937
S"<type 'exceptions.AttributeError'>"
p2938
sS'date'
p2939
S'Wed Mar 21 20:00:11 2012'
p2940
sS'response'
p2941
g49
(g50
g51
NtRp2942
(dp2943
g54
(dp2944
sg56
(lp2945
g49
(g58
g51
NtRp2946
(dp2947
g54
(dp2948
g62
I5
ssg63
Nsg56
(lp2949
g49
(g65
g51
NtRp2950
(dp2951
g54
(dp2952
sg63
g2946
sg56
(lp2953
g49
(g70
g51
NtRp2954
(dp2955
g54
(dp2956
g74
g75
ssg63
g2950
sg56
(lp2957
g147
asbag49
(g70
g51
NtRp2958
(dp2959
g54
(dp2960
g81
g82
ssg63
g2950
sg56
(lp2961
S':'
asbag49
(g70
g51
NtRp2962
(dp2963
g54
(dp2964
sg63
g2950
sg56
(lp2965
g49
(g50
g51
NtRp2966
(dp2967
g54
(dp2968
g62
I5
ssg63
g2962
sg56
(lp2969
S'<cStringIO.StringO object at 0xa65f640>'
p2970
asbasbasbag49
(g65
g51
NtRp2971
(dp2972
g54
(dp2973
sg63
g2946
sg56
(lp2974
g49
(g70
g51
NtRp2975
(dp2976
g54
(dp2977
g74
g75
ssg63
g2971
sg56
(lp2978
g213
asbag49
(g70
g51
NtRp2979
(dp2980
g54
(dp2981
g81
g82
ssg63
g2971
sg56
(lp2982
S':'
asbag49
(g70
g51
NtRp2983
(dp2984
g54
(dp2985
sg63
g2971
sg56
(lp2986
g49
(g50
g51
NtRp2987
(dp2988
g54
(dp2989
g62
I5
ssg63
g2983
sg56
(lp2990
g49
(g58
g51
NtRp2991
(dp2992
g54
(dp2993
g62
I4
ssg63
Nsg56
(lp2994
g49
(g65
g51
NtRp2995
(dp2996
g54
(dp2997
sg63
g2991
sg56
(lp2998
g49
(g70
g51
NtRp2999
(dp3000
g54
(dp3001
g74
g75
ssg63
g2995
sg56
(lp3002
S'session_id_udi0312'
p3003
asbag49
(g70
g51
NtRp3004
(dp3005
g54
(dp3006
g81
g82
ssg63
g2995
sg56
(lp3007
S':'
asbag49
(g70
g51
NtRp3008
(dp3009
g54
(dp3010
sg63
g2995
sg56
(lp3011
g49
(g50
g51
NtRp3012
(dp3013
g54
(dp3014
g62
I4
ssg63
g3008
sg56
(lp3015
g49
(g58
g51
NtRp3016
(dp3017
g54
(dp3018
g62
I3
ssg63
Nsg56
(lp3019
g49
(g65
g51
NtRp3020
(dp3021
g54
(dp3022
sg63
g3016
sg56
(lp3023
g49
(g70
g51
NtRp3024
(dp3025
g54
(dp3026
g74
g75
ssg63
g3020
sg56
(lp3027
g263
asbag49
(g70
g51
NtRp3028
(dp3029
g54
(dp3030
g81
g82
ssg63
g3020
sg56
(lp3031
S':'
asbag49
(g70
g51
NtRp3032
(dp3033
g54
(dp3034
sg63
g3020
sg56
(lp3035
g49
(g50
g51
NtRp3036
(dp3037
g54
(dp3038
g62
I3
ssg63
g3032
sg56
(lp3039
S''
asbasbasbag49
(g65
g51
NtRp3040
(dp3041
g54
(dp3042
sg63
g3016
sg56
(lp3043
g49
(g70
g51
NtRp3044
(dp3045
g54
(dp3046
g74
g75
ssg63
g3040
sg56
(lp3047
g284
asbag49
(g70
g51
NtRp3048
(dp3049
g54
(dp3050
g81
g82
ssg63
g3040
sg56
(lp3051
S':'
asbag49
(g70
g51
NtRp3052
(dp3053
g54
(dp3054
sg63
g3040
sg56
(lp3055
g49
(g50
g51
NtRp3056
(dp3057
g54
(dp3058
g62
I3
ssg63
g3052
sg56
(lp3059
S''
asbasbasbag49
(g65
g51
NtRp3060
(dp3061
g54
(dp3062
sg63
g3016
sg56
(lp3063
g49
(g70
g51
NtRp3064
(dp3065
g54
(dp3066
g74
g75
ssg63
g3060
sg56
(lp3067
g305
asbag49
(g70
g51
NtRp3068
(dp3069
g54
(dp3070
g81
g82
ssg63
g3060
sg56
(lp3071
S':'
asbag49
(g70
g51
NtRp3072
(dp3073
g54
(dp3074
sg63
g3060
sg56
(lp3075
g49
(g50
g51
NtRp3076
(dp3077
g54
(dp3078
g62
I3
ssg63
g3072
sg56
(lp3079
S''
asbasbasbag49
(g65
g51
NtRp3080
(dp3081
g54
(dp3082
sg63
g3016
sg56
(lp3083
g49
(g70
g51
NtRp3084
(dp3085
g54
(dp3086
g74
g75
ssg63
g3080
sg56
(lp3087
g326
asbag49
(g70
g51
NtRp3088
(dp3089
g54
(dp3090
g81
g82
ssg63
g3080
sg56
(lp3091
S':'
asbag49
(g70
g51
NtRp3092
(dp3093
g54
(dp3094
sg63
g3080
sg56
(lp3095
g49
(g50
g51
NtRp3096
(dp3097
g54
(dp3098
g62
I3
ssg63
g3092
sg56
(lp3099
S''
asbasbasbag49
(g65
g51
NtRp3100
(dp3101
g54
(dp3102
sg63
g3016
sg56
(lp3103
g49
(g70
g51
NtRp3104
(dp3105
g54
(dp3106
g74
g75
ssg63
g3100
sg56
(lp3107
g347
asbag49
(g70
g51
NtRp3108
(dp3109
g54
(dp3110
g81
g82
ssg63
g3100
sg56
(lp3111
S':'
asbag49
(g70
g51
NtRp3112
(dp3113
g54
(dp3114
sg63
g3100
sg56
(lp3115
g49
(g50
g51
NtRp3116
(dp3117
g54
(dp3118
g62
I3
ssg63
g3112
sg56
(lp3119
S'/'
asbasbasbag49
(g65
g51
NtRp3120
(dp3121
g54
(dp3122
sg63
g3016
sg56
(lp3123
g49
(g70
g51
NtRp3124
(dp3125
g54
(dp3126
g74
g75
ssg63
g3120
sg56
(lp3127
g368
asbag49
(g70
g51
NtRp3128
(dp3129
g54
(dp3130
g81
g82
ssg63
g3120
sg56
(lp3131
S':'
asbag49
(g70
g51
NtRp3132
(dp3133
g54
(dp3134
sg63
g3120
sg56
(lp3135
g49
(g50
g51
NtRp3136
(dp3137
g54
(dp3138
g62
I3
ssg63
g3132
sg56
(lp3139
S''
asbasbasbag49
(g65
g51
NtRp3140
(dp3141
g54
(dp3142
sg63
g3016
sg56
(lp3143
g49
(g70
g51
NtRp3144
(dp3145
g54
(dp3146
g74
g75
ssg63
g3140
sg56
(lp3147
g389
asbag49
(g70
g51
NtRp3148
(dp3149
g54
(dp3150
g81
g82
ssg63
g3140
sg56
(lp3151
S':'
asbag49
(g70
g51
NtRp3152
(dp3153
g54
(dp3154
sg63
g3140
sg56
(lp3155
g49
(g50
g51
NtRp3156
(dp3157
g54
(dp3158
g62
I3
ssg63
g3152
sg56
(lp3159
S''
asbasbasbasbasbasbasbasbasbasbasbag49
(g65
g51
NtRp3160
(dp3161
g54
(dp3162
sg63
g2946
sg56
(lp3163
g49
(g70
g51
NtRp3164
(dp3165
g54
(dp3166
g74
g75
ssg63
g3160
sg56
(lp3167
S'delimiters'
p3168
asbag49
(g70
g51
NtRp3169
(dp3170
g54
(dp3171
g81
g82
ssg63
g3160
sg56
(lp3172
S':'
asbag49
(g70
g51
NtRp3173
(dp3174
g54
(dp3175
sg63
g3160
sg56
(lp3176
g49
(g50
g51
NtRp3177
(dp3178
g54
(dp3179
g62
I5
ssg63
g3173
sg56
(lp3180
g49
(g58
g51
NtRp3181
(dp3182
g54
(dp3183
g62
I4
ssg63
Nsg56
(lp3184
g49
(g65
g51
NtRp3185
(dp3186
g54
(dp3187
sg63
g3181
sg56
(lp3188
g49
(g70
g51
NtRp3189
(dp3190
g54
(dp3191
sg63
g3185
sg56
(lp3192
g49
(g50
g51
NtRp3193
(dp3194
g54
(dp3195
g62
I4
ssg63
g3189
sg56
(lp3196
S'{{'
p3197
asbasbasbag49
(g65
g51
NtRp3198
(dp3199
g54
(dp3200
sg63
g3181
sg56
(lp3201
g49
(g70
g51
NtRp3202
(dp3203
g54
(dp3204
sg63
g3198
sg56
(lp3205
g49
(g50
g51
NtRp3206
(dp3207
g54
(dp3208
g62
I4
ssg63
g3202
sg56
(lp3209
S'}}'
p3210
asbasbasbasbasbasbasbag49
(g65
g51
NtRp3211
(dp3212
g54
(dp3213
sg63
g2946
sg56
(lp3214
g49
(g70
g51
NtRp3215
(dp3216
g54
(dp3217
g74
g75
ssg63
g3211
sg56
(lp3218
S'files'
p3219
asbag49
(g70
g51
NtRp3220
(dp3221
g54
(dp3222
g81
g82
ssg63
g3211
sg56
(lp3223
S':'
asbag49
(g70
g51
NtRp3224
(dp3225
g54
(dp3226
sg63
g3211
sg56
(lp3227
g49
(g50
g51
NtRp3228
(dp3229
g54
(dp3230
g62
I5
ssg63
g3224
sg56
(lp3231
g49
(g58
g51
NtRp3232
(dp3233
g54
(dp3234
g62
I4
ssg63
Nsg56
(lp3235
sbasbasbasbag49
(g65
g51
NtRp3236
(dp3237
g54
(dp3238
sg63
g2946
sg56
(lp3239
g49
(g70
g51
NtRp3240
(dp3241
g54
(dp3242
g74
g75
ssg63
g3236
sg56
(lp3243
S'flash'
p3244
asbag49
(g70
g51
NtRp3245
(dp3246
g54
(dp3247
g81
g82
ssg63
g3236
sg56
(lp3248
S':'
asbag49
(g70
g51
NtRp3249
(dp3250
g54
(dp3251
sg63
g3236
sg56
(lp3252
g49
(g50
g51
NtRp3253
(dp3254
g54
(dp3255
g62
I5
ssg63
g3249
sg56
(lp3256
S''
asbasbasbag49
(g65
g51
NtRp3257
(dp3258
g54
(dp3259
sg63
g2946
sg56
(lp3260
g49
(g70
g51
NtRp3261
(dp3262
g54
(dp3263
g74
g75
ssg63
g3257
sg56
(lp3264
S'generic_patterns'
p3265
asbag49
(g70
g51
NtRp3266
(dp3267
g54
(dp3268
g81
g82
ssg63
g3257
sg56
(lp3269
S':'
asbag49
(g70
g51
NtRp3270
(dp3271
g54
(dp3272
sg63
g3257
sg56
(lp3273
g49
(g50
g51
NtRp3274
(dp3275
g54
(dp3276
g62
I5
ssg63
g3270
sg56
(lp3277
g49
(g58
g51
NtRp3278
(dp3279
g54
(dp3280
g62
I4
ssg63
Nsg56
(lp3281
g49
(g65
g51
NtRp3282
(dp3283
g54
(dp3284
sg63
g3278
sg56
(lp3285
g49
(g70
g51
NtRp3286
(dp3287
g54
(dp3288
sg63
g3282
sg56
(lp3289
g49
(g50
g51
NtRp3290
(dp3291
g54
(dp3292
g62
I4
ssg63
g3286
sg56
(lp3293
S'*'
asbasbasbasbasbasbasbag49
(g65
g51
NtRp3294
(dp3295
g54
(dp3296
sg63
g2946
sg56
(lp3297
g49
(g70
g51
NtRp3298
(dp3299
g54
(dp3300
g74
g75
ssg63
g3294
sg56
(lp3301
S'headers'
p3302
asbag49
(g70
g51
NtRp3303
(dp3304
g54
(dp3305
g81
g82
ssg63
g3294
sg56
(lp3306
S':'
asbag49
(g70
g51
NtRp3307
(dp3308
g54
(dp3309
sg63
g3294
sg56
(lp3310
g49
(g50
g51
NtRp3311
(dp3312
g54
(dp3313
g62
I5
ssg63
g3307
sg56
(lp3314
g49
(g58
g51
NtRp3315
(dp3316
g54
(dp3317
g62
I4
ssg63
Nsg56
(lp3318
g49
(g65
g51
NtRp3319
(dp3320
g54
(dp3321
sg63
g3315
sg56
(lp3322
g49
(g70
g51
NtRp3323
(dp3324
g54
(dp3325
g74
g75
ssg63
g3319
sg56
(lp3326
S'Cache-Control'
p3327
asbag49
(g70
g51
NtRp3328
(dp3329
g54
(dp3330
g81
g82
ssg63
g3319
sg56
(lp3331
S':'
asbag49
(g70
g51
NtRp3332
(dp3333
g54
(dp3334
sg63
g3319
sg56
(lp3335
g49
(g50
g51
NtRp3336
(dp3337
g54
(dp3338
g62
I4
ssg63
g3332
sg56
(lp3339
S'no-store, no-cache, must-revalidate, post-check=0, pre-check=0'
p3340
asbasbasbag49
(g65
g51
NtRp3341
(dp3342
g54
(dp3343
sg63
g3315
sg56
(lp3344
g49
(g70
g51
NtRp3345
(dp3346
g54
(dp3347
g74
g75
ssg63
g3341
sg56
(lp3348
S'Content-Type'
p3349
asbag49
(g70
g51
NtRp3350
(dp3351
g54
(dp3352
g81
g82
ssg63
g3341
sg56
(lp3353
S':'
asbag49
(g70
g51
NtRp3354
(dp3355
g54
(dp3356
sg63
g3341
sg56
(lp3357
g49
(g50
g51
NtRp3358
(dp3359
g54
(dp3360
g62
I4
ssg63
g3354
sg56
(lp3361
S'text/html; charset=utf-8'
p3362
asbasbasbag49
(g65
g51
NtRp3363
(dp3364
g54
(dp3365
sg63
g3315
sg56
(lp3366
g49
(g70
g51
NtRp3367
(dp3368
g54
(dp3369
g74
g75
ssg63
g3363
sg56
(lp3370
S'Expires'
p3371
asbag49
(g70
g51
NtRp3372
(dp3373
g54
(dp3374
g81
g82
ssg63
g3363
sg56
(lp3375
S':'
asbag49
(g70
g51
NtRp3376
(dp3377
g54
(dp3378
sg63
g3363
sg56
(lp3379
g49
(g50
g51
NtRp3380
(dp3381
g54
(dp3382
g62
I4
ssg63
g3376
sg56
(lp3383
S'Thu, 22 Mar 2012 00:00:11 GMT'
p3384
asbasbasbag49
(g65
g51
NtRp3385
(dp3386
g54
(dp3387
sg63
g3315
sg56
(lp3388
g49
(g70
g51
NtRp3389
(dp3390
g54
(dp3391
g74
g75
ssg63
g3385
sg56
(lp3392
S'Pragma'
p3393
asbag49
(g70
g51
NtRp3394
(dp3395
g54
(dp3396
g81
g82
ssg63
g3385
sg56
(lp3397
S':'
asbag49
(g70
g51
NtRp3398
(dp3399
g54
(dp3400
sg63
g3385
sg56
(lp3401
g49
(g50
g51
NtRp3402
(dp3403
g54
(dp3404
g62
I4
ssg63
g3398
sg56
(lp3405
S'no-cache'
p3406
asbasbasbag49
(g65
g51
NtRp3407
(dp3408
g54
(dp3409
sg63
g3315
sg56
(lp3410
g49
(g70
g51
NtRp3411
(dp3412
g54
(dp3413
g74
g75
ssg63
g3407
sg56
(lp3414
S'X-Powered-By'
p3415
asbag49
(g70
g51
NtRp3416
(dp3417
g54
(dp3418
g81
g82
ssg63
g3407
sg56
(lp3419
S':'
asbag49
(g70
g51
NtRp3420
(dp3421
g54
(dp3422
sg63
g3407
sg56
(lp3423
g49
(g50
g51
NtRp3424
(dp3425
g54
(dp3426
g62
I4
ssg63
g3420
sg56
(lp3427
S'web2py'
p3428
asbasbasbasbasbasbasbag49
(g65
g51
NtRp3429
(dp3430
g54
(dp3431
sg63
g2946
sg56
(lp3432
g49
(g70
g51
NtRp3433
(dp3434
g54
(dp3435
g74
g75
ssg63
g3429
sg56
(lp3436
S'menu'
p3437
asbag49
(g70
g51
NtRp3438
(dp3439
g54
(dp3440
g81
g82
ssg63
g3429
sg56
(lp3441
S':'
asbag49
(g70
g51
NtRp3442
(dp3443
g54
(dp3444
sg63
g3429
sg56
(lp3445
g49
(g50
g51
NtRp3446
(dp3447
g54
(dp3448
g62
I5
ssg63
g3442
sg56
(lp3449
g49
(g58
g51
NtRp3450
(dp3451
g54
(dp3452
g62
I4
ssg63
Nsg56
(lp3453
g49
(g65
g51
NtRp3454
(dp3455
g54
(dp3456
sg63
g3450
sg56
(lp3457
g49
(g70
g51
NtRp3458
(dp3459
g54
(dp3460
sg63
g3454
sg56
(lp3461
g49
(g50
g51
NtRp3462
(dp3463
g54
(dp3464
g62
I4
ssg63
g3458
sg56
(lp3465
g49
(g58
g51
NtRp3466
(dp3467
g54
(dp3468
g62
I3
ssg63
Nsg56
(lp3469
g49
(g65
g51
NtRp3470
(dp3471
g54
(dp3472
sg63
g3466
sg56
(lp3473
g49
(g70
g51
NtRp3474
(dp3475
g54
(dp3476
sg63
g3470
sg56
(lp3477
g49
(g50
g51
NtRp3478
(dp3479
g54
(dp3480
g62
I3
ssg63
g3474
sg56
(lp3481
cgluon.languages
lazyT_unpickle
p3482
(S's\x04\x00\x00\x00Home'
tRp3483
asbasbasbag49
(g65
g51
NtRp3484
(dp3485
g54
(dp3486
sg63
g3466
sg56
(lp3487
g49
(g70
g51
NtRp3488
(dp3489
g54
(dp3490
sg63
g3484
sg56
(lp3491
g49
(g50
g51
NtRp3492
(dp3493
g54
(dp3494
g62
I3
ssg63
g3488
sg56
(lp3495
g92
asbasbasbag49
(g65
g51
NtRp3496
(dp3497
g54
(dp3498
sg63
g3466
sg56
(lp3499
g49
(g70
g51
NtRp3500
(dp3501
g54
(dp3502
sg63
g3496
sg56
(lp3503
g49
(g50
g51
NtRp3504
(dp3505
g54
(dp3506
g62
I3
ssg63
g3500
sg56
(lp3507
S'/'
asbasbasbag49
(g65
g51
NtRp3508
(dp3509
g54
(dp3510
sg63
g3466
sg56
(lp3511
g49
(g70
g51
NtRp3512
(dp3513
g54
(dp3514
sg63
g3508
sg56
(lp3515
g49
(g50
g51
NtRp3516
(dp3517
g54
(dp3518
g62
I3
ssg63
g3512
sg56
(lp3519
g49
(g58
g51
NtRp3520
(dp3521
g54
(dp3522
g62
I2
ssg63
Nsg56
(lp3523
sbasbasbasbasbasbasbasbag49
(g65
g51
NtRp3524
(dp3525
g54
(dp3526
sg63
g3450
sg56
(lp3527
g49
(g70
g51
NtRp3528
(dp3529
g54
(dp3530
sg63
g3524
sg56
(lp3531
g49
(g50
g51
NtRp3532
(dp3533
g54
(dp3534
g62
I4
ssg63
g3528
sg56
(lp3535
g49
(g58
g51
NtRp3536
(dp3537
g54
(dp3538
g62
I3
ssg63
Nsg56
(lp3539
g49
(g65
g51
NtRp3540
(dp3541
g54
(dp3542
sg63
g3536
sg56
(lp3543
g49
(g70
g51
NtRp3544
(dp3545
g54
(dp3546
sg63
g3540
sg56
(lp3547
g49
(g50
g51
NtRp3548
(dp3549
g54
(dp3550
g62
I3
ssg63
g3544
sg56
(lp3551
g49
(cgluon.html
SPAN
p3552
g51
NtRp3553
(dp3554
g54
(dp3555
g74
S'color:yellow'
p3556
ssg63
Nsg56
(lp3557
g3428
asbasbasbasbag49
(g65
g51
NtRp3558
(dp3559
g54
(dp3560
sg63
g3536
sg56
(lp3561
g49
(g70
g51
NtRp3562
(dp3563
g54
(dp3564
sg63
g3558
sg56
(lp3565
g49
(g50
g51
NtRp3566
(dp3567
g54
(dp3568
g62
I3
ssg63
g3562
sg56
(lp3569
g92
asbasbasbag49
(g65
g51
NtRp3570
(dp3571
g54
(dp3572
sg63
g3536
sg56
(lp3573
g49
(g70
g51
NtRp3574
(dp3575
g54
(dp3576
sg63
g3570
sg56
(lp3577
g49
(g50
g51
NtRp3578
(dp3579
g54
(dp3580
g62
I3
ssg63
g3574
sg56
(lp3581
S'None'
p3582
asbasbasbag49
(g65
g51
NtRp3583
(dp3584
g54
(dp3585
sg63
g3536
sg56
(lp3586
g49
(g70
g51
NtRp3587
(dp3588
g54
(dp3589
sg63
g3583
sg56
(lp3590
g49
(g50
g51
NtRp3591
(dp3592
g54
(dp3593
g62
I3
ssg63
g3587
sg56
(lp3594
g49
(g58
g51
NtRp3595
(dp3596
g54
(dp3597
g62
I2
ssg63
Nsg56
(lp3598
g49
(g65
g51
NtRp3599
(dp3600
g54
(dp3601
sg63
g3595
sg56
(lp3602
g49
(g70
g51
NtRp3603
(dp3604
g54
(dp3605
sg63
g3599
sg56
(lp3606
g49
(g50
g51
NtRp3607
(dp3608
g54
(dp3609
g62
I2
ssg63
g3603
sg56
(lp3610
g49
(g58
g51
NtRp3611
(dp3612
g54
(dp3613
g62
I1
ssg63
Nsg56
(lp3614
g49
(g65
g51
NtRp3615
(dp3616
g54
(dp3617
sg63
g3611
sg56
(lp3618
g49
(g70
g51
NtRp3619
(dp3620
g54
(dp3621
sg63
g3615
sg56
(lp3622
g49
(g50
g51
NtRp3623
(dp3624
g54
(dp3625
g62
I1
ssg63
g3619
sg56
(lp3626
g3482
(S's\x08\x00\x00\x00My Sites'
tRp3627
asbasbasbag49
(g65
g51
NtRp3628
(dp3629
g54
(dp3630
sg63
g3611
sg56
(lp3631
g49
(g70
g51
NtRp3632
(dp3633
g54
(dp3634
sg63
g3628
sg56
(lp3635
g49
(g50
g51
NtRp3636
(dp3637
g54
(dp3638
g62
I1
ssg63
g3632
sg56
(lp3639
I00
asbasbasbag49
(g65
g51
NtRp3640
(dp3641
g54
(dp3642
sg63
g3611
sg56
(lp3643
g49
(g70
g51
NtRp3644
(dp3645
g54
(dp3646
sg63
g3640
sg56
(lp3647
g49
(g50
g51
NtRp3648
(dp3649
g54
(dp3650
g62
I1
ssg63
g3644
sg56
(lp3651
S'/admin/site'
p3652
asbasbasbasbasbasbasbag49
(g65
g51
NtRp3653
(dp3654
g54
(dp3655
sg63
g3595
sg56
(lp3656
g49
(g70
g51
NtRp3657
(dp3658
g54
(dp3659
sg63
g3653
sg56
(lp3660
g49
(g50
g51
NtRp3661
(dp3662
g54
(dp3663
g62
I2
ssg63
g3657
sg56
(lp3664
g49
(g58
g51
NtRp3665
(dp3666
g54
(dp3667
g62
I1
ssg63
Nsg56
(lp3668
g49
(g65
g51
NtRp3669
(dp3670
g54
(dp3671
sg63
g3665
sg56
(lp3672
g49
(g70
g51
NtRp3673
(dp3674
g54
(dp3675
sg63
g3669
sg56
(lp3676
g49
(g50
g51
NtRp3677
(dp3678
g54
(dp3679
g62
I1
ssg63
g3673
sg56
(lp3680
g3482
(S's\x08\x00\x00\x00This App'
tRp3681
asbasbasbag49
(g65
g51
NtRp3682
(dp3683
g54
(dp3684
sg63
g3665
sg56
(lp3685
g49
(g70
g51
NtRp3686
(dp3687
g54
(dp3688
sg63
g3682
sg56
(lp3689
g49
(g50
g51
NtRp3690
(dp3691
g54
(dp3692
g62
I1
ssg63
g3686
sg56
(lp3693
I00
asbasbasbag49
(g65
g51
NtRp3694
(dp3695
g54
(dp3696
sg63
g3665
sg56
(lp3697
g49
(g70
g51
NtRp3698
(dp3699
g54
(dp3700
sg63
g3694
sg56
(lp3701
g49
(g50
g51
NtRp3702
(dp3703
g54
(dp3704
g62
I1
ssg63
g3698
sg56
(lp3705
S'/admin/design/udi0312'
p3706
asbasbasbag49
(g65
g51
NtRp3707
(dp3708
g54
(dp3709
sg63
g3665
sg56
(lp3710
g49
(g70
g51
NtRp3711
(dp3712
g54
(dp3713
sg63
g3707
sg56
(lp3714
g49
(g50
g51
NtRp3715
(dp3716
g54
(dp3717
g62
I1
ssg63
g3711
sg56
(lp3718
(lp3719
(g3482
(S's\n\x00\x00\x00Controller'
tRp3720
I00
S'/admin/edit/udi0312/controllers/api.py'
tp3721
a(g3482
(S's\x04\x00\x00\x00View'
tRp3722
I00
S'/admin/edit/udi0312/views/api/test.html'
tp3723
a(g3482
(S's\x06\x00\x00\x00Layout'
tRp3724
I00
S'/admin/edit/udi0312/views/layout.html'
tp3725
a(g3482
(S's\n\x00\x00\x00Stylesheet'
tRp3726
I00
S'/admin/edit/udi0312/static/css/web2py.css'
tp3727
a(g3482
(S's\x08\x00\x00\x00DB Model'
tRp3728
I00
S'/admin/edit/udi0312/models/db.py'
tp3729
a(g3482
(S's\n\x00\x00\x00Menu Model'
tRp3730
I00
S'/admin/edit/udi0312/models/menu.py'
tp3731
a(g3482
(S's\x08\x00\x00\x00Database'
tRp3732
I00
S'/appadmin'
tp3733
a(g3482
(S's\x06\x00\x00\x00Errors'
tRp3734
I00
S'/admin/errors/udi0312'
tp3735
a(g3482
(S's\x05\x00\x00\x00About'
tRp3736
I00
S'/admin/about/udi0312'
tp3737
aasbasbasbasbasbasbasbag49
(g65
g51
NtRp3738
(dp3739
g54
(dp3740
sg63
g3595
sg56
(lp3741
g49
(g70
g51
NtRp3742
(dp3743
g54
(dp3744
sg63
g3738
sg56
(lp3745
g49
(g50
g51
NtRp3746
(dp3747
g54
(dp3748
g62
I2
ssg63
g3742
sg56
(lp3749
g49
(g58
g51
NtRp3750
(dp3751
g54
(dp3752
g62
I1
ssg63
Nsg56
(lp3753
g49
(g65
g51
NtRp3754
(dp3755
g54
(dp3756
sg63
g3750
sg56
(lp3757
g49
(g70
g51
NtRp3758
(dp3759
g54
(dp3760
sg63
g3754
sg56
(lp3761
g49
(g50
g51
NtRp3762
(dp3763
g54
(dp3764
g62
I1
ssg63
g3758
sg56
(lp3765
S'web2py.com'
p3766
asbasbasbag49
(g65
g51
NtRp3767
(dp3768
g54
(dp3769
sg63
g3750
sg56
(lp3770
g49
(g70
g51
NtRp3771
(dp3772
g54
(dp3773
sg63
g3767
sg56
(lp3774
g49
(g50
g51
NtRp3775
(dp3776
g54
(dp3777
g62
I1
ssg63
g3771
sg56
(lp3778
I00
asbasbasbag49
(g65
g51
NtRp3779
(dp3780
g54
(dp3781
sg63
g3750
sg56
(lp3782
g49
(g70
g51
NtRp3783
(dp3784
g54
(dp3785
sg63
g3779
sg56
(lp3786
g49
(g50
g51
NtRp3787
(dp3788
g54
(dp3789
g62
I1
ssg63
g3783
sg56
(lp3790
S'http://www.web2py.com'
p3791
asbasbasbag49
(g65
g51
NtRp3792
(dp3793
g54
(dp3794
sg63
g3750
sg56
(lp3795
g49
(g70
g51
NtRp3796
(dp3797
g54
(dp3798
sg63
g3792
sg56
(lp3799
g49
(g50
g51
NtRp3800
(dp3801
g54
(dp3802
g62
I1
ssg63
g3796
sg56
(lp3803
(lp3804
(g3482
(S's\x08\x00\x00\x00Download'
tRp3805
I00
S'http://www.web2py.com/examples/default/download'
p3806
tp3807
a(g3482
(S's\x07\x00\x00\x00Support'
tRp3808
I00
S'http://www.web2py.com/examples/default/support'
p3809
tp3810
a(g3482
(S's\x04\x00\x00\x00Demo'
tRp3811
I00
S'http://web2py.com/demo_admin'
p3812
tp3813
a(g3482
(S's\x0e\x00\x00\x00Quick Examples'
tRp3814
I00
S'http://web2py.com/examples/default/examples'
p3815
tp3816
a(g3482
(S's\x03\x00\x00\x00FAQ'
tRp3817
I00
S'http://web2py.com/AlterEgo'
p3818
tp3819
a(g3482
(S's\x06\x00\x00\x00Videos'
tRp3820
I00
S'http://www.web2py.com/examples/default/videos/'
p3821
tp3822
a(g3482
(S's\x11\x00\x00\x00Free Applications'
tRp3823
I00
S'http://web2py.com/appliances'
p3824
tp3825
a(g3482
(S's\x07\x00\x00\x00Plugins'
tRp3826
I00
S'http://web2py.com/plugins'
p3827
tp3828
a(g3482
(S's\x07\x00\x00\x00Layouts'
tRp3829
I00
S'http://web2py.com/layouts'
p3830
tp3831
a(g3482
(S's\x07\x00\x00\x00Recipes'
tRp3832
I00
S'http://web2pyslices.com/'
p3833
tp3834
a(g3482
(S's\x08\x00\x00\x00Semantic'
tRp3835
I00
S'http://web2py.com/semantic'
p3836
tp3837
aasbasbasbasbasbasbasbag49
(g65
g51
NtRp3838
(dp3839
g54
(dp3840
sg63
g3595
sg56
(lp3841
g49
(g70
g51
NtRp3842
(dp3843
g54
(dp3844
sg63
g3838
sg56
(lp3845
g49
(g50
g51
NtRp3846
(dp3847
g54
(dp3848
g62
I2
ssg63
g3842
sg56
(lp3849
g49
(g58
g51
NtRp3850
(dp3851
g54
(dp3852
g62
I1
ssg63
Nsg56
(lp3853
g49
(g65
g51
NtRp3854
(dp3855
g54
(dp3856
sg63
g3850
sg56
(lp3857
g49
(g70
g51
NtRp3858
(dp3859
g54
(dp3860
sg63
g3854
sg56
(lp3861
g49
(g50
g51
NtRp3862
(dp3863
g54
(dp3864
g62
I1
ssg63
g3858
sg56
(lp3865
g3482
(S's\r\x00\x00\x00Documentation'
tRp3866
asbasbasbag49
(g65
g51
NtRp3867
(dp3868
g54
(dp3869
sg63
g3850
sg56
(lp3870
g49
(g70
g51
NtRp3871
(dp3872
g54
(dp3873
sg63
g3867
sg56
(lp3874
g49
(g50
g51
NtRp3875
(dp3876
g54
(dp3877
g62
I1
ssg63
g3871
sg56
(lp3878
I00
asbasbasbag49
(g65
g51
NtRp3879
(dp3880
g54
(dp3881
sg63
g3850
sg56
(lp3882
g49
(g70
g51
NtRp3883
(dp3884
g54
(dp3885
sg63
g3879
sg56
(lp3886
g49
(g50
g51
NtRp3887
(dp3888
g54
(dp3889
g62
I1
ssg63
g3883
sg56
(lp3890
S'http://www.web2py.com/book'
p3891
asbasbasbag49
(g65
g51
NtRp3892
(dp3893
g54
(dp3894
sg63
g3850
sg56
(lp3895
g49
(g70
g51
NtRp3896
(dp3897
g54
(dp3898
sg63
g3892
sg56
(lp3899
g49
(g50
g51
NtRp3900
(dp3901
g54
(dp3902
g62
I1
ssg63
g3896
sg56
(lp3903
(lp3904
(g3482
(S's\x07\x00\x00\x00Preface'
tRp3905
I00
S'http://www.web2py.com/book/default/chapter/00'
p3906
tp3907
a(g3482
(S's\x0c\x00\x00\x00Introduction'
tRp3908
I00
S'http://www.web2py.com/book/default/chapter/01'
p3909
tp3910
a(g3482
(S's\x06\x00\x00\x00Python'
tRp3911
I00
S'http://www.web2py.com/book/default/chapter/02'
p3912
tp3913
a(g3482
(S's\x08\x00\x00\x00Overview'
tRp3914
I00
S'http://www.web2py.com/book/default/chapter/03'
p3915
tp3916
a(g3482
(S's\x08\x00\x00\x00The Core'
tRp3917
I00
S'http://www.web2py.com/book/default/chapter/04'
p3918
tp3919
a(g3482
(S's\t\x00\x00\x00The Views'
tRp3920
I00
S'http://www.web2py.com/book/default/chapter/05'
p3921
tp3922
a(g3482
(S's\x08\x00\x00\x00Database'
tRp3923
I00
S'http://www.web2py.com/book/default/chapter/06'
p3924
tp3925
a(g3482
(S's\x14\x00\x00\x00Forms and Validators'
tRp3926
I00
S'http://www.web2py.com/book/default/chapter/07'
p3927
tp3928
a(g3482
(S's\r\x00\x00\x00Email and SMS'
tRp3929
I00
S'http://www.web2py.com/book/default/chapter/08'
p3930
tp3931
a(g3482
(S's\x0e\x00\x00\x00Access Control'
tRp3932
I00
S'http://www.web2py.com/book/default/chapter/09'
p3933
tp3934
a(g3482
(S's\x08\x00\x00\x00Services'
tRp3935
I00
S'http://www.web2py.com/book/default/chapter/10'
p3936
tp3937
a(g3482
(S's\x0c\x00\x00\x00Ajax Recipes'
tRp3938
I00
S'http://www.web2py.com/book/default/chapter/11'
p3939
tp3940
a(g3482
(S's\x16\x00\x00\x00Components and Plugins'
tRp3941
I00
S'http://www.web2py.com/book/default/chapter/12'
p3942
tp3943
a(g3482
(S's\x12\x00\x00\x00Deployment Recipes'
tRp3944
I00
S'http://www.web2py.com/book/default/chapter/13'
p3945
tp3946
a(g3482
(S's\r\x00\x00\x00Other Recipes'
tRp3947
I00
S'http://www.web2py.com/book/default/chapter/14'
p3948
tp3949
a(g3482
(S's\r\x00\x00\x00Buy this book'
tRp3950
I00
S'http://stores.lulu.com/web2py'
p3951
tp3952
aasbasbasbasbasbasbasbag49
(g65
g51
NtRp3953
(dp3954
g54
(dp3955
sg63
g3595
sg56
(lp3956
g49
(g70
g51
NtRp3957
(dp3958
g54
(dp3959
sg63
g3953
sg56
(lp3960
g49
(g50
g51
NtRp3961
(dp3962
g54
(dp3963
g62
I2
ssg63
g3957
sg56
(lp3964
g49
(g58
g51
NtRp3965
(dp3966
g54
(dp3967
g62
I1
ssg63
Nsg56
(lp3968
g49
(g65
g51
NtRp3969
(dp3970
g54
(dp3971
sg63
g3965
sg56
(lp3972
g49
(g70
g51
NtRp3973
(dp3974
g54
(dp3975
sg63
g3969
sg56
(lp3976
g49
(g50
g51
NtRp3977
(dp3978
g54
(dp3979
g62
I1
ssg63
g3973
sg56
(lp3980
g3482
(S's\t\x00\x00\x00Community'
tRp3981
asbasbasbag49
(g65
g51
NtRp3982
(dp3983
g54
(dp3984
sg63
g3965
sg56
(lp3985
g49
(g70
g51
NtRp3986
(dp3987
g54
(dp3988
sg63
g3982
sg56
(lp3989
g49
(g50
g51
NtRp3990
(dp3991
g54
(dp3992
g62
I1
ssg63
g3986
sg56
(lp3993
I00
asbasbasbag49
(g65
g51
NtRp3994
(dp3995
g54
(dp3996
sg63
g3965
sg56
(lp3997
g49
(g70
g51
NtRp3998
(dp3999
g54
(dp4000
sg63
g3994
sg56
(lp4001
g49
(g50
g51
NtRp4002
(dp4003
g54
(dp4004
g62
I1
ssg63
g3998
sg56
(lp4005
Nasbasbasbag49
(g65
g51
NtRp4006
(dp4007
g54
(dp4008
sg63
g3965
sg56
(lp4009
g49
(g70
g51
NtRp4010
(dp4011
g54
(dp4012
sg63
g4006
sg56
(lp4013
g49
(g50
g51
NtRp4014
(dp4015
g54
(dp4016
g62
I1
ssg63
g4010
sg56
(lp4017
(lp4018
(g3482
(S's\x06\x00\x00\x00Groups'
tRp4019
I00
S'http://www.web2py.com/examples/default/usergroups'
p4020
tp4021
a(g3482
(S's\x07\x00\x00\x00Twitter'
tRp4022
I00
S'http://twitter.com/web2py'
p4023
tp4024
a(g3482
(S's\t\x00\x00\x00Live Chat'
tRp4025
I00
S'http://webchat.freenode.net/?channels=web2py'
p4026
tp4027
aasbasbasbasbasbasbasbag49
(g65
g51
NtRp4028
(dp4029
g54
(dp4030
sg63
g3595
sg56
(lp4031
g49
(g70
g51
NtRp4032
(dp4033
g54
(dp4034
sg63
g4028
sg56
(lp4035
g49
(g50
g51
NtRp4036
(dp4037
g54
(dp4038
g62
I2
ssg63
g4032
sg56
(lp4039
g49
(g58
g51
NtRp4040
(dp4041
g54
(dp4042
g62
I1
ssg63
Nsg56
(lp4043
g49
(g65
g51
NtRp4044
(dp4045
g54
(dp4046
sg63
g4040
sg56
(lp4047
g49
(g70
g51
NtRp4048
(dp4049
g54
(dp4050
sg63
g4044
sg56
(lp4051
g49
(g50
g51
NtRp4052
(dp4053
g54
(dp4054
g62
I1
ssg63
g4048
sg56
(lp4055
g3482
(S's\x07\x00\x00\x00Plugins'
tRp4056
asbasbasbag49
(g65
g51
NtRp4057
(dp4058
g54
(dp4059
sg63
g4040
sg56
(lp4060
g49
(g70
g51
NtRp4061
(dp4062
g54
(dp4063
sg63
g4057
sg56
(lp4064
g49
(g50
g51
NtRp4065
(dp4066
g54
(dp4067
g62
I1
ssg63
g4061
sg56
(lp4068
I00
asbasbasbag49
(g65
g51
NtRp4069
(dp4070
g54
(dp4071
sg63
g4040
sg56
(lp4072
g49
(g70
g51
NtRp4073
(dp4074
g54
(dp4075
sg63
g4069
sg56
(lp4076
g49
(g50
g51
NtRp4077
(dp4078
g54
(dp4079
g62
I1
ssg63
g4073
sg56
(lp4080
Nasbasbasbag49
(g65
g51
NtRp4081
(dp4082
g54
(dp4083
sg63
g4040
sg56
(lp4084
g49
(g70
g51
NtRp4085
(dp4086
g54
(dp4087
sg63
g4081
sg56
(lp4088
g49
(g50
g51
NtRp4089
(dp4090
g54
(dp4091
g62
I1
ssg63
g4085
sg56
(lp4092
(lp4093
(S'plugin_wiki'
p4094
I00
S'http://web2py.com/examples/default/download'
p4095
tp4096
a(g3482
(S's\r\x00\x00\x00Other Plugins'
tRp4097
I00
g3827
tp4098
a(g3482
(S's\x0e\x00\x00\x00Layout Plugins'
tRp4099
I00
g3830
tp4100
aasbasbasbasbasbasbasbasbasbasbasbasbasbasbasbasbasbasbasbag49
(g65
g51
NtRp4101
(dp4102
g54
(dp4103
sg63
g2946
sg56
(lp4104
g49
(g70
g51
NtRp4105
(dp4106
g54
(dp4107
g74
g75
ssg63
g4101
sg56
(lp4108
S'meta'
p4109
asbag49
(g70
g51
NtRp4110
(dp4111
g54
(dp4112
g81
g82
ssg63
g4101
sg56
(lp4113
S':'
asbag49
(g70
g51
NtRp4114
(dp4115
g54
(dp4116
sg63
g4101
sg56
(lp4117
g49
(g50
g51
NtRp4118
(dp4119
g54
(dp4120
g62
I5
ssg63
g4114
sg56
(lp4121
g49
(g58
g51
NtRp4122
(dp4123
g54
(dp4124
g62
I4
ssg63
Nsg56
(lp4125
g49
(g65
g51
NtRp4126
(dp4127
g54
(dp4128
sg63
g4122
sg56
(lp4129
g49
(g70
g51
NtRp4130
(dp4131
g54
(dp4132
g74
g75
ssg63
g4126
sg56
(lp4133
S'author'
p4134
asbag49
(g70
g51
NtRp4135
(dp4136
g54
(dp4137
g81
g82
ssg63
g4126
sg56
(lp4138
S':'
asbag49
(g70
g51
NtRp4139
(dp4140
g54
(dp4141
sg63
g4126
sg56
(lp4142
g49
(g50
g51
NtRp4143
(dp4144
g54
(dp4145
g62
I4
ssg63
g4139
sg56
(lp4146
S'Udi Milo'
p4147
asbasbasbag49
(g65
g51
NtRp4148
(dp4149
g54
(dp4150
sg63
g4122
sg56
(lp4151
g49
(g70
g51
NtRp4152
(dp4153
g54
(dp4154
g74
g75
ssg63
g4148
sg56
(lp4155
S'description'
p4156
asbag49
(g70
g51
NtRp4157
(dp4158
g54
(dp4159
g81
g82
ssg63
g4148
sg56
(lp4160
S':'
asbag49
(g70
g51
NtRp4161
(dp4162
g54
(dp4163
sg63
g4148
sg56
(lp4164
g49
(g50
g51
NtRp4165
(dp4166
g54
(dp4167
g62
I4
ssg63
g4161
sg56
(lp4168
S'Curate, organize and share your web resources'
p4169
asbasbasbasbasbasbasbag49
(g65
g51
NtRp4170
(dp4171
g54
(dp4172
sg63
g2946
sg56
(lp4173
g49
(g70
g51
NtRp4174
(dp4175
g54
(dp4176
g74
g75
ssg63
g4170
sg56
(lp4177
S'postprocessing'
p4178
asbag49
(g70
g51
NtRp4179
(dp4180
g54
(dp4181
g81
g82
ssg63
g4170
sg56
(lp4182
S':'
asbag49
(g70
g51
NtRp4183
(dp4184
g54
(dp4185
sg63
g4170
sg56
(lp4186
g49
(g50
g51
NtRp4187
(dp4188
g54
(dp4189
g62
I5
ssg63
g4183
sg56
(lp4190
g49
(g58
g51
NtRp4191
(dp4192
g54
(dp4193
g62
I4
ssg63
Nsg56
(lp4194
sbasbasbasbag49
(g65
g51
NtRp4195
(dp4196
g54
(dp4197
sg63
g2946
sg56
(lp4198
g49
(g70
g51
NtRp4199
(dp4200
g54
(dp4201
g74
g75
ssg63
g4195
sg56
(lp4202
S'session_filename'
p4203
asbag49
(g70
g51
NtRp4204
(dp4205
g54
(dp4206
g81
g82
ssg63
g4195
sg56
(lp4207
S':'
asbag49
(g70
g51
NtRp4208
(dp4209
g54
(dp4210
sg63
g4195
sg56
(lp4211
g49
(g50
g51
NtRp4212
(dp4213
g54
(dp4214
g62
I5
ssg63
g4208
sg56
(lp4215
S'/Users/udimilo/Documents/web2py/applications/udi0312/sessions/127.0.0.1-be5f784a-7afd-477a-8fd1-9cc71a51482f'
p4216
asbasbasbag49
(g65
g51
NtRp4217
(dp4218
g54
(dp4219
sg63
g2946
sg56
(lp4220
g49
(g70
g51
NtRp4221
(dp4222
g54
(dp4223
g74
g75
ssg63
g4217
sg56
(lp4224
S'session_id'
p4225
asbag49
(g70
g51
NtRp4226
(dp4227
g54
(dp4228
g81
g82
ssg63
g4217
sg56
(lp4229
S':'
asbag49
(g70
g51
NtRp4230
(dp4231
g54
(dp4232
sg63
g4217
sg56
(lp4233
g49
(g50
g51
NtRp4234
(dp4235
g54
(dp4236
g62
I5
ssg63
g4230
sg56
(lp4237
S'127.0.0.1-be5f784a-7afd-477a-8fd1-9cc71a51482f'
p4238
asbasbasbag49
(g65
g51
NtRp4239
(dp4240
g54
(dp4241
sg63
g2946
sg56
(lp4242
g49
(g70
g51
NtRp4243
(dp4244
g54
(dp4245
g74
g75
ssg63
g4239
sg56
(lp4246
S'session_id_name'
p4247
asbag49
(g70
g51
NtRp4248
(dp4249
g54
(dp4250
g81
g82
ssg63
g4239
sg56
(lp4251
S':'
asbag49
(g70
g51
NtRp4252
(dp4253
g54
(dp4254
sg63
g4239
sg56
(lp4255
g49
(g50
g51
NtRp4256
(dp4257
g54
(dp4258
g62
I5
ssg63
g4252
sg56
(lp4259
g3003
asbasbasbag49
(g65
g51
NtRp4260
(dp4261
g54
(dp4262
sg63
g2946
sg56
(lp4263
g49
(g70
g51
NtRp4264
(dp4265
g54
(dp4266
g74
g75
ssg63
g4260
sg56
(lp4267
S'session_new'
p4268
asbag49
(g70
g51
NtRp4269
(dp4270
g54
(dp4271
g81
g82
ssg63
g4260
sg56
(lp4272
S':'
asbag49
(g70
g51
NtRp4273
(dp4274
g54
(dp4275
sg63
g4260
sg56
(lp4276
g49
(g50
g51
NtRp4277
(dp4278
g54
(dp4279
g62
I5
ssg63
g4273
sg56
(lp4280
g1487
asbasbasbag49
(g65
g51
NtRp4281
(dp4282
g54
(dp4283
sg63
g2946
sg56
(lp4284
g49
(g70
g51
NtRp4285
(dp4286
g54
(dp4287
g74
g75
ssg63
g4281
sg56
(lp4288
S'status'
p4289
asbag49
(g70
g51
NtRp4290
(dp4291
g54
(dp4292
g81
g82
ssg63
g4281
sg56
(lp4293
S':'
asbag49
(g70
g51
NtRp4294
(dp4295
g54
(dp4296
sg63
g4281
sg56
(lp4297
g49
(g50
g51
NtRp4298
(dp4299
g54
(dp4300
g62
I5
ssg63
g4294
sg56
(lp4301
S'200'
p4302
asbasbasbag49
(g65
g51
NtRp4303
(dp4304
g54
(dp4305
sg63
g2946
sg56
(lp4306
g49
(g70
g51
NtRp4307
(dp4308
g54
(dp4309
g74
g75
ssg63
g4303
sg56
(lp4310
S'title'
p4311
asbag49
(g70
g51
NtRp4312
(dp4313
g54
(dp4314
g81
g82
ssg63
g4303
sg56
(lp4315
S':'
asbag49
(g70
g51
NtRp4316
(dp4317
g54
(dp4318
sg63
g4303
sg56
(lp4319
g49
(g50
g51
NtRp4320
(dp4321
g54
(dp4322
g62
I5
ssg63
g4316
sg56
(lp4323
S'inFormation - Curate The Web'
p4324
asbasbasbag49
(g65
g51
NtRp4325
(dp4326
g54
(dp4327
sg63
g2946
sg56
(lp4328
g49
(g70
g51
NtRp4329
(dp4330
g54
(dp4331
g74
g75
ssg63
g4325
sg56
(lp4332
g2151
asbag49
(g70
g51
NtRp4333
(dp4334
g54
(dp4335
g81
g82
ssg63
g4325
sg56
(lp4336
S':'
asbag49
(g70
g51
NtRp4337
(dp4338
g54
(dp4339
sg63
g4325
sg56
(lp4340
g49
(g50
g51
NtRp4341
(dp4342
g54
(dp4343
g62
I5
ssg63
g4337
sg56
(lp4344
g2164
asbasbasbag49
(g65
g51
NtRp4345
(dp4346
g54
(dp4347
sg63
g2946
sg56
(lp4348
g49
(g70
g51
NtRp4349
(dp4350
g54
(dp4351
g74
g75
ssg63
g4345
sg56
(lp4352
S'view'
p4353
asbag49
(g70
g51
NtRp4354
(dp4355
g54
(dp4356
g81
g82
ssg63
g4345
sg56
(lp4357
S':'
asbag49
(g70
g51
NtRp4358
(dp4359
g54
(dp4360
sg63
g4345
sg56
(lp4361
g49
(g50
g51
NtRp4362
(dp4363
g54
(dp4364
g62
I5
ssg63
g4358
sg56
(lp4365
S'api/test.html'
p4366
asbasbasbasbasbsS'locals'
p4367
(dp4368
S'board_ids'
p4369
S'set([6, 7, 8, 11, 12])'
p4370
sS'boards'
p4371
S'<gluon.dal.Rows object at 0x9decf30>'
p4372
sS'original_pins'
p4373
S'<gluon.dal.Rows object at 0xa11b2d0>'
p4374
sS'original_ids'
p4375
S'set([None, 26, 38])'
p4376
sS'p'
S"<Row {'pin': <gluon.dal.Set object at 0xa148150>...elete_record': <function <lambda> at 0xa99ce70>}>"
p4377
sS'user_ids'
p4378
S'set([1])'
p4379
sS'result'
p4380
g39
sS'pins'
p4381
S"[<Row {'pin': <gluon.dal.Set object at 0xa148810>...elete_record': <function <lambda> at 0xa99c630>}>, <Row {'pin': <gluon.dal.Set object at 0xa148450>...elete_record': <function <lambda> at 0xa99c9f0>}>, <Row {'pin': <gluon.dal.Set object at 0xa11b250>...elete_record': <function <lambda> at 0xa99cef0>}>, <Row {'pin': <gluon.dal.Set object at 0xa11ba10>...elete_record': <function <lambda> at 0xa99c7f0>}>, <Row {'pin': <gluon.dal.Set object at 0xa11b8b0>...elete_record': <function <lambda> at 0xa99cc70>}>, <Row {'pin': <gluon.dal.Set object at 0xa11bc70>...elete_record': <function <lambda> at 0xa99c2f0>}>, <Row {'pin': <gluon.dal.Set object at 0xa7202f0>...elete_record': <function <lambda> at 0xa99c7b0>}>, <Row {'pin': <gluon.dal.Set object at 0xa720ad0>...elete_record': <function <lambda> at 0xa99c8f0>}>, <Row {'pin': <gluon.dal.Set object at 0xa7200d0>...elete_record': <function <lambda> at 0xa99c930>}>, <Row {'pin': <gluon.dal.Set object at 0xa289b90>...elete_record': <function <lambda> at 0xa99c070>}>, <Row {'pin': <gluon.dal.Set object at 0xa163670>...elete_record': <function <lambda> at 0xa99cc30>}>, <Row {'pin': <gluon.dal.Set object at 0xa163890>...elete_record': <function <lambda> at 0xa99c570>}>, <Row {'pin': <gluon.dal.Set object at 0xa163490>...elete_record': <function <lambda> at 0xa99c0f0>}>, <Row {'pin': <gluon.dal.Set object at 0xa148150>...elete_record': <function <lambda> at 0xa99ce70>}>, <Row {'pin': <gluon.dal.Set object at 0xa2942b0>...elete_record': <function <lambda> at 0xa0eab30>}>, <Row {'pin': <gluon.dal.Set object at 0xa2946d0>...elete_record': <function <lambda> at 0xa0ea9f0>}>, <Row {'pin': <gluon.dal.Set object at 0xa2947f0>...elete_record': <function <lambda> at 0xa0ea530>}>, <Row {'pin': <gluon.dal.Set object at 0xa294070>...elete_record': <function <lambda> at 0xa0eabb0>}>, <Row {'pin': <gluon.dal.Set object at 0xa294a50>...elete_record': <function <lambda> at 0xa0ea3f0>}>, <Row {'pin': <gluon.dal.Set object at 0xa294d30>...elete_record': <function <lambda> at 0xa0ea330>}>, ...]"
p4382
sS'article'
p4383
S'<gluon.dal.Rows object at 0xa298850>'
p4384
sS'article_ids'
p4385
S'[164, 165, 169, 170, 171, 172, 173, 174, 150, 156]'
p4386
sS'unique'
p4387
S"{16: <Row {'pin': <gluon.dal.Set object at 0xa148810>...elete_record': <function <lambda> at 0xa99c630>}>, 26: <Row {'pin': <gluon.dal.Set object at 0xa148450>...elete_record': <function <lambda> at 0xa99c9f0>}>, 27: <Row {'pin': <gluon.dal.Set object at 0xa11b250>...elete_record': <function <lambda> at 0xa99cef0>}>, 28: <Row {'pin': <gluon.dal.Set object at 0xa11ba10>...elete_record': <function <lambda> at 0xa99c7f0>}>, 29: <Row {'pin': <gluon.dal.Set object at 0xa11b8b0>...elete_record': <function <lambda> at 0xa99cc70>}>, 30: <Row {'pin': <gluon.dal.Set object at 0xa11bc70>...elete_record': <function <lambda> at 0xa99c2f0>}>, 31: <Row {'pin': <gluon.dal.Set object at 0xa7202f0>...elete_record': <function <lambda> at 0xa99c7b0>}>, 32: <Row {'pin': <gluon.dal.Set object at 0xa720ad0>...elete_record': <function <lambda> at 0xa99c8f0>}>, 33: <Row {'pin': <gluon.dal.Set object at 0xa7200d0>...elete_record': <function <lambda> at 0xa99c930>}>, 34: <Row {'pin': <gluon.dal.Set object at 0xa289b90>...elete_record': <function <lambda> at 0xa99c070>}>, ...}"
p4388
sS'users'
p4389
S'<gluon.dal.Rows object at 0xa163970>'
p4390
sssS'traceback'
p4391
S'Traceback (most recent call last):\n  File "/users/udimilo/Documents/web2py/gluon/restricted.py", line 205, in restricted\n    exec ccode in environment\n  File "/Users/udimilo/Documents/web2py/applications/udi0312/controllers/api.py", line 89, in <module>\n  File "/users/udimilo/Documents/web2py/gluon/globals.py", line 173, in <lambda>\n    self._caller = lambda f: f()\n  File "/Users/udimilo/Documents/web2py/applications/udi0312/controllers/api.py", line 34, in test\n    result.x = 1\nAttributeError: \'dict\' object has no attribute \'x\'\n'
p4392
s.