(dp1
S'output'
p2
S"<type 'exceptions.AttributeError'> 'NoneType' object has no attribute 'id'"
p3
sS'layer'
p4
S'/Users/udimilo/Documents/web2py/applications/udi0312/controllers/api.py'
p5
sS'code'
p6
S"# coding: utf8\nimport re\nimport time\nfrom readability import Readability\nimport feedparser\nimport urllib2\n\n@cache('a', 5)\ndef f():\n    return time.ctime()\n\ndef test():\n    rss = db().select(db.rss_feed.ALL)\n    for r in rss:\n        d = feedparser.parse(r.url)\n        return d\n    return 'a'\n                 \ndef fix():\n    pins = db().select(db.pin.ALL)\n    for p in pins:\n        p.board_name = p.board.name\n        p.user = p.board.user\n        p.user_name = p.board.user.first_name + ' ' + p.board.user.last_name\n        p.article_title = p.article.title\n        p.article_content = p.article.content\n        p.article_domain = p.article.domain\n        p.article_media_thumbnail = p.article.media_thumbnail\n        p.article_excerpt = p.article.excerpt\n        p.update_record()\n    return pins\n\ndef add_repin():\n    pin_id = request.vars.id\n    pin = db.pin(pin_id)\n\n    board_id = request.vars.repin_board\n    board = db.board(board_id)\n    \n    new_pin = db((db.pin.article==pin.article.id)&(db.pin.board==board.id)).select().first()\n    if new_pin is None:\n        new_pin = db.pin.insert(\n            original_pin=pin.id,\n            article=pin.article,\n            article_title = pin.article_title,\n            article_content = pin.article_content,\n            article_domain = pin.article_domain,\n            article_media_thumbnail = pin.article_media_thumbnail,\n            article_excerpt = pin.article_excerpt,\n            board=board.id,\n            board_name=board.name,\n            user = board.user,\n            user_name = board.user.first_name + ' ' + board.user.last_name,\n            )\n    \n    return 'reload'\n    \ndef add_board():\n    name = request.vars.name\n    if re.match('(^[\\w\\s.-]+$)', name): #sanitize the name\n        category = db.category(request.vars.category)\n        board = db.board.insert(user=auth.user.id, category=category.id, name=name)\n        return board.id\n\n    return 'please use only alpha numeric characters'\n    \ndef add_article():\n    url = request.vars.url    \n    board = db.board(request.vars.board)\n    article = db(db.article.url == url).select().first()\n    if article is None:\n        r = Readability()\n        json = r.content(url)\n        article = db.article.insert(\n            height=300,\n            url=json['url'],\n            readability_url=json['short_url'],\n            title=json['title'],\n            content=json['content'],\n            domain=json['domain'],\n            author=json['author'],\n            excerpt=json['excerpt'],\n            word_count=json['word_count'],\n            total_pages=json['total_pages'],\n            date_published=json['date_published'],\n            next_page_id=json['next_page_id'],\n            rendered_pages=json['rendered_pages'],            \n        )\n    \n    pin = db((db.pin.board == board.id) & (db.pin.article == article.id)).select().first()\n    if pin is None:\n        new_pin = db.pin.insert(\n            article=article.id, \n            article_title = article.title,\n            article_content = article.content,\n            article_domain = article.domain,\n            board=board.id,\n            board_name=board.name,\n            user = board.user,\n            user_name = board.user.first_name + ' ' + board.user.last_name,\n            )\n    \n    return new_pin.id\n\nresponse._vars=response._caller(add_article)\n"
p7
sS'snapshot'
p8
(dp9
S'exception'
p10
(dp11
S'__hash__'
p12
S"<method-wrapper '__hash__' of exceptions.AttributeError object at 0xa7a2620>"
p13
sS'__setattr__'
p14
S"<method-wrapper '__setattr__' of exceptions.AttributeError object at 0xa7a2620>"
p15
sS'__reduce_ex__'
p16
S'<built-in method __reduce_ex__ of exceptions.AttributeError object at 0xa7a2620>'
p17
sS'__getslice__'
p18
S"<method-wrapper '__getslice__' of exceptions.AttributeError object at 0xa7a2620>"
p19
sS'__getitem__'
p20
S"<method-wrapper '__getitem__' of exceptions.AttributeError object at 0xa7a2620>"
p21
sS'__setstate__'
p22
S'<built-in method __setstate__ of exceptions.AttributeError object at 0xa7a2620>'
p23
sS'__reduce__'
p24
S'<built-in method __reduce__ of exceptions.AttributeError object at 0xa7a2620>'
p25
sS'__str__'
p26
S"<method-wrapper '__str__' of exceptions.AttributeError object at 0xa7a2620>"
p27
sS'args'
p28
S'("\'NoneType\' object has no attribute \'id\'",)'
p29
sS'__getattribute__'
p30
S"<method-wrapper '__getattribute__' of exceptions.AttributeError object at 0xa7a2620>"
p31
sS'__class__'
p32
S"<type 'exceptions.AttributeError'>"
p33
sS'__delattr__'
p34
S"<method-wrapper '__delattr__' of exceptions.AttributeError object at 0xa7a2620>"
p35
sS'__repr__'
p36
S"<method-wrapper '__repr__' of exceptions.AttributeError object at 0xa7a2620>"
p37
sS'__dict__'
p38
S'{}'
p39
sS'__doc__'
p40
S"'Attribute not found.'"
p41
sS'__init__'
p42
S"<method-wrapper '__init__' of exceptions.AttributeError object at 0xa7a2620>"
p43
sS'__new__'
p44
S'<built-in method __new__ of type object at 0x1004a0>'
p45
ssS'evalue'
p46
S"'NoneType' object has no attribute 'id'"
p47
sS'request'
p48
ccopy_reg
_reconstructor
p49
(cgluon.html
BEAUTIFY
p50
c__builtin__
object
p51
NtRp52
(dp53
S'attributes'
p54
(dp55
sS'components'
p56
(lp57
g49
(cgluon.html
TABLE
p58
g51
NtRp59
(dp60
g54
(dp61
S'level'
p62
I5
ssS'parent'
p63
Nsg56
(lp64
g49
(cgluon.html
TR
p65
g51
NtRp66
(dp67
g54
(dp68
sg63
g59
sg56
(lp69
g49
(cgluon.html
TD
p70
g51
NtRp71
(dp72
g54
(dp73
S'_style'
p74
S'font-weight:bold;vertical-align:top'
p75
ssg63
g66
sg56
(lp76
S'ajax'
p77
asbag49
(g70
g51
NtRp78
(dp79
g54
(dp80
S'_valign'
p81
S'top'
p82
ssg63
g66
sg56
(lp83
S':'
asbag49
(g70
g51
NtRp84
(dp85
g54
(dp86
sg63
g66
sg56
(lp87
g49
(g50
g51
NtRp88
(dp89
g54
(dp90
g62
I5
ssg63
g84
sg56
(lp91
S'False'
p92
asbasbasbag49
(g65
g51
NtRp93
(dp94
g54
(dp95
sg63
g59
sg56
(lp96
g49
(g70
g51
NtRp97
(dp98
g54
(dp99
g74
g75
ssg63
g93
sg56
(lp100
S'application'
p101
asbag49
(g70
g51
NtRp102
(dp103
g54
(dp104
g81
g82
ssg63
g93
sg56
(lp105
S':'
asbag49
(g70
g51
NtRp106
(dp107
g54
(dp108
sg63
g93
sg56
(lp109
g49
(g50
g51
NtRp110
(dp111
g54
(dp112
g62
I5
ssg63
g106
sg56
(lp113
S'udi0312'
p114
asbasbasbag49
(g65
g51
NtRp115
(dp116
g54
(dp117
sg63
g59
sg56
(lp118
g49
(g70
g51
NtRp119
(dp120
g54
(dp121
g74
g75
ssg63
g115
sg56
(lp122
g28
asbag49
(g70
g51
NtRp123
(dp124
g54
(dp125
g81
g82
ssg63
g115
sg56
(lp126
S':'
asbag49
(g70
g51
NtRp127
(dp128
g54
(dp129
sg63
g115
sg56
(lp130
g49
(g50
g51
NtRp131
(dp132
g54
(dp133
g62
I5
ssg63
g127
sg56
(lp134
g49
(g58
g51
NtRp135
(dp136
g54
(dp137
g62
I4
ssg63
Nsg56
(lp138
sbasbasbasbag49
(g65
g51
NtRp139
(dp140
g54
(dp141
sg63
g59
sg56
(lp142
g49
(g70
g51
NtRp143
(dp144
g54
(dp145
g74
g75
ssg63
g139
sg56
(lp146
S'body'
p147
asbag49
(g70
g51
NtRp148
(dp149
g54
(dp150
g81
g82
ssg63
g139
sg56
(lp151
S':'
asbag49
(g70
g51
NtRp152
(dp153
g54
(dp154
sg63
g139
sg56
(lp155
g49
(g50
g51
NtRp156
(dp157
g54
(dp158
g62
I5
ssg63
g152
sg56
(lp159
S'<cStringIO.StringO object at 0x6d96940>'
p160
asbasbasbag49
(g65
g51
NtRp161
(dp162
g54
(dp163
sg63
g59
sg56
(lp164
g49
(g70
g51
NtRp165
(dp166
g54
(dp167
g74
g75
ssg63
g161
sg56
(lp168
S'client'
p169
asbag49
(g70
g51
NtRp170
(dp171
g54
(dp172
g81
g82
ssg63
g161
sg56
(lp173
S':'
asbag49
(g70
g51
NtRp174
(dp175
g54
(dp176
sg63
g161
sg56
(lp177
g49
(g50
g51
NtRp178
(dp179
g54
(dp180
g62
I5
ssg63
g174
sg56
(lp181
S'127.0.0.1'
p182
asbasbasbag49
(g65
g51
NtRp183
(dp184
g54
(dp185
sg63
g59
sg56
(lp186
g49
(g70
g51
NtRp187
(dp188
g54
(dp189
g74
g75
ssg63
g183
sg56
(lp190
S'controller'
p191
asbag49
(g70
g51
NtRp192
(dp193
g54
(dp194
g81
g82
ssg63
g183
sg56
(lp195
S':'
asbag49
(g70
g51
NtRp196
(dp197
g54
(dp198
sg63
g183
sg56
(lp199
g49
(g50
g51
NtRp200
(dp201
g54
(dp202
g62
I5
ssg63
g196
sg56
(lp203
S'api'
p204
asbasbasbag49
(g65
g51
NtRp205
(dp206
g54
(dp207
sg63
g59
sg56
(lp208
g49
(g70
g51
NtRp209
(dp210
g54
(dp211
g74
g75
ssg63
g205
sg56
(lp212
S'cookies'
p213
asbag49
(g70
g51
NtRp214
(dp215
g54
(dp216
g81
g82
ssg63
g205
sg56
(lp217
S':'
asbag49
(g70
g51
NtRp218
(dp219
g54
(dp220
sg63
g205
sg56
(lp221
g49
(g50
g51
NtRp222
(dp223
g54
(dp224
g62
I5
ssg63
g218
sg56
(lp225
g49
(g58
g51
NtRp226
(dp227
g54
(dp228
g62
I4
ssg63
Nsg56
(lp229
g49
(g65
g51
NtRp230
(dp231
g54
(dp232
sg63
g226
sg56
(lp233
g49
(g70
g51
NtRp234
(dp235
g54
(dp236
g74
g75
ssg63
g230
sg56
(lp237
S'session_id_admin'
p238
asbag49
(g70
g51
NtRp239
(dp240
g54
(dp241
g81
g82
ssg63
g230
sg56
(lp242
S':'
asbag49
(g70
g51
NtRp243
(dp244
g54
(dp245
sg63
g230
sg56
(lp246
g49
(g50
g51
NtRp247
(dp248
g54
(dp249
g62
I4
ssg63
g243
sg56
(lp250
g49
(g58
g51
NtRp251
(dp252
g54
(dp253
g62
I3
ssg63
Nsg56
(lp254
g49
(g65
g51
NtRp255
(dp256
g54
(dp257
sg63
g251
sg56
(lp258
g49
(g70
g51
NtRp259
(dp260
g54
(dp261
g74
g75
ssg63
g255
sg56
(lp262
S'comment'
p263
asbag49
(g70
g51
NtRp264
(dp265
g54
(dp266
g81
g82
ssg63
g255
sg56
(lp267
S':'
asbag49
(g70
g51
NtRp268
(dp269
g54
(dp270
sg63
g255
sg56
(lp271
g49
(g50
g51
NtRp272
(dp273
g54
(dp274
g62
I3
ssg63
g268
sg56
(lp275
S''
asbasbasbag49
(g65
g51
NtRp276
(dp277
g54
(dp278
sg63
g251
sg56
(lp279
g49
(g70
g51
NtRp280
(dp281
g54
(dp282
g74
g75
ssg63
g276
sg56
(lp283
S'domain'
p284
asbag49
(g70
g51
NtRp285
(dp286
g54
(dp287
g81
g82
ssg63
g276
sg56
(lp288
S':'
asbag49
(g70
g51
NtRp289
(dp290
g54
(dp291
sg63
g276
sg56
(lp292
g49
(g50
g51
NtRp293
(dp294
g54
(dp295
g62
I3
ssg63
g289
sg56
(lp296
S''
asbasbasbag49
(g65
g51
NtRp297
(dp298
g54
(dp299
sg63
g251
sg56
(lp300
g49
(g70
g51
NtRp301
(dp302
g54
(dp303
g74
g75
ssg63
g297
sg56
(lp304
S'expires'
p305
asbag49
(g70
g51
NtRp306
(dp307
g54
(dp308
g81
g82
ssg63
g297
sg56
(lp309
S':'
asbag49
(g70
g51
NtRp310
(dp311
g54
(dp312
sg63
g297
sg56
(lp313
g49
(g50
g51
NtRp314
(dp315
g54
(dp316
g62
I3
ssg63
g310
sg56
(lp317
S''
asbasbasbag49
(g65
g51
NtRp318
(dp319
g54
(dp320
sg63
g251
sg56
(lp321
g49
(g70
g51
NtRp322
(dp323
g54
(dp324
g74
g75
ssg63
g318
sg56
(lp325
S'max-age'
p326
asbag49
(g70
g51
NtRp327
(dp328
g54
(dp329
g81
g82
ssg63
g318
sg56
(lp330
S':'
asbag49
(g70
g51
NtRp331
(dp332
g54
(dp333
sg63
g318
sg56
(lp334
g49
(g50
g51
NtRp335
(dp336
g54
(dp337
g62
I3
ssg63
g331
sg56
(lp338
S''
asbasbasbag49
(g65
g51
NtRp339
(dp340
g54
(dp341
sg63
g251
sg56
(lp342
g49
(g70
g51
NtRp343
(dp344
g54
(dp345
g74
g75
ssg63
g339
sg56
(lp346
S'path'
p347
asbag49
(g70
g51
NtRp348
(dp349
g54
(dp350
g81
g82
ssg63
g339
sg56
(lp351
S':'
asbag49
(g70
g51
NtRp352
(dp353
g54
(dp354
sg63
g339
sg56
(lp355
g49
(g50
g51
NtRp356
(dp357
g54
(dp358
g62
I3
ssg63
g352
sg56
(lp359
S''
asbasbasbag49
(g65
g51
NtRp360
(dp361
g54
(dp362
sg63
g251
sg56
(lp363
g49
(g70
g51
NtRp364
(dp365
g54
(dp366
g74
g75
ssg63
g360
sg56
(lp367
S'secure'
p368
asbag49
(g70
g51
NtRp369
(dp370
g54
(dp371
g81
g82
ssg63
g360
sg56
(lp372
S':'
asbag49
(g70
g51
NtRp373
(dp374
g54
(dp375
sg63
g360
sg56
(lp376
g49
(g50
g51
NtRp377
(dp378
g54
(dp379
g62
I3
ssg63
g373
sg56
(lp380
S''
asbasbasbag49
(g65
g51
NtRp381
(dp382
g54
(dp383
sg63
g251
sg56
(lp384
g49
(g70
g51
NtRp385
(dp386
g54
(dp387
g74
g75
ssg63
g381
sg56
(lp388
S'version'
p389
asbag49
(g70
g51
NtRp390
(dp391
g54
(dp392
g81
g82
ssg63
g381
sg56
(lp393
S':'
asbag49
(g70
g51
NtRp394
(dp395
g54
(dp396
sg63
g381
sg56
(lp397
g49
(g50
g51
NtRp398
(dp399
g54
(dp400
g62
I3
ssg63
g394
sg56
(lp401
S''
asbasbasbasbasbasbasbag49
(g65
g51
NtRp402
(dp403
g54
(dp404
sg63
g226
sg56
(lp405
g49
(g70
g51
NtRp406
(dp407
g54
(dp408
g74
g75
ssg63
g402
sg56
(lp409
S'session_id_udi0312'
p410
asbag49
(g70
g51
NtRp411
(dp412
g54
(dp413
g81
g82
ssg63
g402
sg56
(lp414
S':'
asbag49
(g70
g51
NtRp415
(dp416
g54
(dp417
sg63
g402
sg56
(lp418
g49
(g50
g51
NtRp419
(dp420
g54
(dp421
g62
I4
ssg63
g415
sg56
(lp422
g49
(g58
g51
NtRp423
(dp424
g54
(dp425
g62
I3
ssg63
Nsg56
(lp426
g49
(g65
g51
NtRp427
(dp428
g54
(dp429
sg63
g423
sg56
(lp430
g49
(g70
g51
NtRp431
(dp432
g54
(dp433
g74
g75
ssg63
g427
sg56
(lp434
g263
asbag49
(g70
g51
NtRp435
(dp436
g54
(dp437
g81
g82
ssg63
g427
sg56
(lp438
S':'
asbag49
(g70
g51
NtRp439
(dp440
g54
(dp441
sg63
g427
sg56
(lp442
g49
(g50
g51
NtRp443
(dp444
g54
(dp445
g62
I3
ssg63
g439
sg56
(lp446
S''
asbasbasbag49
(g65
g51
NtRp447
(dp448
g54
(dp449
sg63
g423
sg56
(lp450
g49
(g70
g51
NtRp451
(dp452
g54
(dp453
g74
g75
ssg63
g447
sg56
(lp454
g284
asbag49
(g70
g51
NtRp455
(dp456
g54
(dp457
g81
g82
ssg63
g447
sg56
(lp458
S':'
asbag49
(g70
g51
NtRp459
(dp460
g54
(dp461
sg63
g447
sg56
(lp462
g49
(g50
g51
NtRp463
(dp464
g54
(dp465
g62
I3
ssg63
g459
sg56
(lp466
S''
asbasbasbag49
(g65
g51
NtRp467
(dp468
g54
(dp469
sg63
g423
sg56
(lp470
g49
(g70
g51
NtRp471
(dp472
g54
(dp473
g74
g75
ssg63
g467
sg56
(lp474
g305
asbag49
(g70
g51
NtRp475
(dp476
g54
(dp477
g81
g82
ssg63
g467
sg56
(lp478
S':'
asbag49
(g70
g51
NtRp479
(dp480
g54
(dp481
sg63
g467
sg56
(lp482
g49
(g50
g51
NtRp483
(dp484
g54
(dp485
g62
I3
ssg63
g479
sg56
(lp486
S''
asbasbasbag49
(g65
g51
NtRp487
(dp488
g54
(dp489
sg63
g423
sg56
(lp490
g49
(g70
g51
NtRp491
(dp492
g54
(dp493
g74
g75
ssg63
g487
sg56
(lp494
g326
asbag49
(g70
g51
NtRp495
(dp496
g54
(dp497
g81
g82
ssg63
g487
sg56
(lp498
S':'
asbag49
(g70
g51
NtRp499
(dp500
g54
(dp501
sg63
g487
sg56
(lp502
g49
(g50
g51
NtRp503
(dp504
g54
(dp505
g62
I3
ssg63
g499
sg56
(lp506
S''
asbasbasbag49
(g65
g51
NtRp507
(dp508
g54
(dp509
sg63
g423
sg56
(lp510
g49
(g70
g51
NtRp511
(dp512
g54
(dp513
g74
g75
ssg63
g507
sg56
(lp514
g347
asbag49
(g70
g51
NtRp515
(dp516
g54
(dp517
g81
g82
ssg63
g507
sg56
(lp518
S':'
asbag49
(g70
g51
NtRp519
(dp520
g54
(dp521
sg63
g507
sg56
(lp522
g49
(g50
g51
NtRp523
(dp524
g54
(dp525
g62
I3
ssg63
g519
sg56
(lp526
S''
asbasbasbag49
(g65
g51
NtRp527
(dp528
g54
(dp529
sg63
g423
sg56
(lp530
g49
(g70
g51
NtRp531
(dp532
g54
(dp533
g74
g75
ssg63
g527
sg56
(lp534
g368
asbag49
(g70
g51
NtRp535
(dp536
g54
(dp537
g81
g82
ssg63
g527
sg56
(lp538
S':'
asbag49
(g70
g51
NtRp539
(dp540
g54
(dp541
sg63
g527
sg56
(lp542
g49
(g50
g51
NtRp543
(dp544
g54
(dp545
g62
I3
ssg63
g539
sg56
(lp546
S''
asbasbasbag49
(g65
g51
NtRp547
(dp548
g54
(dp549
sg63
g423
sg56
(lp550
g49
(g70
g51
NtRp551
(dp552
g54
(dp553
g74
g75
ssg63
g547
sg56
(lp554
g389
asbag49
(g70
g51
NtRp555
(dp556
g54
(dp557
g81
g82
ssg63
g547
sg56
(lp558
S':'
asbag49
(g70
g51
NtRp559
(dp560
g54
(dp561
sg63
g547
sg56
(lp562
g49
(g50
g51
NtRp563
(dp564
g54
(dp565
g62
I3
ssg63
g559
sg56
(lp566
S''
asbasbasbasbasbasbasbasbasbasbasbag49
(g65
g51
NtRp567
(dp568
g54
(dp569
sg63
g59
sg56
(lp570
g49
(g70
g51
NtRp571
(dp572
g54
(dp573
g74
g75
ssg63
g567
sg56
(lp574
S'env'
p575
asbag49
(g70
g51
NtRp576
(dp577
g54
(dp578
g81
g82
ssg63
g567
sg56
(lp579
S':'
asbag49
(g70
g51
NtRp580
(dp581
g54
(dp582
sg63
g567
sg56
(lp583
g49
(g50
g51
NtRp584
(dp585
g54
(dp586
g62
I5
ssg63
g580
sg56
(lp587
g49
(g58
g51
NtRp588
(dp589
g54
(dp590
g62
I4
ssg63
Nsg56
(lp591
g49
(g65
g51
NtRp592
(dp593
g54
(dp594
sg63
g588
sg56
(lp595
g49
(g70
g51
NtRp596
(dp597
g54
(dp598
g74
g75
ssg63
g592
sg56
(lp599
S'app_folders'
p600
asbag49
(g70
g51
NtRp601
(dp602
g54
(dp603
g81
g82
ssg63
g592
sg56
(lp604
S':'
asbag49
(g70
g51
NtRp605
(dp606
g54
(dp607
sg63
g592
sg56
(lp608
g49
(g50
g51
NtRp609
(dp610
g54
(dp611
g62
I4
ssg63
g605
sg56
(lp612
S"set(['/Users/udimilo/Documents/web2py/applications/udi0312/', '/Users/udimilo/Documents/web2py/applications/admin/'])"
p613
asbasbasbag49
(g65
g51
NtRp614
(dp615
g54
(dp616
sg63
g588
sg56
(lp617
g49
(g70
g51
NtRp618
(dp619
g54
(dp620
g74
g75
ssg63
g614
sg56
(lp621
S'applications_parent'
p622
asbag49
(g70
g51
NtRp623
(dp624
g54
(dp625
g81
g82
ssg63
g614
sg56
(lp626
S':'
asbag49
(g70
g51
NtRp627
(dp628
g54
(dp629
sg63
g614
sg56
(lp630
g49
(g50
g51
NtRp631
(dp632
g54
(dp633
g62
I4
ssg63
g627
sg56
(lp634
S'/Users/udimilo/Documents/web2py'
p635
asbasbasbag49
(g65
g51
NtRp636
(dp637
g54
(dp638
sg63
g588
sg56
(lp639
g49
(g70
g51
NtRp640
(dp641
g54
(dp642
g74
g75
ssg63
g636
sg56
(lp643
S'cmd_args'
p644
asbag49
(g70
g51
NtRp645
(dp646
g54
(dp647
g81
g82
ssg63
g636
sg56
(lp648
S':'
asbag49
(g70
g51
NtRp649
(dp650
g54
(dp651
sg63
g636
sg56
(lp652
g49
(g50
g51
NtRp653
(dp654
g54
(dp655
g62
I4
ssg63
g649
sg56
(lp656
g49
(g58
g51
NtRp657
(dp658
g54
(dp659
g62
I3
ssg63
Nsg56
(lp660
sbasbasbasbag49
(g65
g51
NtRp661
(dp662
g54
(dp663
sg63
g588
sg56
(lp664
g49
(g70
g51
NtRp665
(dp666
g54
(dp667
g74
g75
ssg63
g661
sg56
(lp668
S'cmd_options'
p669
asbag49
(g70
g51
NtRp670
(dp671
g54
(dp672
g81
g82
ssg63
g661
sg56
(lp673
S':'
asbag49
(g70
g51
NtRp674
(dp675
g54
(dp676
sg63
g661
sg56
(lp677
g49
(g50
g51
NtRp678
(dp679
g54
(dp680
g62
I4
ssg63
g674
sg56
(lp681
S"<Values at 0x22190a8: {'verbose': False, 'ip': '127.0.0.1', 'shutdown_timeout': 5, 'taskbar': False, 'nocron': False, 'pid_filename': 'httpserver.pid', 'maxthreads': None, 'softcron': False, 'server_name': 'Udi-Milos-MacBook-Pro.local', 'bpython': False, 'nogui': False, 'port': 8000, 'extcron': False, 'debuglevel': 30, 'test': None, 'folder': '/Users/udimilo/Documents/web2py', 'config': '', 'import_models': False, 'winservice': '', 'shell': None, 'run': '', 'log_filename': 'httpserver.log', 'args': [''], 'socket_timeout': 5, 'ssl_ca_certificate': None, 'scheduler': None, 'profiler_filename': None, 'ssl_private_key': '', 'password': '<ask>', 'request_queue_size': 5, 'ssl_certificate': '', 'cronjob': False, 'numthreads': None, 'quiet': False, 'interfaces': None, 'minthreads': None, 'timeout': 10, 'plain': False, 'nobanner': False}>"
p682
asbasbasbag49
(g65
g51
NtRp683
(dp684
g54
(dp685
sg63
g588
sg56
(lp686
g49
(g70
g51
NtRp687
(dp688
g54
(dp689
g74
g75
ssg63
g683
sg56
(lp690
S'db_sessions'
p691
asbag49
(g70
g51
NtRp692
(dp693
g54
(dp694
g81
g82
ssg63
g683
sg56
(lp695
S':'
asbag49
(g70
g51
NtRp696
(dp697
g54
(dp698
sg63
g683
sg56
(lp699
g49
(g50
g51
NtRp700
(dp701
g54
(dp702
g62
I4
ssg63
g696
sg56
(lp703
S'set([])'
p704
asbasbasbag49
(g65
g51
NtRp705
(dp706
g54
(dp707
sg63
g588
sg56
(lp708
g49
(g70
g51
NtRp709
(dp710
g54
(dp711
g74
g75
ssg63
g705
sg56
(lp712
S'debugging'
p713
asbag49
(g70
g51
NtRp714
(dp715
g54
(dp716
g81
g82
ssg63
g705
sg56
(lp717
S':'
asbag49
(g70
g51
NtRp718
(dp719
g54
(dp720
sg63
g705
sg56
(lp721
g49
(g50
g51
NtRp722
(dp723
g54
(dp724
g62
I4
ssg63
g718
sg56
(lp725
g92
asbasbasbag49
(g65
g51
NtRp726
(dp727
g54
(dp728
sg63
g588
sg56
(lp729
g49
(g70
g51
NtRp730
(dp731
g54
(dp732
g74
g75
ssg63
g726
sg56
(lp733
S'gluon_parent'
p734
asbag49
(g70
g51
NtRp735
(dp736
g54
(dp737
g81
g82
ssg63
g726
sg56
(lp738
S':'
asbag49
(g70
g51
NtRp739
(dp740
g54
(dp741
sg63
g726
sg56
(lp742
g49
(g50
g51
NtRp743
(dp744
g54
(dp745
g62
I4
ssg63
g739
sg56
(lp746
S'/Users/udimilo/Documents/web2py'
p747
asbasbasbag49
(g65
g51
NtRp748
(dp749
g54
(dp750
sg63
g588
sg56
(lp751
g49
(g70
g51
NtRp752
(dp753
g54
(dp754
g74
g75
ssg63
g748
sg56
(lp755
S'http_accept'
p756
asbag49
(g70
g51
NtRp757
(dp758
g54
(dp759
g81
g82
ssg63
g748
sg56
(lp760
S':'
asbag49
(g70
g51
NtRp761
(dp762
g54
(dp763
sg63
g748
sg56
(lp764
g49
(g50
g51
NtRp765
(dp766
g54
(dp767
g62
I4
ssg63
g761
sg56
(lp768
S'text/html,application/xhtml+xml,application/xml;q=0.9,*/*;q=0.8'
p769
asbasbasbag49
(g65
g51
NtRp770
(dp771
g54
(dp772
sg63
g588
sg56
(lp773
g49
(g70
g51
NtRp774
(dp775
g54
(dp776
g74
g75
ssg63
g770
sg56
(lp777
S'http_accept_charset'
p778
asbag49
(g70
g51
NtRp779
(dp780
g54
(dp781
g81
g82
ssg63
g770
sg56
(lp782
S':'
asbag49
(g70
g51
NtRp783
(dp784
g54
(dp785
sg63
g770
sg56
(lp786
g49
(g50
g51
NtRp787
(dp788
g54
(dp789
g62
I4
ssg63
g783
sg56
(lp790
S'ISO-8859-1,utf-8;q=0.7,*;q=0.3'
p791
asbasbasbag49
(g65
g51
NtRp792
(dp793
g54
(dp794
sg63
g588
sg56
(lp795
g49
(g70
g51
NtRp796
(dp797
g54
(dp798
g74
g75
ssg63
g792
sg56
(lp799
S'http_accept_encoding'
p800
asbag49
(g70
g51
NtRp801
(dp802
g54
(dp803
g81
g82
ssg63
g792
sg56
(lp804
S':'
asbag49
(g70
g51
NtRp805
(dp806
g54
(dp807
sg63
g792
sg56
(lp808
g49
(g50
g51
NtRp809
(dp810
g54
(dp811
g62
I4
ssg63
g805
sg56
(lp812
S'gzip,deflate,sdch'
p813
asbasbasbag49
(g65
g51
NtRp814
(dp815
g54
(dp816
sg63
g588
sg56
(lp817
g49
(g70
g51
NtRp818
(dp819
g54
(dp820
g74
g75
ssg63
g814
sg56
(lp821
S'http_accept_language'
p822
asbag49
(g70
g51
NtRp823
(dp824
g54
(dp825
g81
g82
ssg63
g814
sg56
(lp826
S':'
asbag49
(g70
g51
NtRp827
(dp828
g54
(dp829
sg63
g814
sg56
(lp830
g49
(g50
g51
NtRp831
(dp832
g54
(dp833
g62
I4
ssg63
g827
sg56
(lp834
S'en-US,en;q=0.8'
p835
asbasbasbag49
(g65
g51
NtRp836
(dp837
g54
(dp838
sg63
g588
sg56
(lp839
g49
(g70
g51
NtRp840
(dp841
g54
(dp842
g74
g75
ssg63
g836
sg56
(lp843
S'http_connection'
p844
asbag49
(g70
g51
NtRp845
(dp846
g54
(dp847
g81
g82
ssg63
g836
sg56
(lp848
S':'
asbag49
(g70
g51
NtRp849
(dp850
g54
(dp851
sg63
g836
sg56
(lp852
g49
(g50
g51
NtRp853
(dp854
g54
(dp855
g62
I4
ssg63
g849
sg56
(lp856
S'keep-alive'
p857
asbasbasbag49
(g65
g51
NtRp858
(dp859
g54
(dp860
sg63
g588
sg56
(lp861
g49
(g70
g51
NtRp862
(dp863
g54
(dp864
g74
g75
ssg63
g858
sg56
(lp865
S'http_cookie'
p866
asbag49
(g70
g51
NtRp867
(dp868
g54
(dp869
g81
g82
ssg63
g858
sg56
(lp870
S':'
asbag49
(g70
g51
NtRp871
(dp872
g54
(dp873
sg63
g858
sg56
(lp874
g49
(g50
g51
NtRp875
(dp876
g54
(dp877
g62
I4
ssg63
g871
sg56
(lp878
S'session_id_udi0312=127.0.0.1-0c931b0e-a0cb-46a7-8daa-2609a27949d9; session_id_admin=127.0.0.1-389cdb5e-fd26-4b8a-8e4e-2c911b601814'
p879
asbasbasbag49
(g65
g51
NtRp880
(dp881
g54
(dp882
sg63
g588
sg56
(lp883
g49
(g70
g51
NtRp884
(dp885
g54
(dp886
g74
g75
ssg63
g880
sg56
(lp887
S'http_host'
p888
asbag49
(g70
g51
NtRp889
(dp890
g54
(dp891
g81
g82
ssg63
g880
sg56
(lp892
S':'
asbag49
(g70
g51
NtRp893
(dp894
g54
(dp895
sg63
g880
sg56
(lp896
g49
(g50
g51
NtRp897
(dp898
g54
(dp899
g62
I4
ssg63
g893
sg56
(lp900
S'127.0.0.1:8000'
p901
asbasbasbag49
(g65
g51
NtRp902
(dp903
g54
(dp904
sg63
g588
sg56
(lp905
g49
(g70
g51
NtRp906
(dp907
g54
(dp908
g74
g75
ssg63
g902
sg56
(lp909
S'http_user_agent'
p910
asbag49
(g70
g51
NtRp911
(dp912
g54
(dp913
g81
g82
ssg63
g902
sg56
(lp914
S':'
asbag49
(g70
g51
NtRp915
(dp916
g54
(dp917
sg63
g902
sg56
(lp918
g49
(g50
g51
NtRp919
(dp920
g54
(dp921
g62
I4
ssg63
g915
sg56
(lp922
S'Mozilla/5.0 (Macintosh; Intel Mac OS X 10_7_3) AppleWebKit/535.11 (KHTML, like Gecko) Chrome/17.0.963.83 Safari/535.11'
p923
asbasbasbag49
(g65
g51
NtRp924
(dp925
g54
(dp926
sg63
g588
sg56
(lp927
g49
(g70
g51
NtRp928
(dp929
g54
(dp930
g74
g75
ssg63
g924
sg56
(lp931
S'is_jython'
p932
asbag49
(g70
g51
NtRp933
(dp934
g54
(dp935
g81
g82
ssg63
g924
sg56
(lp936
S':'
asbag49
(g70
g51
NtRp937
(dp938
g54
(dp939
sg63
g924
sg56
(lp940
g49
(g50
g51
NtRp941
(dp942
g54
(dp943
g62
I4
ssg63
g937
sg56
(lp944
g92
asbasbasbag49
(g65
g51
NtRp945
(dp946
g54
(dp947
sg63
g588
sg56
(lp948
g49
(g70
g51
NtRp949
(dp950
g54
(dp951
g74
g75
ssg63
g945
sg56
(lp952
S'is_pypy'
p953
asbag49
(g70
g51
NtRp954
(dp955
g54
(dp956
g81
g82
ssg63
g945
sg56
(lp957
S':'
asbag49
(g70
g51
NtRp958
(dp959
g54
(dp960
sg63
g945
sg56
(lp961
g49
(g50
g51
NtRp962
(dp963
g54
(dp964
g62
I4
ssg63
g958
sg56
(lp965
g92
asbasbasbag49
(g65
g51
NtRp966
(dp967
g54
(dp968
sg63
g588
sg56
(lp969
g49
(g70
g51
NtRp970
(dp971
g54
(dp972
g74
g75
ssg63
g966
sg56
(lp973
S'path_info'
p974
asbag49
(g70
g51
NtRp975
(dp976
g54
(dp977
g81
g82
ssg63
g966
sg56
(lp978
S':'
asbag49
(g70
g51
NtRp979
(dp980
g54
(dp981
sg63
g966
sg56
(lp982
g49
(g50
g51
NtRp983
(dp984
g54
(dp985
g62
I4
ssg63
g979
sg56
(lp986
S'/api/add_article'
p987
asbasbasbag49
(g65
g51
NtRp988
(dp989
g54
(dp990
sg63
g588
sg56
(lp991
g49
(g70
g51
NtRp992
(dp993
g54
(dp994
g74
g75
ssg63
g988
sg56
(lp995
S'query_string'
p996
asbag49
(g70
g51
NtRp997
(dp998
g54
(dp999
g81
g82
ssg63
g988
sg56
(lp1000
S':'
asbag49
(g70
g51
NtRp1001
(dp1002
g54
(dp1003
sg63
g988
sg56
(lp1004
g49
(g50
g51
NtRp1005
(dp1006
g54
(dp1007
g62
I4
ssg63
g1001
sg56
(lp1008
S'url=http://plumpestpeach.blogspot.com/2009/06/grilled-zucchini-rolls-with-goat-cheese.html'
p1009
asbasbasbag49
(g65
g51
NtRp1010
(dp1011
g54
(dp1012
sg63
g588
sg56
(lp1013
g49
(g70
g51
NtRp1014
(dp1015
g54
(dp1016
g74
g75
ssg63
g1010
sg56
(lp1017
S'remote_addr'
p1018
asbag49
(g70
g51
NtRp1019
(dp1020
g54
(dp1021
g81
g82
ssg63
g1010
sg56
(lp1022
S':'
asbag49
(g70
g51
NtRp1023
(dp1024
g54
(dp1025
sg63
g1010
sg56
(lp1026
g49
(g50
g51
NtRp1027
(dp1028
g54
(dp1029
g62
I4
ssg63
g1023
sg56
(lp1030
g182
asbasbasbag49
(g65
g51
NtRp1031
(dp1032
g54
(dp1033
sg63
g588
sg56
(lp1034
g49
(g70
g51
NtRp1035
(dp1036
g54
(dp1037
g74
g75
ssg63
g1031
sg56
(lp1038
S'remote_port'
p1039
asbag49
(g70
g51
NtRp1040
(dp1041
g54
(dp1042
g81
g82
ssg63
g1031
sg56
(lp1043
S':'
asbag49
(g70
g51
NtRp1044
(dp1045
g54
(dp1046
sg63
g1031
sg56
(lp1047
g49
(g50
g51
NtRp1048
(dp1049
g54
(dp1050
g62
I4
ssg63
g1044
sg56
(lp1051
S'62598'
p1052
asbasbasbag49
(g65
g51
NtRp1053
(dp1054
g54
(dp1055
sg63
g588
sg56
(lp1056
g49
(g70
g51
NtRp1057
(dp1058
g54
(dp1059
g74
g75
ssg63
g1053
sg56
(lp1060
S'request_method'
p1061
asbag49
(g70
g51
NtRp1062
(dp1063
g54
(dp1064
g81
g82
ssg63
g1053
sg56
(lp1065
S':'
asbag49
(g70
g51
NtRp1066
(dp1067
g54
(dp1068
sg63
g1053
sg56
(lp1069
g49
(g50
g51
NtRp1070
(dp1071
g54
(dp1072
g62
I4
ssg63
g1066
sg56
(lp1073
S'GET'
p1074
asbasbasbag49
(g65
g51
NtRp1075
(dp1076
g54
(dp1077
sg63
g588
sg56
(lp1078
g49
(g70
g51
NtRp1079
(dp1080
g54
(dp1081
g74
g75
ssg63
g1075
sg56
(lp1082
S'request_uri'
p1083
asbag49
(g70
g51
NtRp1084
(dp1085
g54
(dp1086
g81
g82
ssg63
g1075
sg56
(lp1087
S':'
asbag49
(g70
g51
NtRp1088
(dp1089
g54
(dp1090
sg63
g1075
sg56
(lp1091
g49
(g50
g51
NtRp1092
(dp1093
g54
(dp1094
g62
I4
ssg63
g1088
sg56
(lp1095
S'/udi0312/api/add_article?url=http://plumpestpeach.blogspot.com/2009/06/grilled-zucchini-rolls-with-goat-cheese.html'
p1096
asbasbasbag49
(g65
g51
NtRp1097
(dp1098
g54
(dp1099
sg63
g588
sg56
(lp1100
g49
(g70
g51
NtRp1101
(dp1102
g54
(dp1103
g74
g75
ssg63
g1097
sg56
(lp1104
S'script_name'
p1105
asbag49
(g70
g51
NtRp1106
(dp1107
g54
(dp1108
g81
g82
ssg63
g1097
sg56
(lp1109
S':'
asbag49
(g70
g51
NtRp1110
(dp1111
g54
(dp1112
sg63
g1097
sg56
(lp1113
g49
(g50
g51
NtRp1114
(dp1115
g54
(dp1116
g62
I4
ssg63
g1110
sg56
(lp1117
S''
asbasbasbag49
(g65
g51
NtRp1118
(dp1119
g54
(dp1120
sg63
g588
sg56
(lp1121
g49
(g70
g51
NtRp1122
(dp1123
g54
(dp1124
g74
g75
ssg63
g1118
sg56
(lp1125
S'server_name'
p1126
asbag49
(g70
g51
NtRp1127
(dp1128
g54
(dp1129
g81
g82
ssg63
g1118
sg56
(lp1130
S':'
asbag49
(g70
g51
NtRp1131
(dp1132
g54
(dp1133
sg63
g1118
sg56
(lp1134
g49
(g50
g51
NtRp1135
(dp1136
g54
(dp1137
g62
I4
ssg63
g1131
sg56
(lp1138
S'Udi-Milos-MacBook-Pro.local'
p1139
asbasbasbag49
(g65
g51
NtRp1140
(dp1141
g54
(dp1142
sg63
g588
sg56
(lp1143
g49
(g70
g51
NtRp1144
(dp1145
g54
(dp1146
g74
g75
ssg63
g1140
sg56
(lp1147
S'server_port'
p1148
asbag49
(g70
g51
NtRp1149
(dp1150
g54
(dp1151
g81
g82
ssg63
g1140
sg56
(lp1152
S':'
asbag49
(g70
g51
NtRp1153
(dp1154
g54
(dp1155
sg63
g1140
sg56
(lp1156
g49
(g50
g51
NtRp1157
(dp1158
g54
(dp1159
g62
I4
ssg63
g1153
sg56
(lp1160
S'8000'
p1161
asbasbasbag49
(g65
g51
NtRp1162
(dp1163
g54
(dp1164
sg63
g588
sg56
(lp1165
g49
(g70
g51
NtRp1166
(dp1167
g54
(dp1168
g74
g75
ssg63
g1162
sg56
(lp1169
S'server_protocol'
p1170
asbag49
(g70
g51
NtRp1171
(dp1172
g54
(dp1173
g81
g82
ssg63
g1162
sg56
(lp1174
S':'
asbag49
(g70
g51
NtRp1175
(dp1176
g54
(dp1177
sg63
g1162
sg56
(lp1178
g49
(g50
g51
NtRp1179
(dp1180
g54
(dp1181
g62
I4
ssg63
g1175
sg56
(lp1182
S'HTTP/1.1'
p1183
asbasbasbag49
(g65
g51
NtRp1184
(dp1185
g54
(dp1186
sg63
g588
sg56
(lp1187
g49
(g70
g51
NtRp1188
(dp1189
g54
(dp1190
g74
g75
ssg63
g1184
sg56
(lp1191
S'server_software'
p1192
asbag49
(g70
g51
NtRp1193
(dp1194
g54
(dp1195
g81
g82
ssg63
g1184
sg56
(lp1196
S':'
asbag49
(g70
g51
NtRp1197
(dp1198
g54
(dp1199
sg63
g1184
sg56
(lp1200
g49
(g50
g51
NtRp1201
(dp1202
g54
(dp1203
g62
I4
ssg63
g1197
sg56
(lp1204
S'Rocket 1.2.4'
p1205
asbasbasbag49
(g65
g51
NtRp1206
(dp1207
g54
(dp1208
sg63
g588
sg56
(lp1209
g49
(g70
g51
NtRp1210
(dp1211
g54
(dp1212
g74
g75
ssg63
g1206
sg56
(lp1213
S'web2py_crontype'
p1214
asbag49
(g70
g51
NtRp1215
(dp1216
g54
(dp1217
g81
g82
ssg63
g1206
sg56
(lp1218
S':'
asbag49
(g70
g51
NtRp1219
(dp1220
g54
(dp1221
sg63
g1206
sg56
(lp1222
g49
(g50
g51
NtRp1223
(dp1224
g54
(dp1225
g62
I4
ssg63
g1219
sg56
(lp1226
S'hard'
p1227
asbasbasbag49
(g65
g51
NtRp1228
(dp1229
g54
(dp1230
sg63
g588
sg56
(lp1231
g49
(g70
g51
NtRp1232
(dp1233
g54
(dp1234
g74
g75
ssg63
g1228
sg56
(lp1235
S'web2py_original_uri'
p1236
asbag49
(g70
g51
NtRp1237
(dp1238
g54
(dp1239
g81
g82
ssg63
g1228
sg56
(lp1240
S':'
asbag49
(g70
g51
NtRp1241
(dp1242
g54
(dp1243
sg63
g1228
sg56
(lp1244
g49
(g50
g51
NtRp1245
(dp1246
g54
(dp1247
g62
I4
ssg63
g1241
sg56
(lp1248
S'/api/add_article?url=http://plumpestpeach.blogspot.com/2009/06/grilled-zucchini-rolls-with-goat-cheese.html'
p1249
asbasbasbag49
(g65
g51
NtRp1250
(dp1251
g54
(dp1252
sg63
g588
sg56
(lp1253
g49
(g70
g51
NtRp1254
(dp1255
g54
(dp1256
g74
g75
ssg63
g1250
sg56
(lp1257
S'web2py_path'
p1258
asbag49
(g70
g51
NtRp1259
(dp1260
g54
(dp1261
g81
g82
ssg63
g1250
sg56
(lp1262
S':'
asbag49
(g70
g51
NtRp1263
(dp1264
g54
(dp1265
sg63
g1250
sg56
(lp1266
g49
(g50
g51
NtRp1267
(dp1268
g54
(dp1269
g62
I4
ssg63
g1263
sg56
(lp1270
g635
asbasbasbag49
(g65
g51
NtRp1271
(dp1272
g54
(dp1273
sg63
g588
sg56
(lp1274
g49
(g70
g51
NtRp1275
(dp1276
g54
(dp1277
g74
g75
ssg63
g1271
sg56
(lp1278
S'web2py_version'
p1279
asbag49
(g70
g51
NtRp1280
(dp1281
g54
(dp1282
g81
g82
ssg63
g1271
sg56
(lp1283
S':'
asbag49
(g70
g51
NtRp1284
(dp1285
g54
(dp1286
sg63
g1271
sg56
(lp1287
g49
(g50
g51
NtRp1288
(dp1289
g54
(dp1290
g62
I4
ssg63
g1284
sg56
(lp1291
g49
(g58
g51
NtRp1292
(dp1293
g54
(dp1294
g62
I3
ssg63
Nsg56
(lp1295
g49
(g65
g51
NtRp1296
(dp1297
g54
(dp1298
sg63
g1292
sg56
(lp1299
g49
(g70
g51
NtRp1300
(dp1301
g54
(dp1302
sg63
g1296
sg56
(lp1303
g49
(g50
g51
NtRp1304
(dp1305
g54
(dp1306
g62
I3
ssg63
g1300
sg56
(lp1307
S'1'
asbasbasbag49
(g65
g51
NtRp1308
(dp1309
g54
(dp1310
sg63
g1292
sg56
(lp1311
g49
(g70
g51
NtRp1312
(dp1313
g54
(dp1314
sg63
g1308
sg56
(lp1315
g49
(g50
g51
NtRp1316
(dp1317
g54
(dp1318
g62
I3
ssg63
g1312
sg56
(lp1319
S'99'
p1320
asbasbasbag49
(g65
g51
NtRp1321
(dp1322
g54
(dp1323
sg63
g1292
sg56
(lp1324
g49
(g70
g51
NtRp1325
(dp1326
g54
(dp1327
sg63
g1321
sg56
(lp1328
g49
(g50
g51
NtRp1329
(dp1330
g54
(dp1331
g62
I3
ssg63
g1325
sg56
(lp1332
S'7'
asbasbasbag49
(g65
g51
NtRp1333
(dp1334
g54
(dp1335
sg63
g1292
sg56
(lp1336
g49
(g70
g51
NtRp1337
(dp1338
g54
(dp1339
sg63
g1333
sg56
(lp1340
g49
(g50
g51
NtRp1341
(dp1342
g54
(dp1343
g62
I3
ssg63
g1337
sg56
(lp1344
S'datetime.datetime(2012, 3, 4, 22, 12, 8)'
p1345
asbasbasbag49
(g65
g51
NtRp1346
(dp1347
g54
(dp1348
sg63
g1292
sg56
(lp1349
g49
(g70
g51
NtRp1350
(dp1351
g54
(dp1352
sg63
g1346
sg56
(lp1353
g49
(g50
g51
NtRp1354
(dp1355
g54
(dp1356
g62
I3
ssg63
g1350
sg56
(lp1357
S'stable'
p1358
asbasbasbasbasbasbasbag49
(g65
g51
NtRp1359
(dp1360
g54
(dp1361
sg63
g588
sg56
(lp1362
g49
(g70
g51
NtRp1363
(dp1364
g54
(dp1365
g74
g75
ssg63
g1359
sg56
(lp1366
S'wsgi_errors'
p1367
asbag49
(g70
g51
NtRp1368
(dp1369
g54
(dp1370
g81
g82
ssg63
g1359
sg56
(lp1371
S':'
asbag49
(g70
g51
NtRp1372
(dp1373
g54
(dp1374
sg63
g1359
sg56
(lp1375
g49
(g50
g51
NtRp1376
(dp1377
g54
(dp1378
g62
I4
ssg63
g1372
sg56
(lp1379
S"<open file '<stderr>', mode 'w' at 0x4220b0>"
p1380
asbasbasbag49
(g65
g51
NtRp1381
(dp1382
g54
(dp1383
sg63
g588
sg56
(lp1384
g49
(g70
g51
NtRp1385
(dp1386
g54
(dp1387
g74
g75
ssg63
g1381
sg56
(lp1388
S'wsgi_file_wrapper'
p1389
asbag49
(g70
g51
NtRp1390
(dp1391
g54
(dp1392
g81
g82
ssg63
g1381
sg56
(lp1393
S':'
asbag49
(g70
g51
NtRp1394
(dp1395
g54
(dp1396
sg63
g1381
sg56
(lp1397
g49
(g50
g51
NtRp1398
(dp1399
g54
(dp1400
g62
I4
ssg63
g1394
sg56
(lp1401
S'<class wsgiref.util.FileWrapper at 0x215e6c0>'
p1402
asbasbasbag49
(g65
g51
NtRp1403
(dp1404
g54
(dp1405
sg63
g588
sg56
(lp1406
g49
(g70
g51
NtRp1407
(dp1408
g54
(dp1409
g74
g75
ssg63
g1403
sg56
(lp1410
S'wsgi_input'
p1411
asbag49
(g70
g51
NtRp1412
(dp1413
g54
(dp1414
g81
g82
ssg63
g1403
sg56
(lp1415
S':'
asbag49
(g70
g51
NtRp1416
(dp1417
g54
(dp1418
sg63
g1403
sg56
(lp1419
g49
(g50
g51
NtRp1420
(dp1421
g54
(dp1422
g62
I4
ssg63
g1416
sg56
(lp1423
S'<socket._fileobject object at 0xa7d49b0>'
p1424
asbasbasbag49
(g65
g51
NtRp1425
(dp1426
g54
(dp1427
sg63
g588
sg56
(lp1428
g49
(g70
g51
NtRp1429
(dp1430
g54
(dp1431
g74
g75
ssg63
g1425
sg56
(lp1432
S'wsgi_multiprocess'
p1433
asbag49
(g70
g51
NtRp1434
(dp1435
g54
(dp1436
g81
g82
ssg63
g1425
sg56
(lp1437
S':'
asbag49
(g70
g51
NtRp1438
(dp1439
g54
(dp1440
sg63
g1425
sg56
(lp1441
g49
(g50
g51
NtRp1442
(dp1443
g54
(dp1444
g62
I4
ssg63
g1438
sg56
(lp1445
g92
asbasbasbag49
(g65
g51
NtRp1446
(dp1447
g54
(dp1448
sg63
g588
sg56
(lp1449
g49
(g70
g51
NtRp1450
(dp1451
g54
(dp1452
g74
g75
ssg63
g1446
sg56
(lp1453
S'wsgi_multithread'
p1454
asbag49
(g70
g51
NtRp1455
(dp1456
g54
(dp1457
g81
g82
ssg63
g1446
sg56
(lp1458
S':'
asbag49
(g70
g51
NtRp1459
(dp1460
g54
(dp1461
sg63
g1446
sg56
(lp1462
g49
(g50
g51
NtRp1463
(dp1464
g54
(dp1465
g62
I4
ssg63
g1459
sg56
(lp1466
S'True'
p1467
asbasbasbag49
(g65
g51
NtRp1468
(dp1469
g54
(dp1470
sg63
g588
sg56
(lp1471
g49
(g70
g51
NtRp1472
(dp1473
g54
(dp1474
g74
g75
ssg63
g1468
sg56
(lp1475
S'wsgi_run_once'
p1476
asbag49
(g70
g51
NtRp1477
(dp1478
g54
(dp1479
g81
g82
ssg63
g1468
sg56
(lp1480
S':'
asbag49
(g70
g51
NtRp1481
(dp1482
g54
(dp1483
sg63
g1468
sg56
(lp1484
g49
(g50
g51
NtRp1485
(dp1486
g54
(dp1487
g62
I4
ssg63
g1481
sg56
(lp1488
g92
asbasbasbag49
(g65
g51
NtRp1489
(dp1490
g54
(dp1491
sg63
g588
sg56
(lp1492
g49
(g70
g51
NtRp1493
(dp1494
g54
(dp1495
g74
g75
ssg63
g1489
sg56
(lp1496
S'wsgi_url_scheme'
p1497
asbag49
(g70
g51
NtRp1498
(dp1499
g54
(dp1500
g81
g82
ssg63
g1489
sg56
(lp1501
S':'
asbag49
(g70
g51
NtRp1502
(dp1503
g54
(dp1504
sg63
g1489
sg56
(lp1505
g49
(g50
g51
NtRp1506
(dp1507
g54
(dp1508
g62
I4
ssg63
g1502
sg56
(lp1509
S'http'
p1510
asbasbasbag49
(g65
g51
NtRp1511
(dp1512
g54
(dp1513
sg63
g588
sg56
(lp1514
g49
(g70
g51
NtRp1515
(dp1516
g54
(dp1517
g74
g75
ssg63
g1511
sg56
(lp1518
S'wsgi_version'
p1519
asbag49
(g70
g51
NtRp1520
(dp1521
g54
(dp1522
g81
g82
ssg63
g1511
sg56
(lp1523
S':'
asbag49
(g70
g51
NtRp1524
(dp1525
g54
(dp1526
sg63
g1511
sg56
(lp1527
g49
(g50
g51
NtRp1528
(dp1529
g54
(dp1530
g62
I4
ssg63
g1524
sg56
(lp1531
g49
(g58
g51
NtRp1532
(dp1533
g54
(dp1534
g62
I3
ssg63
Nsg56
(lp1535
g49
(g65
g51
NtRp1536
(dp1537
g54
(dp1538
sg63
g1532
sg56
(lp1539
g49
(g70
g51
NtRp1540
(dp1541
g54
(dp1542
sg63
g1536
sg56
(lp1543
g49
(g50
g51
NtRp1544
(dp1545
g54
(dp1546
g62
I3
ssg63
g1540
sg56
(lp1547
S'1'
asbasbasbag49
(g65
g51
NtRp1548
(dp1549
g54
(dp1550
sg63
g1532
sg56
(lp1551
g49
(g70
g51
NtRp1552
(dp1553
g54
(dp1554
sg63
g1548
sg56
(lp1555
g49
(g50
g51
NtRp1556
(dp1557
g54
(dp1558
g62
I3
ssg63
g1552
sg56
(lp1559
S'0'
asbasbasbasbasbasbasbasbasbasbasbag49
(g65
g51
NtRp1560
(dp1561
g54
(dp1562
sg63
g59
sg56
(lp1563
g49
(g70
g51
NtRp1564
(dp1565
g54
(dp1566
g74
g75
ssg63
g1560
sg56
(lp1567
S'extension'
p1568
asbag49
(g70
g51
NtRp1569
(dp1570
g54
(dp1571
g81
g82
ssg63
g1560
sg56
(lp1572
S':'
asbag49
(g70
g51
NtRp1573
(dp1574
g54
(dp1575
sg63
g1560
sg56
(lp1576
g49
(g50
g51
NtRp1577
(dp1578
g54
(dp1579
g62
I5
ssg63
g1573
sg56
(lp1580
S'html'
p1581
asbasbasbag49
(g65
g51
NtRp1582
(dp1583
g54
(dp1584
sg63
g59
sg56
(lp1585
g49
(g70
g51
NtRp1586
(dp1587
g54
(dp1588
g74
g75
ssg63
g1582
sg56
(lp1589
S'folder'
p1590
asbag49
(g70
g51
NtRp1591
(dp1592
g54
(dp1593
g81
g82
ssg63
g1582
sg56
(lp1594
S':'
asbag49
(g70
g51
NtRp1595
(dp1596
g54
(dp1597
sg63
g1582
sg56
(lp1598
g49
(g50
g51
NtRp1599
(dp1600
g54
(dp1601
g62
I5
ssg63
g1595
sg56
(lp1602
S'/Users/udimilo/Documents/web2py/applications/udi0312/'
p1603
asbasbasbag49
(g65
g51
NtRp1604
(dp1605
g54
(dp1606
sg63
g59
sg56
(lp1607
g49
(g70
g51
NtRp1608
(dp1609
g54
(dp1610
g74
g75
ssg63
g1604
sg56
(lp1611
S'function'
p1612
asbag49
(g70
g51
NtRp1613
(dp1614
g54
(dp1615
g81
g82
ssg63
g1604
sg56
(lp1616
S':'
asbag49
(g70
g51
NtRp1617
(dp1618
g54
(dp1619
sg63
g1604
sg56
(lp1620
g49
(g50
g51
NtRp1621
(dp1622
g54
(dp1623
g62
I5
ssg63
g1617
sg56
(lp1624
S'add_article'
p1625
asbasbasbag49
(g65
g51
NtRp1626
(dp1627
g54
(dp1628
sg63
g59
sg56
(lp1629
g49
(g70
g51
NtRp1630
(dp1631
g54
(dp1632
g74
g75
ssg63
g1626
sg56
(lp1633
S'get_vars'
p1634
asbag49
(g70
g51
NtRp1635
(dp1636
g54
(dp1637
g81
g82
ssg63
g1626
sg56
(lp1638
S':'
asbag49
(g70
g51
NtRp1639
(dp1640
g54
(dp1641
sg63
g1626
sg56
(lp1642
g49
(g50
g51
NtRp1643
(dp1644
g54
(dp1645
g62
I5
ssg63
g1639
sg56
(lp1646
g49
(g58
g51
NtRp1647
(dp1648
g54
(dp1649
g62
I4
ssg63
Nsg56
(lp1650
g49
(g65
g51
NtRp1651
(dp1652
g54
(dp1653
sg63
g1647
sg56
(lp1654
g49
(g70
g51
NtRp1655
(dp1656
g54
(dp1657
g74
g75
ssg63
g1651
sg56
(lp1658
S'url'
p1659
asbag49
(g70
g51
NtRp1660
(dp1661
g54
(dp1662
g81
g82
ssg63
g1651
sg56
(lp1663
S':'
asbag49
(g70
g51
NtRp1664
(dp1665
g54
(dp1666
sg63
g1651
sg56
(lp1667
g49
(g50
g51
NtRp1668
(dp1669
g54
(dp1670
g62
I4
ssg63
g1664
sg56
(lp1671
S'http://plumpestpeach.blogspot.com/2009/06/grilled-zucchini-rolls-with-goat-cheese.html'
p1672
asbasbasbasbasbasbasbag49
(g65
g51
NtRp1673
(dp1674
g54
(dp1675
sg63
g59
sg56
(lp1676
g49
(g70
g51
NtRp1677
(dp1678
g54
(dp1679
g74
g75
ssg63
g1673
sg56
(lp1680
S'global_settings'
p1681
asbag49
(g70
g51
NtRp1682
(dp1683
g54
(dp1684
g81
g82
ssg63
g1673
sg56
(lp1685
S':'
asbag49
(g70
g51
NtRp1686
(dp1687
g54
(dp1688
sg63
g1673
sg56
(lp1689
g49
(g50
g51
NtRp1690
(dp1691
g54
(dp1692
g62
I5
ssg63
g1686
sg56
(lp1693
g49
(g58
g51
NtRp1694
(dp1695
g54
(dp1696
g62
I4
ssg63
Nsg56
(lp1697
g49
(g65
g51
NtRp1698
(dp1699
g54
(dp1700
sg63
g1694
sg56
(lp1701
g49
(g70
g51
NtRp1702
(dp1703
g54
(dp1704
g74
g75
ssg63
g1698
sg56
(lp1705
g600
asbag49
(g70
g51
NtRp1706
(dp1707
g54
(dp1708
g81
g82
ssg63
g1698
sg56
(lp1709
S':'
asbag49
(g70
g51
NtRp1710
(dp1711
g54
(dp1712
sg63
g1698
sg56
(lp1713
g49
(g50
g51
NtRp1714
(dp1715
g54
(dp1716
g62
I4
ssg63
g1710
sg56
(lp1717
S"set(['/Users/udimilo/Documents/web2py/applications/udi0312/', '/Users/udimilo/Documents/web2py/applications/admin/'])"
p1718
asbasbasbag49
(g65
g51
NtRp1719
(dp1720
g54
(dp1721
sg63
g1694
sg56
(lp1722
g49
(g70
g51
NtRp1723
(dp1724
g54
(dp1725
g74
g75
ssg63
g1719
sg56
(lp1726
g622
asbag49
(g70
g51
NtRp1727
(dp1728
g54
(dp1729
g81
g82
ssg63
g1719
sg56
(lp1730
S':'
asbag49
(g70
g51
NtRp1731
(dp1732
g54
(dp1733
sg63
g1719
sg56
(lp1734
g49
(g50
g51
NtRp1735
(dp1736
g54
(dp1737
g62
I4
ssg63
g1731
sg56
(lp1738
g635
asbasbasbag49
(g65
g51
NtRp1739
(dp1740
g54
(dp1741
sg63
g1694
sg56
(lp1742
g49
(g70
g51
NtRp1743
(dp1744
g54
(dp1745
g74
g75
ssg63
g1739
sg56
(lp1746
g644
asbag49
(g70
g51
NtRp1747
(dp1748
g54
(dp1749
g81
g82
ssg63
g1739
sg56
(lp1750
S':'
asbag49
(g70
g51
NtRp1751
(dp1752
g54
(dp1753
sg63
g1739
sg56
(lp1754
g49
(g50
g51
NtRp1755
(dp1756
g54
(dp1757
g62
I4
ssg63
g1751
sg56
(lp1758
g49
(g58
g51
NtRp1759
(dp1760
g54
(dp1761
g62
I3
ssg63
Nsg56
(lp1762
sbasbasbasbag49
(g65
g51
NtRp1763
(dp1764
g54
(dp1765
sg63
g1694
sg56
(lp1766
g49
(g70
g51
NtRp1767
(dp1768
g54
(dp1769
g74
g75
ssg63
g1763
sg56
(lp1770
g669
asbag49
(g70
g51
NtRp1771
(dp1772
g54
(dp1773
g81
g82
ssg63
g1763
sg56
(lp1774
S':'
asbag49
(g70
g51
NtRp1775
(dp1776
g54
(dp1777
sg63
g1763
sg56
(lp1778
g49
(g50
g51
NtRp1779
(dp1780
g54
(dp1781
g62
I4
ssg63
g1775
sg56
(lp1782
S"<Values at 0x22190a8: {'verbose': False, 'ip': '127.0.0.1', 'shutdown_timeout': 5, 'taskbar': False, 'nocron': False, 'pid_filename': 'httpserver.pid', 'maxthreads': None, 'softcron': False, 'server_name': 'Udi-Milos-MacBook-Pro.local', 'bpython': False, 'nogui': False, 'port': 8000, 'extcron': False, 'debuglevel': 30, 'test': None, 'folder': '/Users/udimilo/Documents/web2py', 'config': '', 'import_models': False, 'winservice': '', 'shell': None, 'run': '', 'log_filename': 'httpserver.log', 'args': [''], 'socket_timeout': 5, 'ssl_ca_certificate': None, 'scheduler': None, 'profiler_filename': None, 'ssl_private_key': '', 'password': '<ask>', 'request_queue_size': 5, 'ssl_certificate': '', 'cronjob': False, 'numthreads': None, 'quiet': False, 'interfaces': None, 'minthreads': None, 'timeout': 10, 'plain': False, 'nobanner': False}>"
p1783
asbasbasbag49
(g65
g51
NtRp1784
(dp1785
g54
(dp1786
sg63
g1694
sg56
(lp1787
g49
(g70
g51
NtRp1788
(dp1789
g54
(dp1790
g74
g75
ssg63
g1784
sg56
(lp1791
g691
asbag49
(g70
g51
NtRp1792
(dp1793
g54
(dp1794
g81
g82
ssg63
g1784
sg56
(lp1795
S':'
asbag49
(g70
g51
NtRp1796
(dp1797
g54
(dp1798
sg63
g1784
sg56
(lp1799
g49
(g50
g51
NtRp1800
(dp1801
g54
(dp1802
g62
I4
ssg63
g1796
sg56
(lp1803
S'set([])'
p1804
asbasbasbag49
(g65
g51
NtRp1805
(dp1806
g54
(dp1807
sg63
g1694
sg56
(lp1808
g49
(g70
g51
NtRp1809
(dp1810
g54
(dp1811
g74
g75
ssg63
g1805
sg56
(lp1812
g713
asbag49
(g70
g51
NtRp1813
(dp1814
g54
(dp1815
g81
g82
ssg63
g1805
sg56
(lp1816
S':'
asbag49
(g70
g51
NtRp1817
(dp1818
g54
(dp1819
sg63
g1805
sg56
(lp1820
g49
(g50
g51
NtRp1821
(dp1822
g54
(dp1823
g62
I4
ssg63
g1817
sg56
(lp1824
g92
asbasbasbag49
(g65
g51
NtRp1825
(dp1826
g54
(dp1827
sg63
g1694
sg56
(lp1828
g49
(g70
g51
NtRp1829
(dp1830
g54
(dp1831
g74
g75
ssg63
g1825
sg56
(lp1832
g734
asbag49
(g70
g51
NtRp1833
(dp1834
g54
(dp1835
g81
g82
ssg63
g1825
sg56
(lp1836
S':'
asbag49
(g70
g51
NtRp1837
(dp1838
g54
(dp1839
sg63
g1825
sg56
(lp1840
g49
(g50
g51
NtRp1841
(dp1842
g54
(dp1843
g62
I4
ssg63
g1837
sg56
(lp1844
g747
asbasbasbag49
(g65
g51
NtRp1845
(dp1846
g54
(dp1847
sg63
g1694
sg56
(lp1848
g49
(g70
g51
NtRp1849
(dp1850
g54
(dp1851
g74
g75
ssg63
g1845
sg56
(lp1852
g932
asbag49
(g70
g51
NtRp1853
(dp1854
g54
(dp1855
g81
g82
ssg63
g1845
sg56
(lp1856
S':'
asbag49
(g70
g51
NtRp1857
(dp1858
g54
(dp1859
sg63
g1845
sg56
(lp1860
g49
(g50
g51
NtRp1861
(dp1862
g54
(dp1863
g62
I4
ssg63
g1857
sg56
(lp1864
g92
asbasbasbag49
(g65
g51
NtRp1865
(dp1866
g54
(dp1867
sg63
g1694
sg56
(lp1868
g49
(g70
g51
NtRp1869
(dp1870
g54
(dp1871
g74
g75
ssg63
g1865
sg56
(lp1872
g953
asbag49
(g70
g51
NtRp1873
(dp1874
g54
(dp1875
g81
g82
ssg63
g1865
sg56
(lp1876
S':'
asbag49
(g70
g51
NtRp1877
(dp1878
g54
(dp1879
sg63
g1865
sg56
(lp1880
g49
(g50
g51
NtRp1881
(dp1882
g54
(dp1883
g62
I4
ssg63
g1877
sg56
(lp1884
g92
asbasbasbag49
(g65
g51
NtRp1885
(dp1886
g54
(dp1887
sg63
g1694
sg56
(lp1888
g49
(g70
g51
NtRp1889
(dp1890
g54
(dp1891
g74
g75
ssg63
g1885
sg56
(lp1892
g1214
asbag49
(g70
g51
NtRp1893
(dp1894
g54
(dp1895
g81
g82
ssg63
g1885
sg56
(lp1896
S':'
asbag49
(g70
g51
NtRp1897
(dp1898
g54
(dp1899
sg63
g1885
sg56
(lp1900
g49
(g50
g51
NtRp1901
(dp1902
g54
(dp1903
g62
I4
ssg63
g1897
sg56
(lp1904
g1227
asbasbasbag49
(g65
g51
NtRp1905
(dp1906
g54
(dp1907
sg63
g1694
sg56
(lp1908
g49
(g70
g51
NtRp1909
(dp1910
g54
(dp1911
g74
g75
ssg63
g1905
sg56
(lp1912
g1279
asbag49
(g70
g51
NtRp1913
(dp1914
g54
(dp1915
g81
g82
ssg63
g1905
sg56
(lp1916
S':'
asbag49
(g70
g51
NtRp1917
(dp1918
g54
(dp1919
sg63
g1905
sg56
(lp1920
g49
(g50
g51
NtRp1921
(dp1922
g54
(dp1923
g62
I4
ssg63
g1917
sg56
(lp1924
g49
(g58
g51
NtRp1925
(dp1926
g54
(dp1927
g62
I3
ssg63
Nsg56
(lp1928
g49
(g65
g51
NtRp1929
(dp1930
g54
(dp1931
sg63
g1925
sg56
(lp1932
g49
(g70
g51
NtRp1933
(dp1934
g54
(dp1935
sg63
g1929
sg56
(lp1936
g49
(g50
g51
NtRp1937
(dp1938
g54
(dp1939
g62
I3
ssg63
g1933
sg56
(lp1940
S'1'
asbasbasbag49
(g65
g51
NtRp1941
(dp1942
g54
(dp1943
sg63
g1925
sg56
(lp1944
g49
(g70
g51
NtRp1945
(dp1946
g54
(dp1947
sg63
g1941
sg56
(lp1948
g49
(g50
g51
NtRp1949
(dp1950
g54
(dp1951
g62
I3
ssg63
g1945
sg56
(lp1952
S'99'
p1953
asbasbasbag49
(g65
g51
NtRp1954
(dp1955
g54
(dp1956
sg63
g1925
sg56
(lp1957
g49
(g70
g51
NtRp1958
(dp1959
g54
(dp1960
sg63
g1954
sg56
(lp1961
g49
(g50
g51
NtRp1962
(dp1963
g54
(dp1964
g62
I3
ssg63
g1958
sg56
(lp1965
S'7'
asbasbasbag49
(g65
g51
NtRp1966
(dp1967
g54
(dp1968
sg63
g1925
sg56
(lp1969
g49
(g70
g51
NtRp1970
(dp1971
g54
(dp1972
sg63
g1966
sg56
(lp1973
g49
(g50
g51
NtRp1974
(dp1975
g54
(dp1976
g62
I3
ssg63
g1970
sg56
(lp1977
S'datetime.datetime(2012, 3, 4, 22, 12, 8)'
p1978
asbasbasbag49
(g65
g51
NtRp1979
(dp1980
g54
(dp1981
sg63
g1925
sg56
(lp1982
g49
(g70
g51
NtRp1983
(dp1984
g54
(dp1985
sg63
g1979
sg56
(lp1986
g49
(g50
g51
NtRp1987
(dp1988
g54
(dp1989
g62
I3
ssg63
g1983
sg56
(lp1990
g1358
asbasbasbasbasbasbasbasbasbasbasbag49
(g65
g51
NtRp1991
(dp1992
g54
(dp1993
sg63
g59
sg56
(lp1994
g49
(g70
g51
NtRp1995
(dp1996
g54
(dp1997
g74
g75
ssg63
g1991
sg56
(lp1998
S'is_https'
p1999
asbag49
(g70
g51
NtRp2000
(dp2001
g54
(dp2002
g81
g82
ssg63
g1991
sg56
(lp2003
S':'
asbag49
(g70
g51
NtRp2004
(dp2005
g54
(dp2006
sg63
g1991
sg56
(lp2007
g49
(g50
g51
NtRp2008
(dp2009
g54
(dp2010
g62
I5
ssg63
g2004
sg56
(lp2011
g92
asbasbasbag49
(g65
g51
NtRp2012
(dp2013
g54
(dp2014
sg63
g59
sg56
(lp2015
g49
(g70
g51
NtRp2016
(dp2017
g54
(dp2018
g74
g75
ssg63
g2012
sg56
(lp2019
S'is_local'
p2020
asbag49
(g70
g51
NtRp2021
(dp2022
g54
(dp2023
g81
g82
ssg63
g2012
sg56
(lp2024
S':'
asbag49
(g70
g51
NtRp2025
(dp2026
g54
(dp2027
sg63
g2012
sg56
(lp2028
g49
(g50
g51
NtRp2029
(dp2030
g54
(dp2031
g62
I5
ssg63
g2025
sg56
(lp2032
g1467
asbasbasbag49
(g65
g51
NtRp2033
(dp2034
g54
(dp2035
sg63
g59
sg56
(lp2036
g49
(g70
g51
NtRp2037
(dp2038
g54
(dp2039
g74
g75
ssg63
g2033
sg56
(lp2040
S'is_restful'
p2041
asbag49
(g70
g51
NtRp2042
(dp2043
g54
(dp2044
g81
g82
ssg63
g2033
sg56
(lp2045
S':'
asbag49
(g70
g51
NtRp2046
(dp2047
g54
(dp2048
sg63
g2033
sg56
(lp2049
g49
(g50
g51
NtRp2050
(dp2051
g54
(dp2052
g62
I5
ssg63
g2046
sg56
(lp2053
g92
asbasbasbag49
(g65
g51
NtRp2054
(dp2055
g54
(dp2056
sg63
g59
sg56
(lp2057
g49
(g70
g51
NtRp2058
(dp2059
g54
(dp2060
g74
g75
ssg63
g2054
sg56
(lp2061
S'now'
p2062
asbag49
(g70
g51
NtRp2063
(dp2064
g54
(dp2065
g81
g82
ssg63
g2054
sg56
(lp2066
S':'
asbag49
(g70
g51
NtRp2067
(dp2068
g54
(dp2069
sg63
g2054
sg56
(lp2070
g49
(g50
g51
NtRp2071
(dp2072
g54
(dp2073
g62
I5
ssg63
g2067
sg56
(lp2074
S'datetime.datetime(2012, 3, 26, 12, 20, 38, 645897)'
p2075
asbasbasbag49
(g65
g51
NtRp2076
(dp2077
g54
(dp2078
sg63
g59
sg56
(lp2079
g49
(g70
g51
NtRp2080
(dp2081
g54
(dp2082
g74
g75
ssg63
g2076
sg56
(lp2083
S'post_vars'
p2084
asbag49
(g70
g51
NtRp2085
(dp2086
g54
(dp2087
g81
g82
ssg63
g2076
sg56
(lp2088
S':'
asbag49
(g70
g51
NtRp2089
(dp2090
g54
(dp2091
sg63
g2076
sg56
(lp2092
g49
(g50
g51
NtRp2093
(dp2094
g54
(dp2095
g62
I5
ssg63
g2089
sg56
(lp2096
g49
(g58
g51
NtRp2097
(dp2098
g54
(dp2099
g62
I4
ssg63
Nsg56
(lp2100
sbasbasbasbag49
(g65
g51
NtRp2101
(dp2102
g54
(dp2103
sg63
g59
sg56
(lp2104
g49
(g70
g51
NtRp2105
(dp2106
g54
(dp2107
g74
g75
ssg63
g2101
sg56
(lp2108
S'url'
p2109
asbag49
(g70
g51
NtRp2110
(dp2111
g54
(dp2112
g81
g82
ssg63
g2101
sg56
(lp2113
S':'
asbag49
(g70
g51
NtRp2114
(dp2115
g54
(dp2116
sg63
g2101
sg56
(lp2117
g49
(g50
g51
NtRp2118
(dp2119
g54
(dp2120
g62
I5
ssg63
g2114
sg56
(lp2121
S'/api/add_article'
p2122
asbasbasbag49
(g65
g51
NtRp2123
(dp2124
g54
(dp2125
sg63
g59
sg56
(lp2126
g49
(g70
g51
NtRp2127
(dp2128
g54
(dp2129
g74
g75
ssg63
g2123
sg56
(lp2130
S'utcnow'
p2131
asbag49
(g70
g51
NtRp2132
(dp2133
g54
(dp2134
g81
g82
ssg63
g2123
sg56
(lp2135
S':'
asbag49
(g70
g51
NtRp2136
(dp2137
g54
(dp2138
sg63
g2123
sg56
(lp2139
g49
(g50
g51
NtRp2140
(dp2141
g54
(dp2142
g62
I5
ssg63
g2136
sg56
(lp2143
S'datetime.datetime(2012, 3, 26, 16, 20, 38, 645914)'
p2144
asbasbasbag49
(g65
g51
NtRp2145
(dp2146
g54
(dp2147
sg63
g59
sg56
(lp2148
g49
(g70
g51
NtRp2149
(dp2150
g54
(dp2151
g74
g75
ssg63
g2145
sg56
(lp2152
S'uuid'
p2153
asbag49
(g70
g51
NtRp2154
(dp2155
g54
(dp2156
g81
g82
ssg63
g2145
sg56
(lp2157
S':'
asbag49
(g70
g51
NtRp2158
(dp2159
g54
(dp2160
sg63
g2145
sg56
(lp2161
g49
(g50
g51
NtRp2162
(dp2163
g54
(dp2164
g62
I5
ssg63
g2158
sg56
(lp2165
S'udi0312/127.0.0.1.2012-03-26.12-20-38.ed86a778-6f58-46d9-b960-1fc544789e99'
p2166
asbasbasbag49
(g65
g51
NtRp2167
(dp2168
g54
(dp2169
sg63
g59
sg56
(lp2170
g49
(g70
g51
NtRp2171
(dp2172
g54
(dp2173
g74
g75
ssg63
g2167
sg56
(lp2174
S'vars'
p2175
asbag49
(g70
g51
NtRp2176
(dp2177
g54
(dp2178
g81
g82
ssg63
g2167
sg56
(lp2179
S':'
asbag49
(g70
g51
NtRp2180
(dp2181
g54
(dp2182
sg63
g2167
sg56
(lp2183
g49
(g50
g51
NtRp2184
(dp2185
g54
(dp2186
g62
I5
ssg63
g2180
sg56
(lp2187
g49
(g58
g51
NtRp2188
(dp2189
g54
(dp2190
g62
I4
ssg63
Nsg56
(lp2191
g49
(g65
g51
NtRp2192
(dp2193
g54
(dp2194
sg63
g2188
sg56
(lp2195
g49
(g70
g51
NtRp2196
(dp2197
g54
(dp2198
g74
g75
ssg63
g2192
sg56
(lp2199
g1659
asbag49
(g70
g51
NtRp2200
(dp2201
g54
(dp2202
g81
g82
ssg63
g2192
sg56
(lp2203
S':'
asbag49
(g70
g51
NtRp2204
(dp2205
g54
(dp2206
sg63
g2192
sg56
(lp2207
g49
(g50
g51
NtRp2208
(dp2209
g54
(dp2210
g62
I4
ssg63
g2204
sg56
(lp2211
g1672
asbasbasbasbasbasbasbag49
(g65
g51
NtRp2212
(dp2213
g54
(dp2214
sg63
g59
sg56
(lp2215
g49
(g70
g51
NtRp2216
(dp2217
g54
(dp2218
g74
g75
ssg63
g2212
sg56
(lp2219
S'wsgi'
p2220
asbag49
(g70
g51
NtRp2221
(dp2222
g54
(dp2223
g81
g82
ssg63
g2212
sg56
(lp2224
S':'
asbag49
(g70
g51
NtRp2225
(dp2226
g54
(dp2227
sg63
g2212
sg56
(lp2228
g49
(g50
g51
NtRp2229
(dp2230
g54
(dp2231
g62
I5
ssg63
g2225
sg56
(lp2232
g49
(g58
g51
NtRp2233
(dp2234
g54
(dp2235
g62
I4
ssg63
Nsg56
(lp2236
g49
(g65
g51
NtRp2237
(dp2238
g54
(dp2239
sg63
g2233
sg56
(lp2240
g49
(g70
g51
NtRp2241
(dp2242
g54
(dp2243
g74
g75
ssg63
g2237
sg56
(lp2244
S'environ'
p2245
asbag49
(g70
g51
NtRp2246
(dp2247
g54
(dp2248
g81
g82
ssg63
g2237
sg56
(lp2249
S':'
asbag49
(g70
g51
NtRp2250
(dp2251
g54
(dp2252
sg63
g2237
sg56
(lp2253
g49
(g50
g51
NtRp2254
(dp2255
g54
(dp2256
g62
I4
ssg63
g2250
sg56
(lp2257
g49
(g58
g51
NtRp2258
(dp2259
g54
(dp2260
g62
I3
ssg63
Nsg56
(lp2261
g49
(g65
g51
NtRp2262
(dp2263
g54
(dp2264
sg63
g2258
sg56
(lp2265
g49
(g70
g51
NtRp2266
(dp2267
g54
(dp2268
g74
g75
ssg63
g2262
sg56
(lp2269
S'HTTP_ACCEPT'
p2270
asbag49
(g70
g51
NtRp2271
(dp2272
g54
(dp2273
g81
g82
ssg63
g2262
sg56
(lp2274
S':'
asbag49
(g70
g51
NtRp2275
(dp2276
g54
(dp2277
sg63
g2262
sg56
(lp2278
g49
(g50
g51
NtRp2279
(dp2280
g54
(dp2281
g62
I3
ssg63
g2275
sg56
(lp2282
g769
asbasbasbag49
(g65
g51
NtRp2283
(dp2284
g54
(dp2285
sg63
g2258
sg56
(lp2286
g49
(g70
g51
NtRp2287
(dp2288
g54
(dp2289
g74
g75
ssg63
g2283
sg56
(lp2290
S'HTTP_ACCEPT_CHARSET'
p2291
asbag49
(g70
g51
NtRp2292
(dp2293
g54
(dp2294
g81
g82
ssg63
g2283
sg56
(lp2295
S':'
asbag49
(g70
g51
NtRp2296
(dp2297
g54
(dp2298
sg63
g2283
sg56
(lp2299
g49
(g50
g51
NtRp2300
(dp2301
g54
(dp2302
g62
I3
ssg63
g2296
sg56
(lp2303
g791
asbasbasbag49
(g65
g51
NtRp2304
(dp2305
g54
(dp2306
sg63
g2258
sg56
(lp2307
g49
(g70
g51
NtRp2308
(dp2309
g54
(dp2310
g74
g75
ssg63
g2304
sg56
(lp2311
S'HTTP_ACCEPT_ENCODING'
p2312
asbag49
(g70
g51
NtRp2313
(dp2314
g54
(dp2315
g81
g82
ssg63
g2304
sg56
(lp2316
S':'
asbag49
(g70
g51
NtRp2317
(dp2318
g54
(dp2319
sg63
g2304
sg56
(lp2320
g49
(g50
g51
NtRp2321
(dp2322
g54
(dp2323
g62
I3
ssg63
g2317
sg56
(lp2324
g813
asbasbasbag49
(g65
g51
NtRp2325
(dp2326
g54
(dp2327
sg63
g2258
sg56
(lp2328
g49
(g70
g51
NtRp2329
(dp2330
g54
(dp2331
g74
g75
ssg63
g2325
sg56
(lp2332
S'HTTP_ACCEPT_LANGUAGE'
p2333
asbag49
(g70
g51
NtRp2334
(dp2335
g54
(dp2336
g81
g82
ssg63
g2325
sg56
(lp2337
S':'
asbag49
(g70
g51
NtRp2338
(dp2339
g54
(dp2340
sg63
g2325
sg56
(lp2341
g49
(g50
g51
NtRp2342
(dp2343
g54
(dp2344
g62
I3
ssg63
g2338
sg56
(lp2345
g835
asbasbasbag49
(g65
g51
NtRp2346
(dp2347
g54
(dp2348
sg63
g2258
sg56
(lp2349
g49
(g70
g51
NtRp2350
(dp2351
g54
(dp2352
g74
g75
ssg63
g2346
sg56
(lp2353
S'HTTP_CONNECTION'
p2354
asbag49
(g70
g51
NtRp2355
(dp2356
g54
(dp2357
g81
g82
ssg63
g2346
sg56
(lp2358
S':'
asbag49
(g70
g51
NtRp2359
(dp2360
g54
(dp2361
sg63
g2346
sg56
(lp2362
g49
(g50
g51
NtRp2363
(dp2364
g54
(dp2365
g62
I3
ssg63
g2359
sg56
(lp2366
g857
asbasbasbag49
(g65
g51
NtRp2367
(dp2368
g54
(dp2369
sg63
g2258
sg56
(lp2370
g49
(g70
g51
NtRp2371
(dp2372
g54
(dp2373
g74
g75
ssg63
g2367
sg56
(lp2374
S'HTTP_COOKIE'
p2375
asbag49
(g70
g51
NtRp2376
(dp2377
g54
(dp2378
g81
g82
ssg63
g2367
sg56
(lp2379
S':'
asbag49
(g70
g51
NtRp2380
(dp2381
g54
(dp2382
sg63
g2367
sg56
(lp2383
g49
(g50
g51
NtRp2384
(dp2385
g54
(dp2386
g62
I3
ssg63
g2380
sg56
(lp2387
g879
asbasbasbag49
(g65
g51
NtRp2388
(dp2389
g54
(dp2390
sg63
g2258
sg56
(lp2391
g49
(g70
g51
NtRp2392
(dp2393
g54
(dp2394
g74
g75
ssg63
g2388
sg56
(lp2395
S'HTTP_HOST'
p2396
asbag49
(g70
g51
NtRp2397
(dp2398
g54
(dp2399
g81
g82
ssg63
g2388
sg56
(lp2400
S':'
asbag49
(g70
g51
NtRp2401
(dp2402
g54
(dp2403
sg63
g2388
sg56
(lp2404
g49
(g50
g51
NtRp2405
(dp2406
g54
(dp2407
g62
I3
ssg63
g2401
sg56
(lp2408
g901
asbasbasbag49
(g65
g51
NtRp2409
(dp2410
g54
(dp2411
sg63
g2258
sg56
(lp2412
g49
(g70
g51
NtRp2413
(dp2414
g54
(dp2415
g74
g75
ssg63
g2409
sg56
(lp2416
S'HTTP_USER_AGENT'
p2417
asbag49
(g70
g51
NtRp2418
(dp2419
g54
(dp2420
g81
g82
ssg63
g2409
sg56
(lp2421
S':'
asbag49
(g70
g51
NtRp2422
(dp2423
g54
(dp2424
sg63
g2409
sg56
(lp2425
g49
(g50
g51
NtRp2426
(dp2427
g54
(dp2428
g62
I3
ssg63
g2422
sg56
(lp2429
g923
asbasbasbag49
(g65
g51
NtRp2430
(dp2431
g54
(dp2432
sg63
g2258
sg56
(lp2433
g49
(g70
g51
NtRp2434
(dp2435
g54
(dp2436
g74
g75
ssg63
g2430
sg56
(lp2437
S'PATH_INFO'
p2438
asbag49
(g70
g51
NtRp2439
(dp2440
g54
(dp2441
g81
g82
ssg63
g2430
sg56
(lp2442
S':'
asbag49
(g70
g51
NtRp2443
(dp2444
g54
(dp2445
sg63
g2430
sg56
(lp2446
g49
(g50
g51
NtRp2447
(dp2448
g54
(dp2449
g62
I3
ssg63
g2443
sg56
(lp2450
g987
asbasbasbag49
(g65
g51
NtRp2451
(dp2452
g54
(dp2453
sg63
g2258
sg56
(lp2454
g49
(g70
g51
NtRp2455
(dp2456
g54
(dp2457
g74
g75
ssg63
g2451
sg56
(lp2458
S'QUERY_STRING'
p2459
asbag49
(g70
g51
NtRp2460
(dp2461
g54
(dp2462
g81
g82
ssg63
g2451
sg56
(lp2463
S':'
asbag49
(g70
g51
NtRp2464
(dp2465
g54
(dp2466
sg63
g2451
sg56
(lp2467
g49
(g50
g51
NtRp2468
(dp2469
g54
(dp2470
g62
I3
ssg63
g2464
sg56
(lp2471
g1009
asbasbasbag49
(g65
g51
NtRp2472
(dp2473
g54
(dp2474
sg63
g2258
sg56
(lp2475
g49
(g70
g51
NtRp2476
(dp2477
g54
(dp2478
g74
g75
ssg63
g2472
sg56
(lp2479
S'REMOTE_ADDR'
p2480
asbag49
(g70
g51
NtRp2481
(dp2482
g54
(dp2483
g81
g82
ssg63
g2472
sg56
(lp2484
S':'
asbag49
(g70
g51
NtRp2485
(dp2486
g54
(dp2487
sg63
g2472
sg56
(lp2488
g49
(g50
g51
NtRp2489
(dp2490
g54
(dp2491
g62
I3
ssg63
g2485
sg56
(lp2492
g182
asbasbasbag49
(g65
g51
NtRp2493
(dp2494
g54
(dp2495
sg63
g2258
sg56
(lp2496
g49
(g70
g51
NtRp2497
(dp2498
g54
(dp2499
g74
g75
ssg63
g2493
sg56
(lp2500
S'REMOTE_PORT'
p2501
asbag49
(g70
g51
NtRp2502
(dp2503
g54
(dp2504
g81
g82
ssg63
g2493
sg56
(lp2505
S':'
asbag49
(g70
g51
NtRp2506
(dp2507
g54
(dp2508
sg63
g2493
sg56
(lp2509
g49
(g50
g51
NtRp2510
(dp2511
g54
(dp2512
g62
I3
ssg63
g2506
sg56
(lp2513
g1052
asbasbasbag49
(g65
g51
NtRp2514
(dp2515
g54
(dp2516
sg63
g2258
sg56
(lp2517
g49
(g70
g51
NtRp2518
(dp2519
g54
(dp2520
g74
g75
ssg63
g2514
sg56
(lp2521
S'REQUEST_METHOD'
p2522
asbag49
(g70
g51
NtRp2523
(dp2524
g54
(dp2525
g81
g82
ssg63
g2514
sg56
(lp2526
S':'
asbag49
(g70
g51
NtRp2527
(dp2528
g54
(dp2529
sg63
g2514
sg56
(lp2530
g49
(g50
g51
NtRp2531
(dp2532
g54
(dp2533
g62
I3
ssg63
g2527
sg56
(lp2534
g1074
asbasbasbag49
(g65
g51
NtRp2535
(dp2536
g54
(dp2537
sg63
g2258
sg56
(lp2538
g49
(g70
g51
NtRp2539
(dp2540
g54
(dp2541
g74
g75
ssg63
g2535
sg56
(lp2542
S'REQUEST_URI'
p2543
asbag49
(g70
g51
NtRp2544
(dp2545
g54
(dp2546
g81
g82
ssg63
g2535
sg56
(lp2547
S':'
asbag49
(g70
g51
NtRp2548
(dp2549
g54
(dp2550
sg63
g2535
sg56
(lp2551
g49
(g50
g51
NtRp2552
(dp2553
g54
(dp2554
g62
I3
ssg63
g2548
sg56
(lp2555
g1096
asbasbasbag49
(g65
g51
NtRp2556
(dp2557
g54
(dp2558
sg63
g2258
sg56
(lp2559
g49
(g70
g51
NtRp2560
(dp2561
g54
(dp2562
g74
g75
ssg63
g2556
sg56
(lp2563
S'SCRIPT_NAME'
p2564
asbag49
(g70
g51
NtRp2565
(dp2566
g54
(dp2567
g81
g82
ssg63
g2556
sg56
(lp2568
S':'
asbag49
(g70
g51
NtRp2569
(dp2570
g54
(dp2571
sg63
g2556
sg56
(lp2572
g49
(g50
g51
NtRp2573
(dp2574
g54
(dp2575
g62
I3
ssg63
g2569
sg56
(lp2576
S''
asbasbasbag49
(g65
g51
NtRp2577
(dp2578
g54
(dp2579
sg63
g2258
sg56
(lp2580
g49
(g70
g51
NtRp2581
(dp2582
g54
(dp2583
g74
g75
ssg63
g2577
sg56
(lp2584
S'SERVER_NAME'
p2585
asbag49
(g70
g51
NtRp2586
(dp2587
g54
(dp2588
g81
g82
ssg63
g2577
sg56
(lp2589
S':'
asbag49
(g70
g51
NtRp2590
(dp2591
g54
(dp2592
sg63
g2577
sg56
(lp2593
g49
(g50
g51
NtRp2594
(dp2595
g54
(dp2596
g62
I3
ssg63
g2590
sg56
(lp2597
g1139
asbasbasbag49
(g65
g51
NtRp2598
(dp2599
g54
(dp2600
sg63
g2258
sg56
(lp2601
g49
(g70
g51
NtRp2602
(dp2603
g54
(dp2604
g74
g75
ssg63
g2598
sg56
(lp2605
S'SERVER_PORT'
p2606
asbag49
(g70
g51
NtRp2607
(dp2608
g54
(dp2609
g81
g82
ssg63
g2598
sg56
(lp2610
S':'
asbag49
(g70
g51
NtRp2611
(dp2612
g54
(dp2613
sg63
g2598
sg56
(lp2614
g49
(g50
g51
NtRp2615
(dp2616
g54
(dp2617
g62
I3
ssg63
g2611
sg56
(lp2618
g1161
asbasbasbag49
(g65
g51
NtRp2619
(dp2620
g54
(dp2621
sg63
g2258
sg56
(lp2622
g49
(g70
g51
NtRp2623
(dp2624
g54
(dp2625
g74
g75
ssg63
g2619
sg56
(lp2626
S'SERVER_PROTOCOL'
p2627
asbag49
(g70
g51
NtRp2628
(dp2629
g54
(dp2630
g81
g82
ssg63
g2619
sg56
(lp2631
S':'
asbag49
(g70
g51
NtRp2632
(dp2633
g54
(dp2634
sg63
g2619
sg56
(lp2635
g49
(g50
g51
NtRp2636
(dp2637
g54
(dp2638
g62
I3
ssg63
g2632
sg56
(lp2639
g1183
asbasbasbag49
(g65
g51
NtRp2640
(dp2641
g54
(dp2642
sg63
g2258
sg56
(lp2643
g49
(g70
g51
NtRp2644
(dp2645
g54
(dp2646
g74
g75
ssg63
g2640
sg56
(lp2647
S'SERVER_SOFTWARE'
p2648
asbag49
(g70
g51
NtRp2649
(dp2650
g54
(dp2651
g81
g82
ssg63
g2640
sg56
(lp2652
S':'
asbag49
(g70
g51
NtRp2653
(dp2654
g54
(dp2655
sg63
g2640
sg56
(lp2656
g49
(g50
g51
NtRp2657
(dp2658
g54
(dp2659
g62
I3
ssg63
g2653
sg56
(lp2660
g1205
asbasbasbag49
(g65
g51
NtRp2661
(dp2662
g54
(dp2663
sg63
g2258
sg56
(lp2664
g49
(g70
g51
NtRp2665
(dp2666
g54
(dp2667
g74
g75
ssg63
g2661
sg56
(lp2668
S'WEB2PY_ORIGINAL_URI'
p2669
asbag49
(g70
g51
NtRp2670
(dp2671
g54
(dp2672
g81
g82
ssg63
g2661
sg56
(lp2673
S':'
asbag49
(g70
g51
NtRp2674
(dp2675
g54
(dp2676
sg63
g2661
sg56
(lp2677
g49
(g50
g51
NtRp2678
(dp2679
g54
(dp2680
g62
I3
ssg63
g2674
sg56
(lp2681
g1249
asbasbasbag49
(g65
g51
NtRp2682
(dp2683
g54
(dp2684
sg63
g2258
sg56
(lp2685
g49
(g70
g51
NtRp2686
(dp2687
g54
(dp2688
g74
g75
ssg63
g2682
sg56
(lp2689
S'wsgi.errors'
p2690
asbag49
(g70
g51
NtRp2691
(dp2692
g54
(dp2693
g81
g82
ssg63
g2682
sg56
(lp2694
S':'
asbag49
(g70
g51
NtRp2695
(dp2696
g54
(dp2697
sg63
g2682
sg56
(lp2698
g49
(g50
g51
NtRp2699
(dp2700
g54
(dp2701
g62
I3
ssg63
g2695
sg56
(lp2702
S"<open file '<stderr>', mode 'w' at 0x4220b0>"
p2703
asbasbasbag49
(g65
g51
NtRp2704
(dp2705
g54
(dp2706
sg63
g2258
sg56
(lp2707
g49
(g70
g51
NtRp2708
(dp2709
g54
(dp2710
g74
g75
ssg63
g2704
sg56
(lp2711
S'wsgi.file_wrapper'
p2712
asbag49
(g70
g51
NtRp2713
(dp2714
g54
(dp2715
g81
g82
ssg63
g2704
sg56
(lp2716
S':'
asbag49
(g70
g51
NtRp2717
(dp2718
g54
(dp2719
sg63
g2704
sg56
(lp2720
g49
(g50
g51
NtRp2721
(dp2722
g54
(dp2723
g62
I3
ssg63
g2717
sg56
(lp2724
S'<class wsgiref.util.FileWrapper at 0x215e6c0>'
p2725
asbasbasbag49
(g65
g51
NtRp2726
(dp2727
g54
(dp2728
sg63
g2258
sg56
(lp2729
g49
(g70
g51
NtRp2730
(dp2731
g54
(dp2732
g74
g75
ssg63
g2726
sg56
(lp2733
S'wsgi.input'
p2734
asbag49
(g70
g51
NtRp2735
(dp2736
g54
(dp2737
g81
g82
ssg63
g2726
sg56
(lp2738
S':'
asbag49
(g70
g51
NtRp2739
(dp2740
g54
(dp2741
sg63
g2726
sg56
(lp2742
g49
(g50
g51
NtRp2743
(dp2744
g54
(dp2745
g62
I3
ssg63
g2739
sg56
(lp2746
S'<cStringIO.StringO object at 0x6d96940>'
p2747
asbasbasbag49
(g65
g51
NtRp2748
(dp2749
g54
(dp2750
sg63
g2258
sg56
(lp2751
g49
(g70
g51
NtRp2752
(dp2753
g54
(dp2754
g74
g75
ssg63
g2748
sg56
(lp2755
S'wsgi.multiprocess'
p2756
asbag49
(g70
g51
NtRp2757
(dp2758
g54
(dp2759
g81
g82
ssg63
g2748
sg56
(lp2760
S':'
asbag49
(g70
g51
NtRp2761
(dp2762
g54
(dp2763
sg63
g2748
sg56
(lp2764
g49
(g50
g51
NtRp2765
(dp2766
g54
(dp2767
g62
I3
ssg63
g2761
sg56
(lp2768
g92
asbasbasbag49
(g65
g51
NtRp2769
(dp2770
g54
(dp2771
sg63
g2258
sg56
(lp2772
g49
(g70
g51
NtRp2773
(dp2774
g54
(dp2775
g74
g75
ssg63
g2769
sg56
(lp2776
S'wsgi.multithread'
p2777
asbag49
(g70
g51
NtRp2778
(dp2779
g54
(dp2780
g81
g82
ssg63
g2769
sg56
(lp2781
S':'
asbag49
(g70
g51
NtRp2782
(dp2783
g54
(dp2784
sg63
g2769
sg56
(lp2785
g49
(g50
g51
NtRp2786
(dp2787
g54
(dp2788
g62
I3
ssg63
g2782
sg56
(lp2789
g1467
asbasbasbag49
(g65
g51
NtRp2790
(dp2791
g54
(dp2792
sg63
g2258
sg56
(lp2793
g49
(g70
g51
NtRp2794
(dp2795
g54
(dp2796
g74
g75
ssg63
g2790
sg56
(lp2797
S'wsgi.run_once'
p2798
asbag49
(g70
g51
NtRp2799
(dp2800
g54
(dp2801
g81
g82
ssg63
g2790
sg56
(lp2802
S':'
asbag49
(g70
g51
NtRp2803
(dp2804
g54
(dp2805
sg63
g2790
sg56
(lp2806
g49
(g50
g51
NtRp2807
(dp2808
g54
(dp2809
g62
I3
ssg63
g2803
sg56
(lp2810
g92
asbasbasbag49
(g65
g51
NtRp2811
(dp2812
g54
(dp2813
sg63
g2258
sg56
(lp2814
g49
(g70
g51
NtRp2815
(dp2816
g54
(dp2817
g74
g75
ssg63
g2811
sg56
(lp2818
S'wsgi.url_scheme'
p2819
asbag49
(g70
g51
NtRp2820
(dp2821
g54
(dp2822
g81
g82
ssg63
g2811
sg56
(lp2823
S':'
asbag49
(g70
g51
NtRp2824
(dp2825
g54
(dp2826
sg63
g2811
sg56
(lp2827
g49
(g50
g51
NtRp2828
(dp2829
g54
(dp2830
g62
I3
ssg63
g2824
sg56
(lp2831
g1510
asbasbasbag49
(g65
g51
NtRp2832
(dp2833
g54
(dp2834
sg63
g2258
sg56
(lp2835
g49
(g70
g51
NtRp2836
(dp2837
g54
(dp2838
g74
g75
ssg63
g2832
sg56
(lp2839
S'wsgi.version'
p2840
asbag49
(g70
g51
NtRp2841
(dp2842
g54
(dp2843
g81
g82
ssg63
g2832
sg56
(lp2844
S':'
asbag49
(g70
g51
NtRp2845
(dp2846
g54
(dp2847
sg63
g2832
sg56
(lp2848
g49
(g50
g51
NtRp2849
(dp2850
g54
(dp2851
g62
I3
ssg63
g2845
sg56
(lp2852
S'1'
asbasbasbasbasbasbasbasbasbasbasbasbasbsS'frames'
p2853
(lp2854
(dp2855
S'file'
p2856
S'/users/udimilo/Documents/web2py/gluon/restricted.py'
p2857
sS'dump'
p2858
(dp2859
S'environment'
p2860
S"{'A': <class 'gluon.html.A'>, 'Auth': <class 'gluon.tools.Auth'>, 'B': <class 'gluon.html.B'>, 'BEAUTIFY': <class 'gluon.html.BEAUTIFY'>, 'BODY': <class 'gluon.html.BODY'>, 'BR': <class 'gluon.html.BR'>, 'BUTTON': <class 'gluon.html.BUTTON'>, 'CAT': <class 'gluon.html.CAT'>, 'CENTER': <class 'gluon.html.CENTER'>, 'CLEANUP': <class 'gluon.validators.CLEANUP'>, ...}"
p2861
sS'ccode'
p2862
S'<code object <module> at 0xa8abf50, file "/Users...applications/udi0312/controllers/api.py", line 2>'
p2863
ssS'lnum'
p2864
I205
sS'lines'
p2865
(dp2866
I200
S'    try:'
p2867
sI201
S'        if type(code) == types.CodeType:'
p2868
sI202
S'            ccode = code'
p2869
sI203
S'        else:'
p2870
sI204
S'            ccode = compile2(code,layer)'
p2871
sI205
S'        exec ccode in environment'
p2872
sI206
S'    except HTTP:'
p2873
sI207
S'        raise'
p2874
sI208
S'    except RestrictedError:'
p2875
sI209
S'        # do not encapsulate (obfuscate) the original RestrictedError'
p2876
ssS'call'
p2877
S"(code='# coding: utf8\\nimport re\\nimport time\\nfrom readab...id\\n\\nresponse._vars=response._caller(add_article)\\n', environment={'A': <class 'gluon.html.A'>, 'Auth': <class 'gluon.tools.Auth'>, 'B': <class 'gluon.html.B'>, 'BEAUTIFY': <class 'gluon.html.BEAUTIFY'>, 'BODY': <class 'gluon.html.BODY'>, 'BR': <class 'gluon.html.BR'>, 'BUTTON': <class 'gluon.html.BUTTON'>, 'CAT': <class 'gluon.html.CAT'>, 'CENTER': <class 'gluon.html.CENTER'>, 'CLEANUP': <class 'gluon.validators.CLEANUP'>, ...}, layer='/Users/udimilo/Documents/web2py/applications/udi0312/controllers/api.py')"
p2878
sS'func'
p2879
S'restricted'
p2880
sa(dp2881
g2856
S'/Users/udimilo/Documents/web2py/applications/udi0312/controllers/api.py'
p2882
sg2858
(dp2883
sg2864
I105
sg2865
(dp2884
I96
S'            article_domain = article.domain,'
p2885
sI97
S'            board=board.id,'
p2886
sI98
S'            board_name=board.name,'
p2887
sI99
S'            user = board.user,'
p2888
sI100
S"            user_name = board.user.first_name + ' ' + board.user.last_name,"
p2889
sI101
S'            )'
p2890
sI102
S''
sI103
S'    return new_pin.id'
p2891
sI94
S'            article_title = article.title,'
p2892
sI95
S'            article_content = article.content,'
p2893
ssg2877
S'()'
p2894
sg2879
S'<module>'
p2895
sa(dp2896
g2856
S'/users/udimilo/Documents/web2py/gluon/globals.py'
p2897
sg2858
(dp2898
S'self'
p2899
S'undefined'
p2900
sS'f'
S'<function add_article at 0xa4c8b70>'
p2901
ssg2864
I173
sg2865
(dp2902
I168
S'        self.menu = []             # used by the default view layout'
p2903
sI169
S'        self.files = []            # used by web2py_ajax.html'
p2904
sI170
S'        self.generic_patterns = [] # patterns to allow generic views'
p2905
sI171
S"        self.delimiters = ('{{','}}')"
p2906
sI172
S'        self._vars = None'
p2907
sI173
S'        self._caller = lambda f: f()'
p2908
sI174
S'        self._view_environment = None'
p2909
sI175
S'        self._custom_commit = None'
p2910
sI176
S'        self._custom_rollback = None'
p2911
sI177
S''
ssg2877
S'(f=<function add_article at 0xa4c8b70>)'
p2912
sg2879
S'<lambda>'
p2913
sa(dp2914
g2856
S'/Users/udimilo/Documents/web2py/applications/udi0312/controllers/api.py'
p2915
sg2858
(dp2916
S'db.pin.article'
p2917
S'<gluon.dal.Field object at 0xa70c5f0>'
p2918
sS'db.pin.board'
p2919
S'<gluon.dal.Field object at 0xaa02690>'
p2920
sS'pin'
p2921
g2900
sS').select'
p2922
g2900
sS'article.id'
p2923
S'347'
p2924
sS'board.id'
p2925
g2900
sS'global db'
p2926
S"<DAL {'auth_event': <Table {'origin': <gluon.dal...n_key': <gluon.dal.Field object at 0xacfad50>}>}>"
p2927
sS'article'
p2928
S"<Row {'domain': 'plumpestpeach.blogspot.com', 's...0>, 'readability_url': 'http://rdd.me/lseuqjj0'}>"
p2929
sS'db.pin'
p2930
S"<Table {'_db': <DAL {'auth_event': <Table {'orig...excerpt': <gluon.dal.Field object at 0xa70cef0>}>"
p2931
sS'board'
p2932
S'None'
p2933
ssg2864
I90
sg2865
(dp2934
I85
S"            date_published=json['date_published'],"
p2935
sI86
S"            next_page_id=json['next_page_id'],"
p2936
sI87
S"            rendered_pages=json['rendered_pages'],"
p2937
sI88
S'        )'
p2938
sI89
S''
sI90
S'    pin = db((db.pin.board == board.id) & (db.pin.article == article.id)).select().first()'
p2939
sI91
S'    if pin is None:'
p2940
sI92
S'        new_pin = db.pin.insert('
p2941
sI93
S'            article=article.id,'
p2942
sI94
S'            article_title = article.title,'
p2943
ssg2877
S'()'
p2944
sg2879
S'add_article'
p2945
sasS'pyver'
p2946
S'Python 2.5.4: /Library/Frameworks/Python.framework/Versions/2.5/Resources/Python.app/Contents/MacOS/Python'
p2947
sS'session'
p2948
g49
(g50
g51
NtRp2949
(dp2950
g54
(dp2951
sg56
(lp2952
g49
(g58
g51
NtRp2953
(dp2954
g54
(dp2955
g62
I5
ssg63
Nsg56
(lp2956
g49
(g65
g51
NtRp2957
(dp2958
g54
(dp2959
sg63
g2953
sg56
(lp2960
g49
(g70
g51
NtRp2961
(dp2962
g54
(dp2963
g74
g75
ssg63
g2957
sg56
(lp2964
S'auth'
p2965
asbag49
(g70
g51
NtRp2966
(dp2967
g54
(dp2968
g81
g82
ssg63
g2957
sg56
(lp2969
S':'
asbag49
(g70
g51
NtRp2970
(dp2971
g54
(dp2972
sg63
g2957
sg56
(lp2973
g49
(g50
g51
NtRp2974
(dp2975
g54
(dp2976
g62
I5
ssg63
g2970
sg56
(lp2977
g49
(g58
g51
NtRp2978
(dp2979
g54
(dp2980
g62
I4
ssg63
Nsg56
(lp2981
g49
(g65
g51
NtRp2982
(dp2983
g54
(dp2984
sg63
g2978
sg56
(lp2985
g49
(g70
g51
NtRp2986
(dp2987
g54
(dp2988
g74
g75
ssg63
g2982
sg56
(lp2989
S'expiration'
p2990
asbag49
(g70
g51
NtRp2991
(dp2992
g54
(dp2993
g81
g82
ssg63
g2982
sg56
(lp2994
S':'
asbag49
(g70
g51
NtRp2995
(dp2996
g54
(dp2997
sg63
g2982
sg56
(lp2998
g49
(g50
g51
NtRp2999
(dp3000
g54
(dp3001
g62
I4
ssg63
g2995
sg56
(lp3002
S'3600'
p3003
asbasbasbag49
(g65
g51
NtRp3004
(dp3005
g54
(dp3006
sg63
g2978
sg56
(lp3007
g49
(g70
g51
NtRp3008
(dp3009
g54
(dp3010
g74
g75
ssg63
g3004
sg56
(lp3011
S'hmac_key'
p3012
asbag49
(g70
g51
NtRp3013
(dp3014
g54
(dp3015
g81
g82
ssg63
g3004
sg56
(lp3016
S':'
asbag49
(g70
g51
NtRp3017
(dp3018
g54
(dp3019
sg63
g3004
sg56
(lp3020
g49
(g50
g51
NtRp3021
(dp3022
g54
(dp3023
g62
I4
ssg63
g3017
sg56
(lp3024
S'7f7fbb55-8028-4e96-b246-d367ecfcc0d5'
p3025
asbasbasbag49
(g65
g51
NtRp3026
(dp3027
g54
(dp3028
sg63
g2978
sg56
(lp3029
g49
(g70
g51
NtRp3030
(dp3031
g54
(dp3032
g74
g75
ssg63
g3026
sg56
(lp3033
S'last_visit'
p3034
asbag49
(g70
g51
NtRp3035
(dp3036
g54
(dp3037
g81
g82
ssg63
g3026
sg56
(lp3038
S':'
asbag49
(g70
g51
NtRp3039
(dp3040
g54
(dp3041
sg63
g3026
sg56
(lp3042
g49
(g50
g51
NtRp3043
(dp3044
g54
(dp3045
g62
I4
ssg63
g3039
sg56
(lp3046
S'datetime.datetime(2012, 3, 26, 12, 17, 44, 418253)'
p3047
asbasbasbag49
(g65
g51
NtRp3048
(dp3049
g54
(dp3050
sg63
g2978
sg56
(lp3051
g49
(g70
g51
NtRp3052
(dp3053
g54
(dp3054
g74
g75
ssg63
g3048
sg56
(lp3055
S'remember'
p3056
asbag49
(g70
g51
NtRp3057
(dp3058
g54
(dp3059
g81
g82
ssg63
g3048
sg56
(lp3060
S':'
asbag49
(g70
g51
NtRp3061
(dp3062
g54
(dp3063
sg63
g3048
sg56
(lp3064
g49
(g50
g51
NtRp3065
(dp3066
g54
(dp3067
g62
I4
ssg63
g3061
sg56
(lp3068
g92
asbasbasbag49
(g65
g51
NtRp3069
(dp3070
g54
(dp3071
sg63
g2978
sg56
(lp3072
g49
(g70
g51
NtRp3073
(dp3074
g54
(dp3075
g74
g75
ssg63
g3069
sg56
(lp3076
S'user'
p3077
asbag49
(g70
g51
NtRp3078
(dp3079
g54
(dp3080
g81
g82
ssg63
g3069
sg56
(lp3081
S':'
asbag49
(g70
g51
NtRp3082
(dp3083
g54
(dp3084
sg63
g3069
sg56
(lp3085
g49
(g50
g51
NtRp3086
(dp3087
g54
(dp3088
g62
I4
ssg63
g3082
sg56
(lp3089
g49
(g58
g51
NtRp3090
(dp3091
g54
(dp3092
g62
I3
ssg63
Nsg56
(lp3093
g49
(g65
g51
NtRp3094
(dp3095
g54
(dp3096
sg63
g3090
sg56
(lp3097
g49
(g70
g51
NtRp3098
(dp3099
g54
(dp3100
g74
g75
ssg63
g3094
sg56
(lp3101
S'email'
p3102
asbag49
(g70
g51
NtRp3103
(dp3104
g54
(dp3105
g81
g82
ssg63
g3094
sg56
(lp3106
S':'
asbag49
(g70
g51
NtRp3107
(dp3108
g54
(dp3109
sg63
g3094
sg56
(lp3110
g49
(g50
g51
NtRp3111
(dp3112
g54
(dp3113
g62
I3
ssg63
g3107
sg56
(lp3114
S'udimilo@gmail.com'
p3115
asbasbasbag49
(g65
g51
NtRp3116
(dp3117
g54
(dp3118
sg63
g3090
sg56
(lp3119
g49
(g70
g51
NtRp3120
(dp3121
g54
(dp3122
g74
g75
ssg63
g3116
sg56
(lp3123
S'first_name'
p3124
asbag49
(g70
g51
NtRp3125
(dp3126
g54
(dp3127
g81
g82
ssg63
g3116
sg56
(lp3128
S':'
asbag49
(g70
g51
NtRp3129
(dp3130
g54
(dp3131
sg63
g3116
sg56
(lp3132
g49
(g50
g51
NtRp3133
(dp3134
g54
(dp3135
g62
I3
ssg63
g3129
sg56
(lp3136
S'Udi'
p3137
asbasbasbag49
(g65
g51
NtRp3138
(dp3139
g54
(dp3140
sg63
g3090
sg56
(lp3141
g49
(g70
g51
NtRp3142
(dp3143
g54
(dp3144
g74
g75
ssg63
g3138
sg56
(lp3145
S'id'
p3146
asbag49
(g70
g51
NtRp3147
(dp3148
g54
(dp3149
g81
g82
ssg63
g3138
sg56
(lp3150
S':'
asbag49
(g70
g51
NtRp3151
(dp3152
g54
(dp3153
sg63
g3138
sg56
(lp3154
g49
(g50
g51
NtRp3155
(dp3156
g54
(dp3157
g62
I3
ssg63
g3151
sg56
(lp3158
S'1'
asbasbasbag49
(g65
g51
NtRp3159
(dp3160
g54
(dp3161
sg63
g3090
sg56
(lp3162
g49
(g70
g51
NtRp3163
(dp3164
g54
(dp3165
g74
g75
ssg63
g3159
sg56
(lp3166
S'last_name'
p3167
asbag49
(g70
g51
NtRp3168
(dp3169
g54
(dp3170
g81
g82
ssg63
g3159
sg56
(lp3171
S':'
asbag49
(g70
g51
NtRp3172
(dp3173
g54
(dp3174
sg63
g3159
sg56
(lp3175
g49
(g50
g51
NtRp3176
(dp3177
g54
(dp3178
g62
I3
ssg63
g3172
sg56
(lp3179
S'Milo'
p3180
asbasbasbag49
(g65
g51
NtRp3181
(dp3182
g54
(dp3183
sg63
g3090
sg56
(lp3184
g49
(g70
g51
NtRp3185
(dp3186
g54
(dp3187
g74
g75
ssg63
g3181
sg56
(lp3188
S'password'
p3189
asbag49
(g70
g51
NtRp3190
(dp3191
g54
(dp3192
g81
g82
ssg63
g3181
sg56
(lp3193
S':'
asbag49
(g70
g51
NtRp3194
(dp3195
g54
(dp3196
sg63
g3181
sg56
(lp3197
g49
(g50
g51
NtRp3198
(dp3199
g54
(dp3200
g62
I3
ssg63
g3194
sg56
(lp3201
S'7a6e3c6a68ceed66634484a3f64a3468'
p3202
asbasbasbag49
(g65
g51
NtRp3203
(dp3204
g54
(dp3205
sg63
g3090
sg56
(lp3206
g49
(g70
g51
NtRp3207
(dp3208
g54
(dp3209
g74
g75
ssg63
g3203
sg56
(lp3210
S'registration_id'
p3211
asbag49
(g70
g51
NtRp3212
(dp3213
g54
(dp3214
g81
g82
ssg63
g3203
sg56
(lp3215
S':'
asbag49
(g70
g51
NtRp3216
(dp3217
g54
(dp3218
sg63
g3203
sg56
(lp3219
g49
(g50
g51
NtRp3220
(dp3221
g54
(dp3222
g62
I3
ssg63
g3216
sg56
(lp3223
S''
asbasbasbag49
(g65
g51
NtRp3224
(dp3225
g54
(dp3226
sg63
g3090
sg56
(lp3227
g49
(g70
g51
NtRp3228
(dp3229
g54
(dp3230
g74
g75
ssg63
g3224
sg56
(lp3231
S'registration_key'
p3232
asbag49
(g70
g51
NtRp3233
(dp3234
g54
(dp3235
g81
g82
ssg63
g3224
sg56
(lp3236
S':'
asbag49
(g70
g51
NtRp3237
(dp3238
g54
(dp3239
sg63
g3224
sg56
(lp3240
g49
(g50
g51
NtRp3241
(dp3242
g54
(dp3243
g62
I3
ssg63
g3237
sg56
(lp3244
S''
asbasbasbag49
(g65
g51
NtRp3245
(dp3246
g54
(dp3247
sg63
g3090
sg56
(lp3248
g49
(g70
g51
NtRp3249
(dp3250
g54
(dp3251
g74
g75
ssg63
g3245
sg56
(lp3252
S'reset_password_key'
p3253
asbag49
(g70
g51
NtRp3254
(dp3255
g54
(dp3256
g81
g82
ssg63
g3245
sg56
(lp3257
S':'
asbag49
(g70
g51
NtRp3258
(dp3259
g54
(dp3260
sg63
g3245
sg56
(lp3261
g49
(g50
g51
NtRp3262
(dp3263
g54
(dp3264
g62
I3
ssg63
g3258
sg56
(lp3265
S''
asbasbasbasbasbasbasbag49
(g65
g51
NtRp3266
(dp3267
g54
(dp3268
sg63
g2978
sg56
(lp3269
g49
(g70
g51
NtRp3270
(dp3271
g54
(dp3272
g74
g75
ssg63
g3266
sg56
(lp3273
S'user_groups'
p3274
asbag49
(g70
g51
NtRp3275
(dp3276
g54
(dp3277
g81
g82
ssg63
g3266
sg56
(lp3278
S':'
asbag49
(g70
g51
NtRp3279
(dp3280
g54
(dp3281
sg63
g3266
sg56
(lp3282
g49
(g50
g51
NtRp3283
(dp3284
g54
(dp3285
g62
I4
ssg63
g3279
sg56
(lp3286
g49
(g58
g51
NtRp3287
(dp3288
g54
(dp3289
g62
I3
ssg63
Nsg56
(lp3290
g49
(g65
g51
NtRp3291
(dp3292
g54
(dp3293
sg63
g3287
sg56
(lp3294
g49
(g70
g51
NtRp3295
(dp3296
g54
(dp3297
g74
g75
ssg63
g3291
sg56
(lp3298
S'1'
asbag49
(g70
g51
NtRp3299
(dp3300
g54
(dp3301
g81
g82
ssg63
g3291
sg56
(lp3302
S':'
asbag49
(g70
g51
NtRp3303
(dp3304
g54
(dp3305
sg63
g3291
sg56
(lp3306
g49
(g50
g51
NtRp3307
(dp3308
g54
(dp3309
g62
I3
ssg63
g3303
sg56
(lp3310
S'user_1'
p3311
asbasbasbasbasbasbasbasbasbasbasbag49
(g65
g51
NtRp3312
(dp3313
g54
(dp3314
sg63
g2953
sg56
(lp3315
g49
(g70
g51
NtRp3316
(dp3317
g54
(dp3318
g74
g75
ssg63
g3312
sg56
(lp3319
S'last_query'
p3320
asbag49
(g70
g51
NtRp3321
(dp3322
g54
(dp3323
g81
g82
ssg63
g3312
sg56
(lp3324
S':'
asbag49
(g70
g51
NtRp3325
(dp3326
g54
(dp3327
sg63
g3312
sg56
(lp3328
g49
(g50
g51
NtRp3329
(dp3330
g54
(dp3331
g62
I5
ssg63
g3325
sg56
(lp3332
S'db.pin.id>0'
p3333
asbasbasbasbasbsS'etype'
p3334
S"<type 'exceptions.AttributeError'>"
p3335
sS'date'
p3336
S'Mon Mar 26 12:20:38 2012'
p3337
sS'response'
p3338
g49
(g50
g51
NtRp3339
(dp3340
g54
(dp3341
sg56
(lp3342
g49
(g58
g51
NtRp3343
(dp3344
g54
(dp3345
g62
I5
ssg63
Nsg56
(lp3346
g49
(g65
g51
NtRp3347
(dp3348
g54
(dp3349
sg63
g3343
sg56
(lp3350
g49
(g70
g51
NtRp3351
(dp3352
g54
(dp3353
g74
g75
ssg63
g3347
sg56
(lp3354
g147
asbag49
(g70
g51
NtRp3355
(dp3356
g54
(dp3357
g81
g82
ssg63
g3347
sg56
(lp3358
S':'
asbag49
(g70
g51
NtRp3359
(dp3360
g54
(dp3361
sg63
g3347
sg56
(lp3362
g49
(g50
g51
NtRp3363
(dp3364
g54
(dp3365
g62
I5
ssg63
g3359
sg56
(lp3366
S'<cStringIO.StringO object at 0x6d96780>'
p3367
asbasbasbag49
(g65
g51
NtRp3368
(dp3369
g54
(dp3370
sg63
g3343
sg56
(lp3371
g49
(g70
g51
NtRp3372
(dp3373
g54
(dp3374
g74
g75
ssg63
g3368
sg56
(lp3375
g213
asbag49
(g70
g51
NtRp3376
(dp3377
g54
(dp3378
g81
g82
ssg63
g3368
sg56
(lp3379
S':'
asbag49
(g70
g51
NtRp3380
(dp3381
g54
(dp3382
sg63
g3368
sg56
(lp3383
g49
(g50
g51
NtRp3384
(dp3385
g54
(dp3386
g62
I5
ssg63
g3380
sg56
(lp3387
g49
(g58
g51
NtRp3388
(dp3389
g54
(dp3390
g62
I4
ssg63
Nsg56
(lp3391
g49
(g65
g51
NtRp3392
(dp3393
g54
(dp3394
sg63
g3388
sg56
(lp3395
g49
(g70
g51
NtRp3396
(dp3397
g54
(dp3398
g74
g75
ssg63
g3392
sg56
(lp3399
S'session_id_udi0312'
p3400
asbag49
(g70
g51
NtRp3401
(dp3402
g54
(dp3403
g81
g82
ssg63
g3392
sg56
(lp3404
S':'
asbag49
(g70
g51
NtRp3405
(dp3406
g54
(dp3407
sg63
g3392
sg56
(lp3408
g49
(g50
g51
NtRp3409
(dp3410
g54
(dp3411
g62
I4
ssg63
g3405
sg56
(lp3412
g49
(g58
g51
NtRp3413
(dp3414
g54
(dp3415
g62
I3
ssg63
Nsg56
(lp3416
g49
(g65
g51
NtRp3417
(dp3418
g54
(dp3419
sg63
g3413
sg56
(lp3420
g49
(g70
g51
NtRp3421
(dp3422
g54
(dp3423
g74
g75
ssg63
g3417
sg56
(lp3424
g263
asbag49
(g70
g51
NtRp3425
(dp3426
g54
(dp3427
g81
g82
ssg63
g3417
sg56
(lp3428
S':'
asbag49
(g70
g51
NtRp3429
(dp3430
g54
(dp3431
sg63
g3417
sg56
(lp3432
g49
(g50
g51
NtRp3433
(dp3434
g54
(dp3435
g62
I3
ssg63
g3429
sg56
(lp3436
S''
asbasbasbag49
(g65
g51
NtRp3437
(dp3438
g54
(dp3439
sg63
g3413
sg56
(lp3440
g49
(g70
g51
NtRp3441
(dp3442
g54
(dp3443
g74
g75
ssg63
g3437
sg56
(lp3444
g284
asbag49
(g70
g51
NtRp3445
(dp3446
g54
(dp3447
g81
g82
ssg63
g3437
sg56
(lp3448
S':'
asbag49
(g70
g51
NtRp3449
(dp3450
g54
(dp3451
sg63
g3437
sg56
(lp3452
g49
(g50
g51
NtRp3453
(dp3454
g54
(dp3455
g62
I3
ssg63
g3449
sg56
(lp3456
S''
asbasbasbag49
(g65
g51
NtRp3457
(dp3458
g54
(dp3459
sg63
g3413
sg56
(lp3460
g49
(g70
g51
NtRp3461
(dp3462
g54
(dp3463
g74
g75
ssg63
g3457
sg56
(lp3464
g305
asbag49
(g70
g51
NtRp3465
(dp3466
g54
(dp3467
g81
g82
ssg63
g3457
sg56
(lp3468
S':'
asbag49
(g70
g51
NtRp3469
(dp3470
g54
(dp3471
sg63
g3457
sg56
(lp3472
g49
(g50
g51
NtRp3473
(dp3474
g54
(dp3475
g62
I3
ssg63
g3469
sg56
(lp3476
S''
asbasbasbag49
(g65
g51
NtRp3477
(dp3478
g54
(dp3479
sg63
g3413
sg56
(lp3480
g49
(g70
g51
NtRp3481
(dp3482
g54
(dp3483
g74
g75
ssg63
g3477
sg56
(lp3484
g326
asbag49
(g70
g51
NtRp3485
(dp3486
g54
(dp3487
g81
g82
ssg63
g3477
sg56
(lp3488
S':'
asbag49
(g70
g51
NtRp3489
(dp3490
g54
(dp3491
sg63
g3477
sg56
(lp3492
g49
(g50
g51
NtRp3493
(dp3494
g54
(dp3495
g62
I3
ssg63
g3489
sg56
(lp3496
S''
asbasbasbag49
(g65
g51
NtRp3497
(dp3498
g54
(dp3499
sg63
g3413
sg56
(lp3500
g49
(g70
g51
NtRp3501
(dp3502
g54
(dp3503
g74
g75
ssg63
g3497
sg56
(lp3504
g347
asbag49
(g70
g51
NtRp3505
(dp3506
g54
(dp3507
g81
g82
ssg63
g3497
sg56
(lp3508
S':'
asbag49
(g70
g51
NtRp3509
(dp3510
g54
(dp3511
sg63
g3497
sg56
(lp3512
g49
(g50
g51
NtRp3513
(dp3514
g54
(dp3515
g62
I3
ssg63
g3509
sg56
(lp3516
S'/'
asbasbasbag49
(g65
g51
NtRp3517
(dp3518
g54
(dp3519
sg63
g3413
sg56
(lp3520
g49
(g70
g51
NtRp3521
(dp3522
g54
(dp3523
g74
g75
ssg63
g3517
sg56
(lp3524
g368
asbag49
(g70
g51
NtRp3525
(dp3526
g54
(dp3527
g81
g82
ssg63
g3517
sg56
(lp3528
S':'
asbag49
(g70
g51
NtRp3529
(dp3530
g54
(dp3531
sg63
g3517
sg56
(lp3532
g49
(g50
g51
NtRp3533
(dp3534
g54
(dp3535
g62
I3
ssg63
g3529
sg56
(lp3536
S''
asbasbasbag49
(g65
g51
NtRp3537
(dp3538
g54
(dp3539
sg63
g3413
sg56
(lp3540
g49
(g70
g51
NtRp3541
(dp3542
g54
(dp3543
g74
g75
ssg63
g3537
sg56
(lp3544
g389
asbag49
(g70
g51
NtRp3545
(dp3546
g54
(dp3547
g81
g82
ssg63
g3537
sg56
(lp3548
S':'
asbag49
(g70
g51
NtRp3549
(dp3550
g54
(dp3551
sg63
g3537
sg56
(lp3552
g49
(g50
g51
NtRp3553
(dp3554
g54
(dp3555
g62
I3
ssg63
g3549
sg56
(lp3556
S''
asbasbasbasbasbasbasbasbasbasbasbag49
(g65
g51
NtRp3557
(dp3558
g54
(dp3559
sg63
g3343
sg56
(lp3560
g49
(g70
g51
NtRp3561
(dp3562
g54
(dp3563
g74
g75
ssg63
g3557
sg56
(lp3564
S'delimiters'
p3565
asbag49
(g70
g51
NtRp3566
(dp3567
g54
(dp3568
g81
g82
ssg63
g3557
sg56
(lp3569
S':'
asbag49
(g70
g51
NtRp3570
(dp3571
g54
(dp3572
sg63
g3557
sg56
(lp3573
g49
(g50
g51
NtRp3574
(dp3575
g54
(dp3576
g62
I5
ssg63
g3570
sg56
(lp3577
g49
(g58
g51
NtRp3578
(dp3579
g54
(dp3580
g62
I4
ssg63
Nsg56
(lp3581
g49
(g65
g51
NtRp3582
(dp3583
g54
(dp3584
sg63
g3578
sg56
(lp3585
g49
(g70
g51
NtRp3586
(dp3587
g54
(dp3588
sg63
g3582
sg56
(lp3589
g49
(g50
g51
NtRp3590
(dp3591
g54
(dp3592
g62
I4
ssg63
g3586
sg56
(lp3593
S'{{'
p3594
asbasbasbag49
(g65
g51
NtRp3595
(dp3596
g54
(dp3597
sg63
g3578
sg56
(lp3598
g49
(g70
g51
NtRp3599
(dp3600
g54
(dp3601
sg63
g3595
sg56
(lp3602
g49
(g50
g51
NtRp3603
(dp3604
g54
(dp3605
g62
I4
ssg63
g3599
sg56
(lp3606
S'}}'
p3607
asbasbasbasbasbasbasbag49
(g65
g51
NtRp3608
(dp3609
g54
(dp3610
sg63
g3343
sg56
(lp3611
g49
(g70
g51
NtRp3612
(dp3613
g54
(dp3614
g74
g75
ssg63
g3608
sg56
(lp3615
S'files'
p3616
asbag49
(g70
g51
NtRp3617
(dp3618
g54
(dp3619
g81
g82
ssg63
g3608
sg56
(lp3620
S':'
asbag49
(g70
g51
NtRp3621
(dp3622
g54
(dp3623
sg63
g3608
sg56
(lp3624
g49
(g50
g51
NtRp3625
(dp3626
g54
(dp3627
g62
I5
ssg63
g3621
sg56
(lp3628
g49
(g58
g51
NtRp3629
(dp3630
g54
(dp3631
g62
I4
ssg63
Nsg56
(lp3632
sbasbasbasbag49
(g65
g51
NtRp3633
(dp3634
g54
(dp3635
sg63
g3343
sg56
(lp3636
g49
(g70
g51
NtRp3637
(dp3638
g54
(dp3639
g74
g75
ssg63
g3633
sg56
(lp3640
S'flash'
p3641
asbag49
(g70
g51
NtRp3642
(dp3643
g54
(dp3644
g81
g82
ssg63
g3633
sg56
(lp3645
S':'
asbag49
(g70
g51
NtRp3646
(dp3647
g54
(dp3648
sg63
g3633
sg56
(lp3649
g49
(g50
g51
NtRp3650
(dp3651
g54
(dp3652
g62
I5
ssg63
g3646
sg56
(lp3653
S''
asbasbasbag49
(g65
g51
NtRp3654
(dp3655
g54
(dp3656
sg63
g3343
sg56
(lp3657
g49
(g70
g51
NtRp3658
(dp3659
g54
(dp3660
g74
g75
ssg63
g3654
sg56
(lp3661
S'generic_patterns'
p3662
asbag49
(g70
g51
NtRp3663
(dp3664
g54
(dp3665
g81
g82
ssg63
g3654
sg56
(lp3666
S':'
asbag49
(g70
g51
NtRp3667
(dp3668
g54
(dp3669
sg63
g3654
sg56
(lp3670
g49
(g50
g51
NtRp3671
(dp3672
g54
(dp3673
g62
I5
ssg63
g3667
sg56
(lp3674
g49
(g58
g51
NtRp3675
(dp3676
g54
(dp3677
g62
I4
ssg63
Nsg56
(lp3678
g49
(g65
g51
NtRp3679
(dp3680
g54
(dp3681
sg63
g3675
sg56
(lp3682
g49
(g70
g51
NtRp3683
(dp3684
g54
(dp3685
sg63
g3679
sg56
(lp3686
g49
(g50
g51
NtRp3687
(dp3688
g54
(dp3689
g62
I4
ssg63
g3683
sg56
(lp3690
S'*'
asbasbasbasbasbasbasbag49
(g65
g51
NtRp3691
(dp3692
g54
(dp3693
sg63
g3343
sg56
(lp3694
g49
(g70
g51
NtRp3695
(dp3696
g54
(dp3697
g74
g75
ssg63
g3691
sg56
(lp3698
S'headers'
p3699
asbag49
(g70
g51
NtRp3700
(dp3701
g54
(dp3702
g81
g82
ssg63
g3691
sg56
(lp3703
S':'
asbag49
(g70
g51
NtRp3704
(dp3705
g54
(dp3706
sg63
g3691
sg56
(lp3707
g49
(g50
g51
NtRp3708
(dp3709
g54
(dp3710
g62
I5
ssg63
g3704
sg56
(lp3711
g49
(g58
g51
NtRp3712
(dp3713
g54
(dp3714
g62
I4
ssg63
Nsg56
(lp3715
g49
(g65
g51
NtRp3716
(dp3717
g54
(dp3718
sg63
g3712
sg56
(lp3719
g49
(g70
g51
NtRp3720
(dp3721
g54
(dp3722
g74
g75
ssg63
g3716
sg56
(lp3723
S'Cache-Control'
p3724
asbag49
(g70
g51
NtRp3725
(dp3726
g54
(dp3727
g81
g82
ssg63
g3716
sg56
(lp3728
S':'
asbag49
(g70
g51
NtRp3729
(dp3730
g54
(dp3731
sg63
g3716
sg56
(lp3732
g49
(g50
g51
NtRp3733
(dp3734
g54
(dp3735
g62
I4
ssg63
g3729
sg56
(lp3736
S'no-store, no-cache, must-revalidate, post-check=0, pre-check=0'
p3737
asbasbasbag49
(g65
g51
NtRp3738
(dp3739
g54
(dp3740
sg63
g3712
sg56
(lp3741
g49
(g70
g51
NtRp3742
(dp3743
g54
(dp3744
g74
g75
ssg63
g3738
sg56
(lp3745
S'Content-Type'
p3746
asbag49
(g70
g51
NtRp3747
(dp3748
g54
(dp3749
g81
g82
ssg63
g3738
sg56
(lp3750
S':'
asbag49
(g70
g51
NtRp3751
(dp3752
g54
(dp3753
sg63
g3738
sg56
(lp3754
g49
(g50
g51
NtRp3755
(dp3756
g54
(dp3757
g62
I4
ssg63
g3751
sg56
(lp3758
S'text/html; charset=utf-8'
p3759
asbasbasbag49
(g65
g51
NtRp3760
(dp3761
g54
(dp3762
sg63
g3712
sg56
(lp3763
g49
(g70
g51
NtRp3764
(dp3765
g54
(dp3766
g74
g75
ssg63
g3760
sg56
(lp3767
S'Expires'
p3768
asbag49
(g70
g51
NtRp3769
(dp3770
g54
(dp3771
g81
g82
ssg63
g3760
sg56
(lp3772
S':'
asbag49
(g70
g51
NtRp3773
(dp3774
g54
(dp3775
sg63
g3760
sg56
(lp3776
g49
(g50
g51
NtRp3777
(dp3778
g54
(dp3779
g62
I4
ssg63
g3773
sg56
(lp3780
S'Mon, 26 Mar 2012 16:20:38 GMT'
p3781
asbasbasbag49
(g65
g51
NtRp3782
(dp3783
g54
(dp3784
sg63
g3712
sg56
(lp3785
g49
(g70
g51
NtRp3786
(dp3787
g54
(dp3788
g74
g75
ssg63
g3782
sg56
(lp3789
S'Pragma'
p3790
asbag49
(g70
g51
NtRp3791
(dp3792
g54
(dp3793
g81
g82
ssg63
g3782
sg56
(lp3794
S':'
asbag49
(g70
g51
NtRp3795
(dp3796
g54
(dp3797
sg63
g3782
sg56
(lp3798
g49
(g50
g51
NtRp3799
(dp3800
g54
(dp3801
g62
I4
ssg63
g3795
sg56
(lp3802
S'no-cache'
p3803
asbasbasbag49
(g65
g51
NtRp3804
(dp3805
g54
(dp3806
sg63
g3712
sg56
(lp3807
g49
(g70
g51
NtRp3808
(dp3809
g54
(dp3810
g74
g75
ssg63
g3804
sg56
(lp3811
S'X-Powered-By'
p3812
asbag49
(g70
g51
NtRp3813
(dp3814
g54
(dp3815
g81
g82
ssg63
g3804
sg56
(lp3816
S':'
asbag49
(g70
g51
NtRp3817
(dp3818
g54
(dp3819
sg63
g3804
sg56
(lp3820
g49
(g50
g51
NtRp3821
(dp3822
g54
(dp3823
g62
I4
ssg63
g3817
sg56
(lp3824
S'web2py'
p3825
asbasbasbasbasbasbasbag49
(g65
g51
NtRp3826
(dp3827
g54
(dp3828
sg63
g3343
sg56
(lp3829
g49
(g70
g51
NtRp3830
(dp3831
g54
(dp3832
g74
g75
ssg63
g3826
sg56
(lp3833
S'menu'
p3834
asbag49
(g70
g51
NtRp3835
(dp3836
g54
(dp3837
g81
g82
ssg63
g3826
sg56
(lp3838
S':'
asbag49
(g70
g51
NtRp3839
(dp3840
g54
(dp3841
sg63
g3826
sg56
(lp3842
g49
(g50
g51
NtRp3843
(dp3844
g54
(dp3845
g62
I5
ssg63
g3839
sg56
(lp3846
g49
(g58
g51
NtRp3847
(dp3848
g54
(dp3849
g62
I4
ssg63
Nsg56
(lp3850
g49
(g65
g51
NtRp3851
(dp3852
g54
(dp3853
sg63
g3847
sg56
(lp3854
g49
(g70
g51
NtRp3855
(dp3856
g54
(dp3857
sg63
g3851
sg56
(lp3858
g49
(g50
g51
NtRp3859
(dp3860
g54
(dp3861
g62
I4
ssg63
g3855
sg56
(lp3862
g49
(g58
g51
NtRp3863
(dp3864
g54
(dp3865
g62
I3
ssg63
Nsg56
(lp3866
g49
(g65
g51
NtRp3867
(dp3868
g54
(dp3869
sg63
g3863
sg56
(lp3870
g49
(g70
g51
NtRp3871
(dp3872
g54
(dp3873
sg63
g3867
sg56
(lp3874
g49
(g50
g51
NtRp3875
(dp3876
g54
(dp3877
g62
I3
ssg63
g3871
sg56
(lp3878
cgluon.languages
lazyT_unpickle
p3879
(S's\x04\x00\x00\x00Home'
tRp3880
asbasbasbag49
(g65
g51
NtRp3881
(dp3882
g54
(dp3883
sg63
g3863
sg56
(lp3884
g49
(g70
g51
NtRp3885
(dp3886
g54
(dp3887
sg63
g3881
sg56
(lp3888
g49
(g50
g51
NtRp3889
(dp3890
g54
(dp3891
g62
I3
ssg63
g3885
sg56
(lp3892
g92
asbasbasbag49
(g65
g51
NtRp3893
(dp3894
g54
(dp3895
sg63
g3863
sg56
(lp3896
g49
(g70
g51
NtRp3897
(dp3898
g54
(dp3899
sg63
g3893
sg56
(lp3900
g49
(g50
g51
NtRp3901
(dp3902
g54
(dp3903
g62
I3
ssg63
g3897
sg56
(lp3904
S'/'
asbasbasbag49
(g65
g51
NtRp3905
(dp3906
g54
(dp3907
sg63
g3863
sg56
(lp3908
g49
(g70
g51
NtRp3909
(dp3910
g54
(dp3911
sg63
g3905
sg56
(lp3912
g49
(g50
g51
NtRp3913
(dp3914
g54
(dp3915
g62
I3
ssg63
g3909
sg56
(lp3916
g49
(g58
g51
NtRp3917
(dp3918
g54
(dp3919
g62
I2
ssg63
Nsg56
(lp3920
sbasbasbasbasbasbasbasbag49
(g65
g51
NtRp3921
(dp3922
g54
(dp3923
sg63
g3847
sg56
(lp3924
g49
(g70
g51
NtRp3925
(dp3926
g54
(dp3927
sg63
g3921
sg56
(lp3928
g49
(g50
g51
NtRp3929
(dp3930
g54
(dp3931
g62
I4
ssg63
g3925
sg56
(lp3932
g49
(g58
g51
NtRp3933
(dp3934
g54
(dp3935
g62
I3
ssg63
Nsg56
(lp3936
g49
(g65
g51
NtRp3937
(dp3938
g54
(dp3939
sg63
g3933
sg56
(lp3940
g49
(g70
g51
NtRp3941
(dp3942
g54
(dp3943
sg63
g3937
sg56
(lp3944
g49
(g50
g51
NtRp3945
(dp3946
g54
(dp3947
g62
I3
ssg63
g3941
sg56
(lp3948
g49
(cgluon.html
SPAN
p3949
g51
NtRp3950
(dp3951
g54
(dp3952
g74
S'color:yellow'
p3953
ssg63
Nsg56
(lp3954
g3825
asbasbasbasbag49
(g65
g51
NtRp3955
(dp3956
g54
(dp3957
sg63
g3933
sg56
(lp3958
g49
(g70
g51
NtRp3959
(dp3960
g54
(dp3961
sg63
g3955
sg56
(lp3962
g49
(g50
g51
NtRp3963
(dp3964
g54
(dp3965
g62
I3
ssg63
g3959
sg56
(lp3966
g92
asbasbasbag49
(g65
g51
NtRp3967
(dp3968
g54
(dp3969
sg63
g3933
sg56
(lp3970
g49
(g70
g51
NtRp3971
(dp3972
g54
(dp3973
sg63
g3967
sg56
(lp3974
g49
(g50
g51
NtRp3975
(dp3976
g54
(dp3977
g62
I3
ssg63
g3971
sg56
(lp3978
S'None'
p3979
asbasbasbag49
(g65
g51
NtRp3980
(dp3981
g54
(dp3982
sg63
g3933
sg56
(lp3983
g49
(g70
g51
NtRp3984
(dp3985
g54
(dp3986
sg63
g3980
sg56
(lp3987
g49
(g50
g51
NtRp3988
(dp3989
g54
(dp3990
g62
I3
ssg63
g3984
sg56
(lp3991
g49
(g58
g51
NtRp3992
(dp3993
g54
(dp3994
g62
I2
ssg63
Nsg56
(lp3995
g49
(g65
g51
NtRp3996
(dp3997
g54
(dp3998
sg63
g3992
sg56
(lp3999
g49
(g70
g51
NtRp4000
(dp4001
g54
(dp4002
sg63
g3996
sg56
(lp4003
g49
(g50
g51
NtRp4004
(dp4005
g54
(dp4006
g62
I2
ssg63
g4000
sg56
(lp4007
g49
(g58
g51
NtRp4008
(dp4009
g54
(dp4010
g62
I1
ssg63
Nsg56
(lp4011
g49
(g65
g51
NtRp4012
(dp4013
g54
(dp4014
sg63
g4008
sg56
(lp4015
g49
(g70
g51
NtRp4016
(dp4017
g54
(dp4018
sg63
g4012
sg56
(lp4019
g49
(g50
g51
NtRp4020
(dp4021
g54
(dp4022
g62
I1
ssg63
g4016
sg56
(lp4023
g3879
(S's\x08\x00\x00\x00My Sites'
tRp4024
asbasbasbag49
(g65
g51
NtRp4025
(dp4026
g54
(dp4027
sg63
g4008
sg56
(lp4028
g49
(g70
g51
NtRp4029
(dp4030
g54
(dp4031
sg63
g4025
sg56
(lp4032
g49
(g50
g51
NtRp4033
(dp4034
g54
(dp4035
g62
I1
ssg63
g4029
sg56
(lp4036
I00
asbasbasbag49
(g65
g51
NtRp4037
(dp4038
g54
(dp4039
sg63
g4008
sg56
(lp4040
g49
(g70
g51
NtRp4041
(dp4042
g54
(dp4043
sg63
g4037
sg56
(lp4044
g49
(g50
g51
NtRp4045
(dp4046
g54
(dp4047
g62
I1
ssg63
g4041
sg56
(lp4048
S'/admin/site'
p4049
asbasbasbasbasbasbasbag49
(g65
g51
NtRp4050
(dp4051
g54
(dp4052
sg63
g3992
sg56
(lp4053
g49
(g70
g51
NtRp4054
(dp4055
g54
(dp4056
sg63
g4050
sg56
(lp4057
g49
(g50
g51
NtRp4058
(dp4059
g54
(dp4060
g62
I2
ssg63
g4054
sg56
(lp4061
g49
(g58
g51
NtRp4062
(dp4063
g54
(dp4064
g62
I1
ssg63
Nsg56
(lp4065
g49
(g65
g51
NtRp4066
(dp4067
g54
(dp4068
sg63
g4062
sg56
(lp4069
g49
(g70
g51
NtRp4070
(dp4071
g54
(dp4072
sg63
g4066
sg56
(lp4073
g49
(g50
g51
NtRp4074
(dp4075
g54
(dp4076
g62
I1
ssg63
g4070
sg56
(lp4077
g3879
(S's\x08\x00\x00\x00This App'
tRp4078
asbasbasbag49
(g65
g51
NtRp4079
(dp4080
g54
(dp4081
sg63
g4062
sg56
(lp4082
g49
(g70
g51
NtRp4083
(dp4084
g54
(dp4085
sg63
g4079
sg56
(lp4086
g49
(g50
g51
NtRp4087
(dp4088
g54
(dp4089
g62
I1
ssg63
g4083
sg56
(lp4090
I00
asbasbasbag49
(g65
g51
NtRp4091
(dp4092
g54
(dp4093
sg63
g4062
sg56
(lp4094
g49
(g70
g51
NtRp4095
(dp4096
g54
(dp4097
sg63
g4091
sg56
(lp4098
g49
(g50
g51
NtRp4099
(dp4100
g54
(dp4101
g62
I1
ssg63
g4095
sg56
(lp4102
S'/admin/design/udi0312'
p4103
asbasbasbag49
(g65
g51
NtRp4104
(dp4105
g54
(dp4106
sg63
g4062
sg56
(lp4107
g49
(g70
g51
NtRp4108
(dp4109
g54
(dp4110
sg63
g4104
sg56
(lp4111
g49
(g50
g51
NtRp4112
(dp4113
g54
(dp4114
g62
I1
ssg63
g4108
sg56
(lp4115
(lp4116
(g3879
(S's\n\x00\x00\x00Controller'
tRp4117
I00
S'/admin/edit/udi0312/controllers/api.py'
tp4118
a(g3879
(S's\x04\x00\x00\x00View'
tRp4119
I00
S'/admin/edit/udi0312/views/api/add_article.html'
tp4120
a(g3879
(S's\x06\x00\x00\x00Layout'
tRp4121
I00
S'/admin/edit/udi0312/views/layout.html'
tp4122
a(g3879
(S's\n\x00\x00\x00Stylesheet'
tRp4123
I00
S'/admin/edit/udi0312/static/css/web2py.css'
tp4124
a(g3879
(S's\x08\x00\x00\x00DB Model'
tRp4125
I00
S'/admin/edit/udi0312/models/db.py'
tp4126
a(g3879
(S's\n\x00\x00\x00Menu Model'
tRp4127
I00
S'/admin/edit/udi0312/models/menu.py'
tp4128
a(g3879
(S's\x08\x00\x00\x00Database'
tRp4129
I00
S'/appadmin'
tp4130
a(g3879
(S's\x06\x00\x00\x00Errors'
tRp4131
I00
S'/admin/errors/udi0312'
tp4132
a(g3879
(S's\x05\x00\x00\x00About'
tRp4133
I00
S'/admin/about/udi0312'
tp4134
aasbasbasbasbasbasbasbag49
(g65
g51
NtRp4135
(dp4136
g54
(dp4137
sg63
g3992
sg56
(lp4138
g49
(g70
g51
NtRp4139
(dp4140
g54
(dp4141
sg63
g4135
sg56
(lp4142
g49
(g50
g51
NtRp4143
(dp4144
g54
(dp4145
g62
I2
ssg63
g4139
sg56
(lp4146
g49
(g58
g51
NtRp4147
(dp4148
g54
(dp4149
g62
I1
ssg63
Nsg56
(lp4150
g49
(g65
g51
NtRp4151
(dp4152
g54
(dp4153
sg63
g4147
sg56
(lp4154
g49
(g70
g51
NtRp4155
(dp4156
g54
(dp4157
sg63
g4151
sg56
(lp4158
g49
(g50
g51
NtRp4159
(dp4160
g54
(dp4161
g62
I1
ssg63
g4155
sg56
(lp4162
S'web2py.com'
p4163
asbasbasbag49
(g65
g51
NtRp4164
(dp4165
g54
(dp4166
sg63
g4147
sg56
(lp4167
g49
(g70
g51
NtRp4168
(dp4169
g54
(dp4170
sg63
g4164
sg56
(lp4171
g49
(g50
g51
NtRp4172
(dp4173
g54
(dp4174
g62
I1
ssg63
g4168
sg56
(lp4175
I00
asbasbasbag49
(g65
g51
NtRp4176
(dp4177
g54
(dp4178
sg63
g4147
sg56
(lp4179
g49
(g70
g51
NtRp4180
(dp4181
g54
(dp4182
sg63
g4176
sg56
(lp4183
g49
(g50
g51
NtRp4184
(dp4185
g54
(dp4186
g62
I1
ssg63
g4180
sg56
(lp4187
S'http://www.web2py.com'
p4188
asbasbasbag49
(g65
g51
NtRp4189
(dp4190
g54
(dp4191
sg63
g4147
sg56
(lp4192
g49
(g70
g51
NtRp4193
(dp4194
g54
(dp4195
sg63
g4189
sg56
(lp4196
g49
(g50
g51
NtRp4197
(dp4198
g54
(dp4199
g62
I1
ssg63
g4193
sg56
(lp4200
(lp4201
(g3879
(S's\x08\x00\x00\x00Download'
tRp4202
I00
S'http://www.web2py.com/examples/default/download'
p4203
tp4204
a(g3879
(S's\x07\x00\x00\x00Support'
tRp4205
I00
S'http://www.web2py.com/examples/default/support'
p4206
tp4207
a(g3879
(S's\x04\x00\x00\x00Demo'
tRp4208
I00
S'http://web2py.com/demo_admin'
p4209
tp4210
a(g3879
(S's\x0e\x00\x00\x00Quick Examples'
tRp4211
I00
S'http://web2py.com/examples/default/examples'
p4212
tp4213
a(g3879
(S's\x03\x00\x00\x00FAQ'
tRp4214
I00
S'http://web2py.com/AlterEgo'
p4215
tp4216
a(g3879
(S's\x06\x00\x00\x00Videos'
tRp4217
I00
S'http://www.web2py.com/examples/default/videos/'
p4218
tp4219
a(g3879
(S's\x11\x00\x00\x00Free Applications'
tRp4220
I00
S'http://web2py.com/appliances'
p4221
tp4222
a(g3879
(S's\x07\x00\x00\x00Plugins'
tRp4223
I00
S'http://web2py.com/plugins'
p4224
tp4225
a(g3879
(S's\x07\x00\x00\x00Layouts'
tRp4226
I00
S'http://web2py.com/layouts'
p4227
tp4228
a(g3879
(S's\x07\x00\x00\x00Recipes'
tRp4229
I00
S'http://web2pyslices.com/'
p4230
tp4231
a(g3879
(S's\x08\x00\x00\x00Semantic'
tRp4232
I00
S'http://web2py.com/semantic'
p4233
tp4234
aasbasbasbasbasbasbasbag49
(g65
g51
NtRp4235
(dp4236
g54
(dp4237
sg63
g3992
sg56
(lp4238
g49
(g70
g51
NtRp4239
(dp4240
g54
(dp4241
sg63
g4235
sg56
(lp4242
g49
(g50
g51
NtRp4243
(dp4244
g54
(dp4245
g62
I2
ssg63
g4239
sg56
(lp4246
g49
(g58
g51
NtRp4247
(dp4248
g54
(dp4249
g62
I1
ssg63
Nsg56
(lp4250
g49
(g65
g51
NtRp4251
(dp4252
g54
(dp4253
sg63
g4247
sg56
(lp4254
g49
(g70
g51
NtRp4255
(dp4256
g54
(dp4257
sg63
g4251
sg56
(lp4258
g49
(g50
g51
NtRp4259
(dp4260
g54
(dp4261
g62
I1
ssg63
g4255
sg56
(lp4262
g3879
(S's\r\x00\x00\x00Documentation'
tRp4263
asbasbasbag49
(g65
g51
NtRp4264
(dp4265
g54
(dp4266
sg63
g4247
sg56
(lp4267
g49
(g70
g51
NtRp4268
(dp4269
g54
(dp4270
sg63
g4264
sg56
(lp4271
g49
(g50
g51
NtRp4272
(dp4273
g54
(dp4274
g62
I1
ssg63
g4268
sg56
(lp4275
I00
asbasbasbag49
(g65
g51
NtRp4276
(dp4277
g54
(dp4278
sg63
g4247
sg56
(lp4279
g49
(g70
g51
NtRp4280
(dp4281
g54
(dp4282
sg63
g4276
sg56
(lp4283
g49
(g50
g51
NtRp4284
(dp4285
g54
(dp4286
g62
I1
ssg63
g4280
sg56
(lp4287
S'http://www.web2py.com/book'
p4288
asbasbasbag49
(g65
g51
NtRp4289
(dp4290
g54
(dp4291
sg63
g4247
sg56
(lp4292
g49
(g70
g51
NtRp4293
(dp4294
g54
(dp4295
sg63
g4289
sg56
(lp4296
g49
(g50
g51
NtRp4297
(dp4298
g54
(dp4299
g62
I1
ssg63
g4293
sg56
(lp4300
(lp4301
(g3879
(S's\x07\x00\x00\x00Preface'
tRp4302
I00
S'http://www.web2py.com/book/default/chapter/00'
p4303
tp4304
a(g3879
(S's\x0c\x00\x00\x00Introduction'
tRp4305
I00
S'http://www.web2py.com/book/default/chapter/01'
p4306
tp4307
a(g3879
(S's\x06\x00\x00\x00Python'
tRp4308
I00
S'http://www.web2py.com/book/default/chapter/02'
p4309
tp4310
a(g3879
(S's\x08\x00\x00\x00Overview'
tRp4311
I00
S'http://www.web2py.com/book/default/chapter/03'
p4312
tp4313
a(g3879
(S's\x08\x00\x00\x00The Core'
tRp4314
I00
S'http://www.web2py.com/book/default/chapter/04'
p4315
tp4316
a(g3879
(S's\t\x00\x00\x00The Views'
tRp4317
I00
S'http://www.web2py.com/book/default/chapter/05'
p4318
tp4319
a(g3879
(S's\x08\x00\x00\x00Database'
tRp4320
I00
S'http://www.web2py.com/book/default/chapter/06'
p4321
tp4322
a(g3879
(S's\x14\x00\x00\x00Forms and Validators'
tRp4323
I00
S'http://www.web2py.com/book/default/chapter/07'
p4324
tp4325
a(g3879
(S's\r\x00\x00\x00Email and SMS'
tRp4326
I00
S'http://www.web2py.com/book/default/chapter/08'
p4327
tp4328
a(g3879
(S's\x0e\x00\x00\x00Access Control'
tRp4329
I00
S'http://www.web2py.com/book/default/chapter/09'
p4330
tp4331
a(g3879
(S's\x08\x00\x00\x00Services'
tRp4332
I00
S'http://www.web2py.com/book/default/chapter/10'
p4333
tp4334
a(g3879
(S's\x0c\x00\x00\x00Ajax Recipes'
tRp4335
I00
S'http://www.web2py.com/book/default/chapter/11'
p4336
tp4337
a(g3879
(S's\x16\x00\x00\x00Components and Plugins'
tRp4338
I00
S'http://www.web2py.com/book/default/chapter/12'
p4339
tp4340
a(g3879
(S's\x12\x00\x00\x00Deployment Recipes'
tRp4341
I00
S'http://www.web2py.com/book/default/chapter/13'
p4342
tp4343
a(g3879
(S's\r\x00\x00\x00Other Recipes'
tRp4344
I00
S'http://www.web2py.com/book/default/chapter/14'
p4345
tp4346
a(g3879
(S's\r\x00\x00\x00Buy this book'
tRp4347
I00
S'http://stores.lulu.com/web2py'
p4348
tp4349
aasbasbasbasbasbasbasbag49
(g65
g51
NtRp4350
(dp4351
g54
(dp4352
sg63
g3992
sg56
(lp4353
g49
(g70
g51
NtRp4354
(dp4355
g54
(dp4356
sg63
g4350
sg56
(lp4357
g49
(g50
g51
NtRp4358
(dp4359
g54
(dp4360
g62
I2
ssg63
g4354
sg56
(lp4361
g49
(g58
g51
NtRp4362
(dp4363
g54
(dp4364
g62
I1
ssg63
Nsg56
(lp4365
g49
(g65
g51
NtRp4366
(dp4367
g54
(dp4368
sg63
g4362
sg56
(lp4369
g49
(g70
g51
NtRp4370
(dp4371
g54
(dp4372
sg63
g4366
sg56
(lp4373
g49
(g50
g51
NtRp4374
(dp4375
g54
(dp4376
g62
I1
ssg63
g4370
sg56
(lp4377
g3879
(S's\t\x00\x00\x00Community'
tRp4378
asbasbasbag49
(g65
g51
NtRp4379
(dp4380
g54
(dp4381
sg63
g4362
sg56
(lp4382
g49
(g70
g51
NtRp4383
(dp4384
g54
(dp4385
sg63
g4379
sg56
(lp4386
g49
(g50
g51
NtRp4387
(dp4388
g54
(dp4389
g62
I1
ssg63
g4383
sg56
(lp4390
I00
asbasbasbag49
(g65
g51
NtRp4391
(dp4392
g54
(dp4393
sg63
g4362
sg56
(lp4394
g49
(g70
g51
NtRp4395
(dp4396
g54
(dp4397
sg63
g4391
sg56
(lp4398
g49
(g50
g51
NtRp4399
(dp4400
g54
(dp4401
g62
I1
ssg63
g4395
sg56
(lp4402
Nasbasbasbag49
(g65
g51
NtRp4403
(dp4404
g54
(dp4405
sg63
g4362
sg56
(lp4406
g49
(g70
g51
NtRp4407
(dp4408
g54
(dp4409
sg63
g4403
sg56
(lp4410
g49
(g50
g51
NtRp4411
(dp4412
g54
(dp4413
g62
I1
ssg63
g4407
sg56
(lp4414
(lp4415
(g3879
(S's\x06\x00\x00\x00Groups'
tRp4416
I00
S'http://www.web2py.com/examples/default/usergroups'
p4417
tp4418
a(g3879
(S's\x07\x00\x00\x00Twitter'
tRp4419
I00
S'http://twitter.com/web2py'
p4420
tp4421
a(g3879
(S's\t\x00\x00\x00Live Chat'
tRp4422
I00
S'http://webchat.freenode.net/?channels=web2py'
p4423
tp4424
aasbasbasbasbasbasbasbag49
(g65
g51
NtRp4425
(dp4426
g54
(dp4427
sg63
g3992
sg56
(lp4428
g49
(g70
g51
NtRp4429
(dp4430
g54
(dp4431
sg63
g4425
sg56
(lp4432
g49
(g50
g51
NtRp4433
(dp4434
g54
(dp4435
g62
I2
ssg63
g4429
sg56
(lp4436
g49
(g58
g51
NtRp4437
(dp4438
g54
(dp4439
g62
I1
ssg63
Nsg56
(lp4440
g49
(g65
g51
NtRp4441
(dp4442
g54
(dp4443
sg63
g4437
sg56
(lp4444
g49
(g70
g51
NtRp4445
(dp4446
g54
(dp4447
sg63
g4441
sg56
(lp4448
g49
(g50
g51
NtRp4449
(dp4450
g54
(dp4451
g62
I1
ssg63
g4445
sg56
(lp4452
g3879
(S's\x07\x00\x00\x00Plugins'
tRp4453
asbasbasbag49
(g65
g51
NtRp4454
(dp4455
g54
(dp4456
sg63
g4437
sg56
(lp4457
g49
(g70
g51
NtRp4458
(dp4459
g54
(dp4460
sg63
g4454
sg56
(lp4461
g49
(g50
g51
NtRp4462
(dp4463
g54
(dp4464
g62
I1
ssg63
g4458
sg56
(lp4465
I00
asbasbasbag49
(g65
g51
NtRp4466
(dp4467
g54
(dp4468
sg63
g4437
sg56
(lp4469
g49
(g70
g51
NtRp4470
(dp4471
g54
(dp4472
sg63
g4466
sg56
(lp4473
g49
(g50
g51
NtRp4474
(dp4475
g54
(dp4476
g62
I1
ssg63
g4470
sg56
(lp4477
Nasbasbasbag49
(g65
g51
NtRp4478
(dp4479
g54
(dp4480
sg63
g4437
sg56
(lp4481
g49
(g70
g51
NtRp4482
(dp4483
g54
(dp4484
sg63
g4478
sg56
(lp4485
g49
(g50
g51
NtRp4486
(dp4487
g54
(dp4488
g62
I1
ssg63
g4482
sg56
(lp4489
(lp4490
(S'plugin_wiki'
p4491
I00
S'http://web2py.com/examples/default/download'
p4492
tp4493
a(g3879
(S's\r\x00\x00\x00Other Plugins'
tRp4494
I00
g4224
tp4495
a(g3879
(S's\x0e\x00\x00\x00Layout Plugins'
tRp4496
I00
g4227
tp4497
aasbasbasbasbasbasbasbasbasbasbasbasbasbasbasbasbasbasbasbag49
(g65
g51
NtRp4498
(dp4499
g54
(dp4500
sg63
g3343
sg56
(lp4501
g49
(g70
g51
NtRp4502
(dp4503
g54
(dp4504
g74
g75
ssg63
g4498
sg56
(lp4505
S'meta'
p4506
asbag49
(g70
g51
NtRp4507
(dp4508
g54
(dp4509
g81
g82
ssg63
g4498
sg56
(lp4510
S':'
asbag49
(g70
g51
NtRp4511
(dp4512
g54
(dp4513
sg63
g4498
sg56
(lp4514
g49
(g50
g51
NtRp4515
(dp4516
g54
(dp4517
g62
I5
ssg63
g4511
sg56
(lp4518
g49
(g58
g51
NtRp4519
(dp4520
g54
(dp4521
g62
I4
ssg63
Nsg56
(lp4522
g49
(g65
g51
NtRp4523
(dp4524
g54
(dp4525
sg63
g4519
sg56
(lp4526
g49
(g70
g51
NtRp4527
(dp4528
g54
(dp4529
g74
g75
ssg63
g4523
sg56
(lp4530
S'author'
p4531
asbag49
(g70
g51
NtRp4532
(dp4533
g54
(dp4534
g81
g82
ssg63
g4523
sg56
(lp4535
S':'
asbag49
(g70
g51
NtRp4536
(dp4537
g54
(dp4538
sg63
g4523
sg56
(lp4539
g49
(g50
g51
NtRp4540
(dp4541
g54
(dp4542
g62
I4
ssg63
g4536
sg56
(lp4543
S'Udi Milo'
p4544
asbasbasbag49
(g65
g51
NtRp4545
(dp4546
g54
(dp4547
sg63
g4519
sg56
(lp4548
g49
(g70
g51
NtRp4549
(dp4550
g54
(dp4551
g74
g75
ssg63
g4545
sg56
(lp4552
S'description'
p4553
asbag49
(g70
g51
NtRp4554
(dp4555
g54
(dp4556
g81
g82
ssg63
g4545
sg56
(lp4557
S':'
asbag49
(g70
g51
NtRp4558
(dp4559
g54
(dp4560
sg63
g4545
sg56
(lp4561
g49
(g50
g51
NtRp4562
(dp4563
g54
(dp4564
g62
I4
ssg63
g4558
sg56
(lp4565
S'Curate, organize and share your web resources'
p4566
asbasbasbasbasbasbasbag49
(g65
g51
NtRp4567
(dp4568
g54
(dp4569
sg63
g3343
sg56
(lp4570
g49
(g70
g51
NtRp4571
(dp4572
g54
(dp4573
g74
g75
ssg63
g4567
sg56
(lp4574
S'postprocessing'
p4575
asbag49
(g70
g51
NtRp4576
(dp4577
g54
(dp4578
g81
g82
ssg63
g4567
sg56
(lp4579
S':'
asbag49
(g70
g51
NtRp4580
(dp4581
g54
(dp4582
sg63
g4567
sg56
(lp4583
g49
(g50
g51
NtRp4584
(dp4585
g54
(dp4586
g62
I5
ssg63
g4580
sg56
(lp4587
g49
(g58
g51
NtRp4588
(dp4589
g54
(dp4590
g62
I4
ssg63
Nsg56
(lp4591
sbasbasbasbag49
(g65
g51
NtRp4592
(dp4593
g54
(dp4594
sg63
g3343
sg56
(lp4595
g49
(g70
g51
NtRp4596
(dp4597
g54
(dp4598
g74
g75
ssg63
g4592
sg56
(lp4599
S'session_file'
p4600
asbag49
(g70
g51
NtRp4601
(dp4602
g54
(dp4603
g81
g82
ssg63
g4592
sg56
(lp4604
S':'
asbag49
(g70
g51
NtRp4605
(dp4606
g54
(dp4607
sg63
g4592
sg56
(lp4608
g49
(g50
g51
NtRp4609
(dp4610
g54
(dp4611
g62
I5
ssg63
g4605
sg56
(lp4612
S"<open file '/Users/udimilo/Documents/web2py/applications/udi0312/sessions/127.0.0.1-0c931b0e-a0cb-46a7-8daa-2609a27949d9', mode 'rb+' at 0xa9c0848>"
p4613
asbasbasbag49
(g65
g51
NtRp4614
(dp4615
g54
(dp4616
sg63
g3343
sg56
(lp4617
g49
(g70
g51
NtRp4618
(dp4619
g54
(dp4620
g74
g75
ssg63
g4614
sg56
(lp4621
S'session_filename'
p4622
asbag49
(g70
g51
NtRp4623
(dp4624
g54
(dp4625
g81
g82
ssg63
g4614
sg56
(lp4626
S':'
asbag49
(g70
g51
NtRp4627
(dp4628
g54
(dp4629
sg63
g4614
sg56
(lp4630
g49
(g50
g51
NtRp4631
(dp4632
g54
(dp4633
g62
I5
ssg63
g4627
sg56
(lp4634
S'/Users/udimilo/Documents/web2py/applications/udi0312/sessions/127.0.0.1-0c931b0e-a0cb-46a7-8daa-2609a27949d9'
p4635
asbasbasbag49
(g65
g51
NtRp4636
(dp4637
g54
(dp4638
sg63
g3343
sg56
(lp4639
g49
(g70
g51
NtRp4640
(dp4641
g54
(dp4642
g74
g75
ssg63
g4636
sg56
(lp4643
S'session_id'
p4644
asbag49
(g70
g51
NtRp4645
(dp4646
g54
(dp4647
g81
g82
ssg63
g4636
sg56
(lp4648
S':'
asbag49
(g70
g51
NtRp4649
(dp4650
g54
(dp4651
sg63
g4636
sg56
(lp4652
g49
(g50
g51
NtRp4653
(dp4654
g54
(dp4655
g62
I5
ssg63
g4649
sg56
(lp4656
S'127.0.0.1-0c931b0e-a0cb-46a7-8daa-2609a27949d9'
p4657
asbasbasbag49
(g65
g51
NtRp4658
(dp4659
g54
(dp4660
sg63
g3343
sg56
(lp4661
g49
(g70
g51
NtRp4662
(dp4663
g54
(dp4664
g74
g75
ssg63
g4658
sg56
(lp4665
S'session_id_name'
p4666
asbag49
(g70
g51
NtRp4667
(dp4668
g54
(dp4669
g81
g82
ssg63
g4658
sg56
(lp4670
S':'
asbag49
(g70
g51
NtRp4671
(dp4672
g54
(dp4673
sg63
g4658
sg56
(lp4674
g49
(g50
g51
NtRp4675
(dp4676
g54
(dp4677
g62
I5
ssg63
g4671
sg56
(lp4678
g3400
asbasbasbag49
(g65
g51
NtRp4679
(dp4680
g54
(dp4681
sg63
g3343
sg56
(lp4682
g49
(g70
g51
NtRp4683
(dp4684
g54
(dp4685
g74
g75
ssg63
g4679
sg56
(lp4686
S'session_locked'
p4687
asbag49
(g70
g51
NtRp4688
(dp4689
g54
(dp4690
g81
g82
ssg63
g4679
sg56
(lp4691
S':'
asbag49
(g70
g51
NtRp4692
(dp4693
g54
(dp4694
sg63
g4679
sg56
(lp4695
g49
(g50
g51
NtRp4696
(dp4697
g54
(dp4698
g62
I5
ssg63
g4692
sg56
(lp4699
g1467
asbasbasbag49
(g65
g51
NtRp4700
(dp4701
g54
(dp4702
sg63
g3343
sg56
(lp4703
g49
(g70
g51
NtRp4704
(dp4705
g54
(dp4706
g74
g75
ssg63
g4700
sg56
(lp4707
S'session_new'
p4708
asbag49
(g70
g51
NtRp4709
(dp4710
g54
(dp4711
g81
g82
ssg63
g4700
sg56
(lp4712
S':'
asbag49
(g70
g51
NtRp4713
(dp4714
g54
(dp4715
sg63
g4700
sg56
(lp4716
g49
(g50
g51
NtRp4717
(dp4718
g54
(dp4719
g62
I5
ssg63
g4713
sg56
(lp4720
g92
asbasbasbag49
(g65
g51
NtRp4721
(dp4722
g54
(dp4723
sg63
g3343
sg56
(lp4724
g49
(g70
g51
NtRp4725
(dp4726
g54
(dp4727
g74
g75
ssg63
g4721
sg56
(lp4728
S'status'
p4729
asbag49
(g70
g51
NtRp4730
(dp4731
g54
(dp4732
g81
g82
ssg63
g4721
sg56
(lp4733
S':'
asbag49
(g70
g51
NtRp4734
(dp4735
g54
(dp4736
sg63
g4721
sg56
(lp4737
g49
(g50
g51
NtRp4738
(dp4739
g54
(dp4740
g62
I5
ssg63
g4734
sg56
(lp4741
S'200'
p4742
asbasbasbag49
(g65
g51
NtRp4743
(dp4744
g54
(dp4745
sg63
g3343
sg56
(lp4746
g49
(g70
g51
NtRp4747
(dp4748
g54
(dp4749
g74
g75
ssg63
g4743
sg56
(lp4750
S'title'
p4751
asbag49
(g70
g51
NtRp4752
(dp4753
g54
(dp4754
g81
g82
ssg63
g4743
sg56
(lp4755
S':'
asbag49
(g70
g51
NtRp4756
(dp4757
g54
(dp4758
sg63
g4743
sg56
(lp4759
g49
(g50
g51
NtRp4760
(dp4761
g54
(dp4762
g62
I5
ssg63
g4756
sg56
(lp4763
S'inFormation - Curate The Web'
p4764
asbasbasbag49
(g65
g51
NtRp4765
(dp4766
g54
(dp4767
sg63
g3343
sg56
(lp4768
g49
(g70
g51
NtRp4769
(dp4770
g54
(dp4771
g74
g75
ssg63
g4765
sg56
(lp4772
g2153
asbag49
(g70
g51
NtRp4773
(dp4774
g54
(dp4775
g81
g82
ssg63
g4765
sg56
(lp4776
S':'
asbag49
(g70
g51
NtRp4777
(dp4778
g54
(dp4779
sg63
g4765
sg56
(lp4780
g49
(g50
g51
NtRp4781
(dp4782
g54
(dp4783
g62
I5
ssg63
g4777
sg56
(lp4784
g2166
asbasbasbag49
(g65
g51
NtRp4785
(dp4786
g54
(dp4787
sg63
g3343
sg56
(lp4788
g49
(g70
g51
NtRp4789
(dp4790
g54
(dp4791
g74
g75
ssg63
g4785
sg56
(lp4792
S'view'
p4793
asbag49
(g70
g51
NtRp4794
(dp4795
g54
(dp4796
g81
g82
ssg63
g4785
sg56
(lp4797
S':'
asbag49
(g70
g51
NtRp4798
(dp4799
g54
(dp4800
sg63
g4785
sg56
(lp4801
g49
(g50
g51
NtRp4802
(dp4803
g54
(dp4804
g62
I5
ssg63
g4798
sg56
(lp4805
S'api/add_article.html'
p4806
asbasbasbasbasbsS'locals'
p4807
(dp4808
g2109
S"'http://plumpestpeach.blogspot.com/2009/06/grilled-zucchini-rolls-with-goat-cheese.html'"
p4809
sS'article'
p4810
S"<Row {'domain': 'plumpestpeach.blogspot.com', 's...0>, 'readability_url': 'http://rdd.me/lseuqjj0'}>"
p4811
sS'board'
p4812
S'None'
p4813
sssS'traceback'
p4814
S'Traceback (most recent call last):\n  File "/users/udimilo/Documents/web2py/gluon/restricted.py", line 205, in restricted\n    exec ccode in environment\n  File "/Users/udimilo/Documents/web2py/applications/udi0312/controllers/api.py", line 105, in <module>\n  File "/users/udimilo/Documents/web2py/gluon/globals.py", line 173, in <lambda>\n    self._caller = lambda f: f()\n  File "/Users/udimilo/Documents/web2py/applications/udi0312/controllers/api.py", line 90, in add_article\n    pin = db((db.pin.board == board.id) & (db.pin.article == article.id)).select().first()\nAttributeError: \'NoneType\' object has no attribute \'id\'\n'
p4815
s.