(dp1
S'output'
p2
S"<type 'exceptions.AttributeError'> 'NoneType' object has no attribute 'select'"
p3
sS'layer'
p4
S'/Users/udimilo/Documents/web2py/applications/udi0312/controllers/default.py'
p5
sS'code'
p6
S'# -*- coding: utf-8 -*-\nfrom readability import Readability\nimport feedparser\nimport urlparse\nimport re\n\ndef get_pins(user):\n    boards = user.boards.select()\n    pins = []\n    for board in boards:\n        pins.extend(board.pin.select())\n        \n    return pins\n\ndef index():\n    categories = db().select(db.category.ALL, orderby=db.category.name) if auth.user else []\n    boards = db(db.board.user==auth.user.id).select() if auth.user else []\n\n    if auth.user is None:\n        pins = db().select(db.pin.ALL, orderby=~db.pin.created_on)\n    else:\n        pins = get_pins(auth.user)\n        \n    return dict(pins=pins, categories=categories, boards=boards, show_pinner=True)\n\ndef all():\n    pins = db().select(db.pin.ALL, orderby=~db.pin.created_on)\n    return dict(pins=pins)\n    \ndef add_board():\n    name = request.vars.boardName\n    if re.match(\'(^[\\w\\s.-]+$)\', name): #sanitize the name\n        category = db(db.category.name==request.vars.category).select().first()\n        board = db.board.insert(user=auth.user.id, category=category.id, name=request.vars.boardName)\n        return board.id\n\n    return \'please use only alpha numeric characters\'\n    \ndef add_article():\n    board = db(db.board.name==request.vars.board).select().first()\n    if board is None:\n        return \'You must choose a board first\'\n        \n    url = request.vars.url\n    article = db(db.article.url == url).select().first()\n    if article is None:\n        r = Readability()\n        json = r.content(url)\n        article = db.article.insert(\n            height=300,\n            url=json[\'url\'],\n            readability_url=json[\'short_url\'],\n            title=json[\'title\'],\n            content=json[\'content\'],\n            domain=json[\'domain\'],\n            author=json[\'author\'],\n            excerpt=json[\'excerpt\'],\n            word_count=json[\'word_count\'],\n            total_pages=json[\'total_pages\'],\n            date_published=json[\'date_published\'],\n            next_page_id=json[\'next_page_id\'],\n            rendered_pages=json[\'rendered_pages\'],            \n        )\n    \n    pin = db((db.pin.board == board.id) & (db.pin.article == article.id)).select().first()\n    if pin is None:\n        pin = db.pin.insert(board=board.id, article=article.id)\n    \n    return pin.id\n    \ndef test():\n    url = request.vars.url\n    feed = feedparser.parse(url)\n    c = 0\n    for item in feed[\'entries\']:\n        url = item.get(\'feedburner_origlink\')\n        if url is None:\n            url = item.get(\'link\')\n        \n        domain = urlparse.urlsplit(url).hostname\n        \n        date = item.get(\'updated\')\n        if date is None:\n            date=item.get(\'published\'),\n            \n        article = db.article.insert(\n            height=300,\n            author=item.get(\'author\'),\n            content=item.content[0].value.strip(),\n            url=url,\n            domain=domain,\n            date_published=date,\n            excerpt=item.get(\'summary\'),\n            title=item.get(\'title\'),\n            )\n    return feed\n                \ndef user():\n    """\n    exposes:\n    http://..../[app]/default/user/login\n    http://..../[app]/default/user/logout\n    http://..../[app]/default/user/register\n    http://..../[app]/default/user/profile\n    http://..../[app]/default/user/retrieve_password\n    http://..../[app]/default/user/change_password\n    use @auth.requires_login()\n        @auth.requires_membership(\'group name\')\n        @auth.requires_permission(\'read\',\'table name\',record_id)\n    to decorate functions that need access control\n    """\n    return dict(form=auth())\n\n\ndef download():\n    """\n    allows downloading of uploaded files\n    http://..../[app]/default/download/[filename]\n    """\n    return response.download(request,db)\n\n\ndef call():\n    """\n    exposes services. for example:\n    http://..../[app]/default/call/jsonrpc\n    decorate with @services.jsonrpc the functions to expose\n    supports xml, json, xmlrpc, jsonrpc, amfrpc, rss, csv\n    """\n    return service()\n\n\n@auth.requires_signature()\ndef data():\n    """\n    http://..../[app]/default/data/tables\n    http://..../[app]/default/data/create/[table]\n    http://..../[app]/default/data/read/[table]/[id]\n    http://..../[app]/default/data/update/[table]/[id]\n    http://..../[app]/default/data/delete/[table]/[id]\n    http://..../[app]/default/data/select/[table]\n    http://..../[app]/default/data/search/[table]\n    but URLs must be signed, i.e. linked with\n      A(\'table\',_href=URL(\'data/tables\',user_signature=True))\n    or with the signed load operator\n      LOAD(\'default\',\'data.load\',args=\'tables\',ajax=True,user_signature=True)\n    """\n    return dict(form=crud())\n\nresponse._vars=response._caller(index)\n'
p7
sS'snapshot'
p8
(dp9
S'exception'
p10
(dp11
S'__hash__'
p12
S"<method-wrapper '__hash__' of exceptions.AttributeError object at 0xa527d78>"
p13
sS'__setattr__'
p14
S"<method-wrapper '__setattr__' of exceptions.AttributeError object at 0xa527d78>"
p15
sS'__reduce_ex__'
p16
S'<built-in method __reduce_ex__ of exceptions.AttributeError object at 0xa527d78>'
p17
sS'__getslice__'
p18
S"<method-wrapper '__getslice__' of exceptions.AttributeError object at 0xa527d78>"
p19
sS'__getitem__'
p20
S"<method-wrapper '__getitem__' of exceptions.AttributeError object at 0xa527d78>"
p21
sS'__setstate__'
p22
S'<built-in method __setstate__ of exceptions.AttributeError object at 0xa527d78>'
p23
sS'__reduce__'
p24
S'<built-in method __reduce__ of exceptions.AttributeError object at 0xa527d78>'
p25
sS'__str__'
p26
S"<method-wrapper '__str__' of exceptions.AttributeError object at 0xa527d78>"
p27
sS'args'
p28
S'("\'NoneType\' object has no attribute \'select\'",)'
p29
sS'__getattribute__'
p30
S"<method-wrapper '__getattribute__' of exceptions.AttributeError object at 0xa527d78>"
p31
sS'__class__'
p32
S"<type 'exceptions.AttributeError'>"
p33
sS'__delattr__'
p34
S"<method-wrapper '__delattr__' of exceptions.AttributeError object at 0xa527d78>"
p35
sS'__repr__'
p36
S"<method-wrapper '__repr__' of exceptions.AttributeError object at 0xa527d78>"
p37
sS'__dict__'
p38
S'{}'
p39
sS'__doc__'
p40
S"'Attribute not found.'"
p41
sS'__init__'
p42
S"<method-wrapper '__init__' of exceptions.AttributeError object at 0xa527d78>"
p43
sS'__new__'
p44
S'<built-in method __new__ of type object at 0x1004a0>'
p45
ssS'evalue'
p46
S"'NoneType' object has no attribute 'select'"
p47
sS'request'
p48
ccopy_reg
_reconstructor
p49
(cgluon.html
BEAUTIFY
p50
c__builtin__
object
p51
NtRp52
(dp53
S'attributes'
p54
(dp55
sS'components'
p56
(lp57
g49
(cgluon.html
TABLE
p58
g51
NtRp59
(dp60
g54
(dp61
S'level'
p62
I5
ssS'parent'
p63
Nsg56
(lp64
g49
(cgluon.html
TR
p65
g51
NtRp66
(dp67
g54
(dp68
sg63
g59
sg56
(lp69
g49
(cgluon.html
TD
p70
g51
NtRp71
(dp72
g54
(dp73
S'_style'
p74
S'font-weight:bold;vertical-align:top'
p75
ssg63
g66
sg56
(lp76
S'ajax'
p77
asbag49
(g70
g51
NtRp78
(dp79
g54
(dp80
S'_valign'
p81
S'top'
p82
ssg63
g66
sg56
(lp83
S':'
asbag49
(g70
g51
NtRp84
(dp85
g54
(dp86
sg63
g66
sg56
(lp87
g49
(g50
g51
NtRp88
(dp89
g54
(dp90
g62
I5
ssg63
g84
sg56
(lp91
S'False'
p92
asbasbasbag49
(g65
g51
NtRp93
(dp94
g54
(dp95
sg63
g59
sg56
(lp96
g49
(g70
g51
NtRp97
(dp98
g54
(dp99
g74
g75
ssg63
g93
sg56
(lp100
S'application'
p101
asbag49
(g70
g51
NtRp102
(dp103
g54
(dp104
g81
g82
ssg63
g93
sg56
(lp105
S':'
asbag49
(g70
g51
NtRp106
(dp107
g54
(dp108
sg63
g93
sg56
(lp109
g49
(g50
g51
NtRp110
(dp111
g54
(dp112
g62
I5
ssg63
g106
sg56
(lp113
S'udi0312'
p114
asbasbasbag49
(g65
g51
NtRp115
(dp116
g54
(dp117
sg63
g59
sg56
(lp118
g49
(g70
g51
NtRp119
(dp120
g54
(dp121
g74
g75
ssg63
g115
sg56
(lp122
g28
asbag49
(g70
g51
NtRp123
(dp124
g54
(dp125
g81
g82
ssg63
g115
sg56
(lp126
S':'
asbag49
(g70
g51
NtRp127
(dp128
g54
(dp129
sg63
g115
sg56
(lp130
g49
(g50
g51
NtRp131
(dp132
g54
(dp133
g62
I5
ssg63
g127
sg56
(lp134
g49
(g58
g51
NtRp135
(dp136
g54
(dp137
g62
I4
ssg63
Nsg56
(lp138
sbasbasbasbag49
(g65
g51
NtRp139
(dp140
g54
(dp141
sg63
g59
sg56
(lp142
g49
(g70
g51
NtRp143
(dp144
g54
(dp145
g74
g75
ssg63
g139
sg56
(lp146
S'body'
p147
asbag49
(g70
g51
NtRp148
(dp149
g54
(dp150
g81
g82
ssg63
g139
sg56
(lp151
S':'
asbag49
(g70
g51
NtRp152
(dp153
g54
(dp154
sg63
g139
sg56
(lp155
g49
(g50
g51
NtRp156
(dp157
g54
(dp158
g62
I5
ssg63
g152
sg56
(lp159
S'<cStringIO.StringO object at 0xa5843a0>'
p160
asbasbasbag49
(g65
g51
NtRp161
(dp162
g54
(dp163
sg63
g59
sg56
(lp164
g49
(g70
g51
NtRp165
(dp166
g54
(dp167
g74
g75
ssg63
g161
sg56
(lp168
S'client'
p169
asbag49
(g70
g51
NtRp170
(dp171
g54
(dp172
g81
g82
ssg63
g161
sg56
(lp173
S':'
asbag49
(g70
g51
NtRp174
(dp175
g54
(dp176
sg63
g161
sg56
(lp177
g49
(g50
g51
NtRp178
(dp179
g54
(dp180
g62
I5
ssg63
g174
sg56
(lp181
S'127.0.0.1'
p182
asbasbasbag49
(g65
g51
NtRp183
(dp184
g54
(dp185
sg63
g59
sg56
(lp186
g49
(g70
g51
NtRp187
(dp188
g54
(dp189
g74
g75
ssg63
g183
sg56
(lp190
S'controller'
p191
asbag49
(g70
g51
NtRp192
(dp193
g54
(dp194
g81
g82
ssg63
g183
sg56
(lp195
S':'
asbag49
(g70
g51
NtRp196
(dp197
g54
(dp198
sg63
g183
sg56
(lp199
g49
(g50
g51
NtRp200
(dp201
g54
(dp202
g62
I5
ssg63
g196
sg56
(lp203
S'default'
p204
asbasbasbag49
(g65
g51
NtRp205
(dp206
g54
(dp207
sg63
g59
sg56
(lp208
g49
(g70
g51
NtRp209
(dp210
g54
(dp211
g74
g75
ssg63
g205
sg56
(lp212
S'cookies'
p213
asbag49
(g70
g51
NtRp214
(dp215
g54
(dp216
g81
g82
ssg63
g205
sg56
(lp217
S':'
asbag49
(g70
g51
NtRp218
(dp219
g54
(dp220
sg63
g205
sg56
(lp221
g49
(g50
g51
NtRp222
(dp223
g54
(dp224
g62
I5
ssg63
g218
sg56
(lp225
g49
(g58
g51
NtRp226
(dp227
g54
(dp228
g62
I4
ssg63
Nsg56
(lp229
g49
(g65
g51
NtRp230
(dp231
g54
(dp232
sg63
g226
sg56
(lp233
g49
(g70
g51
NtRp234
(dp235
g54
(dp236
g74
g75
ssg63
g230
sg56
(lp237
S'session_id_admin'
p238
asbag49
(g70
g51
NtRp239
(dp240
g54
(dp241
g81
g82
ssg63
g230
sg56
(lp242
S':'
asbag49
(g70
g51
NtRp243
(dp244
g54
(dp245
sg63
g230
sg56
(lp246
g49
(g50
g51
NtRp247
(dp248
g54
(dp249
g62
I4
ssg63
g243
sg56
(lp250
g49
(g58
g51
NtRp251
(dp252
g54
(dp253
g62
I3
ssg63
Nsg56
(lp254
g49
(g65
g51
NtRp255
(dp256
g54
(dp257
sg63
g251
sg56
(lp258
g49
(g70
g51
NtRp259
(dp260
g54
(dp261
g74
g75
ssg63
g255
sg56
(lp262
S'comment'
p263
asbag49
(g70
g51
NtRp264
(dp265
g54
(dp266
g81
g82
ssg63
g255
sg56
(lp267
S':'
asbag49
(g70
g51
NtRp268
(dp269
g54
(dp270
sg63
g255
sg56
(lp271
g49
(g50
g51
NtRp272
(dp273
g54
(dp274
g62
I3
ssg63
g268
sg56
(lp275
S''
asbasbasbag49
(g65
g51
NtRp276
(dp277
g54
(dp278
sg63
g251
sg56
(lp279
g49
(g70
g51
NtRp280
(dp281
g54
(dp282
g74
g75
ssg63
g276
sg56
(lp283
S'domain'
p284
asbag49
(g70
g51
NtRp285
(dp286
g54
(dp287
g81
g82
ssg63
g276
sg56
(lp288
S':'
asbag49
(g70
g51
NtRp289
(dp290
g54
(dp291
sg63
g276
sg56
(lp292
g49
(g50
g51
NtRp293
(dp294
g54
(dp295
g62
I3
ssg63
g289
sg56
(lp296
S''
asbasbasbag49
(g65
g51
NtRp297
(dp298
g54
(dp299
sg63
g251
sg56
(lp300
g49
(g70
g51
NtRp301
(dp302
g54
(dp303
g74
g75
ssg63
g297
sg56
(lp304
S'expires'
p305
asbag49
(g70
g51
NtRp306
(dp307
g54
(dp308
g81
g82
ssg63
g297
sg56
(lp309
S':'
asbag49
(g70
g51
NtRp310
(dp311
g54
(dp312
sg63
g297
sg56
(lp313
g49
(g50
g51
NtRp314
(dp315
g54
(dp316
g62
I3
ssg63
g310
sg56
(lp317
S''
asbasbasbag49
(g65
g51
NtRp318
(dp319
g54
(dp320
sg63
g251
sg56
(lp321
g49
(g70
g51
NtRp322
(dp323
g54
(dp324
g74
g75
ssg63
g318
sg56
(lp325
S'max-age'
p326
asbag49
(g70
g51
NtRp327
(dp328
g54
(dp329
g81
g82
ssg63
g318
sg56
(lp330
S':'
asbag49
(g70
g51
NtRp331
(dp332
g54
(dp333
sg63
g318
sg56
(lp334
g49
(g50
g51
NtRp335
(dp336
g54
(dp337
g62
I3
ssg63
g331
sg56
(lp338
S''
asbasbasbag49
(g65
g51
NtRp339
(dp340
g54
(dp341
sg63
g251
sg56
(lp342
g49
(g70
g51
NtRp343
(dp344
g54
(dp345
g74
g75
ssg63
g339
sg56
(lp346
S'path'
p347
asbag49
(g70
g51
NtRp348
(dp349
g54
(dp350
g81
g82
ssg63
g339
sg56
(lp351
S':'
asbag49
(g70
g51
NtRp352
(dp353
g54
(dp354
sg63
g339
sg56
(lp355
g49
(g50
g51
NtRp356
(dp357
g54
(dp358
g62
I3
ssg63
g352
sg56
(lp359
S''
asbasbasbag49
(g65
g51
NtRp360
(dp361
g54
(dp362
sg63
g251
sg56
(lp363
g49
(g70
g51
NtRp364
(dp365
g54
(dp366
g74
g75
ssg63
g360
sg56
(lp367
S'secure'
p368
asbag49
(g70
g51
NtRp369
(dp370
g54
(dp371
g81
g82
ssg63
g360
sg56
(lp372
S':'
asbag49
(g70
g51
NtRp373
(dp374
g54
(dp375
sg63
g360
sg56
(lp376
g49
(g50
g51
NtRp377
(dp378
g54
(dp379
g62
I3
ssg63
g373
sg56
(lp380
S''
asbasbasbag49
(g65
g51
NtRp381
(dp382
g54
(dp383
sg63
g251
sg56
(lp384
g49
(g70
g51
NtRp385
(dp386
g54
(dp387
g74
g75
ssg63
g381
sg56
(lp388
S'version'
p389
asbag49
(g70
g51
NtRp390
(dp391
g54
(dp392
g81
g82
ssg63
g381
sg56
(lp393
S':'
asbag49
(g70
g51
NtRp394
(dp395
g54
(dp396
sg63
g381
sg56
(lp397
g49
(g50
g51
NtRp398
(dp399
g54
(dp400
g62
I3
ssg63
g394
sg56
(lp401
S''
asbasbasbasbasbasbasbag49
(g65
g51
NtRp402
(dp403
g54
(dp404
sg63
g226
sg56
(lp405
g49
(g70
g51
NtRp406
(dp407
g54
(dp408
g74
g75
ssg63
g402
sg56
(lp409
S'session_id_udi0312'
p410
asbag49
(g70
g51
NtRp411
(dp412
g54
(dp413
g81
g82
ssg63
g402
sg56
(lp414
S':'
asbag49
(g70
g51
NtRp415
(dp416
g54
(dp417
sg63
g402
sg56
(lp418
g49
(g50
g51
NtRp419
(dp420
g54
(dp421
g62
I4
ssg63
g415
sg56
(lp422
g49
(g58
g51
NtRp423
(dp424
g54
(dp425
g62
I3
ssg63
Nsg56
(lp426
g49
(g65
g51
NtRp427
(dp428
g54
(dp429
sg63
g423
sg56
(lp430
g49
(g70
g51
NtRp431
(dp432
g54
(dp433
g74
g75
ssg63
g427
sg56
(lp434
g263
asbag49
(g70
g51
NtRp435
(dp436
g54
(dp437
g81
g82
ssg63
g427
sg56
(lp438
S':'
asbag49
(g70
g51
NtRp439
(dp440
g54
(dp441
sg63
g427
sg56
(lp442
g49
(g50
g51
NtRp443
(dp444
g54
(dp445
g62
I3
ssg63
g439
sg56
(lp446
S''
asbasbasbag49
(g65
g51
NtRp447
(dp448
g54
(dp449
sg63
g423
sg56
(lp450
g49
(g70
g51
NtRp451
(dp452
g54
(dp453
g74
g75
ssg63
g447
sg56
(lp454
g284
asbag49
(g70
g51
NtRp455
(dp456
g54
(dp457
g81
g82
ssg63
g447
sg56
(lp458
S':'
asbag49
(g70
g51
NtRp459
(dp460
g54
(dp461
sg63
g447
sg56
(lp462
g49
(g50
g51
NtRp463
(dp464
g54
(dp465
g62
I3
ssg63
g459
sg56
(lp466
S''
asbasbasbag49
(g65
g51
NtRp467
(dp468
g54
(dp469
sg63
g423
sg56
(lp470
g49
(g70
g51
NtRp471
(dp472
g54
(dp473
g74
g75
ssg63
g467
sg56
(lp474
g305
asbag49
(g70
g51
NtRp475
(dp476
g54
(dp477
g81
g82
ssg63
g467
sg56
(lp478
S':'
asbag49
(g70
g51
NtRp479
(dp480
g54
(dp481
sg63
g467
sg56
(lp482
g49
(g50
g51
NtRp483
(dp484
g54
(dp485
g62
I3
ssg63
g479
sg56
(lp486
S''
asbasbasbag49
(g65
g51
NtRp487
(dp488
g54
(dp489
sg63
g423
sg56
(lp490
g49
(g70
g51
NtRp491
(dp492
g54
(dp493
g74
g75
ssg63
g487
sg56
(lp494
g326
asbag49
(g70
g51
NtRp495
(dp496
g54
(dp497
g81
g82
ssg63
g487
sg56
(lp498
S':'
asbag49
(g70
g51
NtRp499
(dp500
g54
(dp501
sg63
g487
sg56
(lp502
g49
(g50
g51
NtRp503
(dp504
g54
(dp505
g62
I3
ssg63
g499
sg56
(lp506
S''
asbasbasbag49
(g65
g51
NtRp507
(dp508
g54
(dp509
sg63
g423
sg56
(lp510
g49
(g70
g51
NtRp511
(dp512
g54
(dp513
g74
g75
ssg63
g507
sg56
(lp514
g347
asbag49
(g70
g51
NtRp515
(dp516
g54
(dp517
g81
g82
ssg63
g507
sg56
(lp518
S':'
asbag49
(g70
g51
NtRp519
(dp520
g54
(dp521
sg63
g507
sg56
(lp522
g49
(g50
g51
NtRp523
(dp524
g54
(dp525
g62
I3
ssg63
g519
sg56
(lp526
S''
asbasbasbag49
(g65
g51
NtRp527
(dp528
g54
(dp529
sg63
g423
sg56
(lp530
g49
(g70
g51
NtRp531
(dp532
g54
(dp533
g74
g75
ssg63
g527
sg56
(lp534
g368
asbag49
(g70
g51
NtRp535
(dp536
g54
(dp537
g81
g82
ssg63
g527
sg56
(lp538
S':'
asbag49
(g70
g51
NtRp539
(dp540
g54
(dp541
sg63
g527
sg56
(lp542
g49
(g50
g51
NtRp543
(dp544
g54
(dp545
g62
I3
ssg63
g539
sg56
(lp546
S''
asbasbasbag49
(g65
g51
NtRp547
(dp548
g54
(dp549
sg63
g423
sg56
(lp550
g49
(g70
g51
NtRp551
(dp552
g54
(dp553
g74
g75
ssg63
g547
sg56
(lp554
g389
asbag49
(g70
g51
NtRp555
(dp556
g54
(dp557
g81
g82
ssg63
g547
sg56
(lp558
S':'
asbag49
(g70
g51
NtRp559
(dp560
g54
(dp561
sg63
g547
sg56
(lp562
g49
(g50
g51
NtRp563
(dp564
g54
(dp565
g62
I3
ssg63
g559
sg56
(lp566
S''
asbasbasbasbasbasbasbasbasbasbasbag49
(g65
g51
NtRp567
(dp568
g54
(dp569
sg63
g59
sg56
(lp570
g49
(g70
g51
NtRp571
(dp572
g54
(dp573
g74
g75
ssg63
g567
sg56
(lp574
S'env'
p575
asbag49
(g70
g51
NtRp576
(dp577
g54
(dp578
g81
g82
ssg63
g567
sg56
(lp579
S':'
asbag49
(g70
g51
NtRp580
(dp581
g54
(dp582
sg63
g567
sg56
(lp583
g49
(g50
g51
NtRp584
(dp585
g54
(dp586
g62
I5
ssg63
g580
sg56
(lp587
g49
(g58
g51
NtRp588
(dp589
g54
(dp590
g62
I4
ssg63
Nsg56
(lp591
g49
(g65
g51
NtRp592
(dp593
g54
(dp594
sg63
g588
sg56
(lp595
g49
(g70
g51
NtRp596
(dp597
g54
(dp598
g74
g75
ssg63
g592
sg56
(lp599
S'app_folders'
p600
asbag49
(g70
g51
NtRp601
(dp602
g54
(dp603
g81
g82
ssg63
g592
sg56
(lp604
S':'
asbag49
(g70
g51
NtRp605
(dp606
g54
(dp607
sg63
g592
sg56
(lp608
g49
(g50
g51
NtRp609
(dp610
g54
(dp611
g62
I4
ssg63
g605
sg56
(lp612
S"set(['/Users/udimilo/Documents/web2py/applications/udi0312/', '/Users/udimilo/Documents/web2py/applications/admin/'])"
p613
asbasbasbag49
(g65
g51
NtRp614
(dp615
g54
(dp616
sg63
g588
sg56
(lp617
g49
(g70
g51
NtRp618
(dp619
g54
(dp620
g74
g75
ssg63
g614
sg56
(lp621
S'applications_parent'
p622
asbag49
(g70
g51
NtRp623
(dp624
g54
(dp625
g81
g82
ssg63
g614
sg56
(lp626
S':'
asbag49
(g70
g51
NtRp627
(dp628
g54
(dp629
sg63
g614
sg56
(lp630
g49
(g50
g51
NtRp631
(dp632
g54
(dp633
g62
I4
ssg63
g627
sg56
(lp634
S'/Users/udimilo/Documents/web2py'
p635
asbasbasbag49
(g65
g51
NtRp636
(dp637
g54
(dp638
sg63
g588
sg56
(lp639
g49
(g70
g51
NtRp640
(dp641
g54
(dp642
g74
g75
ssg63
g636
sg56
(lp643
S'cmd_args'
p644
asbag49
(g70
g51
NtRp645
(dp646
g54
(dp647
g81
g82
ssg63
g636
sg56
(lp648
S':'
asbag49
(g70
g51
NtRp649
(dp650
g54
(dp651
sg63
g636
sg56
(lp652
g49
(g50
g51
NtRp653
(dp654
g54
(dp655
g62
I4
ssg63
g649
sg56
(lp656
g49
(g58
g51
NtRp657
(dp658
g54
(dp659
g62
I3
ssg63
Nsg56
(lp660
sbasbasbasbag49
(g65
g51
NtRp661
(dp662
g54
(dp663
sg63
g588
sg56
(lp664
g49
(g70
g51
NtRp665
(dp666
g54
(dp667
g74
g75
ssg63
g661
sg56
(lp668
S'cmd_options'
p669
asbag49
(g70
g51
NtRp670
(dp671
g54
(dp672
g81
g82
ssg63
g661
sg56
(lp673
S':'
asbag49
(g70
g51
NtRp674
(dp675
g54
(dp676
sg63
g661
sg56
(lp677
g49
(g50
g51
NtRp678
(dp679
g54
(dp680
g62
I4
ssg63
g674
sg56
(lp681
S"<Values at 0x23196e8: {'verbose': False, 'ip': '127.0.0.1', 'shutdown_timeout': 5, 'taskbar': False, 'nocron': False, 'pid_filename': 'httpserver.pid', 'maxthreads': None, 'softcron': False, 'server_name': 'Udi-Milos-MacBook-Pro.local', 'bpython': False, 'nogui': False, 'port': 8000, 'extcron': False, 'debuglevel': 30, 'test': None, 'folder': '/Users/udimilo/Documents/web2py', 'config': '', 'import_models': False, 'winservice': '', 'shell': None, 'run': '', 'log_filename': 'httpserver.log', 'args': [''], 'socket_timeout': 5, 'ssl_ca_certificate': None, 'scheduler': None, 'profiler_filename': None, 'ssl_private_key': '', 'password': '<ask>', 'request_queue_size': 5, 'ssl_certificate': '', 'cronjob': False, 'numthreads': None, 'quiet': False, 'interfaces': None, 'minthreads': None, 'timeout': 10, 'plain': False, 'nobanner': False}>"
p682
asbasbasbag49
(g65
g51
NtRp683
(dp684
g54
(dp685
sg63
g588
sg56
(lp686
g49
(g70
g51
NtRp687
(dp688
g54
(dp689
g74
g75
ssg63
g683
sg56
(lp690
S'db_sessions'
p691
asbag49
(g70
g51
NtRp692
(dp693
g54
(dp694
g81
g82
ssg63
g683
sg56
(lp695
S':'
asbag49
(g70
g51
NtRp696
(dp697
g54
(dp698
sg63
g683
sg56
(lp699
g49
(g50
g51
NtRp700
(dp701
g54
(dp702
g62
I4
ssg63
g696
sg56
(lp703
S'set([])'
p704
asbasbasbag49
(g65
g51
NtRp705
(dp706
g54
(dp707
sg63
g588
sg56
(lp708
g49
(g70
g51
NtRp709
(dp710
g54
(dp711
g74
g75
ssg63
g705
sg56
(lp712
S'debugging'
p713
asbag49
(g70
g51
NtRp714
(dp715
g54
(dp716
g81
g82
ssg63
g705
sg56
(lp717
S':'
asbag49
(g70
g51
NtRp718
(dp719
g54
(dp720
sg63
g705
sg56
(lp721
g49
(g50
g51
NtRp722
(dp723
g54
(dp724
g62
I4
ssg63
g718
sg56
(lp725
g92
asbasbasbag49
(g65
g51
NtRp726
(dp727
g54
(dp728
sg63
g588
sg56
(lp729
g49
(g70
g51
NtRp730
(dp731
g54
(dp732
g74
g75
ssg63
g726
sg56
(lp733
S'gluon_parent'
p734
asbag49
(g70
g51
NtRp735
(dp736
g54
(dp737
g81
g82
ssg63
g726
sg56
(lp738
S':'
asbag49
(g70
g51
NtRp739
(dp740
g54
(dp741
sg63
g726
sg56
(lp742
g49
(g50
g51
NtRp743
(dp744
g54
(dp745
g62
I4
ssg63
g739
sg56
(lp746
S'/Users/udimilo/Documents/web2py'
p747
asbasbasbag49
(g65
g51
NtRp748
(dp749
g54
(dp750
sg63
g588
sg56
(lp751
g49
(g70
g51
NtRp752
(dp753
g54
(dp754
g74
g75
ssg63
g748
sg56
(lp755
S'http_accept'
p756
asbag49
(g70
g51
NtRp757
(dp758
g54
(dp759
g81
g82
ssg63
g748
sg56
(lp760
S':'
asbag49
(g70
g51
NtRp761
(dp762
g54
(dp763
sg63
g748
sg56
(lp764
g49
(g50
g51
NtRp765
(dp766
g54
(dp767
g62
I4
ssg63
g761
sg56
(lp768
S'text/html,application/xhtml+xml,application/xml;q=0.9,*/*;q=0.8'
p769
asbasbasbag49
(g65
g51
NtRp770
(dp771
g54
(dp772
sg63
g588
sg56
(lp773
g49
(g70
g51
NtRp774
(dp775
g54
(dp776
g74
g75
ssg63
g770
sg56
(lp777
S'http_accept_charset'
p778
asbag49
(g70
g51
NtRp779
(dp780
g54
(dp781
g81
g82
ssg63
g770
sg56
(lp782
S':'
asbag49
(g70
g51
NtRp783
(dp784
g54
(dp785
sg63
g770
sg56
(lp786
g49
(g50
g51
NtRp787
(dp788
g54
(dp789
g62
I4
ssg63
g783
sg56
(lp790
S'ISO-8859-1,utf-8;q=0.7,*;q=0.3'
p791
asbasbasbag49
(g65
g51
NtRp792
(dp793
g54
(dp794
sg63
g588
sg56
(lp795
g49
(g70
g51
NtRp796
(dp797
g54
(dp798
g74
g75
ssg63
g792
sg56
(lp799
S'http_accept_encoding'
p800
asbag49
(g70
g51
NtRp801
(dp802
g54
(dp803
g81
g82
ssg63
g792
sg56
(lp804
S':'
asbag49
(g70
g51
NtRp805
(dp806
g54
(dp807
sg63
g792
sg56
(lp808
g49
(g50
g51
NtRp809
(dp810
g54
(dp811
g62
I4
ssg63
g805
sg56
(lp812
S'gzip,deflate,sdch'
p813
asbasbasbag49
(g65
g51
NtRp814
(dp815
g54
(dp816
sg63
g588
sg56
(lp817
g49
(g70
g51
NtRp818
(dp819
g54
(dp820
g74
g75
ssg63
g814
sg56
(lp821
S'http_accept_language'
p822
asbag49
(g70
g51
NtRp823
(dp824
g54
(dp825
g81
g82
ssg63
g814
sg56
(lp826
S':'
asbag49
(g70
g51
NtRp827
(dp828
g54
(dp829
sg63
g814
sg56
(lp830
g49
(g50
g51
NtRp831
(dp832
g54
(dp833
g62
I4
ssg63
g827
sg56
(lp834
S'en-US,en;q=0.8'
p835
asbasbasbag49
(g65
g51
NtRp836
(dp837
g54
(dp838
sg63
g588
sg56
(lp839
g49
(g70
g51
NtRp840
(dp841
g54
(dp842
g74
g75
ssg63
g836
sg56
(lp843
S'http_cache_control'
p844
asbag49
(g70
g51
NtRp845
(dp846
g54
(dp847
g81
g82
ssg63
g836
sg56
(lp848
S':'
asbag49
(g70
g51
NtRp849
(dp850
g54
(dp851
sg63
g836
sg56
(lp852
g49
(g50
g51
NtRp853
(dp854
g54
(dp855
g62
I4
ssg63
g849
sg56
(lp856
S'max-age=0'
p857
asbasbasbag49
(g65
g51
NtRp858
(dp859
g54
(dp860
sg63
g588
sg56
(lp861
g49
(g70
g51
NtRp862
(dp863
g54
(dp864
g74
g75
ssg63
g858
sg56
(lp865
S'http_connection'
p866
asbag49
(g70
g51
NtRp867
(dp868
g54
(dp869
g81
g82
ssg63
g858
sg56
(lp870
S':'
asbag49
(g70
g51
NtRp871
(dp872
g54
(dp873
sg63
g858
sg56
(lp874
g49
(g50
g51
NtRp875
(dp876
g54
(dp877
g62
I4
ssg63
g871
sg56
(lp878
S'keep-alive'
p879
asbasbasbag49
(g65
g51
NtRp880
(dp881
g54
(dp882
sg63
g588
sg56
(lp883
g49
(g70
g51
NtRp884
(dp885
g54
(dp886
g74
g75
ssg63
g880
sg56
(lp887
S'http_cookie'
p888
asbag49
(g70
g51
NtRp889
(dp890
g54
(dp891
g81
g82
ssg63
g880
sg56
(lp892
S':'
asbag49
(g70
g51
NtRp893
(dp894
g54
(dp895
sg63
g880
sg56
(lp896
g49
(g50
g51
NtRp897
(dp898
g54
(dp899
g62
I4
ssg63
g893
sg56
(lp900
S'session_id_udi0312=127.0.0.1-fcd6a577-d448-4882-b7bc-f353da84ba3b; session_id_admin=127.0.0.1-52792a20-d856-4035-8d0f-026eefd87da3'
p901
asbasbasbag49
(g65
g51
NtRp902
(dp903
g54
(dp904
sg63
g588
sg56
(lp905
g49
(g70
g51
NtRp906
(dp907
g54
(dp908
g74
g75
ssg63
g902
sg56
(lp909
S'http_host'
p910
asbag49
(g70
g51
NtRp911
(dp912
g54
(dp913
g81
g82
ssg63
g902
sg56
(lp914
S':'
asbag49
(g70
g51
NtRp915
(dp916
g54
(dp917
sg63
g902
sg56
(lp918
g49
(g50
g51
NtRp919
(dp920
g54
(dp921
g62
I4
ssg63
g915
sg56
(lp922
S'127.0.0.1:8000'
p923
asbasbasbag49
(g65
g51
NtRp924
(dp925
g54
(dp926
sg63
g588
sg56
(lp927
g49
(g70
g51
NtRp928
(dp929
g54
(dp930
g74
g75
ssg63
g924
sg56
(lp931
S'http_referer'
p932
asbag49
(g70
g51
NtRp933
(dp934
g54
(dp935
g81
g82
ssg63
g924
sg56
(lp936
S':'
asbag49
(g70
g51
NtRp937
(dp938
g54
(dp939
sg63
g924
sg56
(lp940
g49
(g50
g51
NtRp941
(dp942
g54
(dp943
g62
I4
ssg63
g937
sg56
(lp944
S'http://127.0.0.1:8000/users/1'
p945
asbasbasbag49
(g65
g51
NtRp946
(dp947
g54
(dp948
sg63
g588
sg56
(lp949
g49
(g70
g51
NtRp950
(dp951
g54
(dp952
g74
g75
ssg63
g946
sg56
(lp953
S'http_user_agent'
p954
asbag49
(g70
g51
NtRp955
(dp956
g54
(dp957
g81
g82
ssg63
g946
sg56
(lp958
S':'
asbag49
(g70
g51
NtRp959
(dp960
g54
(dp961
sg63
g946
sg56
(lp962
g49
(g50
g51
NtRp963
(dp964
g54
(dp965
g62
I4
ssg63
g959
sg56
(lp966
S'Mozilla/5.0 (Macintosh; Intel Mac OS X 10_7_3) AppleWebKit/535.11 (KHTML, like Gecko) Chrome/17.0.963.79 Safari/535.11'
p967
asbasbasbag49
(g65
g51
NtRp968
(dp969
g54
(dp970
sg63
g588
sg56
(lp971
g49
(g70
g51
NtRp972
(dp973
g54
(dp974
g74
g75
ssg63
g968
sg56
(lp975
S'is_jython'
p976
asbag49
(g70
g51
NtRp977
(dp978
g54
(dp979
g81
g82
ssg63
g968
sg56
(lp980
S':'
asbag49
(g70
g51
NtRp981
(dp982
g54
(dp983
sg63
g968
sg56
(lp984
g49
(g50
g51
NtRp985
(dp986
g54
(dp987
g62
I4
ssg63
g981
sg56
(lp988
g92
asbasbasbag49
(g65
g51
NtRp989
(dp990
g54
(dp991
sg63
g588
sg56
(lp992
g49
(g70
g51
NtRp993
(dp994
g54
(dp995
g74
g75
ssg63
g989
sg56
(lp996
S'is_pypy'
p997
asbag49
(g70
g51
NtRp998
(dp999
g54
(dp1000
g81
g82
ssg63
g989
sg56
(lp1001
S':'
asbag49
(g70
g51
NtRp1002
(dp1003
g54
(dp1004
sg63
g989
sg56
(lp1005
g49
(g50
g51
NtRp1006
(dp1007
g54
(dp1008
g62
I4
ssg63
g1002
sg56
(lp1009
g92
asbasbasbag49
(g65
g51
NtRp1010
(dp1011
g54
(dp1012
sg63
g588
sg56
(lp1013
g49
(g70
g51
NtRp1014
(dp1015
g54
(dp1016
g74
g75
ssg63
g1010
sg56
(lp1017
S'path_info'
p1018
asbag49
(g70
g51
NtRp1019
(dp1020
g54
(dp1021
g81
g82
ssg63
g1010
sg56
(lp1022
S':'
asbag49
(g70
g51
NtRp1023
(dp1024
g54
(dp1025
sg63
g1010
sg56
(lp1026
g49
(g50
g51
NtRp1027
(dp1028
g54
(dp1029
g62
I4
ssg63
g1023
sg56
(lp1030
S'/'
asbasbasbag49
(g65
g51
NtRp1031
(dp1032
g54
(dp1033
sg63
g588
sg56
(lp1034
g49
(g70
g51
NtRp1035
(dp1036
g54
(dp1037
g74
g75
ssg63
g1031
sg56
(lp1038
S'query_string'
p1039
asbag49
(g70
g51
NtRp1040
(dp1041
g54
(dp1042
g81
g82
ssg63
g1031
sg56
(lp1043
S':'
asbag49
(g70
g51
NtRp1044
(dp1045
g54
(dp1046
sg63
g1031
sg56
(lp1047
g49
(g50
g51
NtRp1048
(dp1049
g54
(dp1050
g62
I4
ssg63
g1044
sg56
(lp1051
S''
asbasbasbag49
(g65
g51
NtRp1052
(dp1053
g54
(dp1054
sg63
g588
sg56
(lp1055
g49
(g70
g51
NtRp1056
(dp1057
g54
(dp1058
g74
g75
ssg63
g1052
sg56
(lp1059
S'remote_addr'
p1060
asbag49
(g70
g51
NtRp1061
(dp1062
g54
(dp1063
g81
g82
ssg63
g1052
sg56
(lp1064
S':'
asbag49
(g70
g51
NtRp1065
(dp1066
g54
(dp1067
sg63
g1052
sg56
(lp1068
g49
(g50
g51
NtRp1069
(dp1070
g54
(dp1071
g62
I4
ssg63
g1065
sg56
(lp1072
g182
asbasbasbag49
(g65
g51
NtRp1073
(dp1074
g54
(dp1075
sg63
g588
sg56
(lp1076
g49
(g70
g51
NtRp1077
(dp1078
g54
(dp1079
g74
g75
ssg63
g1073
sg56
(lp1080
S'remote_port'
p1081
asbag49
(g70
g51
NtRp1082
(dp1083
g54
(dp1084
g81
g82
ssg63
g1073
sg56
(lp1085
S':'
asbag49
(g70
g51
NtRp1086
(dp1087
g54
(dp1088
sg63
g1073
sg56
(lp1089
g49
(g50
g51
NtRp1090
(dp1091
g54
(dp1092
g62
I4
ssg63
g1086
sg56
(lp1093
S'52045'
p1094
asbasbasbag49
(g65
g51
NtRp1095
(dp1096
g54
(dp1097
sg63
g588
sg56
(lp1098
g49
(g70
g51
NtRp1099
(dp1100
g54
(dp1101
g74
g75
ssg63
g1095
sg56
(lp1102
S'request_method'
p1103
asbag49
(g70
g51
NtRp1104
(dp1105
g54
(dp1106
g81
g82
ssg63
g1095
sg56
(lp1107
S':'
asbag49
(g70
g51
NtRp1108
(dp1109
g54
(dp1110
sg63
g1095
sg56
(lp1111
g49
(g50
g51
NtRp1112
(dp1113
g54
(dp1114
g62
I4
ssg63
g1108
sg56
(lp1115
S'GET'
p1116
asbasbasbag49
(g65
g51
NtRp1117
(dp1118
g54
(dp1119
sg63
g588
sg56
(lp1120
g49
(g70
g51
NtRp1121
(dp1122
g54
(dp1123
g74
g75
ssg63
g1117
sg56
(lp1124
S'request_uri'
p1125
asbag49
(g70
g51
NtRp1126
(dp1127
g54
(dp1128
g81
g82
ssg63
g1117
sg56
(lp1129
S':'
asbag49
(g70
g51
NtRp1130
(dp1131
g54
(dp1132
sg63
g1117
sg56
(lp1133
g49
(g50
g51
NtRp1134
(dp1135
g54
(dp1136
g62
I4
ssg63
g1130
sg56
(lp1137
S'/'
asbasbasbag49
(g65
g51
NtRp1138
(dp1139
g54
(dp1140
sg63
g588
sg56
(lp1141
g49
(g70
g51
NtRp1142
(dp1143
g54
(dp1144
g74
g75
ssg63
g1138
sg56
(lp1145
S'script_name'
p1146
asbag49
(g70
g51
NtRp1147
(dp1148
g54
(dp1149
g81
g82
ssg63
g1138
sg56
(lp1150
S':'
asbag49
(g70
g51
NtRp1151
(dp1152
g54
(dp1153
sg63
g1138
sg56
(lp1154
g49
(g50
g51
NtRp1155
(dp1156
g54
(dp1157
g62
I4
ssg63
g1151
sg56
(lp1158
S''
asbasbasbag49
(g65
g51
NtRp1159
(dp1160
g54
(dp1161
sg63
g588
sg56
(lp1162
g49
(g70
g51
NtRp1163
(dp1164
g54
(dp1165
g74
g75
ssg63
g1159
sg56
(lp1166
S'server_name'
p1167
asbag49
(g70
g51
NtRp1168
(dp1169
g54
(dp1170
g81
g82
ssg63
g1159
sg56
(lp1171
S':'
asbag49
(g70
g51
NtRp1172
(dp1173
g54
(dp1174
sg63
g1159
sg56
(lp1175
g49
(g50
g51
NtRp1176
(dp1177
g54
(dp1178
g62
I4
ssg63
g1172
sg56
(lp1179
S'Udi-Milos-MacBook-Pro.local'
p1180
asbasbasbag49
(g65
g51
NtRp1181
(dp1182
g54
(dp1183
sg63
g588
sg56
(lp1184
g49
(g70
g51
NtRp1185
(dp1186
g54
(dp1187
g74
g75
ssg63
g1181
sg56
(lp1188
S'server_port'
p1189
asbag49
(g70
g51
NtRp1190
(dp1191
g54
(dp1192
g81
g82
ssg63
g1181
sg56
(lp1193
S':'
asbag49
(g70
g51
NtRp1194
(dp1195
g54
(dp1196
sg63
g1181
sg56
(lp1197
g49
(g50
g51
NtRp1198
(dp1199
g54
(dp1200
g62
I4
ssg63
g1194
sg56
(lp1201
S'8000'
p1202
asbasbasbag49
(g65
g51
NtRp1203
(dp1204
g54
(dp1205
sg63
g588
sg56
(lp1206
g49
(g70
g51
NtRp1207
(dp1208
g54
(dp1209
g74
g75
ssg63
g1203
sg56
(lp1210
S'server_protocol'
p1211
asbag49
(g70
g51
NtRp1212
(dp1213
g54
(dp1214
g81
g82
ssg63
g1203
sg56
(lp1215
S':'
asbag49
(g70
g51
NtRp1216
(dp1217
g54
(dp1218
sg63
g1203
sg56
(lp1219
g49
(g50
g51
NtRp1220
(dp1221
g54
(dp1222
g62
I4
ssg63
g1216
sg56
(lp1223
S'HTTP/1.1'
p1224
asbasbasbag49
(g65
g51
NtRp1225
(dp1226
g54
(dp1227
sg63
g588
sg56
(lp1228
g49
(g70
g51
NtRp1229
(dp1230
g54
(dp1231
g74
g75
ssg63
g1225
sg56
(lp1232
S'server_software'
p1233
asbag49
(g70
g51
NtRp1234
(dp1235
g54
(dp1236
g81
g82
ssg63
g1225
sg56
(lp1237
S':'
asbag49
(g70
g51
NtRp1238
(dp1239
g54
(dp1240
sg63
g1225
sg56
(lp1241
g49
(g50
g51
NtRp1242
(dp1243
g54
(dp1244
g62
I4
ssg63
g1238
sg56
(lp1245
S'Rocket 1.2.4'
p1246
asbasbasbag49
(g65
g51
NtRp1247
(dp1248
g54
(dp1249
sg63
g588
sg56
(lp1250
g49
(g70
g51
NtRp1251
(dp1252
g54
(dp1253
g74
g75
ssg63
g1247
sg56
(lp1254
S'web2py_crontype'
p1255
asbag49
(g70
g51
NtRp1256
(dp1257
g54
(dp1258
g81
g82
ssg63
g1247
sg56
(lp1259
S':'
asbag49
(g70
g51
NtRp1260
(dp1261
g54
(dp1262
sg63
g1247
sg56
(lp1263
g49
(g50
g51
NtRp1264
(dp1265
g54
(dp1266
g62
I4
ssg63
g1260
sg56
(lp1267
S'hard'
p1268
asbasbasbag49
(g65
g51
NtRp1269
(dp1270
g54
(dp1271
sg63
g588
sg56
(lp1272
g49
(g70
g51
NtRp1273
(dp1274
g54
(dp1275
g74
g75
ssg63
g1269
sg56
(lp1276
S'web2py_original_uri'
p1277
asbag49
(g70
g51
NtRp1278
(dp1279
g54
(dp1280
g81
g82
ssg63
g1269
sg56
(lp1281
S':'
asbag49
(g70
g51
NtRp1282
(dp1283
g54
(dp1284
sg63
g1269
sg56
(lp1285
g49
(g50
g51
NtRp1286
(dp1287
g54
(dp1288
g62
I4
ssg63
g1282
sg56
(lp1289
S'/'
asbasbasbag49
(g65
g51
NtRp1290
(dp1291
g54
(dp1292
sg63
g588
sg56
(lp1293
g49
(g70
g51
NtRp1294
(dp1295
g54
(dp1296
g74
g75
ssg63
g1290
sg56
(lp1297
S'web2py_path'
p1298
asbag49
(g70
g51
NtRp1299
(dp1300
g54
(dp1301
g81
g82
ssg63
g1290
sg56
(lp1302
S':'
asbag49
(g70
g51
NtRp1303
(dp1304
g54
(dp1305
sg63
g1290
sg56
(lp1306
g49
(g50
g51
NtRp1307
(dp1308
g54
(dp1309
g62
I4
ssg63
g1303
sg56
(lp1310
g635
asbasbasbag49
(g65
g51
NtRp1311
(dp1312
g54
(dp1313
sg63
g588
sg56
(lp1314
g49
(g70
g51
NtRp1315
(dp1316
g54
(dp1317
g74
g75
ssg63
g1311
sg56
(lp1318
S'web2py_version'
p1319
asbag49
(g70
g51
NtRp1320
(dp1321
g54
(dp1322
g81
g82
ssg63
g1311
sg56
(lp1323
S':'
asbag49
(g70
g51
NtRp1324
(dp1325
g54
(dp1326
sg63
g1311
sg56
(lp1327
g49
(g50
g51
NtRp1328
(dp1329
g54
(dp1330
g62
I4
ssg63
g1324
sg56
(lp1331
g49
(g58
g51
NtRp1332
(dp1333
g54
(dp1334
g62
I3
ssg63
Nsg56
(lp1335
g49
(g65
g51
NtRp1336
(dp1337
g54
(dp1338
sg63
g1332
sg56
(lp1339
g49
(g70
g51
NtRp1340
(dp1341
g54
(dp1342
sg63
g1336
sg56
(lp1343
g49
(g50
g51
NtRp1344
(dp1345
g54
(dp1346
g62
I3
ssg63
g1340
sg56
(lp1347
S'1'
asbasbasbag49
(g65
g51
NtRp1348
(dp1349
g54
(dp1350
sg63
g1332
sg56
(lp1351
g49
(g70
g51
NtRp1352
(dp1353
g54
(dp1354
sg63
g1348
sg56
(lp1355
g49
(g50
g51
NtRp1356
(dp1357
g54
(dp1358
g62
I3
ssg63
g1352
sg56
(lp1359
S'99'
p1360
asbasbasbag49
(g65
g51
NtRp1361
(dp1362
g54
(dp1363
sg63
g1332
sg56
(lp1364
g49
(g70
g51
NtRp1365
(dp1366
g54
(dp1367
sg63
g1361
sg56
(lp1368
g49
(g50
g51
NtRp1369
(dp1370
g54
(dp1371
g62
I3
ssg63
g1365
sg56
(lp1372
S'7'
asbasbasbag49
(g65
g51
NtRp1373
(dp1374
g54
(dp1375
sg63
g1332
sg56
(lp1376
g49
(g70
g51
NtRp1377
(dp1378
g54
(dp1379
sg63
g1373
sg56
(lp1380
g49
(g50
g51
NtRp1381
(dp1382
g54
(dp1383
g62
I3
ssg63
g1377
sg56
(lp1384
S'datetime.datetime(2012, 3, 4, 22, 12, 8)'
p1385
asbasbasbag49
(g65
g51
NtRp1386
(dp1387
g54
(dp1388
sg63
g1332
sg56
(lp1389
g49
(g70
g51
NtRp1390
(dp1391
g54
(dp1392
sg63
g1386
sg56
(lp1393
g49
(g50
g51
NtRp1394
(dp1395
g54
(dp1396
g62
I3
ssg63
g1390
sg56
(lp1397
S'stable'
p1398
asbasbasbasbasbasbasbag49
(g65
g51
NtRp1399
(dp1400
g54
(dp1401
sg63
g588
sg56
(lp1402
g49
(g70
g51
NtRp1403
(dp1404
g54
(dp1405
g74
g75
ssg63
g1399
sg56
(lp1406
S'wsgi_errors'
p1407
asbag49
(g70
g51
NtRp1408
(dp1409
g54
(dp1410
g81
g82
ssg63
g1399
sg56
(lp1411
S':'
asbag49
(g70
g51
NtRp1412
(dp1413
g54
(dp1414
sg63
g1399
sg56
(lp1415
g49
(g50
g51
NtRp1416
(dp1417
g54
(dp1418
g62
I4
ssg63
g1412
sg56
(lp1419
S"<open file '<stderr>', mode 'w' at 0x4220b0>"
p1420
asbasbasbag49
(g65
g51
NtRp1421
(dp1422
g54
(dp1423
sg63
g588
sg56
(lp1424
g49
(g70
g51
NtRp1425
(dp1426
g54
(dp1427
g74
g75
ssg63
g1421
sg56
(lp1428
S'wsgi_file_wrapper'
p1429
asbag49
(g70
g51
NtRp1430
(dp1431
g54
(dp1432
g81
g82
ssg63
g1421
sg56
(lp1433
S':'
asbag49
(g70
g51
NtRp1434
(dp1435
g54
(dp1436
sg63
g1421
sg56
(lp1437
g49
(g50
g51
NtRp1438
(dp1439
g54
(dp1440
g62
I4
ssg63
g1434
sg56
(lp1441
S'<class wsgiref.util.FileWrapper at 0x225e6c0>'
p1442
asbasbasbag49
(g65
g51
NtRp1443
(dp1444
g54
(dp1445
sg63
g588
sg56
(lp1446
g49
(g70
g51
NtRp1447
(dp1448
g54
(dp1449
g74
g75
ssg63
g1443
sg56
(lp1450
S'wsgi_input'
p1451
asbag49
(g70
g51
NtRp1452
(dp1453
g54
(dp1454
g81
g82
ssg63
g1443
sg56
(lp1455
S':'
asbag49
(g70
g51
NtRp1456
(dp1457
g54
(dp1458
sg63
g1443
sg56
(lp1459
g49
(g50
g51
NtRp1460
(dp1461
g54
(dp1462
g62
I4
ssg63
g1456
sg56
(lp1463
S'<socket._fileobject object at 0xa0eadf0>'
p1464
asbasbasbag49
(g65
g51
NtRp1465
(dp1466
g54
(dp1467
sg63
g588
sg56
(lp1468
g49
(g70
g51
NtRp1469
(dp1470
g54
(dp1471
g74
g75
ssg63
g1465
sg56
(lp1472
S'wsgi_multiprocess'
p1473
asbag49
(g70
g51
NtRp1474
(dp1475
g54
(dp1476
g81
g82
ssg63
g1465
sg56
(lp1477
S':'
asbag49
(g70
g51
NtRp1478
(dp1479
g54
(dp1480
sg63
g1465
sg56
(lp1481
g49
(g50
g51
NtRp1482
(dp1483
g54
(dp1484
g62
I4
ssg63
g1478
sg56
(lp1485
g92
asbasbasbag49
(g65
g51
NtRp1486
(dp1487
g54
(dp1488
sg63
g588
sg56
(lp1489
g49
(g70
g51
NtRp1490
(dp1491
g54
(dp1492
g74
g75
ssg63
g1486
sg56
(lp1493
S'wsgi_multithread'
p1494
asbag49
(g70
g51
NtRp1495
(dp1496
g54
(dp1497
g81
g82
ssg63
g1486
sg56
(lp1498
S':'
asbag49
(g70
g51
NtRp1499
(dp1500
g54
(dp1501
sg63
g1486
sg56
(lp1502
g49
(g50
g51
NtRp1503
(dp1504
g54
(dp1505
g62
I4
ssg63
g1499
sg56
(lp1506
S'True'
p1507
asbasbasbag49
(g65
g51
NtRp1508
(dp1509
g54
(dp1510
sg63
g588
sg56
(lp1511
g49
(g70
g51
NtRp1512
(dp1513
g54
(dp1514
g74
g75
ssg63
g1508
sg56
(lp1515
S'wsgi_run_once'
p1516
asbag49
(g70
g51
NtRp1517
(dp1518
g54
(dp1519
g81
g82
ssg63
g1508
sg56
(lp1520
S':'
asbag49
(g70
g51
NtRp1521
(dp1522
g54
(dp1523
sg63
g1508
sg56
(lp1524
g49
(g50
g51
NtRp1525
(dp1526
g54
(dp1527
g62
I4
ssg63
g1521
sg56
(lp1528
g92
asbasbasbag49
(g65
g51
NtRp1529
(dp1530
g54
(dp1531
sg63
g588
sg56
(lp1532
g49
(g70
g51
NtRp1533
(dp1534
g54
(dp1535
g74
g75
ssg63
g1529
sg56
(lp1536
S'wsgi_url_scheme'
p1537
asbag49
(g70
g51
NtRp1538
(dp1539
g54
(dp1540
g81
g82
ssg63
g1529
sg56
(lp1541
S':'
asbag49
(g70
g51
NtRp1542
(dp1543
g54
(dp1544
sg63
g1529
sg56
(lp1545
g49
(g50
g51
NtRp1546
(dp1547
g54
(dp1548
g62
I4
ssg63
g1542
sg56
(lp1549
S'http'
p1550
asbasbasbag49
(g65
g51
NtRp1551
(dp1552
g54
(dp1553
sg63
g588
sg56
(lp1554
g49
(g70
g51
NtRp1555
(dp1556
g54
(dp1557
g74
g75
ssg63
g1551
sg56
(lp1558
S'wsgi_version'
p1559
asbag49
(g70
g51
NtRp1560
(dp1561
g54
(dp1562
g81
g82
ssg63
g1551
sg56
(lp1563
S':'
asbag49
(g70
g51
NtRp1564
(dp1565
g54
(dp1566
sg63
g1551
sg56
(lp1567
g49
(g50
g51
NtRp1568
(dp1569
g54
(dp1570
g62
I4
ssg63
g1564
sg56
(lp1571
g49
(g58
g51
NtRp1572
(dp1573
g54
(dp1574
g62
I3
ssg63
Nsg56
(lp1575
g49
(g65
g51
NtRp1576
(dp1577
g54
(dp1578
sg63
g1572
sg56
(lp1579
g49
(g70
g51
NtRp1580
(dp1581
g54
(dp1582
sg63
g1576
sg56
(lp1583
g49
(g50
g51
NtRp1584
(dp1585
g54
(dp1586
g62
I3
ssg63
g1580
sg56
(lp1587
S'1'
asbasbasbag49
(g65
g51
NtRp1588
(dp1589
g54
(dp1590
sg63
g1572
sg56
(lp1591
g49
(g70
g51
NtRp1592
(dp1593
g54
(dp1594
sg63
g1588
sg56
(lp1595
g49
(g50
g51
NtRp1596
(dp1597
g54
(dp1598
g62
I3
ssg63
g1592
sg56
(lp1599
S'0'
asbasbasbasbasbasbasbasbasbasbasbag49
(g65
g51
NtRp1600
(dp1601
g54
(dp1602
sg63
g59
sg56
(lp1603
g49
(g70
g51
NtRp1604
(dp1605
g54
(dp1606
g74
g75
ssg63
g1600
sg56
(lp1607
S'extension'
p1608
asbag49
(g70
g51
NtRp1609
(dp1610
g54
(dp1611
g81
g82
ssg63
g1600
sg56
(lp1612
S':'
asbag49
(g70
g51
NtRp1613
(dp1614
g54
(dp1615
sg63
g1600
sg56
(lp1616
g49
(g50
g51
NtRp1617
(dp1618
g54
(dp1619
g62
I5
ssg63
g1613
sg56
(lp1620
S'html'
p1621
asbasbasbag49
(g65
g51
NtRp1622
(dp1623
g54
(dp1624
sg63
g59
sg56
(lp1625
g49
(g70
g51
NtRp1626
(dp1627
g54
(dp1628
g74
g75
ssg63
g1622
sg56
(lp1629
S'folder'
p1630
asbag49
(g70
g51
NtRp1631
(dp1632
g54
(dp1633
g81
g82
ssg63
g1622
sg56
(lp1634
S':'
asbag49
(g70
g51
NtRp1635
(dp1636
g54
(dp1637
sg63
g1622
sg56
(lp1638
g49
(g50
g51
NtRp1639
(dp1640
g54
(dp1641
g62
I5
ssg63
g1635
sg56
(lp1642
S'/Users/udimilo/Documents/web2py/applications/udi0312/'
p1643
asbasbasbag49
(g65
g51
NtRp1644
(dp1645
g54
(dp1646
sg63
g59
sg56
(lp1647
g49
(g70
g51
NtRp1648
(dp1649
g54
(dp1650
g74
g75
ssg63
g1644
sg56
(lp1651
S'function'
p1652
asbag49
(g70
g51
NtRp1653
(dp1654
g54
(dp1655
g81
g82
ssg63
g1644
sg56
(lp1656
S':'
asbag49
(g70
g51
NtRp1657
(dp1658
g54
(dp1659
sg63
g1644
sg56
(lp1660
g49
(g50
g51
NtRp1661
(dp1662
g54
(dp1663
g62
I5
ssg63
g1657
sg56
(lp1664
S'index'
p1665
asbasbasbag49
(g65
g51
NtRp1666
(dp1667
g54
(dp1668
sg63
g59
sg56
(lp1669
g49
(g70
g51
NtRp1670
(dp1671
g54
(dp1672
g74
g75
ssg63
g1666
sg56
(lp1673
S'get_vars'
p1674
asbag49
(g70
g51
NtRp1675
(dp1676
g54
(dp1677
g81
g82
ssg63
g1666
sg56
(lp1678
S':'
asbag49
(g70
g51
NtRp1679
(dp1680
g54
(dp1681
sg63
g1666
sg56
(lp1682
g49
(g50
g51
NtRp1683
(dp1684
g54
(dp1685
g62
I5
ssg63
g1679
sg56
(lp1686
g49
(g58
g51
NtRp1687
(dp1688
g54
(dp1689
g62
I4
ssg63
Nsg56
(lp1690
sbasbasbasbag49
(g65
g51
NtRp1691
(dp1692
g54
(dp1693
sg63
g59
sg56
(lp1694
g49
(g70
g51
NtRp1695
(dp1696
g54
(dp1697
g74
g75
ssg63
g1691
sg56
(lp1698
S'global_settings'
p1699
asbag49
(g70
g51
NtRp1700
(dp1701
g54
(dp1702
g81
g82
ssg63
g1691
sg56
(lp1703
S':'
asbag49
(g70
g51
NtRp1704
(dp1705
g54
(dp1706
sg63
g1691
sg56
(lp1707
g49
(g50
g51
NtRp1708
(dp1709
g54
(dp1710
g62
I5
ssg63
g1704
sg56
(lp1711
g49
(g58
g51
NtRp1712
(dp1713
g54
(dp1714
g62
I4
ssg63
Nsg56
(lp1715
g49
(g65
g51
NtRp1716
(dp1717
g54
(dp1718
sg63
g1712
sg56
(lp1719
g49
(g70
g51
NtRp1720
(dp1721
g54
(dp1722
g74
g75
ssg63
g1716
sg56
(lp1723
g600
asbag49
(g70
g51
NtRp1724
(dp1725
g54
(dp1726
g81
g82
ssg63
g1716
sg56
(lp1727
S':'
asbag49
(g70
g51
NtRp1728
(dp1729
g54
(dp1730
sg63
g1716
sg56
(lp1731
g49
(g50
g51
NtRp1732
(dp1733
g54
(dp1734
g62
I4
ssg63
g1728
sg56
(lp1735
S"set(['/Users/udimilo/Documents/web2py/applications/udi0312/', '/Users/udimilo/Documents/web2py/applications/admin/'])"
p1736
asbasbasbag49
(g65
g51
NtRp1737
(dp1738
g54
(dp1739
sg63
g1712
sg56
(lp1740
g49
(g70
g51
NtRp1741
(dp1742
g54
(dp1743
g74
g75
ssg63
g1737
sg56
(lp1744
g622
asbag49
(g70
g51
NtRp1745
(dp1746
g54
(dp1747
g81
g82
ssg63
g1737
sg56
(lp1748
S':'
asbag49
(g70
g51
NtRp1749
(dp1750
g54
(dp1751
sg63
g1737
sg56
(lp1752
g49
(g50
g51
NtRp1753
(dp1754
g54
(dp1755
g62
I4
ssg63
g1749
sg56
(lp1756
g635
asbasbasbag49
(g65
g51
NtRp1757
(dp1758
g54
(dp1759
sg63
g1712
sg56
(lp1760
g49
(g70
g51
NtRp1761
(dp1762
g54
(dp1763
g74
g75
ssg63
g1757
sg56
(lp1764
g644
asbag49
(g70
g51
NtRp1765
(dp1766
g54
(dp1767
g81
g82
ssg63
g1757
sg56
(lp1768
S':'
asbag49
(g70
g51
NtRp1769
(dp1770
g54
(dp1771
sg63
g1757
sg56
(lp1772
g49
(g50
g51
NtRp1773
(dp1774
g54
(dp1775
g62
I4
ssg63
g1769
sg56
(lp1776
g49
(g58
g51
NtRp1777
(dp1778
g54
(dp1779
g62
I3
ssg63
Nsg56
(lp1780
sbasbasbasbag49
(g65
g51
NtRp1781
(dp1782
g54
(dp1783
sg63
g1712
sg56
(lp1784
g49
(g70
g51
NtRp1785
(dp1786
g54
(dp1787
g74
g75
ssg63
g1781
sg56
(lp1788
g669
asbag49
(g70
g51
NtRp1789
(dp1790
g54
(dp1791
g81
g82
ssg63
g1781
sg56
(lp1792
S':'
asbag49
(g70
g51
NtRp1793
(dp1794
g54
(dp1795
sg63
g1781
sg56
(lp1796
g49
(g50
g51
NtRp1797
(dp1798
g54
(dp1799
g62
I4
ssg63
g1793
sg56
(lp1800
S"<Values at 0x23196e8: {'verbose': False, 'ip': '127.0.0.1', 'shutdown_timeout': 5, 'taskbar': False, 'nocron': False, 'pid_filename': 'httpserver.pid', 'maxthreads': None, 'softcron': False, 'server_name': 'Udi-Milos-MacBook-Pro.local', 'bpython': False, 'nogui': False, 'port': 8000, 'extcron': False, 'debuglevel': 30, 'test': None, 'folder': '/Users/udimilo/Documents/web2py', 'config': '', 'import_models': False, 'winservice': '', 'shell': None, 'run': '', 'log_filename': 'httpserver.log', 'args': [''], 'socket_timeout': 5, 'ssl_ca_certificate': None, 'scheduler': None, 'profiler_filename': None, 'ssl_private_key': '', 'password': '<ask>', 'request_queue_size': 5, 'ssl_certificate': '', 'cronjob': False, 'numthreads': None, 'quiet': False, 'interfaces': None, 'minthreads': None, 'timeout': 10, 'plain': False, 'nobanner': False}>"
p1801
asbasbasbag49
(g65
g51
NtRp1802
(dp1803
g54
(dp1804
sg63
g1712
sg56
(lp1805
g49
(g70
g51
NtRp1806
(dp1807
g54
(dp1808
g74
g75
ssg63
g1802
sg56
(lp1809
g691
asbag49
(g70
g51
NtRp1810
(dp1811
g54
(dp1812
g81
g82
ssg63
g1802
sg56
(lp1813
S':'
asbag49
(g70
g51
NtRp1814
(dp1815
g54
(dp1816
sg63
g1802
sg56
(lp1817
g49
(g50
g51
NtRp1818
(dp1819
g54
(dp1820
g62
I4
ssg63
g1814
sg56
(lp1821
S'set([])'
p1822
asbasbasbag49
(g65
g51
NtRp1823
(dp1824
g54
(dp1825
sg63
g1712
sg56
(lp1826
g49
(g70
g51
NtRp1827
(dp1828
g54
(dp1829
g74
g75
ssg63
g1823
sg56
(lp1830
g713
asbag49
(g70
g51
NtRp1831
(dp1832
g54
(dp1833
g81
g82
ssg63
g1823
sg56
(lp1834
S':'
asbag49
(g70
g51
NtRp1835
(dp1836
g54
(dp1837
sg63
g1823
sg56
(lp1838
g49
(g50
g51
NtRp1839
(dp1840
g54
(dp1841
g62
I4
ssg63
g1835
sg56
(lp1842
g92
asbasbasbag49
(g65
g51
NtRp1843
(dp1844
g54
(dp1845
sg63
g1712
sg56
(lp1846
g49
(g70
g51
NtRp1847
(dp1848
g54
(dp1849
g74
g75
ssg63
g1843
sg56
(lp1850
g734
asbag49
(g70
g51
NtRp1851
(dp1852
g54
(dp1853
g81
g82
ssg63
g1843
sg56
(lp1854
S':'
asbag49
(g70
g51
NtRp1855
(dp1856
g54
(dp1857
sg63
g1843
sg56
(lp1858
g49
(g50
g51
NtRp1859
(dp1860
g54
(dp1861
g62
I4
ssg63
g1855
sg56
(lp1862
g747
asbasbasbag49
(g65
g51
NtRp1863
(dp1864
g54
(dp1865
sg63
g1712
sg56
(lp1866
g49
(g70
g51
NtRp1867
(dp1868
g54
(dp1869
g74
g75
ssg63
g1863
sg56
(lp1870
g976
asbag49
(g70
g51
NtRp1871
(dp1872
g54
(dp1873
g81
g82
ssg63
g1863
sg56
(lp1874
S':'
asbag49
(g70
g51
NtRp1875
(dp1876
g54
(dp1877
sg63
g1863
sg56
(lp1878
g49
(g50
g51
NtRp1879
(dp1880
g54
(dp1881
g62
I4
ssg63
g1875
sg56
(lp1882
g92
asbasbasbag49
(g65
g51
NtRp1883
(dp1884
g54
(dp1885
sg63
g1712
sg56
(lp1886
g49
(g70
g51
NtRp1887
(dp1888
g54
(dp1889
g74
g75
ssg63
g1883
sg56
(lp1890
g997
asbag49
(g70
g51
NtRp1891
(dp1892
g54
(dp1893
g81
g82
ssg63
g1883
sg56
(lp1894
S':'
asbag49
(g70
g51
NtRp1895
(dp1896
g54
(dp1897
sg63
g1883
sg56
(lp1898
g49
(g50
g51
NtRp1899
(dp1900
g54
(dp1901
g62
I4
ssg63
g1895
sg56
(lp1902
g92
asbasbasbag49
(g65
g51
NtRp1903
(dp1904
g54
(dp1905
sg63
g1712
sg56
(lp1906
g49
(g70
g51
NtRp1907
(dp1908
g54
(dp1909
g74
g75
ssg63
g1903
sg56
(lp1910
g1255
asbag49
(g70
g51
NtRp1911
(dp1912
g54
(dp1913
g81
g82
ssg63
g1903
sg56
(lp1914
S':'
asbag49
(g70
g51
NtRp1915
(dp1916
g54
(dp1917
sg63
g1903
sg56
(lp1918
g49
(g50
g51
NtRp1919
(dp1920
g54
(dp1921
g62
I4
ssg63
g1915
sg56
(lp1922
g1268
asbasbasbag49
(g65
g51
NtRp1923
(dp1924
g54
(dp1925
sg63
g1712
sg56
(lp1926
g49
(g70
g51
NtRp1927
(dp1928
g54
(dp1929
g74
g75
ssg63
g1923
sg56
(lp1930
g1319
asbag49
(g70
g51
NtRp1931
(dp1932
g54
(dp1933
g81
g82
ssg63
g1923
sg56
(lp1934
S':'
asbag49
(g70
g51
NtRp1935
(dp1936
g54
(dp1937
sg63
g1923
sg56
(lp1938
g49
(g50
g51
NtRp1939
(dp1940
g54
(dp1941
g62
I4
ssg63
g1935
sg56
(lp1942
g49
(g58
g51
NtRp1943
(dp1944
g54
(dp1945
g62
I3
ssg63
Nsg56
(lp1946
g49
(g65
g51
NtRp1947
(dp1948
g54
(dp1949
sg63
g1943
sg56
(lp1950
g49
(g70
g51
NtRp1951
(dp1952
g54
(dp1953
sg63
g1947
sg56
(lp1954
g49
(g50
g51
NtRp1955
(dp1956
g54
(dp1957
g62
I3
ssg63
g1951
sg56
(lp1958
S'1'
asbasbasbag49
(g65
g51
NtRp1959
(dp1960
g54
(dp1961
sg63
g1943
sg56
(lp1962
g49
(g70
g51
NtRp1963
(dp1964
g54
(dp1965
sg63
g1959
sg56
(lp1966
g49
(g50
g51
NtRp1967
(dp1968
g54
(dp1969
g62
I3
ssg63
g1963
sg56
(lp1970
S'99'
p1971
asbasbasbag49
(g65
g51
NtRp1972
(dp1973
g54
(dp1974
sg63
g1943
sg56
(lp1975
g49
(g70
g51
NtRp1976
(dp1977
g54
(dp1978
sg63
g1972
sg56
(lp1979
g49
(g50
g51
NtRp1980
(dp1981
g54
(dp1982
g62
I3
ssg63
g1976
sg56
(lp1983
S'7'
asbasbasbag49
(g65
g51
NtRp1984
(dp1985
g54
(dp1986
sg63
g1943
sg56
(lp1987
g49
(g70
g51
NtRp1988
(dp1989
g54
(dp1990
sg63
g1984
sg56
(lp1991
g49
(g50
g51
NtRp1992
(dp1993
g54
(dp1994
g62
I3
ssg63
g1988
sg56
(lp1995
S'datetime.datetime(2012, 3, 4, 22, 12, 8)'
p1996
asbasbasbag49
(g65
g51
NtRp1997
(dp1998
g54
(dp1999
sg63
g1943
sg56
(lp2000
g49
(g70
g51
NtRp2001
(dp2002
g54
(dp2003
sg63
g1997
sg56
(lp2004
g49
(g50
g51
NtRp2005
(dp2006
g54
(dp2007
g62
I3
ssg63
g2001
sg56
(lp2008
g1398
asbasbasbasbasbasbasbasbasbasbasbag49
(g65
g51
NtRp2009
(dp2010
g54
(dp2011
sg63
g59
sg56
(lp2012
g49
(g70
g51
NtRp2013
(dp2014
g54
(dp2015
g74
g75
ssg63
g2009
sg56
(lp2016
S'is_https'
p2017
asbag49
(g70
g51
NtRp2018
(dp2019
g54
(dp2020
g81
g82
ssg63
g2009
sg56
(lp2021
S':'
asbag49
(g70
g51
NtRp2022
(dp2023
g54
(dp2024
sg63
g2009
sg56
(lp2025
g49
(g50
g51
NtRp2026
(dp2027
g54
(dp2028
g62
I5
ssg63
g2022
sg56
(lp2029
g92
asbasbasbag49
(g65
g51
NtRp2030
(dp2031
g54
(dp2032
sg63
g59
sg56
(lp2033
g49
(g70
g51
NtRp2034
(dp2035
g54
(dp2036
g74
g75
ssg63
g2030
sg56
(lp2037
S'is_local'
p2038
asbag49
(g70
g51
NtRp2039
(dp2040
g54
(dp2041
g81
g82
ssg63
g2030
sg56
(lp2042
S':'
asbag49
(g70
g51
NtRp2043
(dp2044
g54
(dp2045
sg63
g2030
sg56
(lp2046
g49
(g50
g51
NtRp2047
(dp2048
g54
(dp2049
g62
I5
ssg63
g2043
sg56
(lp2050
g1507
asbasbasbag49
(g65
g51
NtRp2051
(dp2052
g54
(dp2053
sg63
g59
sg56
(lp2054
g49
(g70
g51
NtRp2055
(dp2056
g54
(dp2057
g74
g75
ssg63
g2051
sg56
(lp2058
S'is_restful'
p2059
asbag49
(g70
g51
NtRp2060
(dp2061
g54
(dp2062
g81
g82
ssg63
g2051
sg56
(lp2063
S':'
asbag49
(g70
g51
NtRp2064
(dp2065
g54
(dp2066
sg63
g2051
sg56
(lp2067
g49
(g50
g51
NtRp2068
(dp2069
g54
(dp2070
g62
I5
ssg63
g2064
sg56
(lp2071
g92
asbasbasbag49
(g65
g51
NtRp2072
(dp2073
g54
(dp2074
sg63
g59
sg56
(lp2075
g49
(g70
g51
NtRp2076
(dp2077
g54
(dp2078
g74
g75
ssg63
g2072
sg56
(lp2079
S'now'
p2080
asbag49
(g70
g51
NtRp2081
(dp2082
g54
(dp2083
g81
g82
ssg63
g2072
sg56
(lp2084
S':'
asbag49
(g70
g51
NtRp2085
(dp2086
g54
(dp2087
sg63
g2072
sg56
(lp2088
g49
(g50
g51
NtRp2089
(dp2090
g54
(dp2091
g62
I5
ssg63
g2085
sg56
(lp2092
S'datetime.datetime(2012, 3, 18, 20, 10, 16, 701903)'
p2093
asbasbasbag49
(g65
g51
NtRp2094
(dp2095
g54
(dp2096
sg63
g59
sg56
(lp2097
g49
(g70
g51
NtRp2098
(dp2099
g54
(dp2100
g74
g75
ssg63
g2094
sg56
(lp2101
S'post_vars'
p2102
asbag49
(g70
g51
NtRp2103
(dp2104
g54
(dp2105
g81
g82
ssg63
g2094
sg56
(lp2106
S':'
asbag49
(g70
g51
NtRp2107
(dp2108
g54
(dp2109
sg63
g2094
sg56
(lp2110
g49
(g50
g51
NtRp2111
(dp2112
g54
(dp2113
g62
I5
ssg63
g2107
sg56
(lp2114
g49
(g58
g51
NtRp2115
(dp2116
g54
(dp2117
g62
I4
ssg63
Nsg56
(lp2118
sbasbasbasbag49
(g65
g51
NtRp2119
(dp2120
g54
(dp2121
sg63
g59
sg56
(lp2122
g49
(g70
g51
NtRp2123
(dp2124
g54
(dp2125
g74
g75
ssg63
g2119
sg56
(lp2126
S'url'
p2127
asbag49
(g70
g51
NtRp2128
(dp2129
g54
(dp2130
g81
g82
ssg63
g2119
sg56
(lp2131
S':'
asbag49
(g70
g51
NtRp2132
(dp2133
g54
(dp2134
sg63
g2119
sg56
(lp2135
g49
(g50
g51
NtRp2136
(dp2137
g54
(dp2138
g62
I5
ssg63
g2132
sg56
(lp2139
S'/index'
p2140
asbasbasbag49
(g65
g51
NtRp2141
(dp2142
g54
(dp2143
sg63
g59
sg56
(lp2144
g49
(g70
g51
NtRp2145
(dp2146
g54
(dp2147
g74
g75
ssg63
g2141
sg56
(lp2148
S'utcnow'
p2149
asbag49
(g70
g51
NtRp2150
(dp2151
g54
(dp2152
g81
g82
ssg63
g2141
sg56
(lp2153
S':'
asbag49
(g70
g51
NtRp2154
(dp2155
g54
(dp2156
sg63
g2141
sg56
(lp2157
g49
(g50
g51
NtRp2158
(dp2159
g54
(dp2160
g62
I5
ssg63
g2154
sg56
(lp2161
S'datetime.datetime(2012, 3, 19, 0, 10, 16, 701917)'
p2162
asbasbasbag49
(g65
g51
NtRp2163
(dp2164
g54
(dp2165
sg63
g59
sg56
(lp2166
g49
(g70
g51
NtRp2167
(dp2168
g54
(dp2169
g74
g75
ssg63
g2163
sg56
(lp2170
S'uuid'
p2171
asbag49
(g70
g51
NtRp2172
(dp2173
g54
(dp2174
g81
g82
ssg63
g2163
sg56
(lp2175
S':'
asbag49
(g70
g51
NtRp2176
(dp2177
g54
(dp2178
sg63
g2163
sg56
(lp2179
g49
(g50
g51
NtRp2180
(dp2181
g54
(dp2182
g62
I5
ssg63
g2176
sg56
(lp2183
S'udi0312/127.0.0.1.2012-03-18.20-10-16.6070a813-e3cf-4a8a-ad9f-5ddd7957e9b9'
p2184
asbasbasbag49
(g65
g51
NtRp2185
(dp2186
g54
(dp2187
sg63
g59
sg56
(lp2188
g49
(g70
g51
NtRp2189
(dp2190
g54
(dp2191
g74
g75
ssg63
g2185
sg56
(lp2192
S'vars'
p2193
asbag49
(g70
g51
NtRp2194
(dp2195
g54
(dp2196
g81
g82
ssg63
g2185
sg56
(lp2197
S':'
asbag49
(g70
g51
NtRp2198
(dp2199
g54
(dp2200
sg63
g2185
sg56
(lp2201
g49
(g50
g51
NtRp2202
(dp2203
g54
(dp2204
g62
I5
ssg63
g2198
sg56
(lp2205
g49
(g58
g51
NtRp2206
(dp2207
g54
(dp2208
g62
I4
ssg63
Nsg56
(lp2209
sbasbasbasbag49
(g65
g51
NtRp2210
(dp2211
g54
(dp2212
sg63
g59
sg56
(lp2213
g49
(g70
g51
NtRp2214
(dp2215
g54
(dp2216
g74
g75
ssg63
g2210
sg56
(lp2217
S'wsgi'
p2218
asbag49
(g70
g51
NtRp2219
(dp2220
g54
(dp2221
g81
g82
ssg63
g2210
sg56
(lp2222
S':'
asbag49
(g70
g51
NtRp2223
(dp2224
g54
(dp2225
sg63
g2210
sg56
(lp2226
g49
(g50
g51
NtRp2227
(dp2228
g54
(dp2229
g62
I5
ssg63
g2223
sg56
(lp2230
g49
(g58
g51
NtRp2231
(dp2232
g54
(dp2233
g62
I4
ssg63
Nsg56
(lp2234
g49
(g65
g51
NtRp2235
(dp2236
g54
(dp2237
sg63
g2231
sg56
(lp2238
g49
(g70
g51
NtRp2239
(dp2240
g54
(dp2241
g74
g75
ssg63
g2235
sg56
(lp2242
S'environ'
p2243
asbag49
(g70
g51
NtRp2244
(dp2245
g54
(dp2246
g81
g82
ssg63
g2235
sg56
(lp2247
S':'
asbag49
(g70
g51
NtRp2248
(dp2249
g54
(dp2250
sg63
g2235
sg56
(lp2251
g49
(g50
g51
NtRp2252
(dp2253
g54
(dp2254
g62
I4
ssg63
g2248
sg56
(lp2255
g49
(g58
g51
NtRp2256
(dp2257
g54
(dp2258
g62
I3
ssg63
Nsg56
(lp2259
g49
(g65
g51
NtRp2260
(dp2261
g54
(dp2262
sg63
g2256
sg56
(lp2263
g49
(g70
g51
NtRp2264
(dp2265
g54
(dp2266
g74
g75
ssg63
g2260
sg56
(lp2267
S'HTTP_ACCEPT'
p2268
asbag49
(g70
g51
NtRp2269
(dp2270
g54
(dp2271
g81
g82
ssg63
g2260
sg56
(lp2272
S':'
asbag49
(g70
g51
NtRp2273
(dp2274
g54
(dp2275
sg63
g2260
sg56
(lp2276
g49
(g50
g51
NtRp2277
(dp2278
g54
(dp2279
g62
I3
ssg63
g2273
sg56
(lp2280
g769
asbasbasbag49
(g65
g51
NtRp2281
(dp2282
g54
(dp2283
sg63
g2256
sg56
(lp2284
g49
(g70
g51
NtRp2285
(dp2286
g54
(dp2287
g74
g75
ssg63
g2281
sg56
(lp2288
S'HTTP_ACCEPT_CHARSET'
p2289
asbag49
(g70
g51
NtRp2290
(dp2291
g54
(dp2292
g81
g82
ssg63
g2281
sg56
(lp2293
S':'
asbag49
(g70
g51
NtRp2294
(dp2295
g54
(dp2296
sg63
g2281
sg56
(lp2297
g49
(g50
g51
NtRp2298
(dp2299
g54
(dp2300
g62
I3
ssg63
g2294
sg56
(lp2301
g791
asbasbasbag49
(g65
g51
NtRp2302
(dp2303
g54
(dp2304
sg63
g2256
sg56
(lp2305
g49
(g70
g51
NtRp2306
(dp2307
g54
(dp2308
g74
g75
ssg63
g2302
sg56
(lp2309
S'HTTP_ACCEPT_ENCODING'
p2310
asbag49
(g70
g51
NtRp2311
(dp2312
g54
(dp2313
g81
g82
ssg63
g2302
sg56
(lp2314
S':'
asbag49
(g70
g51
NtRp2315
(dp2316
g54
(dp2317
sg63
g2302
sg56
(lp2318
g49
(g50
g51
NtRp2319
(dp2320
g54
(dp2321
g62
I3
ssg63
g2315
sg56
(lp2322
g813
asbasbasbag49
(g65
g51
NtRp2323
(dp2324
g54
(dp2325
sg63
g2256
sg56
(lp2326
g49
(g70
g51
NtRp2327
(dp2328
g54
(dp2329
g74
g75
ssg63
g2323
sg56
(lp2330
S'HTTP_ACCEPT_LANGUAGE'
p2331
asbag49
(g70
g51
NtRp2332
(dp2333
g54
(dp2334
g81
g82
ssg63
g2323
sg56
(lp2335
S':'
asbag49
(g70
g51
NtRp2336
(dp2337
g54
(dp2338
sg63
g2323
sg56
(lp2339
g49
(g50
g51
NtRp2340
(dp2341
g54
(dp2342
g62
I3
ssg63
g2336
sg56
(lp2343
g835
asbasbasbag49
(g65
g51
NtRp2344
(dp2345
g54
(dp2346
sg63
g2256
sg56
(lp2347
g49
(g70
g51
NtRp2348
(dp2349
g54
(dp2350
g74
g75
ssg63
g2344
sg56
(lp2351
S'HTTP_CACHE_CONTROL'
p2352
asbag49
(g70
g51
NtRp2353
(dp2354
g54
(dp2355
g81
g82
ssg63
g2344
sg56
(lp2356
S':'
asbag49
(g70
g51
NtRp2357
(dp2358
g54
(dp2359
sg63
g2344
sg56
(lp2360
g49
(g50
g51
NtRp2361
(dp2362
g54
(dp2363
g62
I3
ssg63
g2357
sg56
(lp2364
g857
asbasbasbag49
(g65
g51
NtRp2365
(dp2366
g54
(dp2367
sg63
g2256
sg56
(lp2368
g49
(g70
g51
NtRp2369
(dp2370
g54
(dp2371
g74
g75
ssg63
g2365
sg56
(lp2372
S'HTTP_CONNECTION'
p2373
asbag49
(g70
g51
NtRp2374
(dp2375
g54
(dp2376
g81
g82
ssg63
g2365
sg56
(lp2377
S':'
asbag49
(g70
g51
NtRp2378
(dp2379
g54
(dp2380
sg63
g2365
sg56
(lp2381
g49
(g50
g51
NtRp2382
(dp2383
g54
(dp2384
g62
I3
ssg63
g2378
sg56
(lp2385
g879
asbasbasbag49
(g65
g51
NtRp2386
(dp2387
g54
(dp2388
sg63
g2256
sg56
(lp2389
g49
(g70
g51
NtRp2390
(dp2391
g54
(dp2392
g74
g75
ssg63
g2386
sg56
(lp2393
S'HTTP_COOKIE'
p2394
asbag49
(g70
g51
NtRp2395
(dp2396
g54
(dp2397
g81
g82
ssg63
g2386
sg56
(lp2398
S':'
asbag49
(g70
g51
NtRp2399
(dp2400
g54
(dp2401
sg63
g2386
sg56
(lp2402
g49
(g50
g51
NtRp2403
(dp2404
g54
(dp2405
g62
I3
ssg63
g2399
sg56
(lp2406
g901
asbasbasbag49
(g65
g51
NtRp2407
(dp2408
g54
(dp2409
sg63
g2256
sg56
(lp2410
g49
(g70
g51
NtRp2411
(dp2412
g54
(dp2413
g74
g75
ssg63
g2407
sg56
(lp2414
S'HTTP_HOST'
p2415
asbag49
(g70
g51
NtRp2416
(dp2417
g54
(dp2418
g81
g82
ssg63
g2407
sg56
(lp2419
S':'
asbag49
(g70
g51
NtRp2420
(dp2421
g54
(dp2422
sg63
g2407
sg56
(lp2423
g49
(g50
g51
NtRp2424
(dp2425
g54
(dp2426
g62
I3
ssg63
g2420
sg56
(lp2427
g923
asbasbasbag49
(g65
g51
NtRp2428
(dp2429
g54
(dp2430
sg63
g2256
sg56
(lp2431
g49
(g70
g51
NtRp2432
(dp2433
g54
(dp2434
g74
g75
ssg63
g2428
sg56
(lp2435
S'HTTP_REFERER'
p2436
asbag49
(g70
g51
NtRp2437
(dp2438
g54
(dp2439
g81
g82
ssg63
g2428
sg56
(lp2440
S':'
asbag49
(g70
g51
NtRp2441
(dp2442
g54
(dp2443
sg63
g2428
sg56
(lp2444
g49
(g50
g51
NtRp2445
(dp2446
g54
(dp2447
g62
I3
ssg63
g2441
sg56
(lp2448
g945
asbasbasbag49
(g65
g51
NtRp2449
(dp2450
g54
(dp2451
sg63
g2256
sg56
(lp2452
g49
(g70
g51
NtRp2453
(dp2454
g54
(dp2455
g74
g75
ssg63
g2449
sg56
(lp2456
S'HTTP_USER_AGENT'
p2457
asbag49
(g70
g51
NtRp2458
(dp2459
g54
(dp2460
g81
g82
ssg63
g2449
sg56
(lp2461
S':'
asbag49
(g70
g51
NtRp2462
(dp2463
g54
(dp2464
sg63
g2449
sg56
(lp2465
g49
(g50
g51
NtRp2466
(dp2467
g54
(dp2468
g62
I3
ssg63
g2462
sg56
(lp2469
g967
asbasbasbag49
(g65
g51
NtRp2470
(dp2471
g54
(dp2472
sg63
g2256
sg56
(lp2473
g49
(g70
g51
NtRp2474
(dp2475
g54
(dp2476
g74
g75
ssg63
g2470
sg56
(lp2477
S'PATH_INFO'
p2478
asbag49
(g70
g51
NtRp2479
(dp2480
g54
(dp2481
g81
g82
ssg63
g2470
sg56
(lp2482
S':'
asbag49
(g70
g51
NtRp2483
(dp2484
g54
(dp2485
sg63
g2470
sg56
(lp2486
g49
(g50
g51
NtRp2487
(dp2488
g54
(dp2489
g62
I3
ssg63
g2483
sg56
(lp2490
S'/'
asbasbasbag49
(g65
g51
NtRp2491
(dp2492
g54
(dp2493
sg63
g2256
sg56
(lp2494
g49
(g70
g51
NtRp2495
(dp2496
g54
(dp2497
g74
g75
ssg63
g2491
sg56
(lp2498
S'QUERY_STRING'
p2499
asbag49
(g70
g51
NtRp2500
(dp2501
g54
(dp2502
g81
g82
ssg63
g2491
sg56
(lp2503
S':'
asbag49
(g70
g51
NtRp2504
(dp2505
g54
(dp2506
sg63
g2491
sg56
(lp2507
g49
(g50
g51
NtRp2508
(dp2509
g54
(dp2510
g62
I3
ssg63
g2504
sg56
(lp2511
S''
asbasbasbag49
(g65
g51
NtRp2512
(dp2513
g54
(dp2514
sg63
g2256
sg56
(lp2515
g49
(g70
g51
NtRp2516
(dp2517
g54
(dp2518
g74
g75
ssg63
g2512
sg56
(lp2519
S'REMOTE_ADDR'
p2520
asbag49
(g70
g51
NtRp2521
(dp2522
g54
(dp2523
g81
g82
ssg63
g2512
sg56
(lp2524
S':'
asbag49
(g70
g51
NtRp2525
(dp2526
g54
(dp2527
sg63
g2512
sg56
(lp2528
g49
(g50
g51
NtRp2529
(dp2530
g54
(dp2531
g62
I3
ssg63
g2525
sg56
(lp2532
g182
asbasbasbag49
(g65
g51
NtRp2533
(dp2534
g54
(dp2535
sg63
g2256
sg56
(lp2536
g49
(g70
g51
NtRp2537
(dp2538
g54
(dp2539
g74
g75
ssg63
g2533
sg56
(lp2540
S'REMOTE_PORT'
p2541
asbag49
(g70
g51
NtRp2542
(dp2543
g54
(dp2544
g81
g82
ssg63
g2533
sg56
(lp2545
S':'
asbag49
(g70
g51
NtRp2546
(dp2547
g54
(dp2548
sg63
g2533
sg56
(lp2549
g49
(g50
g51
NtRp2550
(dp2551
g54
(dp2552
g62
I3
ssg63
g2546
sg56
(lp2553
g1094
asbasbasbag49
(g65
g51
NtRp2554
(dp2555
g54
(dp2556
sg63
g2256
sg56
(lp2557
g49
(g70
g51
NtRp2558
(dp2559
g54
(dp2560
g74
g75
ssg63
g2554
sg56
(lp2561
S'REQUEST_METHOD'
p2562
asbag49
(g70
g51
NtRp2563
(dp2564
g54
(dp2565
g81
g82
ssg63
g2554
sg56
(lp2566
S':'
asbag49
(g70
g51
NtRp2567
(dp2568
g54
(dp2569
sg63
g2554
sg56
(lp2570
g49
(g50
g51
NtRp2571
(dp2572
g54
(dp2573
g62
I3
ssg63
g2567
sg56
(lp2574
g1116
asbasbasbag49
(g65
g51
NtRp2575
(dp2576
g54
(dp2577
sg63
g2256
sg56
(lp2578
g49
(g70
g51
NtRp2579
(dp2580
g54
(dp2581
g74
g75
ssg63
g2575
sg56
(lp2582
S'REQUEST_URI'
p2583
asbag49
(g70
g51
NtRp2584
(dp2585
g54
(dp2586
g81
g82
ssg63
g2575
sg56
(lp2587
S':'
asbag49
(g70
g51
NtRp2588
(dp2589
g54
(dp2590
sg63
g2575
sg56
(lp2591
g49
(g50
g51
NtRp2592
(dp2593
g54
(dp2594
g62
I3
ssg63
g2588
sg56
(lp2595
S'/'
asbasbasbag49
(g65
g51
NtRp2596
(dp2597
g54
(dp2598
sg63
g2256
sg56
(lp2599
g49
(g70
g51
NtRp2600
(dp2601
g54
(dp2602
g74
g75
ssg63
g2596
sg56
(lp2603
S'SCRIPT_NAME'
p2604
asbag49
(g70
g51
NtRp2605
(dp2606
g54
(dp2607
g81
g82
ssg63
g2596
sg56
(lp2608
S':'
asbag49
(g70
g51
NtRp2609
(dp2610
g54
(dp2611
sg63
g2596
sg56
(lp2612
g49
(g50
g51
NtRp2613
(dp2614
g54
(dp2615
g62
I3
ssg63
g2609
sg56
(lp2616
S''
asbasbasbag49
(g65
g51
NtRp2617
(dp2618
g54
(dp2619
sg63
g2256
sg56
(lp2620
g49
(g70
g51
NtRp2621
(dp2622
g54
(dp2623
g74
g75
ssg63
g2617
sg56
(lp2624
S'SERVER_NAME'
p2625
asbag49
(g70
g51
NtRp2626
(dp2627
g54
(dp2628
g81
g82
ssg63
g2617
sg56
(lp2629
S':'
asbag49
(g70
g51
NtRp2630
(dp2631
g54
(dp2632
sg63
g2617
sg56
(lp2633
g49
(g50
g51
NtRp2634
(dp2635
g54
(dp2636
g62
I3
ssg63
g2630
sg56
(lp2637
g1180
asbasbasbag49
(g65
g51
NtRp2638
(dp2639
g54
(dp2640
sg63
g2256
sg56
(lp2641
g49
(g70
g51
NtRp2642
(dp2643
g54
(dp2644
g74
g75
ssg63
g2638
sg56
(lp2645
S'SERVER_PORT'
p2646
asbag49
(g70
g51
NtRp2647
(dp2648
g54
(dp2649
g81
g82
ssg63
g2638
sg56
(lp2650
S':'
asbag49
(g70
g51
NtRp2651
(dp2652
g54
(dp2653
sg63
g2638
sg56
(lp2654
g49
(g50
g51
NtRp2655
(dp2656
g54
(dp2657
g62
I3
ssg63
g2651
sg56
(lp2658
g1202
asbasbasbag49
(g65
g51
NtRp2659
(dp2660
g54
(dp2661
sg63
g2256
sg56
(lp2662
g49
(g70
g51
NtRp2663
(dp2664
g54
(dp2665
g74
g75
ssg63
g2659
sg56
(lp2666
S'SERVER_PROTOCOL'
p2667
asbag49
(g70
g51
NtRp2668
(dp2669
g54
(dp2670
g81
g82
ssg63
g2659
sg56
(lp2671
S':'
asbag49
(g70
g51
NtRp2672
(dp2673
g54
(dp2674
sg63
g2659
sg56
(lp2675
g49
(g50
g51
NtRp2676
(dp2677
g54
(dp2678
g62
I3
ssg63
g2672
sg56
(lp2679
g1224
asbasbasbag49
(g65
g51
NtRp2680
(dp2681
g54
(dp2682
sg63
g2256
sg56
(lp2683
g49
(g70
g51
NtRp2684
(dp2685
g54
(dp2686
g74
g75
ssg63
g2680
sg56
(lp2687
S'SERVER_SOFTWARE'
p2688
asbag49
(g70
g51
NtRp2689
(dp2690
g54
(dp2691
g81
g82
ssg63
g2680
sg56
(lp2692
S':'
asbag49
(g70
g51
NtRp2693
(dp2694
g54
(dp2695
sg63
g2680
sg56
(lp2696
g49
(g50
g51
NtRp2697
(dp2698
g54
(dp2699
g62
I3
ssg63
g2693
sg56
(lp2700
g1246
asbasbasbag49
(g65
g51
NtRp2701
(dp2702
g54
(dp2703
sg63
g2256
sg56
(lp2704
g49
(g70
g51
NtRp2705
(dp2706
g54
(dp2707
g74
g75
ssg63
g2701
sg56
(lp2708
S'WEB2PY_ORIGINAL_URI'
p2709
asbag49
(g70
g51
NtRp2710
(dp2711
g54
(dp2712
g81
g82
ssg63
g2701
sg56
(lp2713
S':'
asbag49
(g70
g51
NtRp2714
(dp2715
g54
(dp2716
sg63
g2701
sg56
(lp2717
g49
(g50
g51
NtRp2718
(dp2719
g54
(dp2720
g62
I3
ssg63
g2714
sg56
(lp2721
S'/'
asbasbasbag49
(g65
g51
NtRp2722
(dp2723
g54
(dp2724
sg63
g2256
sg56
(lp2725
g49
(g70
g51
NtRp2726
(dp2727
g54
(dp2728
g74
g75
ssg63
g2722
sg56
(lp2729
S'wsgi.errors'
p2730
asbag49
(g70
g51
NtRp2731
(dp2732
g54
(dp2733
g81
g82
ssg63
g2722
sg56
(lp2734
S':'
asbag49
(g70
g51
NtRp2735
(dp2736
g54
(dp2737
sg63
g2722
sg56
(lp2738
g49
(g50
g51
NtRp2739
(dp2740
g54
(dp2741
g62
I3
ssg63
g2735
sg56
(lp2742
S"<open file '<stderr>', mode 'w' at 0x4220b0>"
p2743
asbasbasbag49
(g65
g51
NtRp2744
(dp2745
g54
(dp2746
sg63
g2256
sg56
(lp2747
g49
(g70
g51
NtRp2748
(dp2749
g54
(dp2750
g74
g75
ssg63
g2744
sg56
(lp2751
S'wsgi.file_wrapper'
p2752
asbag49
(g70
g51
NtRp2753
(dp2754
g54
(dp2755
g81
g82
ssg63
g2744
sg56
(lp2756
S':'
asbag49
(g70
g51
NtRp2757
(dp2758
g54
(dp2759
sg63
g2744
sg56
(lp2760
g49
(g50
g51
NtRp2761
(dp2762
g54
(dp2763
g62
I3
ssg63
g2757
sg56
(lp2764
S'<class wsgiref.util.FileWrapper at 0x225e6c0>'
p2765
asbasbasbag49
(g65
g51
NtRp2766
(dp2767
g54
(dp2768
sg63
g2256
sg56
(lp2769
g49
(g70
g51
NtRp2770
(dp2771
g54
(dp2772
g74
g75
ssg63
g2766
sg56
(lp2773
S'wsgi.input'
p2774
asbag49
(g70
g51
NtRp2775
(dp2776
g54
(dp2777
g81
g82
ssg63
g2766
sg56
(lp2778
S':'
asbag49
(g70
g51
NtRp2779
(dp2780
g54
(dp2781
sg63
g2766
sg56
(lp2782
g49
(g50
g51
NtRp2783
(dp2784
g54
(dp2785
g62
I3
ssg63
g2779
sg56
(lp2786
S'<cStringIO.StringO object at 0xa5843a0>'
p2787
asbasbasbag49
(g65
g51
NtRp2788
(dp2789
g54
(dp2790
sg63
g2256
sg56
(lp2791
g49
(g70
g51
NtRp2792
(dp2793
g54
(dp2794
g74
g75
ssg63
g2788
sg56
(lp2795
S'wsgi.multiprocess'
p2796
asbag49
(g70
g51
NtRp2797
(dp2798
g54
(dp2799
g81
g82
ssg63
g2788
sg56
(lp2800
S':'
asbag49
(g70
g51
NtRp2801
(dp2802
g54
(dp2803
sg63
g2788
sg56
(lp2804
g49
(g50
g51
NtRp2805
(dp2806
g54
(dp2807
g62
I3
ssg63
g2801
sg56
(lp2808
g92
asbasbasbag49
(g65
g51
NtRp2809
(dp2810
g54
(dp2811
sg63
g2256
sg56
(lp2812
g49
(g70
g51
NtRp2813
(dp2814
g54
(dp2815
g74
g75
ssg63
g2809
sg56
(lp2816
S'wsgi.multithread'
p2817
asbag49
(g70
g51
NtRp2818
(dp2819
g54
(dp2820
g81
g82
ssg63
g2809
sg56
(lp2821
S':'
asbag49
(g70
g51
NtRp2822
(dp2823
g54
(dp2824
sg63
g2809
sg56
(lp2825
g49
(g50
g51
NtRp2826
(dp2827
g54
(dp2828
g62
I3
ssg63
g2822
sg56
(lp2829
g1507
asbasbasbag49
(g65
g51
NtRp2830
(dp2831
g54
(dp2832
sg63
g2256
sg56
(lp2833
g49
(g70
g51
NtRp2834
(dp2835
g54
(dp2836
g74
g75
ssg63
g2830
sg56
(lp2837
S'wsgi.run_once'
p2838
asbag49
(g70
g51
NtRp2839
(dp2840
g54
(dp2841
g81
g82
ssg63
g2830
sg56
(lp2842
S':'
asbag49
(g70
g51
NtRp2843
(dp2844
g54
(dp2845
sg63
g2830
sg56
(lp2846
g49
(g50
g51
NtRp2847
(dp2848
g54
(dp2849
g62
I3
ssg63
g2843
sg56
(lp2850
g92
asbasbasbag49
(g65
g51
NtRp2851
(dp2852
g54
(dp2853
sg63
g2256
sg56
(lp2854
g49
(g70
g51
NtRp2855
(dp2856
g54
(dp2857
g74
g75
ssg63
g2851
sg56
(lp2858
S'wsgi.url_scheme'
p2859
asbag49
(g70
g51
NtRp2860
(dp2861
g54
(dp2862
g81
g82
ssg63
g2851
sg56
(lp2863
S':'
asbag49
(g70
g51
NtRp2864
(dp2865
g54
(dp2866
sg63
g2851
sg56
(lp2867
g49
(g50
g51
NtRp2868
(dp2869
g54
(dp2870
g62
I3
ssg63
g2864
sg56
(lp2871
g1550
asbasbasbag49
(g65
g51
NtRp2872
(dp2873
g54
(dp2874
sg63
g2256
sg56
(lp2875
g49
(g70
g51
NtRp2876
(dp2877
g54
(dp2878
g74
g75
ssg63
g2872
sg56
(lp2879
S'wsgi.version'
p2880
asbag49
(g70
g51
NtRp2881
(dp2882
g54
(dp2883
g81
g82
ssg63
g2872
sg56
(lp2884
S':'
asbag49
(g70
g51
NtRp2885
(dp2886
g54
(dp2887
sg63
g2872
sg56
(lp2888
g49
(g50
g51
NtRp2889
(dp2890
g54
(dp2891
g62
I3
ssg63
g2885
sg56
(lp2892
S'1'
asbasbasbasbasbasbasbasbasbasbasbasbasbsS'frames'
p2893
(lp2894
(dp2895
S'file'
p2896
S'/users/udimilo/Documents/web2py/gluon/restricted.py'
p2897
sS'dump'
p2898
(dp2899
S'environment'
p2900
S"{'A': <class 'gluon.html.A'>, 'Auth': <class 'gluon.tools.Auth'>, 'B': <class 'gluon.html.B'>, 'BEAUTIFY': <class 'gluon.html.BEAUTIFY'>, 'BODY': <class 'gluon.html.BODY'>, 'BR': <class 'gluon.html.BR'>, 'BUTTON': <class 'gluon.html.BUTTON'>, 'CAT': <class 'gluon.html.CAT'>, 'CENTER': <class 'gluon.html.CENTER'>, 'CLEANUP': <class 'gluon.validators.CLEANUP'>, ...}"
p2901
sS'ccode'
p2902
S'<code object <module> at 0xa5be5c0, file "/Users...ications/udi0312/controllers/default.py", line 2>'
p2903
ssS'lnum'
p2904
I205
sS'lines'
p2905
(dp2906
I200
S'    try:'
p2907
sI201
S'        if type(code) == types.CodeType:'
p2908
sI202
S'            ccode = code'
p2909
sI203
S'        else:'
p2910
sI204
S'            ccode = compile2(code,layer)'
p2911
sI205
S'        exec ccode in environment'
p2912
sI206
S'    except HTTP:'
p2913
sI207
S'        raise'
p2914
sI208
S'    except RestrictedError:'
p2915
sI209
S'        # do not encapsulate (obfuscate) the original RestrictedError'
p2916
ssS'call'
p2917
S"(code='# -*- coding: utf-8 -*-\\nfrom readability import ...=crud())\\n\\nresponse._vars=response._caller(index)\\n', environment={'A': <class 'gluon.html.A'>, 'Auth': <class 'gluon.tools.Auth'>, 'B': <class 'gluon.html.B'>, 'BEAUTIFY': <class 'gluon.html.BEAUTIFY'>, 'BODY': <class 'gluon.html.BODY'>, 'BR': <class 'gluon.html.BR'>, 'BUTTON': <class 'gluon.html.BUTTON'>, 'CAT': <class 'gluon.html.CAT'>, 'CENTER': <class 'gluon.html.CENTER'>, 'CLEANUP': <class 'gluon.validators.CLEANUP'>, ...}, layer='/Users/udimilo/Documents/web2py/applications/udi0312/controllers/default.py')"
p2918
sS'func'
p2919
S'restricted'
p2920
sa(dp2921
g2896
S'/Users/udimilo/Documents/web2py/applications/udi0312/controllers/default.py'
p2922
sg2898
(dp2923
sg2904
I150
sg2905
(dp2924
I139
S'    http://..../[app]/default/data/update/[table]/[id]'
p2925
sI140
S'    http://..../[app]/default/data/delete/[table]/[id]'
p2926
sI141
S'    http://..../[app]/default/data/select/[table]'
p2927
sI142
S'    http://..../[app]/default/data/search/[table]'
p2928
sI143
S'    but URLs must be signed, i.e. linked with'
p2929
sI144
S"      A('table',_href=URL('data/tables',user_signature=True))"
p2930
sI145
S'    or with the signed load operator'
p2931
sI146
S"      LOAD('default','data.load',args='tables',ajax=True,user_signature=True)"
p2932
sI147
S'    """'
p2933
sI148
S'    return dict(form=crud())'
p2934
ssg2917
S'()'
p2935
sg2919
S'<module>'
p2936
sa(dp2937
g2896
S'/users/udimilo/Documents/web2py/gluon/globals.py'
p2938
sg2898
(dp2939
S'self'
p2940
S'undefined'
p2941
sS'f'
S'<function index at 0xa0ea530>'
p2942
ssg2904
I173
sg2905
(dp2943
I168
S'        self.menu = []             # used by the default view layout'
p2944
sI169
S'        self.files = []            # used by web2py_ajax.html'
p2945
sI170
S'        self.generic_patterns = [] # patterns to allow generic views'
p2946
sI171
S"        self.delimiters = ('{{','}}')"
p2947
sI172
S'        self._vars = None'
p2948
sI173
S'        self._caller = lambda f: f()'
p2949
sI174
S'        self._view_environment = None'
p2950
sI175
S'        self._custom_commit = None'
p2951
sI176
S'        self._custom_rollback = None'
p2952
sI177
S''
ssg2917
S'(f=<function index at 0xa0ea530>)'
p2953
sg2919
S'<lambda>'
p2954
sa(dp2955
g2896
S'/Users/udimilo/Documents/web2py/applications/udi0312/controllers/default.py'
p2956
sg2898
(dp2957
S'pins'
p2958
g2941
sS'auth.user'
p2959
S"<Storage {'first_name': 'Udi', 'last_name': 'Mil...stration_key': '', 'email': 'udimilo@gmail.com'}>"
p2960
sS'global get_pins'
p2961
S'<function get_pins at 0xa0ea370>'
p2962
sS'global auth'
p2963
S'<gluon.tools.Auth object at 0xa1ed490>'
p2964
ssg2904
I22
sg2905
(dp2965
I17
S'    boards = db(db.board.user==auth.user.id).select() if auth.user else []'
p2966
sI18
S''
sI19
S'    if auth.user is None:'
p2967
sI20
S'        pins = db().select(db.pin.ALL, orderby=~db.pin.created_on)'
p2968
sI21
S'    else:'
p2969
sI22
S'        pins = get_pins(auth.user)'
p2970
sI23
S''
sI24
S'    return dict(pins=pins, categories=categories, boards=boards, show_pinner=True)'
p2971
sI25
S''
sI26
S'def all():'
p2972
ssg2917
S'()'
p2973
sg2919
g1665
sa(dp2974
g2896
S'/Users/udimilo/Documents/web2py/applications/udi0312/controllers/default.py'
p2975
sg2898
(dp2976
S'user.boards'
p2977
S'None'
p2978
sS'boards'
p2979
g2941
sS'user.boards.select'
p2980
g2941
sS'user'
p2981
S"<Storage {'first_name': 'Udi', 'last_name': 'Mil...stration_key': '', 'email': 'udimilo@gmail.com'}>"
p2982
ssg2904
I8
sg2905
(dp2983
I3
S'import feedparser'
p2984
sI4
S'import urlparse'
p2985
sI5
S'import re'
p2986
sI6
S''
sI7
S'def get_pins(user):'
p2987
sI8
S'    boards = user.boards.select()'
p2988
sI9
S'    pins = []'
p2989
sI10
S'    for board in boards:'
p2990
sI11
S'        pins.extend(board.pin.select())'
p2991
sI12
S''
ssg2917
S"(user=<Storage {'first_name': 'Udi', 'last_name': 'Mil...stration_key': '', 'email': 'udimilo@gmail.com'}>)"
p2992
sg2919
S'get_pins'
p2993
sasS'pyver'
p2994
S'Python 2.5.4: /Library/Frameworks/Python.framework/Versions/2.5/Resources/Python.app/Contents/MacOS/Python'
p2995
sS'session'
p2996
g49
(g50
g51
NtRp2997
(dp2998
g54
(dp2999
sg56
(lp3000
g49
(g58
g51
NtRp3001
(dp3002
g54
(dp3003
g62
I5
ssg63
Nsg56
(lp3004
g49
(g65
g51
NtRp3005
(dp3006
g54
(dp3007
sg63
g3001
sg56
(lp3008
g49
(g70
g51
NtRp3009
(dp3010
g54
(dp3011
g74
g75
ssg63
g3005
sg56
(lp3012
S'auth'
p3013
asbag49
(g70
g51
NtRp3014
(dp3015
g54
(dp3016
g81
g82
ssg63
g3005
sg56
(lp3017
S':'
asbag49
(g70
g51
NtRp3018
(dp3019
g54
(dp3020
sg63
g3005
sg56
(lp3021
g49
(g50
g51
NtRp3022
(dp3023
g54
(dp3024
g62
I5
ssg63
g3018
sg56
(lp3025
g49
(g58
g51
NtRp3026
(dp3027
g54
(dp3028
g62
I4
ssg63
Nsg56
(lp3029
g49
(g65
g51
NtRp3030
(dp3031
g54
(dp3032
sg63
g3026
sg56
(lp3033
g49
(g70
g51
NtRp3034
(dp3035
g54
(dp3036
g74
g75
ssg63
g3030
sg56
(lp3037
S'expiration'
p3038
asbag49
(g70
g51
NtRp3039
(dp3040
g54
(dp3041
g81
g82
ssg63
g3030
sg56
(lp3042
S':'
asbag49
(g70
g51
NtRp3043
(dp3044
g54
(dp3045
sg63
g3030
sg56
(lp3046
g49
(g50
g51
NtRp3047
(dp3048
g54
(dp3049
g62
I4
ssg63
g3043
sg56
(lp3050
S'2592000'
p3051
asbasbasbag49
(g65
g51
NtRp3052
(dp3053
g54
(dp3054
sg63
g3026
sg56
(lp3055
g49
(g70
g51
NtRp3056
(dp3057
g54
(dp3058
g74
g75
ssg63
g3052
sg56
(lp3059
S'hmac_key'
p3060
asbag49
(g70
g51
NtRp3061
(dp3062
g54
(dp3063
g81
g82
ssg63
g3052
sg56
(lp3064
S':'
asbag49
(g70
g51
NtRp3065
(dp3066
g54
(dp3067
sg63
g3052
sg56
(lp3068
g49
(g50
g51
NtRp3069
(dp3070
g54
(dp3071
g62
I4
ssg63
g3065
sg56
(lp3072
S'766b38e0-1390-4bb6-959c-2584d31c185e'
p3073
asbasbasbag49
(g65
g51
NtRp3074
(dp3075
g54
(dp3076
sg63
g3026
sg56
(lp3077
g49
(g70
g51
NtRp3078
(dp3079
g54
(dp3080
g74
g75
ssg63
g3074
sg56
(lp3081
S'last_visit'
p3082
asbag49
(g70
g51
NtRp3083
(dp3084
g54
(dp3085
g81
g82
ssg63
g3074
sg56
(lp3086
S':'
asbag49
(g70
g51
NtRp3087
(dp3088
g54
(dp3089
sg63
g3074
sg56
(lp3090
g49
(g50
g51
NtRp3091
(dp3092
g54
(dp3093
g62
I4
ssg63
g3087
sg56
(lp3094
S'datetime.datetime(2012, 3, 17, 1, 28, 15, 727556)'
p3095
asbasbasbag49
(g65
g51
NtRp3096
(dp3097
g54
(dp3098
sg63
g3026
sg56
(lp3099
g49
(g70
g51
NtRp3100
(dp3101
g54
(dp3102
g74
g75
ssg63
g3096
sg56
(lp3103
S'remember'
p3104
asbag49
(g70
g51
NtRp3105
(dp3106
g54
(dp3107
g81
g82
ssg63
g3096
sg56
(lp3108
S':'
asbag49
(g70
g51
NtRp3109
(dp3110
g54
(dp3111
sg63
g3096
sg56
(lp3112
g49
(g50
g51
NtRp3113
(dp3114
g54
(dp3115
g62
I4
ssg63
g3109
sg56
(lp3116
g1507
asbasbasbag49
(g65
g51
NtRp3117
(dp3118
g54
(dp3119
sg63
g3026
sg56
(lp3120
g49
(g70
g51
NtRp3121
(dp3122
g54
(dp3123
g74
g75
ssg63
g3117
sg56
(lp3124
S'user'
p3125
asbag49
(g70
g51
NtRp3126
(dp3127
g54
(dp3128
g81
g82
ssg63
g3117
sg56
(lp3129
S':'
asbag49
(g70
g51
NtRp3130
(dp3131
g54
(dp3132
sg63
g3117
sg56
(lp3133
g49
(g50
g51
NtRp3134
(dp3135
g54
(dp3136
g62
I4
ssg63
g3130
sg56
(lp3137
g49
(g58
g51
NtRp3138
(dp3139
g54
(dp3140
g62
I3
ssg63
Nsg56
(lp3141
g49
(g65
g51
NtRp3142
(dp3143
g54
(dp3144
sg63
g3138
sg56
(lp3145
g49
(g70
g51
NtRp3146
(dp3147
g54
(dp3148
g74
g75
ssg63
g3142
sg56
(lp3149
S'email'
p3150
asbag49
(g70
g51
NtRp3151
(dp3152
g54
(dp3153
g81
g82
ssg63
g3142
sg56
(lp3154
S':'
asbag49
(g70
g51
NtRp3155
(dp3156
g54
(dp3157
sg63
g3142
sg56
(lp3158
g49
(g50
g51
NtRp3159
(dp3160
g54
(dp3161
g62
I3
ssg63
g3155
sg56
(lp3162
S'udimilo@gmail.com'
p3163
asbasbasbag49
(g65
g51
NtRp3164
(dp3165
g54
(dp3166
sg63
g3138
sg56
(lp3167
g49
(g70
g51
NtRp3168
(dp3169
g54
(dp3170
g74
g75
ssg63
g3164
sg56
(lp3171
S'first_name'
p3172
asbag49
(g70
g51
NtRp3173
(dp3174
g54
(dp3175
g81
g82
ssg63
g3164
sg56
(lp3176
S':'
asbag49
(g70
g51
NtRp3177
(dp3178
g54
(dp3179
sg63
g3164
sg56
(lp3180
g49
(g50
g51
NtRp3181
(dp3182
g54
(dp3183
g62
I3
ssg63
g3177
sg56
(lp3184
S'Udi'
p3185
asbasbasbag49
(g65
g51
NtRp3186
(dp3187
g54
(dp3188
sg63
g3138
sg56
(lp3189
g49
(g70
g51
NtRp3190
(dp3191
g54
(dp3192
g74
g75
ssg63
g3186
sg56
(lp3193
S'id'
p3194
asbag49
(g70
g51
NtRp3195
(dp3196
g54
(dp3197
g81
g82
ssg63
g3186
sg56
(lp3198
S':'
asbag49
(g70
g51
NtRp3199
(dp3200
g54
(dp3201
sg63
g3186
sg56
(lp3202
g49
(g50
g51
NtRp3203
(dp3204
g54
(dp3205
g62
I3
ssg63
g3199
sg56
(lp3206
S'1'
asbasbasbag49
(g65
g51
NtRp3207
(dp3208
g54
(dp3209
sg63
g3138
sg56
(lp3210
g49
(g70
g51
NtRp3211
(dp3212
g54
(dp3213
g74
g75
ssg63
g3207
sg56
(lp3214
S'last_name'
p3215
asbag49
(g70
g51
NtRp3216
(dp3217
g54
(dp3218
g81
g82
ssg63
g3207
sg56
(lp3219
S':'
asbag49
(g70
g51
NtRp3220
(dp3221
g54
(dp3222
sg63
g3207
sg56
(lp3223
g49
(g50
g51
NtRp3224
(dp3225
g54
(dp3226
g62
I3
ssg63
g3220
sg56
(lp3227
S'Milo'
p3228
asbasbasbag49
(g65
g51
NtRp3229
(dp3230
g54
(dp3231
sg63
g3138
sg56
(lp3232
g49
(g70
g51
NtRp3233
(dp3234
g54
(dp3235
g74
g75
ssg63
g3229
sg56
(lp3236
S'password'
p3237
asbag49
(g70
g51
NtRp3238
(dp3239
g54
(dp3240
g81
g82
ssg63
g3229
sg56
(lp3241
S':'
asbag49
(g70
g51
NtRp3242
(dp3243
g54
(dp3244
sg63
g3229
sg56
(lp3245
g49
(g50
g51
NtRp3246
(dp3247
g54
(dp3248
g62
I3
ssg63
g3242
sg56
(lp3249
S'7a6e3c6a68ceed66634484a3f64a3468'
p3250
asbasbasbag49
(g65
g51
NtRp3251
(dp3252
g54
(dp3253
sg63
g3138
sg56
(lp3254
g49
(g70
g51
NtRp3255
(dp3256
g54
(dp3257
g74
g75
ssg63
g3251
sg56
(lp3258
S'registration_id'
p3259
asbag49
(g70
g51
NtRp3260
(dp3261
g54
(dp3262
g81
g82
ssg63
g3251
sg56
(lp3263
S':'
asbag49
(g70
g51
NtRp3264
(dp3265
g54
(dp3266
sg63
g3251
sg56
(lp3267
g49
(g50
g51
NtRp3268
(dp3269
g54
(dp3270
g62
I3
ssg63
g3264
sg56
(lp3271
S''
asbasbasbag49
(g65
g51
NtRp3272
(dp3273
g54
(dp3274
sg63
g3138
sg56
(lp3275
g49
(g70
g51
NtRp3276
(dp3277
g54
(dp3278
g74
g75
ssg63
g3272
sg56
(lp3279
S'registration_key'
p3280
asbag49
(g70
g51
NtRp3281
(dp3282
g54
(dp3283
g81
g82
ssg63
g3272
sg56
(lp3284
S':'
asbag49
(g70
g51
NtRp3285
(dp3286
g54
(dp3287
sg63
g3272
sg56
(lp3288
g49
(g50
g51
NtRp3289
(dp3290
g54
(dp3291
g62
I3
ssg63
g3285
sg56
(lp3292
S''
asbasbasbag49
(g65
g51
NtRp3293
(dp3294
g54
(dp3295
sg63
g3138
sg56
(lp3296
g49
(g70
g51
NtRp3297
(dp3298
g54
(dp3299
g74
g75
ssg63
g3293
sg56
(lp3300
S'reset_password_key'
p3301
asbag49
(g70
g51
NtRp3302
(dp3303
g54
(dp3304
g81
g82
ssg63
g3293
sg56
(lp3305
S':'
asbag49
(g70
g51
NtRp3306
(dp3307
g54
(dp3308
sg63
g3293
sg56
(lp3309
g49
(g50
g51
NtRp3310
(dp3311
g54
(dp3312
g62
I3
ssg63
g3306
sg56
(lp3313
S''
asbasbasbasbasbasbasbag49
(g65
g51
NtRp3314
(dp3315
g54
(dp3316
sg63
g3026
sg56
(lp3317
g49
(g70
g51
NtRp3318
(dp3319
g54
(dp3320
g74
g75
ssg63
g3314
sg56
(lp3321
S'user_groups'
p3322
asbag49
(g70
g51
NtRp3323
(dp3324
g54
(dp3325
g81
g82
ssg63
g3314
sg56
(lp3326
S':'
asbag49
(g70
g51
NtRp3327
(dp3328
g54
(dp3329
sg63
g3314
sg56
(lp3330
g49
(g50
g51
NtRp3331
(dp3332
g54
(dp3333
g62
I4
ssg63
g3327
sg56
(lp3334
g49
(g58
g51
NtRp3335
(dp3336
g54
(dp3337
g62
I3
ssg63
Nsg56
(lp3338
g49
(g65
g51
NtRp3339
(dp3340
g54
(dp3341
sg63
g3335
sg56
(lp3342
g49
(g70
g51
NtRp3343
(dp3344
g54
(dp3345
g74
g75
ssg63
g3339
sg56
(lp3346
S'1'
asbag49
(g70
g51
NtRp3347
(dp3348
g54
(dp3349
g81
g82
ssg63
g3339
sg56
(lp3350
S':'
asbag49
(g70
g51
NtRp3351
(dp3352
g54
(dp3353
sg63
g3339
sg56
(lp3354
g49
(g50
g51
NtRp3355
(dp3356
g54
(dp3357
g62
I3
ssg63
g3351
sg56
(lp3358
S'user_1'
p3359
asbasbasbasbasbasbasbasbasbasbasbag49
(g65
g51
NtRp3360
(dp3361
g54
(dp3362
sg63
g3001
sg56
(lp3363
g49
(g70
g51
NtRp3364
(dp3365
g54
(dp3366
g74
g75
ssg63
g3360
sg56
(lp3367
S'last_query'
p3368
asbag49
(g70
g51
NtRp3369
(dp3370
g54
(dp3371
g81
g82
ssg63
g3360
sg56
(lp3372
S':'
asbag49
(g70
g51
NtRp3373
(dp3374
g54
(dp3375
sg63
g3360
sg56
(lp3376
g49
(g50
g51
NtRp3377
(dp3378
g54
(dp3379
g62
I5
ssg63
g3373
sg56
(lp3380
S'db.pin.id>0'
p3381
asbasbasbasbasbsS'etype'
p3382
S"<type 'exceptions.AttributeError'>"
p3383
sS'date'
p3384
S'Sun Mar 18 20:10:16 2012'
p3385
sS'response'
p3386
g49
(g50
g51
NtRp3387
(dp3388
g54
(dp3389
sg56
(lp3390
g49
(g58
g51
NtRp3391
(dp3392
g54
(dp3393
g62
I5
ssg63
Nsg56
(lp3394
g49
(g65
g51
NtRp3395
(dp3396
g54
(dp3397
sg63
g3391
sg56
(lp3398
g49
(g70
g51
NtRp3399
(dp3400
g54
(dp3401
g74
g75
ssg63
g3395
sg56
(lp3402
g147
asbag49
(g70
g51
NtRp3403
(dp3404
g54
(dp3405
g81
g82
ssg63
g3395
sg56
(lp3406
S':'
asbag49
(g70
g51
NtRp3407
(dp3408
g54
(dp3409
sg63
g3395
sg56
(lp3410
g49
(g50
g51
NtRp3411
(dp3412
g54
(dp3413
g62
I5
ssg63
g3407
sg56
(lp3414
S'<cStringIO.StringO object at 0xa5842e0>'
p3415
asbasbasbag49
(g65
g51
NtRp3416
(dp3417
g54
(dp3418
sg63
g3391
sg56
(lp3419
g49
(g70
g51
NtRp3420
(dp3421
g54
(dp3422
g74
g75
ssg63
g3416
sg56
(lp3423
g213
asbag49
(g70
g51
NtRp3424
(dp3425
g54
(dp3426
g81
g82
ssg63
g3416
sg56
(lp3427
S':'
asbag49
(g70
g51
NtRp3428
(dp3429
g54
(dp3430
sg63
g3416
sg56
(lp3431
g49
(g50
g51
NtRp3432
(dp3433
g54
(dp3434
g62
I5
ssg63
g3428
sg56
(lp3435
g49
(g58
g51
NtRp3436
(dp3437
g54
(dp3438
g62
I4
ssg63
Nsg56
(lp3439
g49
(g65
g51
NtRp3440
(dp3441
g54
(dp3442
sg63
g3436
sg56
(lp3443
g49
(g70
g51
NtRp3444
(dp3445
g54
(dp3446
g74
g75
ssg63
g3440
sg56
(lp3447
S'session_id_udi0312'
p3448
asbag49
(g70
g51
NtRp3449
(dp3450
g54
(dp3451
g81
g82
ssg63
g3440
sg56
(lp3452
S':'
asbag49
(g70
g51
NtRp3453
(dp3454
g54
(dp3455
sg63
g3440
sg56
(lp3456
g49
(g50
g51
NtRp3457
(dp3458
g54
(dp3459
g62
I4
ssg63
g3453
sg56
(lp3460
g49
(g58
g51
NtRp3461
(dp3462
g54
(dp3463
g62
I3
ssg63
Nsg56
(lp3464
g49
(g65
g51
NtRp3465
(dp3466
g54
(dp3467
sg63
g3461
sg56
(lp3468
g49
(g70
g51
NtRp3469
(dp3470
g54
(dp3471
g74
g75
ssg63
g3465
sg56
(lp3472
g263
asbag49
(g70
g51
NtRp3473
(dp3474
g54
(dp3475
g81
g82
ssg63
g3465
sg56
(lp3476
S':'
asbag49
(g70
g51
NtRp3477
(dp3478
g54
(dp3479
sg63
g3465
sg56
(lp3480
g49
(g50
g51
NtRp3481
(dp3482
g54
(dp3483
g62
I3
ssg63
g3477
sg56
(lp3484
S''
asbasbasbag49
(g65
g51
NtRp3485
(dp3486
g54
(dp3487
sg63
g3461
sg56
(lp3488
g49
(g70
g51
NtRp3489
(dp3490
g54
(dp3491
g74
g75
ssg63
g3485
sg56
(lp3492
g284
asbag49
(g70
g51
NtRp3493
(dp3494
g54
(dp3495
g81
g82
ssg63
g3485
sg56
(lp3496
S':'
asbag49
(g70
g51
NtRp3497
(dp3498
g54
(dp3499
sg63
g3485
sg56
(lp3500
g49
(g50
g51
NtRp3501
(dp3502
g54
(dp3503
g62
I3
ssg63
g3497
sg56
(lp3504
S''
asbasbasbag49
(g65
g51
NtRp3505
(dp3506
g54
(dp3507
sg63
g3461
sg56
(lp3508
g49
(g70
g51
NtRp3509
(dp3510
g54
(dp3511
g74
g75
ssg63
g3505
sg56
(lp3512
g305
asbag49
(g70
g51
NtRp3513
(dp3514
g54
(dp3515
g81
g82
ssg63
g3505
sg56
(lp3516
S':'
asbag49
(g70
g51
NtRp3517
(dp3518
g54
(dp3519
sg63
g3505
sg56
(lp3520
g49
(g50
g51
NtRp3521
(dp3522
g54
(dp3523
g62
I3
ssg63
g3517
sg56
(lp3524
S'2592000'
p3525
asbasbasbag49
(g65
g51
NtRp3526
(dp3527
g54
(dp3528
sg63
g3461
sg56
(lp3529
g49
(g70
g51
NtRp3530
(dp3531
g54
(dp3532
g74
g75
ssg63
g3526
sg56
(lp3533
g326
asbag49
(g70
g51
NtRp3534
(dp3535
g54
(dp3536
g81
g82
ssg63
g3526
sg56
(lp3537
S':'
asbag49
(g70
g51
NtRp3538
(dp3539
g54
(dp3540
sg63
g3526
sg56
(lp3541
g49
(g50
g51
NtRp3542
(dp3543
g54
(dp3544
g62
I3
ssg63
g3538
sg56
(lp3545
S''
asbasbasbag49
(g65
g51
NtRp3546
(dp3547
g54
(dp3548
sg63
g3461
sg56
(lp3549
g49
(g70
g51
NtRp3550
(dp3551
g54
(dp3552
g74
g75
ssg63
g3546
sg56
(lp3553
g347
asbag49
(g70
g51
NtRp3554
(dp3555
g54
(dp3556
g81
g82
ssg63
g3546
sg56
(lp3557
S':'
asbag49
(g70
g51
NtRp3558
(dp3559
g54
(dp3560
sg63
g3546
sg56
(lp3561
g49
(g50
g51
NtRp3562
(dp3563
g54
(dp3564
g62
I3
ssg63
g3558
sg56
(lp3565
S'/'
asbasbasbag49
(g65
g51
NtRp3566
(dp3567
g54
(dp3568
sg63
g3461
sg56
(lp3569
g49
(g70
g51
NtRp3570
(dp3571
g54
(dp3572
g74
g75
ssg63
g3566
sg56
(lp3573
g368
asbag49
(g70
g51
NtRp3574
(dp3575
g54
(dp3576
g81
g82
ssg63
g3566
sg56
(lp3577
S':'
asbag49
(g70
g51
NtRp3578
(dp3579
g54
(dp3580
sg63
g3566
sg56
(lp3581
g49
(g50
g51
NtRp3582
(dp3583
g54
(dp3584
g62
I3
ssg63
g3578
sg56
(lp3585
S''
asbasbasbag49
(g65
g51
NtRp3586
(dp3587
g54
(dp3588
sg63
g3461
sg56
(lp3589
g49
(g70
g51
NtRp3590
(dp3591
g54
(dp3592
g74
g75
ssg63
g3586
sg56
(lp3593
g389
asbag49
(g70
g51
NtRp3594
(dp3595
g54
(dp3596
g81
g82
ssg63
g3586
sg56
(lp3597
S':'
asbag49
(g70
g51
NtRp3598
(dp3599
g54
(dp3600
sg63
g3586
sg56
(lp3601
g49
(g50
g51
NtRp3602
(dp3603
g54
(dp3604
g62
I3
ssg63
g3598
sg56
(lp3605
S''
asbasbasbasbasbasbasbasbasbasbasbag49
(g65
g51
NtRp3606
(dp3607
g54
(dp3608
sg63
g3391
sg56
(lp3609
g49
(g70
g51
NtRp3610
(dp3611
g54
(dp3612
g74
g75
ssg63
g3606
sg56
(lp3613
S'delimiters'
p3614
asbag49
(g70
g51
NtRp3615
(dp3616
g54
(dp3617
g81
g82
ssg63
g3606
sg56
(lp3618
S':'
asbag49
(g70
g51
NtRp3619
(dp3620
g54
(dp3621
sg63
g3606
sg56
(lp3622
g49
(g50
g51
NtRp3623
(dp3624
g54
(dp3625
g62
I5
ssg63
g3619
sg56
(lp3626
g49
(g58
g51
NtRp3627
(dp3628
g54
(dp3629
g62
I4
ssg63
Nsg56
(lp3630
g49
(g65
g51
NtRp3631
(dp3632
g54
(dp3633
sg63
g3627
sg56
(lp3634
g49
(g70
g51
NtRp3635
(dp3636
g54
(dp3637
sg63
g3631
sg56
(lp3638
g49
(g50
g51
NtRp3639
(dp3640
g54
(dp3641
g62
I4
ssg63
g3635
sg56
(lp3642
S'{{'
p3643
asbasbasbag49
(g65
g51
NtRp3644
(dp3645
g54
(dp3646
sg63
g3627
sg56
(lp3647
g49
(g70
g51
NtRp3648
(dp3649
g54
(dp3650
sg63
g3644
sg56
(lp3651
g49
(g50
g51
NtRp3652
(dp3653
g54
(dp3654
g62
I4
ssg63
g3648
sg56
(lp3655
S'}}'
p3656
asbasbasbasbasbasbasbag49
(g65
g51
NtRp3657
(dp3658
g54
(dp3659
sg63
g3391
sg56
(lp3660
g49
(g70
g51
NtRp3661
(dp3662
g54
(dp3663
g74
g75
ssg63
g3657
sg56
(lp3664
S'files'
p3665
asbag49
(g70
g51
NtRp3666
(dp3667
g54
(dp3668
g81
g82
ssg63
g3657
sg56
(lp3669
S':'
asbag49
(g70
g51
NtRp3670
(dp3671
g54
(dp3672
sg63
g3657
sg56
(lp3673
g49
(g50
g51
NtRp3674
(dp3675
g54
(dp3676
g62
I5
ssg63
g3670
sg56
(lp3677
g49
(g58
g51
NtRp3678
(dp3679
g54
(dp3680
g62
I4
ssg63
Nsg56
(lp3681
sbasbasbasbag49
(g65
g51
NtRp3682
(dp3683
g54
(dp3684
sg63
g3391
sg56
(lp3685
g49
(g70
g51
NtRp3686
(dp3687
g54
(dp3688
g74
g75
ssg63
g3682
sg56
(lp3689
S'flash'
p3690
asbag49
(g70
g51
NtRp3691
(dp3692
g54
(dp3693
g81
g82
ssg63
g3682
sg56
(lp3694
S':'
asbag49
(g70
g51
NtRp3695
(dp3696
g54
(dp3697
sg63
g3682
sg56
(lp3698
g49
(g50
g51
NtRp3699
(dp3700
g54
(dp3701
g62
I5
ssg63
g3695
sg56
(lp3702
S''
asbasbasbag49
(g65
g51
NtRp3703
(dp3704
g54
(dp3705
sg63
g3391
sg56
(lp3706
g49
(g70
g51
NtRp3707
(dp3708
g54
(dp3709
g74
g75
ssg63
g3703
sg56
(lp3710
S'generic_patterns'
p3711
asbag49
(g70
g51
NtRp3712
(dp3713
g54
(dp3714
g81
g82
ssg63
g3703
sg56
(lp3715
S':'
asbag49
(g70
g51
NtRp3716
(dp3717
g54
(dp3718
sg63
g3703
sg56
(lp3719
g49
(g50
g51
NtRp3720
(dp3721
g54
(dp3722
g62
I5
ssg63
g3716
sg56
(lp3723
g49
(g58
g51
NtRp3724
(dp3725
g54
(dp3726
g62
I4
ssg63
Nsg56
(lp3727
g49
(g65
g51
NtRp3728
(dp3729
g54
(dp3730
sg63
g3724
sg56
(lp3731
g49
(g70
g51
NtRp3732
(dp3733
g54
(dp3734
sg63
g3728
sg56
(lp3735
g49
(g50
g51
NtRp3736
(dp3737
g54
(dp3738
g62
I4
ssg63
g3732
sg56
(lp3739
S'*'
asbasbasbasbasbasbasbag49
(g65
g51
NtRp3740
(dp3741
g54
(dp3742
sg63
g3391
sg56
(lp3743
g49
(g70
g51
NtRp3744
(dp3745
g54
(dp3746
g74
g75
ssg63
g3740
sg56
(lp3747
S'headers'
p3748
asbag49
(g70
g51
NtRp3749
(dp3750
g54
(dp3751
g81
g82
ssg63
g3740
sg56
(lp3752
S':'
asbag49
(g70
g51
NtRp3753
(dp3754
g54
(dp3755
sg63
g3740
sg56
(lp3756
g49
(g50
g51
NtRp3757
(dp3758
g54
(dp3759
g62
I5
ssg63
g3753
sg56
(lp3760
g49
(g58
g51
NtRp3761
(dp3762
g54
(dp3763
g62
I4
ssg63
Nsg56
(lp3764
g49
(g65
g51
NtRp3765
(dp3766
g54
(dp3767
sg63
g3761
sg56
(lp3768
g49
(g70
g51
NtRp3769
(dp3770
g54
(dp3771
g74
g75
ssg63
g3765
sg56
(lp3772
S'Cache-Control'
p3773
asbag49
(g70
g51
NtRp3774
(dp3775
g54
(dp3776
g81
g82
ssg63
g3765
sg56
(lp3777
S':'
asbag49
(g70
g51
NtRp3778
(dp3779
g54
(dp3780
sg63
g3765
sg56
(lp3781
g49
(g50
g51
NtRp3782
(dp3783
g54
(dp3784
g62
I4
ssg63
g3778
sg56
(lp3785
S'no-store, no-cache, must-revalidate, post-check=0, pre-check=0'
p3786
asbasbasbag49
(g65
g51
NtRp3787
(dp3788
g54
(dp3789
sg63
g3761
sg56
(lp3790
g49
(g70
g51
NtRp3791
(dp3792
g54
(dp3793
g74
g75
ssg63
g3787
sg56
(lp3794
S'Content-Type'
p3795
asbag49
(g70
g51
NtRp3796
(dp3797
g54
(dp3798
g81
g82
ssg63
g3787
sg56
(lp3799
S':'
asbag49
(g70
g51
NtRp3800
(dp3801
g54
(dp3802
sg63
g3787
sg56
(lp3803
g49
(g50
g51
NtRp3804
(dp3805
g54
(dp3806
g62
I4
ssg63
g3800
sg56
(lp3807
S'text/html; charset=utf-8'
p3808
asbasbasbag49
(g65
g51
NtRp3809
(dp3810
g54
(dp3811
sg63
g3761
sg56
(lp3812
g49
(g70
g51
NtRp3813
(dp3814
g54
(dp3815
g74
g75
ssg63
g3809
sg56
(lp3816
S'Expires'
p3817
asbag49
(g70
g51
NtRp3818
(dp3819
g54
(dp3820
g81
g82
ssg63
g3809
sg56
(lp3821
S':'
asbag49
(g70
g51
NtRp3822
(dp3823
g54
(dp3824
sg63
g3809
sg56
(lp3825
g49
(g50
g51
NtRp3826
(dp3827
g54
(dp3828
g62
I4
ssg63
g3822
sg56
(lp3829
S'Mon, 19 Mar 2012 00:10:16 GMT'
p3830
asbasbasbag49
(g65
g51
NtRp3831
(dp3832
g54
(dp3833
sg63
g3761
sg56
(lp3834
g49
(g70
g51
NtRp3835
(dp3836
g54
(dp3837
g74
g75
ssg63
g3831
sg56
(lp3838
S'Pragma'
p3839
asbag49
(g70
g51
NtRp3840
(dp3841
g54
(dp3842
g81
g82
ssg63
g3831
sg56
(lp3843
S':'
asbag49
(g70
g51
NtRp3844
(dp3845
g54
(dp3846
sg63
g3831
sg56
(lp3847
g49
(g50
g51
NtRp3848
(dp3849
g54
(dp3850
g62
I4
ssg63
g3844
sg56
(lp3851
S'no-cache'
p3852
asbasbasbag49
(g65
g51
NtRp3853
(dp3854
g54
(dp3855
sg63
g3761
sg56
(lp3856
g49
(g70
g51
NtRp3857
(dp3858
g54
(dp3859
g74
g75
ssg63
g3853
sg56
(lp3860
S'X-Powered-By'
p3861
asbag49
(g70
g51
NtRp3862
(dp3863
g54
(dp3864
g81
g82
ssg63
g3853
sg56
(lp3865
S':'
asbag49
(g70
g51
NtRp3866
(dp3867
g54
(dp3868
sg63
g3853
sg56
(lp3869
g49
(g50
g51
NtRp3870
(dp3871
g54
(dp3872
g62
I4
ssg63
g3866
sg56
(lp3873
S'web2py'
p3874
asbasbasbasbasbasbasbag49
(g65
g51
NtRp3875
(dp3876
g54
(dp3877
sg63
g3391
sg56
(lp3878
g49
(g70
g51
NtRp3879
(dp3880
g54
(dp3881
g74
g75
ssg63
g3875
sg56
(lp3882
S'menu'
p3883
asbag49
(g70
g51
NtRp3884
(dp3885
g54
(dp3886
g81
g82
ssg63
g3875
sg56
(lp3887
S':'
asbag49
(g70
g51
NtRp3888
(dp3889
g54
(dp3890
sg63
g3875
sg56
(lp3891
g49
(g50
g51
NtRp3892
(dp3893
g54
(dp3894
g62
I5
ssg63
g3888
sg56
(lp3895
g49
(g58
g51
NtRp3896
(dp3897
g54
(dp3898
g62
I4
ssg63
Nsg56
(lp3899
g49
(g65
g51
NtRp3900
(dp3901
g54
(dp3902
sg63
g3896
sg56
(lp3903
g49
(g70
g51
NtRp3904
(dp3905
g54
(dp3906
sg63
g3900
sg56
(lp3907
g49
(g50
g51
NtRp3908
(dp3909
g54
(dp3910
g62
I4
ssg63
g3904
sg56
(lp3911
g49
(g58
g51
NtRp3912
(dp3913
g54
(dp3914
g62
I3
ssg63
Nsg56
(lp3915
g49
(g65
g51
NtRp3916
(dp3917
g54
(dp3918
sg63
g3912
sg56
(lp3919
g49
(g70
g51
NtRp3920
(dp3921
g54
(dp3922
sg63
g3916
sg56
(lp3923
g49
(g50
g51
NtRp3924
(dp3925
g54
(dp3926
g62
I3
ssg63
g3920
sg56
(lp3927
cgluon.languages
lazyT_unpickle
p3928
(S's\x04\x00\x00\x00Home'
tRp3929
asbasbasbag49
(g65
g51
NtRp3930
(dp3931
g54
(dp3932
sg63
g3912
sg56
(lp3933
g49
(g70
g51
NtRp3934
(dp3935
g54
(dp3936
sg63
g3930
sg56
(lp3937
g49
(g50
g51
NtRp3938
(dp3939
g54
(dp3940
g62
I3
ssg63
g3934
sg56
(lp3941
g92
asbasbasbag49
(g65
g51
NtRp3942
(dp3943
g54
(dp3944
sg63
g3912
sg56
(lp3945
g49
(g70
g51
NtRp3946
(dp3947
g54
(dp3948
sg63
g3942
sg56
(lp3949
g49
(g50
g51
NtRp3950
(dp3951
g54
(dp3952
g62
I3
ssg63
g3946
sg56
(lp3953
S'/index'
p3954
asbasbasbag49
(g65
g51
NtRp3955
(dp3956
g54
(dp3957
sg63
g3912
sg56
(lp3958
g49
(g70
g51
NtRp3959
(dp3960
g54
(dp3961
sg63
g3955
sg56
(lp3962
g49
(g50
g51
NtRp3963
(dp3964
g54
(dp3965
g62
I3
ssg63
g3959
sg56
(lp3966
g49
(g58
g51
NtRp3967
(dp3968
g54
(dp3969
g62
I2
ssg63
Nsg56
(lp3970
sbasbasbasbasbasbasbasbag49
(g65
g51
NtRp3971
(dp3972
g54
(dp3973
sg63
g3896
sg56
(lp3974
g49
(g70
g51
NtRp3975
(dp3976
g54
(dp3977
sg63
g3971
sg56
(lp3978
g49
(g50
g51
NtRp3979
(dp3980
g54
(dp3981
g62
I4
ssg63
g3975
sg56
(lp3982
g49
(g58
g51
NtRp3983
(dp3984
g54
(dp3985
g62
I3
ssg63
Nsg56
(lp3986
g49
(g65
g51
NtRp3987
(dp3988
g54
(dp3989
sg63
g3983
sg56
(lp3990
g49
(g70
g51
NtRp3991
(dp3992
g54
(dp3993
sg63
g3987
sg56
(lp3994
g49
(g50
g51
NtRp3995
(dp3996
g54
(dp3997
g62
I3
ssg63
g3991
sg56
(lp3998
g49
(cgluon.html
SPAN
p3999
g51
NtRp4000
(dp4001
g54
(dp4002
g74
S'color:yellow'
p4003
ssg63
Nsg56
(lp4004
g3874
asbasbasbasbag49
(g65
g51
NtRp4005
(dp4006
g54
(dp4007
sg63
g3983
sg56
(lp4008
g49
(g70
g51
NtRp4009
(dp4010
g54
(dp4011
sg63
g4005
sg56
(lp4012
g49
(g50
g51
NtRp4013
(dp4014
g54
(dp4015
g62
I3
ssg63
g4009
sg56
(lp4016
g92
asbasbasbag49
(g65
g51
NtRp4017
(dp4018
g54
(dp4019
sg63
g3983
sg56
(lp4020
g49
(g70
g51
NtRp4021
(dp4022
g54
(dp4023
sg63
g4017
sg56
(lp4024
g49
(g50
g51
NtRp4025
(dp4026
g54
(dp4027
g62
I3
ssg63
g4021
sg56
(lp4028
S'None'
p4029
asbasbasbag49
(g65
g51
NtRp4030
(dp4031
g54
(dp4032
sg63
g3983
sg56
(lp4033
g49
(g70
g51
NtRp4034
(dp4035
g54
(dp4036
sg63
g4030
sg56
(lp4037
g49
(g50
g51
NtRp4038
(dp4039
g54
(dp4040
g62
I3
ssg63
g4034
sg56
(lp4041
g49
(g58
g51
NtRp4042
(dp4043
g54
(dp4044
g62
I2
ssg63
Nsg56
(lp4045
g49
(g65
g51
NtRp4046
(dp4047
g54
(dp4048
sg63
g4042
sg56
(lp4049
g49
(g70
g51
NtRp4050
(dp4051
g54
(dp4052
sg63
g4046
sg56
(lp4053
g49
(g50
g51
NtRp4054
(dp4055
g54
(dp4056
g62
I2
ssg63
g4050
sg56
(lp4057
g49
(g58
g51
NtRp4058
(dp4059
g54
(dp4060
g62
I1
ssg63
Nsg56
(lp4061
g49
(g65
g51
NtRp4062
(dp4063
g54
(dp4064
sg63
g4058
sg56
(lp4065
g49
(g70
g51
NtRp4066
(dp4067
g54
(dp4068
sg63
g4062
sg56
(lp4069
g49
(g50
g51
NtRp4070
(dp4071
g54
(dp4072
g62
I1
ssg63
g4066
sg56
(lp4073
g3928
(S's\x08\x00\x00\x00My Sites'
tRp4074
asbasbasbag49
(g65
g51
NtRp4075
(dp4076
g54
(dp4077
sg63
g4058
sg56
(lp4078
g49
(g70
g51
NtRp4079
(dp4080
g54
(dp4081
sg63
g4075
sg56
(lp4082
g49
(g50
g51
NtRp4083
(dp4084
g54
(dp4085
g62
I1
ssg63
g4079
sg56
(lp4086
I00
asbasbasbag49
(g65
g51
NtRp4087
(dp4088
g54
(dp4089
sg63
g4058
sg56
(lp4090
g49
(g70
g51
NtRp4091
(dp4092
g54
(dp4093
sg63
g4087
sg56
(lp4094
g49
(g50
g51
NtRp4095
(dp4096
g54
(dp4097
g62
I1
ssg63
g4091
sg56
(lp4098
S'/admin/default/site'
p4099
asbasbasbasbasbasbasbag49
(g65
g51
NtRp4100
(dp4101
g54
(dp4102
sg63
g4042
sg56
(lp4103
g49
(g70
g51
NtRp4104
(dp4105
g54
(dp4106
sg63
g4100
sg56
(lp4107
g49
(g50
g51
NtRp4108
(dp4109
g54
(dp4110
g62
I2
ssg63
g4104
sg56
(lp4111
g49
(g58
g51
NtRp4112
(dp4113
g54
(dp4114
g62
I1
ssg63
Nsg56
(lp4115
g49
(g65
g51
NtRp4116
(dp4117
g54
(dp4118
sg63
g4112
sg56
(lp4119
g49
(g70
g51
NtRp4120
(dp4121
g54
(dp4122
sg63
g4116
sg56
(lp4123
g49
(g50
g51
NtRp4124
(dp4125
g54
(dp4126
g62
I1
ssg63
g4120
sg56
(lp4127
g3928
(S's\x08\x00\x00\x00This App'
tRp4128
asbasbasbag49
(g65
g51
NtRp4129
(dp4130
g54
(dp4131
sg63
g4112
sg56
(lp4132
g49
(g70
g51
NtRp4133
(dp4134
g54
(dp4135
sg63
g4129
sg56
(lp4136
g49
(g50
g51
NtRp4137
(dp4138
g54
(dp4139
g62
I1
ssg63
g4133
sg56
(lp4140
I00
asbasbasbag49
(g65
g51
NtRp4141
(dp4142
g54
(dp4143
sg63
g4112
sg56
(lp4144
g49
(g70
g51
NtRp4145
(dp4146
g54
(dp4147
sg63
g4141
sg56
(lp4148
g49
(g50
g51
NtRp4149
(dp4150
g54
(dp4151
g62
I1
ssg63
g4145
sg56
(lp4152
S'/admin/default/design/udi0312'
p4153
asbasbasbag49
(g65
g51
NtRp4154
(dp4155
g54
(dp4156
sg63
g4112
sg56
(lp4157
g49
(g70
g51
NtRp4158
(dp4159
g54
(dp4160
sg63
g4154
sg56
(lp4161
g49
(g50
g51
NtRp4162
(dp4163
g54
(dp4164
g62
I1
ssg63
g4158
sg56
(lp4165
(lp4166
(g3928
(S's\n\x00\x00\x00Controller'
tRp4167
I00
S'/admin/default/edit/udi0312/controllers/default.py'
tp4168
a(g3928
(S's\x04\x00\x00\x00View'
tRp4169
I00
S'/admin/default/edit/udi0312/views/default/index.html'
tp4170
a(g3928
(S's\x06\x00\x00\x00Layout'
tRp4171
I00
S'/admin/default/edit/udi0312/views/layout.html'
tp4172
a(g3928
(S's\n\x00\x00\x00Stylesheet'
tRp4173
I00
S'/admin/default/edit/udi0312/static/css/web2py.css'
tp4174
a(g3928
(S's\x08\x00\x00\x00DB Model'
tRp4175
I00
S'/admin/default/edit/udi0312/models/db.py'
tp4176
a(g3928
(S's\n\x00\x00\x00Menu Model'
tRp4177
I00
S'/admin/default/edit/udi0312/models/menu.py'
tp4178
a(g3928
(S's\x08\x00\x00\x00Database'
tRp4179
I00
S'/udi0312/appadmin/index'
tp4180
a(g3928
(S's\x06\x00\x00\x00Errors'
tRp4181
I00
S'/admin/default/errors/udi0312'
tp4182
a(g3928
(S's\x05\x00\x00\x00About'
tRp4183
I00
S'/admin/default/about/udi0312'
tp4184
aasbasbasbasbasbasbasbag49
(g65
g51
NtRp4185
(dp4186
g54
(dp4187
sg63
g4042
sg56
(lp4188
g49
(g70
g51
NtRp4189
(dp4190
g54
(dp4191
sg63
g4185
sg56
(lp4192
g49
(g50
g51
NtRp4193
(dp4194
g54
(dp4195
g62
I2
ssg63
g4189
sg56
(lp4196
g49
(g58
g51
NtRp4197
(dp4198
g54
(dp4199
g62
I1
ssg63
Nsg56
(lp4200
g49
(g65
g51
NtRp4201
(dp4202
g54
(dp4203
sg63
g4197
sg56
(lp4204
g49
(g70
g51
NtRp4205
(dp4206
g54
(dp4207
sg63
g4201
sg56
(lp4208
g49
(g50
g51
NtRp4209
(dp4210
g54
(dp4211
g62
I1
ssg63
g4205
sg56
(lp4212
S'web2py.com'
p4213
asbasbasbag49
(g65
g51
NtRp4214
(dp4215
g54
(dp4216
sg63
g4197
sg56
(lp4217
g49
(g70
g51
NtRp4218
(dp4219
g54
(dp4220
sg63
g4214
sg56
(lp4221
g49
(g50
g51
NtRp4222
(dp4223
g54
(dp4224
g62
I1
ssg63
g4218
sg56
(lp4225
I00
asbasbasbag49
(g65
g51
NtRp4226
(dp4227
g54
(dp4228
sg63
g4197
sg56
(lp4229
g49
(g70
g51
NtRp4230
(dp4231
g54
(dp4232
sg63
g4226
sg56
(lp4233
g49
(g50
g51
NtRp4234
(dp4235
g54
(dp4236
g62
I1
ssg63
g4230
sg56
(lp4237
S'http://www.web2py.com'
p4238
asbasbasbag49
(g65
g51
NtRp4239
(dp4240
g54
(dp4241
sg63
g4197
sg56
(lp4242
g49
(g70
g51
NtRp4243
(dp4244
g54
(dp4245
sg63
g4239
sg56
(lp4246
g49
(g50
g51
NtRp4247
(dp4248
g54
(dp4249
g62
I1
ssg63
g4243
sg56
(lp4250
(lp4251
(g3928
(S's\x08\x00\x00\x00Download'
tRp4252
I00
S'http://www.web2py.com/examples/default/download'
p4253
tp4254
a(g3928
(S's\x07\x00\x00\x00Support'
tRp4255
I00
S'http://www.web2py.com/examples/default/support'
p4256
tp4257
a(g3928
(S's\x04\x00\x00\x00Demo'
tRp4258
I00
S'http://web2py.com/demo_admin'
p4259
tp4260
a(g3928
(S's\x0e\x00\x00\x00Quick Examples'
tRp4261
I00
S'http://web2py.com/examples/default/examples'
p4262
tp4263
a(g3928
(S's\x03\x00\x00\x00FAQ'
tRp4264
I00
S'http://web2py.com/AlterEgo'
p4265
tp4266
a(g3928
(S's\x06\x00\x00\x00Videos'
tRp4267
I00
S'http://www.web2py.com/examples/default/videos/'
p4268
tp4269
a(g3928
(S's\x11\x00\x00\x00Free Applications'
tRp4270
I00
S'http://web2py.com/appliances'
p4271
tp4272
a(g3928
(S's\x07\x00\x00\x00Plugins'
tRp4273
I00
S'http://web2py.com/plugins'
p4274
tp4275
a(g3928
(S's\x07\x00\x00\x00Layouts'
tRp4276
I00
S'http://web2py.com/layouts'
p4277
tp4278
a(g3928
(S's\x07\x00\x00\x00Recipes'
tRp4279
I00
S'http://web2pyslices.com/'
p4280
tp4281
a(g3928
(S's\x08\x00\x00\x00Semantic'
tRp4282
I00
S'http://web2py.com/semantic'
p4283
tp4284
aasbasbasbasbasbasbasbag49
(g65
g51
NtRp4285
(dp4286
g54
(dp4287
sg63
g4042
sg56
(lp4288
g49
(g70
g51
NtRp4289
(dp4290
g54
(dp4291
sg63
g4285
sg56
(lp4292
g49
(g50
g51
NtRp4293
(dp4294
g54
(dp4295
g62
I2
ssg63
g4289
sg56
(lp4296
g49
(g58
g51
NtRp4297
(dp4298
g54
(dp4299
g62
I1
ssg63
Nsg56
(lp4300
g49
(g65
g51
NtRp4301
(dp4302
g54
(dp4303
sg63
g4297
sg56
(lp4304
g49
(g70
g51
NtRp4305
(dp4306
g54
(dp4307
sg63
g4301
sg56
(lp4308
g49
(g50
g51
NtRp4309
(dp4310
g54
(dp4311
g62
I1
ssg63
g4305
sg56
(lp4312
g3928
(S's\r\x00\x00\x00Documentation'
tRp4313
asbasbasbag49
(g65
g51
NtRp4314
(dp4315
g54
(dp4316
sg63
g4297
sg56
(lp4317
g49
(g70
g51
NtRp4318
(dp4319
g54
(dp4320
sg63
g4314
sg56
(lp4321
g49
(g50
g51
NtRp4322
(dp4323
g54
(dp4324
g62
I1
ssg63
g4318
sg56
(lp4325
I00
asbasbasbag49
(g65
g51
NtRp4326
(dp4327
g54
(dp4328
sg63
g4297
sg56
(lp4329
g49
(g70
g51
NtRp4330
(dp4331
g54
(dp4332
sg63
g4326
sg56
(lp4333
g49
(g50
g51
NtRp4334
(dp4335
g54
(dp4336
g62
I1
ssg63
g4330
sg56
(lp4337
S'http://www.web2py.com/book'
p4338
asbasbasbag49
(g65
g51
NtRp4339
(dp4340
g54
(dp4341
sg63
g4297
sg56
(lp4342
g49
(g70
g51
NtRp4343
(dp4344
g54
(dp4345
sg63
g4339
sg56
(lp4346
g49
(g50
g51
NtRp4347
(dp4348
g54
(dp4349
g62
I1
ssg63
g4343
sg56
(lp4350
(lp4351
(g3928
(S's\x07\x00\x00\x00Preface'
tRp4352
I00
S'http://www.web2py.com/book/default/chapter/00'
p4353
tp4354
a(g3928
(S's\x0c\x00\x00\x00Introduction'
tRp4355
I00
S'http://www.web2py.com/book/default/chapter/01'
p4356
tp4357
a(g3928
(S's\x06\x00\x00\x00Python'
tRp4358
I00
S'http://www.web2py.com/book/default/chapter/02'
p4359
tp4360
a(g3928
(S's\x08\x00\x00\x00Overview'
tRp4361
I00
S'http://www.web2py.com/book/default/chapter/03'
p4362
tp4363
a(g3928
(S's\x08\x00\x00\x00The Core'
tRp4364
I00
S'http://www.web2py.com/book/default/chapter/04'
p4365
tp4366
a(g3928
(S's\t\x00\x00\x00The Views'
tRp4367
I00
S'http://www.web2py.com/book/default/chapter/05'
p4368
tp4369
a(g3928
(S's\x08\x00\x00\x00Database'
tRp4370
I00
S'http://www.web2py.com/book/default/chapter/06'
p4371
tp4372
a(g3928
(S's\x14\x00\x00\x00Forms and Validators'
tRp4373
I00
S'http://www.web2py.com/book/default/chapter/07'
p4374
tp4375
a(g3928
(S's\r\x00\x00\x00Email and SMS'
tRp4376
I00
S'http://www.web2py.com/book/default/chapter/08'
p4377
tp4378
a(g3928
(S's\x0e\x00\x00\x00Access Control'
tRp4379
I00
S'http://www.web2py.com/book/default/chapter/09'
p4380
tp4381
a(g3928
(S's\x08\x00\x00\x00Services'
tRp4382
I00
S'http://www.web2py.com/book/default/chapter/10'
p4383
tp4384
a(g3928
(S's\x0c\x00\x00\x00Ajax Recipes'
tRp4385
I00
S'http://www.web2py.com/book/default/chapter/11'
p4386
tp4387
a(g3928
(S's\x16\x00\x00\x00Components and Plugins'
tRp4388
I00
S'http://www.web2py.com/book/default/chapter/12'
p4389
tp4390
a(g3928
(S's\x12\x00\x00\x00Deployment Recipes'
tRp4391
I00
S'http://www.web2py.com/book/default/chapter/13'
p4392
tp4393
a(g3928
(S's\r\x00\x00\x00Other Recipes'
tRp4394
I00
S'http://www.web2py.com/book/default/chapter/14'
p4395
tp4396
a(g3928
(S's\r\x00\x00\x00Buy this book'
tRp4397
I00
S'http://stores.lulu.com/web2py'
p4398
tp4399
aasbasbasbasbasbasbasbag49
(g65
g51
NtRp4400
(dp4401
g54
(dp4402
sg63
g4042
sg56
(lp4403
g49
(g70
g51
NtRp4404
(dp4405
g54
(dp4406
sg63
g4400
sg56
(lp4407
g49
(g50
g51
NtRp4408
(dp4409
g54
(dp4410
g62
I2
ssg63
g4404
sg56
(lp4411
g49
(g58
g51
NtRp4412
(dp4413
g54
(dp4414
g62
I1
ssg63
Nsg56
(lp4415
g49
(g65
g51
NtRp4416
(dp4417
g54
(dp4418
sg63
g4412
sg56
(lp4419
g49
(g70
g51
NtRp4420
(dp4421
g54
(dp4422
sg63
g4416
sg56
(lp4423
g49
(g50
g51
NtRp4424
(dp4425
g54
(dp4426
g62
I1
ssg63
g4420
sg56
(lp4427
g3928
(S's\t\x00\x00\x00Community'
tRp4428
asbasbasbag49
(g65
g51
NtRp4429
(dp4430
g54
(dp4431
sg63
g4412
sg56
(lp4432
g49
(g70
g51
NtRp4433
(dp4434
g54
(dp4435
sg63
g4429
sg56
(lp4436
g49
(g50
g51
NtRp4437
(dp4438
g54
(dp4439
g62
I1
ssg63
g4433
sg56
(lp4440
I00
asbasbasbag49
(g65
g51
NtRp4441
(dp4442
g54
(dp4443
sg63
g4412
sg56
(lp4444
g49
(g70
g51
NtRp4445
(dp4446
g54
(dp4447
sg63
g4441
sg56
(lp4448
g49
(g50
g51
NtRp4449
(dp4450
g54
(dp4451
g62
I1
ssg63
g4445
sg56
(lp4452
Nasbasbasbag49
(g65
g51
NtRp4453
(dp4454
g54
(dp4455
sg63
g4412
sg56
(lp4456
g49
(g70
g51
NtRp4457
(dp4458
g54
(dp4459
sg63
g4453
sg56
(lp4460
g49
(g50
g51
NtRp4461
(dp4462
g54
(dp4463
g62
I1
ssg63
g4457
sg56
(lp4464
(lp4465
(g3928
(S's\x06\x00\x00\x00Groups'
tRp4466
I00
S'http://www.web2py.com/examples/default/usergroups'
p4467
tp4468
a(g3928
(S's\x07\x00\x00\x00Twitter'
tRp4469
I00
S'http://twitter.com/web2py'
p4470
tp4471
a(g3928
(S's\t\x00\x00\x00Live Chat'
tRp4472
I00
S'http://webchat.freenode.net/?channels=web2py'
p4473
tp4474
aasbasbasbasbasbasbasbag49
(g65
g51
NtRp4475
(dp4476
g54
(dp4477
sg63
g4042
sg56
(lp4478
g49
(g70
g51
NtRp4479
(dp4480
g54
(dp4481
sg63
g4475
sg56
(lp4482
g49
(g50
g51
NtRp4483
(dp4484
g54
(dp4485
g62
I2
ssg63
g4479
sg56
(lp4486
g49
(g58
g51
NtRp4487
(dp4488
g54
(dp4489
g62
I1
ssg63
Nsg56
(lp4490
g49
(g65
g51
NtRp4491
(dp4492
g54
(dp4493
sg63
g4487
sg56
(lp4494
g49
(g70
g51
NtRp4495
(dp4496
g54
(dp4497
sg63
g4491
sg56
(lp4498
g49
(g50
g51
NtRp4499
(dp4500
g54
(dp4501
g62
I1
ssg63
g4495
sg56
(lp4502
g3928
(S's\x07\x00\x00\x00Plugins'
tRp4503
asbasbasbag49
(g65
g51
NtRp4504
(dp4505
g54
(dp4506
sg63
g4487
sg56
(lp4507
g49
(g70
g51
NtRp4508
(dp4509
g54
(dp4510
sg63
g4504
sg56
(lp4511
g49
(g50
g51
NtRp4512
(dp4513
g54
(dp4514
g62
I1
ssg63
g4508
sg56
(lp4515
I00
asbasbasbag49
(g65
g51
NtRp4516
(dp4517
g54
(dp4518
sg63
g4487
sg56
(lp4519
g49
(g70
g51
NtRp4520
(dp4521
g54
(dp4522
sg63
g4516
sg56
(lp4523
g49
(g50
g51
NtRp4524
(dp4525
g54
(dp4526
g62
I1
ssg63
g4520
sg56
(lp4527
Nasbasbasbag49
(g65
g51
NtRp4528
(dp4529
g54
(dp4530
sg63
g4487
sg56
(lp4531
g49
(g70
g51
NtRp4532
(dp4533
g54
(dp4534
sg63
g4528
sg56
(lp4535
g49
(g50
g51
NtRp4536
(dp4537
g54
(dp4538
g62
I1
ssg63
g4532
sg56
(lp4539
(lp4540
(S'plugin_wiki'
p4541
I00
S'http://web2py.com/examples/default/download'
p4542
tp4543
a(g3928
(S's\r\x00\x00\x00Other Plugins'
tRp4544
I00
g4274
tp4545
a(g3928
(S's\x0e\x00\x00\x00Layout Plugins'
tRp4546
I00
g4277
tp4547
aasbasbasbasbasbasbasbasbasbasbasbasbasbasbasbasbasbasbasbag49
(g65
g51
NtRp4548
(dp4549
g54
(dp4550
sg63
g3391
sg56
(lp4551
g49
(g70
g51
NtRp4552
(dp4553
g54
(dp4554
g74
g75
ssg63
g4548
sg56
(lp4555
S'meta'
p4556
asbag49
(g70
g51
NtRp4557
(dp4558
g54
(dp4559
g81
g82
ssg63
g4548
sg56
(lp4560
S':'
asbag49
(g70
g51
NtRp4561
(dp4562
g54
(dp4563
sg63
g4548
sg56
(lp4564
g49
(g50
g51
NtRp4565
(dp4566
g54
(dp4567
g62
I5
ssg63
g4561
sg56
(lp4568
g49
(g58
g51
NtRp4569
(dp4570
g54
(dp4571
g62
I4
ssg63
Nsg56
(lp4572
g49
(g65
g51
NtRp4573
(dp4574
g54
(dp4575
sg63
g4569
sg56
(lp4576
g49
(g70
g51
NtRp4577
(dp4578
g54
(dp4579
g74
g75
ssg63
g4573
sg56
(lp4580
S'author'
p4581
asbag49
(g70
g51
NtRp4582
(dp4583
g54
(dp4584
g81
g82
ssg63
g4573
sg56
(lp4585
S':'
asbag49
(g70
g51
NtRp4586
(dp4587
g54
(dp4588
sg63
g4573
sg56
(lp4589
g49
(g50
g51
NtRp4590
(dp4591
g54
(dp4592
g62
I4
ssg63
g4586
sg56
(lp4593
S'Your Name <you@example.com>'
p4594
asbasbasbag49
(g65
g51
NtRp4595
(dp4596
g54
(dp4597
sg63
g4569
sg56
(lp4598
g49
(g70
g51
NtRp4599
(dp4600
g54
(dp4601
g74
g75
ssg63
g4595
sg56
(lp4602
S'copyright'
p4603
asbag49
(g70
g51
NtRp4604
(dp4605
g54
(dp4606
g81
g82
ssg63
g4595
sg56
(lp4607
S':'
asbag49
(g70
g51
NtRp4608
(dp4609
g54
(dp4610
sg63
g4595
sg56
(lp4611
g49
(g50
g51
NtRp4612
(dp4613
g54
(dp4614
g62
I4
ssg63
g4608
sg56
(lp4615
S'Copyright 2011'
p4616
asbasbasbag49
(g65
g51
NtRp4617
(dp4618
g54
(dp4619
sg63
g4569
sg56
(lp4620
g49
(g70
g51
NtRp4621
(dp4622
g54
(dp4623
g74
g75
ssg63
g4617
sg56
(lp4624
S'description'
p4625
asbag49
(g70
g51
NtRp4626
(dp4627
g54
(dp4628
g81
g82
ssg63
g4617
sg56
(lp4629
S':'
asbag49
(g70
g51
NtRp4630
(dp4631
g54
(dp4632
sg63
g4617
sg56
(lp4633
g49
(g50
g51
NtRp4634
(dp4635
g54
(dp4636
g62
I4
ssg63
g4630
sg56
(lp4637
S'a cool new app'
p4638
asbasbasbag49
(g65
g51
NtRp4639
(dp4640
g54
(dp4641
sg63
g4569
sg56
(lp4642
g49
(g70
g51
NtRp4643
(dp4644
g54
(dp4645
g74
g75
ssg63
g4639
sg56
(lp4646
S'generator'
p4647
asbag49
(g70
g51
NtRp4648
(dp4649
g54
(dp4650
g81
g82
ssg63
g4639
sg56
(lp4651
S':'
asbag49
(g70
g51
NtRp4652
(dp4653
g54
(dp4654
sg63
g4639
sg56
(lp4655
g49
(g50
g51
NtRp4656
(dp4657
g54
(dp4658
g62
I4
ssg63
g4652
sg56
(lp4659
S'Web2py Web Framework'
p4660
asbasbasbag49
(g65
g51
NtRp4661
(dp4662
g54
(dp4663
sg63
g4569
sg56
(lp4664
g49
(g70
g51
NtRp4665
(dp4666
g54
(dp4667
g74
g75
ssg63
g4661
sg56
(lp4668
S'keywords'
p4669
asbag49
(g70
g51
NtRp4670
(dp4671
g54
(dp4672
g81
g82
ssg63
g4661
sg56
(lp4673
S':'
asbag49
(g70
g51
NtRp4674
(dp4675
g54
(dp4676
sg63
g4661
sg56
(lp4677
g49
(g50
g51
NtRp4678
(dp4679
g54
(dp4680
g62
I4
ssg63
g4674
sg56
(lp4681
S'web2py, python, framework'
p4682
asbasbasbasbasbasbasbag49
(g65
g51
NtRp4683
(dp4684
g54
(dp4685
sg63
g3391
sg56
(lp4686
g49
(g70
g51
NtRp4687
(dp4688
g54
(dp4689
g74
g75
ssg63
g4683
sg56
(lp4690
S'postprocessing'
p4691
asbag49
(g70
g51
NtRp4692
(dp4693
g54
(dp4694
g81
g82
ssg63
g4683
sg56
(lp4695
S':'
asbag49
(g70
g51
NtRp4696
(dp4697
g54
(dp4698
sg63
g4683
sg56
(lp4699
g49
(g50
g51
NtRp4700
(dp4701
g54
(dp4702
g62
I5
ssg63
g4696
sg56
(lp4703
g49
(g58
g51
NtRp4704
(dp4705
g54
(dp4706
g62
I4
ssg63
Nsg56
(lp4707
sbasbasbasbag49
(g65
g51
NtRp4708
(dp4709
g54
(dp4710
sg63
g3391
sg56
(lp4711
g49
(g70
g51
NtRp4712
(dp4713
g54
(dp4714
g74
g75
ssg63
g4708
sg56
(lp4715
S'session_file'
p4716
asbag49
(g70
g51
NtRp4717
(dp4718
g54
(dp4719
g81
g82
ssg63
g4708
sg56
(lp4720
S':'
asbag49
(g70
g51
NtRp4721
(dp4722
g54
(dp4723
sg63
g4708
sg56
(lp4724
g49
(g50
g51
NtRp4725
(dp4726
g54
(dp4727
g62
I5
ssg63
g4721
sg56
(lp4728
S"<open file '/Users/udimilo/Documents/web2py/applications/udi0312/sessions/127.0.0.1-fcd6a577-d448-4882-b7bc-f353da84ba3b', mode 'rb+' at 0x8d8bba8>"
p4729
asbasbasbag49
(g65
g51
NtRp4730
(dp4731
g54
(dp4732
sg63
g3391
sg56
(lp4733
g49
(g70
g51
NtRp4734
(dp4735
g54
(dp4736
g74
g75
ssg63
g4730
sg56
(lp4737
S'session_filename'
p4738
asbag49
(g70
g51
NtRp4739
(dp4740
g54
(dp4741
g81
g82
ssg63
g4730
sg56
(lp4742
S':'
asbag49
(g70
g51
NtRp4743
(dp4744
g54
(dp4745
sg63
g4730
sg56
(lp4746
g49
(g50
g51
NtRp4747
(dp4748
g54
(dp4749
g62
I5
ssg63
g4743
sg56
(lp4750
S'/Users/udimilo/Documents/web2py/applications/udi0312/sessions/127.0.0.1-fcd6a577-d448-4882-b7bc-f353da84ba3b'
p4751
asbasbasbag49
(g65
g51
NtRp4752
(dp4753
g54
(dp4754
sg63
g3391
sg56
(lp4755
g49
(g70
g51
NtRp4756
(dp4757
g54
(dp4758
g74
g75
ssg63
g4752
sg56
(lp4759
S'session_id'
p4760
asbag49
(g70
g51
NtRp4761
(dp4762
g54
(dp4763
g81
g82
ssg63
g4752
sg56
(lp4764
S':'
asbag49
(g70
g51
NtRp4765
(dp4766
g54
(dp4767
sg63
g4752
sg56
(lp4768
g49
(g50
g51
NtRp4769
(dp4770
g54
(dp4771
g62
I5
ssg63
g4765
sg56
(lp4772
S'127.0.0.1-fcd6a577-d448-4882-b7bc-f353da84ba3b'
p4773
asbasbasbag49
(g65
g51
NtRp4774
(dp4775
g54
(dp4776
sg63
g3391
sg56
(lp4777
g49
(g70
g51
NtRp4778
(dp4779
g54
(dp4780
g74
g75
ssg63
g4774
sg56
(lp4781
S'session_id_name'
p4782
asbag49
(g70
g51
NtRp4783
(dp4784
g54
(dp4785
g81
g82
ssg63
g4774
sg56
(lp4786
S':'
asbag49
(g70
g51
NtRp4787
(dp4788
g54
(dp4789
sg63
g4774
sg56
(lp4790
g49
(g50
g51
NtRp4791
(dp4792
g54
(dp4793
g62
I5
ssg63
g4787
sg56
(lp4794
g3448
asbasbasbag49
(g65
g51
NtRp4795
(dp4796
g54
(dp4797
sg63
g3391
sg56
(lp4798
g49
(g70
g51
NtRp4799
(dp4800
g54
(dp4801
g74
g75
ssg63
g4795
sg56
(lp4802
S'session_locked'
p4803
asbag49
(g70
g51
NtRp4804
(dp4805
g54
(dp4806
g81
g82
ssg63
g4795
sg56
(lp4807
S':'
asbag49
(g70
g51
NtRp4808
(dp4809
g54
(dp4810
sg63
g4795
sg56
(lp4811
g49
(g50
g51
NtRp4812
(dp4813
g54
(dp4814
g62
I5
ssg63
g4808
sg56
(lp4815
g1507
asbasbasbag49
(g65
g51
NtRp4816
(dp4817
g54
(dp4818
sg63
g3391
sg56
(lp4819
g49
(g70
g51
NtRp4820
(dp4821
g54
(dp4822
g74
g75
ssg63
g4816
sg56
(lp4823
S'session_new'
p4824
asbag49
(g70
g51
NtRp4825
(dp4826
g54
(dp4827
g81
g82
ssg63
g4816
sg56
(lp4828
S':'
asbag49
(g70
g51
NtRp4829
(dp4830
g54
(dp4831
sg63
g4816
sg56
(lp4832
g49
(g50
g51
NtRp4833
(dp4834
g54
(dp4835
g62
I5
ssg63
g4829
sg56
(lp4836
g92
asbasbasbag49
(g65
g51
NtRp4837
(dp4838
g54
(dp4839
sg63
g3391
sg56
(lp4840
g49
(g70
g51
NtRp4841
(dp4842
g54
(dp4843
g74
g75
ssg63
g4837
sg56
(lp4844
S'status'
p4845
asbag49
(g70
g51
NtRp4846
(dp4847
g54
(dp4848
g81
g82
ssg63
g4837
sg56
(lp4849
S':'
asbag49
(g70
g51
NtRp4850
(dp4851
g54
(dp4852
sg63
g4837
sg56
(lp4853
g49
(g50
g51
NtRp4854
(dp4855
g54
(dp4856
g62
I5
ssg63
g4850
sg56
(lp4857
S'200'
p4858
asbasbasbag49
(g65
g51
NtRp4859
(dp4860
g54
(dp4861
sg63
g3391
sg56
(lp4862
g49
(g70
g51
NtRp4863
(dp4864
g54
(dp4865
g74
g75
ssg63
g4859
sg56
(lp4866
S'subtitle'
p4867
asbag49
(g70
g51
NtRp4868
(dp4869
g54
(dp4870
g81
g82
ssg63
g4859
sg56
(lp4871
S':'
asbag49
(g70
g51
NtRp4872
(dp4873
g54
(dp4874
sg63
g4859
sg56
(lp4875
g49
(g50
g51
NtRp4876
(dp4877
g54
(dp4878
g62
I5
ssg63
g4872
sg56
(lp4879
g3928
(S's\r\x00\x00\x00customize me!'
tRp4880
asbasbasbag49
(g65
g51
NtRp4881
(dp4882
g54
(dp4883
sg63
g3391
sg56
(lp4884
g49
(g70
g51
NtRp4885
(dp4886
g54
(dp4887
g74
g75
ssg63
g4881
sg56
(lp4888
S'title'
p4889
asbag49
(g70
g51
NtRp4890
(dp4891
g54
(dp4892
g81
g82
ssg63
g4881
sg56
(lp4893
S':'
asbag49
(g70
g51
NtRp4894
(dp4895
g54
(dp4896
sg63
g4881
sg56
(lp4897
g49
(g50
g51
NtRp4898
(dp4899
g54
(dp4900
g62
I5
ssg63
g4894
sg56
(lp4901
S'Udi0312'
p4902
asbasbasbag49
(g65
g51
NtRp4903
(dp4904
g54
(dp4905
sg63
g3391
sg56
(lp4906
g49
(g70
g51
NtRp4907
(dp4908
g54
(dp4909
g74
g75
ssg63
g4903
sg56
(lp4910
g2171
asbag49
(g70
g51
NtRp4911
(dp4912
g54
(dp4913
g81
g82
ssg63
g4903
sg56
(lp4914
S':'
asbag49
(g70
g51
NtRp4915
(dp4916
g54
(dp4917
sg63
g4903
sg56
(lp4918
g49
(g50
g51
NtRp4919
(dp4920
g54
(dp4921
g62
I5
ssg63
g4915
sg56
(lp4922
g2184
asbasbasbag49
(g65
g51
NtRp4923
(dp4924
g54
(dp4925
sg63
g3391
sg56
(lp4926
g49
(g70
g51
NtRp4927
(dp4928
g54
(dp4929
g74
g75
ssg63
g4923
sg56
(lp4930
S'view'
p4931
asbag49
(g70
g51
NtRp4932
(dp4933
g54
(dp4934
g81
g82
ssg63
g4923
sg56
(lp4935
S':'
asbag49
(g70
g51
NtRp4936
(dp4937
g54
(dp4938
sg63
g4923
sg56
(lp4939
g49
(g50
g51
NtRp4940
(dp4941
g54
(dp4942
g62
I5
ssg63
g4936
sg56
(lp4943
S'default/index.html'
p4944
asbasbasbasbasbsS'locals'
p4945
(dp4946
S'user'
p4947
S"<Storage {'first_name': 'Udi', 'last_name': 'Mil...stration_key': '', 'email': 'udimilo@gmail.com'}>"
p4948
sssS'traceback'
p4949
S'Traceback (most recent call last):\n  File "/users/udimilo/Documents/web2py/gluon/restricted.py", line 205, in restricted\n    exec ccode in environment\n  File "/Users/udimilo/Documents/web2py/applications/udi0312/controllers/default.py", line 150, in <module>\n  File "/users/udimilo/Documents/web2py/gluon/globals.py", line 173, in <lambda>\n    self._caller = lambda f: f()\n  File "/Users/udimilo/Documents/web2py/applications/udi0312/controllers/default.py", line 22, in index\n    pins = get_pins(auth.user)\n  File "/Users/udimilo/Documents/web2py/applications/udi0312/controllers/default.py", line 8, in get_pins\n    boards = user.boards.select()\nAttributeError: \'NoneType\' object has no attribute \'select\'\n'
p4950
s.